00000000  7F45              jg 0x47
00000002  4C                dec esp
00000003  46                inc esi
00000004  0101              add [ecx],eax
00000006  0100              add [eax],eax
00000008  0000              add [eax],al
0000000A  0000              add [eax],al
0000000C  0000              add [eax],al
0000000E  0000              add [eax],al
00000010  0200              add al,[eax]
00000012  0300              add eax,[eax]
00000014  0100              add [eax],eax
00000016  0000              add [eax],al
00000018  90                nop
00000019  870408            xchg eax,[eax+ecx]
0000001C  3400              xor al,0x0
0000001E  0000              add [eax],al
00000020  E029              loopne 0x4b
00000022  0000              add [eax],al
00000024  0000              add [eax],al
00000026  0000              add [eax],al
00000028  3400              xor al,0x0
0000002A  2000              and [eax],al
0000002C  0800              or [eax],al
0000002E  2800              sub [eax],al
00000030  260023            add [es:ebx],ah
00000033  0006              add [esi],al
00000035  0000              add [eax],al
00000037  003400            add [eax+eax],dh
0000003A  0000              add [eax],al
0000003C  3480              xor al,0x80
0000003E  0408              add al,0x8
00000040  3480              xor al,0x80
00000042  0408              add al,0x8
00000044  0001              add [ecx],al
00000046  0000              add [eax],al
00000048  0001              add [ecx],al
0000004A  0000              add [eax],al
0000004C  0500000004        add eax,0x4000000
00000051  0000              add [eax],al
00000053  0003              add [ebx],al
00000055  0000              add [eax],al
00000057  003401            add [ecx+eax],dh
0000005A  0000              add [eax],al
0000005C  3481              xor al,0x81
0000005E  0408              add al,0x8
00000060  3481              xor al,0x81
00000062  0408              add al,0x8
00000064  1300              adc eax,[eax]
00000066  0000              add [eax],al
00000068  1300              adc eax,[eax]
0000006A  0000              add [eax],al
0000006C  0400              add al,0x0
0000006E  0000              add [eax],al
00000070  0100              add [eax],eax
00000072  0000              add [eax],al
00000074  0100              add [eax],eax
00000076  0000              add [eax],al
00000078  0000              add [eax],al
0000007A  0000              add [eax],al
0000007C  008004080080      add [eax-0x7ffff7fc],al
00000082  0408              add al,0x8
00000084  3F                aas
00000085  2000              and [eax],al
00000087  003F              add [edi],bh
00000089  2000              and [eax],al
0000008B  000500000000      add [dword 0x0],al
00000091  1000              adc [eax],al
00000093  0001              add [ecx],al
00000095  0000              add [eax],al
00000097  004020            add [eax+0x20],al
0000009A  0000              add [eax],al
0000009C  40                inc eax
0000009D  B004              mov al,0x4
0000009F  0840B0            or [eax-0x50],al
000000A2  0408              add al,0x8
000000A4  48                dec eax
000000A5  0100              add [eax],eax
000000A7  00FC              add ah,bh
000000A9  0100              add [eax],eax
000000AB  0006              add [esi],al
000000AD  0000              add [eax],al
000000AF  0000              add [eax],al
000000B1  1000              adc [eax],al
000000B3  0002              add [edx],al
000000B5  0000              add [eax],al
000000B7  005820            add [eax+0x20],bl
000000BA  0000              add [eax],al
000000BC  58                pop eax
000000BD  B004              mov al,0x4
000000BF  0858B0            or [eax-0x50],bl
000000C2  0408              add al,0x8
000000C4  E000              loopne 0xc6
000000C6  0000              add [eax],al
000000C8  E000              loopne 0xca
000000CA  0000              add [eax],al
000000CC  06                push es
000000CD  0000              add [eax],al
000000CF  000400            add [eax+eax],al
000000D2  0000              add [eax],al
000000D4  0400              add al,0x0
000000D6  0000              add [eax],al
000000D8  48                dec eax
000000D9  0100              add [eax],eax
000000DB  004881            add [eax-0x7f],cl
000000DE  0408              add al,0x8
000000E0  48                dec eax
000000E1  81040820000000    add dword [eax+ecx],0x20
000000E8  2000              and [eax],al
000000EA  0000              add [eax],al
000000EC  0400              add al,0x0
000000EE  0000              add [eax],al
000000F0  0400              add al,0x0
000000F2  0000              add [eax],al
000000F4  50                push eax
000000F5  E574              in eax,0x74
000000F7  645C              fs pop esp
000000F9  1500005C95        adc eax,0x955c0000
000000FE  0408              add al,0x8
00000100  5C                pop esp
00000101  95                xchg eax,ebp
00000102  0408              add al,0x8
00000104  0402              add al,0x2
00000106  0000              add [eax],al
00000108  0402              add al,0x2
0000010A  0000              add [eax],al
0000010C  0400              add al,0x0
0000010E  0000              add [eax],al
00000110  0400              add al,0x0
00000112  0000              add [eax],al
00000114  51                push ecx
00000115  E574              in eax,0x74
00000117  640000            add [fs:eax],al
0000011A  0000              add [eax],al
0000011C  0000              add [eax],al
0000011E  0000              add [eax],al
00000120  0000              add [eax],al
00000122  0000              add [eax],al
00000124  0000              add [eax],al
00000126  0000              add [eax],al
00000128  0000              add [eax],al
0000012A  0000              add [eax],al
0000012C  06                push es
0000012D  0000              add [eax],al
0000012F  000400            add [eax+eax],al
00000132  0000              add [eax],al
00000134  2F                das
00000135  6C                insb
00000136  69622F6C642D6C    imul esp,[edx+0x2f],dword 0x6c2d646c
0000013D  696E75782E736F    imul ebp,[esi+0x75],dword 0x6f732e78
00000144  2E3200            xor al,[cs:eax]
00000147  000400            add [eax+eax],al
0000014A  0000              add [eax],al
0000014C  1000              adc [eax],al
0000014E  0000              add [eax],al
00000150  0100              add [eax],eax
00000152  0000              add [eax],al
00000154  47                inc edi
00000155  4E                dec esi
00000156  55                push ebp
00000157  0000              add [eax],al
00000159  0000              add [eax],al
0000015B  0002              add [edx],al
0000015D  0000              add [eax],al
0000015F  0000              add [eax],al
00000161  0000              add [eax],al
00000163  0000              add [eax],al
00000165  0000              add [eax],al
00000167  0011              add [ecx],dl
00000169  0000              add [eax],al
0000016B  001400            add [eax+eax],dl
0000016E  0000              add [eax],al
00000170  0E                push cs
00000171  0000              add [eax],al
00000173  0000              add [eax],al
00000175  0000              add [eax],al
00000177  0007              add [edi],al
00000179  0000              add [eax],al
0000017B  0011              add [ecx],dl
0000017D  0000              add [eax],al
0000017F  0012              add [edx],dl
00000181  0000              add [eax],al
00000183  0000              add [eax],al
00000185  0000              add [eax],al
00000187  0013              add [ebx],dl
00000189  0000              add [eax],al
0000018B  0008              add [eax],cl
0000018D  0000              add [eax],al
0000018F  0010              add [eax],dl
00000191  0000              add [eax],al
00000193  0000              add [eax],al
00000195  0000              add [eax],al
00000197  000D0000000F      add [dword 0xf000000],cl
0000019D  0000              add [eax],al
0000019F  000A              add [edx],cl
000001A1  0000              add [eax],al
000001A3  000B              add [ebx],cl
000001A5  0000              add [eax],al
000001A7  0002              add [edx],al
000001A9  0000              add [eax],al
000001AB  0003              add [ebx],al
000001AD  0000              add [eax],al
000001AF  0000              add [eax],al
000001B1  0000              add [eax],al
000001B3  0000              add [eax],al
000001B5  0000              add [eax],al
000001B7  0000              add [eax],al
000001B9  0000              add [eax],al
000001BB  0000              add [eax],al
000001BD  0000              add [eax],al
000001BF  0000              add [eax],al
000001C1  0000              add [eax],al
000001C3  0000              add [eax],al
000001C5  0000              add [eax],al
000001C7  0000              add [eax],al
000001C9  0000              add [eax],al
000001CB  0000              add [eax],al
000001CD  0000              add [eax],al
000001CF  0000              add [eax],al
000001D1  0000              add [eax],al
000001D3  000500000000      add [dword 0x0],al
000001D9  0000              add [eax],al
000001DB  0006              add [esi],al
000001DD  0000              add [eax],al
000001DF  0009              add [ecx],cl
000001E1  0000              add [eax],al
000001E3  000400            add [eax+eax],al
000001E6  0000              add [eax],al
000001E8  0000              add [eax],al
000001EA  0000              add [eax],al
000001EC  0000              add [eax],al
000001EE  0000              add [eax],al
000001F0  0000              add [eax],al
000001F2  0000              add [eax],al
000001F4  0000              add [eax],al
000001F6  0000              add [eax],al
000001F8  0C00              or al,0x0
000001FA  0000              add [eax],al
000001FC  0100              add [eax],eax
000001FE  0000              add [eax],al
00000200  0000              add [eax],al
00000202  0000              add [eax],al
00000204  0000              add [eax],al
00000206  0000              add [eax],al
00000208  0000              add [eax],al
0000020A  0000              add [eax],al
0000020C  0000              add [eax],al
0000020E  0000              add [eax],al
00000210  0000              add [eax],al
00000212  0000              add [eax],al
00000214  A5                movsd
00000215  0000              add [eax],al
00000217  00A0B1040890      add [eax-0x6ff7fb4f],ah
0000021D  0000              add [eax],al
0000021F  0011              add [ecx],dl
00000221  0019              add [ecx],bl
00000223  00A101000000      add [ecx+0x1],ah
00000229  0000              add [eax],al
0000022B  0000              add [eax],al
0000022D  0000              add [eax],al
0000022F  0012              add [edx],dl
00000231  0000              add [eax],al
00000233  008100000000      add [ecx+0x0],al
00000239  0000              add [eax],al
0000023B  0000              add [eax],al
0000023D  0000              add [eax],al
0000023F  0020              add [eax],ah
00000241  0000              add [eax],al
00000243  00C6              add dh,al
00000245  0000              add [eax],al
00000247  0000              add [eax],al
00000249  0000              add [eax],al
0000024B  0000              add [eax],al
0000024D  0000              add [eax],al
0000024F  0020              add [eax],ah
00000251  0000              add [eax],al
00000253  0010              add [eax],dl
00000255  0000              add [eax],al
00000257  0000              add [eax],al
00000259  0000              add [eax],al
0000025B  0000              add [eax],al
0000025D  0000              add [eax],al
0000025F  0012              add [edx],dl
00000261  0000              add [eax],al
00000263  00AE00000000      add [esi+0x0],ch
00000269  0000              add [eax],al
0000026B  0000              add [eax],al
0000026D  0000              add [eax],al
0000026F  0012              add [edx],dl
00000271  0000              add [eax],al
00000273  0033              add [ebx],dh
00000275  0000              add [eax],al
00000277  0000              add [eax],al
00000279  0000              add [eax],al
0000027B  0000              add [eax],al
0000027D  0000              add [eax],al
0000027F  0012              add [edx],dl
00000281  0000              add [eax],al
00000283  00AE01000000      add [esi+0x1],ch
00000289  0000              add [eax],al
0000028B  0000              add [eax],al
0000028D  0000              add [eax],al
0000028F  0012              add [edx],dl
00000291  0000              add [eax],al
00000293  006300            add [ebx+0x0],ah
00000296  0000              add [eax],al
00000298  108704080000      adc [edi+0x804],al
0000029E  0000              add [eax],al
000002A0  1200              adc al,[eax]
000002A2  0000              add [eax],al
000002A4  17                pop ss
000002A5  0000              add [eax],al
000002A7  0000              add [eax],al
000002A9  0000              add [eax],al
000002AB  0000              add [eax],al
000002AD  0000              add [eax],al
000002AF  0020              add [eax],ah
000002B1  0000              add [eax],al
000002B3  008B01000048      add [ebx+0x48000001],cl
000002B9  95                xchg eax,ebp
000002BA  0408              add al,0x8
000002BC  0400              add al,0x0
000002BE  0000              add [eax],al
000002C0  1100              adc [eax],eax
000002C2  0E                push cs
000002C3  00E5              add ch,ah
000002C5  0000              add [eax],al
000002C7  0000              add [eax],al
000002C9  0000              add [eax],al
000002CB  0000              add [eax],al
000002CD  0000              add [eax],al
000002CF  0020              add [eax],ah
000002D1  0000              add [eax],al
000002D3  009A01000000      add [edx+0x1],bl
000002D9  0000              add [eax],al
000002DB  0000              add [eax],al
000002DD  0000              add [eax],al
000002DF  0012              add [edx],dl
000002E1  0000              add [eax],al
000002E3  007B00            add [ebx+0x0],bh
000002E6  0000              add [eax],al
000002E8  0000              add [eax],al
000002EA  0000              add [eax],al
000002EC  0000              add [eax],al
000002EE  0000              add [eax],al
000002F0  1200              adc al,[eax]
000002F2  0000              add [eax],al
000002F4  FF00              inc dword [eax]
000002F6  0000              add [eax],al
000002F8  0000              add [eax],al
000002FA  0000              add [eax],al
000002FC  0000              add [eax],al
000002FE  0000              add [eax],al
00000300  1200              adc al,[eax]
00000302  0000              add [eax],al
00000304  DA00              fiadd dword [eax]
00000306  0000              add [eax],al
00000308  0000              add [eax],al
0000030A  0000              add [eax],al
0000030C  0000              add [eax],al
0000030E  0000              add [eax],al
00000310  1200              adc al,[eax]
00000312  0000              add [eax],al
00000314  41                inc ecx
00000315  0100              add [eax],eax
00000317  0000              add [eax],al
00000319  0000              add [eax],al
0000031B  0000              add [eax],al
0000031D  0000              add [eax],al
0000031F  0012              add [edx],dl
00000321  0000              add [eax],al
00000323  009000000070      add [eax+0x70000000],dl
00000329  870408            xchg eax,[eax+ecx]
0000032C  0000              add [eax],al
0000032E  0000              add [eax],al
00000330  1200              adc al,[eax]
00000332  0000              add [eax],al
00000334  7201              jc 0x337
00000336  0000              add [eax],al
00000338  0000              add [eax],al
0000033A  0000              add [eax],al
0000033C  0000              add [eax],al
0000033E  0000              add [eax],al
00000340  1200              adc al,[eax]
00000342  0000              add [eax],al
00000344  006C6962          add [ecx+ebp*2+0x62],ch
00000348  7374              jnc 0x3be
0000034A  64632B            arpl [fs:ebx],bp
0000034D  2B2E              sub ebp,[esi]
0000034F  736F              jnc 0x3c0
00000351  2E36005F5A        add [ss:edi+0x5a],bl
00000356  646C              fs insb
00000358  50                push eax
00000359  7600              jna 0x35b
0000035B  5F                pop edi
0000035C  49                dec ecx
0000035D  54                push esp
0000035E  4D                dec ebp
0000035F  5F                pop edi
00000360  64657265          gs jc 0x3c9
00000364  676973746572544D  imul esi,[bp+di+0x74],dword 0x4d547265
0000036C  43                inc ebx
0000036D  6C                insb
0000036E  6F                outsd
0000036F  6E                outsb
00000370  6554              gs push esp
00000372  61                popa
00000373  626C6500          bound ebp,[ebp+0x0]
00000377  5F                pop edi
00000378  5A                pop edx
00000379  53                push ebx
0000037A  7431              jz 0x3ad
0000037C  385F52            cmp [edi+0x52],bl
0000037F  625F74            bound ebx,[edi+0x74]
00000382  7265              jc 0x3e9
00000384  655F              gs pop edi
00000386  6465637265        arpl [gs:edx+0x65],si
0000038B  6D                insd
0000038C  656E              gs outsb
0000038E  7450              jz 0x3e0
00000390  53                push ebx
00000391  7431              jz 0x3c4
00000393  385F52            cmp [edi+0x52],bl
00000396  625F74            bound ebx,[edi+0x74]
00000399  7265              jc 0x400
0000039B  655F              gs pop edi
0000039D  6E                outsb
0000039E  6F                outsd
0000039F  64655F            gs pop edi
000003A2  626173            bound esp,[ecx+0x73]
000003A5  65005F5A          add [gs:edi+0x5a],bl
000003A9  4E                dec esi
000003AA  53                push ebx
000003AB  7438              jz 0x3e5
000003AD  696F735F626173    imul ebp,[edi+0x73],dword 0x7361625f
000003B4  653449            gs xor al,0x49
000003B7  6E                outsb
000003B8  697444314576005F  imul esi,[esp+eax*2+0x31],dword 0x5f007645
000003C0  5A                pop edx
000003C1  6E                outsb
000003C2  776A              ja 0x42e
000003C4  005F5F            add [edi+0x5f],bl
000003C7  676D              a16 insd
000003C9  6F                outsd
000003CA  6E                outsb
000003CB  5F                pop edi
000003CC  7374              jnc 0x442
000003CE  61                popa
000003CF  7274              jc 0x445
000003D1  5F                pop edi
000003D2  5F                pop edi
000003D3  005F5F            add [edi+0x5f],bl
000003D6  677878            js 0x451
000003D9  5F                pop edi
000003DA  7065              jo 0x441
000003DC  7273              jc 0x451
000003DE  6F                outsd
000003DF  6E                outsb
000003E0  61                popa
000003E1  6C                insb
000003E2  6974795F7630005F  imul esi,[ecx+edi*2+0x5f],dword 0x5f003076
000003EA  5A                pop edx
000003EB  53                push ebx
000003EC  7433              jz 0x421
000003EE  63696E            arpl [ecx+0x6e],bp
000003F1  005F5A            add [edi+0x5a],bl
000003F4  4E                dec esi
000003F5  53                push ebx
000003F6  7438              jz 0x430
000003F8  696F735F626173    imul ebp,[edi+0x73],dword 0x7361625f
000003FF  653449            gs xor al,0x49
00000402  6E                outsb
00000403  697443314576005F  imul esi,[ebx+eax*2+0x31],dword 0x5f007645
0000040B  4A                dec edx
0000040C  765F              jna 0x46d
0000040E  52                push edx
0000040F  6567697374657243  imul esi,[gs:bp+di+0x74],dword 0x6c437265
         -6C
00000418  61                popa
00000419  7373              jnc 0x48e
0000041B  657300            gs jnc 0x41e
0000041E  5F                pop edi
0000041F  5A                pop edx
00000420  4E                dec esi
00000421  53                push ebx
00000422  69727345526900    imul esi,[edx+0x73],dword 0x695245
00000429  5F                pop edi
0000042A  49                dec ecx
0000042B  54                push esp
0000042C  4D                dec ebp
0000042D  5F                pop edi
0000042E  7265              jc 0x495
00000430  676973746572544D  imul esi,[bp+di+0x74],dword 0x4d547265
00000438  43                inc ebx
00000439  6C                insb
0000043A  6F                outsd
0000043B  6E                outsb
0000043C  6554              gs push esp
0000043E  61                popa
0000043F  626C6500          bound ebp,[ebp+0x0]
00000443  5F                pop edi
00000444  5A                pop edx
00000445  53                push ebx
00000446  7432              jz 0x47a
00000448  395F52            cmp [edi+0x52],ebx
0000044B  625F74            bound ebx,[edi+0x74]
0000044E  7265              jc 0x4b5
00000450  655F              gs pop edi
00000452  696E736572745F    imul ebp,[esi+0x73],dword 0x5f747265
00000459  61                popa
0000045A  6E                outsb
0000045B  645F              fs pop edi
0000045D  7265              jc 0x4c4
0000045F  62616C            bound esp,[ecx+0x6c]
00000462  61                popa
00000463  6E                outsb
00000464  636562            arpl [ebp+0x62],sp
00000467  50                push eax
00000468  53                push ebx
00000469  7431              jz 0x49c
0000046B  385F52            cmp [edi+0x52],bl
0000046E  625F74            bound ebx,[edi+0x74]
00000471  7265              jc 0x4d8
00000473  655F              gs pop edi
00000475  6E                outsb
00000476  6F                outsd
00000477  64655F            gs pop edi
0000047A  626173            bound esp,[ecx+0x73]
0000047D  6553              gs push ebx
0000047F  305F52            xor [edi+0x52],bl
00000482  53                push ebx
00000483  5F                pop edi
00000484  005F5A            add [edi+0x5a],bl
00000487  53                push ebx
00000488  7431              jz 0x4bb
0000048A  37                aaa
0000048B  5F                pop edi
0000048C  5F                pop edi
0000048D  7468              jz 0x4f7
0000048F  726F              jc 0x500
00000491  775F              ja 0x4f2
00000493  626164            bound esp,[ecx+0x64]
00000496  5F                pop edi
00000497  61                popa
00000498  6C                insb
00000499  6C                insb
0000049A  6F                outsd
0000049B  637600            arpl [esi+0x0],si
0000049E  6C                insb
0000049F  69626D2E736F2E    imul esp,[edx+0x6d],dword 0x2e6f732e
000004A6  36006C6962        add [ss:ecx+ebp*2+0x62],ch
000004AB  6763635F          arpl [bp+di+0x5f],sp
000004AF  732E              jnc 0x4df
000004B1  736F              jnc 0x522
000004B3  2E3100            xor [cs:eax],eax
000004B6  5F                pop edi
000004B7  55                push ebp
000004B8  6E                outsb
000004B9  7769              ja 0x524
000004BB  6E                outsb
000004BC  645F              fs pop edi
000004BE  52                push edx
000004BF  657375            gs jnc 0x537
000004C2  6D                insd
000004C3  65006C6962        add [gs:ecx+ebp*2+0x62],ch
000004C8  632E              arpl [esi],bp
000004CA  736F              jnc 0x53b
000004CC  2E36005F49        add [ss:edi+0x49],bl
000004D1  4F                dec edi
000004D2  5F                pop edi
000004D3  7374              jnc 0x549
000004D5  64696E5F75736564  imul ebp,[fs:esi+0x5f],dword 0x64657375
000004DD  007072            add [eax+0x72],dh
000004E0  696E7466005F5F    imul ebp,[esi+0x74],dword 0x5f5f0066
000004E7  637861            arpl [eax+0x61],di
000004EA  5F                pop edi
000004EB  61                popa
000004EC  7465              jz 0x553
000004EE  7869              js 0x559
000004F0  7400              jz 0x4f2
000004F2  5F                pop edi
000004F3  5F                pop edi
000004F4  6C                insb
000004F5  6962635F737461    imul esp,[edx+0x63],dword 0x6174735f
000004FC  7274              jc 0x572
000004FE  5F                pop edi
000004FF  6D                insd
00000500  61                popa
00000501  696E004743435F    imul ebp,[esi+0x0],dword 0x5f434347
00000508  332E              xor ebp,[esi]
0000050A  3000              xor [eax],al
0000050C  47                inc edi
0000050D  4C                dec esp
0000050E  49                dec ecx
0000050F  42                inc edx
00000510  43                inc ebx
00000511  5F                pop edi
00000512  322E              xor ch,[esi]
00000514  3000              xor [eax],al
00000516  47                inc edi
00000517  4C                dec esp
00000518  49                dec ecx
00000519  42                inc edx
0000051A  43                inc ebx
0000051B  5F                pop edi
0000051C  322E              xor ch,[esi]
0000051E  312E              xor [esi],ebp
00000520  3300              xor eax,[eax]
00000522  43                inc ebx
00000523  58                pop eax
00000524  58                pop eax
00000525  41                inc ecx
00000526  42                inc edx
00000527  49                dec ecx
00000528  5F                pop edi
00000529  312E              xor [esi],ebp
0000052B  3300              xor eax,[eax]
0000052D  47                inc edi
0000052E  4C                dec esp
0000052F  49                dec ecx
00000530  42                inc edx
00000531  43                inc ebx
00000532  58                pop eax
00000533  58                pop eax
00000534  5F                pop edi
00000535  332E              xor ebp,[esi]
00000537  3400              xor al,0x0
00000539  0000              add [eax],al
0000053B  0002              add [edx],al
0000053D  0003              add [ebx],al
0000053F  0000              add [eax],al
00000541  0000              add [eax],al
00000543  0002              add [edx],al
00000545  0002              add [edx],al
00000547  0002              add [edx],al
00000549  000400            add [eax+eax],al
0000054C  0200              add al,[eax]
0000054E  0000              add [eax],al
00000550  0100              add [eax],eax
00000552  0000              add [eax],al
00000554  0400              add al,0x0
00000556  0200              add al,[eax]
00000558  0200              add al,[eax]
0000055A  0200              add al,[eax]
0000055C  0200              add al,[eax]
0000055E  0500060000        add eax,0x600
00000563  0001              add [ecx],al
00000565  0001              add [ecx],al
00000567  00640100          add [ecx+eax+0x0],ah
0000056B  0010              add [eax],dl
0000056D  0000              add [eax],al
0000056F  0020              add [eax],ah
00000571  0000              add [eax],al
00000573  005026            add [eax+0x26],dl
00000576  790B              jns 0x583
00000578  0000              add [eax],al
0000057A  06                push es
0000057B  00C0              add al,al
0000057D  0100              add [eax],eax
0000057F  0000              add [eax],al
00000581  0000              add [eax],al
00000583  0001              add [ecx],al
00000585  0002              add [edx],al
00000587  008101000010      add [ecx+0x10000001],al
0000058D  0000              add [eax],al
0000058F  0030              add [eax],dh
00000591  0000              add [eax],al
00000593  0010              add [eax],dl
00000595  69690D00000400    imul ebp,[ecx+0xd],dword 0x40000
0000059C  C8010000          enter 0x1,0x0
000005A0  1000              adc [eax],al
000005A2  0000              add [eax],al
000005A4  731F              jnc 0x5c5
000005A6  690900000300      imul ecx,[ecx],dword 0x30000
000005AC  D201              rol byte [ecx],cl
000005AE  0000              add [eax],al
000005B0  0000              add [eax],al
000005B2  0000              add [eax],al
000005B4  0100              add [eax],eax
000005B6  0200              add al,[eax]
000005B8  0100              add [eax],eax
000005BA  0000              add [eax],al
000005BC  1000              adc [eax],al
000005BE  0000              add [eax],al
000005C0  0000              add [eax],al
000005C2  0000              add [eax],al
000005C4  D3AF6B050000      shr dword [edi+0x56b],cl
000005CA  0500DE0100        add eax,0x1de00
000005CF  0010              add [eax],dl
000005D1  0000              add [eax],al
000005D3  00742992          add [ecx+ebp-0x6e],dh
000005D7  0800              or [eax],al
000005D9  0002              add [edx],al
000005DB  00E9              add cl,ch
000005DD  0100              add [eax],eax
000005DF  0000              add [eax],al
000005E1  0000              add [eax],al
000005E3  0038              add [eax],bh
000005E5  B104              mov cl,0x4
000005E7  0806              or [esi],al
000005E9  0300              add eax,[eax]
000005EB  00A0B1040805      add [eax+0x50804b1],ah
000005F1  0100              add [eax],eax
000005F3  0048B1            add [eax-0x4f],cl
000005F6  0408              add al,0x8
000005F8  07                pop es
000005F9  0200              add al,[eax]
000005FB  004CB104          add [ecx+esi*4+0x4],cl
000005FF  0807              or [edi],al
00000601  0300              add eax,[eax]
00000603  0050B1            add [eax-0x4f],dl
00000606  0408              add al,0x8
00000608  07                pop es
00000609  05000054B1        add eax,0xb1540000
0000060E  0408              add al,0x8
00000610  07                pop es
00000611  06                push es
00000612  0000              add [eax],al
00000614  58                pop eax
00000615  B104              mov cl,0x4
00000617  0807              or [edi],al
00000619  07                pop es
0000061A  0000              add [eax],al
0000061C  5C                pop esp
0000061D  B104              mov cl,0x4
0000061F  0807              or [edi],al
00000621  0800              or [eax],al
00000623  0060B1            add [eax-0x4f],ah
00000626  0408              add al,0x8
00000628  07                pop es
00000629  0900              or [eax],eax
0000062B  0064B104          add [ecx+esi*4+0x4],ah
0000062F  0807              or [edi],al
00000631  0D000068B1        or eax,0xb1680000
00000636  0408              add al,0x8
00000638  07                pop es
00000639  0E                push cs
0000063A  0000              add [eax],al
0000063C  6C                insb
0000063D  B104              mov cl,0x4
0000063F  0807              or [edi],al
00000641  0F0000            sldt [eax]
00000644  70B1              jo 0x5f7
00000646  0408              add al,0x8
00000648  07                pop es
00000649  1000              adc [eax],al
0000064B  0074B104          add [ecx+esi*4+0x4],dh
0000064F  0807              or [edi],al
00000651  1100              adc [eax],eax
00000653  0078B1            add [eax-0x4f],bh
00000656  0408              add al,0x8
00000658  07                pop es
00000659  1200              adc al,[eax]
0000065B  007CB104          add [ecx+esi*4+0x4],bh
0000065F  0807              or [edi],al
00000661  1300              adc eax,[eax]
00000663  005589            add [ebp-0x77],dl
00000666  E553              in eax,0x53
00000668  83EC04            sub esp,byte +0x4
0000066B  E800000000        call 0x670
00000670  5B                pop ebx
00000671  81C3CC2A0000      add ebx,0x2acc
00000677  8B93FCFFFFFF      mov edx,[ebx-0x4]
0000067D  85D2              test edx,edx
0000067F  7405              jz 0x686
00000681  E83A000000        call 0x6c0
00000686  E8F5010000        call 0x880
0000068B  E8700E0000        call 0x1500
00000690  58                pop eax
00000691  5B                pop ebx
00000692  C9                leave
00000693  C3                ret
00000694  0000              add [eax],al
00000696  0000              add [eax],al
00000698  0000              add [eax],al
0000069A  0000              add [eax],al
0000069C  0000              add [eax],al
0000069E  0000              add [eax],al
000006A0  FF3540B10408      push dword [dword 0x804b140]
000006A6  FF2544B10408      jmp [dword 0x804b144]
000006AC  0000              add [eax],al
000006AE  0000              add [eax],al
000006B0  FF2548B10408      jmp [dword 0x804b148]
000006B6  6800000000        push dword 0x0
000006BB  E9E0FFFFFF        jmp 0x6a0
000006C0  FF254CB10408      jmp [dword 0x804b14c]
000006C6  6808000000        push dword 0x8
000006CB  E9D0FFFFFF        jmp 0x6a0
000006D0  FF2550B10408      jmp [dword 0x804b150]
000006D6  6810000000        push dword 0x10
000006DB  E9C0FFFFFF        jmp 0x6a0
000006E0  FF2554B10408      jmp [dword 0x804b154]
000006E6  6818000000        push dword 0x18
000006EB  E9B0FFFFFF        jmp 0x6a0
000006F0  FF2558B10408      jmp [dword 0x804b158]
000006F6  6820000000        push dword 0x20
000006FB  E9A0FFFFFF        jmp 0x6a0
00000700  FF255CB10408      jmp [dword 0x804b15c]
00000706  6828000000        push dword 0x28
0000070B  E990FFFFFF        jmp 0x6a0
00000710  FF2560B10408      jmp [dword 0x804b160]
00000716  6830000000        push dword 0x30
0000071B  E980FFFFFF        jmp 0x6a0
00000720  FF2564B10408      jmp [dword 0x804b164]
00000726  6838000000        push dword 0x38
0000072B  E970FFFFFF        jmp 0x6a0
00000730  FF2568B10408      jmp [dword 0x804b168]
00000736  6840000000        push dword 0x40
0000073B  E960FFFFFF        jmp 0x6a0
00000740  FF256CB10408      jmp [dword 0x804b16c]
00000746  6848000000        push dword 0x48
0000074B  E950FFFFFF        jmp 0x6a0
00000750  FF2570B10408      jmp [dword 0x804b170]
00000756  6850000000        push dword 0x50
0000075B  E940FFFFFF        jmp 0x6a0
00000760  FF2574B10408      jmp [dword 0x804b174]
00000766  6858000000        push dword 0x58
0000076B  E930FFFFFF        jmp 0x6a0
00000770  FF2578B10408      jmp [dword 0x804b178]
00000776  6860000000        push dword 0x60
0000077B  E920FFFFFF        jmp 0x6a0
00000780  FF257CB10408      jmp [dword 0x804b17c]
00000786  6868000000        push dword 0x68
0000078B  E910FFFFFF        jmp 0x6a0
00000790  31ED              xor ebp,ebp
00000792  5E                pop esi
00000793  89E1              mov ecx,esp
00000795  83E4F0            and esp,byte -0x10
00000798  50                push eax
00000799  54                push esp
0000079A  52                push edx
0000079B  6890940408        push dword 0x8049490
000007A0  68A0940408        push dword 0x80494a0
000007A5  51                push ecx
000007A6  56                push esi
000007A7  68FC890408        push dword 0x80489fc
000007AC  E84FFFFFFF        call 0x700
000007B1  F4                hlt
000007B2  90                nop
000007B3  90                nop
000007B4  6690              xchg ax,ax
000007B6  6690              xchg ax,ax
000007B8  6690              xchg ax,ax
000007BA  6690              xchg ax,ax
000007BC  6690              xchg ax,ax
000007BE  6690              xchg ax,ax
000007C0  B88BB10408        mov eax,0x804b18b
000007C5  2D88B10408        sub eax,0x804b188
000007CA  83F806            cmp eax,byte +0x6
000007CD  7701              ja 0x7d0
000007CF  C3                ret
000007D0  B800000000        mov eax,0x0
000007D5  85C0              test eax,eax
000007D7  74F6              jz 0x7cf
000007D9  55                push ebp
000007DA  89E5              mov ebp,esp
000007DC  83EC18            sub esp,byte +0x18
000007DF  C7042488B10408    mov dword [esp],0x804b188
000007E6  FFD0              call eax
000007E8  C9                leave
000007E9  C3                ret
000007EA  8DB600000000      lea esi,[esi+0x0]
000007F0  B888B10408        mov eax,0x804b188
000007F5  2D88B10408        sub eax,0x804b188
000007FA  C1F802            sar eax,byte 0x2
000007FD  89C2              mov edx,eax
000007FF  C1EA1F            shr edx,byte 0x1f
00000802  01D0              add eax,edx
00000804  D1F8              sar eax,1
00000806  7501              jnz 0x809
00000808  C3                ret
00000809  BA00000000        mov edx,0x0
0000080E  85D2              test edx,edx
00000810  74F6              jz 0x808
00000812  55                push ebp
00000813  89E5              mov ebp,esp
00000815  83EC18            sub esp,byte +0x18
00000818  89442404          mov [esp+0x4],eax
0000081C  C7042488B10408    mov dword [esp],0x804b188
00000823  FFD2              call edx
00000825  C9                leave
00000826  C3                ret
00000827  89F6              mov esi,esi
00000829  8DBC2700000000    lea edi,[edi+0x0]
00000830  803D30B2040800    cmp byte [dword 0x804b230],0x0
00000837  7544              jnz 0x87d
00000839  55                push ebp
0000083A  89E5              mov ebp,esp
0000083C  53                push ebx
0000083D  BB50B00408        mov ebx,0x804b050
00000842  52                push edx
00000843  81EB4CB00408      sub ebx,0x804b04c
00000849  A134B20408        mov eax,[0x804b234]
0000084E  C1FB02            sar ebx,byte 0x2
00000851  4B                dec ebx
00000852  39D8              cmp eax,ebx
00000854  7318              jnc 0x86e
00000856  6690              xchg ax,ax
00000858  40                inc eax
00000859  A334B20408        mov [0x804b234],eax
0000085E  FF14854CB00408    call [eax*4+0x804b04c]
00000865  A134B20408        mov eax,[0x804b234]
0000086A  39D8              cmp eax,ebx
0000086C  72EA              jc 0x858
0000086E  E84DFFFFFF        call 0x7c0
00000873  C60530B2040801    mov byte [dword 0x804b230],0x1
0000087A  58                pop eax
0000087B  5B                pop ebx
0000087C  5D                pop ebp
0000087D  C3                ret
0000087E  6690              xchg ax,ax
00000880  8B0D54B00408      mov ecx,[dword 0x804b054]
00000886  85C9              test ecx,ecx
00000888  741E              jz 0x8a8
0000088A  B800000000        mov eax,0x0
0000088F  85C0              test eax,eax
00000891  7415              jz 0x8a8
00000893  55                push ebp
00000894  89E5              mov ebp,esp
00000896  83EC18            sub esp,byte +0x18
00000899  C7042454B00408    mov dword [esp],0x804b054
000008A0  FFD0              call eax
000008A2  C9                leave
000008A3  E948FFFFFF        jmp 0x7f0
000008A8  E943FFFFFF        jmp 0x7f0
000008AD  6690              xchg ax,ax
000008AF  90                nop
000008B0  55                push ebp
000008B1  89E5              mov ebp,esp
000008B3  56                push esi
000008B4  53                push ebx
000008B5  81ECA0000000      sub esp,0xa0
000008BB  8D45C8            lea eax,[ebp-0x38]
000008BE  890424            mov [esp],eax
000008C1  E898020000        call 0xb5e
000008C6  C78574FFFFFF0100  mov dword [ebp-0x8c],0x1
         -0000
000008D0  C745F400000000    mov dword [ebp-0xc],0x0
000008D7  EB23              jmp short 0x8fc
000008D9  8B45F4            mov eax,[ebp-0xc]
000008DC  8D4801            lea ecx,[eax+0x1]
000008DF  8B45F4            mov eax,[ebp-0xc]
000008E2  8B948574FFFFFF    mov edx,[ebp+eax*4-0x8c]
000008E9  89D0              mov eax,edx
000008EB  C1E002            shl eax,byte 0x2
000008EE  01D0              add eax,edx
000008F0  01C0              add eax,eax
000008F2  89848D74FFFFFF    mov [ebp+ecx*4-0x8c],eax
000008F9  FF45F4            inc dword [ebp-0xc]
000008FC  8B45F4            mov eax,[ebp-0xc]
000008FF  3B4510            cmp eax,[ebp+0x10]
00000902  7CD5              jl 0x8d9
00000904  C745F000000000    mov dword [ebp-0x10],0x0
0000090B  8B4508            mov eax,[ebp+0x8]
0000090E  8945EC            mov [ebp-0x14],eax
00000911  E9A4000000        jmp 0x9ba
00000916  8D45C8            lea eax,[ebp-0x38]
00000919  890424            mov [esp],eax
0000091C  E8B1020000        call 0xbd2
00000921  C745E801000000    mov dword [ebp-0x18],0x1
00000928  EB72              jmp short 0x99c
0000092A  8B45E8            mov eax,[ebp-0x18]
0000092D  8BB48574FFFFFF    mov esi,[ebp+eax*4-0x8c]
00000934  8B45EC            mov eax,[ebp-0x14]
00000937  89C2              mov edx,eax
00000939  C1FA1F            sar edx,byte 0x1f
0000093C  F7FE              idiv esi
0000093E  89C1              mov ecx,eax
00000940  8B45E8            mov eax,[ebp-0x18]
00000943  8B9C8574FFFFFF    mov ebx,[ebp+eax*4-0x8c]
0000094A  8B45EC            mov eax,[ebp-0x14]
0000094D  89C2              mov edx,eax
0000094F  C1FA1F            sar edx,byte 0x1f
00000952  F7FB              idiv ebx
00000954  8B45E8            mov eax,[ebp-0x18]
00000957  8B5D10            mov ebx,[ebp+0x10]
0000095A  29C3              sub ebx,eax
0000095C  89D8              mov eax,ebx
0000095E  8B848574FFFFFF    mov eax,[ebp+eax*4-0x8c]
00000965  0FAFC2            imul eax,edx
00000968  01C8              add eax,ecx
0000096A  8945C4            mov [ebp-0x3c],eax
0000096D  8B45C4            mov eax,[ebp-0x3c]
00000970  3B450C            cmp eax,[ebp+0xc]
00000973  7F24              jg 0x999
00000975  8B45C4            mov eax,[ebp-0x3c]
00000978  3945EC            cmp [ebp-0x14],eax
0000097B  7D1C              jnl 0x999
0000097D  8D45E0            lea eax,[ebp-0x20]
00000980  8D55C4            lea edx,[ebp-0x3c]
00000983  89542408          mov [esp+0x8],edx
00000987  8D55C8            lea edx,[ebp-0x38]
0000098A  89542404          mov [esp+0x4],edx
0000098E  890424            mov [esp],eax
00000991  E850020000        call 0xbe6
00000996  83EC04            sub esp,byte +0x4
00000999  FF45E8            inc dword [ebp-0x18]
0000099C  8B45E8            mov eax,[ebp-0x18]
0000099F  3B4510            cmp eax,[ebp+0x10]
000009A2  7C86              jl 0x92a
000009A4  8D45C8            lea eax,[ebp-0x38]
000009A7  890424            mov [esp],eax
000009AA  E899020000        call 0xc48
000009AF  8B55F0            mov edx,[ebp-0x10]
000009B2  01D0              add eax,edx
000009B4  8945F0            mov [ebp-0x10],eax
000009B7  FF45EC            inc dword [ebp-0x14]
000009BA  8B45EC            mov eax,[ebp-0x14]
000009BD  3B450C            cmp eax,[ebp+0xc]
000009C0  0F8E50FFFFFF      jng near 0x916
000009C6  8B5DF0            mov ebx,[ebp-0x10]
000009C9  8D45C8            lea eax,[ebp-0x38]
000009CC  890424            mov [esp],eax
000009CF  E876010000        call 0xb4a
000009D4  89D8              mov eax,ebx
000009D6  EB1D              jmp short 0x9f5
000009D8  89C3              mov ebx,eax
000009DA  EB02              jmp short 0x9de
000009DC  89C3              mov ebx,eax
000009DE  8D45C8            lea eax,[ebp-0x38]
000009E1  890424            mov [esp],eax
000009E4  E861010000        call 0xb4a
000009E9  89D8              mov eax,ebx
000009EB  EB00              jmp short 0x9ed
000009ED  890424            mov [esp],eax
000009F0  E88BFDFFFF        call 0x780
000009F5  8D65F8            lea esp,[ebp-0x8]
000009F8  5B                pop ebx
000009F9  5E                pop esi
000009FA  5D                pop ebp
000009FB  C3                ret
000009FC  55                push ebp
000009FD  89E5              mov ebp,esp
000009FF  83E4F0            and esp,byte -0x10
00000A02  83EC30            sub esp,byte +0x30
00000A05  8D44241C          lea eax,[esp+0x1c]
00000A09  89442404          mov [esp+0x4],eax
00000A0D  C70424A0B10408    mov dword [esp],0x804b1a0
00000A14  E837FDFFFF        call 0x750
00000A19  C744242C00000000  mov dword [esp+0x2c],0x0
00000A21  E9A1000000        jmp 0xac7
00000A26  8D442418          lea eax,[esp+0x18]
00000A2A  89442404          mov [esp+0x4],eax
00000A2E  C70424A0B10408    mov dword [esp],0x804b1a0
00000A35  E816FDFFFF        call 0x750
00000A3A  8D542414          lea edx,[esp+0x14]
00000A3E  89542404          mov [esp+0x4],edx
00000A42  890424            mov [esp],eax
00000A45  E806FDFFFF        call 0x750
00000A4A  8B442418          mov eax,[esp+0x18]
00000A4E  89442428          mov [esp+0x28],eax
00000A52  C744242400000000  mov dword [esp+0x24],0x0
00000A5A  EB21              jmp short 0xa7d
00000A5C  FF442424          inc dword [esp+0x24]
00000A60  8B4C2428          mov ecx,[esp+0x28]
00000A64  BA67666666        mov edx,0x66666667
00000A69  89C8              mov eax,ecx
00000A6B  F7EA              imul edx
00000A6D  C1FA02            sar edx,byte 0x2
00000A70  89C8              mov eax,ecx
00000A72  C1F81F            sar eax,byte 0x1f
00000A75  29C2              sub edx,eax
00000A77  89D0              mov eax,edx
00000A79  89442428          mov [esp+0x28],eax
00000A7D  837C242800        cmp dword [esp+0x28],byte +0x0
00000A82  75D8              jnz 0xa5c
00000A84  8B542414          mov edx,[esp+0x14]
00000A88  8B442418          mov eax,[esp+0x18]
00000A8C  8B4C2424          mov ecx,[esp+0x24]
00000A90  894C2408          mov [esp+0x8],ecx
00000A94  89542404          mov [esp+0x4],edx
00000A98  890424            mov [esp],eax
00000A9B  E810FEFFFF        call 0x8b0
00000AA0  89442420          mov [esp+0x20],eax
00000AA4  8B44242C          mov eax,[esp+0x2c]
00000AA8  8D5001            lea edx,[eax+0x1]
00000AAB  8B442420          mov eax,[esp+0x20]
00000AAF  89442408          mov [esp+0x8],eax
00000AB3  89542404          mov [esp+0x4],edx
00000AB7  C704244C950408    mov dword [esp],0x804954c
00000ABE  E85DFCFFFF        call 0x720
00000AC3  FF44242C          inc dword [esp+0x2c]
00000AC7  8B44241C          mov eax,[esp+0x1c]
00000ACB  3944242C          cmp [esp+0x2c],eax
00000ACF  0F8C51FFFFFF      jl near 0xa26
00000AD5  B800000000        mov eax,0x0
00000ADA  EB08              jmp short 0xae4
00000ADC  890424            mov [esp],eax
00000ADF  E89CFCFFFF        call 0x780
00000AE4  C9                leave
00000AE5  C3                ret
00000AE6  55                push ebp
00000AE7  89E5              mov ebp,esp
00000AE9  83EC18            sub esp,byte +0x18
00000AEC  837D0801          cmp dword [ebp+0x8],byte +0x1
00000AF0  7531              jnz 0xb23
00000AF2  817D0CFFFF0000    cmp dword [ebp+0xc],0xffff
00000AF9  7528              jnz 0xb23
00000AFB  C7042438B20408    mov dword [esp],0x804b238
00000B02  E8D9FBFFFF        call 0x6e0
00000B07  C744240884B10408  mov dword [esp+0x8],0x804b184
00000B0F  C744240438B20408  mov dword [esp+0x4],0x804b238
00000B17  C7042410870408    mov dword [esp],0x8048710
00000B1E  E88DFBFFFF        call 0x6b0
00000B23  C9                leave
00000B24  C3                ret
00000B25  55                push ebp
00000B26  89E5              mov ebp,esp
00000B28  83EC18            sub esp,byte +0x18
00000B2B  C7442404FFFF0000  mov dword [esp+0x4],0xffff
00000B33  C7042401000000    mov dword [esp],0x1
00000B3A  E8A7FFFFFF        call 0xae6
00000B3F  C9                leave
00000B40  C3                ret
00000B41  55                push ebp
00000B42  89E5              mov ebp,esp
00000B44  8B450C            mov eax,[ebp+0xc]
00000B47  5D                pop ebp
00000B48  C3                ret
00000B49  90                nop
00000B4A  55                push ebp
00000B4B  89E5              mov ebp,esp
00000B4D  83EC18            sub esp,byte +0x18
00000B50  8B4508            mov eax,[ebp+0x8]
00000B53  890424            mov [esp],eax
00000B56  E82B000000        call 0xb86
00000B5B  C9                leave
00000B5C  C3                ret
00000B5D  90                nop
00000B5E  55                push ebp
00000B5F  89E5              mov ebp,esp
00000B61  83EC18            sub esp,byte +0x18
00000B64  8B4508            mov eax,[ebp+0x8]
00000B67  890424            mov [esp],eax
00000B6A  E8ED000000        call 0xc5c
00000B6F  C9                leave
00000B70  C3                ret
00000B71  90                nop
00000B72  55                push ebp
00000B73  89E5              mov ebp,esp
00000B75  83EC18            sub esp,byte +0x18
00000B78  8B4508            mov eax,[ebp+0x8]
00000B7B  890424            mov [esp],eax
00000B7E  E8ED000000        call 0xc70
00000B83  C9                leave
00000B84  C3                ret
00000B85  90                nop
00000B86  55                push ebp
00000B87  89E5              mov ebp,esp
00000B89  53                push ebx
00000B8A  83EC14            sub esp,byte +0x14
00000B8D  8B4508            mov eax,[ebp+0x8]
00000B90  890424            mov [esp],eax
00000B93  E83C010000        call 0xcd4
00000B98  89442404          mov [esp+0x4],eax
00000B9C  8B4508            mov eax,[ebp+0x8]
00000B9F  890424            mov [esp],eax
00000BA2  E8DD000000        call 0xc84
00000BA7  8B4508            mov eax,[ebp+0x8]
00000BAA  890424            mov [esp],eax
00000BAD  E8C0FFFFFF        call 0xb72
00000BB2  EB17              jmp short 0xbcb
00000BB4  89C3              mov ebx,eax
00000BB6  8B4508            mov eax,[ebp+0x8]
00000BB9  890424            mov [esp],eax
00000BBC  E8B1FFFFFF        call 0xb72
00000BC1  89D8              mov eax,ebx
00000BC3  890424            mov [esp],eax
00000BC6  E8B5FBFFFF        call 0x780
00000BCB  83C414            add esp,byte +0x14
00000BCE  5B                pop ebx
00000BCF  5D                pop ebp
00000BD0  C3                ret
00000BD1  90                nop
00000BD2  55                push ebp
00000BD3  89E5              mov ebp,esp
00000BD5  83EC18            sub esp,byte +0x18
00000BD8  8B4508            mov eax,[ebp+0x8]
00000BDB  890424            mov [esp],eax
00000BDE  E8FD000000        call 0xce0
00000BE3  C9                leave
00000BE4  C3                ret
00000BE5  90                nop
00000BE6  55                push ebp
00000BE7  89E5              mov ebp,esp
00000BE9  83EC28            sub esp,byte +0x28
00000BEC  8B550C            mov edx,[ebp+0xc]
00000BEF  8D45EC            lea eax,[ebp-0x14]
00000BF2  8B4D10            mov ecx,[ebp+0x10]
00000BF5  894C2408          mov [esp+0x8],ecx
00000BF9  89542404          mov [esp+0x4],edx
00000BFD  890424            mov [esp],eax
00000C00  E851010000        call 0xd56
00000C05  83EC04            sub esp,byte +0x4
00000C08  8D45EC            lea eax,[ebp-0x14]
00000C0B  89442404          mov [esp+0x4],eax
00000C0F  8D45F4            lea eax,[ebp-0xc]
00000C12  890424            mov [esp],eax
00000C15  E804020000        call 0xe1e
00000C1A  8D45EC            lea eax,[ebp-0x14]
00000C1D  83C004            add eax,byte +0x4
00000C20  89442408          mov [esp+0x8],eax
00000C24  8D45F4            lea eax,[ebp-0xc]
00000C27  89442404          mov [esp+0x4],eax
00000C2B  8B4508            mov eax,[ebp+0x8]
00000C2E  890424            mov [esp],eax
00000C31  E8F8010000        call 0xe2e
00000C36  EB08              jmp short 0xc40
00000C38  890424            mov [esp],eax
00000C3B  E840FBFFFF        call 0x780
00000C40  8B4508            mov eax,[ebp+0x8]
00000C43  C9                leave
00000C44  C20400            ret 0x4
00000C47  90                nop
00000C48  55                push ebp
00000C49  89E5              mov ebp,esp
00000C4B  83EC18            sub esp,byte +0x18
00000C4E  8B4508            mov eax,[ebp+0x8]
00000C51  890424            mov [esp],eax
00000C54  E8EF010000        call 0xe48
00000C59  C9                leave
00000C5A  C3                ret
00000C5B  90                nop
00000C5C  55                push ebp
00000C5D  89E5              mov ebp,esp
00000C5F  83EC18            sub esp,byte +0x18
00000C62  8B4508            mov eax,[ebp+0x8]
00000C65  890424            mov [esp],eax
00000C68  E8E7010000        call 0xe54
00000C6D  C9                leave
00000C6E  C3                ret
00000C6F  90                nop
00000C70  55                push ebp
00000C71  89E5              mov ebp,esp
00000C73  83EC18            sub esp,byte +0x18
00000C76  8B4508            mov eax,[ebp+0x8]
00000C79  890424            mov [esp],eax
00000C7C  E823020000        call 0xea4
00000C81  C9                leave
00000C82  C3                ret
00000C83  90                nop
00000C84  55                push ebp
00000C85  89E5              mov ebp,esp
00000C87  83EC28            sub esp,byte +0x28
00000C8A  EB40              jmp short 0xccc
00000C8C  8B450C            mov eax,[ebp+0xc]
00000C8F  890424            mov [esp],eax
00000C92  E812020000        call 0xea9
00000C97  89442404          mov [esp+0x4],eax
00000C9B  8B4508            mov eax,[ebp+0x8]
00000C9E  890424            mov [esp],eax
00000CA1  E8DEFFFFFF        call 0xc84
00000CA6  8B450C            mov eax,[ebp+0xc]
00000CA9  890424            mov [esp],eax
00000CAC  E803020000        call 0xeb4
00000CB1  8945F4            mov [ebp-0xc],eax
00000CB4  8B450C            mov eax,[ebp+0xc]
00000CB7  89442404          mov [esp+0x4],eax
00000CBB  8B4508            mov eax,[ebp+0x8]
00000CBE  890424            mov [esp],eax
00000CC1  E8FA010000        call 0xec0
00000CC6  8B45F4            mov eax,[ebp-0xc]
00000CC9  89450C            mov [ebp+0xc],eax
00000CCC  837D0C00          cmp dword [ebp+0xc],byte +0x0
00000CD0  75BA              jnz 0xc8c
00000CD2  C9                leave
00000CD3  C3                ret
00000CD4  55                push ebp
00000CD5  89E5              mov ebp,esp
00000CD7  8B4508            mov eax,[ebp+0x8]
00000CDA  8B4008            mov eax,[eax+0x8]
00000CDD  5D                pop ebp
00000CDE  C3                ret
00000CDF  90                nop
00000CE0  55                push ebp
00000CE1  89E5              mov ebp,esp
00000CE3  53                push ebx
00000CE4  83EC14            sub esp,byte +0x14
00000CE7  8B4508            mov eax,[ebp+0x8]
00000CEA  890424            mov [esp],eax
00000CED  E8E2FFFFFF        call 0xcd4
00000CF2  89442404          mov [esp+0x4],eax
00000CF6  8B4508            mov eax,[ebp+0x8]
00000CF9  890424            mov [esp],eax
00000CFC  E883FFFFFF        call 0xc84
00000D01  8B4508            mov eax,[ebp+0x8]
00000D04  890424            mov [esp],eax
00000D07  E81E020000        call 0xf2a
00000D0C  89C3              mov ebx,eax
00000D0E  8B4508            mov eax,[ebp+0x8]
00000D11  890424            mov [esp],eax
00000D14  E805020000        call 0xf1e
00000D19  8903              mov [ebx],eax
00000D1B  8B4508            mov eax,[ebp+0x8]
00000D1E  890424            mov [esp],eax
00000D21  E810020000        call 0xf36
00000D26  C70000000000      mov dword [eax],0x0
00000D2C  8B4508            mov eax,[ebp+0x8]
00000D2F  890424            mov [esp],eax
00000D32  E80B020000        call 0xf42
00000D37  89C3              mov ebx,eax
00000D39  8B4508            mov eax,[ebp+0x8]
00000D3C  890424            mov [esp],eax
00000D3F  E8DA010000        call 0xf1e
00000D44  8903              mov [ebx],eax
00000D46  8B4508            mov eax,[ebp+0x8]
00000D49  C7401400000000    mov dword [eax+0x14],0x0
00000D50  83C414            add esp,byte +0x14
00000D53  5B                pop ebx
00000D54  5D                pop ebp
00000D55  C3                ret
00000D56  55                push ebp
00000D57  89E5              mov ebp,esp
00000D59  53                push ebx
00000D5A  83EC44            sub esp,byte +0x44
00000D5D  8B4510            mov eax,[ebp+0x10]
00000D60  89442404          mov [esp+0x4],eax
00000D64  8D45EA            lea eax,[ebp-0x16]
00000D67  890424            mov [esp],eax
00000D6A  E84D030000        call 0x10bc
00000D6F  8D55E0            lea edx,[ebp-0x20]
00000D72  89442408          mov [esp+0x8],eax
00000D76  8B450C            mov eax,[ebp+0xc]
00000D79  89442404          mov [esp+0x4],eax
00000D7D  891424            mov [esp],edx
00000D80  E8C9010000        call 0xf4e
00000D85  83EC04            sub esp,byte +0x4
00000D88  8B45E4            mov eax,[ebp-0x1c]
00000D8B  85C0              test eax,eax
00000D8D  7449              jz 0xdd8
00000D8F  C645EB01          mov byte [ebp-0x15],0x1
00000D93  8B4DE4            mov ecx,[ebp-0x1c]
00000D96  8B55E0            mov edx,[ebp-0x20]
00000D99  8D45EC            lea eax,[ebp-0x14]
00000D9C  8B5D10            mov ebx,[ebp+0x10]
00000D9F  895C2410          mov [esp+0x10],ebx
00000DA3  894C240C          mov [esp+0xc],ecx
00000DA7  89542408          mov [esp+0x8],edx
00000DAB  8B550C            mov edx,[ebp+0xc]
00000DAE  89542404          mov [esp+0x4],edx
00000DB2  890424            mov [esp],eax
00000DB5  E80A030000        call 0x10c4
00000DBA  83EC04            sub esp,byte +0x4
00000DBD  8D45EB            lea eax,[ebp-0x15]
00000DC0  89442408          mov [esp+0x8],eax
00000DC4  8D45EC            lea eax,[ebp-0x14]
00000DC7  89442404          mov [esp+0x4],eax
00000DCB  8B4508            mov eax,[ebp+0x8]
00000DCE  890424            mov [esp],eax
00000DD1  E8CA030000        call 0x11a0
00000DD6  EB3B              jmp short 0xe13
00000DD8  C645F300          mov byte [ebp-0xd],0x0
00000DDC  8B45E0            mov eax,[ebp-0x20]
00000DDF  89442404          mov [esp+0x4],eax
00000DE3  8D45F4            lea eax,[ebp-0xc]
00000DE6  890424            mov [esp],eax
00000DE9  E8CC030000        call 0x11ba
00000DEE  8D45F3            lea eax,[ebp-0xd]
00000DF1  89442408          mov [esp+0x8],eax
00000DF5  8D45F4            lea eax,[ebp-0xc]
00000DF8  89442404          mov [esp+0x4],eax
00000DFC  8B4508            mov eax,[ebp+0x8]
00000DFF  890424            mov [esp],eax
00000E02  E899030000        call 0x11a0
00000E07  EB0A              jmp short 0xe13
00000E09  EB00              jmp short 0xe0b
00000E0B  890424            mov [esp],eax
00000E0E  E86DF9FFFF        call 0x780
00000E13  8B4508            mov eax,[ebp+0x8]
00000E16  8B5DFC            mov ebx,[ebp-0x4]
00000E19  C9                leave
00000E1A  C20400            ret 0x4
00000E1D  90                nop
00000E1E  55                push ebp
00000E1F  89E5              mov ebp,esp
00000E21  8B450C            mov eax,[ebp+0xc]
00000E24  8B10              mov edx,[eax]
00000E26  8B4508            mov eax,[ebp+0x8]
00000E29  8910              mov [eax],edx
00000E2B  5D                pop ebp
00000E2C  C3                ret
00000E2D  90                nop
00000E2E  55                push ebp
00000E2F  89E5              mov ebp,esp
00000E31  8B4508            mov eax,[ebp+0x8]
00000E34  8B550C            mov edx,[ebp+0xc]
00000E37  8B12              mov edx,[edx]
00000E39  8910              mov [eax],edx
00000E3B  8B4510            mov eax,[ebp+0x10]
00000E3E  8A10              mov dl,[eax]
00000E40  8B4508            mov eax,[ebp+0x8]
00000E43  885004            mov [eax+0x4],dl
00000E46  5D                pop ebp
00000E47  C3                ret
00000E48  55                push ebp
00000E49  89E5              mov ebp,esp
00000E4B  8B4508            mov eax,[ebp+0x8]
00000E4E  8B4014            mov eax,[eax+0x14]
00000E51  5D                pop ebp
00000E52  C3                ret
00000E53  90                nop
00000E54  55                push ebp
00000E55  89E5              mov ebp,esp
00000E57  83EC18            sub esp,byte +0x18
00000E5A  8B4508            mov eax,[ebp+0x8]
00000E5D  890424            mov [esp],eax
00000E60  E863030000        call 0x11c8
00000E65  8B4508            mov eax,[ebp+0x8]
00000E68  C7400400000000    mov dword [eax+0x4],0x0
00000E6F  8B4508            mov eax,[ebp+0x8]
00000E72  C7400800000000    mov dword [eax+0x8],0x0
00000E79  8B4508            mov eax,[ebp+0x8]
00000E7C  C7400C00000000    mov dword [eax+0xc],0x0
00000E83  8B4508            mov eax,[ebp+0x8]
00000E86  C7401000000000    mov dword [eax+0x10],0x0
00000E8D  8B4508            mov eax,[ebp+0x8]
00000E90  C7401400000000    mov dword [eax+0x14],0x0
00000E97  8B4508            mov eax,[ebp+0x8]
00000E9A  890424            mov [esp],eax
00000E9D  E83A030000        call 0x11dc
00000EA2  C9                leave
00000EA3  C3                ret
00000EA4  55                push ebp
00000EA5  89E5              mov ebp,esp
00000EA7  5D                pop ebp
00000EA8  C3                ret
00000EA9  55                push ebp
00000EAA  89E5              mov ebp,esp
00000EAC  8B4508            mov eax,[ebp+0x8]
00000EAF  8B400C            mov eax,[eax+0xc]
00000EB2  5D                pop ebp
00000EB3  C3                ret
00000EB4  55                push ebp
00000EB5  89E5              mov ebp,esp
00000EB7  8B4508            mov eax,[ebp+0x8]
00000EBA  8B4008            mov eax,[eax+0x8]
00000EBD  5D                pop ebp
00000EBE  C3                ret
00000EBF  90                nop
00000EC0  55                push ebp
00000EC1  89E5              mov ebp,esp
00000EC3  53                push ebx
00000EC4  83EC24            sub esp,byte +0x24
00000EC7  8B450C            mov eax,[ebp+0xc]
00000ECA  83C010            add eax,byte +0x10
00000ECD  890424            mov [esp],eax
00000ED0  E874030000        call 0x1249
00000ED5  89C3              mov ebx,eax
00000ED7  8D45F7            lea eax,[ebp-0x9]
00000EDA  8B5508            mov edx,[ebp+0x8]
00000EDD  89542404          mov [esp+0x4],edx
00000EE1  890424            mov [esp],eax
00000EE4  E825030000        call 0x120e
00000EE9  83EC04            sub esp,byte +0x4
00000EEC  895C2404          mov [esp+0x4],ebx
00000EF0  8D45F7            lea eax,[ebp-0x9]
00000EF3  890424            mov [esp],eax
00000EF6  E857030000        call 0x1252
00000EFB  8D45F7            lea eax,[ebp-0x9]
00000EFE  890424            mov [esp],eax
00000F01  E830030000        call 0x1236
00000F06  8B450C            mov eax,[ebp+0xc]
00000F09  89442404          mov [esp+0x4],eax
00000F0D  8B4508            mov eax,[ebp+0x8]
00000F10  890424            mov [esp],eax
00000F13  E840030000        call 0x1258
00000F18  8B5DFC            mov ebx,[ebp-0x4]
00000F1B  C9                leave
00000F1C  C3                ret
00000F1D  90                nop
00000F1E  55                push ebp
00000F1F  89E5              mov ebp,esp
00000F21  8B4508            mov eax,[ebp+0x8]
00000F24  83C004            add eax,byte +0x4
00000F27  5D                pop ebp
00000F28  C3                ret
00000F29  90                nop
00000F2A  55                push ebp
00000F2B  89E5              mov ebp,esp
00000F2D  8B4508            mov eax,[ebp+0x8]
00000F30  83C00C            add eax,byte +0xc
00000F33  5D                pop ebp
00000F34  C3                ret
00000F35  90                nop
00000F36  55                push ebp
00000F37  89E5              mov ebp,esp
00000F39  8B4508            mov eax,[ebp+0x8]
00000F3C  83C008            add eax,byte +0x8
00000F3F  5D                pop ebp
00000F40  C3                ret
00000F41  90                nop
00000F42  55                push ebp
00000F43  89E5              mov ebp,esp
00000F45  8B4508            mov eax,[ebp+0x8]
00000F48  83C010            add eax,byte +0x10
00000F4B  5D                pop ebp
00000F4C  C3                ret
00000F4D  90                nop
00000F4E  55                push ebp
00000F4F  89E5              mov ebp,esp
00000F51  83EC48            sub esp,byte +0x48
00000F54  8B450C            mov eax,[ebp+0xc]
00000F57  890424            mov [esp],eax
00000F5A  E875FDFFFF        call 0xcd4
00000F5F  8945F4            mov [ebp-0xc],eax
00000F62  8B450C            mov eax,[ebp+0xc]
00000F65  890424            mov [esp],eax
00000F68  E8B1FFFFFF        call 0xf1e
00000F6D  8945F0            mov [ebp-0x10],eax
00000F70  C645EF01          mov byte [ebp-0x11],0x1
00000F74  EB4B              jmp short 0xfc1
00000F76  8B45F4            mov eax,[ebp-0xc]
00000F79  8945F0            mov [ebp-0x10],eax
00000F7C  8B45F4            mov eax,[ebp-0xc]
00000F7F  890424            mov [esp],eax
00000F82  E8F3020000        call 0x127a
00000F87  8B550C            mov edx,[ebp+0xc]
00000F8A  89442408          mov [esp+0x8],eax
00000F8E  8B4510            mov eax,[ebp+0x10]
00000F91  89442404          mov [esp+0x4],eax
00000F95  891424            mov [esp],edx
00000F98  E8FF020000        call 0x129c
00000F9D  8845EF            mov [ebp-0x11],al
00000FA0  807DEF00          cmp byte [ebp-0x11],0x0
00000FA4  740D              jz 0xfb3
00000FA6  8B45F4            mov eax,[ebp-0xc]
00000FA9  890424            mov [esp],eax
00000FAC  E803FFFFFF        call 0xeb4
00000FB1  EB0B              jmp short 0xfbe
00000FB3  8B45F4            mov eax,[ebp-0xc]
00000FB6  890424            mov [esp],eax
00000FB9  E8EBFEFFFF        call 0xea9
00000FBE  8945F4            mov [ebp-0xc],eax
00000FC1  837DF400          cmp dword [ebp-0xc],byte +0x0
00000FC5  75AF              jnz 0xf76
00000FC7  8B45F0            mov eax,[ebp-0x10]
00000FCA  89442404          mov [esp+0x4],eax
00000FCE  8D45D0            lea eax,[ebp-0x30]
00000FD1  890424            mov [esp],eax
00000FD4  E8E1010000        call 0x11ba
00000FD9  807DEF00          cmp byte [ebp-0x11],0x0
00000FDD  7460              jz 0x103f
00000FDF  8D45D4            lea eax,[ebp-0x2c]
00000FE2  8B550C            mov edx,[ebp+0xc]
00000FE5  89542404          mov [esp+0x4],edx
00000FE9  890424            mov [esp],eax
00000FEC  E8BF020000        call 0x12b0
00000FF1  83EC04            sub esp,byte +0x4
00000FF4  8D45D4            lea eax,[ebp-0x2c]
00000FF7  89442404          mov [esp+0x4],eax
00000FFB  8D45D0            lea eax,[ebp-0x30]
00000FFE  890424            mov [esp],eax
00001001  E8CC020000        call 0x12d2
00001006  84C0              test al,al
00001008  742A              jz 0x1034
0000100A  8B45F0            mov eax,[ebp-0x10]
0000100D  8945D8            mov [ebp-0x28],eax
00001010  8B45F4            mov eax,[ebp-0xc]
00001013  8945DC            mov [ebp-0x24],eax
00001016  8D45D8            lea eax,[ebp-0x28]
00001019  89442408          mov [esp+0x8],eax
0000101D  8D45DC            lea eax,[ebp-0x24]
00001020  89442404          mov [esp+0x4],eax
00001024  8B4508            mov eax,[ebp+0x8]
00001027  890424            mov [esp],eax
0000102A  E8B7020000        call 0x12e6
0000102F  E981000000        jmp 0x10b5
00001034  8D45D0            lea eax,[ebp-0x30]
00001037  890424            mov [esp],eax
0000103A  E8C1020000        call 0x1300
0000103F  8B45D0            mov eax,[ebp-0x30]
00001042  890424            mov [esp],eax
00001045  E8D3020000        call 0x131d
0000104A  8B550C            mov edx,[ebp+0xc]
0000104D  8B4D10            mov ecx,[ebp+0x10]
00001050  894C2408          mov [esp+0x8],ecx
00001054  89442404          mov [esp+0x4],eax
00001058  891424            mov [esp],edx
0000105B  E83C020000        call 0x129c
00001060  84C0              test al,al
00001062  7427              jz 0x108b
00001064  8B45F0            mov eax,[ebp-0x10]
00001067  8945E0            mov [ebp-0x20],eax
0000106A  8B45F4            mov eax,[ebp-0xc]
0000106D  8945E4            mov [ebp-0x1c],eax
00001070  8D45E0            lea eax,[ebp-0x20]
00001073  89442408          mov [esp+0x8],eax
00001077  8D45E4            lea eax,[ebp-0x1c]
0000107A  89442404          mov [esp+0x4],eax
0000107E  8B4508            mov eax,[ebp+0x8]
00001081  890424            mov [esp],eax
00001084  E85D020000        call 0x12e6
00001089  EB2A              jmp short 0x10b5
0000108B  C745E800000000    mov dword [ebp-0x18],0x0
00001092  8D45E8            lea eax,[ebp-0x18]
00001095  89442408          mov [esp+0x8],eax
00001099  8D45D0            lea eax,[ebp-0x30]
0000109C  89442404          mov [esp+0x4],eax
000010A0  8B4508            mov eax,[ebp+0x8]
000010A3  890424            mov [esp],eax
000010A6  E83B020000        call 0x12e6
000010AB  EB08              jmp short 0x10b5
000010AD  890424            mov [esp],eax
000010B0  E8CBF6FFFF        call 0x780
000010B5  8B4508            mov eax,[ebp+0x8]
000010B8  C9                leave
000010B9  C20400            ret 0x4
000010BC  55                push ebp
000010BD  89E5              mov ebp,esp
000010BF  8B450C            mov eax,[ebp+0xc]
000010C2  5D                pop ebp
000010C3  C3                ret
000010C4  55                push ebp
000010C5  89E5              mov ebp,esp
000010C7  56                push esi
000010C8  53                push ebx
000010C9  83EC20            sub esp,byte +0x20
000010CC  B300              mov bl,0x0
000010CE  837D1000          cmp dword [ebp+0x10],byte +0x0
000010D2  7548              jnz 0x111c
000010D4  8B450C            mov eax,[ebp+0xc]
000010D7  890424            mov [esp],eax
000010DA  E83FFEFFFF        call 0xf1e
000010DF  3B4514            cmp eax,[ebp+0x14]
000010E2  7438              jz 0x111c
000010E4  8B4514            mov eax,[ebp+0x14]
000010E7  890424            mov [esp],eax
000010EA  E82E020000        call 0x131d
000010EF  89C6              mov esi,eax
000010F1  B301              mov bl,0x1
000010F3  8B4518            mov eax,[ebp+0x18]
000010F6  89442404          mov [esp+0x4],eax
000010FA  8D45EF            lea eax,[ebp-0x11]
000010FD  890424            mov [esp],eax
00001100  E8B7FFFFFF        call 0x10bc
00001105  8B550C            mov edx,[ebp+0xc]
00001108  89742408          mov [esp+0x8],esi
0000110C  89442404          mov [esp+0x4],eax
00001110  891424            mov [esp],edx
00001113  E884010000        call 0x129c
00001118  84C0              test al,al
0000111A  7404              jz 0x1120
0000111C  B001              mov al,0x1
0000111E  EB02              jmp short 0x1122
00001120  B000              mov al,0x0
00001122  8845F7            mov [ebp-0x9],al
00001125  84DB              test bl,bl
00001127  90                nop
00001128  8B4518            mov eax,[ebp+0x18]
0000112B  89442404          mov [esp+0x4],eax
0000112F  8B450C            mov eax,[ebp+0xc]
00001132  890424            mov [esp],eax
00001135  E806020000        call 0x1340
0000113A  8945F0            mov [ebp-0x10],eax
0000113D  8B450C            mov eax,[ebp+0xc]
00001140  8D5004            lea edx,[eax+0x4]
00001143  8A45F7            mov al,[ebp-0x9]
00001146  25FF000000        and eax,0xff
0000114B  8954240C          mov [esp+0xc],edx
0000114F  8B5514            mov edx,[ebp+0x14]
00001152  89542408          mov [esp+0x8],edx
00001156  8B55F0            mov edx,[ebp-0x10]
00001159  89542404          mov [esp+0x4],edx
0000115D  890424            mov [esp],eax
00001160  E8DBF5FFFF        call 0x740
00001165  8B450C            mov eax,[ebp+0xc]
00001168  8B4014            mov eax,[eax+0x14]
0000116B  8D5001            lea edx,[eax+0x1]
0000116E  8B450C            mov eax,[ebp+0xc]
00001171  895014            mov [eax+0x14],edx
00001174  8B45F0            mov eax,[ebp-0x10]
00001177  89442404          mov [esp+0x4],eax
0000117B  8B4508            mov eax,[ebp+0x8]
0000117E  890424            mov [esp],eax
00001181  E834000000        call 0x11ba
00001186  EB0B              jmp short 0x1193
00001188  84DB              test bl,bl
0000118A  90                nop
0000118B  890424            mov [esp],eax
0000118E  E8EDF5FFFF        call 0x780
00001193  8B4508            mov eax,[ebp+0x8]
00001196  83C420            add esp,byte +0x20
00001199  5B                pop ebx
0000119A  5E                pop esi
0000119B  5D                pop ebp
0000119C  C20400            ret 0x4
0000119F  90                nop
000011A0  55                push ebp
000011A1  89E5              mov ebp,esp
000011A3  8B4508            mov eax,[ebp+0x8]
000011A6  8B550C            mov edx,[ebp+0xc]
000011A9  8B12              mov edx,[edx]
000011AB  8910              mov [eax],edx
000011AD  8B4510            mov eax,[ebp+0x10]
000011B0  8A10              mov dl,[eax]
000011B2  8B4508            mov eax,[ebp+0x8]
000011B5  885004            mov [eax+0x4],dl
000011B8  5D                pop ebp
000011B9  C3                ret
000011BA  55                push ebp
000011BB  89E5              mov ebp,esp
000011BD  8B4508            mov eax,[ebp+0x8]
000011C0  8B550C            mov edx,[ebp+0xc]
000011C3  8910              mov [eax],edx
000011C5  5D                pop ebp
000011C6  C3                ret
000011C7  90                nop
000011C8  55                push ebp
000011C9  89E5              mov ebp,esp
000011CB  83EC18            sub esp,byte +0x18
000011CE  8B4508            mov eax,[ebp+0x8]
000011D1  890424            mov [esp],eax
000011D4  E8CB010000        call 0x13a4
000011D9  C9                leave
000011DA  C3                ret
000011DB  90                nop
000011DC  55                push ebp
000011DD  89E5              mov ebp,esp
000011DF  8B4508            mov eax,[ebp+0x8]
000011E2  C7400400000000    mov dword [eax+0x4],0x0
000011E9  8B4508            mov eax,[ebp+0x8]
000011EC  C7400800000000    mov dword [eax+0x8],0x0
000011F3  8B4508            mov eax,[ebp+0x8]
000011F6  8D5004            lea edx,[eax+0x4]
000011F9  8B4508            mov eax,[ebp+0x8]
000011FC  89500C            mov [eax+0xc],edx
000011FF  8B4508            mov eax,[ebp+0x8]
00001202  8D5004            lea edx,[eax+0x4]
00001205  8B4508            mov eax,[ebp+0x8]
00001208  895010            mov [eax+0x10],edx
0000120B  5D                pop ebp
0000120C  C3                ret
0000120D  90                nop
0000120E  55                push ebp
0000120F  89E5              mov ebp,esp
00001211  83EC18            sub esp,byte +0x18
00001214  8B450C            mov eax,[ebp+0xc]
00001217  890424            mov [esp],eax
0000121A  E88B010000        call 0x13aa
0000121F  89442404          mov [esp+0x4],eax
00001223  8B4508            mov eax,[ebp+0x8]
00001226  890424            mov [esp],eax
00001229  E884010000        call 0x13b2
0000122E  8B4508            mov eax,[ebp+0x8]
00001231  C9                leave
00001232  C20400            ret 0x4
00001235  90                nop
00001236  55                push ebp
00001237  89E5              mov ebp,esp
00001239  83EC18            sub esp,byte +0x18
0000123C  8B4508            mov eax,[ebp+0x8]
0000123F  890424            mov [esp],eax
00001242  E87F010000        call 0x13c6
00001247  C9                leave
00001248  C3                ret
00001249  55                push ebp
0000124A  89E5              mov ebp,esp
0000124C  8B4508            mov eax,[ebp+0x8]
0000124F  5D                pop ebp
00001250  C3                ret
00001251  90                nop
00001252  55                push ebp
00001253  89E5              mov ebp,esp
00001255  5D                pop ebp
00001256  C3                ret
00001257  90                nop
00001258  55                push ebp
00001259  89E5              mov ebp,esp
0000125B  83EC18            sub esp,byte +0x18
0000125E  8B4508            mov eax,[ebp+0x8]
00001261  C744240801000000  mov dword [esp+0x8],0x1
00001269  8B550C            mov edx,[ebp+0xc]
0000126C  89542404          mov [esp+0x4],edx
00001270  890424            mov [esp],eax
00001273  E854010000        call 0x13cc
00001278  C9                leave
00001279  C3                ret
0000127A  55                push ebp
0000127B  89E5              mov ebp,esp
0000127D  83EC28            sub esp,byte +0x28
00001280  8B4508            mov eax,[ebp+0x8]
00001283  890424            mov [esp],eax
00001286  E854010000        call 0x13df
0000128B  89442404          mov [esp+0x4],eax
0000128F  8D45F7            lea eax,[ebp-0x9]
00001292  890424            mov [esp],eax
00001295  E822FEFFFF        call 0x10bc
0000129A  C9                leave
0000129B  C3                ret
0000129C  55                push ebp
0000129D  89E5              mov ebp,esp
0000129F  8B450C            mov eax,[ebp+0xc]
000012A2  8B10              mov edx,[eax]
000012A4  8B4510            mov eax,[ebp+0x10]
000012A7  8B00              mov eax,[eax]
000012A9  39C2              cmp edx,eax
000012AB  0F9CC0            setl al
000012AE  5D                pop ebp
000012AF  C3                ret
000012B0  55                push ebp
000012B1  89E5              mov ebp,esp
000012B3  83EC18            sub esp,byte +0x18
000012B6  8B450C            mov eax,[ebp+0xc]
000012B9  8B400C            mov eax,[eax+0xc]
000012BC  89442404          mov [esp+0x4],eax
000012C0  8B4508            mov eax,[ebp+0x8]
000012C3  890424            mov [esp],eax
000012C6  E8EFFEFFFF        call 0x11ba
000012CB  8B4508            mov eax,[ebp+0x8]
000012CE  C9                leave
000012CF  C20400            ret 0x4
000012D2  55                push ebp
000012D3  89E5              mov ebp,esp
000012D5  8B4508            mov eax,[ebp+0x8]
000012D8  8B10              mov edx,[eax]
000012DA  8B450C            mov eax,[ebp+0xc]
000012DD  8B00              mov eax,[eax]
000012DF  39C2              cmp edx,eax
000012E1  0F94C0            setz al
000012E4  5D                pop ebp
000012E5  C3                ret
000012E6  55                push ebp
000012E7  89E5              mov ebp,esp
000012E9  8B450C            mov eax,[ebp+0xc]
000012EC  8B10              mov edx,[eax]
000012EE  8B4508            mov eax,[ebp+0x8]
000012F1  8910              mov [eax],edx
000012F3  8B4510            mov eax,[ebp+0x10]
000012F6  8B10              mov edx,[eax]
000012F8  8B4508            mov eax,[ebp+0x8]
000012FB  895004            mov [eax+0x4],edx
000012FE  5D                pop ebp
000012FF  C3                ret
00001300  55                push ebp
00001301  89E5              mov ebp,esp
00001303  83EC18            sub esp,byte +0x18
00001306  8B4508            mov eax,[ebp+0x8]
00001309  8B00              mov eax,[eax]
0000130B  890424            mov [esp],eax
0000130E  E8DDF3FFFF        call 0x6f0
00001313  8B5508            mov edx,[ebp+0x8]
00001316  8902              mov [edx],eax
00001318  8B4508            mov eax,[ebp+0x8]
0000131B  C9                leave
0000131C  C3                ret
0000131D  55                push ebp
0000131E  89E5              mov ebp,esp
00001320  83EC28            sub esp,byte +0x28
00001323  8B4508            mov eax,[ebp+0x8]
00001326  890424            mov [esp],eax
00001329  E8BC000000        call 0x13ea
0000132E  89442404          mov [esp+0x4],eax
00001332  8D45F7            lea eax,[ebp-0x9]
00001335  890424            mov [esp],eax
00001338  E87FFDFFFF        call 0x10bc
0000133D  C9                leave
0000133E  C3                ret
0000133F  90                nop
00001340  55                push ebp
00001341  89E5              mov ebp,esp
00001343  53                push ebx
00001344  83EC24            sub esp,byte +0x24
00001347  8B4508            mov eax,[ebp+0x8]
0000134A  890424            mov [esp],eax
0000134D  E8A4000000        call 0x13f6
00001352  8945F4            mov [ebp-0xc],eax
00001355  8B45F4            mov eax,[ebp-0xc]
00001358  83C010            add eax,byte +0x10
0000135B  890424            mov [esp],eax
0000135E  E8E6FEFFFF        call 0x1249
00001363  89C3              mov ebx,eax
00001365  8D45F3            lea eax,[ebp-0xd]
00001368  8B5508            mov edx,[ebp+0x8]
0000136B  89542404          mov [esp+0x4],edx
0000136F  890424            mov [esp],eax
00001372  E897FEFFFF        call 0x120e
00001377  83EC04            sub esp,byte +0x4
0000137A  8B450C            mov eax,[ebp+0xc]
0000137D  89442408          mov [esp+0x8],eax
00001381  895C2404          mov [esp+0x4],ebx
00001385  8D45F3            lea eax,[ebp-0xd]
00001388  890424            mov [esp],eax
0000138B  E88A000000        call 0x141a
00001390  8D45F3            lea eax,[ebp-0xd]
00001393  890424            mov [esp],eax
00001396  E89BFEFFFF        call 0x1236
0000139B  8B45F4            mov eax,[ebp-0xc]
0000139E  8B5DFC            mov ebx,[ebp-0x4]
000013A1  C9                leave
000013A2  C3                ret
000013A3  90                nop
000013A4  55                push ebp
000013A5  89E5              mov ebp,esp
000013A7  5D                pop ebp
000013A8  C3                ret
000013A9  90                nop
000013AA  55                push ebp
000013AB  89E5              mov ebp,esp
000013AD  8B4508            mov eax,[ebp+0x8]
000013B0  5D                pop ebp
000013B1  C3                ret
000013B2  55                push ebp
000013B3  89E5              mov ebp,esp
000013B5  83EC18            sub esp,byte +0x18
000013B8  8B4508            mov eax,[ebp+0x8]
000013BB  890424            mov [esp],eax
000013BE  E87D000000        call 0x1440
000013C3  C9                leave
000013C4  C3                ret
000013C5  90                nop
000013C6  55                push ebp
000013C7  89E5              mov ebp,esp
000013C9  5D                pop ebp
000013CA  C3                ret
000013CB  90                nop
000013CC  55                push ebp
000013CD  89E5              mov ebp,esp
000013CF  83EC18            sub esp,byte +0x18
000013D2  8B450C            mov eax,[ebp+0xc]
000013D5  890424            mov [esp],eax
000013D8  E8F3F2FFFF        call 0x6d0
000013DD  C9                leave
000013DE  C3                ret
000013DF  55                push ebp
000013E0  89E5              mov ebp,esp
000013E2  8B4508            mov eax,[ebp+0x8]
000013E5  83C010            add eax,byte +0x10
000013E8  5D                pop ebp
000013E9  C3                ret
000013EA  55                push ebp
000013EB  89E5              mov ebp,esp
000013ED  8B4508            mov eax,[ebp+0x8]
000013F0  83C010            add eax,byte +0x10
000013F3  5D                pop ebp
000013F4  C3                ret
000013F5  90                nop
000013F6  55                push ebp
000013F7  89E5              mov ebp,esp
000013F9  83EC18            sub esp,byte +0x18
000013FC  8B4508            mov eax,[ebp+0x8]
000013FF  C744240800000000  mov dword [esp+0x8],0x0
00001407  C744240401000000  mov dword [esp+0x4],0x1
0000140F  890424            mov [esp],eax
00001412  E82F000000        call 0x1446
00001417  C9                leave
00001418  C3                ret
00001419  90                nop
0000141A  55                push ebp
0000141B  89E5              mov ebp,esp
0000141D  83EC18            sub esp,byte +0x18
00001420  8B450C            mov eax,[ebp+0xc]
00001423  89442404          mov [esp+0x4],eax
00001427  C7042404000000    mov dword [esp],0x4
0000142E  E80EF7FFFF        call 0xb41
00001433  85C0              test eax,eax
00001435  7407              jz 0x143e
00001437  8B5510            mov edx,[ebp+0x10]
0000143A  8B12              mov edx,[edx]
0000143C  8910              mov [eax],edx
0000143E  C9                leave
0000143F  C3                ret
00001440  55                push ebp
00001441  89E5              mov ebp,esp
00001443  5D                pop ebp
00001444  C3                ret
00001445  90                nop
00001446  55                push ebp
00001447  89E5              mov ebp,esp
00001449  83EC18            sub esp,byte +0x18
0000144C  8B4508            mov eax,[ebp+0x8]
0000144F  890424            mov [esp],eax
00001452  E827000000        call 0x147e
00001457  3B450C            cmp eax,[ebp+0xc]
0000145A  0F92C0            setc al
0000145D  84C0              test al,al
0000145F  7405              jz 0x1466
00001461  E8FAF2FFFF        call 0x760
00001466  8B550C            mov edx,[ebp+0xc]
00001469  89D0              mov eax,edx
0000146B  C1E002            shl eax,byte 0x2
0000146E  01D0              add eax,edx
00001470  C1E002            shl eax,byte 0x2
00001473  890424            mov [esp],eax
00001476  E8B5F2FFFF        call 0x730
0000147B  C9                leave
0000147C  C3                ret
0000147D  90                nop
0000147E  55                push ebp
0000147F  89E5              mov ebp,esp
00001481  B8CCCCCC0C        mov eax,0xccccccc
00001486  5D                pop ebp
00001487  C3                ret
00001488  6690              xchg ax,ax
0000148A  6690              xchg ax,ax
0000148C  6690              xchg ax,ax
0000148E  6690              xchg ax,ax
00001490  55                push ebp
00001491  89E5              mov ebp,esp
00001493  5D                pop ebp
00001494  C3                ret
00001495  66662E0F1F840000  nop word [cs:eax+eax+0x0]
         -000000
000014A0  55                push ebp
000014A1  89E5              mov ebp,esp
000014A3  57                push edi
000014A4  56                push esi
000014A5  53                push ebx
000014A6  E84F000000        call 0x14fa
000014AB  81C3911C0000      add ebx,0x1c91
000014B1  83EC1C            sub esp,byte +0x1c
000014B4  E8ABF1FFFF        call 0x664
000014B9  8DBB03FFFFFF      lea edi,[ebx-0xfd]
000014BF  8D8303FFFFFF      lea eax,[ebx-0xfd]
000014C5  29C7              sub edi,eax
000014C7  C1FF02            sar edi,byte 0x2
000014CA  85FF              test edi,edi
000014CC  7424              jz 0x14f2
000014CE  31F6              xor esi,esi
000014D0  8B4510            mov eax,[ebp+0x10]
000014D3  89442408          mov [esp+0x8],eax
000014D7  8B450C            mov eax,[ebp+0xc]
000014DA  89442404          mov [esp+0x4],eax
000014DE  8B4508            mov eax,[ebp+0x8]
000014E1  890424            mov [esp],eax
000014E4  FF94B303FFFFFF    call [ebx+esi*4-0xfd]
000014EB  83C601            add esi,byte +0x1
000014EE  39FE              cmp esi,edi
000014F0  72DE              jc 0x14d0
000014F2  83C41C            add esp,byte +0x1c
000014F5  5B                pop ebx
000014F6  5E                pop esi
000014F7  5F                pop edi
000014F8  5D                pop ebp
000014F9  C3                ret
000014FA  8B1C24            mov ebx,[esp]
000014FD  C3                ret
000014FE  6690              xchg ax,ax
00001500  55                push ebp
00001501  89E5              mov ebp,esp
00001503  53                push ebx
00001504  52                push edx
00001505  BB44B00408        mov ebx,0x804b044
0000150A  A144B00408        mov eax,[0x804b044]
0000150F  83F8FF            cmp eax,byte -0x1
00001512  7410              jz 0x1524
00001514  8D742600          lea esi,[esi+0x0]
00001518  83EB04            sub ebx,byte +0x4
0000151B  FFD0              call eax
0000151D  8B03              mov eax,[ebx]
0000151F  83F8FF            cmp eax,byte -0x1
00001522  75F4              jnz 0x1518
00001524  58                pop eax
00001525  5B                pop ebx
00001526  5D                pop ebp
00001527  C3                ret
00001528  55                push ebp
00001529  89E5              mov ebp,esp
0000152B  53                push ebx
0000152C  83EC04            sub esp,byte +0x4
0000152F  E800000000        call 0x1534
00001534  5B                pop ebx
00001535  81C3081C0000      add ebx,0x1c08
0000153B  E8F0F2FFFF        call 0x830
00001540  59                pop ecx
00001541  5B                pop ebx
00001542  C9                leave
00001543  C3                ret
00001544  0300              add eax,[eax]
00001546  0000              add [eax],al
00001548  0100              add [eax],eax
0000154A  0200              add al,[eax]
0000154C  43                inc ebx
0000154D  61                popa
0000154E  7365              jnc 0x15b5
00001550  2023              and [ebx],ah
00001552  25643A2025        and eax,0x25203a64
00001557  640A00            or al,[fs:eax]
0000155A  0000              add [eax],al
0000155C  011B              add [ebx],ebx
0000155E  033B              add edi,[ebx]
00001560  0002              add [edx],al
00001562  0000              add [eax],al
00001564  3F                aas
00001565  0000              add [eax],al
00001567  0044F1FF          add [ecx+esi*8-0x1],al
0000156B  FF1C02            call far [edx+eax]
0000156E  0000              add [eax],al
00001570  54                push esp
00001571  F3                rep
00001572  FF                db 0xff
00001573  FFA0020000A0      jmp [eax-0x5ffffffe]
00001579  F4                hlt
0000157A  FF                db 0xff
0000157B  FFD0              call eax
0000157D  0200              add al,[eax]
0000157F  008AF5FFFF24      add [edx+0x24fffff5],cl
00001585  0A00              or al,[eax]
00001587  00C9              add cl,cl
00001589  F5                cmc
0000158A  FF                db 0xff
0000158B  FF440A00          inc dword [edx+ecx+0x0]
0000158F  00E5              add ch,ah
00001591  F5                cmc
00001592  FF                db 0xff
00001593  FF4002            inc dword [eax+0x2]
00001596  0000              add [eax],al
00001598  EE                out dx,al
00001599  F5                cmc
0000159A  FF                db 0xff
0000159B  FF6002            jmp [eax+0x2]
0000159E  0000              add [eax],al
000015A0  02F6              add dh,dh
000015A2  FF                db 0xff
000015A3  FFF4              push esp
000015A5  0200              add al,[eax]
000015A7  0016              add [esi],dl
000015A9  F6FF              idiv bh
000015AB  FF1403            call [ebx+eax]
000015AE  0000              add [eax],al
000015B0  2AF6              sub dh,dh
000015B2  FF                db 0xff
000015B3  FF3403            push dword [ebx+eax]
000015B6  0000              add [eax],al
000015B8  76F6              jna 0x15b0
000015BA  FF                db 0xff
000015BB  FF5C0300          call far [ebx+eax+0x0]
000015BF  008AF6FFFF7C      add [edx+0x7cfffff6],cl
000015C5  0300              add eax,[eax]
000015C7  00EC              add ah,ch
000015C9  F6FF              idiv bh
000015CB  FFA003000000      jmp [eax+0x3]
000015D1  F7FF              idiv edi
000015D3  FFC0              inc eax
000015D5  0300              add eax,[eax]
000015D7  0014F7            add [edi+esi*8],dl
000015DA  FF                db 0xff
000015DB  FFE0              jmp eax
000015DD  0300              add eax,[eax]
000015DF  0028              add [eax],ch
000015E1  F7FF              idiv edi
000015E3  FF00              inc dword [eax]
000015E5  0400              add al,0x0
000015E7  0078F7            add [eax-0x9],bh
000015EA  FF                db 0xff
000015EB  FF20              jmp [eax]
000015ED  0400              add al,0x0
000015EF  0084F7FFFF4004    add [edi+esi*8+0x440ffff],al
000015F6  0000              add [eax],al
000015F8  FA                cli
000015F9  F7FF              idiv edi
000015FB  FF640400          jmp [esp+eax+0x0]
000015FF  00C2              add dl,al
00001601  F8                clc
00001602  FF                db 0xff
00001603  FF8C040000D2F8    dec dword [esp+eax-0x72e0000]
0000160A  FF                db 0xff
0000160B  FFAC040000ECF8    jmp far [esp+eax-0x7140000]
00001612  FF                db 0xff
00001613  FFCC              dec esp
00001615  0400              add al,0x0
00001617  00F8              add al,bh
00001619  F8                clc
0000161A  FF                db 0xff
0000161B  FF                db 0xff
0000161C  EC                in al,dx
0000161D  0400              add al,0x0
0000161F  0048F9            add [eax-0x7],cl
00001622  FF                db 0xff
00001623  FF0C0500004DF9    dec dword [eax-0x6b30000]
0000162A  FF                db 0xff
0000162B  FF2C05000058F9    jmp far [eax-0x6a80000]
00001632  FF                db 0xff
00001633  FF4C0500          dec dword [ebp+eax+0x0]
00001637  0064F9FF          add [ecx+edi*8-0x1],ah
0000163B  FF6C0500          jmp far [ebp+eax+0x0]
0000163F  00C2              add dl,al
00001641  F9                stc
00001642  FF                db 0xff
00001643  FF90050000CE      call [eax-0x31fffffb]
00001649  F9                stc
0000164A  FF                db 0xff
0000164B  FFB0050000DA      push dword [eax-0x25fffffb]
00001651  F9                stc
00001652  FF                db 0xff
00001653  FFD0              call eax
00001655  050000E6F9        add eax,0xf9e60000
0000165A  FF                db 0xff
0000165B  FFF0              push eax
0000165D  050000F2F9        add eax,0xf9f20000
00001662  FF                db 0xff
00001663  FF10              call [eax]
00001665  06                push es
00001666  0000              add [eax],al
00001668  60                pusha
00001669  FB                sti
0000166A  FF                db 0xff
0000166B  FF3406            push dword [esi+eax]
0000166E  0000              add [eax],al
00001670  68FBFFFF54        push dword 0x54fffffb
00001675  06                push es
00001676  0000              add [eax],al
00001678  44                inc esp
00001679  FC                cld
0000167A  FF                db 0xff
0000167B  FF800600005E      inc dword [eax+0x5e000006]
00001681  FC                cld
00001682  FF                db 0xff
00001683  FFA00600006C      jmp [eax+0x6c000006]
00001689  FC                cld
0000168A  FF                db 0xff
0000168B  FFC0              inc eax
0000168D  06                push es
0000168E  0000              add [eax],al
00001690  80FCFF            cmp ah,0xff
00001693  FFE0              jmp eax
00001695  06                push es
00001696  0000              add [eax],al
00001698  B2FC              mov dl,0xfc
0000169A  FF                db 0xff
0000169B  FF00              inc dword [eax]
0000169D  07                pop es
0000169E  0000              add [eax],al
000016A0  DA                db 0xda
000016A1  FC                cld
000016A2  FF                db 0xff
000016A3  FF20              jmp [eax]
000016A5  07                pop es
000016A6  0000              add [eax],al
000016A8  ED                in eax,dx
000016A9  FC                cld
000016AA  FF                db 0xff
000016AB  FF4007            inc dword [eax+0x7]
000016AE  0000              add [eax],al
000016B0  F6FC              idiv ah
000016B2  FF                db 0xff
000016B3  FF6007            jmp [eax+0x7]
000016B6  0000              add [eax],al
000016B8  FC                cld
000016B9  FC                cld
000016BA  FF                db 0xff
000016BB  FF800700001E      inc dword [eax+0x1e000007]
000016C1  FD                std
000016C2  FF                db 0xff
000016C3  FFA007000040      jmp [eax+0x40000007]
000016C9  FD                std
000016CA  FF                db 0xff
000016CB  FFC0              inc eax
000016CD  07                pop es
000016CE  0000              add [eax],al
000016D0  54                push esp
000016D1  FD                std
000016D2  FF                db 0xff
000016D3  FFE0              jmp eax
000016D5  07                pop es
000016D6  0000              add [eax],al
000016D8  76FD              jna 0x16d7
000016DA  FF                db 0xff
000016DB  FF00              inc dword [eax]
000016DD  0800              or [eax],al
000016DF  008AFDFFFF20      add [edx+0x20fffffd],cl
000016E5  0800              or [eax],al
000016E7  00A4FDFFFF4008    add [ebp+edi*8+0x840ffff],ah
000016EE  0000              add [eax],al
000016F0  C1FDFF            sar ebp,byte 0xff
000016F3  FF6008            jmp [eax+0x8]
000016F6  0000              add [eax],al
000016F8  E4FD              in al,0xfd
000016FA  FF                db 0xff
000016FB  FF8008000048      inc dword [eax+0x48000008]
00001701  FE                db 0xfe
00001702  FF                db 0xff
00001703  FFA40800004EFE    jmp [eax+ecx-0x1b20000]
0000170A  FF                db 0xff
0000170B  FFC4              inc esp
0000170D  0800              or [eax],al
0000170F  0056FE            add [esi-0x2],dl
00001712  FF                db 0xff
00001713  FFE4              jmp esp
00001715  0800              or [eax],al
00001717  006AFE            add [edx-0x2],ch
0000171A  FF                db 0xff
0000171B  FF0409            inc dword [ecx+ecx]
0000171E  0000              add [eax],al
00001720  70FE              jo 0x1720
00001722  FF                db 0xff
00001723  FF2409            jmp [ecx+ecx]
00001726  0000              add [eax],al
00001728  83FEFF            cmp esi,byte -0x1
0000172B  FF440900          inc dword [ecx+ecx+0x0]
0000172F  008EFEFFFF64      add [esi+0x64fffffe],cl
00001735  0900              or [eax],eax
00001737  009AFEFFFF84      add [edx-0x7b000002],bl
0000173D  0900              or [eax],eax
0000173F  00BEFEFFFFA4      add [esi-0x5b000002],bh
00001745  0900              or [eax],eax
00001747  00E4              add ah,ah
00001749  FE                db 0xfe
0000174A  FF                db 0xff
0000174B  FFC4              inc esp
0000174D  0900              or [eax],eax
0000174F  00EA              add dl,ch
00001751  FE                db 0xfe
00001752  FF                db 0xff
00001753  FFE4              jmp esp
00001755  0900              or [eax],eax
00001757  0022              add [edx],ah
00001759  FF                db 0xff
0000175A  FF                db 0xff
0000175B  FF040A            inc dword [edx+ecx]
0000175E  0000              add [eax],al
00001760  1400              adc al,0x0
00001762  0000              add [eax],al
00001764  0000              add [eax],al
00001766  0000              add [eax],al
00001768  017A52            add [edx+0x52],edi
0000176B  0001              add [ecx],al
0000176D  7C08              jl 0x1777
0000176F  011B              add [ebx],ebx
00001771  0C04              or al,0x4
00001773  0488              add al,0x88
00001775  0100              add [eax],eax
00001777  0020              add [eax],ah
00001779  0000              add [eax],al
0000177B  001C00            add [eax+eax],bl
0000177E  0000              add [eax],al
00001780  20EF              and bh,ch
00001782  FF                db 0xff
00001783  FFF0              push eax
00001785  0000              add [eax],al
00001787  0000              add [eax],al
00001789  0E                push cs
0000178A  08460E            or [esi+0xe],al
0000178D  0C4A              or al,0x4a
0000178F  0F0B              ud2
00001791  7404              jz 0x1797
00001793  7800              js 0x1795
00001795  3F                aas
00001796  1A3B              sbb bh,[ebx]
00001798  2A32              sub dh,[edx]
0000179A  2422              and al,0x22
0000179C  1C00              sbb al,0x0
0000179E  0000              add [eax],al
000017A0  40                inc eax
000017A1  0000              add [eax],al
000017A3  009DF3FFFF08      add [ebp+0x8fffff3],bl
000017A9  0000              add [eax],al
000017AB  0000              add [eax],al
000017AD  41                inc ecx
000017AE  0E                push cs
000017AF  088502420D05      or [ebp+0x50d4202],al
000017B5  44                inc esp
000017B6  C50C04            lds ecx,[esp+eax]
000017B9  0400              add al,0x0
000017BB  001C00            add [eax+eax],bl
000017BE  0000              add [eax],al
000017C0  60                pusha
000017C1  0000              add [eax],al
000017C3  0086F3FFFF13      add [esi+0x13fffff3],al
000017C9  0000              add [eax],al
000017CB  0000              add [eax],al
000017CD  41                inc ecx
000017CE  0E                push cs
000017CF  088502420D05      or [ebp+0x50d4202],al
000017D5  4F                dec edi
000017D6  C50C04            lds ecx,[esp+eax]
000017D9  0400              add al,0x0
000017DB  001C00            add [eax+eax],bl
000017DE  0000              add [eax],al
000017E0  0000              add [eax],al
000017E2  0000              add [eax],al
000017E4  017A50            add [edx+0x50],edi
000017E7  4C                dec esp
000017E8  52                push edx
000017E9  0001              add [ecx],al
000017EB  7C08              jl 0x17f5
000017ED  07                pop es
000017EE  007087            add [eax-0x79],dh
000017F1  0408              add al,0x8
000017F3  001B              add [ebx],bl
000017F5  0C04              or al,0x4
000017F7  0488              add al,0x88
000017F9  0100              add [eax],eax
000017FB  002C00            add [eax+eax],ch
000017FE  0000              add [eax],al
00001800  2400              and al,0x0
00001802  0000              add [eax],al
00001804  AC                lodsb
00001805  F0                lock
00001806  FF                db 0xff
00001807  FF4C0100          dec dword [ecx+eax+0x0]
0000180B  0004C4            add [esp+eax*8],al
0000180E  9F                lahf
0000180F  0408              add al,0x8
00001811  41                inc ecx
00001812  0E                push cs
00001813  088502420D05      or [ebp+0x50d4202],al
00001819  48                dec eax
0000181A  8603              xchg al,[ebx]
0000181C  8304033E          add dword [ebx+eax],byte +0x3e
00001820  01C3              add ebx,eax
00001822  41                inc ecx
00001823  C641C50C          mov byte [ecx-0x3b],0xc
00001827  0404              add al,0x4
00001829  0000              add [eax],al
0000182B  0020              add [eax],ah
0000182D  0000              add [eax],al
0000182F  00540000          add [eax+eax+0x0],dl
00001833  00C8              add al,cl
00001835  F1                int1
00001836  FF                db 0xff
00001837  FF                db 0xff
00001838  EA00000004E99F    jmp 0x9fe9:0x4000000
0000183F  0408              add al,0x8
00001841  41                inc ecx
00001842  0E                push cs
00001843  088502420D05      or [ebp+0x50d4202],al
00001849  02E6              add ah,dh
0000184B  C50C04            lds ecx,[esp+eax]
0000184E  0400              add al,0x0
00001850  1C00              sbb al,0x0
00001852  0000              add [eax],al
00001854  F4                hlt
00001855  0000              add [eax],al
00001857  0006              add [esi],al
00001859  F3                rep
0000185A  FF                db 0xff
0000185B  FF13              call [ebx]
0000185D  0000              add [eax],al
0000185F  0000              add [eax],al
00001861  41                inc ecx
00001862  0E                push cs
00001863  088502420D05      or [ebp+0x50d4202],al
00001869  4F                dec edi
0000186A  C50C04            lds ecx,[esp+eax]
0000186D  0400              add al,0x0
0000186F  001C00            add [eax+eax],bl
00001872  0000              add [eax],al
00001874  1401              adc al,0x1
00001876  0000              add [eax],al
00001878  FA                cli
00001879  F2                repne
0000187A  FF                db 0xff
0000187B  FF13              call [ebx]
0000187D  0000              add [eax],al
0000187F  0000              add [eax],al
00001881  41                inc ecx
00001882  0E                push cs
00001883  088502420D05      or [ebp+0x50d4202],al
00001889  4F                dec edi
0000188A  C50C04            lds ecx,[esp+eax]
0000188D  0400              add al,0x0
0000188F  002400            add [eax+eax],ah
00001892  0000              add [eax],al
00001894  B8000000EE        mov eax,0xee000000
00001899  F2                repne
0000189A  FF                db 0xff
0000189B  FF4B00            dec dword [ebx+0x0]
0000189E  0000              add [eax],al
000018A0  04F8              add al,0xf8
000018A2  9F                lahf
000018A3  0408              add al,0x8
000018A5  41                inc ecx
000018A6  0E                push cs
000018A7  088502420D05      or [ebp+0x50d4202],al
000018AD  44                inc esp
000018AE  830302            add dword [ebx],byte +0x2
000018B1  42                inc edx
000018B2  C3                ret
000018B3  41                inc ecx
000018B4  C50C04            lds ecx,[esp+eax]
000018B7  041C              add al,0x1c
000018B9  0000              add [eax],al
000018BB  005C0100          add [ecx+eax+0x0],bl
000018BF  0012              add [edx],dl
000018C1  F3                rep
000018C2  FF                db 0xff
000018C3  FF13              call [ebx]
000018C5  0000              add [eax],al
000018C7  0000              add [eax],al
000018C9  41                inc ecx
000018CA  0E                push cs
000018CB  088502420D05      or [ebp+0x50d4202],al
000018D1  4F                dec edi
000018D2  C50C04            lds ecx,[esp+eax]
000018D5  0400              add al,0x0
000018D7  0020              add [eax],ah
000018D9  0000              add [eax],al
000018DB  0000              add [eax],al
000018DD  0100              add [eax],eax
000018DF  0006              add [esi],al
000018E1  F3                rep
000018E2  FF                db 0xff
000018E3  FF6100            jmp [ecx+0x0]
000018E6  0000              add [eax],al
000018E8  0404              add al,0x4
000018EA  A00408410E        mov al,[0xe410804]
000018EF  088502420D05      or [ebp+0x50d4202],al
000018F5  025BC5            add bl,[ebx-0x3b]
000018F8  0C04              or al,0x4
000018FA  0400              add al,0x0
000018FC  1C00              sbb al,0x0
000018FE  0000              add [eax],al
00001900  A001000044        mov al,[0x44000001]
00001905  F3                rep
00001906  FF                db 0xff
00001907  FF13              call [ebx]
00001909  0000              add [eax],al
0000190B  0000              add [eax],al
0000190D  41                inc ecx
0000190E  0E                push cs
0000190F  088502420D05      or [ebp+0x50d4202],al
00001915  4F                dec edi
00001916  C50C04            lds ecx,[esp+eax]
00001919  0400              add al,0x0
0000191B  001C00            add [eax+eax],bl
0000191E  0000              add [eax],al
00001920  C00100            rol byte [ecx],byte 0x0
00001923  0038              add [eax],bh
00001925  F3                rep
00001926  FF                db 0xff
00001927  FF13              call [ebx]
00001929  0000              add [eax],al
0000192B  0000              add [eax],al
0000192D  41                inc ecx
0000192E  0E                push cs
0000192F  088502420D05      or [ebp+0x50d4202],al
00001935  4F                dec edi
00001936  C50C04            lds ecx,[esp+eax]
00001939  0400              add al,0x0
0000193B  001C00            add [eax+eax],bl
0000193E  0000              add [eax],al
00001940  E001              loopne 0x1943
00001942  0000              add [eax],al
00001944  2CF3              sub al,0xf3
00001946  FF                db 0xff
00001947  FF13              call [ebx]
00001949  0000              add [eax],al
0000194B  0000              add [eax],al
0000194D  41                inc ecx
0000194E  0E                push cs
0000194F  088502420D05      or [ebp+0x50d4202],al
00001955  4F                dec edi
00001956  C50C04            lds ecx,[esp+eax]
00001959  0400              add al,0x0
0000195B  001C00            add [eax+eax],bl
0000195E  0000              add [eax],al
00001960  0002              add [edx],al
00001962  0000              add [eax],al
00001964  20F3              and bl,dh
00001966  FF                db 0xff
00001967  FF5000            call [eax+0x0]
0000196A  0000              add [eax],al
0000196C  00410E            add [ecx+0xe],al
0000196F  088502420D05      or [ebp+0x50d4202],al
00001975  024CC50C          add cl,[ebp+eax*8+0xc]
00001979  0404              add al,0x4
0000197B  001C00            add [eax+eax],bl
0000197E  0000              add [eax],al
00001980  2002              and [edx],al
00001982  0000              add [eax],al
00001984  50                push eax
00001985  F3                rep
00001986  FF                db 0xff
00001987  FF0B              dec dword [ebx]
00001989  0000              add [eax],al
0000198B  0000              add [eax],al
0000198D  41                inc ecx
0000198E  0E                push cs
0000198F  088502420D05      or [ebp+0x50d4202],al
00001995  47                inc edi
00001996  C50C04            lds ecx,[esp+eax]
00001999  0400              add al,0x0
0000199B  0020              add [eax],ah
0000199D  0000              add [eax],al
0000199F  004002            add [eax+0x2],al
000019A2  0000              add [eax],al
000019A4  3CF3              cmp al,0xf3
000019A6  FF                db 0xff
000019A7  FF7600            push dword [esi+0x0]
000019AA  0000              add [eax],al
000019AC  00410E            add [ecx+0xe],al
000019AF  088502420D05      or [ebp+0x50d4202],al
000019B5  44                inc esp
000019B6  830302            add dword [ebx],byte +0x2
000019B9  6D                insd
000019BA  C3                ret
000019BB  41                inc ecx
000019BC  C50C04            lds ecx,[esp+eax]
000019BF  0424              add al,0x24
000019C1  0000              add [eax],al
000019C3  00E8              add al,ch
000019C5  0100              add [eax],eax
000019C7  008EF3FFFFC7      add [esi-0x3800000d],cl
000019CD  0000              add [eax],al
000019CF  000410            add [eax+edx],al
000019D2  A00408410E        mov al,[0xe410804]
000019D7  088502420D05      or [ebp+0x50d4202],al
000019DD  44                inc esp
000019DE  830302            add dword [ebx],byte +0x2
000019E1  BDC5C30C04        mov ebp,0x40cc3c5
000019E6  0400              add al,0x0
000019E8  1C00              sbb al,0x0
000019EA  0000              add [eax],al
000019EC  8C02              mov [edx],es
000019EE  0000              add [eax],al
000019F0  2EF4              cs hlt
000019F2  FF                db 0xff
000019F3  FF0F              dec dword [edi]
000019F5  0000              add [eax],al
000019F7  0000              add [eax],al
000019F9  41                inc ecx
000019FA  0E                push cs
000019FB  088502420D05      or [ebp+0x50d4202],al
00001A01  4B                dec ebx
00001A02  C50C04            lds ecx,[esp+eax]
00001A05  0400              add al,0x0
00001A07  001C00            add [eax+eax],bl
00001A0A  0000              add [eax],al
00001A0C  AC                lodsb
00001A0D  0200              add al,[eax]
00001A0F  001E              add [esi],bl
00001A11  F4                hlt
00001A12  FF                db 0xff
00001A13  FF1A              call far [edx]
00001A15  0000              add [eax],al
00001A17  0000              add [eax],al
00001A19  41                inc ecx
00001A1A  0E                push cs
00001A1B  088502420D05      or [ebp+0x50d4202],al
00001A21  56                push esi
00001A22  C50C04            lds ecx,[esp+eax]
00001A25  0400              add al,0x0
00001A27  001C00            add [eax+eax],bl
00001A2A  0000              add [eax],al
00001A2C  CC                int3
00001A2D  0200              add al,[eax]
00001A2F  0018              add [eax],bl
00001A31  F4                hlt
00001A32  FF                db 0xff
00001A33  FF0B              dec dword [ebx]
00001A35  0000              add [eax],al
00001A37  0000              add [eax],al
00001A39  41                inc ecx
00001A3A  0E                push cs
00001A3B  088502420D05      or [ebp+0x50d4202],al
00001A41  47                inc edi
00001A42  C50C04            lds ecx,[esp+eax]
00001A45  0400              add al,0x0
00001A47  001C00            add [eax+eax],bl
00001A4A  0000              add [eax],al
00001A4C  EC                in al,dx
00001A4D  0200              add al,[eax]
00001A4F  0004F4            add [esp+esi*8],al
00001A52  FF                db 0xff
00001A53  FF5000            call [eax+0x0]
00001A56  0000              add [eax],al
00001A58  00410E            add [ecx+0xe],al
00001A5B  088502420D05      or [ebp+0x50d4202],al
00001A61  024CC50C          add cl,[ebp+eax*8+0xc]
00001A65  0404              add al,0x4
00001A67  001C00            add [eax+eax],bl
00001A6A  0000              add [eax],al
00001A6C  0C03              or al,0x3
00001A6E  0000              add [eax],al
00001A70  34F4              xor al,0xf4
00001A72  FF                db 0xff
00001A73  FF0500000000      inc dword [dword 0x0]
00001A79  41                inc ecx
00001A7A  0E                push cs
00001A7B  088502420D05      or [ebp+0x50d4202],al
00001A81  41                inc ecx
00001A82  C50C04            lds ecx,[esp+eax]
00001A85  0400              add al,0x0
00001A87  001C00            add [eax+eax],bl
00001A8A  0000              add [eax],al
00001A8C  2C03              sub al,0x3
00001A8E  0000              add [eax],al
00001A90  19F4              sbb esp,esi
00001A92  FF                db 0xff
00001A93  FF0B              dec dword [ebx]
00001A95  0000              add [eax],al
00001A97  0000              add [eax],al
00001A99  41                inc ecx
00001A9A  0E                push cs
00001A9B  088502420D05      or [ebp+0x50d4202],al
00001AA1  47                inc edi
00001AA2  C50C04            lds ecx,[esp+eax]
00001AA5  0400              add al,0x0
00001AA7  001C00            add [eax+eax],bl
00001AAA  0000              add [eax],al
00001AAC  4C                dec esp
00001AAD  0300              add eax,[eax]
00001AAF  0004F4            add [esp+esi*8],al
00001AB2  FF                db 0xff
00001AB3  FF0B              dec dword [ebx]
00001AB5  0000              add [eax],al
00001AB7  0000              add [eax],al
00001AB9  41                inc ecx
00001ABA  0E                push cs
00001ABB  088502420D05      or [ebp+0x50d4202],al
00001AC1  47                inc edi
00001AC2  C50C04            lds ecx,[esp+eax]
00001AC5  0400              add al,0x0
00001AC7  0020              add [eax],ah
00001AC9  0000              add [eax],al
00001ACB  006C0300          add [ebx+eax+0x0],ch
00001ACF  00F0              add al,dh
00001AD1  F3                rep
00001AD2  FF                db 0xff
00001AD3  FF5D00            call far [ebp+0x0]
00001AD6  0000              add [eax],al
00001AD8  00410E            add [ecx+0xe],al
00001ADB  088502420D05      or [ebp+0x50d4202],al
00001AE1  44                inc esp
00001AE2  830302            add dword [ebx],byte +0x2
00001AE5  55                push ebp
00001AE6  C5                db 0xc5
00001AE7  C3                ret
00001AE8  0C04              or al,0x4
00001AEA  0400              add al,0x0
00001AEC  1C00              sbb al,0x0
00001AEE  0000              add [eax],al
00001AF0  90                nop
00001AF1  0300              add eax,[eax]
00001AF3  002A              add [edx],ch
00001AF5  F4                hlt
00001AF6  FF                db 0xff
00001AF7  FF0B              dec dword [ebx]
00001AF9  0000              add [eax],al
00001AFB  0000              add [eax],al
00001AFD  41                inc ecx
00001AFE  0E                push cs
00001AFF  088502420D05      or [ebp+0x50d4202],al
00001B05  47                inc edi
00001B06  C50C04            lds ecx,[esp+eax]
00001B09  0400              add al,0x0
00001B0B  001C00            add [eax+eax],bl
00001B0E  0000              add [eax],al
00001B10  B003              mov al,0x3
00001B12  0000              add [eax],al
00001B14  16                push ss
00001B15  F4                hlt
00001B16  FF                db 0xff
00001B17  FF0B              dec dword [ebx]
00001B19  0000              add [eax],al
00001B1B  0000              add [eax],al
00001B1D  41                inc ecx
00001B1E  0E                push cs
00001B1F  088502420D05      or [ebp+0x50d4202],al
00001B25  47                inc edi
00001B26  C50C04            lds ecx,[esp+eax]
00001B29  0400              add al,0x0
00001B2B  001C00            add [eax+eax],bl
00001B2E  0000              add [eax],al
00001B30  D003              rol byte [ebx],1
00001B32  0000              add [eax],al
00001B34  02F4              add dh,ah
00001B36  FF                db 0xff
00001B37  FF0B              dec dword [ebx]
00001B39  0000              add [eax],al
00001B3B  0000              add [eax],al
00001B3D  41                inc ecx
00001B3E  0E                push cs
00001B3F  088502420D05      or [ebp+0x50d4202],al
00001B45  47                inc edi
00001B46  C50C04            lds ecx,[esp+eax]
00001B49  0400              add al,0x0
00001B4B  001C00            add [eax+eax],bl
00001B4E  0000              add [eax],al
00001B50  F00300            lock add eax,[eax]
00001B53  00EE              add dh,ch
00001B55  F3                rep
00001B56  FF                db 0xff
00001B57  FF0B              dec dword [ebx]
00001B59  0000              add [eax],al
00001B5B  0000              add [eax],al
00001B5D  41                inc ecx
00001B5E  0E                push cs
00001B5F  088502420D05      or [ebp+0x50d4202],al
00001B65  47                inc edi
00001B66  C50C04            lds ecx,[esp+eax]
00001B69  0400              add al,0x0
00001B6B  0020              add [eax],ah
00001B6D  0000              add [eax],al
00001B6F  0094030000DAF3    add [ebx+eax-0xc260000],dl
00001B76  FF                db 0xff
00001B77  FF6E01            jmp far [esi+0x1]
00001B7A  0000              add [eax],al
00001B7C  0423              add al,0x23
00001B7E  A00408410E        mov al,[0xe410804]
00001B83  088502420D05      or [ebp+0x50d4202],al
00001B89  036801            add ebp,[eax+0x1]
00001B8C  C50C04            lds ecx,[esp+eax]
00001B8F  041C              add al,0x1c
00001B91  0000              add [eax],al
00001B93  003404            add [esp+eax],dh
00001B96  0000              add [eax],al
00001B98  24F5              and al,0xf5
00001B9A  FF                db 0xff
00001B9B  FF08              dec dword [eax]
00001B9D  0000              add [eax],al
00001B9F  0000              add [eax],al
00001BA1  41                inc ecx
00001BA2  0E                push cs
00001BA3  088502420D05      or [ebp+0x50d4202],al
00001BA9  44                inc esp
00001BAA  C50C04            lds ecx,[esp+eax]
00001BAD  0400              add al,0x0
00001BAF  0028              add [eax],ch
00001BB1  0000              add [eax],al
00001BB3  00D8              add al,bl
00001BB5  0300              add eax,[eax]
00001BB7  000CF5FFFFDB00    add [esi*8+0xdbffff],cl
00001BBE  0000              add [eax],al
00001BC0  0432              add al,0x32
00001BC2  A00408410E        mov al,[0xe410804]
00001BC7  088502420D05      or [ebp+0x50d4202],al
00001BCD  45                inc ebp
00001BCE  8603              xchg al,[ebx]
00001BD0  830402CE          add dword [edx+eax],byte -0x32
00001BD4  C3                ret
00001BD5  41                inc ecx
00001BD6  C641C50C          mov byte [ecx-0x3b],0xc
00001BDA  0404              add al,0x4
00001BDC  1C00              sbb al,0x0
00001BDE  0000              add [eax],al
00001BE0  80040000          add byte [eax+eax],0x0
00001BE4  BCF5FFFF1A        mov esp,0x1afffff5
00001BE9  0000              add [eax],al
00001BEB  0000              add [eax],al
00001BED  41                inc ecx
00001BEE  0E                push cs
00001BEF  088502420D05      or [ebp+0x50d4202],al
00001BF5  56                push esi
00001BF6  C50C04            lds ecx,[esp+eax]
00001BF9  0400              add al,0x0
00001BFB  001C00            add [eax+eax],bl
00001BFE  0000              add [eax],al
00001C00  A0040000B6        mov al,[0xb6000004]
00001C05  F5                cmc
00001C06  FF                db 0xff
00001C07  FF0D00000000      dec dword [dword 0x0]
00001C0D  41                inc ecx
00001C0E  0E                push cs
00001C0F  088502420D05      or [ebp+0x50d4202],al
00001C15  49                dec ecx
00001C16  C50C04            lds ecx,[esp+eax]
00001C19  0400              add al,0x0
00001C1B  001C00            add [eax+eax],bl
00001C1E  0000              add [eax],al
00001C20  C0040000          rol byte [eax+eax],byte 0x0
00001C24  A4                movsb
00001C25  F5                cmc
00001C26  FF                db 0xff
00001C27  FF13              call [ebx]
00001C29  0000              add [eax],al
00001C2B  0000              add [eax],al
00001C2D  41                inc ecx
00001C2E  0E                push cs
00001C2F  088502420D05      or [ebp+0x50d4202],al
00001C35  4F                dec edi
00001C36  C50C04            lds ecx,[esp+eax]
00001C39  0400              add al,0x0
00001C3B  001C00            add [eax+eax],bl
00001C3E  0000              add [eax],al
00001C40  E004              loopne 0x1c46
00001C42  0000              add [eax],al
00001C44  98                cwde
00001C45  F5                cmc
00001C46  FF                db 0xff
00001C47  FF31              push dword [ecx]
00001C49  0000              add [eax],al
00001C4B  0000              add [eax],al
00001C4D  41                inc ecx
00001C4E  0E                push cs
00001C4F  088502420D05      or [ebp+0x50d4202],al
00001C55  6D                insd
00001C56  C50C04            lds ecx,[esp+eax]
00001C59  0400              add al,0x0
00001C5B  001C00            add [eax+eax],bl
00001C5E  0000              add [eax],al
00001C60  00050000AAF5      add [dword 0xf5aa0000],al
00001C66  FF                db 0xff
00001C67  FF27              jmp [edi]
00001C69  0000              add [eax],al
00001C6B  0000              add [eax],al
00001C6D  41                inc ecx
00001C6E  0E                push cs
00001C6F  088502420D05      or [ebp+0x50d4202],al
00001C75  61                popa
00001C76  C50C04            lds ecx,[esp+eax]
00001C79  0400              add al,0x0
00001C7B  001C00            add [eax+eax],bl
00001C7E  0000              add [eax],al
00001C80  20050000B2F5      and [dword 0xf5b20000],al
00001C86  FF                db 0xff
00001C87  FF13              call [ebx]
00001C89  0000              add [eax],al
00001C8B  0000              add [eax],al
00001C8D  41                inc ecx
00001C8E  0E                push cs
00001C8F  088502420D05      or [ebp+0x50d4202],al
00001C95  4F                dec edi
00001C96  C50C04            lds ecx,[esp+eax]
00001C99  0400              add al,0x0
00001C9B  001C00            add [eax+eax],bl
00001C9E  0000              add [eax],al
00001CA0  40                inc eax
00001CA1  050000A5F5        add eax,0xf5a50000
00001CA6  FF                db 0xff
00001CA7  FF08              dec dword [eax]
00001CA9  0000              add [eax],al
00001CAB  0000              add [eax],al
00001CAD  41                inc ecx
00001CAE  0E                push cs
00001CAF  088502420D05      or [ebp+0x50d4202],al
00001CB5  44                inc esp
00001CB6  C50C04            lds ecx,[esp+eax]
00001CB9  0400              add al,0x0
00001CBB  001C00            add [eax+eax],bl
00001CBE  0000              add [eax],al
00001CC0  60                pusha
00001CC1  0500008EF5        add eax,0xf58e0000
00001CC6  FF                db 0xff
00001CC7  FF0500000000      inc dword [dword 0x0]
00001CCD  41                inc ecx
00001CCE  0E                push cs
00001CCF  088502420D05      or [ebp+0x50d4202],al
00001CD5  41                inc ecx
00001CD6  C50C04            lds ecx,[esp+eax]
00001CD9  0400              add al,0x0
00001CDB  001C00            add [eax+eax],bl
00001CDE  0000              add [eax],al
00001CE0  8005000074F5FF    add byte [dword 0xf5740000],0xff
00001CE7  FF22              jmp [edx]
00001CE9  0000              add [eax],al
00001CEB  0000              add [eax],al
00001CED  41                inc ecx
00001CEE  0E                push cs
00001CEF  088502420D05      or [ebp+0x50d4202],al
00001CF5  5E                pop esi
00001CF6  C50C04            lds ecx,[esp+eax]
00001CF9  0400              add al,0x0
00001CFB  001C00            add [eax+eax],bl
00001CFE  0000              add [eax],al
00001D00  A005000076        mov al,[0x76000005]
00001D05  F5                cmc
00001D06  FF                db 0xff
00001D07  FF22              jmp [edx]
00001D09  0000              add [eax],al
00001D0B  0000              add [eax],al
00001D0D  41                inc ecx
00001D0E  0E                push cs
00001D0F  088502420D05      or [ebp+0x50d4202],al
00001D15  5E                pop esi
00001D16  C50C04            lds ecx,[esp+eax]
00001D19  0400              add al,0x0
00001D1B  001C00            add [eax+eax],bl
00001D1E  0000              add [eax],al
00001D20  C005000078F5FF    rol byte [dword 0xf5780000],byte 0xff
00001D27  FF1400            call [eax+eax]
00001D2A  0000              add [eax],al
00001D2C  00410E            add [ecx+0xe],al
00001D2F  088502420D05      or [ebp+0x50d4202],al
00001D35  50                push eax
00001D36  C50C04            lds ecx,[esp+eax]
00001D39  0400              add al,0x0
00001D3B  001C00            add [eax+eax],bl
00001D3E  0000              add [eax],al
00001D40  E005              loopne 0x1d47
00001D42  0000              add [eax],al
00001D44  6C                insb
00001D45  F5                cmc
00001D46  FF                db 0xff
00001D47  FF22              jmp [edx]
00001D49  0000              add [eax],al
00001D4B  0000              add [eax],al
00001D4D  41                inc ecx
00001D4E  0E                push cs
00001D4F  088502420D05      or [ebp+0x50d4202],al
00001D55  5C                pop esp
00001D56  C50C04            lds ecx,[esp+eax]
00001D59  0400              add al,0x0
00001D5B  001C00            add [eax+eax],bl
00001D5E  0000              add [eax],al
00001D60  0006              add [esi],al
00001D62  0000              add [eax],al
00001D64  6E                outsb
00001D65  F5                cmc
00001D66  FF                db 0xff
00001D67  FF1400            call [eax+eax]
00001D6A  0000              add [eax],al
00001D6C  00410E            add [ecx+0xe],al
00001D6F  088502420D05      or [ebp+0x50d4202],al
00001D75  50                push eax
00001D76  C50C04            lds ecx,[esp+eax]
00001D79  0400              add al,0x0
00001D7B  001C00            add [eax+eax],bl
00001D7E  0000              add [eax],al
00001D80  2006              and [esi],al
00001D82  0000              add [eax],al
00001D84  62                db 0x62
00001D85  F5                cmc
00001D86  FF                db 0xff
00001D87  FF1A              call far [edx]
00001D89  0000              add [eax],al
00001D8B  0000              add [eax],al
00001D8D  41                inc ecx
00001D8E  0E                push cs
00001D8F  088502420D05      or [ebp+0x50d4202],al
00001D95  56                push esi
00001D96  C50C04            lds ecx,[esp+eax]
00001D99  0400              add al,0x0
00001D9B  001C00            add [eax+eax],bl
00001D9E  0000              add [eax],al
00001DA0  40                inc eax
00001DA1  06                push es
00001DA2  0000              add [eax],al
00001DA4  5C                pop esp
00001DA5  F5                cmc
00001DA6  FF                db 0xff
00001DA7  FF1D00000000      call far [dword 0x0]
00001DAD  41                inc ecx
00001DAE  0E                push cs
00001DAF  088502420D05      or [ebp+0x50d4202],al
00001DB5  59                pop ecx
00001DB6  C50C04            lds ecx,[esp+eax]
00001DB9  0400              add al,0x0
00001DBB  001C00            add [eax+eax],bl
00001DBE  0000              add [eax],al
00001DC0  60                pusha
00001DC1  06                push es
00001DC2  0000              add [eax],al
00001DC4  59                pop ecx
00001DC5  F5                cmc
00001DC6  FF                db 0xff
00001DC7  FF22              jmp [edx]
00001DC9  0000              add [eax],al
00001DCB  0000              add [eax],al
00001DCD  41                inc ecx
00001DCE  0E                push cs
00001DCF  088502420D05      or [ebp+0x50d4202],al
00001DD5  5E                pop esi
00001DD6  C50C04            lds ecx,[esp+eax]
00001DD9  0400              add al,0x0
00001DDB  0020              add [eax],ah
00001DDD  0000              add [eax],al
00001DDF  00800600005C      add [eax+0x5c000006],al
00001DE5  F5                cmc
00001DE6  FF                db 0xff
00001DE7  FF6300            jmp [ebx+0x0]
00001DEA  0000              add [eax],al
00001DEC  00410E            add [ecx+0xe],al
00001DEF  088502420D05      or [ebp+0x50d4202],al
00001DF5  44                inc esp
00001DF6  830302            add dword [ebx],byte +0x2
00001DF9  5B                pop ebx
00001DFA  C5                db 0xc5
00001DFB  C3                ret
00001DFC  0C04              or al,0x4
00001DFE  0400              add al,0x0
00001E00  1C00              sbb al,0x0
00001E02  0000              add [eax],al
00001E04  A4                movsb
00001E05  06                push es
00001E06  0000              add [eax],al
00001E08  9C                pushf
00001E09  F5                cmc
00001E0A  FF                db 0xff
00001E0B  FF0500000000      inc dword [dword 0x0]
00001E11  41                inc ecx
00001E12  0E                push cs
00001E13  088502420D05      or [ebp+0x50d4202],al
00001E19  41                inc ecx
00001E1A  C50C04            lds ecx,[esp+eax]
00001E1D  0400              add al,0x0
00001E1F  001C00            add [eax+eax],bl
00001E22  0000              add [eax],al
00001E24  C406              les eax,[esi]
00001E26  0000              add [eax],al
00001E28  82                db 0x82
00001E29  F5                cmc
00001E2A  FF                db 0xff
00001E2B  FF08              dec dword [eax]
00001E2D  0000              add [eax],al
00001E2F  0000              add [eax],al
00001E31  41                inc ecx
00001E32  0E                push cs
00001E33  088502420D05      or [ebp+0x50d4202],al
00001E39  44                inc esp
00001E3A  C50C04            lds ecx,[esp+eax]
00001E3D  0400              add al,0x0
00001E3F  001C00            add [eax+eax],bl
00001E42  0000              add [eax],al
00001E44  E406              in al,0x6
00001E46  0000              add [eax],al
00001E48  6AF5              push byte -0xb
00001E4A  FF                db 0xff
00001E4B  FF13              call [ebx]
00001E4D  0000              add [eax],al
00001E4F  0000              add [eax],al
00001E51  41                inc ecx
00001E52  0E                push cs
00001E53  088502420D05      or [ebp+0x50d4202],al
00001E59  4F                dec edi
00001E5A  C50C04            lds ecx,[esp+eax]
00001E5D  0400              add al,0x0
00001E5F  001C00            add [eax+eax],bl
00001E62  0000              add [eax],al
00001E64  0407              add al,0x7
00001E66  0000              add [eax],al
00001E68  5E                pop esi
00001E69  F5                cmc
00001E6A  FF                db 0xff
00001E6B  FF0500000000      inc dword [dword 0x0]
00001E71  41                inc ecx
00001E72  0E                push cs
00001E73  088502420D05      or [ebp+0x50d4202],al
00001E79  41                inc ecx
00001E7A  C50C04            lds ecx,[esp+eax]
00001E7D  0400              add al,0x0
00001E7F  001C00            add [eax+eax],bl
00001E82  0000              add [eax],al
00001E84  2407              and al,0x7
00001E86  0000              add [eax],al
00001E88  44                inc esp
00001E89  F5                cmc
00001E8A  FF                db 0xff
00001E8B  FF13              call [ebx]
00001E8D  0000              add [eax],al
00001E8F  0000              add [eax],al
00001E91  41                inc ecx
00001E92  0E                push cs
00001E93  088502420D05      or [ebp+0x50d4202],al
00001E99  4F                dec edi
00001E9A  C50C04            lds ecx,[esp+eax]
00001E9D  0400              add al,0x0
00001E9F  001C00            add [eax+eax],bl
00001EA2  0000              add [eax],al
00001EA4  44                inc esp
00001EA5  07                pop es
00001EA6  0000              add [eax],al
00001EA8  37                aaa
00001EA9  F5                cmc
00001EAA  FF                db 0xff
00001EAB  FF0B              dec dword [ebx]
00001EAD  0000              add [eax],al
00001EAF  0000              add [eax],al
00001EB1  41                inc ecx
00001EB2  0E                push cs
00001EB3  088502420D05      or [ebp+0x50d4202],al
00001EB9  47                inc edi
00001EBA  C50C04            lds ecx,[esp+eax]
00001EBD  0400              add al,0x0
00001EBF  001C00            add [eax+eax],bl
00001EC2  0000              add [eax],al
00001EC4  6407              fs pop es
00001EC6  0000              add [eax],al
00001EC8  22F5              and dh,ch
00001ECA  FF                db 0xff
00001ECB  FF0B              dec dword [ebx]
00001ECD  0000              add [eax],al
00001ECF  0000              add [eax],al
00001ED1  41                inc ecx
00001ED2  0E                push cs
00001ED3  088502420D05      or [ebp+0x50d4202],al
00001ED9  47                inc edi
00001EDA  C50C04            lds ecx,[esp+eax]
00001EDD  0400              add al,0x0
00001EDF  001C00            add [eax+eax],bl
00001EE2  0000              add [eax],al
00001EE4  8407              test [edi],al
00001EE6  0000              add [eax],al
00001EE8  0E                push cs
00001EE9  F5                cmc
00001EEA  FF                db 0xff
00001EEB  FF23              jmp [ebx]
00001EED  0000              add [eax],al
00001EEF  0000              add [eax],al
00001EF1  41                inc ecx
00001EF2  0E                push cs
00001EF3  088502420D05      or [ebp+0x50d4202],al
00001EF9  5F                pop edi
00001EFA  C50C04            lds ecx,[esp+eax]
00001EFD  0400              add al,0x0
00001EFF  001C00            add [eax+eax],bl
00001F02  0000              add [eax],al
00001F04  A4                movsb
00001F05  07                pop es
00001F06  0000              add [eax],al
00001F08  12F5              adc dh,ch
00001F0A  FF                db 0xff
00001F0B  FF26              jmp [esi]
00001F0D  0000              add [eax],al
00001F0F  0000              add [eax],al
00001F11  41                inc ecx
00001F12  0E                push cs
00001F13  088502420D05      or [ebp+0x50d4202],al
00001F19  62                db 0x62
00001F1A  C50C04            lds ecx,[esp+eax]
00001F1D  0400              add al,0x0
00001F1F  001C00            add [eax+eax],bl
00001F22  0000              add [eax],al
00001F24  C407              les eax,[edi]
00001F26  0000              add [eax],al
00001F28  18F5              sbb ch,dh
00001F2A  FF                db 0xff
00001F2B  FF0500000000      inc dword [dword 0x0]
00001F31  41                inc ecx
00001F32  0E                push cs
00001F33  088502420D05      or [ebp+0x50d4202],al
00001F39  41                inc ecx
00001F3A  C50C04            lds ecx,[esp+eax]
00001F3D  0400              add al,0x0
00001F3F  001C00            add [eax+eax],bl
00001F42  0000              add [eax],al
00001F44  E407              in al,0x7
00001F46  0000              add [eax],al
00001F48  FE                db 0xfe
00001F49  F4                hlt
00001F4A  FF                db 0xff
00001F4B  FF37              push dword [edi]
00001F4D  0000              add [eax],al
00001F4F  0000              add [eax],al
00001F51  41                inc ecx
00001F52  0E                push cs
00001F53  088502420D05      or [ebp+0x50d4202],al
00001F59  73C5              jnc 0x1f20
00001F5B  0C04              or al,0x4
00001F5D  0400              add al,0x0
00001F5F  001C00            add [eax+eax],bl
00001F62  0000              add [eax],al
00001F64  0408              add al,0x8
00001F66  0000              add [eax],al
00001F68  16                push ss
00001F69  F5                cmc
00001F6A  FF                db 0xff
00001F6B  FF0A              dec dword [edx]
00001F6D  0000              add [eax],al
00001F6F  0000              add [eax],al
00001F71  41                inc ecx
00001F72  0E                push cs
00001F73  088502420D05      or [ebp+0x50d4202],al
00001F79  46                inc esi
00001F7A  C50C04            lds ecx,[esp+eax]
00001F7D  0400              add al,0x0
00001F7F  001C00            add [eax+eax],bl
00001F82  0000              add [eax],al
00001F84  2408              and al,0x8
00001F86  0000              add [eax],al
00001F88  5E                pop esi
00001F89  EBFF              jmp short 0x1f8a
00001F8B  FF                db 0xff
00001F8C  3F                aas
00001F8D  0000              add [eax],al
00001F8F  0000              add [eax],al
00001F91  41                inc ecx
00001F92  0E                push cs
00001F93  088502420D05      or [ebp+0x50d4202],al
00001F99  7BC5              jpo 0x1f60
00001F9B  0C04              or al,0x4
00001F9D  0400              add al,0x0
00001F9F  001C00            add [eax+eax],bl
00001FA2  0000              add [eax],al
00001FA4  44                inc esp
00001FA5  0800              or [eax],al
00001FA7  007DEB            add [ebp-0x15],bh
00001FAA  FF                db 0xff
00001FAB  FF1C00            call far [eax+eax]
00001FAE  0000              add [eax],al
00001FB0  00410E            add [ecx+0xe],al
00001FB3  088502420D05      or [ebp+0x50d4202],al
00001FB9  58                pop eax
00001FBA  C50C04            lds ecx,[esp+eax]
00001FBD  0400              add al,0x0
00001FBF  0000              add [eax],al
00001FC1  0000              add [eax],al
00001FC3  00FF              add bh,bh
00001FC5  FF01              inc dword [ecx]
00001FC7  2111              and [ecx],edx
00001FC9  05BD02006C        add eax,0x6c0002bd
00001FCE  05AC0200E1        add eax,0xe10002ac
00001FD3  0105A80200FA      add [dword 0xfa0002a8],eax
00001FD9  0105AC02009F      add [dword 0x9f0002ac],eax
00001FDF  0205BD0200C0      add al,[dword 0xc00002bd]
00001FE5  02050000FFFF      add al,[dword 0xffff0000]
00001FEB  010B              add [ebx],ecx
00001FED  18AF01E00100      sbb [edi+0x1e001],ch
00001FF3  E301              jecxz 0x1ff6
00001FF5  050000FFFF        add eax,0xffff0000
00001FFA  0108              add [eax],ecx
00001FFC  1C05              sbb al,0x5
00001FFE  2E004005          add [cs:eax+0x5],al
00002002  0000              add [eax],al
00002004  FF                db 0xff
00002005  FF01              inc dword [ecx]
00002007  081A              or [edx],bl
00002009  0552005505        add eax,0x5550052
0000200E  0000              add [eax],al
00002010  FF                db 0xff
00002011  FF01              inc dword [ecx]
00002013  0F2A05B301005F    cvtpi2ps xmm0,qword [dword 0x5f0001b3]
0000201A  05B50100B8        add eax,0xb80001b5
0000201F  01050000FFFF      add [dword 0xffff0000],eax
00002025  010B              add [ebx],ecx
00002027  34C8              xor al,0xc8
00002029  01DF              add edi,ebx
0000202B  0200              add al,[eax]
0000202D  E202              loop 0x2031
0000202F  050000FFFF        add eax,0xffff0000
00002034  0109              add [ecx],ecx
00002036  2605C4010071      es add eax,0x710001c4
0000203C  5E                pop esi
0000203D  0000              add [eax],al
0000203F  00FF              add bh,bh
00002041  FF                db 0xff
00002042  FF                db 0xff
00002043  FF258B040800      jmp [dword 0x8048b]
00002049  0000              add [eax],al
0000204B  00FF              add bh,bh
0000204D  FF                db 0xff
0000204E  FF                db 0xff
0000204F  FF00              inc dword [eax]
00002051  0000              add [eax],al
00002053  0000              add [eax],al
00002055  0000              add [eax],al
00002057  0001              add [ecx],al
00002059  0000              add [eax],al
0000205B  0001              add [ecx],al
0000205D  0000              add [eax],al
0000205F  0001              add [ecx],al
00002061  0000              add [eax],al
00002063  005A01            add [edx+0x1],bl
00002066  0000              add [eax],al
00002068  0100              add [eax],eax
0000206A  0000              add [eax],al
0000206C  640100            add [fs:eax],eax
0000206F  0001              add [ecx],al
00002071  0000              add [eax],al
00002073  00810100000C      add [ecx+0xc000001],al
00002079  0000              add [eax],al
0000207B  00648604          add [esi+eax*4+0x4],ah
0000207F  080D00000028      or [dword 0x28000000],cl
00002085  95                xchg eax,ebp
00002086  0408              add al,0x8
00002088  0400              add al,0x0
0000208A  0000              add [eax],al
0000208C  6881040805        push dword 0x5080481
00002091  0000              add [eax],al
00002093  00448304          add [ebx+eax*4+0x4],al
00002097  0806              or [esi],al
00002099  0000              add [eax],al
0000209B  000482            add [edx+eax*4],al
0000209E  0408              add al,0x8
000020A0  0A00              or al,[eax]
000020A2  0000              add [eax],al
000020A4  F5                cmc
000020A5  0100              add [eax],eax
000020A7  000B              add [ebx],cl
000020A9  0000              add [eax],al
000020AB  0010              add [eax],dl
000020AD  0000              add [eax],al
000020AF  001500000000      add [dword 0x0],dl
000020B5  0000              add [eax],al
000020B7  0003              add [ebx],al
000020B9  0000              add [eax],al
000020BB  003CB1            add [ecx+esi*4],bh
000020BE  0408              add al,0x8
000020C0  0200              add al,[eax]
000020C2  0000              add [eax],al
000020C4  7000              jo 0x20c6
000020C6  0000              add [eax],al
000020C8  1400              adc al,0x0
000020CA  0000              add [eax],al
000020CC  1100              adc [eax],eax
000020CE  0000              add [eax],al
000020D0  17                pop ss
000020D1  0000              add [eax],al
000020D3  00F4              add ah,dh
000020D5  850408            test [eax+ecx],eax
000020D8  1100              adc [eax],eax
000020DA  0000              add [eax],al
000020DC  E485              in al,0x85
000020DE  0408              add al,0x8
000020E0  1200              adc al,[eax]
000020E2  0000              add [eax],al
000020E4  1000              adc [eax],al
000020E6  0000              add [eax],al
000020E8  1300              adc eax,[eax]
000020EA  0000              add [eax],al
000020EC  0800              or [eax],al
000020EE  0000              add [eax],al
000020F0  FE                db 0xfe
000020F1  FF                db 0xff
000020F2  FF6F64            jmp far [edi+0x64]
000020F5  850408            test [eax+ecx],eax
000020F8  FF                db 0xff
000020F9  FF                db 0xff
000020FA  FF6F03            jmp far [edi+0x3]
000020FD  0000              add [eax],al
000020FF  00F0              add al,dh
00002101  FF                db 0xff
00002102  FF6F3A            jmp far [edi+0x3a]
00002105  850408            test [eax+ecx],eax
00002108  0000              add [eax],al
0000210A  0000              add [eax],al
0000210C  0000              add [eax],al
0000210E  0000              add [eax],al
00002110  0000              add [eax],al
00002112  0000              add [eax],al
00002114  0000              add [eax],al
00002116  0000              add [eax],al
00002118  0000              add [eax],al
0000211A  0000              add [eax],al
0000211C  0000              add [eax],al
0000211E  0000              add [eax],al
00002120  0000              add [eax],al
00002122  0000              add [eax],al
00002124  0000              add [eax],al
00002126  0000              add [eax],al
00002128  0000              add [eax],al
0000212A  0000              add [eax],al
0000212C  0000              add [eax],al
0000212E  0000              add [eax],al
00002130  0000              add [eax],al
00002132  0000              add [eax],al
00002134  0000              add [eax],al
00002136  0000              add [eax],al
00002138  0000              add [eax],al
0000213A  0000              add [eax],al
0000213C  58                pop eax
0000213D  B004              mov al,0x4
0000213F  0800              or [eax],al
00002141  0000              add [eax],al
00002143  0000              add [eax],al
00002145  0000              add [eax],al
00002147  00B6860408C6      add [esi-0x39f7fb7a],dh
0000214D  860408            xchg al,[eax+ecx]
00002150  D6                salc
00002151  860408            xchg al,[eax+ecx]
00002154  E686              out 0x86,al
00002156  0408              add al,0x8
00002158  F6860408068704    test byte [esi-0x78f9f7fc],0x4
0000215F  0816              or [esi],dl
00002161  870408            xchg eax,[eax+ecx]
00002164  26870408          xchg eax,[es:eax+ecx]
00002168  36870408          xchg eax,[ss:eax+ecx]
0000216C  46                inc esi
0000216D  870408            xchg eax,[eax+ecx]
00002170  56                push esi
00002171  870408            xchg eax,[eax+ecx]
00002174  66870408          xchg ax,[eax+ecx]
00002178  7687              jna 0x2101
0000217A  0408              add al,0x8
0000217C  868704080000      xchg al,[edi+0x804]
00002182  0000              add [eax],al
00002184  0000              add [eax],al
00002186  0000              add [eax],al
00002188  47                inc edi
00002189  43                inc ebx
0000218A  43                inc ebx
0000218B  3A20              cmp ah,[eax]
0000218D  285562            sub [ebp+0x62],dl
00002190  756E              jnz 0x2200
00002192  7475              jz 0x2209
00002194  20342E            and [esi+ebp],dh
00002197  342E              xor al,0x2e
00002199  332D34756275      xor ebp,[dword 0x75627534]
0000219F  6E                outsb
000021A0  7475              jz 0x2217
000021A2  352920342E        xor eax,0x2e342029
000021A7  342E              xor al,0x2e
000021A9  3300              xor eax,[eax]
000021AB  47                inc edi
000021AC  43                inc ebx
000021AD  43                inc ebx
000021AE  3A20              cmp ah,[eax]
000021B0  28474E            sub [edi+0x4e],al
000021B3  55                push ebp
000021B4  2920              sub [eax],esp
000021B6  342E              xor al,0x2e
000021B8  382E              cmp [esi],ch
000021BA  3100              xor [eax],eax
000021BC  0000              add [eax],al
000021BE  0000              add [eax],al
000021C0  1C00              sbb al,0x0
000021C2  0000              add [eax],al
000021C4  0200              add al,[eax]
000021C6  0000              add [eax],al
000021C8  0000              add [eax],al
000021CA  0400              add al,0x0
000021CC  0000              add [eax],al
000021CE  0000              add [eax],al
000021D0  90                nop
000021D1  870408            xchg eax,[eax+ecx]
000021D4  2200              and al,[eax]
000021D6  0000              add [eax],al
000021D8  0000              add [eax],al
000021DA  0000              add [eax],al
000021DC  0000              add [eax],al
000021DE  0000              add [eax],al
000021E0  1C00              sbb al,0x0
000021E2  0000              add [eax],al
000021E4  0200              add al,[eax]
000021E6  0E                push cs
000021E7  0100              add [eax],eax
000021E9  000400            add [eax+eax],al
000021EC  0000              add [eax],al
000021EE  0000              add [eax],al
000021F0  90                nop
000021F1  94                xchg eax,esp
000021F2  0408              add al,0x8
000021F4  6A00              push byte +0x0
000021F6  0000              add [eax],al
000021F8  0000              add [eax],al
000021FA  0000              add [eax],al
000021FC  0000              add [eax],al
000021FE  0000              add [eax],al
00002200  2100              and [eax],eax
00002202  0000              add [eax],al
00002204  0200              add al,[eax]
00002206  810000008D00      add dword [eax],0x8d0000
0000220C  0000              add [eax],al
0000220E  7500              jnz 0x2210
00002210  0000              add [eax],al
00002212  5F                pop edi
00002213  49                dec ecx
00002214  4F                dec edi
00002215  5F                pop edi
00002216  7374              jnc 0x228c
00002218  64696E5F75736564  imul ebp,[fs:esi+0x5f],dword 0x64657375
00002220  0000              add [eax],al
00002222  0000              add [eax],al
00002224  0036              add [esi],dh
00002226  0000              add [eax],al
00002228  0002              add [edx],al
0000222A  000E              add [esi],cl
0000222C  0100              add [eax],eax
0000222E  0013              add [ebx],dl
00002230  0100              add [eax],eax
00002232  003E              add [esi],bh
00002234  0000              add [eax],al
00002236  005F5F            add [edi+0x5f],bl
00002239  6C                insb
0000223A  6962635F637375    imul esp,[edx+0x63],dword 0x7573635f
00002241  5F                pop edi
00002242  66696E690053      imul bp,[esi+0x69],word 0x5300
00002248  0000              add [eax],al
0000224A  005F5F            add [edi+0x5f],bl
0000224D  6C                insb
0000224E  6962635F637375    imul esp,[edx+0x63],dword 0x7573635f
00002255  5F                pop edi
00002256  696E6974000000    imul ebp,[esi+0x69],dword 0x74
0000225D  0000              add [eax],al
0000225F  7D00              jnl 0x2261
00002261  0000              add [eax],al
00002263  0200              add al,[eax]
00002265  0000              add [eax],al
00002267  0000              add [eax],al
00002269  0401              add al,0x1
0000226B  0000              add [eax],al
0000226D  0000              add [eax],al
0000226F  90                nop
00002270  870408            xchg eax,[eax+ecx]
00002273  B287              mov dl,0x87
00002275  0408              add al,0x8
00002277  2E2E2F            cs das
0000227A  7379              jnc 0x22f5
0000227C  7364              jnc 0x22e2
0000227E  657073            gs jo 0x22f4
00002281  2F                das
00002282  693338362F65      imul esi,[ebx],dword 0x652f3638
00002288  6C                insb
00002289  662F              o16 das
0000228B  7374              jnc 0x2301
0000228D  61                popa
0000228E  7274              jc 0x2304
00002290  2E53              cs push ebx
00002292  002F              add [edi],ch
00002294  686F6D652F        push dword 0x2f656d6f
00002299  7069              jo 0x2304
0000229B  657272            gs jc 0x2310
0000229E  652F              gs das
000022A0  42                inc edx
000022A1  7572              jnz 0x2315
000022A3  6561              gs popa
000022A5  752F              jnz 0x22d6
000022A7  6865616465        push dword 0x65646165
000022AC  7273              jc 0x2321
000022AE  2D676C6962        sub eax,0x62696c67
000022B3  632D666F722D      arpl [dword 0x2d726f66],bp
000022B9  6C                insb
000022BA  696E75782F676C    imul ebp,[esi+0x75],dword 0x6c672f78
000022C1  6962632D322E31    imul esp,[edx+0x63],dword 0x312e322d
000022C8  322E              xor ch,[esi]
000022CA  322F              xor ch,[edi]
000022CC  637375            arpl [ebx+0x75],si
000022CF  00474E            add [edi+0x4e],al
000022D2  55                push ebp
000022D3  204153            and [ecx+0x53],al
000022D6  2032              and [edx],dh
000022D8  2E3230            xor dh,[cs:eax]
000022DB  2E3100            xor [cs:eax],eax
000022DE  018089000000      add [eax+0x89],eax
000022E4  0200              add al,[eax]
000022E6  1400              adc al,0x0
000022E8  0000              add [eax],al
000022EA  0401              add al,0x1
000022EC  8E00              mov es,[eax]
000022EE  0000              add [eax],al
000022F0  01CD              add ebp,ecx
000022F2  0000              add [eax],al
000022F4  004300            add [ebx+0x0],al
000022F7  0000              add [eax],al
000022F9  B487              mov ah,0x87
000022FB  0408              add al,0x8
000022FD  B487              mov ah,0x87
000022FF  0408              add al,0x8
00002301  5B                pop ebx
00002302  0000              add [eax],al
00002304  0002              add [edx],al
00002306  0108              add [eax],ecx
00002308  800000            add byte [eax],0x0
0000230B  0002              add [edx],al
0000230D  0207              add al,[edi]
0000230F  0000              add [eax],al
00002311  0000              add [eax],al
00002313  020407            add al,[edi+eax]
00002316  360000            add [ss:eax],al
00002319  0002              add [edx],al
0000231B  0407              add al,0x7
0000231D  3100              xor [eax],eax
0000231F  0000              add [eax],al
00002321  0201              add al,[ecx]
00002323  06                push es
00002324  82                db 0x82
00002325  0000              add [eax],al
00002327  0002              add [edx],al
00002329  020513000000      add al,[dword 0x13]
0000232F  030405696E7400    add eax,[eax+0x746e69]
00002336  0208              add cl,[eax]
00002338  059A000000        add eax,0x9a
0000233D  0208              add cl,[eax]
0000233F  07                pop es
00002340  2C00              sub al,0x0
00002342  0000              add [eax],al
00002344  0204059F000000    add al,[eax+0x9f]
0000234B  0404              add al,0x4
0000234D  07                pop es
0000234E  0201              add al,[ecx]
00002350  06                push es
00002351  8900              mov [eax],eax
00002353  0000              add [eax],al
00002355  051D000000        add eax,0x1d
0000235A  0119              add [ecx],ebx
0000235C  8700              xchg eax,[eax]
0000235E  0000              add [eax],al
00002360  010503489504      add [dword 0x4954803],eax
00002366  0806              or [esi],al
00002368  4F                dec edi
00002369  0000              add [eax],al
0000236B  0000              add [eax],al
0000236D  0F0100            sgdt [eax]
00002370  0002              add [edx],al
00002372  005F00            add [edi+0x0],bl
00002375  0000              add [eax],al
00002377  0401              add al,0x1
00002379  8E00              mov es,[eax]
0000237B  0000              add [eax],al
0000237D  01C9              add ecx,ecx
0000237F  0000              add [eax],al
00002381  004300            add [ebx+0x0],al
00002384  0000              add [eax],al
00002386  90                nop
00002387  94                xchg eax,esp
00002388  0408              add al,0x8
0000238A  FA                cli
0000238B  94                xchg eax,esp
0000238C  0408              add al,0x8
0000238E  82                db 0x82
0000238F  0000              add [eax],al
00002391  0002              add [edx],al
00002393  0405              add al,0x5
00002395  696E740003AD00    imul ebp,[esi+0x74],dword 0xad0300
0000239C  0000              add [eax],al
0000239E  02D3              add dl,bl
000023A0  37                aaa
000023A1  0000              add [eax],al
000023A3  000404            add [esp+eax],al
000023A6  07                pop es
000023A7  360000            add [ss:eax],al
000023AA  000501FD0000      add [dword 0xfd01],al
000023B0  0001              add [ecx],al
000023B2  830190            add dword [ecx],byte -0x70
000023B5  94                xchg eax,esp
000023B6  0408              add al,0x8
000023B8  95                xchg eax,ebp
000023B9  94                xchg eax,esp
000023BA  0408              add al,0x8
000023BC  0000              add [eax],al
000023BE  0000              add [eax],al
000023C0  06                push es
000023C1  01B900000001      add [ecx+0x1000000],edi
000023C7  6901A0940408      imul eax,[ecx],dword 0x80494a0
000023CD  FA                cli
000023CE  94                xchg eax,esp
000023CF  0408              add al,0x8
000023D1  2C00              sub al,0x0
000023D3  0000              add [eax],al
000023D5  B900000007        mov ecx,0x7000000
000023DA  B400              mov ah,0x0
000023DC  0000              add [eax],al
000023DE  016925            add [ecx+0x25],ebp
000023E1  0000              add [eax],al
000023E3  0002              add [edx],al
000023E5  91                xchg eax,ecx
000023E6  0007              add [edi],al
000023E8  0D01000001        or eax,0x1000001
000023ED  69B9000000029104  imul edi,[ecx+0x2000000],dword 0xa8070491
         -07A8
000023F7  0000              add [eax],al
000023F9  0001              add [ecx],al
000023FB  69B9000000029108  imul edi,[ecx+0x2000000],dword 0xe7080891
         -08E7
00002405  0000              add [eax],al
00002407  0001              add [ecx],al
00002409  7ACC              jpe 0x23d7
0000240B  0000              add [eax],al
0000240D  0009              add [ecx],cl
0000240F  B9940408F2        mov ecx,0xf2080494
00002414  94                xchg eax,esp
00002415  0408              add al,0x8
00002417  0A6900            or ch,[ecx+0x0]
0000241A  017B2C            add [ebx+0x2c],edi
0000241D  0000              add [eax],al
0000241F  005800            add [eax+0x0],bl
00002422  0000              add [eax],al
00002424  0000              add [eax],al
00002426  0B04BF            or eax,[edi+edi*4]
00002429  0000              add [eax],al
0000242B  000B              add [ebx],cl
0000242D  04C5              add al,0xc5
0000242F  0000              add [eax],al
00002431  000401            add [ecx+eax],al
00002434  06                push es
00002435  8900              mov [eax],eax
00002437  0000              add [eax],al
00002439  0C2C              or al,0x2c
0000243B  0000              add [eax],al
0000243D  000DF2000000      add [dword 0xf2],cl
00002443  DC00              fadd qword [eax]
00002445  0000              add [eax],al
00002447  0E                push cs
00002448  000F              add [edi],cl
0000244A  01F2              add edx,esi
0000244C  0000              add [eax],al
0000244E  0010              add [eax],dl
00002450  2500000010        and eax,0x10000000
00002455  B900000010        mov ecx,0x10000000
0000245A  B900000000        mov ecx,0x0
0000245F  0B04DC            or eax,[esp+ebx*8]
00002462  0000              add [eax],al
00002464  0011              add [ecx],dl
00002466  D400              aam 0x0
00002468  0000              add [eax],al
0000246A  013B              add [ebx],edi
0000246C  D100              rol dword [eax],1
0000246E  0000              add [eax],al
00002470  0101              add [ecx],eax
00002472  11EC              adc esp,ebp
00002474  0000              add [eax],al
00002476  0001              add [ecx],al
00002478  3DD1000000        cmp eax,0xd1
0000247D  0101              add [ecx],eax
0000247F  0001              add [ecx],al
00002481  1100              adc [eax],eax
00002483  1006              adc [esi],al
00002485  1101              adc [ecx],eax
00002487  1201              adc al,[ecx]
00002489  0308              add ecx,[eax]
0000248B  1B08              sbb ecx,[eax]
0000248D  2508130500        and eax,0x51308
00002492  0000              add [eax],al
00002494  0111              add [ecx],edx
00002496  01250E130B03      add [dword 0x30b130e],esp
0000249C  0E                push cs
0000249D  1B0E              sbb ecx,[esi]
0000249F  1101              adc [ecx],eax
000024A1  1201              adc al,[ecx]
000024A3  1006              adc [esi],al
000024A5  0000              add [eax],al
000024A7  022400            add ah,[eax+eax]
000024AA  0B0B              or ecx,[ebx]
000024AC  3E0B03            or eax,[ds:ebx]
000024AF  0E                push cs
000024B0  0000              add [eax],al
000024B2  032400            add esp,[eax+eax]
000024B5  0B0B              or ecx,[ebx]
000024B7  3E0B03            or eax,[ds:ebx]
000024BA  0800              or [eax],al
000024BC  000424            add [esp],al
000024BF  000B              add [ebx],cl
000024C1  0B3E              or edi,[esi]
000024C3  0B00              or eax,[eax]
000024C5  00053400030E      add [dword 0xe030034],al
000024CB  3A0B              cmp cl,[ebx]
000024CD  3B0B              cmp ecx,[ebx]
000024CF  49                dec ecx
000024D0  133F              adc edi,[edi]
000024D2  0C02              or al,0x2
000024D4  0A00              or al,[eax]
000024D6  0006              add [esi],al
000024D8  26004913          add [es:ecx+0x13],cl
000024DC  0000              add [eax],al
000024DE  0001              add [ecx],al
000024E0  1101              adc [ecx],eax
000024E2  250E130B03        and eax,0x30b130e
000024E7  0E                push cs
000024E8  1B0E              sbb ecx,[esi]
000024EA  1101              adc [ecx],eax
000024EC  1201              adc al,[ecx]
000024EE  1006              adc [esi],al
000024F0  0000              add [eax],al
000024F2  022400            add ah,[eax+eax]
000024F5  0B0B              or ecx,[ebx]
000024F7  3E0B03            or eax,[ds:ebx]
000024FA  0800              or [eax],al
000024FC  0003              add [ebx],al
000024FE  16                push ss
000024FF  0003              add [ebx],al
00002501  0E                push cs
00002502  3A0B              cmp cl,[ebx]
00002504  3B0B              cmp ecx,[ebx]
00002506  49                dec ecx
00002507  1300              adc eax,[eax]
00002509  000424            add [esp],al
0000250C  000B              add [ebx],cl
0000250E  0B3E              or edi,[esi]
00002510  0B03              or eax,[ebx]
00002512  0E                push cs
00002513  0000              add [eax],al
00002515  052E003F0C        add eax,0xc3f002e
0000251A  030E              add ecx,[esi]
0000251C  3A0B              cmp cl,[ebx]
0000251E  3B0B              cmp ecx,[ebx]
00002520  27                daa
00002521  0C11              or al,0x11
00002523  0112              add [edx],edx
00002525  014006            add [eax+0x6],eax
00002528  0000              add [eax],al
0000252A  06                push es
0000252B  2E013F            add [cs:edi],edi
0000252E  0C03              or al,0x3
00002530  0E                push cs
00002531  3A0B              cmp cl,[ebx]
00002533  3B0B              cmp ecx,[ebx]
00002535  27                daa
00002536  0C11              or al,0x11
00002538  0112              add [edx],edx
0000253A  014006            add [eax+0x6],eax
0000253D  0113              add [ebx],edx
0000253F  0000              add [eax],al
00002541  07                pop es
00002542  0500030E3A        add eax,0x3a0e0300
00002547  0B3B              or edi,[ebx]
00002549  0B4913            or ecx,[ecx+0x13]
0000254C  020A              add cl,[edx]
0000254E  0000              add [eax],al
00002550  083400            or [eax+eax],dh
00002553  030E              add ecx,[esi]
00002555  3A0B              cmp cl,[ebx]
00002557  3B0B              cmp ecx,[ebx]
00002559  49                dec ecx
0000255A  1300              adc eax,[eax]
0000255C  0009              add [ecx],cl
0000255E  0B01              or eax,[ecx]
00002560  1101              adc [ecx],eax
00002562  1201              adc al,[ecx]
00002564  0000              add [eax],al
00002566  0A3400            or dh,[eax+eax]
00002569  0308              add ecx,[eax]
0000256B  3A0B              cmp cl,[ebx]
0000256D  3B0B              cmp ecx,[ebx]
0000256F  49                dec ecx
00002570  1302              adc eax,[edx]
00002572  06                push es
00002573  0000              add [eax],al
00002575  0B0F              or ecx,[edi]
00002577  000B              add [ebx],cl
00002579  0B4913            or ecx,[ecx+0x13]
0000257C  0000              add [eax],al
0000257E  0C26              or al,0x26
00002580  004913            add [ecx+0x13],cl
00002583  0000              add [eax],al
00002585  0D01014913        or eax,0x13490101
0000258A  0113              add [ebx],edx
0000258C  0000              add [eax],al
0000258E  0E                push cs
0000258F  2100              and [eax],eax
00002591  0000              add [eax],al
00002593  0F1501            unpckhps xmm0,oword [ecx]
00002596  27                daa
00002597  0C01              or al,0x1
00002599  1300              adc eax,[eax]
0000259B  0010              add [eax],dl
0000259D  0500491300        add eax,0x134900
000025A2  0011              add [ecx],dl
000025A4  3400              xor al,0x0
000025A6  030E              add ecx,[esi]
000025A8  3A0B              cmp cl,[ebx]
000025AA  3B0B              cmp ecx,[ebx]
000025AC  49                dec ecx
000025AD  133F              adc edi,[edi]
000025AF  0C3C              or al,0x3c
000025B1  0C00              or al,0x0
000025B3  0000              add [eax],al
000025B5  57                push edi
000025B6  0000              add [eax],al
000025B8  0002              add [edx],al
000025BA  0032              add [edx],dh
000025BC  0000              add [eax],al
000025BE  0001              add [ecx],al
000025C0  01FB              add ebx,edi
000025C2  0E                push cs
000025C3  0D00010101        or eax,0x1010100
000025C8  0100              add [eax],eax
000025CA  0000              add [eax],al
000025CC  0100              add [eax],eax
000025CE  0001              add [ecx],al
000025D0  2E2E2F            cs das
000025D3  7379              jnc 0x264e
000025D5  7364              jnc 0x263b
000025D7  657073            gs jo 0x264d
000025DA  2F                das
000025DB  693338362F65      imul esi,[ebx],dword 0x652f3638
000025E1  6C                insb
000025E2  660000            o16 add [eax],al
000025E5  7374              jnc 0x265b
000025E7  61                popa
000025E8  7274              jc 0x265e
000025EA  2E53              cs push ebx
000025EC  0001              add [ecx],al
000025EE  0000              add [eax],al
000025F0  0000              add [eax],al
000025F2  0502908704        add eax,0x4879002
000025F7  0803              or [ebx],al
000025F9  C00001            rol byte [eax],byte 0x1
000025FC  3321              xor esp,[ecx]
000025FE  343D              xor al,0x3d
00002600  2522031820        and eax,0x20180322
00002605  59                pop ecx
00002606  5A                pop edx
00002607  2122              and [edx],esp
00002609  5C                pop esp
0000260A  5B                pop ebx
0000260B  0201              add al,[ecx]
0000260D  0001              add [ecx],al
0000260F  0123              add [ebx],esp
00002611  0000              add [eax],al
00002613  0002              add [edx],al
00002615  001D00000001      add [dword 0x1000000],bl
0000261B  01FB              add ebx,edi
0000261D  0E                push cs
0000261E  0D00010101        or eax,0x1010100
00002623  0100              add [eax],eax
00002625  0000              add [eax],al
00002627  0100              add [eax],eax
00002629  0001              add [ecx],al
0000262B  00696E            add [ecx+0x6e],ch
0000262E  69742E6300000000  imul esi,[esi+ebp+0x63],dword 0x0
00002636  007B00            add [ebx+0x0],bh
00002639  0000              add [eax],al
0000263B  0200              add al,[eax]
0000263D  57                push edi
0000263E  0000              add [eax],al
00002640  0001              add [ecx],al
00002642  01FB              add ebx,edi
00002644  0E                push cs
00002645  0D00010101        or eax,0x1010100
0000264A  0100              add [eax],eax
0000264C  0000              add [eax],al
0000264E  0100              add [eax],eax
00002650  0001              add [ecx],al
00002652  2F                das
00002653  7573              jnz 0x26c8
00002655  722F              jc 0x2686
00002657  6C                insb
00002658  69622F6763632F    imul esp,[edx+0x2f],dword 0x2f636367
0000265F  693438362D6C69    imul esi,[eax+edi],dword 0x696c2d36
00002666  6E                outsb
00002667  7578              jnz 0x26e1
00002669  2D676E752F        sub eax,0x2f756e67
0000266E  342E              xor al,0x2e
00002670  342E              xor al,0x2e
00002672  332F              xor ebp,[edi]
00002674  696E636C756465    imul ebp,[esi+0x63],dword 0x6564756c
0000267B  0000              add [eax],al
0000267D  656C              gs insb
0000267F  662D696E          sub ax,0x6e69
00002683  69742E6300000000  imul esi,[esi+ebp+0x63],dword 0x0
0000268B  7374              jnc 0x2701
0000268D  646465662E680001  cs push word 0x100
00002695  0000              add [eax],al
00002697  0000              add [eax],al
00002699  0502909404        add eax,0x4949002
0000269E  0803              or [ebx],al
000026A0  830101            add dword [ecx],byte +0x1
000026A3  44                inc esp
000026A4  035EC8            add ebx,[esi-0x38]
000026A7  030E              add ecx,[esi]
000026A9  083C5B            or [ebx+ebx*2],bh
000026AC  086708            or [edi+0x8],ah
000026AF  9D                popf
000026B0  7602              jna 0x26b4
000026B2  0800              or [eax],al
000026B4  0101              add [ecx],eax
000026B6  0000              add [eax],al
000026B8  1000              adc [eax],al
000026BA  0000              add [eax],al
000026BC  FF                db 0xff
000026BD  FF                db 0xff
000026BE  FF                db 0xff
000026BF  FF01              inc dword [ecx]
000026C1  0001              add [ecx],al
000026C3  7C08              jl 0x26cd
000026C5  0C04              or al,0x4
000026C7  0488              add al,0x88
000026C9  0100              add [eax],eax
000026CB  001400            add [eax+eax],dl
000026CE  0000              add [eax],al
000026D0  0000              add [eax],al
000026D2  0000              add [eax],al
000026D4  90                nop
000026D5  94                xchg eax,esp
000026D6  0408              add al,0x8
000026D8  0500000041        add eax,0x41000000
000026DD  0E                push cs
000026DE  084285            or [edx-0x7b],al
000026E1  020D051C0000      add cl,[dword 0x1c05]
000026E7  0000              add [eax],al
000026E9  0000              add [eax],al
000026EB  00A09404085A      add [eax+0x5a080494],ah
000026F1  0000              add [eax],al
000026F3  00410E            add [ecx+0xe],al
000026F6  084285            or [edx-0x7b],al
000026F9  020D054E8305      add cl,[dword 0x5834e05]
000026FF  860487            xchg al,[edi+eax*4]
00002702  0300              add eax,[eax]
00002704  7368              jnc 0x276e
00002706  6F                outsd
00002707  7274              jc 0x277d
00002709  20756E            and [ebp+0x6e],dh
0000270C  7369              jnc 0x2777
0000270E  676E              a16 outsb
00002710  656420696E        and [fs:ecx+0x6e],ch
00002715  7400              jz 0x2717
00002717  7368              jnc 0x2781
00002719  6F                outsd
0000271A  7274              jc 0x2790
0000271C  20696E            and [ecx+0x6e],ch
0000271F  7400              jz 0x2721
00002721  5F                pop edi
00002722  49                dec ecx
00002723  4F                dec edi
00002724  5F                pop edi
00002725  7374              jnc 0x279b
00002727  64696E5F75736564  imul ebp,[fs:esi+0x5f],dword 0x64657375
0000272F  006C6F6E          add [edi+ebp*2+0x6e],ch
00002733  67206C6F          and [si+0x6f],ch
00002737  6E                outsb
00002738  6720756E          and [di+0x6e],dh
0000273C  7369              jnc 0x27a7
0000273E  676E              a16 outsb
00002740  656420696E        and [fs:ecx+0x6e],ch
00002745  7400              jz 0x2747
00002747  2F                das
00002748  686F6D652F        push dword 0x2f656d6f
0000274D  7069              jo 0x27b8
0000274F  657272            gs jc 0x27c4
00002752  652F              gs das
00002754  42                inc edx
00002755  7572              jnz 0x27c9
00002757  6561              gs popa
00002759  752F              jnz 0x278a
0000275B  6865616465        push dword 0x65646165
00002760  7273              jc 0x27d5
00002762  2D676C6962        sub eax,0x62696c67
00002767  632D666F722D      arpl [dword 0x2d726f66],bp
0000276D  6C                insb
0000276E  696E75782F676C    imul ebp,[esi+0x75],dword 0x6c672f78
00002775  6962632D322E31    imul esp,[edx+0x63],dword 0x312e322d
0000277C  322E              xor ch,[esi]
0000277E  322F              xor ch,[edi]
00002780  637375            arpl [ebx+0x75],si
00002783  00756E            add [ebp+0x6e],dh
00002786  7369              jnc 0x27f1
00002788  676E              a16 outsb
0000278A  6564206368        and [fs:ebx+0x68],ah
0000278F  61                popa
00002790  7200              jc 0x2792
00002792  47                inc edi
00002793  4E                dec esi
00002794  55                push ebp
00002795  204320            and [ebx+0x20],al
00002798  342E              xor al,0x2e
0000279A  342E              xor al,0x2e
0000279C  3300              xor eax,[eax]
0000279E  6C                insb
0000279F  6F                outsd
000027A0  6E                outsb
000027A1  67206C6F          and [si+0x6f],ch
000027A5  6E                outsb
000027A6  6720696E          and [bx+di+0x6e],ch
000027AA  7400              jz 0x27ac
000027AC  656E              gs outsb
000027AE  7670              jna 0x2820
000027B0  007369            add [ebx+0x69],dh
000027B3  7A65              jpe 0x281a
000027B5  5F                pop edi
000027B6  7400              jz 0x27b8
000027B8  61                popa
000027B9  7267              jc 0x2822
000027BB  6300              arpl [eax],ax
000027BD  5F                pop edi
000027BE  5F                pop edi
000027BF  6C                insb
000027C0  6962635F637375    imul esp,[edx+0x63],dword 0x7573635f
000027C7  5F                pop edi
000027C8  696E697400656C    imul ebp,[esi+0x69],dword 0x6c650074
000027CF  662D696E          sub ax,0x6e69
000027D3  69742E63005F5F69  imul esi,[esi+ebp+0x63],dword 0x695f5f00
000027DB  6E                outsb
000027DC  69745F6172726179  imul esi,[edi+ebx*2+0x61],dword 0x79617272
000027E4  5F                pop edi
000027E5  7374              jnc 0x285b
000027E7  61                popa
000027E8  7274              jc 0x285e
000027EA  007369            add [ebx+0x69],dh
000027ED  7A65              jpe 0x2854
000027EF  005F5F            add [edi+0x5f],bl
000027F2  696E69745F6172    imul ebp,[esi+0x69],dword 0x72615f74
000027F9  7261              jc 0x285c
000027FB  795F              jns 0x285c
000027FD  656E              gs outsb
000027FF  64005F5F          add [fs:edi+0x5f],bl
00002803  6C                insb
00002804  6962635F637375    imul esp,[edx+0x63],dword 0x7573635f
0000280B  5F                pop edi
0000280C  66696E690061      imul bp,[esi+0x69],word 0x6100
00002812  7267              jc 0x287b
00002814  7600              jna 0x2816
00002816  0000              add [eax],al
00002818  0000              add [eax],al
0000281A  0100              add [eax],eax
0000281C  0000              add [eax],al
0000281E  0200              add al,[eax]
00002820  7404              jz 0x2826
00002822  0100              add [eax],eax
00002824  0000              add [eax],al
00002826  0300              add eax,[eax]
00002828  0000              add [eax],al
0000282A  0200              add al,[eax]
0000282C  7408              jz 0x2836
0000282E  0300              add eax,[eax]
00002830  0000              add [eax],al
00002832  0500000002        add eax,0x2000000
00002837  007508            add [ebp+0x8],dh
0000283A  0000              add [eax],al
0000283C  0000              add [eax],al
0000283E  0000              add [eax],al
00002840  0000              add [eax],al
00002842  1000              adc [eax],al
00002844  0000              add [eax],al
00002846  1100              adc [eax],eax
00002848  0000              add [eax],al
0000284A  0200              add al,[eax]
0000284C  7404              jz 0x2852
0000284E  1100              adc [eax],eax
00002850  0000              add [eax],al
00002852  1300              adc eax,[eax]
00002854  0000              add [eax],al
00002856  0200              add al,[eax]
00002858  7408              jz 0x2862
0000285A  1300              adc eax,[eax]
0000285C  0000              add [eax],al
0000285E  6A00              push byte +0x0
00002860  0000              add [eax],al
00002862  0200              add al,[eax]
00002864  7508              jnz 0x286e
00002866  0000              add [eax],al
00002868  0000              add [eax],al
0000286A  0000              add [eax],al
0000286C  0000              add [eax],al
0000286E  40                inc eax
0000286F  0000              add [eax],al
00002871  006700            add [edi+0x0],ah
00002874  0000              add [eax],al
00002876  0100              add [eax],eax
00002878  56                push esi
00002879  0000              add [eax],al
0000287B  0000              add [eax],al
0000287D  0000              add [eax],al
0000287F  0000              add [eax],al
00002881  002E              add [esi],ch
00002883  7379              jnc 0x28fe
00002885  6D                insd
00002886  7461              jz 0x28e9
00002888  6200              bound eax,[eax]
0000288A  2E7374            cs jnc 0x2901
0000288D  7274              jc 0x2903
0000288F  61                popa
00002890  6200              bound eax,[eax]
00002892  2E7368            cs jnc 0x28fd
00002895  7374              jnc 0x290b
00002897  7274              jc 0x290d
00002899  61                popa
0000289A  6200              bound eax,[eax]
0000289C  2E696E7465727000  imul ebp,[cs:esi+0x74],dword 0x707265
000028A4  2E6E              cs outsb
000028A6  6F                outsd
000028A7  7465              jz 0x290e
000028A9  2E41              cs inc ecx
000028AB  42                inc edx
000028AC  49                dec ecx
000028AD  2D74616700        sub eax,0x676174
000028B2  2E6861736800      cs push dword 0x687361
000028B8  2E64796E          fs jns 0x292a
000028BC  7379              jnc 0x2937
000028BE  6D                insd
000028BF  002E              add [esi],ch
000028C1  64796E            fs jns 0x2932
000028C4  7374              jnc 0x293a
000028C6  7200              jc 0x28c8
000028C8  2E676E            cs a16 outsb
000028CB  752E              jnz 0x28fb
000028CD  7665              jna 0x2934
000028CF  7273              jc 0x2944
000028D1  696F6E002E676E    imul ebp,[edi+0x6e],dword 0x6e672e00
000028D8  752E              jnz 0x2908
000028DA  7665              jna 0x2941
000028DC  7273              jc 0x2951
000028DE  696F6E5F72002E    imul ebp,[edi+0x6e],dword 0x2e00725f
000028E5  7265              jc 0x294c
000028E7  6C                insb
000028E8  2E64796E          fs jns 0x295a
000028EC  002E              add [esi],ch
000028EE  7265              jc 0x2955
000028F0  6C                insb
000028F1  2E706C            cs jo 0x2960
000028F4  7400              jz 0x28f6
000028F6  2E696E6974002E74  imul ebp,[cs:esi+0x69],dword 0x742e0074
000028FE  657874            gs js 0x2975
00002901  002E              add [esi],ch
00002903  66696E69002E      imul bp,[esi+0x69],word 0x2e00
00002909  726F              jc 0x297a
0000290B  6461              fs popa
0000290D  7461              jz 0x2970
0000290F  002E              add [esi],ch
00002911  65685F667261      gs push dword 0x6172665f
00002917  6D                insd
00002918  655F              gs pop edi
0000291A  686472002E        push dword 0x2e007264
0000291F  65685F667261      gs push dword 0x6172665f
00002925  6D                insd
00002926  65002E            add [gs:esi],ch
00002929  6763635F          arpl [bp+di+0x5f],sp
0000292D  657863            gs js 0x2993
00002930  657074            gs jo 0x29a7
00002933  5F                pop edi
00002934  7461              jz 0x2997
00002936  626C6500          bound ebp,[ebp+0x0]
0000293A  2E63746F72        arpl [cs:edi+ebp*2+0x72],si
0000293F  7300              jnc 0x2941
00002941  2E64746F          fs jz 0x29b4
00002945  7273              jc 0x29ba
00002947  002E              add [esi],ch
00002949  6A63              push byte +0x63
0000294B  7200              jc 0x294d
0000294D  2E64796E          fs jns 0x29bf
00002951  61                popa
00002952  6D                insd
00002953  6963002E676F74    imul esp,[ebx+0x0],dword 0x746f672e
0000295A  002E              add [esi],ch
0000295C  676F              a16 outsd
0000295E  742E              jz 0x298e
00002960  706C              jo 0x29ce
00002962  7400              jz 0x2964
00002964  2E6461            fs popa
00002967  7461              jz 0x29ca
00002969  002E              add [esi],ch
0000296B  627373            bound esi,[ebx+0x73]
0000296E  002E              add [esi],ch
00002970  636F6D            arpl [edi+0x6d],bp
00002973  6D                insd
00002974  656E              gs outsb
00002976  7400              jz 0x2978
00002978  2E6465627567      bound esi,[gs:ebp+0x67]
0000297E  5F                pop edi
0000297F  61                popa
00002980  7261              jc 0x29e3
00002982  6E                outsb
00002983  67657300          gs jnc 0x2987
00002987  2E6465627567      bound esi,[gs:ebp+0x67]
0000298D  5F                pop edi
0000298E  7075              jo 0x2a05
00002990  626E61            bound ebp,[esi+0x61]
00002993  6D                insd
00002994  657300            gs jnc 0x2997
00002997  2E6465627567      bound esi,[gs:ebp+0x67]
0000299D  5F                pop edi
0000299E  696E666F002E64    imul ebp,[esi+0x66],dword 0x642e006f
000029A5  65627567          bound esi,[gs:ebp+0x67]
000029A9  5F                pop edi
000029AA  61                popa
000029AB  626272            bound esp,[edx+0x72]
000029AE  657600            gs jna 0x29b1
000029B1  2E6465627567      bound esi,[gs:ebp+0x67]
000029B7  5F                pop edi
000029B8  6C                insb
000029B9  696E65002E6465    imul ebp,[esi+0x65],dword 0x65642e00
000029C0  627567            bound esi,[ebp+0x67]
000029C3  5F                pop edi
000029C4  667261            o16 jc 0x2a28
000029C7  6D                insd
000029C8  65002E            add [gs:esi],ch
000029CB  6465627567        bound esi,[gs:ebp+0x67]
000029D0  5F                pop edi
000029D1  7374              jnc 0x2a47
000029D3  7200              jc 0x29d5
000029D5  2E6465627567      bound esi,[gs:ebp+0x67]
000029DB  5F                pop edi
000029DC  6C                insb
000029DD  6F                outsd
000029DE  6300              arpl [eax],ax
000029E0  0000              add [eax],al
000029E2  0000              add [eax],al
000029E4  0000              add [eax],al
000029E6  0000              add [eax],al
000029E8  0000              add [eax],al
000029EA  0000              add [eax],al
000029EC  0000              add [eax],al
000029EE  0000              add [eax],al
000029F0  0000              add [eax],al
000029F2  0000              add [eax],al
000029F4  0000              add [eax],al
000029F6  0000              add [eax],al
000029F8  0000              add [eax],al
000029FA  0000              add [eax],al
000029FC  0000              add [eax],al
000029FE  0000              add [eax],al
00002A00  0000              add [eax],al
00002A02  0000              add [eax],al
00002A04  0000              add [eax],al
00002A06  0000              add [eax],al
00002A08  1B00              sbb eax,[eax]
00002A0A  0000              add [eax],al
00002A0C  0100              add [eax],eax
00002A0E  0000              add [eax],al
00002A10  0200              add al,[eax]
00002A12  0000              add [eax],al
00002A14  3481              xor al,0x81
00002A16  0408              add al,0x8
00002A18  3401              xor al,0x1
00002A1A  0000              add [eax],al
00002A1C  1300              adc eax,[eax]
00002A1E  0000              add [eax],al
00002A20  0000              add [eax],al
00002A22  0000              add [eax],al
00002A24  0000              add [eax],al
00002A26  0000              add [eax],al
00002A28  0100              add [eax],eax
00002A2A  0000              add [eax],al
00002A2C  0000              add [eax],al
00002A2E  0000              add [eax],al
00002A30  2300              and eax,[eax]
00002A32  0000              add [eax],al
00002A34  07                pop es
00002A35  0000              add [eax],al
00002A37  0002              add [edx],al
00002A39  0000              add [eax],al
00002A3B  004881            add [eax-0x7f],cl
00002A3E  0408              add al,0x8
00002A40  48                dec eax
00002A41  0100              add [eax],eax
00002A43  0020              add [eax],ah
00002A45  0000              add [eax],al
00002A47  0000              add [eax],al
00002A49  0000              add [eax],al
00002A4B  0000              add [eax],al
00002A4D  0000              add [eax],al
00002A4F  000400            add [eax+eax],al
00002A52  0000              add [eax],al
00002A54  0000              add [eax],al
00002A56  0000              add [eax],al
00002A58  3100              xor [eax],eax
00002A5A  0000              add [eax],al
00002A5C  0500000002        add eax,0x2000000
00002A61  0000              add [eax],al
00002A63  006881            add [eax-0x7f],ch
00002A66  0408              add al,0x8
00002A68  680100009C        push dword 0x9c000001
00002A6D  0000              add [eax],al
00002A6F  000400            add [eax+eax],al
00002A72  0000              add [eax],al
00002A74  0000              add [eax],al
00002A76  0000              add [eax],al
00002A78  0400              add al,0x0
00002A7A  0000              add [eax],al
00002A7C  0400              add al,0x0
00002A7E  0000              add [eax],al
00002A80  37                aaa
00002A81  0000              add [eax],al
00002A83  000B              add [ebx],cl
00002A85  0000              add [eax],al
00002A87  0002              add [edx],al
00002A89  0000              add [eax],al
00002A8B  000482            add [edx+eax*4],al
00002A8E  0408              add al,0x8
00002A90  0402              add al,0x2
00002A92  0000              add [eax],al
00002A94  40                inc eax
00002A95  0100              add [eax],eax
00002A97  000500000001      add [dword 0x1000000],al
00002A9D  0000              add [eax],al
00002A9F  000400            add [eax+eax],al
00002AA2  0000              add [eax],al
00002AA4  1000              adc [eax],al
00002AA6  0000              add [eax],al
00002AA8  3F                aas
00002AA9  0000              add [eax],al
00002AAB  0003              add [ebx],al
00002AAD  0000              add [eax],al
00002AAF  0002              add [edx],al
00002AB1  0000              add [eax],al
00002AB3  00448304          add [ebx+eax*4+0x4],al
00002AB7  08440300          or [ebx+eax+0x0],al
00002ABB  00F5              add ch,dh
00002ABD  0100              add [eax],eax
00002ABF  0000              add [eax],al
00002AC1  0000              add [eax],al
00002AC3  0000              add [eax],al
00002AC5  0000              add [eax],al
00002AC7  0001              add [ecx],al
00002AC9  0000              add [eax],al
00002ACB  0000              add [eax],al
00002ACD  0000              add [eax],al
00002ACF  004700            add [edi+0x0],al
00002AD2  0000              add [eax],al
00002AD4  FF                db 0xff
00002AD5  FF                db 0xff
00002AD6  FF6F02            jmp far [edi+0x2]
00002AD9  0000              add [eax],al
00002ADB  003A              add [edx],bh
00002ADD  850408            test [eax+ecx],eax
00002AE0  3A0500002800      cmp al,[dword 0x280000]
00002AE6  0000              add [eax],al
00002AE8  0400              add al,0x0
00002AEA  0000              add [eax],al
00002AEC  0000              add [eax],al
00002AEE  0000              add [eax],al
00002AF0  0200              add al,[eax]
00002AF2  0000              add [eax],al
00002AF4  0200              add al,[eax]
00002AF6  0000              add [eax],al
00002AF8  54                push esp
00002AF9  0000              add [eax],al
00002AFB  00FE              add dh,bh
00002AFD  FF                db 0xff
00002AFE  FF6F02            jmp far [edi+0x2]
00002B01  0000              add [eax],al
00002B03  00648504          add [ebp+eax*4+0x4],ah
00002B07  08640500          or [ebp+eax+0x0],ah
00002B0B  008000000005      add [eax+0x5000000],al
00002B11  0000              add [eax],al
00002B13  0003              add [ebx],al
00002B15  0000              add [eax],al
00002B17  000400            add [eax+eax],al
00002B1A  0000              add [eax],al
00002B1C  0000              add [eax],al
00002B1E  0000              add [eax],al
00002B20  6300              arpl [eax],ax
00002B22  0000              add [eax],al
00002B24  0900              or [eax],eax
00002B26  0000              add [eax],al
00002B28  0200              add al,[eax]
00002B2A  0000              add [eax],al
00002B2C  E485              in al,0x85
00002B2E  0408              add al,0x8
00002B30  E405              in al,0x5
00002B32  0000              add [eax],al
00002B34  1000              adc [eax],al
00002B36  0000              add [eax],al
00002B38  0400              add al,0x0
00002B3A  0000              add [eax],al
00002B3C  0000              add [eax],al
00002B3E  0000              add [eax],al
00002B40  0400              add al,0x0
00002B42  0000              add [eax],al
00002B44  0800              or [eax],al
00002B46  0000              add [eax],al
00002B48  6C                insb
00002B49  0000              add [eax],al
00002B4B  0009              add [ecx],cl
00002B4D  0000              add [eax],al
00002B4F  0002              add [edx],al
00002B51  0000              add [eax],al
00002B53  00F4              add ah,dh
00002B55  850408            test [eax+ecx],eax
00002B58  F4                hlt
00002B59  0500007000        add eax,0x700000
00002B5E  0000              add [eax],al
00002B60  0400              add al,0x0
00002B62  0000              add [eax],al
00002B64  0B00              or eax,[eax]
00002B66  0000              add [eax],al
00002B68  0400              add al,0x0
00002B6A  0000              add [eax],al
00002B6C  0800              or [eax],al
00002B6E  0000              add [eax],al
00002B70  7500              jnz 0x2b72
00002B72  0000              add [eax],al
00002B74  0100              add [eax],eax
00002B76  0000              add [eax],al
00002B78  06                push es
00002B79  0000              add [eax],al
00002B7B  00648604          add [esi+eax*4+0x4],ah
00002B7F  08640600          or [esi+eax+0x0],ah
00002B83  0030              add [eax],dh
00002B85  0000              add [eax],al
00002B87  0000              add [eax],al
00002B89  0000              add [eax],al
00002B8B  0000              add [eax],al
00002B8D  0000              add [eax],al
00002B8F  000400            add [eax+eax],al
00002B92  0000              add [eax],al
00002B94  0000              add [eax],al
00002B96  0000              add [eax],al
00002B98  7000              jo 0x2b9a
00002B9A  0000              add [eax],al
00002B9C  0100              add [eax],eax
00002B9E  0000              add [eax],al
00002BA0  06                push es
00002BA1  0000              add [eax],al
00002BA3  00A0860408A0      add [eax-0x5ff7fb7a],ah
00002BA9  06                push es
00002BAA  0000              add [eax],al
00002BAC  F00000            lock add [eax],al
00002BAF  0000              add [eax],al
00002BB1  0000              add [eax],al
00002BB3  0000              add [eax],al
00002BB5  0000              add [eax],al
00002BB7  0010              add [eax],dl
00002BB9  0000              add [eax],al
00002BBB  000400            add [eax+eax],al
00002BBE  0000              add [eax],al
00002BC0  7B00              jpo 0x2bc2
00002BC2  0000              add [eax],al
00002BC4  0100              add [eax],eax
00002BC6  0000              add [eax],al
00002BC8  06                push es
00002BC9  0000              add [eax],al
00002BCB  009087040890      add [eax-0x6ff7fb79],dl
00002BD1  07                pop es
00002BD2  0000              add [eax],al
00002BD4  98                cwde
00002BD5  0D00000000        or eax,0x0
00002BDA  0000              add [eax],al
00002BDC  0000              add [eax],al
00002BDE  0000              add [eax],al
00002BE0  1000              adc [eax],al
00002BE2  0000              add [eax],al
00002BE4  0000              add [eax],al
00002BE6  0000              add [eax],al
00002BE8  810000000100      add dword [eax],0x10000
00002BEE  0000              add [eax],al
00002BF0  06                push es
00002BF1  0000              add [eax],al
00002BF3  0028              add [eax],ch
00002BF5  95                xchg eax,ebp
00002BF6  0408              add al,0x8
00002BF8  281500001C00      sub [dword 0x1c0000],dl
00002BFE  0000              add [eax],al
00002C00  0000              add [eax],al
00002C02  0000              add [eax],al
00002C04  0000              add [eax],al
00002C06  0000              add [eax],al
00002C08  0400              add al,0x0
00002C0A  0000              add [eax],al
00002C0C  0000              add [eax],al
00002C0E  0000              add [eax],al
00002C10  8700              xchg eax,[eax]
00002C12  0000              add [eax],al
00002C14  0100              add [eax],eax
00002C16  0000              add [eax],al
00002C18  0200              add al,[eax]
00002C1A  0000              add [eax],al
00002C1C  44                inc esp
00002C1D  95                xchg eax,ebp
00002C1E  0408              add al,0x8
00002C20  44                inc esp
00002C21  1500001600        adc eax,0x160000
00002C26  0000              add [eax],al
00002C28  0000              add [eax],al
00002C2A  0000              add [eax],al
00002C2C  0000              add [eax],al
00002C2E  0000              add [eax],al
00002C30  0400              add al,0x0
00002C32  0000              add [eax],al
00002C34  0000              add [eax],al
00002C36  0000              add [eax],al
00002C38  8F00              pop dword [eax]
00002C3A  0000              add [eax],al
00002C3C  0100              add [eax],eax
00002C3E  0000              add [eax],al
00002C40  0200              add al,[eax]
00002C42  0000              add [eax],al
00002C44  5C                pop esp
00002C45  95                xchg eax,ebp
00002C46  0408              add al,0x8
00002C48  5C                pop esp
00002C49  1500000402        adc eax,0x2040000
00002C4E  0000              add [eax],al
00002C50  0000              add [eax],al
00002C52  0000              add [eax],al
00002C54  0000              add [eax],al
00002C56  0000              add [eax],al
00002C58  0400              add al,0x0
00002C5A  0000              add [eax],al
00002C5C  0000              add [eax],al
00002C5E  0000              add [eax],al
00002C60  9D                popf
00002C61  0000              add [eax],al
00002C63  0001              add [ecx],al
00002C65  0000              add [eax],al
00002C67  0002              add [edx],al
00002C69  0000              add [eax],al
00002C6B  006097            add [eax-0x69],ah
00002C6E  0408              add al,0x8
00002C70  60                pusha
00002C71  17                pop ss
00002C72  0000              add [eax],al
00002C74  640800            or [fs:eax],al
00002C77  0000              add [eax],al
00002C79  0000              add [eax],al
00002C7B  0000              add [eax],al
00002C7D  0000              add [eax],al
00002C7F  000400            add [eax+eax],al
00002C82  0000              add [eax],al
00002C84  0000              add [eax],al
00002C86  0000              add [eax],al
00002C88  A7                cmpsd
00002C89  0000              add [eax],al
00002C8B  0001              add [ecx],al
00002C8D  0000              add [eax],al
00002C8F  0002              add [edx],al
00002C91  0000              add [eax],al
00002C93  00C4              add ah,al
00002C95  9F                lahf
00002C96  0408              add al,0x8
00002C98  C41F              les ebx,[edi]
00002C9A  0000              add [eax],al
00002C9C  7B00              jpo 0x2c9e
00002C9E  0000              add [eax],al
00002CA0  0000              add [eax],al
00002CA2  0000              add [eax],al
00002CA4  0000              add [eax],al
00002CA6  0000              add [eax],al
00002CA8  0100              add [eax],eax
00002CAA  0000              add [eax],al
00002CAC  0000              add [eax],al
00002CAE  0000              add [eax],al
00002CB0  B900000001        mov ecx,0x1000000
00002CB5  0000              add [eax],al
00002CB7  0003              add [ebx],al
00002CB9  0000              add [eax],al
00002CBB  0040B0            add [eax-0x50],al
00002CBE  0408              add al,0x8
00002CC0  40                inc eax
00002CC1  2000              and [eax],al
00002CC3  000C00            add [eax+eax],cl
00002CC6  0000              add [eax],al
00002CC8  0000              add [eax],al
00002CCA  0000              add [eax],al
00002CCC  0000              add [eax],al
00002CCE  0000              add [eax],al
00002CD0  0400              add al,0x0
00002CD2  0000              add [eax],al
00002CD4  0000              add [eax],al
00002CD6  0000              add [eax],al
00002CD8  C00000            rol byte [eax],byte 0x0
00002CDB  0001              add [ecx],al
00002CDD  0000              add [eax],al
00002CDF  0003              add [ebx],al
00002CE1  0000              add [eax],al
00002CE3  004CB004          add [eax+esi*4+0x4],cl
00002CE7  084C2000          or [eax+0x0],cl
00002CEB  0008              add [eax],cl
00002CED  0000              add [eax],al
00002CEF  0000              add [eax],al
00002CF1  0000              add [eax],al
00002CF3  0000              add [eax],al
00002CF5  0000              add [eax],al
00002CF7  000400            add [eax+eax],al
00002CFA  0000              add [eax],al
00002CFC  0000              add [eax],al
00002CFE  0000              add [eax],al
00002D00  C70000000100      mov dword [eax],0x10000
00002D06  0000              add [eax],al
00002D08  0300              add eax,[eax]
00002D0A  0000              add [eax],al
00002D0C  54                push esp
00002D0D  B004              mov al,0x4
00002D0F  08542000          or [eax+0x0],dl
00002D13  000400            add [eax+eax],al
00002D16  0000              add [eax],al
00002D18  0000              add [eax],al
00002D1A  0000              add [eax],al
00002D1C  0000              add [eax],al
00002D1E  0000              add [eax],al
00002D20  0400              add al,0x0
00002D22  0000              add [eax],al
00002D24  0000              add [eax],al
00002D26  0000              add [eax],al
00002D28  CC                int3
00002D29  0000              add [eax],al
00002D2B  0006              add [esi],al
00002D2D  0000              add [eax],al
00002D2F  0003              add [ebx],al
00002D31  0000              add [eax],al
00002D33  0058B0            add [eax-0x50],bl
00002D36  0408              add al,0x8
00002D38  58                pop eax
00002D39  2000              and [eax],al
00002D3B  00E0              add al,ah
00002D3D  0000              add [eax],al
00002D3F  000500000000      add [dword 0x0],al
00002D45  0000              add [eax],al
00002D47  000400            add [eax+eax],al
00002D4A  0000              add [eax],al
00002D4C  0800              or [eax],al
00002D4E  0000              add [eax],al
00002D50  D500              aad 0x0
00002D52  0000              add [eax],al
00002D54  0100              add [eax],eax
00002D56  0000              add [eax],al
00002D58  0300              add eax,[eax]
00002D5A  0000              add [eax],al
00002D5C  38B104083821      cmp [ecx+0x21380804],dh
00002D62  0000              add [eax],al
00002D64  0400              add al,0x0
00002D66  0000              add [eax],al
00002D68  0000              add [eax],al
00002D6A  0000              add [eax],al
00002D6C  0000              add [eax],al
00002D6E  0000              add [eax],al
00002D70  0400              add al,0x0
00002D72  0000              add [eax],al
00002D74  0400              add al,0x0
00002D76  0000              add [eax],al
00002D78  DA00              fiadd dword [eax]
00002D7A  0000              add [eax],al
00002D7C  0100              add [eax],eax
00002D7E  0000              add [eax],al
00002D80  0300              add eax,[eax]
00002D82  0000              add [eax],al
00002D84  3CB1              cmp al,0xb1
00002D86  0408              add al,0x8
00002D88  3C21              cmp al,0x21
00002D8A  0000              add [eax],al
00002D8C  44                inc esp
00002D8D  0000              add [eax],al
00002D8F  0000              add [eax],al
00002D91  0000              add [eax],al
00002D93  0000              add [eax],al
00002D95  0000              add [eax],al
00002D97  000400            add [eax+eax],al
00002D9A  0000              add [eax],al
00002D9C  0400              add al,0x0
00002D9E  0000              add [eax],al
00002DA0  E300              jecxz 0x2da2
00002DA2  0000              add [eax],al
00002DA4  0100              add [eax],eax
00002DA6  0000              add [eax],al
00002DA8  0300              add eax,[eax]
00002DAA  0000              add [eax],al
00002DAC  80B10408802100    xor byte [ecx+0x21800804],0x0
00002DB3  0008              add [eax],cl
00002DB5  0000              add [eax],al
00002DB7  0000              add [eax],al
00002DB9  0000              add [eax],al
00002DBB  0000              add [eax],al
00002DBD  0000              add [eax],al
00002DBF  000400            add [eax+eax],al
00002DC2  0000              add [eax],al
00002DC4  0000              add [eax],al
00002DC6  0000              add [eax],al
00002DC8  E900000008        jmp 0x8002dcd
00002DCD  0000              add [eax],al
00002DCF  0003              add [ebx],al
00002DD1  0000              add [eax],al
00002DD3  00A0B1040888      add [eax-0x77f7fb4f],ah
00002DD9  2100              and [eax],eax
00002DDB  009C0000000000    add [eax+eax+0x0],bl
00002DE2  0000              add [eax],al
00002DE4  0000              add [eax],al
00002DE6  0000              add [eax],al
00002DE8  2000              and [eax],al
00002DEA  0000              add [eax],al
00002DEC  0000              add [eax],al
00002DEE  0000              add [eax],al
00002DF0  EE                out dx,al
00002DF1  0000              add [eax],al
00002DF3  0001              add [ecx],al
00002DF5  0000              add [eax],al
00002DF7  0030              add [eax],dh
00002DF9  0000              add [eax],al
00002DFB  0000              add [eax],al
00002DFD  0000              add [eax],al
00002DFF  008821000034      add [eax+0x34000021],cl
00002E05  0000              add [eax],al
00002E07  0000              add [eax],al
00002E09  0000              add [eax],al
00002E0B  0000              add [eax],al
00002E0D  0000              add [eax],al
00002E0F  0001              add [ecx],al
00002E11  0000              add [eax],al
00002E13  0001              add [ecx],al
00002E15  0000              add [eax],al
00002E17  00F7              add bh,dh
00002E19  0000              add [eax],al
00002E1B  0001              add [ecx],al
00002E1D  0000              add [eax],al
00002E1F  0000              add [eax],al
00002E21  0000              add [eax],al
00002E23  0000              add [eax],al
00002E25  0000              add [eax],al
00002E27  00C0              add al,al
00002E29  2100              and [eax],eax
00002E2B  004000            add [eax+0x0],al
00002E2E  0000              add [eax],al
00002E30  0000              add [eax],al
00002E32  0000              add [eax],al
00002E34  0000              add [eax],al
00002E36  0000              add [eax],al
00002E38  0800              or [eax],al
00002E3A  0000              add [eax],al
00002E3C  0000              add [eax],al
00002E3E  0000              add [eax],al
00002E40  06                push es
00002E41  0100              add [eax],eax
00002E43  0001              add [ecx],al
00002E45  0000              add [eax],al
00002E47  0000              add [eax],al
00002E49  0000              add [eax],al
00002E4B  0000              add [eax],al
00002E4D  0000              add [eax],al
00002E4F  0000              add [eax],al
00002E51  2200              and al,[eax]
00002E53  005F00            add [edi+0x0],bl
00002E56  0000              add [eax],al
00002E58  0000              add [eax],al
00002E5A  0000              add [eax],al
00002E5C  0000              add [eax],al
00002E5E  0000              add [eax],al
00002E60  0100              add [eax],eax
00002E62  0000              add [eax],al
00002E64  0000              add [eax],al
00002E66  0000              add [eax],al
00002E68  16                push ss
00002E69  0100              add [eax],eax
00002E6B  0001              add [ecx],al
00002E6D  0000              add [eax],al
00002E6F  0000              add [eax],al
00002E71  0000              add [eax],al
00002E73  0000              add [eax],al
00002E75  0000              add [eax],al
00002E77  005F22            add [edi+0x22],bl
00002E7A  0000              add [eax],al
00002E7C  2102              and [edx],eax
00002E7E  0000              add [eax],al
00002E80  0000              add [eax],al
00002E82  0000              add [eax],al
00002E84  0000              add [eax],al
00002E86  0000              add [eax],al
00002E88  0100              add [eax],eax
00002E8A  0000              add [eax],al
00002E8C  0000              add [eax],al
00002E8E  0000              add [eax],al
00002E90  2201              and al,[ecx]
00002E92  0000              add [eax],al
00002E94  0100              add [eax],eax
00002E96  0000              add [eax],al
00002E98  0000              add [eax],al
00002E9A  0000              add [eax],al
00002E9C  0000              add [eax],al
00002E9E  0000              add [eax],al
00002EA0  80240000          and byte [eax+eax],0x0
00002EA4  3501000000        xor eax,0x1
00002EA9  0000              add [eax],al
00002EAB  0000              add [eax],al
00002EAD  0000              add [eax],al
00002EAF  0001              add [ecx],al
00002EB1  0000              add [eax],al
00002EB3  0000              add [eax],al
00002EB5  0000              add [eax],al
00002EB7  0030              add [eax],dh
00002EB9  0100              add [eax],eax
00002EBB  0001              add [ecx],al
00002EBD  0000              add [eax],al
00002EBF  0000              add [eax],al
00002EC1  0000              add [eax],al
00002EC3  0000              add [eax],al
00002EC5  0000              add [eax],al
00002EC7  00B525000001      add [ebp+0x1000025],dh
00002ECD  0100              add [eax],eax
00002ECF  0000              add [eax],al
00002ED1  0000              add [eax],al
00002ED3  0000              add [eax],al
00002ED5  0000              add [eax],al
00002ED7  0001              add [ecx],al
00002ED9  0000              add [eax],al
00002EDB  0000              add [eax],al
00002EDD  0000              add [eax],al
00002EDF  003C01            add [ecx+eax],bh
00002EE2  0000              add [eax],al
00002EE4  0100              add [eax],eax
00002EE6  0000              add [eax],al
00002EE8  0000              add [eax],al
00002EEA  0000              add [eax],al
00002EEC  0000              add [eax],al
00002EEE  0000              add [eax],al
00002EF0  B82600004C        mov eax,0x4c000026
00002EF5  0000              add [eax],al
00002EF7  0000              add [eax],al
00002EF9  0000              add [eax],al
00002EFB  0000              add [eax],al
00002EFD  0000              add [eax],al
00002EFF  000400            add [eax+eax],al
00002F02  0000              add [eax],al
00002F04  0000              add [eax],al
00002F06  0000              add [eax],al
00002F08  49                dec ecx
00002F09  0100              add [eax],eax
00002F0B  0001              add [ecx],al
00002F0D  0000              add [eax],al
00002F0F  0030              add [eax],dh
00002F11  0000              add [eax],al
00002F13  0000              add [eax],al
00002F15  0000              add [eax],al
00002F17  000427            add [edi],al
00002F1A  0000              add [eax],al
00002F1C  1201              adc al,[ecx]
00002F1E  0000              add [eax],al
00002F20  0000              add [eax],al
00002F22  0000              add [eax],al
00002F24  0000              add [eax],al
00002F26  0000              add [eax],al
00002F28  0100              add [eax],eax
00002F2A  0000              add [eax],al
00002F2C  0100              add [eax],eax
00002F2E  0000              add [eax],al
00002F30  54                push esp
00002F31  0100              add [eax],eax
00002F33  0001              add [ecx],al
00002F35  0000              add [eax],al
00002F37  0000              add [eax],al
00002F39  0000              add [eax],al
00002F3B  0000              add [eax],al
00002F3D  0000              add [eax],al
00002F3F  0016              add [esi],dl
00002F41  2800              sub [eax],al
00002F43  006B00            add [ebx+0x0],ch
00002F46  0000              add [eax],al
00002F48  0000              add [eax],al
00002F4A  0000              add [eax],al
00002F4C  0000              add [eax],al
00002F4E  0000              add [eax],al
00002F50  0100              add [eax],eax
00002F52  0000              add [eax],al
00002F54  0000              add [eax],al
00002F56  0000              add [eax],al
00002F58  1100              adc [eax],eax
00002F5A  0000              add [eax],al
00002F5C  0300              add eax,[eax]
00002F5E  0000              add [eax],al
00002F60  0000              add [eax],al
00002F62  0000              add [eax],al
00002F64  0000              add [eax],al
00002F66  0000              add [eax],al
00002F68  812800005F01      sub dword [eax],0x15f0000
00002F6E  0000              add [eax],al
00002F70  0000              add [eax],al
00002F72  0000              add [eax],al
00002F74  0000              add [eax],al
00002F76  0000              add [eax],al
00002F78  0100              add [eax],eax
00002F7A  0000              add [eax],al
00002F7C  0000              add [eax],al
00002F7E  0000              add [eax],al
00002F80  0100              add [eax],eax
00002F82  0000              add [eax],al
00002F84  0200              add al,[eax]
00002F86  0000              add [eax],al
00002F88  0000              add [eax],al
00002F8A  0000              add [eax],al
00002F8C  0000              add [eax],al
00002F8E  0000              add [eax],al
00002F90  D02F              shr byte [edi],1
00002F92  0000              add [eax],al
00002F94  000B              add [ebx],cl
00002F96  0000              add [eax],al
00002F98  250000003F        and eax,0x3f000000
00002F9D  0000              add [eax],al
00002F9F  000400            add [eax+eax],al
00002FA2  0000              add [eax],al
00002FA4  1000              adc [eax],al
00002FA6  0000              add [eax],al
00002FA8  0900              or [eax],eax
00002FAA  0000              add [eax],al
00002FAC  0300              add eax,[eax]
00002FAE  0000              add [eax],al
00002FB0  0000              add [eax],al
00002FB2  0000              add [eax],al
00002FB4  0000              add [eax],al
00002FB6  0000              add [eax],al
00002FB8  D03A              sar byte [edx],1
00002FBA  0000              add [eax],al
00002FBC  E214              loop 0x2fd2
00002FBE  0000              add [eax],al
00002FC0  0000              add [eax],al
00002FC2  0000              add [eax],al
00002FC4  0000              add [eax],al
00002FC6  0000              add [eax],al
00002FC8  0100              add [eax],eax
00002FCA  0000              add [eax],al
00002FCC  0000              add [eax],al
00002FCE  0000              add [eax],al
00002FD0  0000              add [eax],al
00002FD2  0000              add [eax],al
00002FD4  0000              add [eax],al
00002FD6  0000              add [eax],al
00002FD8  0000              add [eax],al
00002FDA  0000              add [eax],al
00002FDC  0000              add [eax],al
00002FDE  0000              add [eax],al
00002FE0  0000              add [eax],al
00002FE2  0000              add [eax],al
00002FE4  3481              xor al,0x81
00002FE6  0408              add al,0x8
00002FE8  0000              add [eax],al
00002FEA  0000              add [eax],al
00002FEC  0300              add eax,[eax]
00002FEE  0100              add [eax],eax
00002FF0  0000              add [eax],al
00002FF2  0000              add [eax],al
00002FF4  48                dec eax
00002FF5  81040800000000    add dword [eax+ecx],0x0
00002FFC  0300              add eax,[eax]
00002FFE  0200              add al,[eax]
00003000  0000              add [eax],al
00003002  0000              add [eax],al
00003004  6881040800        push dword 0x80481
00003009  0000              add [eax],al
0000300B  0003              add [ebx],al
0000300D  0003              add [ebx],al
0000300F  0000              add [eax],al
00003011  0000              add [eax],al
00003013  000482            add [edx+eax*4],al
00003016  0408              add al,0x8
00003018  0000              add [eax],al
0000301A  0000              add [eax],al
0000301C  0300              add eax,[eax]
0000301E  0400              add al,0x0
00003020  0000              add [eax],al
00003022  0000              add [eax],al
00003024  44                inc esp
00003025  83040800          add dword [eax+ecx],byte +0x0
00003029  0000              add [eax],al
0000302B  0003              add [ebx],al
0000302D  000500000000      add [dword 0x0],al
00003033  003A              add [edx],bh
00003035  850408            test [eax+ecx],eax
00003038  0000              add [eax],al
0000303A  0000              add [eax],al
0000303C  0300              add eax,[eax]
0000303E  06                push es
0000303F  0000              add [eax],al
00003041  0000              add [eax],al
00003043  00648504          add [ebp+eax*4+0x4],ah
00003047  0800              or [eax],al
00003049  0000              add [eax],al
0000304B  0003              add [ebx],al
0000304D  0007              add [edi],al
0000304F  0000              add [eax],al
00003051  0000              add [eax],al
00003053  00E4              add ah,ah
00003055  850408            test [eax+ecx],eax
00003058  0000              add [eax],al
0000305A  0000              add [eax],al
0000305C  0300              add eax,[eax]
0000305E  0800              or [eax],al
00003060  0000              add [eax],al
00003062  0000              add [eax],al
00003064  F4                hlt
00003065  850408            test [eax+ecx],eax
00003068  0000              add [eax],al
0000306A  0000              add [eax],al
0000306C  0300              add eax,[eax]
0000306E  0900              or [eax],eax
00003070  0000              add [eax],al
00003072  0000              add [eax],al
00003074  64860408          xchg al,[fs:eax+ecx]
00003078  0000              add [eax],al
0000307A  0000              add [eax],al
0000307C  0300              add eax,[eax]
0000307E  0A00              or al,[eax]
00003080  0000              add [eax],al
00003082  0000              add [eax],al
00003084  A086040800        mov al,[0x80486]
00003089  0000              add [eax],al
0000308B  0003              add [ebx],al
0000308D  000B              add [ebx],cl
0000308F  0000              add [eax],al
00003091  0000              add [eax],al
00003093  009087040800      add [eax+0x80487],dl
00003099  0000              add [eax],al
0000309B  0003              add [ebx],al
0000309D  000C00            add [eax+eax],cl
000030A0  0000              add [eax],al
000030A2  0000              add [eax],al
000030A4  289504080000      sub [ebp+0x804],dl
000030AA  0000              add [eax],al
000030AC  0300              add eax,[eax]
000030AE  0D00000000        or eax,0x0
000030B3  00449504          add [ebp+edx*4+0x4],al
000030B7  0800              or [eax],al
000030B9  0000              add [eax],al
000030BB  0003              add [ebx],al
000030BD  000E              add [esi],cl
000030BF  0000              add [eax],al
000030C1  0000              add [eax],al
000030C3  005C9504          add [ebp+edx*4+0x4],bl
000030C7  0800              or [eax],al
000030C9  0000              add [eax],al
000030CB  0003              add [ebx],al
000030CD  000F              add [edi],cl
000030CF  0000              add [eax],al
000030D1  0000              add [eax],al
000030D3  006097            add [eax-0x69],ah
000030D6  0408              add al,0x8
000030D8  0000              add [eax],al
000030DA  0000              add [eax],al
000030DC  0300              add eax,[eax]
000030DE  1000              adc [eax],al
000030E0  0000              add [eax],al
000030E2  0000              add [eax],al
000030E4  C49F04080000      les ebx,[edi+0x804]
000030EA  0000              add [eax],al
000030EC  0300              add eax,[eax]
000030EE  1100              adc [eax],eax
000030F0  0000              add [eax],al
000030F2  0000              add [eax],al
000030F4  40                inc eax
000030F5  B004              mov al,0x4
000030F7  0800              or [eax],al
000030F9  0000              add [eax],al
000030FB  0003              add [ebx],al
000030FD  0012              add [edx],dl
000030FF  0000              add [eax],al
00003101  0000              add [eax],al
00003103  004CB004          add [eax+esi*4+0x4],cl
00003107  0800              or [eax],al
00003109  0000              add [eax],al
0000310B  0003              add [ebx],al
0000310D  0013              add [ebx],dl
0000310F  0000              add [eax],al
00003111  0000              add [eax],al
00003113  0054B004          add [eax+esi*4+0x4],dl
00003117  0800              or [eax],al
00003119  0000              add [eax],al
0000311B  0003              add [ebx],al
0000311D  001400            add [eax+eax],dl
00003120  0000              add [eax],al
00003122  0000              add [eax],al
00003124  58                pop eax
00003125  B004              mov al,0x4
00003127  0800              or [eax],al
00003129  0000              add [eax],al
0000312B  0003              add [ebx],al
0000312D  001500000000      add [dword 0x0],dl
00003133  0038              add [eax],bh
00003135  B104              mov cl,0x4
00003137  0800              or [eax],al
00003139  0000              add [eax],al
0000313B  0003              add [ebx],al
0000313D  0016              add [esi],dl
0000313F  0000              add [eax],al
00003141  0000              add [eax],al
00003143  003CB1            add [ecx+esi*4],bh
00003146  0408              add al,0x8
00003148  0000              add [eax],al
0000314A  0000              add [eax],al
0000314C  0300              add eax,[eax]
0000314E  17                pop ss
0000314F  0000              add [eax],al
00003151  0000              add [eax],al
00003153  0080B1040800      add [eax+0x804b1],al
00003159  0000              add [eax],al
0000315B  0003              add [ebx],al
0000315D  0018              add [eax],bl
0000315F  0000              add [eax],al
00003161  0000              add [eax],al
00003163  00A0B1040800      add [eax+0x804b1],ah
00003169  0000              add [eax],al
0000316B  0003              add [ebx],al
0000316D  0019              add [ecx],bl
0000316F  0000              add [eax],al
00003171  0000              add [eax],al
00003173  0000              add [eax],al
00003175  0000              add [eax],al
00003177  0000              add [eax],al
00003179  0000              add [eax],al
0000317B  0003              add [ebx],al
0000317D  001A              add [edx],bl
0000317F  0000              add [eax],al
00003181  0000              add [eax],al
00003183  0000              add [eax],al
00003185  0000              add [eax],al
00003187  0000              add [eax],al
00003189  0000              add [eax],al
0000318B  0003              add [ebx],al
0000318D  001B              add [ebx],bl
0000318F  0000              add [eax],al
00003191  0000              add [eax],al
00003193  0000              add [eax],al
00003195  0000              add [eax],al
00003197  0000              add [eax],al
00003199  0000              add [eax],al
0000319B  0003              add [ebx],al
0000319D  001C00            add [eax+eax],bl
000031A0  0000              add [eax],al
000031A2  0000              add [eax],al
000031A4  0000              add [eax],al
000031A6  0000              add [eax],al
000031A8  0000              add [eax],al
000031AA  0000              add [eax],al
000031AC  0300              add eax,[eax]
000031AE  1D00000000        sbb eax,0x0
000031B3  0000              add [eax],al
000031B5  0000              add [eax],al
000031B7  0000              add [eax],al
000031B9  0000              add [eax],al
000031BB  0003              add [ebx],al
000031BD  001E              add [esi],bl
000031BF  0000              add [eax],al
000031C1  0000              add [eax],al
000031C3  0000              add [eax],al
000031C5  0000              add [eax],al
000031C7  0000              add [eax],al
000031C9  0000              add [eax],al
000031CB  0003              add [ebx],al
000031CD  001F              add [edi],bl
000031CF  0000              add [eax],al
000031D1  0000              add [eax],al
000031D3  0000              add [eax],al
000031D5  0000              add [eax],al
000031D7  0000              add [eax],al
000031D9  0000              add [eax],al
000031DB  0003              add [ebx],al
000031DD  0020              add [eax],ah
000031DF  0000              add [eax],al
000031E1  0000              add [eax],al
000031E3  0000              add [eax],al
000031E5  0000              add [eax],al
000031E7  0000              add [eax],al
000031E9  0000              add [eax],al
000031EB  0003              add [ebx],al
000031ED  0021              add [ecx],ah
000031EF  0000              add [eax],al
000031F1  0000              add [eax],al
000031F3  0000              add [eax],al
000031F5  0000              add [eax],al
000031F7  0000              add [eax],al
000031F9  0000              add [eax],al
000031FB  0003              add [ebx],al
000031FD  0022              add [edx],ah
000031FF  0001              add [ecx],al
00003201  0000              add [eax],al
00003203  0000              add [eax],al
00003205  0000              add [eax],al
00003207  0000              add [eax],al
00003209  0000              add [eax],al
0000320B  000400            add [eax+eax],al
0000320E  F1                int1
0000320F  FF08              dec dword [eax]
00003211  0000              add [eax],al
00003213  0000              add [eax],al
00003215  0000              add [eax],al
00003217  0000              add [eax],al
00003219  0000              add [eax],al
0000321B  000400            add [eax+eax],al
0000321E  F1                int1
0000321F  FF13              call [ebx]
00003221  0000              add [eax],al
00003223  0000              add [eax],al
00003225  0000              add [eax],al
00003227  0000              add [eax],al
00003229  0000              add [eax],al
0000322B  000400            add [eax+eax],al
0000322E  F1                int1
0000322F  FF1E              call far [esi]
00003231  0000              add [eax],al
00003233  0040B0            add [eax-0x50],al
00003236  0408              add al,0x8
00003238  0000              add [eax],al
0000323A  0000              add [eax],al
0000323C  0100              add [eax],eax
0000323E  1200              adc al,[eax]
00003240  2C00              sub al,0x0
00003242  0000              add [eax],al
00003244  4C                dec esp
00003245  B004              mov al,0x4
00003247  0800              or [eax],al
00003249  0000              add [eax],al
0000324B  0001              add [ecx],al
0000324D  0013              add [ebx],dl
0000324F  003A              add [edx],bh
00003251  0000              add [eax],al
00003253  0054B004          add [eax+esi*4+0x4],dl
00003257  0800              or [eax],al
00003259  0000              add [eax],al
0000325B  0001              add [ecx],al
0000325D  001400            add [eax+eax],dl
00003260  47                inc edi
00003261  0000              add [eax],al
00003263  00C0              add al,al
00003265  870408            xchg eax,[eax+ecx]
00003268  0000              add [eax],al
0000326A  0000              add [eax],al
0000326C  0200              add al,[eax]
0000326E  0C00              or al,0x0
00003270  5C                pop esp
00003271  0000              add [eax],al
00003273  00F0              add al,dh
00003275  870408            xchg eax,[eax+ecx]
00003278  0000              add [eax],al
0000327A  0000              add [eax],al
0000327C  0200              add al,[eax]
0000327E  0C00              or al,0x0
00003280  6F                outsd
00003281  0000              add [eax],al
00003283  0030              add [eax],dh
00003285  880408            mov [eax+ecx],al
00003288  0000              add [eax],al
0000328A  0000              add [eax],al
0000328C  0200              add al,[eax]
0000328E  0C00              or al,0x0
00003290  8500              test [eax],eax
00003292  0000              add [eax],al
00003294  30B204080100      xor [edx+0x10804],dh
0000329A  0000              add [eax],al
0000329C  0100              add [eax],eax
0000329E  1900              sbb [eax],eax
000032A0  94                xchg eax,esp
000032A1  0000              add [eax],al
000032A3  0034B2            add [edx+esi*4],dh
000032A6  0408              add al,0x8
000032A8  0400              add al,0x0
000032AA  0000              add [eax],al
000032AC  0100              add [eax],eax
000032AE  1900              sbb [eax],eax
000032B0  A200000080        mov [0x80000000],al
000032B5  880408            mov [eax+ecx],al
000032B8  0000              add [eax],al
000032BA  0000              add [eax],al
000032BC  0200              add al,[eax]
000032BE  0C00              or al,0x0
000032C0  1300              adc eax,[eax]
000032C2  0000              add [eax],al
000032C4  0000              add [eax],al
000032C6  0000              add [eax],al
000032C8  0000              add [eax],al
000032CA  0000              add [eax],al
000032CC  0400              add al,0x0
000032CE  F1                int1
000032CF  FFAE00000048      jmp far [esi+0x48000000]
000032D5  B004              mov al,0x4
000032D7  0800              or [eax],al
000032D9  0000              add [eax],al
000032DB  0001              add [ecx],al
000032DD  0012              add [edx],dl
000032DF  00BB000000C0      add [ebx-0x40000000],bh
000032E5  9F                lahf
000032E6  0408              add al,0x8
000032E8  0000              add [eax],al
000032EA  0000              add [eax],al
000032EC  0100              add [eax],eax
000032EE  1000              adc [eax],al
000032F0  C9                leave
000032F1  0000              add [eax],al
000032F3  0054B004          add [eax+esi*4+0x4],dl
000032F7  0800              or [eax],al
000032F9  0000              add [eax],al
000032FB  0001              add [ecx],al
000032FD  001400            add [eax+eax],dl
00003300  D500              aad 0x0
00003302  0000              add [eax],al
00003304  009504080000      add [ebp+0x804],dl
0000330A  0000              add [eax],al
0000330C  0200              add al,[eax]
0000330E  0C00              or al,0x0
00003310  0800              or [eax],al
00003312  0000              add [eax],al
00003314  0000              add [eax],al
00003316  0000              add [eax],al
00003318  0000              add [eax],al
0000331A  0000              add [eax],al
0000331C  0400              add al,0x0
0000331E  F1                int1
0000331F  FF                db 0xff
00003320  EB00              jmp short 0x3322
00003322  0000              add [eax],al
00003324  0000              add [eax],al
00003326  0000              add [eax],al
00003328  0000              add [eax],al
0000332A  0000              add [eax],al
0000332C  0400              add al,0x0
0000332E  F1                int1
0000332F  FF03              inc dword [ebx]
00003331  0100              add [eax],eax
00003333  0038              add [eax],bh
00003335  B204              mov dl,0x4
00003337  0801              or [ecx],al
00003339  0000              add [eax],al
0000333B  0001              add [ecx],al
0000333D  0019              add [ecx],bl
0000333F  0012              add [edx],dl
00003341  0100              add [eax],eax
00003343  00E6              add dh,ah
00003345  8A0408            mov al,[eax+ecx]
00003348  3F                aas
00003349  0000              add [eax],al
0000334B  0002              add [edx],al
0000334D  000C00            add [eax+eax],cl
00003350  42                inc edx
00003351  0100              add [eax],eax
00003353  00258B04081C      add [dword 0x1c08048b],ah
00003359  0000              add [eax],al
0000335B  0002              add [edx],al
0000335D  000C00            add [eax+eax],cl
00003360  5D                pop ebp
00003361  0100              add [eax],eax
00003363  0000              add [eax],al
00003365  0000              add [eax],al
00003367  0000              add [eax],al
00003369  0000              add [eax],al
0000336B  000400            add [eax+eax],al
0000336E  F1                int1
0000336F  FF00              inc dword [eax]
00003371  0000              add [eax],al
00003373  0000              add [eax],al
00003375  0000              add [eax],al
00003377  0000              add [eax],al
00003379  0000              add [eax],al
0000337B  000400            add [eax+eax],al
0000337E  F1                int1
0000337F  FF6801            jmp far [eax+0x1]
00003382  0000              add [eax],al
00003384  3CB1              cmp al,0xb1
00003386  0408              add al,0x8
00003388  0000              add [eax],al
0000338A  0000              add [eax],al
0000338C  0100              add [eax],eax
0000338E  17                pop ss
0000338F  007E01            add [esi+0x1],bh
00003392  0000              add [eax],al
00003394  3F                aas
00003395  B004              mov al,0x4
00003397  0800              or [eax],al
00003399  0000              add [eax],al
0000339B  0000              add [eax],al
0000339D  0012              add [edx],dl
0000339F  008F0100003F      add [edi+0x3f000001],cl
000033A5  B004              mov al,0x4
000033A7  0800              or [eax],al
000033A9  0000              add [eax],al
000033AB  0000              add [eax],al
000033AD  0012              add [edx],dl
000033AF  00A201000058      add [edx+0x58000001],ah
000033B5  B004              mov al,0x4
000033B7  0800              or [eax],al
000033B9  0000              add [eax],al
000033BB  0001              add [ecx],al
000033BD  001500AB0100      add [dword 0x1ab00],dl
000033C3  0080B1040800      add [eax+0x804b1],al
000033C9  0000              add [eax],al
000033CB  0020              add [eax],ah
000033CD  0018              add [eax],bl
000033CF  00B6010000A0      add [esi-0x5fffffff],dh
000033D5  B104              mov cl,0x4
000033D7  089000000011      or [eax+0x11000000],dl
000033DD  0019              add [ecx],bl
000033DF  00CC              add ah,cl
000033E1  0100              add [eax],eax
000033E3  00848C04085000    add [esp+ecx*4+0x500804],al
000033EA  0000              add [eax],al
000033EC  2200              and al,[eax]
000033EE  0C00              or al,0x0
000033F0  1C02              sbb al,0x2
000033F2  0000              add [eax],al
000033F4  A4                movsb
000033F5  93                xchg eax,ebx
000033F6  0408              add al,0x8
000033F8  0500000022        add eax,0x22000000
000033FD  000C00            add [eax+eax],cl
00003400  53                push ebx
00003401  0200              add al,[eax]
00003403  00A48E04080500    add [esi+ecx*4+0x50804],ah
0000340A  0000              add [eax],al
0000340C  2200              and al,[eax]
0000340E  0C00              or al,0x0
00003410  8A02              mov al,[edx]
00003412  0000              add [eax],al
00003414  4A                dec edx
00003415  8B0408            mov eax,[eax+ecx]
00003418  1300              adc eax,[eax]
0000341A  0000              add [eax],al
0000341C  2200              and al,[eax]
0000341E  0C00              or al,0x0
00003420  AA                stosb
00003421  0200              add al,[eax]
00003423  00A98E04080B      add [ecx+0xb08048e],ch
00003429  0000              add [eax],al
0000342B  0022              add [edx],ah
0000342D  000C00            add [eax+eax],cl
00003430  FC                cld
00003431  0200              add al,[eax]
00003433  0000              add [eax],al
00003435  0000              add [eax],al
00003437  0000              add [eax],al
00003439  0000              add [eax],al
0000343B  0012              add [edx],dl
0000343D  0000              add [eax],al
0000343F  0016              add [esi],dl
00003441  0300              add eax,[eax]
00003443  009094040805      add [eax+0x5080494],dl
00003449  0000              add [eax],al
0000344B  0012              add [edx],dl
0000344D  000C00            add [eax+eax],cl
00003450  260300            add eax,[es:eax]
00003453  004A8B            add [edx-0x75],cl
00003456  0408              add al,0x8
00003458  1300              adc eax,[eax]
0000345A  0000              add [eax],al
0000345C  2200              and al,[eax]
0000345E  0C00              or al,0x0
00003460  46                inc esi
00003461  0300              add eax,[eax]
00003463  005E8B            add [esi-0x75],bl
00003466  0408              add al,0x8
00003468  1300              adc eax,[eax]
0000346A  0000              add [eax],al
0000346C  2200              and al,[eax]
0000346E  0C00              or al,0x0
00003470  660300            add ax,[eax]
00003473  009087040800      add [eax+0x80487],dl
00003479  0000              add [eax],al
0000347B  0012              add [edx],dl
0000347D  000C00            add [eax+eax],cl
00003480  6D                insd
00003481  0300              add eax,[eax]
00003483  00C0              add al,al
00003485  8E0408            mov es,[eax+ecx]
00003488  5D                pop ebp
00003489  0000              add [eax],al
0000348B  0022              add [edx],ah
0000348D  000C00            add [eax+eax],cl
00003490  C503              lds eax,[ebx]
00003492  0000              add [eax],al
00003494  728B              jc 0x3421
00003496  0408              add al,0x8
00003498  1300              adc eax,[eax]
0000349A  0000              add [eax],al
0000349C  2200              and al,[eax]
0000349E  0C00              or al,0x0
000034A0  120400            adc al,[eax+eax]
000034A3  005C8C04          add [esp+ecx*4+0x4],bl
000034A7  0813              or [ebx],dl
000034A9  0000              add [eax],al
000034AB  0022              add [edx],ah
000034AD  000C00            add [eax+eax],cl
000034B0  47                inc edi
000034B1  0400              add al,0x0
000034B3  0000              add [eax],al
000034B5  0000              add [eax],al
000034B7  0000              add [eax],al
000034B9  0000              add [eax],al
000034BB  0020              add [eax],ah
000034BD  0000              add [eax],al
000034BF  005604            add [esi+0x4],dl
000034C2  0000              add [eax],al
000034C4  0000              add [eax],al
000034C6  0000              add [eax],al
000034C8  0000              add [eax],al
000034CA  0000              add [eax],al
000034CC  2000              and [eax],al
000034CE  0000              add [eax],al
000034D0  6A04              push byte +0x4
000034D2  0000              add [eax],al
000034D4  44                inc esp
000034D5  95                xchg eax,ebp
000034D6  0408              add al,0x8
000034D8  0400              add al,0x0
000034DA  0000              add [eax],al
000034DC  1100              adc [eax],eax
000034DE  0E                push cs
000034DF  007104            add [ecx+0x4],dh
000034E2  0000              add [eax],al
000034E4  0000              add [eax],al
000034E6  0000              add [eax],al
000034E8  0000              add [eax],al
000034EA  0000              add [eax],al
000034EC  1200              adc al,[eax]
000034EE  0000              add [eax],al
000034F0  850400            test [eax+eax],eax
000034F3  00C6              add dh,al
000034F5  93                xchg eax,ebx
000034F6  0408              add al,0x8
000034F8  0500000022        add eax,0x22000000
000034FD  000C00            add [eax+eax],cl
00003500  A904000054        test eax,0x54000004
00003505  8E0408            mov es,[eax+ecx]
00003508  50                push eax
00003509  0000              add [eax],al
0000350B  0022              add [edx],ah
0000350D  000C00            add [eax+eax],cl
00003510  F6040000          test byte [eax+eax],0x0
00003514  B293              mov dl,0x93
00003516  0408              add al,0x8
00003518  1300              adc eax,[eax]
0000351A  0000              add [eax],al
0000351C  2200              and al,[eax]
0000351E  0C00              or al,0x0
00003520  200500002895      and [dword 0x95280000],al
00003526  0408              add al,0x8
00003528  0000              add [eax],al
0000352A  0000              add [eax],al
0000352C  1200              adc al,[eax]
0000352E  0D00260500        or eax,0x52600
00003533  00D4              add ah,dl
00003535  8C0408            mov [eax+ecx],es
00003538  0B00              or eax,[eax]
0000353A  0000              add [eax],al
0000353C  2200              and al,[eax]
0000353E  0C00              or al,0x0
00003540  620500000000      bound eax,[dword 0x0]
00003546  0000              add [eax],al
00003548  0000              add [eax],al
0000354A  0000              add [eax],al
0000354C  1200              adc al,[eax]
0000354E  0000              add [eax],al
00003550  870500007E94      xchg eax,[dword 0x947e0000]
00003556  0408              add al,0x8
00003558  0A00              or al,[eax]
0000355A  0000              add [eax],al
0000355C  2200              and al,[eax]
0000355E  0C00              or al,0x0
00003560  C60500000E9204    mov byte [dword 0x920e0000],0x4
00003567  0827              or [edi],ah
00003569  0000              add [eax],al
0000356B  0022              add [edx],ah
0000356D  000C00            add [eax+eax],cl
00003570  0906              or [esi],eax
00003572  0000              add [eax],al
00003574  2A8F04080B00      sub cl,[edi+0xb0804]
0000357A  0000              add [eax],al
0000357C  2200              and al,[eax]
0000357E  0C00              or al,0x0
00003580  49                dec ecx
00003581  06                push es
00003582  0000              add [eax],al
00003584  B293              mov dl,0x93
00003586  0408              add al,0x8
00003588  1300              adc eax,[eax]
0000358A  0000              add [eax],al
0000358C  2200              and al,[eax]
0000358E  0C00              or al,0x0
00003590  7306              jnc 0x3598
00003592  0000              add [eax],al
00003594  0000              add [eax],al
00003596  0000              add [eax],al
00003598  0000              add [eax],al
0000359A  0000              add [eax],al
0000359C  1200              adc al,[eax]
0000359E  0000              add [eax],al
000035A0  B006              mov al,0x6
000035A2  0000              add [eax],al
000035A4  C6                db 0xc6
000035A5  93                xchg eax,ebx
000035A6  0408              add al,0x8
000035A8  0500000022        add eax,0x22000000
000035AD  000C00            add [eax+eax],cl
000035B0  D406              aam 0x6
000035B2  0000              add [eax],al
000035B4  0000              add [eax],al
000035B6  0000              add [eax],al
000035B8  0000              add [eax],al
000035BA  0000              add [eax],al
000035BC  1200              adc al,[eax]
000035BE  0000              add [eax],al
000035C0  F1                int1
000035C1  06                push es
000035C2  0000              add [eax],al
000035C4  4E                dec esi
000035C5  8F0408            pop dword [eax+ecx]
000035C8  6E                outsb
000035C9  0100              add [eax],eax
000035CB  0022              add [edx],ah
000035CD  000C00            add [eax+eax],cl
000035D0  40                inc eax
000035D1  07                pop es
000035D2  0000              add [eax],al
000035D4  D28B04081300      ror byte [ebx+0x130804],cl
000035DA  0000              add [eax],al
000035DC  2200              and al,[eax]
000035DE  0C00              or al,0x0
000035E0  6407              fs pop es
000035E2  0000              add [eax],al
000035E4  5E                pop esi
000035E5  8B0408            mov eax,[eax+ecx]
000035E8  1300              adc eax,[eax]
000035EA  0000              add [eax],al
000035EC  2200              and al,[eax]
000035EE  0C00              or al,0x0
000035F0  8407              test [edi],al
000035F2  0000              add [eax],al
000035F4  2E8E0408          mov es,[cs:eax+ecx]
000035F8  1A00              sbb al,[eax]
000035FA  0000              add [eax],al
000035FC  2200              and al,[eax]
000035FE  0C00              or al,0x0
00003600  BB07000010        mov ebx,0x10000007
00003605  870408            xchg eax,[eax+ecx]
00003608  0000              add [eax],al
0000360A  0000              add [eax],al
0000360C  1200              adc al,[eax]
0000360E  0000              add [eax],al
00003610  E007              loopne 0x3619
00003612  0000              add [eax],al
00003614  0000              add [eax],al
00003616  0000              add [eax],al
00003618  0000              add [eax],al
0000361A  0000              add [eax],al
0000361C  2000              and [eax],al
0000361E  0000              add [eax],al
00003620  FC                cld
00003621  07                pop es
00003622  0000              add [eax],al
00003624  48                dec eax
00003625  95                xchg eax,ebp
00003626  0408              add al,0x8
00003628  0400              add al,0x0
0000362A  0000              add [eax],al
0000362C  1100              adc [eax],eax
0000362E  0E                push cs
0000362F  000B              add [ebx],cl
00003631  0800              or [eax],al
00003633  0000              add [eax],al
00003635  93                xchg eax,ebx
00003636  0408              add al,0x8
00003638  1D00000022        sbb eax,0x22000000
0000363D  000C00            add [eax+eax],cl
00003640  2B08              sub ecx,[eax]
00003642  0000              add [eax],al
00003644  C8910408          enter 0x491,0x8
00003648  1300              adc eax,[eax]
0000364A  0000              add [eax],al
0000364C  2200              and al,[eax]
0000364E  0C00              or al,0x0
00003650  4B                dec ebx
00003651  0800              or [eax],al
00003653  00418B            add [ecx-0x75],al
00003656  0408              add al,0x8
00003658  0800              or [eax],al
0000365A  0000              add [eax],al
0000365C  2200              and al,[eax]
0000365E  0C00              or al,0x0
00003660  53                push ebx
00003661  0800              or [eax],al
00003663  00A49304080500    add [ebx+edx*4+0x50804],ah
0000366A  0000              add [eax],al
0000366C  2200              and al,[eax]
0000366E  0C00              or al,0x0
00003670  8A08              mov cl,[eax]
00003672  0000              add [eax],al
00003674  708C              jo 0x3602
00003676  0408              add al,0x8
00003678  1300              adc eax,[eax]
0000367A  0000              add [eax],al
0000367C  2200              and al,[eax]
0000367E  0C00              or al,0x0
00003680  AA                stosb
00003681  0800              or [eax],al
00003683  00708C            add [eax-0x74],dh
00003686  0408              add al,0x8
00003688  1300              adc eax,[eax]
0000368A  0000              add [eax],al
0000368C  2200              and al,[eax]
0000368E  0C00              or al,0x0
00003690  CA0800            retf 0x8
00003693  00E6              add dh,ah
00003695  8B0408            mov eax,[eax+ecx]
00003698  61                popa
00003699  0000              add [eax],al
0000369B  0022              add [edx],ah
0000369D  000C00            add [eax+eax],cl
000036A0  F1                int1
000036A1  0800              or [eax],al
000036A3  00A09104081A      add [eax+0x1a080491],ah
000036A9  0000              add [eax],al
000036AB  0022              add [edx],ah
000036AD  000C00            add [eax+eax],cl
000036B0  2209              and cl,[ecx]
000036B2  0000              add [eax],al
000036B4  48                dec eax
000036B5  8C0408            mov [eax+ecx],es
000036B8  1300              adc eax,[eax]
000036BA  0000              add [eax],al
000036BC  2200              and al,[eax]
000036BE  0C00              or al,0x0
000036C0  46                inc esi
000036C1  0900              or [eax],eax
000036C3  0000              add [eax],al
000036C5  0000              add [eax],al
000036C7  0000              add [eax],al
000036C9  0000              add [eax],al
000036CB  0020              add [eax],ah
000036CD  0000              add [eax],al
000036CF  006009            add [eax+0x9],ah
000036D2  0000              add [eax],al
000036D4  80B10408000000    xor byte [ecx+0x804],0x0
000036DB  0010              add [eax],dl
000036DD  0018              add [eax],bl
000036DF  006D09            add [ebp+0x9],ch
000036E2  0000              add [eax],al
000036E4  E08C              loopne 0x3672
000036E6  0408              add al,0x8
000036E8  7600              jna 0x36ea
000036EA  0000              add [eax],al
000036EC  2200              and al,[eax]
000036EE  0C00              or al,0x0
000036F0  A6                cmpsb
000036F1  0900              or [eax],eax
000036F3  009C9204081400    add [edx+edx*4+0x140804],bl
000036FA  0000              add [eax],al
000036FC  2200              and al,[eax]
000036FE  0C00              or al,0x0
00003700  BE090000C4        mov esi,0xc4000009
00003705  90                nop
00003706  0408              add al,0x8
00003708  DB00              fild dword [eax]
0000370A  0000              add [eax],al
0000370C  2200              and al,[eax]
0000370E  0C00              or al,0x0
00003710  190A              sbb [edx],ecx
00003712  0000              add [eax],al
00003714  BA9104080D        mov edx,0xd080491
00003719  0000              add [eax],al
0000371B  0022              add [edx],ah
0000371D  000C00            add [eax+eax],cl
00003720  4D                dec ebp
00003721  0A00              or al,[eax]
00003723  001E              add [esi],bl
00003725  8E0408            mov es,[eax+ecx]
00003728  0F0000            sldt [eax]
0000372B  0022              add [edx],ah
0000372D  000C00            add [eax+eax],cl
00003730  8C0A              mov [edx],cs
00003732  0000              add [eax],al
00003734  A4                movsb
00003735  8E0408            mov es,[eax+ecx]
00003738  0500000022        add eax,0x22000000
0000373D  000C00            add [eax+eax],cl
00003740  C3                ret
00003741  0A00              or al,[eax]
00003743  004094            add [eax-0x6c],al
00003746  0408              add al,0x8
00003748  0500000022        add eax,0x22000000
0000374D  000C00            add [eax+eax],cl
00003750  E70A              out 0xa,eax
00003752  0000              add [eax],al
00003754  B088              mov al,0x88
00003756  0408              add al,0x8
00003758  4C                dec esp
00003759  0100              add [eax],eax
0000375B  0012              add [edx],dl
0000375D  000C00            add [eax+eax],cl
00003760  F30A00            rep or al,[eax]
00003763  001E              add [esi],bl
00003765  8E0408            mov es,[eax+ecx]
00003768  0F0000            sldt [eax]
0000376B  0022              add [edx],ah
0000376D  000C00            add [eax+eax],cl
00003770  320B              xor cl,[ebx]
00003772  0000              add [eax],al
00003774  AA                stosb
00003775  93                xchg eax,ebx
00003776  0408              add al,0x8
00003778  0800              or [eax],al
0000377A  0000              add [eax],al
0000377C  2200              and al,[eax]
0000377E  0C00              or al,0x0
00003780  7D0B              jnl 0x378d
00003782  0000              add [eax],al
00003784  88B104080000      mov [ecx+0x804],dh
0000378A  0000              add [eax],al
0000378C  1102              adc [edx],eax
0000378E  1800              sbb [eax],al
00003790  890B              mov [ebx],ecx
00003792  0000              add [eax],al
00003794  84B104080000      test [ecx+0x804],dh
0000379A  0000              add [eax],al
0000379C  1102              adc [edx],eax
0000379E  1800              sbb [eax],al
000037A0  96                xchg eax,esi
000037A1  0B00              or eax,[eax]
000037A3  004992            add [ecx-0x6e],cl
000037A6  0408              add al,0x8
000037A8  0800              or [eax],al
000037AA  0000              add [eax],al
000037AC  2200              and al,[eax]
000037AE  0C00              or al,0x0
000037B0  B20B              mov dl,0xb
000037B2  0000              add [eax],al
000037B4  50                push eax
000037B5  B004              mov al,0x4
000037B7  0800              or [eax],al
000037B9  0000              add [eax],al
000037BB  0011              add [ecx],dl
000037BD  0213              add dl,[ebx]
000037BF  00BF0B0000A0      add [edi-0x5ffffff5],bh
000037C5  94                xchg eax,esp
000037C6  0408              add al,0x8
000037C8  5A                pop edx
000037C9  0000              add [eax],al
000037CB  0012              add [edx],dl
000037CD  000C00            add [eax+eax],cl
000037D0  CF                iret
000037D1  0B00              or eax,[eax]
000037D3  0000              add [eax],al
000037D5  0000              add [eax],al
000037D7  0000              add [eax],al
000037D9  0000              add [eax],al
000037DB  0012              add [edx],dl
000037DD  0000              add [eax],al
000037DF  00E1              add cl,ah
000037E1  0B00              or eax,[eax]
000037E3  0036              add [esi],dh
000037E5  92                xchg eax,edx
000037E6  0408              add al,0x8
000037E8  1300              adc eax,[eax]
000037EA  0000              add [eax],al
000037EC  2200              and al,[eax]
000037EE  0C00              or al,0x0
000037F0  EE                out dx,al
000037F1  0B00              or eax,[eax]
000037F3  00CC              add ah,cl
000037F5  93                xchg eax,ebx
000037F6  0408              add al,0x8
000037F8  1300              adc eax,[eax]
000037FA  0000              add [eax],al
000037FC  2200              and al,[eax]
000037FE  0C00              or al,0x0
00003800  330C00            xor ecx,[eax+eax]
00003803  00728B            add [edx-0x75],dh
00003806  0408              add al,0x8
00003808  1300              adc eax,[eax]
0000380A  0000              add [eax],al
0000380C  2200              and al,[eax]
0000380E  0C00              or al,0x0
00003810  800C0000          or byte [eax+eax],0x0
00003814  2E8E0408          mov es,[cs:eax+ecx]
00003818  1A00              sbb al,[eax]
0000381A  0000              add [eax],al
0000381C  2200              and al,[eax]
0000381E  0C00              or al,0x0
00003820  B70C              mov bh,0xc
00003822  0000              add [eax],al
00003824  54                push esp
00003825  8E0408            mov es,[eax+ecx]
00003828  50                push eax
00003829  0000              add [eax],al
0000382B  0022              add [edx],ah
0000382D  000C00            add [eax+eax],cl
00003830  040D              add al,0xd
00003832  0000              add [eax],al
00003834  D29204081400      rcl byte [edx+0x140804],cl
0000383A  0000              add [eax],al
0000383C  2200              and al,[eax]
0000383E  0C00              or al,0x0
00003840  290D00000000      sub [dword 0x0],ecx
00003846  0000              add [eax],al
00003848  0000              add [eax],al
0000384A  0000              add [eax],al
0000384C  1200              adc al,[eax]
0000384E  0000              add [eax],al
00003850  3C0D              cmp al,0xd
00003852  0000              add [eax],al
00003854  B092              mov al,0x92
00003856  0408              add al,0x8
00003858  2200              and al,[eax]
0000385A  0000              add [eax],al
0000385C  2200              and al,[eax]
0000385E  0C00              or al,0x0
00003860  750D              jnz 0x386f
00003862  0000              add [eax],al
00003864  56                push esi
00003865  8D0408            lea eax,[eax+ecx]
00003868  C70000002200      mov dword [eax],0x220000
0000386E  0C00              or al,0x0
00003870  BC0D0000F6        mov esp,0xf600000d
00003875  93                xchg eax,ebx
00003876  0408              add al,0x8
00003878  2300              and eax,[eax]
0000387A  0000              add [eax],al
0000387C  2200              and al,[eax]
0000387E  0C00              or al,0x0
00003880  FC                cld
00003881  0D0000BC90        or eax,0x90bc0000
00003886  0408              add al,0x8
00003888  0800              or [eax],al
0000388A  0000              add [eax],al
0000388C  2200              and al,[eax]
0000388E  0C00              or al,0x0
00003890  16                push ss
00003891  0E                push cs
00003892  0000              add [eax],al
00003894  1E                push ds
00003895  8F0408            pop dword [eax+ecx]
00003898  0B00              or eax,[eax]
0000389A  0000              add [eax],al
0000389C  2200              and al,[eax]
0000389E  0C00              or al,0x0
000038A0  50                push eax
000038A1  0E                push cs
000038A2  0000              add [eax],al
000038A4  88B104080000      mov [ecx+0x804],dh
000038AA  0000              add [eax],al
000038AC  1000              adc [eax],al
000038AE  1900              sbb [eax],eax
000038B0  5C                pop esp
000038B1  0E                push cs
000038B2  0000              add [eax],al
000038B4  0000              add [eax],al
000038B6  0000              add [eax],al
000038B8  0000              add [eax],al
000038BA  0000              add [eax],al
000038BC  1200              adc al,[eax]
000038BE  0000              add [eax],al
000038C0  AB                stosd
000038C1  0E                push cs
000038C2  0000              add [eax],al
000038C4  868B04084B00      xchg cl,[ebx+0x4b0804]
000038CA  0000              add [eax],al
000038CC  2200              and al,[eax]
000038CE  0C00              or al,0x0
000038D0  E00E              loopne 0x38e0
000038D2  0000              add [eax],al
000038D4  52                push edx
000038D5  92                xchg eax,edx
000038D6  0408              add al,0x8
000038D8  0500000022        add eax,0x22000000
000038DD  000C00            add [eax+eax],cl
000038E0  0B0F              or ecx,[edi]
000038E2  0000              add [eax],al
000038E4  C8910408          enter 0x491,0x8
000038E8  1300              adc eax,[eax]
000038EA  0000              add [eax],al
000038EC  2200              and al,[eax]
000038EE  0C00              or al,0x0
000038F0  2B0F              sub ecx,[edi]
000038F2  0000              add [eax],al
000038F4  A09104081A        mov al,[0x1a080491]
000038F9  0000              add [eax],al
000038FB  0022              add [edx],ah
000038FD  000C00            add [eax+eax],cl
00003900  5C                pop esp
00003901  0F0000            sldt [eax]
00003904  DF9304080B00      fist word [ebx+0xb0804]
0000390A  0000              add [eax],al
0000390C  2200              and al,[eax]
0000390E  0C00              or al,0x0
00003910  AD                lodsd
00003911  0F0000            sldt [eax]
00003914  368F0408          pop dword [ss:eax+ecx]
00003918  0B00              or eax,[eax]
0000391A  0000              add [eax],al
0000391C  2200              and al,[eax]
0000391E  0C00              or al,0x0
00003920  E80F000000        call 0x3934
00003925  0000              add [eax],al
00003927  0000              add [eax],al
00003929  0000              add [eax],al
0000392B  0012              add [edx],dl
0000392D  0000              add [eax],al
0000392F  0000              add [eax],al
00003931  1000              adc [eax],al
00003933  00488E            add [eax-0x72],cl
00003936  0408              add al,0x8
00003938  0B00              or eax,[eax]
0000393A  0000              add [eax],al
0000393C  2200              and al,[eax]
0000393E  0C00              or al,0x0
00003940  3910              cmp [eax],edx
00003942  0000              add [eax],al
00003944  B48E              mov ah,0x8e
00003946  0408              add al,0x8
00003948  0B00              or eax,[eax]
0000394A  0000              add [eax],al
0000394C  2200              and al,[eax]
0000394E  0C00              or al,0x0
00003950  8A10              mov dl,[eax]
00003952  0000              add [eax],al
00003954  E692              out 0x92,al
00003956  0408              add al,0x8
00003958  1A00              sbb al,[eax]
0000395A  0000              add [eax],al
0000395C  2200              and al,[eax]
0000395E  0C00              or al,0x0
00003960  BC1000005C        mov esp,0x5c000010
00003965  8C0408            mov [eax+ecx],es
00003968  1300              adc eax,[eax]
0000396A  0000              add [eax],al
0000396C  2200              and al,[eax]
0000396E  0C00              or al,0x0
00003970  F1                int1
00003971  1000              adc [eax],al
00003973  004694            add [esi-0x6c],al
00003976  0408              add al,0x8
00003978  37                aaa
00003979  0000              add [eax],al
0000397B  0022              add [edx],ah
0000397D  000C00            add [eax+eax],cl
00003980  3211              xor dl,[ecx]
00003982  0000              add [eax],al
00003984  E692              out 0x92,al
00003986  0408              add al,0x8
00003988  1A00              sbb al,[eax]
0000398A  0000              add [eax],al
0000398C  2200              and al,[eax]
0000398E  0C00              or al,0x0
00003990  641100            adc [fs:eax],eax
00003993  00428F            add [edx-0x71],al
00003996  0408              add al,0x8
00003998  0B00              or eax,[eax]
0000399A  0000              add [eax],al
0000399C  2200              and al,[eax]
0000399E  0C00              or al,0x0
000039A0  A5                movsd
000039A1  1100              adc [eax],eax
000039A3  003CB2            add [edx+esi*4],bh
000039A6  0408              add al,0x8
000039A8  0000              add [eax],al
000039AA  0000              add [eax],al
000039AC  1000              adc [eax],al
000039AE  1900              sbb [eax],eax
000039B0  AA                stosb
000039B1  1100              adc [eax],eax
000039B3  007A92            add [edx-0x6e],bh
000039B6  0408              add al,0x8
000039B8  2200              and al,[eax]
000039BA  0000              add [eax],al
000039BC  2200              and al,[eax]
000039BE  0C00              or al,0x0
000039C0  F9                stc
000039C1  1100              adc [eax],eax
000039C3  005892            add [eax-0x6e],bl
000039C6  0408              add al,0x8
000039C8  2200              and al,[eax]
000039CA  0000              add [eax],al
000039CC  2200              and al,[eax]
000039CE  0C00              or al,0x0
000039D0  4D                dec ebp
000039D1  1200              adc al,[eax]
000039D3  0000              add [eax],al
000039D5  0000              add [eax],al
000039D7  0000              add [eax],al
000039D9  0000              add [eax],al
000039DB  0012              add [edx],dl
000039DD  0000              add [eax],al
000039DF  007312            add [ebx+0x12],dh
000039E2  0000              add [eax],al
000039E4  1D93040822        sbb eax,0x22080493
000039E9  0000              add [eax],al
000039EB  0022              add [edx],ah
000039ED  000C00            add [eax+eax],cl
000039F0  C412              les edx,[edx]
000039F2  0000              add [eax],al
000039F4  868B04084B00      xchg cl,[ebx+0x4b0804]
000039FA  0000              add [eax],al
000039FC  2200              and al,[eax]
000039FE  0C00              or al,0x0
00003A00  F9                stc
00003A01  1200              adc al,[eax]
00003A03  004093            add [eax-0x6d],al
00003A06  0408              add al,0x8
00003A08  6300              arpl [eax],ax
00003A0A  0000              add [eax],al
00003A0C  2200              and al,[eax]
00003A0E  0C00              or al,0x0
00003A10  3E1300            adc eax,[ds:eax]
00003A13  001A              add [edx],bl
00003A15  94                xchg eax,esp
00003A16  0408              add al,0x8
00003A18  260000            add [es:eax],al
00003A1B  0022              add [edx],ah
00003A1D  000C00            add [eax+eax],cl
00003A20  6E                outsb
00003A21  1300              adc eax,[eax]
00003A23  0088B1040800      add [eax+0x804b1],cl
00003A29  0000              add [eax],al
00003A2B  0010              add [eax],dl
00003A2D  0018              add [eax],bl
00003A2F  007513            add [ebp+0x13],dh
00003A32  0000              add [eax],al
00003A34  7087              jo 0x39bd
00003A36  0408              add al,0x8
00003A38  0000              add [eax],al
00003A3A  0000              add [eax],al
00003A3C  1200              adc al,[eax]
00003A3E  0000              add [eax],al
00003A40  96                xchg eax,esi
00003A41  1300              adc eax,[eax]
00003A43  0036              add [esi],dh
00003A45  92                xchg eax,edx
00003A46  0408              add al,0x8
00003A48  1300              adc eax,[eax]
00003A4A  0000              add [eax],al
00003A4C  2200              and al,[eax]
00003A4E  0C00              or al,0x0
00003A50  A313000000        mov [0x13],eax
00003A55  0000              add [eax],al
00003A57  0000              add [eax],al
00003A59  0000              add [eax],al
00003A5B  0012              add [edx],dl
00003A5D  0000              add [eax],al
00003A5F  00BB130000EA      add [ebx-0x15ffffed],bh
00003A65  93                xchg eax,ebx
00003A66  0408              add al,0x8
00003A68  0B00              or eax,[eax]
00003A6A  0000              add [eax],al
00003A6C  2200              and al,[eax]
00003A6E  0C00              or al,0x0
00003A70  0E                push cs
00003A71  1400              adc al,0x0
00003A73  00BA9104080D      add [edx+0xd080491],bh
00003A79  0000              add [eax],al
00003A7B  0022              add [edx],ah
00003A7D  000C00            add [eax+eax],cl
00003A80  42                inc edx
00003A81  1400              adc al,0x0
00003A83  00DC              add ah,bl
00003A85  91                xchg eax,ecx
00003A86  0408              add al,0x8
00003A88  3100              xor [eax],eax
00003A8A  0000              add [eax],al
00003A8C  2200              and al,[eax]
00003A8E  0C00              or al,0x0
00003A90  9C                pushf
00003A91  1400              adc al,0x0
00003A93  00FA              add dl,bh
00003A95  94                xchg eax,esp
00003A96  0408              add al,0x8
00003A98  0000              add [eax],al
00003A9A  0000              add [eax],al
00003A9C  1202              adc al,[edx]
00003A9E  0C00              or al,0x0
00003AA0  B314              mov bl,0x14
00003AA2  0000              add [eax],al
00003AA4  FC                cld
00003AA5  890408            mov [eax+ecx],eax
00003AA8  EA00000012000C    jmp 0xc00:0x12000000
00003AAF  00B814000064      add [eax+0x64000014],bh
00003AB5  860408            xchg al,[eax+ecx]
00003AB8  0000              add [eax],al
00003ABA  0000              add [eax],al
00003ABC  1200              adc al,[eax]
00003ABE  0A00              or al,[eax]
00003AC0  BE14000040        mov esi,0x40000014
00003AC5  94                xchg eax,esp
00003AC6  0408              add al,0x8
00003AC8  0500000022        add eax,0x22000000
00003ACD  000C00            add [eax+eax],cl
00003AD0  00696E            add [ecx+0x6e],ch
00003AD3  69742E6300696E69  imul esi,[esi+ebp+0x63],dword 0x696e6900
00003ADB  7466              jz 0x3b43
00003ADD  696E692E630063    imul ebp,[esi+0x69],dword 0x6300632e
00003AE4  7274              jc 0x3b5a
00003AE6  7374              jnc 0x3b5c
00003AE8  7566              jnz 0x3b50
00003AEA  662E6300          o16 arpl [cs:eax],ax
00003AEE  5F                pop edi
00003AEF  5F                pop edi
00003AF0  43                inc ebx
00003AF1  54                push esp
00003AF2  4F                dec edi
00003AF3  52                push edx
00003AF4  5F                pop edi
00003AF5  4C                dec esp
00003AF6  49                dec ecx
00003AF7  53                push ebx
00003AF8  54                push esp
00003AF9  5F                pop edi
00003AFA  5F                pop edi
00003AFB  005F5F            add [edi+0x5f],bl
00003AFE  44                inc esp
00003AFF  54                push esp
00003B00  4F                dec edi
00003B01  52                push edx
00003B02  5F                pop edi
00003B03  4C                dec esp
00003B04  49                dec ecx
00003B05  53                push ebx
00003B06  54                push esp
00003B07  5F                pop edi
00003B08  5F                pop edi
00003B09  005F5F            add [edi+0x5f],bl
00003B0C  4A                dec edx
00003B0D  43                inc ebx
00003B0E  52                push edx
00003B0F  5F                pop edi
00003B10  4C                dec esp
00003B11  49                dec ecx
00003B12  53                push ebx
00003B13  54                push esp
00003B14  5F                pop edi
00003B15  5F                pop edi
00003B16  00646572          add [ebp+0x72],ah
00003B1A  656769737465725F  imul esi,[gs:bp+di+0x74],dword 0x745f7265
         -74
00003B23  6D                insd
00003B24  5F                pop edi
00003B25  636C6F6E          arpl [edi+ebp*2+0x6e],bp
00003B29  657300            gs jnc 0x3b2c
00003B2C  7265              jc 0x3b93
00003B2E  6769737465725F74  imul esi,[bp+di+0x74],dword 0x745f7265
00003B36  6D                insd
00003B37  5F                pop edi
00003B38  636C6F6E          arpl [edi+ebp*2+0x6e],bp
00003B3C  657300            gs jnc 0x3b3f
00003B3F  5F                pop edi
00003B40  5F                pop edi
00003B41  646F              fs outsd
00003B43  5F                pop edi
00003B44  676C              a16 insb
00003B46  6F                outsd
00003B47  62616C            bound esp,[ecx+0x6c]
00003B4A  5F                pop edi
00003B4B  64746F            fs jz 0x3bbd
00003B4E  7273              jc 0x3bc3
00003B50  5F                pop edi
00003B51  61                popa
00003B52  7578              jnz 0x3bcc
00003B54  00636F            add [ebx+0x6f],ah
00003B57  6D                insd
00003B58  706C              jo 0x3bc6
00003B5A  657465            gs jz 0x3bc2
00003B5D  642E3333          xor esi,[cs:ebx]
00003B61  3238              xor bh,[eax]
00003B63  0064746F          add [esp+esi*2+0x6f],ah
00003B67  725F              jc 0x3bc8
00003B69  6964782E33333330  imul esp,[eax+edi*2+0x2e],dword 0x30333333
00003B71  006672            add [esi+0x72],ah
00003B74  61                popa
00003B75  6D                insd
00003B76  655F              gs pop edi
00003B78  64756D            fs jnz 0x3be8
00003B7B  6D                insd
00003B7C  7900              jns 0x3b7e
00003B7E  5F                pop edi
00003B7F  5F                pop edi
00003B80  43                inc ebx
00003B81  54                push esp
00003B82  4F                dec edi
00003B83  52                push edx
00003B84  5F                pop edi
00003B85  45                inc ebp
00003B86  4E                dec esi
00003B87  44                inc esp
00003B88  5F                pop edi
00003B89  5F                pop edi
00003B8A  005F5F            add [edi+0x5f],bl
00003B8D  46                inc esi
00003B8E  52                push edx
00003B8F  41                inc ecx
00003B90  4D                dec ebp
00003B91  45                inc ebp
00003B92  5F                pop edi
00003B93  45                inc ebp
00003B94  4E                dec esi
00003B95  44                inc esp
00003B96  5F                pop edi
00003B97  5F                pop edi
00003B98  005F5F            add [edi+0x5f],bl
00003B9B  4A                dec edx
00003B9C  43                inc ebx
00003B9D  52                push edx
00003B9E  5F                pop edi
00003B9F  45                inc ebp
00003BA0  4E                dec esi
00003BA1  44                inc esp
00003BA2  5F                pop edi
00003BA3  5F                pop edi
00003BA4  005F5F            add [edi+0x5f],bl
00003BA7  646F              fs outsd
00003BA9  5F                pop edi
00003BAA  676C              a16 insb
00003BAC  6F                outsd
00003BAD  62616C            bound esp,[ecx+0x6c]
00003BB0  5F                pop edi
00003BB1  63746F72          arpl [edi+ebp*2+0x72],si
00003BB5  735F              jnc 0x3c16
00003BB7  61                popa
00003BB8  7578              jnz 0x3c32
00003BBA  0031              add [ecx],dh
00003BBC  3436              xor al,0x36
00003BBE  303438            xor [eax+edi],dh
00003BC1  385F31            cmp [edi+0x31],bl
00003BC4  3438              xor al,0x38
00003BC6  333438            xor esi,[eax+edi]
00003BC9  385F73            cmp [edi+0x73],bl
00003BCC  6D                insd
00003BCD  6E                outsb
00003BCE  2E637070          arpl [cs:eax+0x70],si
00003BD2  005F5A            add [edi+0x5a],bl
00003BD5  53                push ebx
00003BD6  744C              jz 0x3c24
00003BD8  385F5F            cmp [edi+0x5f],bl
00003BDB  696F696E697400    imul ebp,[edi+0x69],dword 0x74696e
00003BE2  5F                pop edi
00003BE3  5A                pop edx
00003BE4  3431              xor al,0x31
00003BE6  5F                pop edi
00003BE7  5F                pop edi
00003BE8  7374              jnc 0x3c5e
00003BEA  61                popa
00003BEB  7469              jz 0x3c56
00003BED  635F69            arpl [edi+0x69],bx
00003BF0  6E                outsb
00003BF1  697469616C697A61  imul esi,[ecx+ebp*2+0x61],dword 0x617a696c
00003BF9  7469              jz 0x3c64
00003BFB  6F                outsd
00003BFC  6E                outsb
00003BFD  5F                pop edi
00003BFE  61                popa
00003BFF  6E                outsb
00003C00  645F              fs pop edi
00003C02  64657374          gs jnc 0x3c7a
00003C06  7275              jc 0x3c7d
00003C08  6374696F          arpl [ecx+ebp*2+0x6f],si
00003C0C  6E                outsb
00003C0D  5F                pop edi
00003C0E  306969            xor [ecx+0x69],ch
00003C11  005F47            add [edi+0x47],bl
00003C14  4C                dec esp
00003C15  4F                dec edi
00003C16  42                inc edx
00003C17  41                inc ecx
00003C18  4C                dec esp
00003C19  5F                pop edi
00003C1A  5F                pop edi
00003C1B  7375              jnc 0x3c92
00003C1D  625F49            bound ebx,[edi+0x49]
00003C20  5F                pop edi
00003C21  5F                pop edi
00003C22  5A                pop edx
00003C23  35736F6C76        xor eax,0x766c6f73
00003C28  6569696900656C66  imul ebp,[gs:ecx+0x69],dword 0x666c6500
00003C30  2D696E6974        sub eax,0x74696e69
00003C35  2E6300            arpl [cs:eax],ax
00003C38  5F                pop edi
00003C39  47                inc edi
00003C3A  4C                dec esp
00003C3B  4F                dec edi
00003C3C  42                inc edx
00003C3D  41                inc ecx
00003C3E  4C                dec esp
00003C3F  5F                pop edi
00003C40  4F                dec edi
00003C41  46                inc esi
00003C42  46                inc esi
00003C43  53                push ebx
00003C44  45                inc ebp
00003C45  54                push esp
00003C46  5F                pop edi
00003C47  54                push esp
00003C48  41                inc ecx
00003C49  42                inc edx
00003C4A  4C                dec esp
00003C4B  45                inc ebp
00003C4C  5F                pop edi
00003C4D  005F5F            add [edi+0x5f],bl
00003C50  696E69745F6172    imul ebp,[esi+0x69],dword 0x72615f74
00003C57  7261              jc 0x3cba
00003C59  795F              jns 0x3cba
00003C5B  656E              gs outsb
00003C5D  64005F5F          add [fs:edi+0x5f],bl
00003C61  696E69745F6172    imul ebp,[esi+0x69],dword 0x72615f74
00003C68  7261              jc 0x3ccb
00003C6A  795F              jns 0x3ccb
00003C6C  7374              jnc 0x3ce2
00003C6E  61                popa
00003C6F  7274              jc 0x3ce5
00003C71  005F44            add [edi+0x44],bl
00003C74  59                pop ecx
00003C75  4E                dec esi
00003C76  41                inc ecx
00003C77  4D                dec ebp
00003C78  49                dec ecx
00003C79  43                inc ebx
00003C7A  00646174          add [ecx+0x74],ah
00003C7E  61                popa
00003C7F  5F                pop edi
00003C80  7374              jnc 0x3cf6
00003C82  61                popa
00003C83  7274              jc 0x3cf9
00003C85  005F5A            add [edi+0x5a],bl
00003C88  53                push ebx
00003C89  7433              jz 0x3cbe
00003C8B  63696E            arpl [ecx+0x6e],bp
00003C8E  40                inc eax
00003C8F  40                inc eax
00003C90  47                inc edi
00003C91  4C                dec esp
00003C92  49                dec ecx
00003C93  42                inc edx
00003C94  43                inc ebx
00003C95  58                pop eax
00003C96  58                pop eax
00003C97  5F                pop edi
00003C98  332E              xor ebp,[esi]
00003C9A  3400              xor al,0x0
00003C9C  5F                pop edi
00003C9D  5A                pop edx
00003C9E  4E                dec esi
00003C9F  53                push ebx
00003CA0  7438              jz 0x3cda
00003CA2  5F                pop edi
00003CA3  52                push edx
00003CA4  625F74            bound ebx,[edi+0x74]
00003CA7  7265              jc 0x3d0e
00003CA9  6549              gs dec ecx
00003CAB  69695374395F49    imul ebp,[ecx+0x53],dword 0x495f3974
00003CB2  64656E            gs outsb
00003CB5  7469              jz 0x3d20
00003CB7  7479              jz 0x3d32
00003CB9  49                dec ecx
00003CBA  69455374346C65    imul eax,[ebp+0x53],dword 0x656c3474
00003CC1  7373              jnc 0x3d36
00003CC3  49                dec ecx
00003CC4  69455361496945    imul eax,[ebp+0x53],dword 0x45694961
00003CCB  45                inc ebp
00003CCC  385F4D            cmp [edi+0x4d],bl
00003CCF  5F                pop edi
00003CD0  657261            gs jc 0x3d34
00003CD3  7365              jnc 0x3d3a
00003CD5  45                inc ebp
00003CD6  50                push eax
00003CD7  53                push ebx
00003CD8  7431              jz 0x3d0b
00003CDA  335F52            xor ebx,[edi+0x52]
00003CDD  625F74            bound ebx,[edi+0x74]
00003CE0  7265              jc 0x3d47
00003CE2  655F              gs pop edi
00003CE4  6E                outsb
00003CE5  6F                outsd
00003CE6  646549            gs dec ecx
00003CE9  6945005F5A4E39    imul eax,[ebp+0x0],dword 0x394e5a5f
00003CF0  5F                pop edi
00003CF1  5F                pop edi
00003CF2  676E              a16 outsb
00003CF4  755F              jnz 0x3d55
00003CF6  637878            arpl [eax+0x78],di
00003CF9  3133              xor [ebx],esi
00003CFB  6E                outsb
00003CFC  65775F            gs ja 0x3d5e
00003CFF  61                popa
00003D00  6C                insb
00003D01  6C                insb
00003D02  6F                outsd
00003D03  636174            arpl [ecx+0x74],sp
00003D06  6F                outsd
00003D07  7249              jc 0x3d52
00003D09  53                push ebx
00003D0A  7431              jz 0x3d3d
00003D0C  335F52            xor ebx,[edi+0x52]
00003D0F  625F74            bound ebx,[edi+0x74]
00003D12  7265              jc 0x3d79
00003D14  655F              gs pop edi
00003D16  6E                outsb
00003D17  6F                outsd
00003D18  646549            gs dec ecx
00003D1B  69454543324576    imul eax,[ebp+0x45],dword 0x76453243
00003D22  005F5A            add [edi+0x5a],bl
00003D25  4E                dec esi
00003D26  395F5F            cmp [edi+0x5f],ebx
00003D29  676E              a16 outsb
00003D2B  755F              jnz 0x3d8c
00003D2D  637878            arpl [eax+0x78],di
00003D30  3133              xor [ebx],esi
00003D32  6E                outsb
00003D33  65775F            gs ja 0x3d95
00003D36  61                popa
00003D37  6C                insb
00003D38  6C                insb
00003D39  6F                outsd
00003D3A  636174            arpl [ecx+0x74],sp
00003D3D  6F                outsd
00003D3E  7249              jc 0x3d89
00003D40  53                push ebx
00003D41  7431              jz 0x3d74
00003D43  335F52            xor ebx,[edi+0x52]
00003D46  625F74            bound ebx,[edi+0x74]
00003D49  7265              jc 0x3db0
00003D4B  655F              gs pop edi
00003D4D  6E                outsb
00003D4E  6F                outsd
00003D4F  646549            gs dec ecx
00003D52  69454544314576    imul eax,[ebp+0x45],dword 0x76453144
00003D59  005F5A            add [edi+0x5a],bl
00003D5C  4E                dec esi
00003D5D  53                push ebx
00003D5E  7433              jz 0x3d93
00003D60  7365              jnc 0x3dc7
00003D62  7449              jz 0x3dad
00003D64  695374346C6573    imul edx,[ebx+0x74],dword 0x73656c34
00003D6B  7349              jnc 0x3db6
00003D6D  69455361496945    imul eax,[ebp+0x53],dword 0x45694961
00003D74  45                inc ebp
00003D75  44                inc esp
00003D76  314576            xor [ebp+0x76],eax
00003D79  005F5A            add [edi+0x5a],bl
00003D7C  4E                dec esi
00003D7D  53                push ebx
00003D7E  7438              jz 0x3db8
00003D80  5F                pop edi
00003D81  52                push edx
00003D82  625F74            bound ebx,[edi+0x74]
00003D85  7265              jc 0x3dec
00003D87  6549              gs dec ecx
00003D89  69695374395F49    imul ebp,[ecx+0x53],dword 0x495f3974
00003D90  64656E            gs outsb
00003D93  7469              jz 0x3dfe
00003D95  7479              jz 0x3e10
00003D97  49                dec ecx
00003D98  69455374346C65    imul eax,[ebp+0x53],dword 0x656c3474
00003D9F  7373              jnc 0x3e14
00003DA1  49                dec ecx
00003DA2  69455361496945    imul eax,[ebp+0x53],dword 0x45694961
00003DA9  45                inc ebp
00003DAA  385F53            cmp [edi+0x53],bl
00003DAD  5F                pop edi
00003DAE  7269              jc 0x3e19
00003DB0  676874455053      push dword 0x53504574
00003DB6  7431              jz 0x3de9
00003DB8  385F52            cmp [edi+0x52],bl
00003DBB  625F74            bound ebx,[edi+0x74]
00003DBE  7265              jc 0x3e25
00003DC0  655F              gs pop edi
00003DC2  6E                outsb
00003DC3  6F                outsd
00003DC4  64655F            gs pop edi
00003DC7  626173            bound esp,[ecx+0x73]
00003DCA  65005F5F          add [gs:edi+0x5f],bl
00003DCE  637861            arpl [eax+0x61],di
00003DD1  5F                pop edi
00003DD2  61                popa
00003DD3  7465              jz 0x3e3a
00003DD5  7869              js 0x3e40
00003DD7  7440              jz 0x3e19
00003DD9  40                inc eax
00003DDA  47                inc edi
00003DDB  4C                dec esp
00003DDC  49                dec ecx
00003DDD  42                inc edx
00003DDE  43                inc ebx
00003DDF  5F                pop edi
00003DE0  322E              xor ch,[esi]
00003DE2  312E              xor [esi],ebp
00003DE4  3300              xor eax,[eax]
00003DE6  5F                pop edi
00003DE7  5F                pop edi
00003DE8  6C                insb
00003DE9  6962635F637375    imul esp,[edx+0x63],dword 0x7573635f
00003DF0  5F                pop edi
00003DF1  66696E69005F      imul bp,[esi+0x69],word 0x5f00
00003DF7  5A                pop edx
00003DF8  4E                dec esi
00003DF9  53                push ebx
00003DFA  7433              jz 0x3e2f
00003DFC  7365              jnc 0x3e63
00003DFE  7449              jz 0x3e49
00003E00  695374346C6573    imul edx,[ebx+0x74],dword 0x73656c34
00003E07  7349              jnc 0x3e52
00003E09  69455361496945    imul eax,[ebp+0x53],dword 0x45694961
00003E10  45                inc ebp
00003E11  44                inc esp
00003E12  324576            xor al,[ebp+0x76]
00003E15  005F5A            add [edi+0x5a],bl
00003E18  4E                dec esi
00003E19  53                push ebx
00003E1A  7433              jz 0x3e4f
00003E1C  7365              jnc 0x3e83
00003E1E  7449              jz 0x3e69
00003E20  695374346C6573    imul edx,[ebx+0x74],dword 0x73656c34
00003E27  7349              jnc 0x3e72
00003E29  69455361496945    imul eax,[ebp+0x53],dword 0x45694961
00003E30  45                inc ebp
00003E31  43                inc ebx
00003E32  314576            xor [ebp+0x76],eax
00003E35  005F73            add [edi+0x73],bl
00003E38  7461              jz 0x3e9b
00003E3A  7274              jc 0x3eb0
00003E3C  005F5A            add [edi+0x5a],bl
00003E3F  4E                dec esi
00003E40  53                push ebx
00003E41  7438              jz 0x3e7b
00003E43  5F                pop edi
00003E44  52                push edx
00003E45  625F74            bound ebx,[edi+0x74]
00003E48  7265              jc 0x3eaf
00003E4A  6549              gs dec ecx
00003E4C  69695374395F49    imul ebp,[ecx+0x53],dword 0x495f3974
00003E53  64656E            gs outsb
00003E56  7469              jz 0x3ec1
00003E58  7479              jz 0x3ed3
00003E5A  49                dec ecx
00003E5B  69455374346C65    imul eax,[ebp+0x53],dword 0x656c3474
00003E62  7373              jnc 0x3ed7
00003E64  49                dec ecx
00003E65  69455361496945    imul eax,[ebp+0x53],dword 0x45694961
00003E6C  45                inc ebp
00003E6D  31355F4D5F64      xor [dword 0x645f4d5f],esi
00003E73  657374            gs jnc 0x3eea
00003E76  726F              jc 0x3ee7
00003E78  795F              jns 0x3ed9
00003E7A  6E                outsb
00003E7B  6F                outsd
00003E7C  646545            gs inc ebp
00003E7F  50                push eax
00003E80  53                push ebx
00003E81  7431              jz 0x3eb4
00003E83  335F52            xor ebx,[edi+0x52]
00003E86  625F74            bound ebx,[edi+0x74]
00003E89  7265              jc 0x3ef0
00003E8B  655F              gs pop edi
00003E8D  6E                outsb
00003E8E  6F                outsd
00003E8F  646549            gs dec ecx
00003E92  6945005F5A4E53    imul eax,[ebp+0x0],dword 0x534e5a5f
00003E99  7438              jz 0x3ed3
00003E9B  5F                pop edi
00003E9C  52                push edx
00003E9D  625F74            bound ebx,[edi+0x74]
00003EA0  7265              jc 0x3f07
00003EA2  6549              gs dec ecx
00003EA4  69695374395F49    imul ebp,[ecx+0x53],dword 0x495f3974
00003EAB  64656E            gs outsb
00003EAE  7469              jz 0x3f19
00003EB0  7479              jz 0x3f2b
00003EB2  49                dec ecx
00003EB3  69455374346C65    imul eax,[ebp+0x53],dword 0x656c3474
00003EBA  7373              jnc 0x3f2f
00003EBC  49                dec ecx
00003EBD  69455361496945    imul eax,[ebp+0x53],dword 0x45694961
00003EC4  45                inc ebp
00003EC5  3133              xor [ebx],esi
00003EC7  5F                pop edi
00003EC8  52                push edx
00003EC9  625F74            bound ebx,[edi+0x74]
00003ECC  7265              jc 0x3f33
00003ECE  655F              gs pop edi
00003ED0  696D706C495333    imul ebp,[ebp+0x70],dword 0x3353496c
00003ED7  5F                pop edi
00003ED8  4C                dec esp
00003ED9  6230              bound esi,[eax]
00003EDB  45                inc ebp
00003EDC  45                inc ebp
00003EDD  44                inc esp
00003EDE  324576            xor al,[ebp+0x76]
00003EE1  005F5A            add [edi+0x5a],bl
00003EE4  4E                dec esi
00003EE5  53                push ebx
00003EE6  7438              jz 0x3f20
00003EE8  5F                pop edi
00003EE9  52                push edx
00003EEA  625F74            bound ebx,[edi+0x74]
00003EED  7265              jc 0x3f54
00003EEF  6549              gs dec ecx
00003EF1  69695374395F49    imul ebp,[ecx+0x53],dword 0x495f3974
00003EF8  64656E            gs outsb
00003EFB  7469              jz 0x3f66
00003EFD  7479              jz 0x3f78
00003EFF  49                dec ecx
00003F00  69455374346C65    imul eax,[ebp+0x53],dword 0x656c3474
00003F07  7373              jnc 0x3f7c
00003F09  49                dec ecx
00003F0A  69455361496945    imul eax,[ebp+0x53],dword 0x45694961
00003F11  45                inc ebp
00003F12  43                inc ebx
00003F13  314576            xor [ebp+0x76],eax
00003F16  005F5F            add [edi+0x5f],bl
00003F19  676D              a16 insd
00003F1B  6F                outsd
00003F1C  6E                outsb
00003F1D  5F                pop edi
00003F1E  7374              jnc 0x3f94
00003F20  61                popa
00003F21  7274              jc 0x3f97
00003F23  5F                pop edi
00003F24  5F                pop edi
00003F25  005F4A            add [edi+0x4a],bl
00003F28  765F              jna 0x3f89
00003F2A  52                push edx
00003F2B  6567697374657243  imul esi,[gs:bp+di+0x74],dword 0x6c437265
         -6C
00003F34  61                popa
00003F35  7373              jnc 0x3faa
00003F37  657300            gs jnc 0x3f3a
00003F3A  5F                pop edi
00003F3B  66705F            o16 jo 0x3f9d
00003F3E  6877005F5A        push dword 0x5a5f0077
00003F43  646C              fs insb
00003F45  50                push eax
00003F46  7640              jna 0x3f88
00003F48  40                inc eax
00003F49  47                inc edi
00003F4A  4C                dec esp
00003F4B  49                dec ecx
00003F4C  42                inc edx
00003F4D  43                inc ebx
00003F4E  58                pop eax
00003F4F  58                pop eax
00003F50  5F                pop edi
00003F51  332E              xor ebp,[esi]
00003F53  3400              xor al,0x0
00003F55  5F                pop edi
00003F56  5A                pop edx
00003F57  4E                dec esi
00003F58  395F5F            cmp [edi+0x5f],ebx
00003F5B  676E              a16 outsb
00003F5D  755F              jnz 0x3fbe
00003F5F  637878            arpl [eax+0x78],di
00003F62  3133              xor [ebx],esi
00003F64  6E                outsb
00003F65  65775F            gs ja 0x3fc7
00003F68  61                popa
00003F69  6C                insb
00003F6A  6C                insb
00003F6B  6F                outsd
00003F6C  636174            arpl [ecx+0x74],sp
00003F6F  6F                outsd
00003F70  7249              jc 0x3fbb
00003F72  69454431457600    imul eax,[ebp+0x44],dword 0x764531
00003F79  5F                pop edi
00003F7A  5A                pop edx
00003F7B  4E                dec esi
00003F7C  53                push ebx
00003F7D  7438              jz 0x3fb7
00003F7F  5F                pop edi
00003F80  52                push edx
00003F81  625F74            bound ebx,[edi+0x74]
00003F84  7265              jc 0x3feb
00003F86  6549              gs dec ecx
00003F88  69695374395F49    imul ebp,[ecx+0x53],dword 0x495f3974
00003F8F  64656E            gs outsb
00003F92  7469              jz 0x3ffd
00003F94  7479              jz 0x400f
00003F96  49                dec ecx
00003F97  69455374346C65    imul eax,[ebp+0x53],dword 0x656c3474
00003F9E  7373              jnc 0x4013
00003FA0  49                dec ecx
00003FA1  69455361496945    imul eax,[ebp+0x53],dword 0x45694961
00003FA8  45                inc ebp
00003FA9  3133              xor [ebx],esi
00003FAB  5F                pop edi
00003FAC  52                push edx
00003FAD  625F74            bound ebx,[edi+0x74]
00003FB0  7265              jc 0x4017
00003FB2  655F              gs pop edi
00003FB4  696D706C495333    imul ebp,[ebp+0x70],dword 0x3353496c
00003FBB  5F                pop edi
00003FBC  4C                dec esp
00003FBD  6230              bound esi,[eax]
00003FBF  45                inc ebp
00003FC0  45                inc ebp
00003FC1  43                inc ebx
00003FC2  314576            xor [ebp+0x76],eax
00003FC5  005F5A            add [edi+0x5a],bl
00003FC8  4E                dec esi
00003FC9  53                push ebx
00003FCA  61                popa
00003FCB  49                dec ecx
00003FCC  69454331495374    imul eax,[ebp+0x43],dword 0x74534931
00003FD3  3133              xor [ebx],esi
00003FD5  5F                pop edi
00003FD6  52                push edx
00003FD7  625F74            bound ebx,[edi+0x74]
00003FDA  7265              jc 0x4041
00003FDC  655F              gs pop edi
00003FDE  6E                outsb
00003FDF  6F                outsd
00003FE0  646549            gs dec ecx
00003FE3  69454545524B53    imul eax,[ebp+0x45],dword 0x534b5245
00003FEA  61                popa
00003FEB  49                dec ecx
00003FEC  54                push esp
00003FED  5F                pop edi
00003FEE  45                inc ebp
00003FEF  005F66            add [edi+0x66],bl
00003FF2  696E69005F5A4E    imul ebp,[esi+0x69],dword 0x4e5a5f00
00003FF9  53                push ebx
00003FFA  7438              jz 0x4034
00003FFC  5F                pop edi
00003FFD  52                push edx
00003FFE  625F74            bound ebx,[edi+0x74]
00004001  7265              jc 0x4068
00004003  6549              gs dec ecx
00004005  69695374395F49    imul ebp,[ecx+0x53],dword 0x495f3974
0000400C  64656E            gs outsb
0000400F  7469              jz 0x407a
00004011  7479              jz 0x408c
00004013  49                dec ecx
00004014  69455374346C65    imul eax,[ebp+0x53],dword 0x656c3474
0000401B  7373              jnc 0x4090
0000401D  49                dec ecx
0000401E  69455361496945    imul eax,[ebp+0x53],dword 0x45694961
00004025  45                inc ebp
00004026  385F4D            cmp [edi+0x4d],bl
00004029  5F                pop edi
0000402A  626567            bound esp,[ebp+0x67]
0000402D  696E4576005F5A    imul ebp,[esi+0x45],dword 0x5a5f0076
00004034  4E                dec esi
00004035  53                push ebx
00004036  7438              jz 0x4070
00004038  696F735F626173    imul ebp,[edi+0x73],dword 0x7361625f
0000403F  653449            gs xor al,0x49
00004042  6E                outsb
00004043  6974433145764040  imul esi,[ebx+eax*2+0x31],dword 0x40407645
0000404B  47                inc edi
0000404C  4C                dec esp
0000404D  49                dec ecx
0000404E  42                inc edx
0000404F  43                inc ebx
00004050  58                pop eax
00004051  58                pop eax
00004052  5F                pop edi
00004053  332E              xor ebp,[esi]
00004055  3400              xor al,0x0
00004057  5F                pop edi
00004058  5A                pop edx
00004059  4E                dec esi
0000405A  4B                dec ebx
0000405B  395F5F            cmp [edi+0x5f],ebx
0000405E  676E              a16 outsb
00004060  755F              jnz 0x40c1
00004062  637878            arpl [eax+0x78],di
00004065  3133              xor [ebx],esi
00004067  6E                outsb
00004068  65775F            gs ja 0x40ca
0000406B  61                popa
0000406C  6C                insb
0000406D  6C                insb
0000406E  6F                outsd
0000406F  636174            arpl [ecx+0x74],sp
00004072  6F                outsd
00004073  7249              jc 0x40be
00004075  53                push ebx
00004076  7431              jz 0x40a9
00004078  335F52            xor ebx,[edi+0x52]
0000407B  625F74            bound ebx,[edi+0x74]
0000407E  7265              jc 0x40e5
00004080  655F              gs pop edi
00004082  6E                outsb
00004083  6F                outsd
00004084  646549            gs dec ecx
00004087  694545386D6178    imul eax,[ebp+0x45],dword 0x78616d38
0000408E  5F                pop edi
0000408F  7369              jnc 0x40fa
00004091  7A65              jpe 0x40f8
00004093  45                inc ebp
00004094  7600              jna 0x4096
00004096  5F                pop edi
00004097  5A                pop edx
00004098  4E                dec esi
00004099  4B                dec ebx
0000409A  53                push ebx
0000409B  7438              jz 0x40d5
0000409D  5F                pop edi
0000409E  52                push edx
0000409F  625F74            bound ebx,[edi+0x74]
000040A2  7265              jc 0x4109
000040A4  6549              gs dec ecx
000040A6  69695374395F49    imul ebp,[ecx+0x53],dword 0x495f3974
000040AD  64656E            gs outsb
000040B0  7469              jz 0x411b
000040B2  7479              jz 0x412d
000040B4  49                dec ecx
000040B5  69455374346C65    imul eax,[ebp+0x53],dword 0x656c3474
000040BC  7373              jnc 0x4131
000040BE  49                dec ecx
000040BF  69455361496945    imul eax,[ebp+0x53],dword 0x45694961
000040C6  45                inc ebp
000040C7  3133              xor [ebx],esi
000040C9  6765745F          gs jz 0x412c
000040CD  61                popa
000040CE  6C                insb
000040CF  6C                insb
000040D0  6F                outsd
000040D1  636174            arpl [ecx+0x74],sp
000040D4  6F                outsd
000040D5  7245              jc 0x411c
000040D7  7600              jna 0x40d9
000040D9  5F                pop edi
000040DA  5A                pop edx
000040DB  4E                dec esi
000040DC  53                push ebx
000040DD  7438              jz 0x4117
000040DF  5F                pop edi
000040E0  52                push edx
000040E1  625F74            bound ebx,[edi+0x74]
000040E4  7265              jc 0x414b
000040E6  6549              gs dec ecx
000040E8  69695374395F49    imul ebp,[ecx+0x53],dword 0x495f3974
000040EF  64656E            gs outsb
000040F2  7469              jz 0x415d
000040F4  7479              jz 0x416f
000040F6  49                dec ecx
000040F7  69455374346C65    imul eax,[ebp+0x53],dword 0x656c3474
000040FE  7373              jnc 0x4173
00004100  49                dec ecx
00004101  69455361496945    imul eax,[ebp+0x53],dword 0x45694961
00004108  45                inc ebp
00004109  3131              xor [ecx],esi
0000410B  5F                pop edi
0000410C  4D                dec ebp
0000410D  5F                pop edi
0000410E  6C                insb
0000410F  6566746D          gs o16 jz 0x4180
00004113  6F                outsd
00004114  7374              jnc 0x418a
00004116  45                inc ebp
00004117  7600              jna 0x4119
00004119  5F                pop edi
0000411A  5A                pop edx
0000411B  4E                dec esi
0000411C  53                push ebx
0000411D  61                popa
0000411E  49                dec ecx
0000411F  69454332495374    imul eax,[ebp+0x43],dword 0x74534932
00004126  3133              xor [ebx],esi
00004128  5F                pop edi
00004129  52                push edx
0000412A  625F74            bound ebx,[edi+0x74]
0000412D  7265              jc 0x4194
0000412F  655F              gs pop edi
00004131  6E                outsb
00004132  6F                outsd
00004133  646549            gs dec ecx
00004136  69454545524B53    imul eax,[ebp+0x45],dword 0x534b5245
0000413D  61                popa
0000413E  49                dec ecx
0000413F  54                push esp
00004140  5F                pop edi
00004141  45                inc ebp
00004142  005F5A            add [edi+0x5a],bl
00004145  53                push ebx
00004146  7431              jz 0x4179
00004148  385F52            cmp [edi+0x52],bl
0000414B  625F74            bound ebx,[edi+0x74]
0000414E  7265              jc 0x41b5
00004150  655F              gs pop edi
00004152  6465637265        arpl [gs:edx+0x65],si
00004157  6D                insd
00004158  656E              gs outsb
0000415A  7450              jz 0x41ac
0000415C  53                push ebx
0000415D  7431              jz 0x4190
0000415F  385F52            cmp [edi+0x52],bl
00004162  625F74            bound ebx,[edi+0x74]
00004165  7265              jc 0x41cc
00004167  655F              gs pop edi
00004169  6E                outsb
0000416A  6F                outsd
0000416B  64655F            gs pop edi
0000416E  626173            bound esp,[ecx+0x73]
00004171  6540              gs inc eax
00004173  40                inc eax
00004174  47                inc edi
00004175  4C                dec esp
00004176  49                dec ecx
00004177  42                inc edx
00004178  43                inc ebx
00004179  58                pop eax
0000417A  58                pop eax
0000417B  5F                pop edi
0000417C  332E              xor ebp,[esi]
0000417E  3400              xor al,0x0
00004180  5F                pop edi
00004181  5A                pop edx
00004182  4E                dec esi
00004183  395F5F            cmp [edi+0x5f],ebx
00004186  676E              a16 outsb
00004188  755F              jnz 0x41e9
0000418A  637878            arpl [eax+0x78],di
0000418D  3133              xor [ebx],esi
0000418F  6E                outsb
00004190  65775F            gs ja 0x41f2
00004193  61                popa
00004194  6C                insb
00004195  6C                insb
00004196  6F                outsd
00004197  636174            arpl [ecx+0x74],sp
0000419A  6F                outsd
0000419B  7249              jc 0x41e6
0000419D  69454432457600    imul eax,[ebp+0x44],dword 0x764532
000041A4  5F                pop edi
000041A5  5F                pop edi
000041A6  6C                insb
000041A7  6962635F737461    imul esp,[edx+0x63],dword 0x6174735f
000041AE  7274              jc 0x4224
000041B0  5F                pop edi
000041B1  6D                insd
000041B2  61                popa
000041B3  696E4040474C49    imul ebp,[esi+0x40],dword 0x494c4740
000041BA  42                inc edx
000041BB  43                inc ebx
000041BC  5F                pop edi
000041BD  322E              xor ch,[esi]
000041BF  3000              xor [eax],al
000041C1  5F                pop edi
000041C2  5A                pop edx
000041C3  4E                dec esi
000041C4  53                push ebx
000041C5  7438              jz 0x41ff
000041C7  5F                pop edi
000041C8  52                push edx
000041C9  625F74            bound ebx,[edi+0x74]
000041CC  7265              jc 0x4233
000041CE  6549              gs dec ecx
000041D0  69695374395F49    imul ebp,[ecx+0x53],dword 0x495f3974
000041D7  64656E            gs outsb
000041DA  7469              jz 0x4245
000041DC  7479              jz 0x4257
000041DE  49                dec ecx
000041DF  69455374346C65    imul eax,[ebp+0x53],dword 0x656c3474
000041E6  7373              jnc 0x425b
000041E8  49                dec ecx
000041E9  69455361496945    imul eax,[ebp+0x53],dword 0x45694961
000041F0  45                inc ebp
000041F1  32345F            xor dh,[edi+ebx*2]
000041F4  4D                dec ebp
000041F5  5F                pop edi
000041F6  6765745F          gs jz 0x4259
000041FA  696E736572745F    imul ebp,[esi+0x73],dword 0x5f747265
00004201  756E              jnz 0x4271
00004203  697175655F706F    imul esi,[ecx+0x75],dword 0x6f705f65
0000420A  7345              jnc 0x4251
0000420C  52                push edx
0000420D  4B                dec ebx
0000420E  69005F5A4E53      imul eax,[eax],dword 0x534e5a5f
00004214  7433              jz 0x4249
00004216  7365              jnc 0x427d
00004218  7449              jz 0x4263
0000421A  695374346C6573    imul edx,[ebx+0x74],dword 0x73656c34
00004221  7349              jnc 0x426c
00004223  69455361496945    imul eax,[ebp+0x53],dword 0x45694961
0000422A  45                inc ebp
0000422B  35636C6561        xor eax,0x61656c63
00004230  7245              jc 0x4277
00004232  7600              jna 0x4234
00004234  5F                pop edi
00004235  5A                pop edx
00004236  4E                dec esi
00004237  53                push ebx
00004238  7433              jz 0x426d
0000423A  7365              jnc 0x42a1
0000423C  7449              jz 0x4287
0000423E  695374346C6573    imul edx,[ebx+0x74],dword 0x73656c34
00004245  7349              jnc 0x4290
00004247  69455361496945    imul eax,[ebp+0x53],dword 0x45694961
0000424E  45                inc ebp
0000424F  43                inc ebx
00004250  324576            xor al,[ebp+0x76]
00004253  005F5A            add [edi+0x5a],bl
00004256  4E                dec esi
00004257  53                push ebx
00004258  7434              jz 0x428e
0000425A  7061              jo 0x42bd
0000425C  69724953743233    imul esi,[edx+0x49],dword 0x33327453
00004263  5F                pop edi
00004264  52                push edx
00004265  625F74            bound ebx,[edi+0x74]
00004268  7265              jc 0x42cf
0000426A  655F              gs pop edi
0000426C  636F6E            arpl [edi+0x6e],bp
0000426F  7374              jnc 0x42e5
00004271  5F                pop edi
00004272  6974657261746F72  imul esi,[ebp+0x72],dword 0x726f7461
0000427A  49                dec ecx
0000427B  69456245433145    imul eax,[ebp+0x62],dword 0x45314345
00004282  52                push edx
00004283  4B                dec ebx
00004284  53                push ebx
00004285  315F52            xor [edi+0x52],ebx
00004288  4B                dec ebx
00004289  6200              bound eax,[eax]
0000428B  5F                pop edi
0000428C  5A                pop edx
0000428D  4E                dec esi
0000428E  53                push ebx
0000428F  7438              jz 0x42c9
00004291  696F735F626173    imul ebp,[edi+0x73],dword 0x7361625f
00004298  653449            gs xor al,0x49
0000429B  6E                outsb
0000429C  6974443145764040  imul esi,[esp+eax*2+0x31],dword 0x40407645
000042A4  47                inc edi
000042A5  4C                dec esp
000042A6  49                dec ecx
000042A7  42                inc edx
000042A8  43                inc ebx
000042A9  58                pop eax
000042AA  58                pop eax
000042AB  5F                pop edi
000042AC  332E              xor ebp,[esi]
000042AE  3400              xor al,0x0
000042B0  5F                pop edi
000042B1  49                dec ecx
000042B2  54                push esp
000042B3  4D                dec ebp
000042B4  5F                pop edi
000042B5  64657265          gs jc 0x431e
000042B9  676973746572544D  imul esi,[bp+di+0x74],dword 0x4d547265
000042C1  43                inc ebx
000042C2  6C                insb
000042C3  6F                outsd
000042C4  6E                outsb
000042C5  6554              gs push esp
000042C7  61                popa
000042C8  626C6500          bound ebp,[ebp+0x0]
000042CC  5F                pop edi
000042CD  49                dec ecx
000042CE  4F                dec edi
000042CF  5F                pop edi
000042D0  7374              jnc 0x4346
000042D2  64696E5F75736564  imul ebp,[fs:esi+0x5f],dword 0x64657375
000042DA  005F5A            add [edi+0x5a],bl
000042DD  4E                dec esi
000042DE  53                push ebx
000042DF  7431              jz 0x4312
000042E1  37                aaa
000042E2  5F                pop edi
000042E3  52                push edx
000042E4  625F74            bound ebx,[edi+0x74]
000042E7  7265              jc 0x434e
000042E9  655F              gs pop edi
000042EB  6974657261746F72  imul esi,[ebp+0x72],dword 0x726f7461
000042F3  49                dec ecx
000042F4  69456D6D457600    imul eax,[ebp+0x6d],dword 0x76456d
000042FB  5F                pop edi
000042FC  5A                pop edx
000042FD  4E                dec esi
000042FE  53                push ebx
000042FF  61                popa
00004300  49                dec ecx
00004301  53                push ebx
00004302  7431              jz 0x4335
00004304  335F52            xor ebx,[edi+0x52]
00004307  625F74            bound ebx,[edi+0x74]
0000430A  7265              jc 0x4371
0000430C  655F              gs pop edi
0000430E  6E                outsb
0000430F  6F                outsd
00004310  646549            gs dec ecx
00004313  69454543324576    imul eax,[ebp+0x45],dword 0x76453243
0000431A  005F5A            add [edi+0x5a],bl
0000431D  6E                outsb
0000431E  776A              ja 0x438a
00004320  50                push eax
00004321  7600              jna 0x4323
00004323  5F                pop edi
00004324  5A                pop edx
00004325  4E                dec esi
00004326  395F5F            cmp [edi+0x5f],ebx
00004329  676E              a16 outsb
0000432B  755F              jnz 0x438c
0000432D  637878            arpl [eax+0x78],di
00004330  3133              xor [ebx],esi
00004332  6E                outsb
00004333  65775F            gs ja 0x4395
00004336  61                popa
00004337  6C                insb
00004338  6C                insb
00004339  6F                outsd
0000433A  636174            arpl [ecx+0x74],sp
0000433D  6F                outsd
0000433E  7249              jc 0x4389
00004340  53                push ebx
00004341  7431              jz 0x4374
00004343  335F52            xor ebx,[edi+0x52]
00004346  625F74            bound ebx,[edi+0x74]
00004349  7265              jc 0x43b0
0000434B  655F              gs pop edi
0000434D  6E                outsb
0000434E  6F                outsd
0000434F  646549            gs dec ecx
00004352  69454543314576    imul eax,[ebp+0x45],dword 0x76453143
00004359  005F5A            add [edi+0x5a],bl
0000435C  4E                dec esi
0000435D  53                push ebx
0000435E  61                popa
0000435F  49                dec ecx
00004360  53                push ebx
00004361  7431              jz 0x4394
00004363  335F52            xor ebx,[edi+0x52]
00004366  625F74            bound ebx,[edi+0x74]
00004369  7265              jc 0x43d0
0000436B  655F              gs pop edi
0000436D  6E                outsb
0000436E  6F                outsd
0000436F  646549            gs dec ecx
00004372  69454544314576    imul eax,[ebp+0x45],dword 0x76453144
00004379  005F5A            add [edi+0x5a],bl
0000437C  4E                dec esi
0000437D  53                push ebx
0000437E  61                popa
0000437F  49                dec ecx
00004380  53                push ebx
00004381  7431              jz 0x43b4
00004383  335F52            xor ebx,[edi+0x52]
00004386  625F74            bound ebx,[edi+0x74]
00004389  7265              jc 0x43f0
0000438B  655F              gs pop edi
0000438D  6E                outsb
0000438E  6F                outsd
0000438F  646549            gs dec ecx
00004392  69454544324576    imul eax,[ebp+0x45],dword 0x76453244
00004399  005F5A            add [edi+0x5a],bl
0000439C  4E                dec esi
0000439D  53                push ebx
0000439E  7433              jz 0x43d3
000043A0  7365              jnc 0x4407
000043A2  7449              jz 0x43ed
000043A4  695374346C6573    imul edx,[ebx+0x74],dword 0x73656c34
000043AB  7349              jnc 0x43f6
000043AD  69455361496945    imul eax,[ebp+0x53],dword 0x45694961
000043B4  45                inc ebp
000043B5  36696E7365727445  imul ebp,[ss:esi+0x73],dword 0x45747265
000043BD  52                push edx
000043BE  4B                dec ebx
000043BF  69005F5A4E53      imul eax,[eax],dword 0x534e5a5f
000043C5  7434              jz 0x43fb
000043C7  7061              jo 0x442a
000043C9  69724953743137    imul esi,[edx+0x49],dword 0x37317453
000043D0  5F                pop edi
000043D1  52                push edx
000043D2  625F74            bound ebx,[edi+0x74]
000043D5  7265              jc 0x443c
000043D7  655F              gs pop edi
000043D9  6974657261746F72  imul esi,[ebp+0x72],dword 0x726f7461
000043E1  49                dec ecx
000043E2  69456245433145    imul eax,[ebp+0x62],dword 0x45314345
000043E9  52                push edx
000043EA  4B                dec ebx
000043EB  53                push ebx
000043EC  315F52            xor [edi+0x52],ebx
000043EF  4B                dec ebx
000043F0  6200              bound eax,[eax]
000043F2  5F                pop edi
000043F3  5A                pop edx
000043F4  4E                dec esi
000043F5  4B                dec ebx
000043F6  53                push ebx
000043F7  7433              jz 0x442c
000043F9  7365              jnc 0x4460
000043FB  7449              jz 0x4446
000043FD  695374346C6573    imul edx,[ebx+0x74],dword 0x73656c34
00004404  7349              jnc 0x444f
00004406  69455361496945    imul eax,[ebp+0x53],dword 0x45694961
0000440D  45                inc ebp
0000440E  3473              xor al,0x73
00004410  697A654576005F    imul edi,[edx+0x65],dword 0x5f007645
00004417  49                dec ecx
00004418  54                push esp
00004419  4D                dec ebp
0000441A  5F                pop edi
0000441B  7265              jc 0x4482
0000441D  676973746572544D  imul esi,[bp+di+0x74],dword 0x4d547265
00004425  43                inc ebx
00004426  6C                insb
00004427  6F                outsd
00004428  6E                outsb
00004429  6554              gs push esp
0000442B  61                popa
0000442C  626C6500          bound ebp,[ebp+0x0]
00004430  5F                pop edi
00004431  5F                pop edi
00004432  6461              fs popa
00004434  7461              jz 0x4497
00004436  5F                pop edi
00004437  7374              jnc 0x44ad
00004439  61                popa
0000443A  7274              jc 0x44b0
0000443C  005F5A            add [edi+0x5a],bl
0000443F  4E                dec esi
00004440  53                push ebx
00004441  7438              jz 0x447b
00004443  5F                pop edi
00004444  52                push edx
00004445  625F74            bound ebx,[edi+0x74]
00004448  7265              jc 0x44af
0000444A  6549              gs dec ecx
0000444C  69695374395F49    imul ebp,[ecx+0x53],dword 0x495f3974
00004453  64656E            gs outsb
00004456  7469              jz 0x44c1
00004458  7479              jz 0x44d3
0000445A  49                dec ecx
0000445B  69455374346C65    imul eax,[ebp+0x53],dword 0x656c3474
00004462  7373              jnc 0x44d7
00004464  49                dec ecx
00004465  69455361496945    imul eax,[ebp+0x53],dword 0x45694961
0000446C  45                inc ebp
0000446D  35636C6561        xor eax,0x61656c63
00004472  7245              jc 0x44b9
00004474  7600              jna 0x4476
00004476  5F                pop edi
00004477  5A                pop edx
00004478  4E                dec esi
00004479  4B                dec ebx
0000447A  53                push ebx
0000447B  7434              jz 0x44b1
0000447D  6C                insb
0000447E  657373            gs jnc 0x44f4
00004481  49                dec ecx
00004482  6945636C45524B    imul eax,[ebp+0x63],dword 0x4b52456c
00004489  6953325F005F5A    imul edx,[ebx+0x32],dword 0x5a5f005f
00004490  4E                dec esi
00004491  53                push ebx
00004492  7438              jz 0x44cc
00004494  5F                pop edi
00004495  52                push edx
00004496  625F74            bound ebx,[edi+0x74]
00004499  7265              jc 0x4500
0000449B  6549              gs dec ecx
0000449D  69695374395F49    imul ebp,[ecx+0x53],dword 0x495f3974
000044A4  64656E            gs outsb
000044A7  7469              jz 0x4512
000044A9  7479              jz 0x4524
000044AB  49                dec ecx
000044AC  69455374346C65    imul eax,[ebp+0x53],dword 0x656c3474
000044B3  7373              jnc 0x4528
000044B5  49                dec ecx
000044B6  69455361496945    imul eax,[ebp+0x53],dword 0x45694961
000044BD  45                inc ebp
000044BE  3130              xor [eax],esi
000044C0  5F                pop edi
000044C1  4D                dec ebp
000044C2  5F                pop edi
000044C3  696E736572745F    imul ebp,[esi+0x73],dword 0x5f747265
000044CA  45                inc ebp
000044CB  50                push eax
000044CC  53                push ebx
000044CD  7431              jz 0x4500
000044CF  385F52            cmp [edi+0x52],bl
000044D2  625F74            bound ebx,[edi+0x74]
000044D5  7265              jc 0x453c
000044D7  655F              gs pop edi
000044D9  6E                outsb
000044DA  6F                outsd
000044DB  64655F            gs pop edi
000044DE  626173            bound esp,[ecx+0x73]
000044E1  6553              gs push ebx
000044E3  37                aaa
000044E4  5F                pop edi
000044E5  52                push edx
000044E6  4B                dec ebx
000044E7  69005F5A4E53      imul eax,[eax],dword 0x534e5a5f
000044ED  7431              jz 0x4520
000044EF  37                aaa
000044F0  5F                pop edi
000044F1  52                push edx
000044F2  625F74            bound ebx,[edi+0x74]
000044F5  7265              jc 0x455c
000044F7  655F              gs pop edi
000044F9  6974657261746F72  imul esi,[ebp+0x72],dword 0x726f7461
00004501  49                dec ecx
00004502  69454332455053    imul eax,[ebp+0x43],dword 0x53504532
00004509  7431              jz 0x453c
0000450B  335F52            xor ebx,[edi+0x52]
0000450E  625F74            bound ebx,[edi+0x74]
00004511  7265              jc 0x4578
00004513  655F              gs pop edi
00004515  6E                outsb
00004516  6F                outsd
00004517  646549            gs dec ecx
0000451A  6945005F5A4E53    imul eax,[ebp+0x0],dword 0x534e5a5f
00004521  7432              jz 0x4555
00004523  335F52            xor ebx,[edi+0x52]
00004526  625F74            bound ebx,[edi+0x74]
00004529  7265              jc 0x4590
0000452B  655F              gs pop edi
0000452D  636F6E            arpl [edi+0x6e],bp
00004530  7374              jnc 0x45a6
00004532  5F                pop edi
00004533  6974657261746F72  imul esi,[ebp+0x72],dword 0x726f7461
0000453B  49                dec ecx
0000453C  6945433245524B    imul eax,[ebp+0x43],dword 0x4b524532
00004543  53                push ebx
00004544  7431              jz 0x4577
00004546  37                aaa
00004547  5F                pop edi
00004548  52                push edx
00004549  625F74            bound ebx,[edi+0x74]
0000454C  7265              jc 0x45b3
0000454E  655F              gs pop edi
00004550  6974657261746F72  imul esi,[ebp+0x72],dword 0x726f7461
00004558  49                dec ecx
00004559  6945005F5A4E39    imul eax,[ebp+0x0],dword 0x394e5a5f
00004560  5F                pop edi
00004561  5F                pop edi
00004562  676E              a16 outsb
00004564  755F              jnz 0x45c5
00004566  637878            arpl [eax+0x78],di
00004569  3133              xor [ebx],esi
0000456B  6E                outsb
0000456C  65775F            gs ja 0x45ce
0000456F  61                popa
00004570  6C                insb
00004571  6C                insb
00004572  6F                outsd
00004573  636174            arpl [ecx+0x74],sp
00004576  6F                outsd
00004577  7249              jc 0x45c2
00004579  53                push ebx
0000457A  7431              jz 0x45ad
0000457C  335F52            xor ebx,[edi+0x52]
0000457F  625F74            bound ebx,[edi+0x74]
00004582  7265              jc 0x45e9
00004584  655F              gs pop edi
00004586  6E                outsb
00004587  6F                outsd
00004588  646549            gs dec ecx
0000458B  69454544324576    imul eax,[ebp+0x45],dword 0x76453244
00004592  005F5A            add [edi+0x5a],bl
00004595  4E                dec esi
00004596  395F5F            cmp [edi+0x5f],ebx
00004599  676E              a16 outsb
0000459B  755F              jnz 0x45fc
0000459D  637878            arpl [eax+0x78],di
000045A0  3133              xor [ebx],esi
000045A2  6E                outsb
000045A3  65775F            gs ja 0x4605
000045A6  61                popa
000045A7  6C                insb
000045A8  6C                insb
000045A9  6F                outsd
000045AA  636174            arpl [ecx+0x74],sp
000045AD  6F                outsd
000045AE  7249              jc 0x45f9
000045B0  69454331457600    imul eax,[ebp+0x43],dword 0x764531
000045B7  5F                pop edi
000045B8  5A                pop edx
000045B9  35736F6C76        xor eax,0x766c6f73
000045BE  65696969005F5A4E  imul ebp,[gs:ecx+0x69],dword 0x4e5a5f00
000045C6  53                push ebx
000045C7  7432              jz 0x45fb
000045C9  335F52            xor ebx,[edi+0x52]
000045CC  625F74            bound ebx,[edi+0x74]
000045CF  7265              jc 0x4636
000045D1  655F              gs pop edi
000045D3  636F6E            arpl [edi+0x6e],bp
000045D6  7374              jnc 0x464c
000045D8  5F                pop edi
000045D9  6974657261746F72  imul esi,[ebp+0x72],dword 0x726f7461
000045E1  49                dec ecx
000045E2  6945433145524B    imul eax,[ebp+0x43],dword 0x4b524531
000045E9  53                push ebx
000045EA  7431              jz 0x461d
000045EC  37                aaa
000045ED  5F                pop edi
000045EE  52                push edx
000045EF  625F74            bound ebx,[edi+0x74]
000045F2  7265              jc 0x4659
000045F4  655F              gs pop edi
000045F6  6974657261746F72  imul esi,[ebp+0x72],dword 0x726f7461
000045FE  49                dec ecx
000045FF  6945005F5A4E4B    imul eax,[ebp+0x0],dword 0x4b4e5a5f
00004606  53                push ebx
00004607  7438              jz 0x4641
00004609  5F                pop edi
0000460A  52                push edx
0000460B  625F74            bound ebx,[edi+0x74]
0000460E  7265              jc 0x4675
00004610  6549              gs dec ecx
00004612  69695374395F49    imul ebp,[ecx+0x53],dword 0x495f3974
00004619  64656E            gs outsb
0000461C  7469              jz 0x4687
0000461E  7479              jz 0x4699
00004620  49                dec ecx
00004621  69455374346C65    imul eax,[ebp+0x53],dword 0x656c3474
00004628  7373              jnc 0x469d
0000462A  49                dec ecx
0000462B  69455361496945    imul eax,[ebp+0x53],dword 0x45694961
00004632  45                inc ebp
00004633  3231              xor dh,[ecx]
00004635  5F                pop edi
00004636  4D                dec ebp
00004637  5F                pop edi
00004638  6765745F          gs jz 0x469b
0000463C  4E                dec esi
0000463D  6F                outsd
0000463E  64655F            gs pop edi
00004641  61                popa
00004642  6C                insb
00004643  6C                insb
00004644  6F                outsd
00004645  636174            arpl [ecx+0x74],sp
00004648  6F                outsd
00004649  7245              jc 0x4690
0000464B  7600              jna 0x464d
0000464D  5F                pop edi
0000464E  5F                pop edi
0000464F  54                push esp
00004650  4D                dec ebp
00004651  43                inc ebx
00004652  5F                pop edi
00004653  45                inc ebp
00004654  4E                dec esi
00004655  44                inc esp
00004656  5F                pop edi
00004657  5F                pop edi
00004658  005F5F            add [edi+0x5f],bl
0000465B  64736F            fs jnc 0x46cd
0000465E  5F                pop edi
0000465F  68616E646C        push dword 0x6c646e61
00004664  65005F5A          add [gs:edi+0x5a],bl
00004668  53                push ebx
00004669  7431              jz 0x469c
0000466B  315F5F            xor [edi+0x5f],ebx
0000466E  61                popa
0000466F  64647265          fs jc 0x46d8
00004673  7373              jnc 0x46e8
00004675  6F                outsd
00004676  6649              dec cx
00004678  694550545F5253    imul eax,[ebp+0x50],dword 0x53525f54
0000467F  305F00            xor [edi+0x0],bl
00004682  5F                pop edi
00004683  5F                pop edi
00004684  44                inc esp
00004685  54                push esp
00004686  4F                dec edi
00004687  52                push edx
00004688  5F                pop edi
00004689  45                inc ebp
0000468A  4E                dec esi
0000468B  44                inc esp
0000468C  5F                pop edi
0000468D  5F                pop edi
0000468E  005F5F            add [edi+0x5f],bl
00004691  6C                insb
00004692  6962635F637375    imul esp,[edx+0x63],dword 0x7573635f
00004699  5F                pop edi
0000469A  696E6974007072    imul ebp,[esi+0x69],dword 0x72700074
000046A1  696E7466404047    imul ebp,[esi+0x74],dword 0x47404066
000046A8  4C                dec esp
000046A9  49                dec ecx
000046AA  42                inc edx
000046AB  43                inc ebx
000046AC  5F                pop edi
000046AD  322E              xor ch,[esi]
000046AF  3000              xor [eax],al
000046B1  5F                pop edi
000046B2  5A                pop edx
000046B3  4E                dec esi
000046B4  53                push ebx
000046B5  61                popa
000046B6  49                dec ecx
000046B7  69454432457600    imul eax,[ebp+0x44],dword 0x764532
000046BE  5F                pop edi
000046BF  5A                pop edx
000046C0  4E                dec esi
000046C1  395F5F            cmp [edi+0x5f],ebx
000046C4  676E              a16 outsb
000046C6  755F              jnz 0x4727
000046C8  637878            arpl [eax+0x78],di
000046CB  3133              xor [ebx],esi
000046CD  6E                outsb
000046CE  65775F            gs ja 0x4730
000046D1  61                popa
000046D2  6C                insb
000046D3  6C                insb
000046D4  6F                outsd
000046D5  636174            arpl [ecx+0x74],sp
000046D8  6F                outsd
000046D9  7249              jc 0x4724
000046DB  53                push ebx
000046DC  7431              jz 0x470f
000046DE  335F52            xor ebx,[edi+0x52]
000046E1  625F74            bound ebx,[edi+0x74]
000046E4  7265              jc 0x474b
000046E6  655F              gs pop edi
000046E8  6E                outsb
000046E9  6F                outsd
000046EA  646549            gs dec ecx
000046ED  69454531306465    imul eax,[ebp+0x45],dword 0x65643031
000046F4  61                popa
000046F5  6C                insb
000046F6  6C                insb
000046F7  6F                outsd
000046F8  636174            arpl [ecx+0x74],sp
000046FB  6545              gs inc ebp
000046FD  50                push eax
000046FE  53                push ebx
000046FF  325F6A            xor bl,[edi+0x6a]
00004702  005F5A            add [edi+0x5a],bl
00004705  4E                dec esi
00004706  53                push ebx
00004707  7438              jz 0x4741
00004709  5F                pop edi
0000470A  52                push edx
0000470B  625F74            bound ebx,[edi+0x74]
0000470E  7265              jc 0x4775
00004710  6549              gs dec ecx
00004712  69695374395F49    imul ebp,[ecx+0x53],dword 0x495f3974
00004719  64656E            gs outsb
0000471C  7469              jz 0x4787
0000471E  7479              jz 0x4799
00004720  49                dec ecx
00004721  69455374346C65    imul eax,[ebp+0x53],dword 0x656c3474
00004728  7373              jnc 0x479d
0000472A  49                dec ecx
0000472B  69455361496945    imul eax,[ebp+0x53],dword 0x45694961
00004732  45                inc ebp
00004733  3133              xor [ebx],esi
00004735  5F                pop edi
00004736  52                push edx
00004737  625F74            bound ebx,[edi+0x74]
0000473A  7265              jc 0x47a1
0000473C  655F              gs pop edi
0000473E  696D706C495333    imul ebp,[ebp+0x70],dword 0x3353496c
00004745  5F                pop edi
00004746  4C                dec esp
00004747  6230              bound esi,[eax]
00004749  45                inc ebp
0000474A  45                inc ebp
0000474B  44                inc esp
0000474C  314576            xor [ebp+0x76],eax
0000474F  005F5A            add [edi+0x5a],bl
00004752  4E                dec esi
00004753  53                push ebx
00004754  7434              jz 0x478a
00004756  7061              jo 0x47b9
00004758  69724953743233    imul esi,[edx+0x49],dword 0x33327453
0000475F  5F                pop edi
00004760  52                push edx
00004761  625F74            bound ebx,[edi+0x74]
00004764  7265              jc 0x47cb
00004766  655F              gs pop edi
00004768  636F6E            arpl [edi+0x6e],bp
0000476B  7374              jnc 0x47e1
0000476D  5F                pop edi
0000476E  6974657261746F72  imul esi,[ebp+0x72],dword 0x726f7461
00004776  49                dec ecx
00004777  69456245433245    imul eax,[ebp+0x62],dword 0x45324345
0000477E  52                push edx
0000477F  4B                dec ebx
00004780  53                push ebx
00004781  315F52            xor [edi+0x52],ebx
00004784  4B                dec ebx
00004785  6200              bound eax,[eax]
00004787  5F                pop edi
00004788  5A                pop edx
00004789  4E                dec esi
0000478A  53                push ebx
0000478B  7438              jz 0x47c5
0000478D  5F                pop edi
0000478E  52                push edx
0000478F  625F74            bound ebx,[edi+0x74]
00004792  7265              jc 0x47f9
00004794  6549              gs dec ecx
00004796  69695374395F49    imul ebp,[ecx+0x53],dword 0x495f3974
0000479D  64656E            gs outsb
000047A0  7469              jz 0x480b
000047A2  7479              jz 0x481d
000047A4  49                dec ecx
000047A5  69455374346C65    imul eax,[ebp+0x53],dword 0x656c3474
000047AC  7373              jnc 0x4821
000047AE  49                dec ecx
000047AF  69455361496945    imul eax,[ebp+0x53],dword 0x45694961
000047B6  45                inc ebp
000047B7  3133              xor [ebx],esi
000047B9  5F                pop edi
000047BA  52                push edx
000047BB  625F74            bound ebx,[edi+0x74]
000047BE  7265              jc 0x4825
000047C0  655F              gs pop edi
000047C2  696D706C495333    imul ebp,[ebp+0x70],dword 0x3353496c
000047C9  5F                pop edi
000047CA  4C                dec esp
000047CB  6230              bound esi,[eax]
000047CD  45                inc ebp
000047CE  45                inc ebp
000047CF  43                inc ebx
000047D0  324576            xor al,[ebp+0x76]
000047D3  005F5A            add [edi+0x5a],bl
000047D6  4E                dec esi
000047D7  4B                dec ebx
000047D8  53                push ebx
000047D9  7431              jz 0x480c
000047DB  37                aaa
000047DC  5F                pop edi
000047DD  52                push edx
000047DE  625F74            bound ebx,[edi+0x74]
000047E1  7265              jc 0x4848
000047E3  655F              gs pop edi
000047E5  6974657261746F72  imul esi,[ebp+0x72],dword 0x726f7461
000047ED  49                dec ecx
000047EE  6945657145524B    imul eax,[ebp+0x65],dword 0x4b524571
000047F5  53                push ebx
000047F6  305F00            xor [edi+0x0],bl
000047F9  5F                pop edi
000047FA  5A                pop edx
000047FB  6E                outsb
000047FC  776A              ja 0x4868
000047FE  40                inc eax
000047FF  40                inc eax
00004800  47                inc edi
00004801  4C                dec esp
00004802  49                dec ecx
00004803  42                inc edx
00004804  43                inc ebx
00004805  58                pop eax
00004806  58                pop eax
00004807  5F                pop edi
00004808  332E              xor ebp,[esi]
0000480A  3400              xor al,0x0
0000480C  5F                pop edi
0000480D  5A                pop edx
0000480E  4E                dec esi
0000480F  53                push ebx
00004810  7438              jz 0x484a
00004812  5F                pop edi
00004813  52                push edx
00004814  625F74            bound ebx,[edi+0x74]
00004817  7265              jc 0x487e
00004819  6549              gs dec ecx
0000481B  69695374395F49    imul ebp,[ecx+0x53],dword 0x495f3974
00004822  64656E            gs outsb
00004825  7469              jz 0x4890
00004827  7479              jz 0x48a2
00004829  49                dec ecx
0000482A  69455374346C65    imul eax,[ebp+0x53],dword 0x656c3474
00004831  7373              jnc 0x48a6
00004833  49                dec ecx
00004834  69455361496945    imul eax,[ebp+0x53],dword 0x45694961
0000483B  45                inc ebp
0000483C  3562656769        xor eax,0x69676562
00004841  6E                outsb
00004842  45                inc ebp
00004843  7600              jna 0x4845
00004845  5F                pop edi
00004846  5A                pop edx
00004847  4E                dec esi
00004848  53                push ebx
00004849  7438              jz 0x4883
0000484B  5F                pop edi
0000484C  52                push edx
0000484D  625F74            bound ebx,[edi+0x74]
00004850  7265              jc 0x48b7
00004852  6549              gs dec ecx
00004854  69695374395F49    imul ebp,[ecx+0x53],dword 0x495f3974
0000485B  64656E            gs outsb
0000485E  7469              jz 0x48c9
00004860  7479              jz 0x48db
00004862  49                dec ecx
00004863  69455374346C65    imul eax,[ebp+0x53],dword 0x656c3474
0000486A  7373              jnc 0x48df
0000486C  49                dec ecx
0000486D  69455361496945    imul eax,[ebp+0x53],dword 0x45694961
00004874  45                inc ebp
00004875  3136              xor [esi],esi
00004877  5F                pop edi
00004878  4D                dec ebp
00004879  5F                pop edi
0000487A  696E736572745F    imul ebp,[esi+0x73],dword 0x5f747265
00004881  756E              jnz 0x48f1
00004883  6971756545524B    imul esi,[ecx+0x75],dword 0x4b524565
0000488A  69005F5A4E53      imul eax,[eax],dword 0x534e5a5f
00004890  7438              jz 0x48ca
00004892  5F                pop edi
00004893  52                push edx
00004894  625F74            bound ebx,[edi+0x74]
00004897  7265              jc 0x48fe
00004899  6549              gs dec ecx
0000489B  69695374395F49    imul ebp,[ecx+0x53],dword 0x495f3974
000048A2  64656E            gs outsb
000048A5  7469              jz 0x4910
000048A7  7479              jz 0x4922
000048A9  49                dec ecx
000048AA  69455374346C65    imul eax,[ebp+0x53],dword 0x656c3474
000048B1  7373              jnc 0x4926
000048B3  49                dec ecx
000048B4  69455361496945    imul eax,[ebp+0x53],dword 0x45694961
000048BB  45                inc ebp
000048BC  3131              xor [ecx],esi
000048BE  5F                pop edi
000048BF  4D                dec ebp
000048C0  5F                pop edi
000048C1  6765745F          gs jz 0x4924
000048C5  6E                outsb
000048C6  6F                outsd
000048C7  646545            gs inc ebp
000048CA  7600              jna 0x48cc
000048CC  5F                pop edi
000048CD  5A                pop edx
000048CE  4E                dec esi
000048CF  4B                dec ebx
000048D0  53                push ebx
000048D1  7439              jz 0x490c
000048D3  5F                pop edi
000048D4  49                dec ecx
000048D5  64656E            gs outsb
000048D8  7469              jz 0x4943
000048DA  7479              jz 0x4955
000048DC  49                dec ecx
000048DD  6945636C45524B    imul eax,[ebp+0x63],dword 0x4b52456c
000048E4  69005F5A4E53      imul eax,[eax],dword 0x534e5a5f
000048EA  7438              jz 0x4924
000048EC  5F                pop edi
000048ED  52                push edx
000048EE  625F74            bound ebx,[edi+0x74]
000048F1  7265              jc 0x4958
000048F3  6549              gs dec ecx
000048F5  69695374395F49    imul ebp,[ecx+0x53],dword 0x495f3974
000048FC  64656E            gs outsb
000048FF  7469              jz 0x496a
00004901  7479              jz 0x497c
00004903  49                dec ecx
00004904  69455374346C65    imul eax,[ebp+0x53],dword 0x656c3474
0000490B  7373              jnc 0x4980
0000490D  49                dec ecx
0000490E  69455361496945    imul eax,[ebp+0x53],dword 0x45694961
00004915  45                inc ebp
00004916  365F              ss pop edi
00004918  4D                dec ebp
00004919  5F                pop edi
0000491A  656E              gs outsb
0000491C  6445              fs inc ebp
0000491E  7600              jna 0x4920
00004920  5F                pop edi
00004921  5F                pop edi
00004922  627373            bound esi,[ebx+0x73]
00004925  5F                pop edi
00004926  7374              jnc 0x499c
00004928  61                popa
00004929  7274              jc 0x499f
0000492B  005F5A            add [edi+0x5a],bl
0000492E  53                push ebx
0000492F  7432              jz 0x4963
00004931  395F52            cmp [edi+0x52],ebx
00004934  625F74            bound ebx,[edi+0x74]
00004937  7265              jc 0x499e
00004939  655F              gs pop edi
0000493B  696E736572745F    imul ebp,[esi+0x73],dword 0x5f747265
00004942  61                popa
00004943  6E                outsb
00004944  645F              fs pop edi
00004946  7265              jc 0x49ad
00004948  62616C            bound esp,[ecx+0x6c]
0000494B  61                popa
0000494C  6E                outsb
0000494D  636562            arpl [ebp+0x62],sp
00004950  50                push eax
00004951  53                push ebx
00004952  7431              jz 0x4985
00004954  385F52            cmp [edi+0x52],bl
00004957  625F74            bound ebx,[edi+0x74]
0000495A  7265              jc 0x49c1
0000495C  655F              gs pop edi
0000495E  6E                outsb
0000495F  6F                outsd
00004960  64655F            gs pop edi
00004963  626173            bound esp,[ecx+0x73]
00004966  6553              gs push ebx
00004968  305F52            xor [edi+0x52],bl
0000496B  53                push ebx
0000496C  5F                pop edi
0000496D  40                inc eax
0000496E  40                inc eax
0000496F  47                inc edi
00004970  4C                dec esp
00004971  49                dec ecx
00004972  42                inc edx
00004973  43                inc ebx
00004974  58                pop eax
00004975  58                pop eax
00004976  5F                pop edi
00004977  332E              xor ebp,[esi]
00004979  3400              xor al,0x0
0000497B  5F                pop edi
0000497C  5A                pop edx
0000497D  4E                dec esi
0000497E  53                push ebx
0000497F  7438              jz 0x49b9
00004981  5F                pop edi
00004982  52                push edx
00004983  625F74            bound ebx,[edi+0x74]
00004986  7265              jc 0x49ed
00004988  6549              gs dec ecx
0000498A  69695374395F49    imul ebp,[ecx+0x53],dword 0x495f3974
00004991  64656E            gs outsb
00004994  7469              jz 0x49ff
00004996  7479              jz 0x4a11
00004998  49                dec ecx
00004999  69455374346C65    imul eax,[ebp+0x53],dword 0x656c3474
000049A0  7373              jnc 0x4a15
000049A2  49                dec ecx
000049A3  69455361496945    imul eax,[ebp+0x53],dword 0x45694961
000049AA  45                inc ebp
000049AB  44                inc esp
000049AC  324576            xor al,[ebp+0x76]
000049AF  005F5A            add [edi+0x5a],bl
000049B2  4E                dec esi
000049B3  395F5F            cmp [edi+0x5f],ebx
000049B6  676E              a16 outsb
000049B8  755F              jnz 0x4a19
000049BA  637878            arpl [eax+0x78],di
000049BD  3133              xor [ebx],esi
000049BF  6E                outsb
000049C0  65775F            gs ja 0x4a22
000049C3  61                popa
000049C4  6C                insb
000049C5  6C                insb
000049C6  6F                outsd
000049C7  636174            arpl [ecx+0x74],sp
000049CA  6F                outsd
000049CB  7249              jc 0x4a16
000049CD  69453764657374    imul eax,[ebp+0x37],dword 0x74736564
000049D4  726F              jc 0x4a45
000049D6  7945              jns 0x4a1d
000049D8  50                push eax
000049D9  69005F5A4E53      imul eax,[eax],dword 0x534e5a5f
000049DF  61                popa
000049E0  49                dec ecx
000049E1  53                push ebx
000049E2  7431              jz 0x4a15
000049E4  335F52            xor ebx,[edi+0x52]
000049E7  625F74            bound ebx,[edi+0x74]
000049EA  7265              jc 0x4a51
000049EC  655F              gs pop edi
000049EE  6E                outsb
000049EF  6F                outsd
000049F0  646549            gs dec ecx
000049F3  69454543314576    imul eax,[ebp+0x45],dword 0x76453143
000049FA  005F5A            add [edi+0x5a],bl
000049FD  4E                dec esi
000049FE  53                push ebx
000049FF  7434              jz 0x4a35
00004A01  7061              jo 0x4a64
00004A03  69724953743137    imul esi,[edx+0x49],dword 0x37317453
00004A0A  5F                pop edi
00004A0B  52                push edx
00004A0C  625F74            bound ebx,[edi+0x74]
00004A0F  7265              jc 0x4a76
00004A11  655F              gs pop edi
00004A13  6974657261746F72  imul esi,[ebp+0x72],dword 0x726f7461
00004A1B  49                dec ecx
00004A1C  69456245433245    imul eax,[ebp+0x62],dword 0x45324345
00004A23  52                push edx
00004A24  4B                dec ebx
00004A25  53                push ebx
00004A26  315F52            xor [edi+0x52],ebx
00004A29  4B                dec ebx
00004A2A  6200              bound eax,[eax]
00004A2C  5F                pop edi
00004A2D  5A                pop edx
00004A2E  4E                dec esi
00004A2F  53                push ebx
00004A30  7438              jz 0x4a6a
00004A32  5F                pop edi
00004A33  52                push edx
00004A34  625F74            bound ebx,[edi+0x74]
00004A37  7265              jc 0x4a9e
00004A39  6549              gs dec ecx
00004A3B  69695374395F49    imul ebp,[ecx+0x53],dword 0x495f3974
00004A42  64656E            gs outsb
00004A45  7469              jz 0x4ab0
00004A47  7479              jz 0x4ac2
00004A49  49                dec ecx
00004A4A  69455374346C65    imul eax,[ebp+0x53],dword 0x656c3474
00004A51  7373              jnc 0x4ac6
00004A53  49                dec ecx
00004A54  69455361496945    imul eax,[ebp+0x53],dword 0x45694961
00004A5B  45                inc ebp
00004A5C  385F53            cmp [edi+0x53],bl
00004A5F  5F                pop edi
00004A60  7661              jna 0x4ac3
00004A62  6C                insb
00004A63  7565              jnz 0x4aca
00004A65  45                inc ebp
00004A66  50                push eax
00004A67  4B                dec ebx
00004A68  53                push ebx
00004A69  7431              jz 0x4a9c
00004A6B  335F52            xor ebx,[edi+0x52]
00004A6E  625F74            bound ebx,[edi+0x74]
00004A71  7265              jc 0x4ad8
00004A73  655F              gs pop edi
00004A75  6E                outsb
00004A76  6F                outsd
00004A77  646549            gs dec ecx
00004A7A  6945005F5A4E53    imul eax,[ebp+0x0],dword 0x534e5a5f
00004A81  7438              jz 0x4abb
00004A83  5F                pop edi
00004A84  52                push edx
00004A85  625F74            bound ebx,[edi+0x74]
00004A88  7265              jc 0x4aef
00004A8A  6549              gs dec ecx
00004A8C  69695374395F49    imul ebp,[ecx+0x53],dword 0x495f3974
00004A93  64656E            gs outsb
00004A96  7469              jz 0x4b01
00004A98  7479              jz 0x4b13
00004A9A  49                dec ecx
00004A9B  69455374346C65    imul eax,[ebp+0x53],dword 0x656c3474
00004AA2  7373              jnc 0x4b17
00004AA4  49                dec ecx
00004AA5  69455361496945    imul eax,[ebp+0x53],dword 0x45694961
00004AAC  45                inc ebp
00004AAD  37                aaa
00004AAE  5F                pop edi
00004AAF  4D                dec ebp
00004AB0  5F                pop edi
00004AB1  726F              jc 0x4b22
00004AB3  6F                outsd
00004AB4  7445              jz 0x4afb
00004AB6  7600              jna 0x4ab8
00004AB8  5F                pop edi
00004AB9  5A                pop edx
00004ABA  4E                dec esi
00004ABB  53                push ebx
00004ABC  69727345526940    imul esi,[edx+0x73],dword 0x40695245
00004AC3  40                inc eax
00004AC4  47                inc edi
00004AC5  4C                dec esp
00004AC6  49                dec ecx
00004AC7  42                inc edx
00004AC8  43                inc ebx
00004AC9  58                pop eax
00004ACA  58                pop eax
00004ACB  5F                pop edi
00004ACC  332E              xor ebp,[esi]
00004ACE  3400              xor al,0x0
00004AD0  5F                pop edi
00004AD1  5A                pop edx
00004AD2  4E                dec esi
00004AD3  4B                dec ebx
00004AD4  53                push ebx
00004AD5  7438              jz 0x4b0f
00004AD7  5F                pop edi
00004AD8  52                push edx
00004AD9  625F74            bound ebx,[edi+0x74]
00004ADC  7265              jc 0x4b43
00004ADE  6549              gs dec ecx
00004AE0  69695374395F49    imul ebp,[ecx+0x53],dword 0x495f3974
00004AE7  64656E            gs outsb
00004AEA  7469              jz 0x4b55
00004AEC  7479              jz 0x4b67
00004AEE  49                dec ecx
00004AEF  69455374346C65    imul eax,[ebp+0x53],dword 0x656c3474
00004AF6  7373              jnc 0x4b6b
00004AF8  49                dec ecx
00004AF9  69455361496945    imul eax,[ebp+0x53],dword 0x45694961
00004B00  45                inc ebp
00004B01  3473              xor al,0x73
00004B03  697A654576005F    imul edi,[edx+0x65],dword 0x5f007645
00004B0A  5A                pop edx
00004B0B  4E                dec esi
00004B0C  53                push ebx
00004B0D  7438              jz 0x4b47
00004B0F  5F                pop edi
00004B10  52                push edx
00004B11  625F74            bound ebx,[edi+0x74]
00004B14  7265              jc 0x4b7b
00004B16  6549              gs dec ecx
00004B18  69695374395F49    imul ebp,[ecx+0x53],dword 0x495f3974
00004B1F  64656E            gs outsb
00004B22  7469              jz 0x4b8d
00004B24  7479              jz 0x4b9f
00004B26  49                dec ecx
00004B27  69455374346C65    imul eax,[ebp+0x53],dword 0x656c3474
00004B2E  7373              jnc 0x4ba3
00004B30  49                dec ecx
00004B31  69455361496945    imul eax,[ebp+0x53],dword 0x45694961
00004B38  45                inc ebp
00004B39  37                aaa
00004B3A  5F                pop edi
00004B3B  53                push ebx
00004B3C  5F                pop edi
00004B3D  6C                insb
00004B3E  65667445          gs o16 jz 0x4b87
00004B42  50                push eax
00004B43  53                push ebx
00004B44  7431              jz 0x4b77
00004B46  385F52            cmp [edi+0x52],bl
00004B49  625F74            bound ebx,[edi+0x74]
00004B4C  7265              jc 0x4bb3
00004B4E  655F              gs pop edi
00004B50  6E                outsb
00004B51  6F                outsd
00004B52  64655F            gs pop edi
00004B55  626173            bound esp,[ecx+0x73]
00004B58  65005F5A          add [gs:edi+0x5a],bl
00004B5C  4E                dec esi
00004B5D  53                push ebx
00004B5E  7434              jz 0x4b94
00004B60  7061              jo 0x4bc3
00004B62  69724950537431    imul esi,[edx+0x49],dword 0x31745350
00004B69  385F52            cmp [edi+0x52],bl
00004B6C  625F74            bound ebx,[edi+0x74]
00004B6F  7265              jc 0x4bd6
00004B71  655F              gs pop edi
00004B73  6E                outsb
00004B74  6F                outsd
00004B75  64655F            gs pop edi
00004B78  626173            bound esp,[ecx+0x73]
00004B7B  6553              gs push ebx
00004B7D  315F45            xor [edi+0x45],ebx
00004B80  43                inc ebx
00004B81  314552            xor [ebp+0x52],eax
00004B84  4B                dec ebx
00004B85  53                push ebx
00004B86  315F53            xor [edi+0x53],ebx
00004B89  345F              xor al,0x5f
00004B8B  005F5A            add [edi+0x5a],bl
00004B8E  4E                dec esi
00004B8F  53                push ebx
00004B90  7438              jz 0x4bca
00004B92  5F                pop edi
00004B93  52                push edx
00004B94  625F74            bound ebx,[edi+0x74]
00004B97  7265              jc 0x4bfe
00004B99  6549              gs dec ecx
00004B9B  69695374395F49    imul ebp,[ecx+0x53],dword 0x495f3974
00004BA2  64656E            gs outsb
00004BA5  7469              jz 0x4c10
00004BA7  7479              jz 0x4c22
00004BA9  49                dec ecx
00004BAA  69455374346C65    imul eax,[ebp+0x53],dword 0x656c3474
00004BB1  7373              jnc 0x4c26
00004BB3  49                dec ecx
00004BB4  69455361496945    imul eax,[ebp+0x53],dword 0x45694961
00004BBB  45                inc ebp
00004BBC  43                inc ebx
00004BBD  324576            xor al,[ebp+0x76]
00004BC0  005F5A            add [edi+0x5a],bl
00004BC3  4E                dec esi
00004BC4  395F5F            cmp [edi+0x5f],ebx
00004BC7  676E              a16 outsb
00004BC9  755F              jnz 0x4c2a
00004BCB  637878            arpl [eax+0x78],di
00004BCE  3133              xor [ebx],esi
00004BD0  6E                outsb
00004BD1  65775F            gs ja 0x4c33
00004BD4  61                popa
00004BD5  6C                insb
00004BD6  6C                insb
00004BD7  6F                outsd
00004BD8  636174            arpl [ecx+0x74],sp
00004BDB  6F                outsd
00004BDC  7249              jc 0x4c27
00004BDE  53                push ebx
00004BDF  7431              jz 0x4c12
00004BE1  335F52            xor ebx,[edi+0x52]
00004BE4  625F74            bound ebx,[edi+0x74]
00004BE7  7265              jc 0x4c4e
00004BE9  655F              gs pop edi
00004BEB  6E                outsb
00004BEC  6F                outsd
00004BED  646549            gs dec ecx
00004BF0  69454538616C6C    imul eax,[ebp+0x45],dword 0x6c6c6138
00004BF7  6F                outsd
00004BF8  636174            arpl [ecx+0x74],sp
00004BFB  6545              gs inc ebp
00004BFD  6A50              push byte +0x50
00004BFF  4B                dec ebx
00004C00  7600              jna 0x4c02
00004C02  5F                pop edi
00004C03  5A                pop edx
00004C04  4E                dec esi
00004C05  53                push ebx
00004C06  7434              jz 0x4c3c
00004C08  7061              jo 0x4c6b
00004C0A  69724950537431    imul esi,[edx+0x49],dword 0x31745350
00004C11  385F52            cmp [edi+0x52],bl
00004C14  625F74            bound ebx,[edi+0x74]
00004C17  7265              jc 0x4c7e
00004C19  655F              gs pop edi
00004C1B  6E                outsb
00004C1C  6F                outsd
00004C1D  64655F            gs pop edi
00004C20  626173            bound esp,[ecx+0x73]
00004C23  6553              gs push ebx
00004C25  315F45            xor [edi+0x45],ebx
00004C28  43                inc ebx
00004C29  324552            xor al,[ebp+0x52]
00004C2C  4B                dec ebx
00004C2D  53                push ebx
00004C2E  315F53            xor [edi+0x53],ebx
00004C31  345F              xor al,0x5f
00004C33  005F5A            add [edi+0x5a],bl
00004C36  4E                dec esi
00004C37  53                push ebx
00004C38  7438              jz 0x4c72
00004C3A  5F                pop edi
00004C3B  52                push edx
00004C3C  625F74            bound ebx,[edi+0x74]
00004C3F  7265              jc 0x4ca6
00004C41  6549              gs dec ecx
00004C43  69695374395F49    imul ebp,[ecx+0x53],dword 0x495f3974
00004C4A  64656E            gs outsb
00004C4D  7469              jz 0x4cb8
00004C4F  7479              jz 0x4cca
00004C51  49                dec ecx
00004C52  69455374346C65    imul eax,[ebp+0x53],dword 0x656c3474
00004C59  7373              jnc 0x4cce
00004C5B  49                dec ecx
00004C5C  69455361496945    imul eax,[ebp+0x53],dword 0x45694961
00004C63  45                inc ebp
00004C64  3132              xor [edx],esi
00004C66  5F                pop edi
00004C67  4D                dec ebp
00004C68  5F                pop edi
00004C69  7269              jc 0x4cd4
00004C6B  6768746D6F73      push dword 0x736f6d74
00004C71  7445              jz 0x4cb8
00004C73  7600              jna 0x4c75
00004C75  5F                pop edi
00004C76  656E              gs outsb
00004C78  64005F5A          add [fs:edi+0x5a],bl
00004C7C  4E                dec esi
00004C7D  53                push ebx
00004C7E  7438              jz 0x4cb8
00004C80  5F                pop edi
00004C81  52                push edx
00004C82  625F74            bound ebx,[edi+0x74]
00004C85  7265              jc 0x4cec
00004C87  6549              gs dec ecx
00004C89  69695374395F49    imul ebp,[ecx+0x53],dword 0x495f3974
00004C90  64656E            gs outsb
00004C93  7469              jz 0x4cfe
00004C95  7479              jz 0x4d10
00004C97  49                dec ecx
00004C98  69455374346C65    imul eax,[ebp+0x53],dword 0x656c3474
00004C9F  7373              jnc 0x4d14
00004CA1  49                dec ecx
00004CA2  69455361496945    imul eax,[ebp+0x53],dword 0x45694961
00004CA9  45                inc ebp
00004CAA  365F              ss pop edi
00004CAC  53                push ebx
00004CAD  5F                pop edi
00004CAE  6B657945          imul esp,[ebp+0x79],byte +0x45
00004CB2  50                push eax
00004CB3  4B                dec ebx
00004CB4  53                push ebx
00004CB5  7431              jz 0x4ce8
00004CB7  335F52            xor ebx,[edi+0x52]
00004CBA  625F74            bound ebx,[edi+0x74]
00004CBD  7265              jc 0x4d24
00004CBF  655F              gs pop edi
00004CC1  6E                outsb
00004CC2  6F                outsd
00004CC3  646549            gs dec ecx
00004CC6  6945005F5A4E53    imul eax,[ebp+0x0],dword 0x534e5a5f
00004CCD  7438              jz 0x4d07
00004CCF  5F                pop edi
00004CD0  52                push edx
00004CD1  625F74            bound ebx,[edi+0x74]
00004CD4  7265              jc 0x4d3b
00004CD6  6549              gs dec ecx
00004CD8  69695374395F49    imul ebp,[ecx+0x53],dword 0x495f3974
00004CDF  64656E            gs outsb
00004CE2  7469              jz 0x4d4d
00004CE4  7479              jz 0x4d5f
00004CE6  49                dec ecx
00004CE7  69455374346C65    imul eax,[ebp+0x53],dword 0x656c3474
00004CEE  7373              jnc 0x4d63
00004CF0  49                dec ecx
00004CF1  69455361496945    imul eax,[ebp+0x53],dword 0x45694961
00004CF8  45                inc ebp
00004CF9  3131              xor [ecx],esi
00004CFB  5F                pop edi
00004CFC  4D                dec ebp
00004CFD  5F                pop edi
00004CFE  7075              jo 0x4d75
00004D00  745F              jz 0x4d61
00004D02  6E                outsb
00004D03  6F                outsd
00004D04  646545            gs inc ebp
00004D07  50                push eax
00004D08  53                push ebx
00004D09  7431              jz 0x4d3c
00004D0B  335F52            xor ebx,[edi+0x52]
00004D0E  625F74            bound ebx,[edi+0x74]
00004D11  7265              jc 0x4d78
00004D13  655F              gs pop edi
00004D15  6E                outsb
00004D16  6F                outsd
00004D17  646549            gs dec ecx
00004D1A  6945005F5A5374    imul eax,[ebp+0x0],dword 0x74535a5f
00004D21  3137              xor [edi],esi
00004D23  5F                pop edi
00004D24  5F                pop edi
00004D25  7468              jz 0x4d8f
00004D27  726F              jc 0x4d98
00004D29  775F              ja 0x4d8a
00004D2B  626164            bound esp,[ecx+0x64]
00004D2E  5F                pop edi
00004D2F  61                popa
00004D30  6C                insb
00004D31  6C                insb
00004D32  6F                outsd
00004D33  637640            arpl [esi+0x40],si
00004D36  40                inc eax
00004D37  47                inc edi
00004D38  4C                dec esp
00004D39  49                dec ecx
00004D3A  42                inc edx
00004D3B  43                inc ebx
00004D3C  58                pop eax
00004D3D  58                pop eax
00004D3E  5F                pop edi
00004D3F  332E              xor ebp,[esi]
00004D41  3400              xor al,0x0
00004D43  5F                pop edi
00004D44  5A                pop edx
00004D45  4E                dec esi
00004D46  53                push ebx
00004D47  7438              jz 0x4d81
00004D49  5F                pop edi
00004D4A  52                push edx
00004D4B  625F74            bound ebx,[edi+0x74]
00004D4E  7265              jc 0x4db5
00004D50  6549              gs dec ecx
00004D52  69695374395F49    imul ebp,[ecx+0x53],dword 0x495f3974
00004D59  64656E            gs outsb
00004D5C  7469              jz 0x4dc7
00004D5E  7479              jz 0x4dd9
00004D60  49                dec ecx
00004D61  69455374346C65    imul eax,[ebp+0x53],dword 0x656c3474
00004D68  7373              jnc 0x4ddd
00004D6A  49                dec ecx
00004D6B  69455361496945    imul eax,[ebp+0x53],dword 0x45694961
00004D72  45                inc ebp
00004D73  365F              ss pop edi
00004D75  53                push ebx
00004D76  5F                pop edi
00004D77  6B657945          imul esp,[ebp+0x79],byte +0x45
00004D7B  50                push eax
00004D7C  4B                dec ebx
00004D7D  53                push ebx
00004D7E  7431              jz 0x4db1
00004D80  385F52            cmp [edi+0x52],bl
00004D83  625F74            bound ebx,[edi+0x74]
00004D86  7265              jc 0x4ded
00004D88  655F              gs pop edi
00004D8A  6E                outsb
00004D8B  6F                outsd
00004D8C  64655F            gs pop edi
00004D8F  626173            bound esp,[ecx+0x73]
00004D92  65005F5A          add [gs:edi+0x5a],bl
00004D96  4E                dec esi
00004D97  53                push ebx
00004D98  7438              jz 0x4dd2
00004D9A  5F                pop edi
00004D9B  52                push edx
00004D9C  625F74            bound ebx,[edi+0x74]
00004D9F  7265              jc 0x4e06
00004DA1  6549              gs dec ecx
00004DA3  69695374395F49    imul ebp,[ecx+0x53],dword 0x495f3974
00004DAA  64656E            gs outsb
00004DAD  7469              jz 0x4e18
00004DAF  7479              jz 0x4e2a
00004DB1  49                dec ecx
00004DB2  69455374346C65    imul eax,[ebp+0x53],dword 0x656c3474
00004DB9  7373              jnc 0x4e2e
00004DBB  49                dec ecx
00004DBC  69455361496945    imul eax,[ebp+0x53],dword 0x45694961
00004DC3  45                inc ebp
00004DC4  44                inc esp
00004DC5  314576            xor [ebp+0x76],eax
00004DC8  005F5A            add [edi+0x5a],bl
00004DCB  4E                dec esi
00004DCC  53                push ebx
00004DCD  7438              jz 0x4e07
00004DCF  5F                pop edi
00004DD0  52                push edx
00004DD1  625F74            bound ebx,[edi+0x74]
00004DD4  7265              jc 0x4e3b
00004DD6  6549              gs dec ecx
00004DD8  69695374395F49    imul ebp,[ecx+0x53],dword 0x495f3974
00004DDF  64656E            gs outsb
00004DE2  7469              jz 0x4e4d
00004DE4  7479              jz 0x4e5f
00004DE6  49                dec ecx
00004DE7  69455374346C65    imul eax,[ebp+0x53],dword 0x656c3474
00004DEE  7373              jnc 0x4e63
00004DF0  49                dec ecx
00004DF1  69455361496945    imul eax,[ebp+0x53],dword 0x45694961
00004DF8  45                inc ebp
00004DF9  31345F            xor [edi+ebx*2],esi
00004DFC  4D                dec ebp
00004DFD  5F                pop edi
00004DFE  637265            arpl [edx+0x65],si
00004E01  61                popa
00004E02  7465              jz 0x4e69
00004E04  5F                pop edi
00004E05  6E                outsb
00004E06  6F                outsd
00004E07  646545            gs inc ebp
00004E0A  52                push edx
00004E0B  4B                dec ebx
00004E0C  69005F5A4E39      imul eax,[eax],dword 0x394e5a5f
00004E12  5F                pop edi
00004E13  5F                pop edi
00004E14  676E              a16 outsb
00004E16  755F              jnz 0x4e77
00004E18  637878            arpl [eax+0x78],di
00004E1B  3133              xor [ebx],esi
00004E1D  6E                outsb
00004E1E  65775F            gs ja 0x4e80
00004E21  61                popa
00004E22  6C                insb
00004E23  6C                insb
00004E24  6F                outsd
00004E25  636174            arpl [ecx+0x74],sp
00004E28  6F                outsd
00004E29  7249              jc 0x4e74
00004E2B  694539636F6E73    imul eax,[ebp+0x39],dword 0x736e6f63
00004E32  7472              jz 0x4ea6
00004E34  7563              jnz 0x4e99
00004E36  7445              jz 0x4e7d
00004E38  50                push eax
00004E39  69524B69005F65    imul edx,[edx+0x4b],dword 0x655f0069
00004E40  6461              fs popa
00004E42  7461              jz 0x4ea5
00004E44  005F5F            add [edi+0x5f],bl
00004E47  677878            js 0x4ec2
00004E4A  5F                pop edi
00004E4B  7065              jo 0x4eb2
00004E4D  7273              jc 0x4ec2
00004E4F  6F                outsd
00004E50  6E                outsb
00004E51  61                popa
00004E52  6C                insb
00004E53  6974795F76304040  imul esi,[ecx+edi*2+0x5f],dword 0x40403076
00004E5B  43                inc ebx
00004E5C  58                pop eax
00004E5D  58                pop eax
00004E5E  41                inc ecx
00004E5F  42                inc edx
00004E60  49                dec ecx
00004E61  5F                pop edi
00004E62  312E              xor [esi],ebp
00004E64  3300              xor eax,[eax]
00004E66  5F                pop edi
00004E67  5A                pop edx
00004E68  4E                dec esi
00004E69  53                push ebx
00004E6A  61                popa
00004E6B  49                dec ecx
00004E6C  69454431457600    imul eax,[ebp+0x44],dword 0x764531
00004E73  5F                pop edi
00004E74  55                push ebp
00004E75  6E                outsb
00004E76  7769              ja 0x4ee1
00004E78  6E                outsb
00004E79  645F              fs pop edi
00004E7B  52                push edx
00004E7C  657375            gs jnc 0x4ef4
00004E7F  6D                insd
00004E80  6540              gs inc eax
00004E82  40                inc eax
00004E83  47                inc edi
00004E84  43                inc ebx
00004E85  43                inc ebx
00004E86  5F                pop edi
00004E87  332E              xor ebp,[esi]
00004E89  3000              xor [eax],al
00004E8B  5F                pop edi
00004E8C  5A                pop edx
00004E8D  4E                dec esi
00004E8E  53                push ebx
00004E8F  7438              jz 0x4ec9
00004E91  5F                pop edi
00004E92  52                push edx
00004E93  625F74            bound ebx,[edi+0x74]
00004E96  7265              jc 0x4efd
00004E98  6549              gs dec ecx
00004E9A  69695374395F49    imul ebp,[ecx+0x53],dword 0x495f3974
00004EA1  64656E            gs outsb
00004EA4  7469              jz 0x4f0f
00004EA6  7479              jz 0x4f21
00004EA8  49                dec ecx
00004EA9  69455374346C65    imul eax,[ebp+0x53],dword 0x656c3474
00004EB0  7373              jnc 0x4f25
00004EB2  49                dec ecx
00004EB3  69455361496945    imul eax,[ebp+0x53],dword 0x45694961
00004EBA  45                inc ebp
00004EBB  385F53            cmp [edi+0x53],bl
00004EBE  5F                pop edi
00004EBF  7661              jna 0x4f22
00004EC1  6C                insb
00004EC2  7565              jnz 0x4f29
00004EC4  45                inc ebp
00004EC5  50                push eax
00004EC6  4B                dec ebx
00004EC7  53                push ebx
00004EC8  7431              jz 0x4efb
00004ECA  385F52            cmp [edi+0x52],bl
00004ECD  625F74            bound ebx,[edi+0x74]
00004ED0  7265              jc 0x4f37
00004ED2  655F              gs pop edi
00004ED4  6E                outsb
00004ED5  6F                outsd
00004ED6  64655F            gs pop edi
00004ED9  626173            bound esp,[ecx+0x73]
00004EDC  65005F5A          add [gs:edi+0x5a],bl
00004EE0  4E                dec esi
00004EE1  53                push ebx
00004EE2  7431              jz 0x4f15
00004EE4  37                aaa
00004EE5  5F                pop edi
00004EE6  52                push edx
00004EE7  625F74            bound ebx,[edi+0x74]
00004EEA  7265              jc 0x4f51
00004EEC  655F              gs pop edi
00004EEE  6974657261746F72  imul esi,[ebp+0x72],dword 0x726f7461
00004EF6  49                dec ecx
00004EF7  69454331455053    imul eax,[ebp+0x43],dword 0x53504531
00004EFE  7431              jz 0x4f31
00004F00  335F52            xor ebx,[edi+0x52]
00004F03  625F74            bound ebx,[edi+0x74]
00004F06  7265              jc 0x4f6d
00004F08  655F              gs pop edi
00004F0A  6E                outsb
00004F0B  6F                outsd
00004F0C  646549            gs dec ecx
00004F0F  6945005F5A4E53    imul eax,[ebp+0x0],dword 0x534e5a5f
00004F16  7438              jz 0x4f50
00004F18  5F                pop edi
00004F19  52                push edx
00004F1A  625F74            bound ebx,[edi+0x74]
00004F1D  7265              jc 0x4f84
00004F1F  6549              gs dec ecx
00004F21  69695374395F49    imul ebp,[ecx+0x53],dword 0x495f3974
00004F28  64656E            gs outsb
00004F2B  7469              jz 0x4f96
00004F2D  7479              jz 0x4fa8
00004F2F  49                dec ecx
00004F30  69455374346C65    imul eax,[ebp+0x53],dword 0x656c3474
00004F37  7373              jnc 0x4fac
00004F39  49                dec ecx
00004F3A  69455361496945    imul eax,[ebp+0x53],dword 0x45694961
00004F41  45                inc ebp
00004F42  3133              xor [ebx],esi
00004F44  5F                pop edi
00004F45  52                push edx
00004F46  625F74            bound ebx,[edi+0x74]
00004F49  7265              jc 0x4fb0
00004F4B  655F              gs pop edi
00004F4D  696D706C495333    imul ebp,[ebp+0x70],dword 0x3353496c
00004F54  5F                pop edi
00004F55  4C                dec esp
00004F56  6230              bound esi,[eax]
00004F58  45                inc ebp
00004F59  45                inc ebp
00004F5A  3133              xor [ebx],esi
00004F5C  5F                pop edi
00004F5D  4D                dec ebp
00004F5E  5F                pop edi
00004F5F  696E697469616C    imul ebp,[esi+0x69],dword 0x6c616974
00004F66  697A654576005F    imul edi,[edx+0x65],dword 0x5f007645
00004F6D  5F                pop edi
00004F6E  693638362E67      imul esi,[esi],dword 0x672e3638
00004F74  65745F            gs jz 0x4fd6
00004F77  7063              jo 0x4fdc
00004F79  5F                pop edi
00004F7A  7468              jz 0x4fe4
00004F7C  756E              jnz 0x4fec
00004F7E  6B2E62            imul ebp,[esi],byte +0x62
00004F81  7800              js 0x4f83
00004F83  6D                insd
00004F84  61                popa
00004F85  696E005F696E69    imul ebp,[esi+0x0],dword 0x696e695f
00004F8C  7400              jz 0x4f8e
00004F8E  5F                pop edi
00004F8F  5A                pop edx
00004F90  4E                dec esi
00004F91  395F5F            cmp [edi+0x5f],ebx
00004F94  676E              a16 outsb
00004F96  755F              jnz 0x4ff7
00004F98  637878            arpl [eax+0x78],di
00004F9B  3133              xor [ebx],esi
00004F9D  6E                outsb
00004F9E  65775F            gs ja 0x5000
00004FA1  61                popa
00004FA2  6C                insb
00004FA3  6C                insb
00004FA4  6F                outsd
00004FA5  636174            arpl [ecx+0x74],sp
00004FA8  6F                outsd
00004FA9  7249              jc 0x4ff4
00004FAB  69454332457600    imul eax,[ebp+0x43],dword 0x764532
