00000000  7F45              jg 0x47
00000002  4C                dec esp
00000003  46                inc esi
00000004  0101              add [ecx],eax
00000006  0100              add [eax],eax
00000008  0000              add [eax],al
0000000A  0000              add [eax],al
0000000C  0000              add [eax],al
0000000E  0000              add [eax],al
00000010  0200              add al,[eax]
00000012  0300              add eax,[eax]
00000014  0100              add [eax],eax
00000016  0000              add [eax],al
00000018  C0870408340000    rol byte [edi+0x340804],byte 0x0
0000001F  00F8              add al,bh
00000021  43                inc ebx
00000022  0000              add [eax],al
00000024  0000              add [eax],al
00000026  0000              add [eax],al
00000028  3400              xor al,0x0
0000002A  2000              and [eax],al
0000002C  0800              or [eax],al
0000002E  2800              sub [eax],al
00000030  260023            add [es:ebx],ah
00000033  0006              add [esi],al
00000035  0000              add [eax],al
00000037  003400            add [eax+eax],dh
0000003A  0000              add [eax],al
0000003C  3480              xor al,0x80
0000003E  0408              add al,0x8
00000040  3480              xor al,0x80
00000042  0408              add al,0x8
00000044  0001              add [ecx],al
00000046  0000              add [eax],al
00000048  0001              add [ecx],al
0000004A  0000              add [eax],al
0000004C  0500000004        add eax,0x4000000
00000051  0000              add [eax],al
00000053  0003              add [ebx],al
00000055  0000              add [eax],al
00000057  003401            add [ecx+eax],dh
0000005A  0000              add [eax],al
0000005C  3481              xor al,0x81
0000005E  0408              add al,0x8
00000060  3481              xor al,0x81
00000062  0408              add al,0x8
00000064  1300              adc eax,[eax]
00000066  0000              add [eax],al
00000068  1300              adc eax,[eax]
0000006A  0000              add [eax],al
0000006C  0400              add al,0x0
0000006E  0000              add [eax],al
00000070  0100              add [eax],eax
00000072  0000              add [eax],al
00000074  0100              add [eax],eax
00000076  0000              add [eax],al
00000078  0000              add [eax],al
0000007A  0000              add [eax],al
0000007C  008004080080      add [eax-0x7ffff7fc],al
00000082  0408              add al,0x8
00000084  223A              and bh,[edx]
00000086  0000              add [eax],al
00000088  223A              and bh,[edx]
0000008A  0000              add [eax],al
0000008C  0500000000        add eax,0x0
00000091  1000              adc [eax],al
00000093  0001              add [ecx],al
00000095  0000              add [eax],al
00000097  00243A            add [edx+edi],ah
0000009A  0000              add [eax],al
0000009C  24CA              and al,0xca
0000009E  0408              add al,0x8
000000A0  24CA              and al,0xca
000000A2  0408              add al,0x8
000000A4  7C01              jl 0xa7
000000A6  0000              add [eax],al
000000A8  088002000600      or [eax+0x60002],al
000000AE  0000              add [eax],al
000000B0  0010              add [eax],dl
000000B2  0000              add [eax],al
000000B4  0200              add al,[eax]
000000B6  0000              add [eax],al
000000B8  3C3A              cmp al,0x3a
000000BA  0000              add [eax],al
000000BC  3CCA              cmp al,0xca
000000BE  0408              add al,0x8
000000C0  3CCA              cmp al,0xca
000000C2  0408              add al,0x8
000000C4  E000              loopne 0xc6
000000C6  0000              add [eax],al
000000C8  E000              loopne 0xca
000000CA  0000              add [eax],al
000000CC  06                push es
000000CD  0000              add [eax],al
000000CF  000400            add [eax+eax],al
000000D2  0000              add [eax],al
000000D4  0400              add al,0x0
000000D6  0000              add [eax],al
000000D8  48                dec eax
000000D9  0100              add [eax],eax
000000DB  004881            add [eax-0x7f],cl
000000DE  0408              add al,0x8
000000E0  48                dec eax
000000E1  81040820000000    add dword [eax+ecx],0x20
000000E8  2000              and [eax],al
000000EA  0000              add [eax],al
000000EC  0400              add al,0x0
000000EE  0000              add [eax],al
000000F0  0400              add al,0x0
000000F2  0000              add [eax],al
000000F4  50                push eax
000000F5  E574              in eax,0x74
000000F7  643828            cmp [fs:eax],ch
000000FA  0000              add [eax],al
000000FC  38A8040838A8      cmp [eax-0x57c7f7fc],ch
00000102  0408              add al,0x8
00000104  2C03              sub al,0x3
00000106  0000              add [eax],al
00000108  2C03              sub al,0x3
0000010A  0000              add [eax],al
0000010C  0400              add al,0x0
0000010E  0000              add [eax],al
00000110  0400              add al,0x0
00000112  0000              add [eax],al
00000114  51                push ecx
00000115  E574              in eax,0x74
00000117  640000            add [fs:eax],al
0000011A  0000              add [eax],al
0000011C  0000              add [eax],al
0000011E  0000              add [eax],al
00000120  0000              add [eax],al
00000122  0000              add [eax],al
00000124  0000              add [eax],al
00000126  0000              add [eax],al
00000128  0000              add [eax],al
0000012A  0000              add [eax],al
0000012C  06                push es
0000012D  0000              add [eax],al
0000012F  000400            add [eax+eax],al
00000132  0000              add [eax],al
00000134  2F                das
00000135  6C                insb
00000136  69622F6C642D6C    imul esp,[edx+0x2f],dword 0x6c2d646c
0000013D  696E75782E736F    imul ebp,[esi+0x75],dword 0x6f732e78
00000144  2E3200            xor al,[cs:eax]
00000147  000400            add [eax+eax],al
0000014A  0000              add [eax],al
0000014C  1000              adc [eax],al
0000014E  0000              add [eax],al
00000150  0100              add [eax],eax
00000152  0000              add [eax],al
00000154  47                inc edi
00000155  4E                dec esi
00000156  55                push ebp
00000157  0000              add [eax],al
00000159  0000              add [eax],al
0000015B  0002              add [edx],al
0000015D  0000              add [eax],al
0000015F  0000              add [eax],al
00000161  0000              add [eax],al
00000163  0000              add [eax],al
00000165  0000              add [eax],al
00000167  0011              add [ecx],dl
00000169  0000              add [eax],al
0000016B  0016              add [esi],dl
0000016D  0000              add [eax],al
0000016F  000F              add [edi],cl
00000171  0000              add [eax],al
00000173  0011              add [ecx],dl
00000175  0000              add [eax],al
00000177  0000              add [eax],al
00000179  0000              add [eax],al
0000017B  0012              add [edx],dl
0000017D  0000              add [eax],al
0000017F  001400            add [eax+eax],dl
00000182  0000              add [eax],al
00000184  0000              add [eax],al
00000186  0000              add [eax],al
00000188  1500000013        adc eax,0x13000000
0000018D  0000              add [eax],al
0000018F  0010              add [eax],dl
00000191  0000              add [eax],al
00000193  0002              add [edx],al
00000195  0000              add [eax],al
00000197  000E              add [esi],cl
00000199  0000              add [eax],al
0000019B  0000              add [eax],al
0000019D  0000              add [eax],al
0000019F  000B              add [ebx],cl
000001A1  0000              add [eax],al
000001A3  000C00            add [eax+eax],cl
000001A6  0000              add [eax],al
000001A8  0300              add eax,[eax]
000001AA  0000              add [eax],al
000001AC  0400              add al,0x0
000001AE  0000              add [eax],al
000001B0  0000              add [eax],al
000001B2  0000              add [eax],al
000001B4  0000              add [eax],al
000001B6  0000              add [eax],al
000001B8  0000              add [eax],al
000001BA  0000              add [eax],al
000001BC  0000              add [eax],al
000001BE  0000              add [eax],al
000001C0  0000              add [eax],al
000001C2  0000              add [eax],al
000001C4  0000              add [eax],al
000001C6  0000              add [eax],al
000001C8  0000              add [eax],al
000001CA  0000              add [eax],al
000001CC  0000              add [eax],al
000001CE  0000              add [eax],al
000001D0  0500000000        add eax,0x0
000001D5  0000              add [eax],al
000001D7  0006              add [esi],al
000001D9  0000              add [eax],al
000001DB  0000              add [eax],al
000001DD  0000              add [eax],al
000001DF  0008              add [eax],cl
000001E1  0000              add [eax],al
000001E3  000A              add [edx],cl
000001E5  0000              add [eax],al
000001E7  0007              add [edi],al
000001E9  0000              add [eax],al
000001EB  0000              add [eax],al
000001ED  0000              add [eax],al
000001EF  0000              add [eax],al
000001F1  0000              add [eax],al
000001F3  0000              add [eax],al
000001F5  0000              add [eax],al
000001F7  0000              add [eax],al
000001F9  0000              add [eax],al
000001FB  000D00000009      add [dword 0x9000000],cl
00000201  0000              add [eax],al
00000203  0001              add [ecx],al
00000205  0000              add [eax],al
00000207  0000              add [eax],al
00000209  0000              add [eax],al
0000020B  0000              add [eax],al
0000020D  0000              add [eax],al
0000020F  0000              add [eax],al
00000211  0000              add [eax],al
00000213  0000              add [eax],al
00000215  0000              add [eax],al
00000217  0000              add [eax],al
00000219  0000              add [eax],al
0000021B  00A5000000A0      add [ebp-0x60000000],ah
00000221  CB                retf
00000222  0408              add al,0x8
00000224  90                nop
00000225  0000              add [eax],al
00000227  0011              add [ecx],dl
00000229  0019              add [ecx],bl
0000022B  00FF              add bh,bh
0000022D  0000              add [eax],al
0000022F  0000              add [eax],al
00000231  0000              add [eax],al
00000233  0000              add [eax],al
00000235  0000              add [eax],al
00000237  0012              add [edx],dl
00000239  0000              add [eax],al
0000023B  007D01            add [ebp+0x1],bh
0000023E  0000              add [eax],al
00000240  0000              add [eax],al
00000242  0000              add [eax],al
00000244  0000              add [eax],al
00000246  0000              add [eax],al
00000248  1200              adc al,[eax]
0000024A  0000              add [eax],al
0000024C  61                popa
0000024D  0000              add [eax],al
0000024F  0000              add [eax],al
00000251  0000              add [eax],al
00000253  0000              add [eax],al
00000255  0000              add [eax],al
00000257  0020              add [eax],ah
00000259  0000              add [eax],al
0000025B  00C6              add dh,al
0000025D  0000              add [eax],al
0000025F  0000              add [eax],al
00000261  0000              add [eax],al
00000263  0000              add [eax],al
00000265  0000              add [eax],al
00000267  0020              add [eax],ah
00000269  0000              add [eax],al
0000026B  0010              add [eax],dl
0000026D  0000              add [eax],al
0000026F  0000              add [eax],al
00000271  0000              add [eax],al
00000273  0000              add [eax],al
00000275  0000              add [eax],al
00000277  0012              add [edx],dl
00000279  0000              add [eax],al
0000027B  009700000000      add [edi+0x0],dl
00000281  0000              add [eax],al
00000283  0000              add [eax],al
00000285  0000              add [eax],al
00000287  0012              add [edx],dl
00000289  0000              add [eax],al
0000028B  00AE00000000      add [esi+0x0],ch
00000291  0000              add [eax],al
00000293  0000              add [eax],al
00000295  0000              add [eax],al
00000297  0012              add [edx],dl
00000299  0000              add [eax],al
0000029B  008A01000000      add [edx+0x1],cl
000002A1  0000              add [eax],al
000002A3  0000              add [eax],al
000002A5  0000              add [eax],al
000002A7  0012              add [edx],dl
000002A9  0000              add [eax],al
000002AB  004300            add [ebx+0x0],al
000002AE  0000              add [eax],al
000002B0  308704080000      xor [edi+0x804],al
000002B6  0000              add [eax],al
000002B8  1200              adc al,[eax]
000002BA  0000              add [eax],al
000002BC  17                pop ss
000002BD  0000              add [eax],al
000002BF  0000              add [eax],al
000002C1  0000              add [eax],al
000002C3  0000              add [eax],al
000002C5  0000              add [eax],al
000002C7  0020              add [eax],ah
000002C9  0000              add [eax],al
000002CB  006701            add [edi+0x1],ah
000002CE  0000              add [eax],al
000002D0  FC                cld
000002D1  A7                cmpsd
000002D2  0408              add al,0x8
000002D4  0400              add al,0x0
000002D6  0000              add [eax],al
000002D8  1100              adc [eax],eax
000002DA  0E                push cs
000002DB  00E5              add ch,ah
000002DD  0000              add [eax],al
000002DF  0000              add [eax],al
000002E1  0000              add [eax],al
000002E3  0000              add [eax],al
000002E5  0000              add [eax],al
000002E7  0020              add [eax],ah
000002E9  0000              add [eax],al
000002EB  007601            add [esi+0x1],dh
000002EE  0000              add [eax],al
000002F0  0000              add [eax],al
000002F2  0000              add [eax],al
000002F4  0000              add [eax],al
000002F6  0000              add [eax],al
000002F8  1200              adc al,[eax]
000002FA  0000              add [eax],al
000002FC  5B                pop ebx
000002FD  0000              add [eax],al
000002FF  0000              add [eax],al
00000301  0000              add [eax],al
00000303  0000              add [eax],al
00000305  0000              add [eax],al
00000307  0012              add [edx],dl
00000309  0000              add [eax],al
0000030B  00DA              add dl,bl
0000030D  0000              add [eax],al
0000030F  0000              add [eax],al
00000311  0000              add [eax],al
00000313  0000              add [eax],al
00000315  0000              add [eax],al
00000317  0012              add [edx],dl
00000319  0000              add [eax],al
0000031B  0033              add [ebx],dh
0000031D  0000              add [eax],al
0000031F  0000              add [eax],al
00000321  0000              add [eax],al
00000323  0000              add [eax],al
00000325  0000              add [eax],al
00000327  0012              add [edx],dl
00000329  0000              add [eax],al
0000032B  001D01000000      add [dword 0x1],bl
00000331  0000              add [eax],al
00000333  0000              add [eax],al
00000335  0000              add [eax],al
00000337  0012              add [edx],dl
00000339  0000              add [eax],al
0000033B  008500000000      add [ebp+0x0],al
00000341  0000              add [eax],al
00000343  0000              add [eax],al
00000345  0000              add [eax],al
00000347  0012              add [edx],dl
00000349  0000              add [eax],al
0000034B  007000            add [eax+0x0],dh
0000034E  0000              add [eax],al
00000350  A087040800        mov al,[0x80487]
00000355  0000              add [eax],al
00000357  0012              add [edx],dl
00000359  0000              add [eax],al
0000035B  004E01            add [esi+0x1],cl
0000035E  0000              add [eax],al
00000360  0000              add [eax],al
00000362  0000              add [eax],al
00000364  0000              add [eax],al
00000366  0000              add [eax],al
00000368  1200              adc al,[eax]
0000036A  0000              add [eax],al
0000036C  006C6962          add [ecx+ebp*2+0x62],ch
00000370  7374              jnc 0x3e6
00000372  64632B            arpl [fs:ebx],bp
00000375  2B2E              sub ebp,[esi]
00000377  736F              jnc 0x3e8
00000379  2E36005F5A        add [ss:edi+0x5a],bl
0000037E  646C              fs insb
00000380  50                push eax
00000381  7600              jna 0x383
00000383  5F                pop edi
00000384  49                dec ecx
00000385  54                push esp
00000386  4D                dec ebp
00000387  5F                pop edi
00000388  64657265          gs jc 0x3f1
0000038C  676973746572544D  imul esi,[bp+di+0x74],dword 0x4d547265
00000394  43                inc ebx
00000395  6C                insb
00000396  6F                outsd
00000397  6E                outsb
00000398  6554              gs push esp
0000039A  61                popa
0000039B  626C6500          bound ebp,[ebp+0x0]
0000039F  5F                pop edi
000003A0  5F                pop edi
000003A1  637861            arpl [eax+0x61],di
000003A4  5F                pop edi
000003A5  656E              gs outsb
000003A7  645F              fs pop edi
000003A9  636174            arpl [ecx+0x74],sp
000003AC  636800            arpl [eax+0x0],bp
000003AF  5F                pop edi
000003B0  5A                pop edx
000003B1  4E                dec esi
000003B2  53                push ebx
000003B3  7438              jz 0x3ed
000003B5  696F735F626173    imul ebp,[edi+0x73],dword 0x7361625f
000003BC  653449            gs xor al,0x49
000003BF  6E                outsb
000003C0  697444314576005F  imul esi,[esp+eax*2+0x31],dword 0x5f007645
000003C8  5A                pop edx
000003C9  6E                outsb
000003CA  776A              ja 0x436
000003CC  005F5F            add [edi+0x5f],bl
000003CF  676D              a16 insd
000003D1  6F                outsd
000003D2  6E                outsb
000003D3  5F                pop edi
000003D4  7374              jnc 0x44a
000003D6  61                popa
000003D7  7274              jc 0x44d
000003D9  5F                pop edi
000003DA  5F                pop edi
000003DB  005F5F            add [edi+0x5f],bl
000003DE  677878            js 0x459
000003E1  5F                pop edi
000003E2  7065              jo 0x449
000003E4  7273              jc 0x459
000003E6  6F                outsd
000003E7  6E                outsb
000003E8  61                popa
000003E9  6C                insb
000003EA  6974795F7630005F  imul esi,[ecx+edi*2+0x5f],dword 0x5f003076
000003F2  5F                pop edi
000003F3  637861            arpl [eax+0x61],di
000003F6  5F                pop edi
000003F7  626567            bound esp,[ebp+0x67]
000003FA  696E5F63617463    imul ebp,[esi+0x5f],dword 0x63746163
00000401  68005F5F63        push dword 0x635f5f00
00000406  7861              js 0x469
00000408  5F                pop edi
00000409  7265              jc 0x470
0000040B  7468              jz 0x475
0000040D  726F              jc 0x47e
0000040F  7700              ja 0x411
00000411  5F                pop edi
00000412  5A                pop edx
00000413  53                push ebx
00000414  7433              jz 0x449
00000416  63696E            arpl [ecx+0x6e],bp
00000419  005F5A            add [edi+0x5a],bl
0000041C  4E                dec esi
0000041D  53                push ebx
0000041E  7438              jz 0x458
00000420  696F735F626173    imul ebp,[edi+0x73],dword 0x7361625f
00000427  653449            gs xor al,0x49
0000042A  6E                outsb
0000042B  697443314576005F  imul esi,[ebx+eax*2+0x31],dword 0x5f007645
00000433  4A                dec edx
00000434  765F              jna 0x495
00000436  52                push edx
00000437  6567697374657243  imul esi,[gs:bp+di+0x74],dword 0x6c437265
         -6C
00000440  61                popa
00000441  7373              jnc 0x4b6
00000443  657300            gs jnc 0x446
00000446  5F                pop edi
00000447  5A                pop edx
00000448  4E                dec esi
00000449  53                push ebx
0000044A  69727345526900    imul esi,[edx+0x73],dword 0x695245
00000451  5F                pop edi
00000452  49                dec ecx
00000453  54                push esp
00000454  4D                dec ebp
00000455  5F                pop edi
00000456  7265              jc 0x4bd
00000458  676973746572544D  imul esi,[bp+di+0x74],dword 0x4d547265
00000460  43                inc ebx
00000461  6C                insb
00000462  6F                outsd
00000463  6E                outsb
00000464  6554              gs push esp
00000466  61                popa
00000467  626C6500          bound ebp,[ebp+0x0]
0000046B  5F                pop edi
0000046C  5A                pop edx
0000046D  53                push ebx
0000046E  7432              jz 0x4a2
00000470  305F5F            xor [edi+0x5f],bl
00000473  7468              jz 0x4dd
00000475  726F              jc 0x4e6
00000477  775F              ja 0x4d8
00000479  6C                insb
0000047A  656E              gs outsb
0000047C  677468            jz 0x4e7
0000047F  5F                pop edi
00000480  657272            gs jc 0x4f5
00000483  6F                outsd
00000484  7250              jc 0x4d6
00000486  4B                dec ebx
00000487  6300              arpl [eax],ax
00000489  5F                pop edi
0000048A  5A                pop edx
0000048B  53                push ebx
0000048C  7431              jz 0x4bf
0000048E  37                aaa
0000048F  5F                pop edi
00000490  5F                pop edi
00000491  7468              jz 0x4fb
00000493  726F              jc 0x504
00000495  775F              ja 0x4f6
00000497  626164            bound esp,[ecx+0x64]
0000049A  5F                pop edi
0000049B  61                popa
0000049C  6C                insb
0000049D  6C                insb
0000049E  6F                outsd
0000049F  637600            arpl [esi+0x0],si
000004A2  6C                insb
000004A3  69626D2E736F2E    imul esp,[edx+0x6d],dword 0x2e6f732e
000004AA  36006C6962        add [ss:ecx+ebp*2+0x62],ch
000004AF  6763635F          arpl [bp+di+0x5f],sp
000004B3  732E              jnc 0x4e3
000004B5  736F              jnc 0x526
000004B7  2E3100            xor [cs:eax],eax
000004BA  5F                pop edi
000004BB  55                push ebp
000004BC  6E                outsb
000004BD  7769              ja 0x528
000004BF  6E                outsb
000004C0  645F              fs pop edi
000004C2  52                push edx
000004C3  657375            gs jnc 0x53b
000004C6  6D                insd
000004C7  65006C6962        add [gs:ecx+ebp*2+0x62],ch
000004CC  632E              arpl [esi],bp
000004CE  736F              jnc 0x53f
000004D0  2E36005F49        add [ss:edi+0x49],bl
000004D5  4F                dec edi
000004D6  5F                pop edi
000004D7  7374              jnc 0x54d
000004D9  64696E5F75736564  imul ebp,[fs:esi+0x5f],dword 0x64657375
000004E1  007072            add [eax+0x72],dh
000004E4  696E7466005F5F    imul ebp,[esi+0x74],dword 0x5f5f0066
000004EB  637861            arpl [eax+0x61],di
000004EE  5F                pop edi
000004EF  61                popa
000004F0  7465              jz 0x557
000004F2  7869              js 0x55d
000004F4  7400              jz 0x4f6
000004F6  5F                pop edi
000004F7  5F                pop edi
000004F8  6C                insb
000004F9  6962635F737461    imul esp,[edx+0x63],dword 0x6174735f
00000500  7274              jc 0x576
00000502  5F                pop edi
00000503  6D                insd
00000504  61                popa
00000505  696E004743435F    imul ebp,[esi+0x0],dword 0x5f434347
0000050C  332E              xor ebp,[esi]
0000050E  3000              xor [eax],al
00000510  47                inc edi
00000511  4C                dec esp
00000512  49                dec ecx
00000513  42                inc edx
00000514  43                inc ebx
00000515  5F                pop edi
00000516  322E              xor ch,[esi]
00000518  3000              xor [eax],al
0000051A  47                inc edi
0000051B  4C                dec esp
0000051C  49                dec ecx
0000051D  42                inc edx
0000051E  43                inc ebx
0000051F  5F                pop edi
00000520  322E              xor ch,[esi]
00000522  312E              xor [esi],ebp
00000524  3300              xor eax,[eax]
00000526  43                inc ebx
00000527  58                pop eax
00000528  58                pop eax
00000529  41                inc ecx
0000052A  42                inc edx
0000052B  49                dec ecx
0000052C  5F                pop edi
0000052D  312E              xor [esi],ebp
0000052F  3300              xor eax,[eax]
00000531  47                inc edi
00000532  4C                dec esp
00000533  49                dec ecx
00000534  42                inc edx
00000535  43                inc ebx
00000536  58                pop eax
00000537  58                pop eax
00000538  5F                pop edi
00000539  332E              xor ebp,[esi]
0000053B  3400              xor al,0x0
0000053D  0000              add [eax],al
0000053F  0002              add [edx],al
00000541  0002              add [edx],al
00000543  0003              add [ebx],al
00000545  0000              add [eax],al
00000547  0000              add [eax],al
00000549  0002              add [edx],al
0000054B  000400            add [eax+eax],al
0000054E  0200              add al,[eax]
00000550  0500020000        add eax,0x200
00000555  0001              add [ecx],al
00000557  0000              add [eax],al
00000559  000500020002      add [dword 0x2000200],al
0000055F  000400            add [eax+eax],al
00000562  0200              add al,[eax]
00000564  0400              add al,0x0
00000566  0400              add al,0x0
00000568  06                push es
00000569  0000              add [eax],al
0000056B  0001              add [ecx],al
0000056D  0001              add [ecx],al
0000056F  004001            add [eax+0x1],al
00000572  0000              add [eax],al
00000574  1000              adc [eax],al
00000576  0000              add [eax],al
00000578  2000              and [eax],al
0000057A  0000              add [eax],al
0000057C  50                push eax
0000057D  26790B            es jns 0x58b
00000580  0000              add [eax],al
00000582  06                push es
00000583  009C0100000000    add [ecx+eax+0x0],bl
0000058A  0000              add [eax],al
0000058C  0100              add [eax],eax
0000058E  0200              add al,[eax]
00000590  5D                pop ebp
00000591  0100              add [eax],eax
00000593  0010              add [eax],dl
00000595  0000              add [eax],al
00000597  0030              add [eax],dh
00000599  0000              add [eax],al
0000059B  0010              add [eax],dl
0000059D  69690D00000500    imul ebp,[ecx+0xd],dword 0x50000
000005A4  A4                movsb
000005A5  0100              add [eax],eax
000005A7  0010              add [eax],dl
000005A9  0000              add [eax],al
000005AB  00731F            add [ebx+0x1f],dh
000005AE  690900000300      imul ecx,[ecx],dword 0x30000
000005B4  AE                scasb
000005B5  0100              add [eax],eax
000005B7  0000              add [eax],al
000005B9  0000              add [eax],al
000005BB  0001              add [ecx],al
000005BD  0002              add [edx],al
000005BF  0001              add [ecx],al
000005C1  0000              add [eax],al
000005C3  0010              add [eax],dl
000005C5  0000              add [eax],al
000005C7  0000              add [eax],al
000005C9  0000              add [eax],al
000005CB  00D3              add bl,dl
000005CD  AF                scasd
000005CE  6B0500000400BA    imul eax,[dword 0x40000],byte -0x46
000005D5  0100              add [eax],eax
000005D7  0010              add [eax],dl
000005D9  0000              add [eax],al
000005DB  00742992          add [ecx+ebp-0x6e],dh
000005DF  0800              or [eax],al
000005E1  0002              add [edx],al
000005E3  00C5              add ch,al
000005E5  0100              add [eax],eax
000005E7  0000              add [eax],al
000005E9  0000              add [eax],al
000005EB  001CCB            add [ebx+ecx*8],bl
000005EE  0408              add al,0x8
000005F0  06                push es
000005F1  0400              add al,0x0
000005F3  00A0CB040805      add [eax+0x50804cb],ah
000005F9  0100              add [eax],eax
000005FB  002CCB            add [ebx+ecx*8],ch
000005FE  0408              add al,0x8
00000600  07                pop es
00000601  0200              add al,[eax]
00000603  0030              add [eax],dh
00000605  CB                retf
00000606  0408              add al,0x8
00000608  07                pop es
00000609  0300              add eax,[eax]
0000060B  0034CB            add [ebx+ecx*8],dh
0000060E  0408              add al,0x8
00000610  07                pop es
00000611  0400              add al,0x0
00000613  0038              add [eax],bh
00000615  CB                retf
00000616  0408              add al,0x8
00000618  07                pop es
00000619  06                push es
0000061A  0000              add [eax],al
0000061C  3CCB              cmp al,0xcb
0000061E  0408              add al,0x8
00000620  07                pop es
00000621  07                pop es
00000622  0000              add [eax],al
00000624  40                inc eax
00000625  CB                retf
00000626  0408              add al,0x8
00000628  07                pop es
00000629  0800              or [eax],al
0000062B  0044CB04          add [ebx+ecx*8+0x4],al
0000062F  0807              or [edi],al
00000631  0900              or [eax],eax
00000633  0048CB            add [eax-0x35],cl
00000636  0408              add al,0x8
00000638  07                pop es
00000639  0A00              or al,[eax]
0000063B  004CCB04          add [ebx+ecx*8+0x4],cl
0000063F  0807              or [edi],al
00000641  0E                push cs
00000642  0000              add [eax],al
00000644  50                push eax
00000645  CB                retf
00000646  0408              add al,0x8
00000648  07                pop es
00000649  0F0000            sldt [eax]
0000064C  54                push esp
0000064D  CB                retf
0000064E  0408              add al,0x8
00000650  07                pop es
00000651  1000              adc [eax],al
00000653  0058CB            add [eax-0x35],bl
00000656  0408              add al,0x8
00000658  07                pop es
00000659  1100              adc [eax],eax
0000065B  005CCB04          add [ebx+ecx*8+0x4],bl
0000065F  0807              or [edi],al
00000661  1200              adc al,[eax]
00000663  0060CB            add [eax-0x35],ah
00000666  0408              add al,0x8
00000668  07                pop es
00000669  1300              adc eax,[eax]
0000066B  0064CB04          add [ebx+ecx*8+0x4],ah
0000066F  0807              or [edi],al
00000671  1400              adc al,0x0
00000673  0068CB            add [eax-0x35],ch
00000676  0408              add al,0x8
00000678  07                pop es
00000679  1500005589        adc eax,0x89550000
0000067E  E553              in eax,0x53
00000680  83EC04            sub esp,byte +0x4
00000683  E800000000        call 0x688
00000688  5B                pop ebx
00000689  81C398440000      add ebx,0x4498
0000068F  8B93FCFFFFFF      mov edx,[ebx-0x4]
00000695  85D2              test edx,edx
00000697  7405              jz 0x69e
00000699  E842000000        call 0x6e0
0000069E  E80D020000        call 0x8b0
000006A3  E808210000        call 0x27b0
000006A8  58                pop eax
000006A9  5B                pop ebx
000006AA  C9                leave
000006AB  C3                ret
000006AC  0000              add [eax],al
000006AE  0000              add [eax],al
000006B0  FF3524CB0408      push dword [dword 0x804cb24]
000006B6  FF2528CB0408      jmp [dword 0x804cb28]
000006BC  0000              add [eax],al
000006BE  0000              add [eax],al
000006C0  FF252CCB0408      jmp [dword 0x804cb2c]
000006C6  6800000000        push dword 0x0
000006CB  E9E0FFFFFF        jmp 0x6b0
000006D0  FF2530CB0408      jmp [dword 0x804cb30]
000006D6  6808000000        push dword 0x8
000006DB  E9D0FFFFFF        jmp 0x6b0
000006E0  FF2534CB0408      jmp [dword 0x804cb34]
000006E6  6810000000        push dword 0x10
000006EB  E9C0FFFFFF        jmp 0x6b0
000006F0  FF2538CB0408      jmp [dword 0x804cb38]
000006F6  6818000000        push dword 0x18
000006FB  E9B0FFFFFF        jmp 0x6b0
00000700  FF253CCB0408      jmp [dword 0x804cb3c]
00000706  6820000000        push dword 0x20
0000070B  E9A0FFFFFF        jmp 0x6b0
00000710  FF2540CB0408      jmp [dword 0x804cb40]
00000716  6828000000        push dword 0x28
0000071B  E990FFFFFF        jmp 0x6b0
00000720  FF2544CB0408      jmp [dword 0x804cb44]
00000726  6830000000        push dword 0x30
0000072B  E980FFFFFF        jmp 0x6b0
00000730  FF2548CB0408      jmp [dword 0x804cb48]
00000736  6838000000        push dword 0x38
0000073B  E970FFFFFF        jmp 0x6b0
00000740  FF254CCB0408      jmp [dword 0x804cb4c]
00000746  6840000000        push dword 0x40
0000074B  E960FFFFFF        jmp 0x6b0
00000750  FF2550CB0408      jmp [dword 0x804cb50]
00000756  6848000000        push dword 0x48
0000075B  E950FFFFFF        jmp 0x6b0
00000760  FF2554CB0408      jmp [dword 0x804cb54]
00000766  6850000000        push dword 0x50
0000076B  E940FFFFFF        jmp 0x6b0
00000770  FF2558CB0408      jmp [dword 0x804cb58]
00000776  6858000000        push dword 0x58
0000077B  E930FFFFFF        jmp 0x6b0
00000780  FF255CCB0408      jmp [dword 0x804cb5c]
00000786  6860000000        push dword 0x60
0000078B  E920FFFFFF        jmp 0x6b0
00000790  FF2560CB0408      jmp [dword 0x804cb60]
00000796  6868000000        push dword 0x68
0000079B  E910FFFFFF        jmp 0x6b0
000007A0  FF2564CB0408      jmp [dword 0x804cb64]
000007A6  6870000000        push dword 0x70
000007AB  E900FFFFFF        jmp 0x6b0
000007B0  FF2568CB0408      jmp [dword 0x804cb68]
000007B6  6878000000        push dword 0x78
000007BB  E9F0FEFFFF        jmp 0x6b0
000007C0  31ED              xor ebp,ebp
000007C2  5E                pop esi
000007C3  89E1              mov ecx,esp
000007C5  83E4F0            and esp,byte -0x10
000007C8  50                push eax
000007C9  54                push esp
000007CA  52                push edx
000007CB  6840A70408        push dword 0x804a740
000007D0  6850A70408        push dword 0x804a750
000007D5  51                push ecx
000007D6  56                push esi
000007D7  68728E0408        push dword 0x8048e72
000007DC  E83FFFFFFF        call 0x720
000007E1  F4                hlt
000007E2  90                nop
000007E3  90                nop
000007E4  6690              xchg ax,ax
000007E6  6690              xchg ax,ax
000007E8  6690              xchg ax,ax
000007EA  6690              xchg ax,ax
000007EC  6690              xchg ax,ax
000007EE  6690              xchg ax,ax
000007F0  B8A3CB0408        mov eax,0x804cba3
000007F5  2DA0CB0408        sub eax,0x804cba0
000007FA  83F806            cmp eax,byte +0x6
000007FD  7701              ja 0x800
000007FF  C3                ret
00000800  B800000000        mov eax,0x0
00000805  85C0              test eax,eax
00000807  74F6              jz 0x7ff
00000809  55                push ebp
0000080A  89E5              mov ebp,esp
0000080C  83EC18            sub esp,byte +0x18
0000080F  C70424A0CB0408    mov dword [esp],0x804cba0
00000816  FFD0              call eax
00000818  C9                leave
00000819  C3                ret
0000081A  8DB600000000      lea esi,[esi+0x0]
00000820  B8A0CB0408        mov eax,0x804cba0
00000825  2DA0CB0408        sub eax,0x804cba0
0000082A  C1F802            sar eax,byte 0x2
0000082D  89C2              mov edx,eax
0000082F  C1EA1F            shr edx,byte 0x1f
00000832  01D0              add eax,edx
00000834  D1F8              sar eax,1
00000836  7501              jnz 0x839
00000838  C3                ret
00000839  BA00000000        mov edx,0x0
0000083E  85D2              test edx,edx
00000840  74F6              jz 0x838
00000842  55                push ebp
00000843  89E5              mov ebp,esp
00000845  83EC18            sub esp,byte +0x18
00000848  89442404          mov [esp+0x4],eax
0000084C  C70424A0CB0408    mov dword [esp],0x804cba0
00000853  FFD2              call edx
00000855  C9                leave
00000856  C3                ret
00000857  89F6              mov esi,esi
00000859  8DBC2700000000    lea edi,[edi+0x0]
00000860  803D30CC040800    cmp byte [dword 0x804cc30],0x0
00000867  7544              jnz 0x8ad
00000869  55                push ebp
0000086A  89E5              mov ebp,esp
0000086C  53                push ebx
0000086D  BB34CA0408        mov ebx,0x804ca34
00000872  52                push edx
00000873  81EB30CA0408      sub ebx,0x804ca30
00000879  A134CC0408        mov eax,[0x804cc34]
0000087E  C1FB02            sar ebx,byte 0x2
00000881  4B                dec ebx
00000882  39D8              cmp eax,ebx
00000884  7318              jnc 0x89e
00000886  6690              xchg ax,ax
00000888  40                inc eax
00000889  A334CC0408        mov [0x804cc34],eax
0000088E  FF148530CA0408    call [eax*4+0x804ca30]
00000895  A134CC0408        mov eax,[0x804cc34]
0000089A  39D8              cmp eax,ebx
0000089C  72EA              jc 0x888
0000089E  E84DFFFFFF        call 0x7f0
000008A3  C60530CC040801    mov byte [dword 0x804cc30],0x1
000008AA  58                pop eax
000008AB  5B                pop ebx
000008AC  5D                pop ebp
000008AD  C3                ret
000008AE  6690              xchg ax,ax
000008B0  8B0D38CA0408      mov ecx,[dword 0x804ca38]
000008B6  85C9              test ecx,ecx
000008B8  741E              jz 0x8d8
000008BA  B800000000        mov eax,0x0
000008BF  85C0              test eax,eax
000008C1  7415              jz 0x8d8
000008C3  55                push ebp
000008C4  89E5              mov ebp,esp
000008C6  83EC18            sub esp,byte +0x18
000008C9  C7042438CA0408    mov dword [esp],0x804ca38
000008D0  FFD0              call eax
000008D2  C9                leave
000008D3  E948FFFFFF        jmp 0x820
000008D8  E943FFFFFF        jmp 0x820
000008DD  6690              xchg ax,ax
000008DF  90                nop
000008E0  55                push ebp
000008E1  89E5              mov ebp,esp
000008E3  53                push ebx
000008E4  81ECF4000000      sub esp,0xf4
000008EA  8D8538FFFFFF      lea eax,[ebp-0xc8]
000008F0  890424            mov [esp],eax
000008F3  E8C8070000        call 0x10c0
000008F8  8D8538FFFFFF      lea eax,[ebp-0xc8]
000008FE  89442408          mov [esp+0x8],eax
00000902  8D8547FFFFFF      lea eax,[ebp-0xb9]
00000908  89442404          mov [esp+0x4],eax
0000090C  8D8528FFFFFF      lea eax,[ebp-0xd8]
00000912  890424            mov [esp],eax
00000915  E812080000        call 0x112c
0000091A  8D8538FFFFFF      lea eax,[ebp-0xc8]
00000920  890424            mov [esp],eax
00000923  E8AC070000        call 0x10d4
00000928  8D8558FFFFFF      lea eax,[ebp-0xa8]
0000092E  C744240800000000  mov dword [esp+0x8],0x0
00000936  C744240400000000  mov dword [esp+0x4],0x0
0000093E  890424            mov [esp],eax
00000941  E85D080000        call 0x11a3
00000946  83EC04            sub esp,byte +0x4
00000949  8D8D48FFFFFF      lea ecx,[ebp-0xb8]
0000094F  8B8558FFFFFF      mov eax,[ebp-0xa8]
00000955  8B955CFFFFFF      mov edx,[ebp-0xa4]
0000095B  8944240C          mov [esp+0xc],eax
0000095F  89542410          mov [esp+0x10],edx
00000963  B800000000        mov eax,0x0
00000968  BA00000000        mov edx,0x0
0000096D  89442404          mov [esp+0x4],eax
00000971  89542408          mov [esp+0x8],edx
00000975  890C24            mov [esp],ecx
00000978  E84C080000        call 0x11c9
0000097D  83EC04            sub esp,byte +0x4
00000980  8D8548FFFFFF      lea eax,[ebp-0xb8]
00000986  89442404          mov [esp+0x4],eax
0000098A  8D8528FFFFFF      lea eax,[ebp-0xd8]
00000990  890424            mov [esp],eax
00000993  E864080000        call 0x11fc
00000998  E90A040000        jmp 0xda7
0000099D  8D8528FFFFFF      lea eax,[ebp-0xd8]
000009A3  890424            mov [esp],eax
000009A6  E8C3080000        call 0x126e
000009AB  DD00              fld qword [eax]
000009AD  D9E0              fchs
000009AF  DD5DE0            fstp qword [ebp-0x20]
000009B2  8D8528FFFFFF      lea eax,[ebp-0xd8]
000009B8  890424            mov [esp],eax
000009BB  E8AE080000        call 0x126e
000009C0  8B4008            mov eax,[eax+0x8]
000009C3  8945DC            mov [ebp-0x24],eax
000009C6  8D8528FFFFFF      lea eax,[ebp-0xd8]
000009CC  890424            mov [esp],eax
000009CF  E89A080000        call 0x126e
000009D4  8B400C            mov eax,[eax+0xc]
000009D7  8945D8            mov [ebp-0x28],eax
000009DA  8D8528FFFFFF      lea eax,[ebp-0xd8]
000009E0  890424            mov [esp],eax
000009E3  E89A080000        call 0x1282
000009E8  8B55D8            mov edx,[ebp-0x28]
000009EB  89D0              mov eax,edx
000009ED  C1E002            shl eax,byte 0x2
000009F0  01D0              add eax,edx
000009F2  8D0C8500000000    lea ecx,[eax*4+0x0]
000009F9  01C8              add eax,ecx
000009FB  C1E002            shl eax,byte 0x2
000009FE  01D0              add eax,edx
00000A00  8B55DC            mov edx,[ebp-0x24]
00000A03  01D0              add eax,edx
00000A05  DD04C5600B0608    fld qword [eax*8+0x8060b60]
00000A0C  DD0578CB0408      fld qword [dword 0x804cb78]
00000A12  DC45E0            fadd qword [ebp-0x20]
00000A15  DAE9              fucompp
00000A17  DFE0              fnstsw ax
00000A19  F6C445            test ah,0x45
00000A1C  7505              jnz 0xa23
00000A1E  E984030000        jmp 0xda7
00000A23  8B55D8            mov edx,[ebp-0x28]
00000A26  89D0              mov eax,edx
00000A28  C1E002            shl eax,byte 0x2
00000A2B  01D0              add eax,edx
00000A2D  8D0C8500000000    lea ecx,[eax*4+0x0]
00000A34  01C8              add eax,ecx
00000A36  C1E002            shl eax,byte 0x2
00000A39  01D0              add eax,edx
00000A3B  8B55DC            mov edx,[ebp-0x24]
00000A3E  8D0C10            lea ecx,[eax+edx]
00000A41  8B45E0            mov eax,[ebp-0x20]
00000A44  8B55E4            mov edx,[ebp-0x1c]
00000A47  8904CD600B0608    mov [ecx*8+0x8060b60],eax
00000A4E  8914CD640B0608    mov [ecx*8+0x8060b64],edx
00000A55  8B55D8            mov edx,[ebp-0x28]
00000A58  89D0              mov eax,edx
00000A5A  C1E002            shl eax,byte 0x2
00000A5D  01D0              add eax,edx
00000A5F  8D0C8500000000    lea ecx,[eax*4+0x0]
00000A66  01C8              add eax,ecx
00000A68  C1E002            shl eax,byte 0x2
00000A6B  01D0              add eax,edx
00000A6D  8B55DC            mov edx,[ebp-0x24]
00000A70  01D0              add eax,edx
00000A72  8B048560CC0408    mov eax,[eax*4+0x804cc60]
00000A79  8945D4            mov [ebp-0x2c],eax
00000A7C  8B55D8            mov edx,[ebp-0x28]
00000A7F  89D0              mov eax,edx
00000A81  C1E002            shl eax,byte 0x2
00000A84  01D0              add eax,edx
00000A86  8D0C8500000000    lea ecx,[eax*4+0x0]
00000A8D  01C8              add eax,ecx
00000A8F  C1E002            shl eax,byte 0x2
00000A92  01D0              add eax,edx
00000A94  8B55DC            mov edx,[ebp-0x24]
00000A97  01D0              add eax,edx
00000A99  8B0485E06B0508    mov eax,[eax*4+0x8056be0]
00000AA0  8945D0            mov [ebp-0x30],eax
00000AA3  A148CC0408        mov eax,[0x804cc48]
00000AA8  898524FFFFFF      mov [ebp-0xdc],eax
00000AAE  DB8524FFFFFF      fild dword [ebp-0xdc]
00000AB4  DD45E0            fld qword [ebp-0x20]
00000AB7  DD0530A80408      fld qword [dword 0x804a830]
00000ABD  DEC9              fmulp st1
00000ABF  DEE9              fsubp st1
00000AC1  DD9D60FFFFFF      fstp qword [ebp-0xa0]
00000AC7  B800000000        mov eax,0x0
00000ACC  BA00000000        mov edx,0x0
00000AD1  898568FFFFFF      mov [ebp-0x98],eax
00000AD7  89956CFFFFFF      mov [ebp-0x94],edx
00000ADD  8D8560FFFFFF      lea eax,[ebp-0xa0]
00000AE3  89442404          mov [esp+0x4],eax
00000AE7  8D8568FFFFFF      lea eax,[ebp-0x98]
00000AED  890424            mov [esp],eax
00000AF0  E8E4070000        call 0x12d9
00000AF5  8B5004            mov edx,[eax+0x4]
00000AF8  8B00              mov eax,[eax]
00000AFA  8945C8            mov [ebp-0x38],eax
00000AFD  8955CC            mov [ebp-0x34],edx
00000B00  C745F400000000    mov dword [ebp-0xc],0x0
00000B07  E991020000        jmp 0xd9d
00000B0C  8B45F4            mov eax,[ebp-0xc]
00000B0F  8B148580CB0408    mov edx,[eax*4+0x804cb80]
00000B16  8B45DC            mov eax,[ebp-0x24]
00000B19  01D0              add eax,edx
00000B1B  8945C4            mov [ebp-0x3c],eax
00000B1E  8B45F4            mov eax,[ebp-0xc]
00000B21  8B148590CB0408    mov edx,[eax*4+0x804cb90]
00000B28  8B45D8            mov eax,[ebp-0x28]
00000B2B  01D0              add eax,edx
00000B2D  8945C0            mov [ebp-0x40],eax
00000B30  837DC400          cmp dword [ebp-0x3c],byte +0x0
00000B34  780A              js 0xb40
00000B36  A144CC0408        mov eax,[0x804cc44]
00000B3B  3945C4            cmp [ebp-0x3c],eax
00000B3E  7C05              jl 0xb45
00000B40  E955020000        jmp 0xd9a
00000B45  837DC000          cmp dword [ebp-0x40],byte +0x0
00000B49  780A              js 0xb55
00000B4B  A140CC0408        mov eax,[0x804cc40]
00000B50  3945C0            cmp [ebp-0x40],eax
00000B53  7C05              jl 0xb5a
00000B55  E940020000        jmp 0xd9a
00000B5A  8B55C0            mov edx,[ebp-0x40]
00000B5D  89D0              mov eax,edx
00000B5F  C1E002            shl eax,byte 0x2
00000B62  01D0              add eax,edx
00000B64  8D0C8500000000    lea ecx,[eax*4+0x0]
00000B6B  01C8              add eax,ecx
00000B6D  C1E002            shl eax,byte 0x2
00000B70  01D0              add eax,edx
00000B72  8B55C4            mov edx,[ebp-0x3c]
00000B75  01D0              add eax,edx
00000B77  8B048560CC0408    mov eax,[eax*4+0x804cc60]
00000B7E  8945BC            mov [ebp-0x44],eax
00000B81  8B55C0            mov edx,[ebp-0x40]
00000B84  89D0              mov eax,edx
00000B86  C1E002            shl eax,byte 0x2
00000B89  01D0              add eax,edx
00000B8B  8D0C8500000000    lea ecx,[eax*4+0x0]
00000B92  01C8              add eax,ecx
00000B94  C1E002            shl eax,byte 0x2
00000B97  01D0              add eax,edx
00000B99  8B55C4            mov edx,[ebp-0x3c]
00000B9C  01D0              add eax,edx
00000B9E  8B0485E06B0508    mov eax,[eax*4+0x8056be0]
00000BA5  8945B8            mov [ebp-0x48],eax
00000BA8  8B45BC            mov eax,[ebp-0x44]
00000BAB  83E832            sub eax,byte +0x32
00000BAE  3B45D0            cmp eax,[ebp-0x30]
00000BB1  7D05              jnl 0xbb8
00000BB3  E9E2010000        jmp 0xd9a
00000BB8  8B45BC            mov eax,[ebp-0x44]
00000BBB  83E832            sub eax,byte +0x32
00000BBE  3B45B8            cmp eax,[ebp-0x48]
00000BC1  7D05              jnl 0xbc8
00000BC3  E9D2010000        jmp 0xd9a
00000BC8  8B45D4            mov eax,[ebp-0x2c]
00000BCB  83E832            sub eax,byte +0x32
00000BCE  3B45B8            cmp eax,[ebp-0x48]
00000BD1  7D05              jnl 0xbd8
00000BD3  E9C2010000        jmp 0xd9a
00000BD8  8B45E0            mov eax,[ebp-0x20]
00000BDB  8B55E4            mov edx,[ebp-0x1c]
00000BDE  8945E8            mov [ebp-0x18],eax
00000BE1  8955EC            mov [ebp-0x14],edx
00000BE4  8B45BC            mov eax,[ebp-0x44]
00000BE7  83E832            sub eax,byte +0x32
00000BEA  898524FFFFFF      mov [ebp-0xdc],eax
00000BF0  DB8524FFFFFF      fild dword [ebp-0xdc]
00000BF6  DD45C8            fld qword [ebp-0x38]
00000BF9  DAE9              fucompp
00000BFB  DFE0              fnstsw ax
00000BFD  F6C445            test ah,0x45
00000C00  7527              jnz 0xc29
00000C02  8B45BC            mov eax,[ebp-0x44]
00000C05  83E832            sub eax,byte +0x32
00000C08  898524FFFFFF      mov [ebp-0xdc],eax
00000C0E  DB8524FFFFFF      fild dword [ebp-0xdc]
00000C14  DD45C8            fld qword [ebp-0x38]
00000C17  DEE1              fsubrp st1
00000C19  DD0530A80408      fld qword [dword 0x804a830]
00000C1F  DEF9              fdivp st1
00000C21  DD45E8            fld qword [ebp-0x18]
00000C24  DEC1              faddp st1
00000C26  DD5DE8            fstp qword [ebp-0x18]
00000C29  DD0578CB0408      fld qword [dword 0x804cb78]
00000C2F  DD45E8            fld qword [ebp-0x18]
00000C32  D9C9              fxch st1
00000C34  DAE9              fucompp
00000C36  DFE0              fnstsw ax
00000C38  F6C445            test ah,0x45
00000C3B  756A              jnz 0xca7
00000C3D  8D4580            lea eax,[ebp-0x80]
00000C40  8B55C0            mov edx,[ebp-0x40]
00000C43  89542408          mov [esp+0x8],edx
00000C47  8B55C4            mov edx,[ebp-0x3c]
00000C4A  89542404          mov [esp+0x4],edx
00000C4E  890424            mov [esp],eax
00000C51  E84D050000        call 0x11a3
00000C56  83EC04            sub esp,byte +0x4
00000C59  8D8D70FFFFFF      lea ecx,[ebp-0x90]
00000C5F  8B4580            mov eax,[ebp-0x80]
00000C62  8B5584            mov edx,[ebp-0x7c]
00000C65  8944240C          mov [esp+0xc],eax
00000C69  89542410          mov [esp+0x10],edx
00000C6D  B800000000        mov eax,0x0
00000C72  BA00000080        mov edx,0x80000000
00000C77  89442404          mov [esp+0x4],eax
00000C7B  89542408          mov [esp+0x8],edx
00000C7F  890C24            mov [esp],ecx
00000C82  E842050000        call 0x11c9
00000C87  83EC04            sub esp,byte +0x4
00000C8A  8D8570FFFFFF      lea eax,[ebp-0x90]
00000C90  89442404          mov [esp+0x4],eax
00000C94  8D8528FFFFFF      lea eax,[ebp-0xd8]
00000C9A  890424            mov [esp],eax
00000C9D  E85A050000        call 0x11fc
00000CA2  E9F3000000        jmp 0xd9a
00000CA7  A148CC0408        mov eax,[0x804cc48]
00000CAC  898524FFFFFF      mov [ebp-0xdc],eax
00000CB2  DB8524FFFFFF      fild dword [ebp-0xdc]
00000CB8  DD45E8            fld qword [ebp-0x18]
00000CBB  DD0530A80408      fld qword [dword 0x804a830]
00000CC1  DEC9              fmulp st1
00000CC3  DEE9              fsubp st1
00000CC5  8B45D0            mov eax,[ebp-0x30]
00000CC8  83C014            add eax,byte +0x14
00000CCB  898524FFFFFF      mov [ebp-0xdc],eax
00000CD1  DB8524FFFFFF      fild dword [ebp-0xdc]
00000CD7  DAE9              fucompp
00000CD9  DFE0              fnstsw ax
00000CDB  F6C445            test ah,0x45
00000CDE  7560              jnz 0xd40
00000CE0  8D4598            lea eax,[ebp-0x68]
00000CE3  8B55C0            mov edx,[ebp-0x40]
00000CE6  89542408          mov [esp+0x8],edx
00000CEA  8B55C4            mov edx,[ebp-0x3c]
00000CED  89542404          mov [esp+0x4],edx
00000CF1  890424            mov [esp],eax
00000CF4  E8AA040000        call 0x11a3
00000CF9  83EC04            sub esp,byte +0x4
00000CFC  DD45E8            fld qword [ebp-0x18]
00000CFF  DD0530A80408      fld qword [dword 0x804a830]
00000D05  DEC1              faddp st1
00000D07  D9E0              fchs
00000D09  8D4D88            lea ecx,[ebp-0x78]
00000D0C  8B4598            mov eax,[ebp-0x68]
00000D0F  8B559C            mov edx,[ebp-0x64]
00000D12  8944240C          mov [esp+0xc],eax
00000D16  89542410          mov [esp+0x10],edx
00000D1A  DD5C2404          fstp qword [esp+0x4]
00000D1E  890C24            mov [esp],ecx
00000D21  E8A3040000        call 0x11c9
00000D26  83EC04            sub esp,byte +0x4
00000D29  8D4588            lea eax,[ebp-0x78]
00000D2C  89442404          mov [esp+0x4],eax
00000D30  8D8528FFFFFF      lea eax,[ebp-0xd8]
00000D36  890424            mov [esp],eax
00000D39  E8BE040000        call 0x11fc
00000D3E  EB5A              jmp short 0xd9a
00000D40  8D45B0            lea eax,[ebp-0x50]
00000D43  8B55C0            mov edx,[ebp-0x40]
00000D46  89542408          mov [esp+0x8],edx
00000D4A  8B55C4            mov edx,[ebp-0x3c]
00000D4D  89542404          mov [esp+0x4],edx
00000D51  890424            mov [esp],eax
00000D54  E84A040000        call 0x11a3
00000D59  83EC04            sub esp,byte +0x4
00000D5C  DD45E8            fld qword [ebp-0x18]
00000D5F  D9E8              fld1
00000D61  DEC1              faddp st1
00000D63  D9E0              fchs
00000D65  8D4DA0            lea ecx,[ebp-0x60]
00000D68  8B45B0            mov eax,[ebp-0x50]
00000D6B  8B55B4            mov edx,[ebp-0x4c]
00000D6E  8944240C          mov [esp+0xc],eax
00000D72  89542410          mov [esp+0x10],edx
00000D76  DD5C2404          fstp qword [esp+0x4]
00000D7A  890C24            mov [esp],ecx
00000D7D  E847040000        call 0x11c9
00000D82  83EC04            sub esp,byte +0x4
00000D85  8D45A0            lea eax,[ebp-0x60]
00000D88  89442404          mov [esp+0x4],eax
00000D8C  8D8528FFFFFF      lea eax,[ebp-0xd8]
00000D92  890424            mov [esp],eax
00000D95  E862040000        call 0x11fc
00000D9A  FF45F4            inc dword [ebp-0xc]
00000D9D  837DF403          cmp dword [ebp-0xc],byte +0x3
00000DA1  0F8E65FDFFFF      jng near 0xb0c
00000DA7  8D8528FFFFFF      lea eax,[ebp-0xd8]
00000DAD  890424            mov [esp],eax
00000DB0  E8A5040000        call 0x125a
00000DB5  83F001            xor eax,byte +0x1
00000DB8  84C0              test al,al
00000DBA  0F85DDFBFFFF      jnz near 0x99d
00000DC0  A140CC0408        mov eax,[0x804cc40]
00000DC5  8D50FF            lea edx,[eax-0x1]
00000DC8  A144CC0408        mov eax,[0x804cc44]
00000DCD  8D58FF            lea ebx,[eax-0x1]
00000DD0  89D0              mov eax,edx
00000DD2  C1E002            shl eax,byte 0x2
00000DD5  01D0              add eax,edx
00000DD7  8D0C8500000000    lea ecx,[eax*4+0x0]
00000DDE  01C8              add eax,ecx
00000DE0  C1E002            shl eax,byte 0x2
00000DE3  01D0              add eax,edx
00000DE5  01D8              add eax,ebx
00000DE7  8B14C5640B0608    mov edx,[eax*8+0x8060b64]
00000DEE  8B04C5600B0608    mov eax,[eax*8+0x8060b60]
00000DF5  89442404          mov [esp+0x4],eax
00000DF9  89542408          mov [esp+0x8],edx
00000DFD  C7042400A80408    mov dword [esp],0x804a800
00000E04  E837F9FFFF        call 0x740
00000E09  8D8528FFFFFF      lea eax,[ebp-0xd8]
00000E0F  890424            mov [esp],eax
00000E12  E895020000        call 0x10ac
00000E17  EB54              jmp short 0xe6d
00000E19  89C3              mov ebx,eax
00000E1B  8D8538FFFFFF      lea eax,[ebp-0xc8]
00000E21  890424            mov [esp],eax
00000E24  E8AB020000        call 0x10d4
00000E29  89D8              mov eax,ebx
00000E2B  EB38              jmp short 0xe65
00000E2D  89C3              mov ebx,eax
00000E2F  8D8528FFFFFF      lea eax,[ebp-0xd8]
00000E35  890424            mov [esp],eax
00000E38  E86F020000        call 0x10ac
00000E3D  89D8              mov eax,ebx
00000E3F  EB24              jmp short 0xe65
00000E41  89C3              mov ebx,eax
00000E43  EB0E              jmp short 0xe53
00000E45  89C3              mov ebx,eax
00000E47  EB0A              jmp short 0xe53
00000E49  89C3              mov ebx,eax
00000E4B  EB06              jmp short 0xe53
00000E4D  89C3              mov ebx,eax
00000E4F  EB02              jmp short 0xe53
00000E51  89C3              mov ebx,eax
00000E53  8D8528FFFFFF      lea eax,[ebp-0xd8]
00000E59  890424            mov [esp],eax
00000E5C  E84B020000        call 0x10ac
00000E61  89D8              mov eax,ebx
00000E63  EB00              jmp short 0xe65
00000E65  890424            mov [esp],eax
00000E68  E843F9FFFF        call 0x7b0
00000E6D  8B5DFC            mov ebx,[ebp-0x4]
00000E70  C9                leave
00000E71  C3                ret
00000E72  55                push ebp
00000E73  89E5              mov ebp,esp
00000E75  83E4F0            and esp,byte -0x10
00000E78  83EC30            sub esp,byte +0x30
00000E7B  8D442410          lea eax,[esp+0x10]
00000E7F  89442404          mov [esp+0x4],eax
00000E83  C70424A0CB0408    mov dword [esp],0x804cba0
00000E8A  E8D1F8FFFF        call 0x760
00000E8F  C744242C00000000  mov dword [esp+0x2c],0x0
00000E97  E98E010000        jmp 0x102a
00000E9C  C744240448CC0408  mov dword [esp+0x4],0x804cc48
00000EA4  C70424A0CB0408    mov dword [esp],0x804cba0
00000EAB  E8B0F8FFFF        call 0x760
00000EB0  C744240440CC0408  mov dword [esp+0x4],0x804cc40
00000EB8  890424            mov [esp],eax
00000EBB  E8A0F8FFFF        call 0x760
00000EC0  C744240444CC0408  mov dword [esp+0x4],0x804cc44
00000EC8  890424            mov [esp],eax
00000ECB  E890F8FFFF        call 0x760
00000ED0  C744242800000000  mov dword [esp+0x28],0x0
00000ED8  EB54              jmp short 0xf2e
00000EDA  C744242400000000  mov dword [esp+0x24],0x0
00000EE2  EB3B              jmp short 0xf1f
00000EE4  8B542428          mov edx,[esp+0x28]
00000EE8  89D0              mov eax,edx
00000EEA  C1E002            shl eax,byte 0x2
00000EED  01D0              add eax,edx
00000EEF  8D0C8500000000    lea ecx,[eax*4+0x0]
00000EF6  01C8              add eax,ecx
00000EF8  C1E002            shl eax,byte 0x2
00000EFB  01D0              add eax,edx
00000EFD  8B542424          mov edx,[esp+0x24]
00000F01  01D0              add eax,edx
00000F03  C1E002            shl eax,byte 0x2
00000F06  0560CC0408        add eax,0x804cc60
00000F0B  89442404          mov [esp+0x4],eax
00000F0F  C70424A0CB0408    mov dword [esp],0x804cba0
00000F16  E845F8FFFF        call 0x760
00000F1B  FF442424          inc dword [esp+0x24]
00000F1F  A144CC0408        mov eax,[0x804cc44]
00000F24  39442424          cmp [esp+0x24],eax
00000F28  7CBA              jl 0xee4
00000F2A  FF442428          inc dword [esp+0x28]
00000F2E  A140CC0408        mov eax,[0x804cc40]
00000F33  39442428          cmp [esp+0x28],eax
00000F37  7CA1              jl 0xeda
00000F39  C744242000000000  mov dword [esp+0x20],0x0
00000F41  EB54              jmp short 0xf97
00000F43  C744241C00000000  mov dword [esp+0x1c],0x0
00000F4B  EB3B              jmp short 0xf88
00000F4D  8B542420          mov edx,[esp+0x20]
00000F51  89D0              mov eax,edx
00000F53  C1E002            shl eax,byte 0x2
00000F56  01D0              add eax,edx
00000F58  8D0C8500000000    lea ecx,[eax*4+0x0]
00000F5F  01C8              add eax,ecx
00000F61  C1E002            shl eax,byte 0x2
00000F64  01D0              add eax,edx
00000F66  8B54241C          mov edx,[esp+0x1c]
00000F6A  01D0              add eax,edx
00000F6C  C1E002            shl eax,byte 0x2
00000F6F  05E06B0508        add eax,0x8056be0
00000F74  89442404          mov [esp+0x4],eax
00000F78  C70424A0CB0408    mov dword [esp],0x804cba0
00000F7F  E8DCF7FFFF        call 0x760
00000F84  FF44241C          inc dword [esp+0x1c]
00000F88  A144CC0408        mov eax,[0x804cc44]
00000F8D  3944241C          cmp [esp+0x1c],eax
00000F91  7CBA              jl 0xf4d
00000F93  FF442420          inc dword [esp+0x20]
00000F97  A140CC0408        mov eax,[0x804cc40]
00000F9C  39442420          cmp [esp+0x20],eax
00000FA0  7CA1              jl 0xf43
00000FA2  C744241800000000  mov dword [esp+0x18],0x0
00000FAA  EB55              jmp short 0x1001
00000FAC  C744241400000000  mov dword [esp+0x14],0x0
00000FB4  EB3C              jmp short 0xff2
00000FB6  8B542418          mov edx,[esp+0x18]
00000FBA  89D0              mov eax,edx
00000FBC  C1E002            shl eax,byte 0x2
00000FBF  01D0              add eax,edx
00000FC1  8D0C8500000000    lea ecx,[eax*4+0x0]
00000FC8  01C8              add eax,ecx
00000FCA  C1E002            shl eax,byte 0x2
00000FCD  01D0              add eax,edx
00000FCF  8B542414          mov edx,[esp+0x14]
00000FD3  8D0C10            lea ecx,[eax+edx]
00000FD6  B800000000        mov eax,0x0
00000FDB  BA0000D041        mov edx,0x41d00000
00000FE0  8904CD600B0608    mov [ecx*8+0x8060b60],eax
00000FE7  8914CD640B0608    mov [ecx*8+0x8060b64],edx
00000FEE  FF442414          inc dword [esp+0x14]
00000FF2  A144CC0408        mov eax,[0x804cc44]
00000FF7  39442414          cmp [esp+0x14],eax
00000FFB  7CB9              jl 0xfb6
00000FFD  FF442418          inc dword [esp+0x18]
00001001  A140CC0408        mov eax,[0x804cc40]
00001006  39442418          cmp [esp+0x18],eax
0000100A  7CA0              jl 0xfac
0000100C  8B44242C          mov eax,[esp+0x2c]
00001010  40                inc eax
00001011  89442404          mov [esp+0x4],eax
00001015  C7042405A80408    mov dword [esp],0x804a805
0000101C  E81FF7FFFF        call 0x740
00001021  E8BAF8FFFF        call 0x8e0
00001026  FF44242C          inc dword [esp+0x2c]
0000102A  8B442410          mov eax,[esp+0x10]
0000102E  3944242C          cmp [esp+0x2c],eax
00001032  0F8C64FEFFFF      jl near 0xe9c
00001038  B800000000        mov eax,0x0
0000103D  EB08              jmp short 0x1047
0000103F  890424            mov [esp],eax
00001042  E869F7FFFF        call 0x7b0
00001047  C9                leave
00001048  C3                ret
00001049  55                push ebp
0000104A  89E5              mov ebp,esp
0000104C  83EC18            sub esp,byte +0x18
0000104F  837D0801          cmp dword [ebp+0x8],byte +0x1
00001053  7531              jnz 0x1086
00001055  817D0CFFFF0000    cmp dword [ebp+0xc],0xffff
0000105C  7528              jnz 0x1086
0000105E  C70424284A0708    mov dword [esp],0x8074a28
00001065  E8A6F6FFFF        call 0x710
0000106A  C744240874CB0408  mov dword [esp+0x8],0x804cb74
00001072  C7442404284A0708  mov dword [esp+0x4],0x8074a28
0000107A  C7042430870408    mov dword [esp],0x8048730
00001081  E84AF6FFFF        call 0x6d0
00001086  C9                leave
00001087  C3                ret
00001088  55                push ebp
00001089  89E5              mov ebp,esp
0000108B  83EC18            sub esp,byte +0x18
0000108E  C7442404FFFF0000  mov dword [esp+0x4],0xffff
00001096  C7042401000000    mov dword [esp],0x1
0000109D  E8A7FFFFFF        call 0x1049
000010A2  C9                leave
000010A3  C3                ret
000010A4  55                push ebp
000010A5  89E5              mov ebp,esp
000010A7  8B450C            mov eax,[ebp+0xc]
000010AA  5D                pop ebp
000010AB  C3                ret
000010AC  55                push ebp
000010AD  89E5              mov ebp,esp
000010AF  83EC18            sub esp,byte +0x18
000010B2  8B4508            mov eax,[ebp+0x8]
000010B5  890424            mov [esp],eax
000010B8  E817000000        call 0x10d4
000010BD  C9                leave
000010BE  C3                ret
000010BF  90                nop
000010C0  55                push ebp
000010C1  89E5              mov ebp,esp
000010C3  83EC18            sub esp,byte +0x18
000010C6  8B4508            mov eax,[ebp+0x8]
000010C9  890424            mov [esp],eax
000010CC  E83D020000        call 0x130e
000010D1  C9                leave
000010D2  C3                ret
000010D3  90                nop
000010D4  55                push ebp
000010D5  89E5              mov ebp,esp
000010D7  53                push ebx
000010D8  83EC14            sub esp,byte +0x14
000010DB  8B4508            mov eax,[ebp+0x8]
000010DE  890424            mov [esp],eax
000010E1  E89C020000        call 0x1382
000010E6  8B5508            mov edx,[ebp+0x8]
000010E9  8B4A04            mov ecx,[edx+0x4]
000010EC  8B5508            mov edx,[ebp+0x8]
000010EF  8B12              mov edx,[edx]
000010F1  89442408          mov [esp+0x8],eax
000010F5  894C2404          mov [esp+0x4],ecx
000010F9  891424            mov [esp],edx
000010FC  E889020000        call 0x138a
00001101  8B4508            mov eax,[ebp+0x8]
00001104  890424            mov [esp],eax
00001107  E816020000        call 0x1322
0000110C  EB17              jmp short 0x1125
0000110E  89C3              mov ebx,eax
00001110  8B4508            mov eax,[ebp+0x8]
00001113  890424            mov [esp],eax
00001116  E807020000        call 0x1322
0000111B  89D8              mov eax,ebx
0000111D  890424            mov [esp],eax
00001120  E88BF6FFFF        call 0x7b0
00001125  83C414            add esp,byte +0x14
00001128  5B                pop ebx
00001129  5D                pop ebp
0000112A  C3                ret
0000112B  90                nop
0000112C  55                push ebp
0000112D  89E5              mov ebp,esp
0000112F  53                push ebx
00001130  83EC24            sub esp,byte +0x24
00001133  8B4508            mov eax,[ebp+0x8]
00001136  8B5510            mov edx,[ebp+0x10]
00001139  89542404          mov [esp+0x4],edx
0000113D  890424            mov [esp],eax
00001140  E85F020000        call 0x13a4
00001145  8B5508            mov edx,[ebp+0x8]
00001148  8D45F0            lea eax,[ebp-0x10]
0000114B  89542404          mov [esp+0x4],edx
0000114F  890424            mov [esp],eax
00001152  E825030000        call 0x147c
00001157  83EC04            sub esp,byte +0x4
0000115A  8B5508            mov edx,[ebp+0x8]
0000115D  8D45F4            lea eax,[ebp-0xc]
00001160  89542404          mov [esp+0x4],edx
00001164  890424            mov [esp],eax
00001167  E8F0020000        call 0x145c
0000116C  83EC04            sub esp,byte +0x4
0000116F  885C2408          mov [esp+0x8],bl
00001173  8B45F0            mov eax,[ebp-0x10]
00001176  89442404          mov [esp+0x4],eax
0000117A  8B45F4            mov eax,[ebp-0xc]
0000117D  890424            mov [esp],eax
00001180  E819030000        call 0x149e
00001185  EB17              jmp short 0x119e
00001187  89C3              mov ebx,eax
00001189  8B4508            mov eax,[ebp+0x8]
0000118C  890424            mov [esp],eax
0000118F  E840FFFFFF        call 0x10d4
00001194  89D8              mov eax,ebx
00001196  890424            mov [esp],eax
00001199  E812F6FFFF        call 0x7b0
0000119E  8B5DFC            mov ebx,[ebp-0x4]
000011A1  C9                leave
000011A2  C3                ret
000011A3  55                push ebp
000011A4  89E5              mov ebp,esp
000011A6  83EC18            sub esp,byte +0x18
000011A9  8D4510            lea eax,[ebp+0x10]
000011AC  89442408          mov [esp+0x8],eax
000011B0  8D450C            lea eax,[ebp+0xc]
000011B3  89442404          mov [esp+0x4],eax
000011B7  8B4508            mov eax,[ebp+0x8]
000011BA  890424            mov [esp],eax
000011BD  E8C4030000        call 0x1586
000011C2  8B4508            mov eax,[ebp+0x8]
000011C5  C9                leave
000011C6  C20400            ret 0x4
000011C9  55                push ebp
000011CA  89E5              mov ebp,esp
000011CC  83EC28            sub esp,byte +0x28
000011CF  8B450C            mov eax,[ebp+0xc]
000011D2  8945F0            mov [ebp-0x10],eax
000011D5  8B4510            mov eax,[ebp+0x10]
000011D8  8945F4            mov [ebp-0xc],eax
000011DB  8D4514            lea eax,[ebp+0x14]
000011DE  89442408          mov [esp+0x8],eax
000011E2  8D45F0            lea eax,[ebp-0x10]
000011E5  89442404          mov [esp+0x4],eax
000011E9  8B4508            mov eax,[ebp+0x8]
000011EC  890424            mov [esp],eax
000011EF  E8AC030000        call 0x15a0
000011F4  8B4508            mov eax,[ebp+0x8]
000011F7  C9                leave
000011F8  C20400            ret 0x4
000011FB  90                nop
000011FC  55                push ebp
000011FD  89E5              mov ebp,esp
000011FF  53                push ebx
00001200  83EC24            sub esp,byte +0x24
00001203  8B4508            mov eax,[ebp+0x8]
00001206  8B550C            mov edx,[ebp+0xc]
00001209  89542404          mov [esp+0x4],edx
0000120D  890424            mov [esp],eax
00001210  E8B1030000        call 0x15c6
00001215  8B5508            mov edx,[ebp+0x8]
00001218  8D45F0            lea eax,[ebp-0x10]
0000121B  89542404          mov [esp+0x4],edx
0000121F  890424            mov [esp],eax
00001222  E855020000        call 0x147c
00001227  83EC04            sub esp,byte +0x4
0000122A  8B5508            mov edx,[ebp+0x8]
0000122D  8D45F4            lea eax,[ebp-0xc]
00001230  89542404          mov [esp+0x4],edx
00001234  890424            mov [esp],eax
00001237  E820020000        call 0x145c
0000123C  83EC04            sub esp,byte +0x4
0000123F  885C2408          mov [esp+0x8],bl
00001243  8B45F0            mov eax,[ebp-0x10]
00001246  89442404          mov [esp+0x4],eax
0000124A  8B45F4            mov eax,[ebp-0xc]
0000124D  890424            mov [esp],eax
00001250  E8E4030000        call 0x1639
00001255  8B5DFC            mov ebx,[ebp-0x4]
00001258  C9                leave
00001259  C3                ret
0000125A  55                push ebp
0000125B  89E5              mov ebp,esp
0000125D  83EC18            sub esp,byte +0x18
00001260  8B4508            mov eax,[ebp+0x8]
00001263  890424            mov [esp],eax
00001266  E875040000        call 0x16e0
0000126B  C9                leave
0000126C  C3                ret
0000126D  90                nop
0000126E  55                push ebp
0000126F  89E5              mov ebp,esp
00001271  83EC18            sub esp,byte +0x18
00001274  8B4508            mov eax,[ebp+0x8]
00001277  890424            mov [esp],eax
0000127A  E8B1040000        call 0x1730
0000127F  C9                leave
00001280  C3                ret
00001281  90                nop
00001282  55                push ebp
00001283  89E5              mov ebp,esp
00001285  53                push ebx
00001286  83EC24            sub esp,byte +0x24
00001289  8B5508            mov edx,[ebp+0x8]
0000128C  8D45F0            lea eax,[ebp-0x10]
0000128F  89542404          mov [esp+0x4],edx
00001293  890424            mov [esp],eax
00001296  E8E1010000        call 0x147c
0000129B  83EC04            sub esp,byte +0x4
0000129E  8B5508            mov edx,[ebp+0x8]
000012A1  8D45F4            lea eax,[ebp-0xc]
000012A4  89542404          mov [esp+0x4],edx
000012A8  890424            mov [esp],eax
000012AB  E8AC010000        call 0x145c
000012B0  83EC04            sub esp,byte +0x4
000012B3  885C2408          mov [esp+0x8],bl
000012B7  8B45F0            mov eax,[ebp-0x10]
000012BA  89442404          mov [esp+0x4],eax
000012BE  8B45F4            mov eax,[ebp-0xc]
000012C1  890424            mov [esp],eax
000012C4  E88F040000        call 0x1758
000012C9  8B4508            mov eax,[ebp+0x8]
000012CC  890424            mov [esp],eax
000012CF  E8D6040000        call 0x17aa
000012D4  8B5DFC            mov ebx,[ebp-0x4]
000012D7  C9                leave
000012D8  C3                ret
000012D9  55                push ebp
000012DA  89E5              mov ebp,esp
000012DC  8B4508            mov eax,[ebp+0x8]
000012DF  DD00              fld qword [eax]
000012E1  8B450C            mov eax,[ebp+0xc]
000012E4  DD00              fld qword [eax]
000012E6  DAE9              fucompp
000012E8  DFE0              fnstsw ax
000012EA  F6C445            test ah,0x45
000012ED  7505              jnz 0x12f4
000012EF  8B450C            mov eax,[ebp+0xc]
000012F2  EB03              jmp short 0x12f7
000012F4  8B4508            mov eax,[ebp+0x8]
000012F7  5D                pop ebp
000012F8  C3                ret
000012F9  90                nop
000012FA  55                push ebp
000012FB  89E5              mov ebp,esp
000012FD  83EC18            sub esp,byte +0x18
00001300  8B4508            mov eax,[ebp+0x8]
00001303  890424            mov [esp],eax
00001306  E8FB040000        call 0x1806
0000130B  C9                leave
0000130C  C3                ret
0000130D  90                nop
0000130E  55                push ebp
0000130F  89E5              mov ebp,esp
00001311  83EC18            sub esp,byte +0x18
00001314  8B4508            mov eax,[ebp+0x8]
00001317  890424            mov [esp],eax
0000131A  E8B7040000        call 0x17d6
0000131F  C9                leave
00001320  C3                ret
00001321  90                nop
00001322  55                push ebp
00001323  89E5              mov ebp,esp
00001325  53                push ebx
00001326  83EC14            sub esp,byte +0x14
00001329  8B4508            mov eax,[ebp+0x8]
0000132C  8B4008            mov eax,[eax+0x8]
0000132F  89C2              mov edx,eax
00001331  8B4508            mov eax,[ebp+0x8]
00001334  8B00              mov eax,[eax]
00001336  29C2              sub edx,eax
00001338  89D0              mov eax,edx
0000133A  C1F804            sar eax,byte 0x4
0000133D  89C2              mov edx,eax
0000133F  8B4508            mov eax,[ebp+0x8]
00001342  8B00              mov eax,[eax]
00001344  89542408          mov [esp+0x8],edx
00001348  89442404          mov [esp+0x4],eax
0000134C  8B4508            mov eax,[ebp+0x8]
0000134F  890424            mov [esp],eax
00001352  E8C3040000        call 0x181a
00001357  8B4508            mov eax,[ebp+0x8]
0000135A  890424            mov [esp],eax
0000135D  E898FFFFFF        call 0x12fa
00001362  EB17              jmp short 0x137b
00001364  89C3              mov ebx,eax
00001366  8B4508            mov eax,[ebp+0x8]
00001369  890424            mov [esp],eax
0000136C  E889FFFFFF        call 0x12fa
00001371  89D8              mov eax,ebx
00001373  890424            mov [esp],eax
00001376  E835F4FFFF        call 0x7b0
0000137B  83C414            add esp,byte +0x14
0000137E  5B                pop ebx
0000137F  5D                pop ebp
00001380  C3                ret
00001381  90                nop
00001382  55                push ebp
00001383  89E5              mov ebp,esp
00001385  8B4508            mov eax,[ebp+0x8]
00001388  5D                pop ebp
00001389  C3                ret
0000138A  55                push ebp
0000138B  89E5              mov ebp,esp
0000138D  83EC18            sub esp,byte +0x18
00001390  8B450C            mov eax,[ebp+0xc]
00001393  89442404          mov [esp+0x4],eax
00001397  8B4508            mov eax,[ebp+0x8]
0000139A  890424            mov [esp],eax
0000139D  E89F040000        call 0x1841
000013A2  C9                leave
000013A3  C3                ret
000013A4  55                push ebp
000013A5  89E5              mov ebp,esp
000013A7  56                push esi
000013A8  53                push ebx
000013A9  83EC20            sub esp,byte +0x20
000013AC  8B450C            mov eax,[ebp+0xc]
000013AF  890424            mov [esp],eax
000013B2  E8C7040000        call 0x187e
000013B7  890424            mov [esp],eax
000013BA  E8B6040000        call 0x1875
000013BF  89C3              mov ebx,eax
000013C1  8B450C            mov eax,[ebp+0xc]
000013C4  890424            mov [esp],eax
000013C7  E890040000        call 0x185c
000013CC  8B5508            mov edx,[ebp+0x8]
000013CF  895C2408          mov [esp+0x8],ebx
000013D3  89442404          mov [esp+0x4],eax
000013D7  891424            mov [esp],edx
000013DA  E8A7040000        call 0x1886
000013DF  8B4508            mov eax,[ebp+0x8]
000013E2  890424            mov [esp],eax
000013E5  E898FFFFFF        call 0x1382
000013EA  89C3              mov ebx,eax
000013EC  8B4508            mov eax,[ebp+0x8]
000013EF  8B30              mov esi,[eax]
000013F1  8D45F0            lea eax,[ebp-0x10]
000013F4  8B550C            mov edx,[ebp+0xc]
000013F7  89542404          mov [esp+0x4],edx
000013FB  890424            mov [esp],eax
000013FE  E8F5040000        call 0x18f8
00001403  83EC04            sub esp,byte +0x4
00001406  8D45F4            lea eax,[ebp-0xc]
00001409  8B550C            mov edx,[ebp+0xc]
0000140C  89542404          mov [esp+0x4],edx
00001410  890424            mov [esp],eax
00001413  E8B8040000        call 0x18d0
00001418  83EC04            sub esp,byte +0x4
0000141B  895C240C          mov [esp+0xc],ebx
0000141F  89742408          mov [esp+0x8],esi
00001423  8B45F0            mov eax,[ebp-0x10]
00001426  89442404          mov [esp+0x4],eax
0000142A  8B45F4            mov eax,[ebp-0xc]
0000142D  890424            mov [esp],eax
00001430  E8EB040000        call 0x1920
00001435  8B5508            mov edx,[ebp+0x8]
00001438  894204            mov [edx+0x4],eax
0000143B  EB17              jmp short 0x1454
0000143D  89C3              mov ebx,eax
0000143F  8B4508            mov eax,[ebp+0x8]
00001442  890424            mov [esp],eax
00001445  E8D8FEFFFF        call 0x1322
0000144A  89D8              mov eax,ebx
0000144C  890424            mov [esp],eax
0000144F  E85CF3FFFF        call 0x7b0
00001454  8D65F8            lea esp,[ebp-0x8]
00001457  5B                pop ebx
00001458  5E                pop esi
00001459  5D                pop ebp
0000145A  C3                ret
0000145B  90                nop
0000145C  55                push ebp
0000145D  89E5              mov ebp,esp
0000145F  83EC18            sub esp,byte +0x18
00001462  8B450C            mov eax,[ebp+0xc]
00001465  89442404          mov [esp+0x4],eax
00001469  8B4508            mov eax,[ebp+0x8]
0000146C  890424            mov [esp],eax
0000146F  E8CE040000        call 0x1942
00001474  8B4508            mov eax,[ebp+0x8]
00001477  C9                leave
00001478  C20400            ret 0x4
0000147B  90                nop
0000147C  55                push ebp
0000147D  89E5              mov ebp,esp
0000147F  83EC18            sub esp,byte +0x18
00001482  8B450C            mov eax,[ebp+0xc]
00001485  83C004            add eax,byte +0x4
00001488  89442404          mov [esp+0x4],eax
0000148C  8B4508            mov eax,[ebp+0x8]
0000148F  890424            mov [esp],eax
00001492  E8AB040000        call 0x1942
00001497  8B4508            mov eax,[ebp+0x8]
0000149A  C9                leave
0000149B  C20400            ret 0x4
0000149E  55                push ebp
0000149F  89E5              mov ebp,esp
000014A1  53                push ebx
000014A2  83EC44            sub esp,byte +0x44
000014A5  8D4508            lea eax,[ebp+0x8]
000014A8  89442404          mov [esp+0x4],eax
000014AC  8D450C            lea eax,[ebp+0xc]
000014AF  890424            mov [esp],eax
000014B2  E89A040000        call 0x1951
000014B7  83F801            cmp eax,byte +0x1
000014BA  0F9EC0            setng al
000014BD  84C0              test al,al
000014BF  7405              jz 0x14c6
000014C1  E9BB000000        jmp 0x1581
000014C6  8D4508            lea eax,[ebp+0x8]
000014C9  89442404          mov [esp+0x4],eax
000014CD  8D450C            lea eax,[ebp+0xc]
000014D0  890424            mov [esp],eax
000014D3  E879040000        call 0x1951
000014D8  8945F4            mov [ebp-0xc],eax
000014DB  8B45F4            mov eax,[ebp-0xc]
000014DE  83E802            sub eax,byte +0x2
000014E1  89C2              mov edx,eax
000014E3  C1EA1F            shr edx,byte 0x1f
000014E6  01D0              add eax,edx
000014E8  D1F8              sar eax,1
000014EA  8945EC            mov [ebp-0x14],eax
000014ED  8D45F0            lea eax,[ebp-0x10]
000014F0  8D55EC            lea edx,[ebp-0x14]
000014F3  89542408          mov [esp+0x8],edx
000014F7  8D4D08            lea ecx,[ebp+0x8]
000014FA  894C2404          mov [esp+0x4],ecx
000014FE  890424            mov [esp],eax
00001501  E87C040000        call 0x1982
00001506  83EC04            sub esp,byte +0x4
00001509  8D45F0            lea eax,[ebp-0x10]
0000150C  890424            mov [esp],eax
0000150F  E8A0040000        call 0x19b4
00001514  8B10              mov edx,[eax]
00001516  8955D8            mov [ebp-0x28],edx
00001519  8B5004            mov edx,[eax+0x4]
0000151C  8955DC            mov [ebp-0x24],edx
0000151F  8B5008            mov edx,[eax+0x8]
00001522  8955E0            mov [ebp-0x20],edx
00001525  8B400C            mov eax,[eax+0xc]
00001528  8945E4            mov [ebp-0x1c],eax
0000152B  8B45EC            mov eax,[ebp-0x14]
0000152E  885C241C          mov [esp+0x1c],bl
00001532  8B55D8            mov edx,[ebp-0x28]
00001535  8954240C          mov [esp+0xc],edx
00001539  8B55DC            mov edx,[ebp-0x24]
0000153C  89542410          mov [esp+0x10],edx
00001540  8B55E0            mov edx,[ebp-0x20]
00001543  89542414          mov [esp+0x14],edx
00001547  8B55E4            mov edx,[ebp-0x1c]
0000154A  89542418          mov [esp+0x18],edx
0000154E  8B55F4            mov edx,[ebp-0xc]
00001551  89542408          mov [esp+0x8],edx
00001555  89442404          mov [esp+0x4],eax
00001559  8B4508            mov eax,[ebp+0x8]
0000155C  890424            mov [esp],eax
0000155F  E85A040000        call 0x19be
00001564  8B45EC            mov eax,[ebp-0x14]
00001567  85C0              test eax,eax
00001569  7416              jz 0x1581
0000156B  8B45EC            mov eax,[ebp-0x14]
0000156E  48                dec eax
0000156F  8945EC            mov [ebp-0x14],eax
00001572  E976FFFFFF        jmp 0x14ed
00001577  EB00              jmp short 0x1579
00001579  890424            mov [esp],eax
0000157C  E82FF2FFFF        call 0x7b0
00001581  8B5DFC            mov ebx,[ebp-0x4]
00001584  C9                leave
00001585  C3                ret
00001586  55                push ebp
00001587  89E5              mov ebp,esp
00001589  8B450C            mov eax,[ebp+0xc]
0000158C  8B10              mov edx,[eax]
0000158E  8B4508            mov eax,[ebp+0x8]
00001591  8910              mov [eax],edx
00001593  8B4510            mov eax,[ebp+0x10]
00001596  8B10              mov edx,[eax]
00001598  8B4508            mov eax,[ebp+0x8]
0000159B  895004            mov [eax+0x4],edx
0000159E  5D                pop ebp
0000159F  C3                ret
000015A0  55                push ebp
000015A1  89E5              mov ebp,esp
000015A3  8B450C            mov eax,[ebp+0xc]
000015A6  8B5004            mov edx,[eax+0x4]
000015A9  8B00              mov eax,[eax]
000015AB  8B4D08            mov ecx,[ebp+0x8]
000015AE  8901              mov [ecx],eax
000015B0  895104            mov [ecx+0x4],edx
000015B3  8B4D08            mov ecx,[ebp+0x8]
000015B6  8B4510            mov eax,[ebp+0x10]
000015B9  8B5004            mov edx,[eax+0x4]
000015BC  8B00              mov eax,[eax]
000015BE  894108            mov [ecx+0x8],eax
000015C1  89510C            mov [ecx+0xc],edx
000015C4  5D                pop ebp
000015C5  C3                ret
000015C6  55                push ebp
000015C7  89E5              mov ebp,esp
000015C9  83EC28            sub esp,byte +0x28
000015CC  8B4508            mov eax,[ebp+0x8]
000015CF  8B5004            mov edx,[eax+0x4]
000015D2  8B4508            mov eax,[ebp+0x8]
000015D5  8B4008            mov eax,[eax+0x8]
000015D8  39C2              cmp edx,eax
000015DA  742D              jz 0x1609
000015DC  8B4508            mov eax,[ebp+0x8]
000015DF  8B5004            mov edx,[eax+0x4]
000015E2  8B4508            mov eax,[ebp+0x8]
000015E5  8B4D0C            mov ecx,[ebp+0xc]
000015E8  894C2408          mov [esp+0x8],ecx
000015EC  89542404          mov [esp+0x4],edx
000015F0  890424            mov [esp],eax
000015F3  E8D6050000        call 0x1bce
000015F8  8B4508            mov eax,[ebp+0x8]
000015FB  8B4004            mov eax,[eax+0x4]
000015FE  8D5010            lea edx,[eax+0x10]
00001601  8B4508            mov eax,[ebp+0x8]
00001604  895004            mov [eax+0x4],edx
00001607  EB2E              jmp short 0x1637
00001609  8D45F4            lea eax,[ebp-0xc]
0000160C  8B5508            mov edx,[ebp+0x8]
0000160F  89542404          mov [esp+0x4],edx
00001613  890424            mov [esp],eax
00001616  E861FEFFFF        call 0x147c
0000161B  83EC04            sub esp,byte +0x4
0000161E  8B450C            mov eax,[ebp+0xc]
00001621  89442408          mov [esp+0x8],eax
00001625  8B45F4            mov eax,[ebp-0xc]
00001628  89442404          mov [esp+0x4],eax
0000162C  8B4508            mov eax,[ebp+0x8]
0000162F  890424            mov [esp],eax
00001632  E8B9050000        call 0x1bf0
00001637  C9                leave
00001638  C3                ret
00001639  55                push ebp
0000163A  89E5              mov ebp,esp
0000163C  53                push ebx
0000163D  83EC44            sub esp,byte +0x44
00001640  C745F401000000    mov dword [ebp-0xc],0x1
00001647  8D45F0            lea eax,[ebp-0x10]
0000164A  8D55F4            lea edx,[ebp-0xc]
0000164D  89542408          mov [esp+0x8],edx
00001651  8D550C            lea edx,[ebp+0xc]
00001654  89542404          mov [esp+0x4],edx
00001658  890424            mov [esp],eax
0000165B  E85A080000        call 0x1eba
00001660  83EC04            sub esp,byte +0x4
00001663  8D45F0            lea eax,[ebp-0x10]
00001666  890424            mov [esp],eax
00001669  E846030000        call 0x19b4
0000166E  8B10              mov edx,[eax]
00001670  8955E0            mov [ebp-0x20],edx
00001673  8B5004            mov edx,[eax+0x4]
00001676  8955E4            mov [ebp-0x1c],edx
00001679  8B5008            mov edx,[eax+0x8]
0000167C  8955E8            mov [ebp-0x18],edx
0000167F  8B400C            mov eax,[eax+0xc]
00001682  8945EC            mov [ebp-0x14],eax
00001685  8D4508            lea eax,[ebp+0x8]
00001688  89442404          mov [esp+0x4],eax
0000168C  8D450C            lea eax,[ebp+0xc]
0000168F  890424            mov [esp],eax
00001692  E8BA020000        call 0x1951
00001697  8D50FF            lea edx,[eax-0x1]
0000169A  885C241C          mov [esp+0x1c],bl
0000169E  8B45E0            mov eax,[ebp-0x20]
000016A1  8944240C          mov [esp+0xc],eax
000016A5  8B45E4            mov eax,[ebp-0x1c]
000016A8  89442410          mov [esp+0x10],eax
000016AC  8B45E8            mov eax,[ebp-0x18]
000016AF  89442414          mov [esp+0x14],eax
000016B3  8B45EC            mov eax,[ebp-0x14]
000016B6  89442418          mov [esp+0x18],eax
000016BA  C744240800000000  mov dword [esp+0x8],0x0
000016C2  89542404          mov [esp+0x4],edx
000016C6  8B4508            mov eax,[ebp+0x8]
000016C9  890424            mov [esp],eax
000016CC  E81C080000        call 0x1eed
000016D1  EB08              jmp short 0x16db
000016D3  890424            mov [esp],eax
000016D6  E8D5F0FFFF        call 0x7b0
000016DB  8B5DFC            mov ebx,[ebp-0x4]
000016DE  C9                leave
000016DF  C3                ret
000016E0  55                push ebp
000016E1  89E5              mov ebp,esp
000016E3  83EC28            sub esp,byte +0x28
000016E6  8D45F0            lea eax,[ebp-0x10]
000016E9  8B5508            mov edx,[ebp+0x8]
000016EC  89542404          mov [esp+0x4],edx
000016F0  890424            mov [esp],eax
000016F3  E800020000        call 0x18f8
000016F8  83EC04            sub esp,byte +0x4
000016FB  8D45F4            lea eax,[ebp-0xc]
000016FE  8B5508            mov edx,[ebp+0x8]
00001701  89542404          mov [esp+0x4],edx
00001705  890424            mov [esp],eax
00001708  E8C3010000        call 0x18d0
0000170D  83EC04            sub esp,byte +0x4
00001710  8D45F0            lea eax,[ebp-0x10]
00001713  89442404          mov [esp+0x4],eax
00001717  8D45F4            lea eax,[ebp-0xc]
0000171A  890424            mov [esp],eax
0000171D  E812090000        call 0x2034
00001722  EB0A              jmp short 0x172e
00001724  EB00              jmp short 0x1726
00001726  890424            mov [esp],eax
00001729  E882F0FFFF        call 0x7b0
0000172E  C9                leave
0000172F  C3                ret
00001730  55                push ebp
00001731  89E5              mov ebp,esp
00001733  83EC28            sub esp,byte +0x28
00001736  8D45F4            lea eax,[ebp-0xc]
00001739  8B5508            mov edx,[ebp+0x8]
0000173C  89542404          mov [esp+0x4],edx
00001740  890424            mov [esp],eax
00001743  E888010000        call 0x18d0
00001748  83EC04            sub esp,byte +0x4
0000174B  8D45F4            lea eax,[ebp-0xc]
0000174E  890424            mov [esp],eax
00001751  E80A090000        call 0x2060
00001756  C9                leave
00001757  C3                ret
00001758  55                push ebp
00001759  89E5              mov ebp,esp
0000175B  53                push ebx
0000175C  83EC14            sub esp,byte +0x14
0000175F  8D4508            lea eax,[ebp+0x8]
00001762  89442404          mov [esp+0x4],eax
00001766  8D450C            lea eax,[ebp+0xc]
00001769  890424            mov [esp],eax
0000176C  E8E0010000        call 0x1951
00001771  83F801            cmp eax,byte +0x1
00001774  0F9FC0            setg al
00001777  84C0              test al,al
00001779  7428              jz 0x17a3
0000177B  8D450C            lea eax,[ebp+0xc]
0000177E  890424            mov [esp],eax
00001781  E8E4080000        call 0x206a
00001786  885C240C          mov [esp+0xc],bl
0000178A  8B450C            mov eax,[ebp+0xc]
0000178D  89442408          mov [esp+0x8],eax
00001791  8B450C            mov eax,[ebp+0xc]
00001794  89442404          mov [esp+0x4],eax
00001798  8B4508            mov eax,[ebp+0x8]
0000179B  890424            mov [esp],eax
0000179E  E8DC080000        call 0x207f
000017A3  83C414            add esp,byte +0x14
000017A6  5B                pop ebx
000017A7  5D                pop ebp
000017A8  C3                ret
000017A9  90                nop
000017AA  55                push ebp
000017AB  89E5              mov ebp,esp
000017AD  83EC18            sub esp,byte +0x18
000017B0  8B4508            mov eax,[ebp+0x8]
000017B3  8B4004            mov eax,[eax+0x4]
000017B6  8D50F0            lea edx,[eax-0x10]
000017B9  8B4508            mov eax,[ebp+0x8]
000017BC  895004            mov [eax+0x4],edx
000017BF  8B4508            mov eax,[ebp+0x8]
000017C2  8B5004            mov edx,[eax+0x4]
000017C5  8B4508            mov eax,[ebp+0x8]
000017C8  89542404          mov [esp+0x4],edx
000017CC  890424            mov [esp],eax
000017CF  E85F090000        call 0x2133
000017D4  C9                leave
000017D5  C3                ret
000017D6  55                push ebp
000017D7  89E5              mov ebp,esp
000017D9  83EC18            sub esp,byte +0x18
000017DC  8B4508            mov eax,[ebp+0x8]
000017DF  890424            mov [esp],eax
000017E2  E867090000        call 0x214e
000017E7  8B4508            mov eax,[ebp+0x8]
000017EA  C70000000000      mov dword [eax],0x0
000017F0  8B4508            mov eax,[ebp+0x8]
000017F3  C7400400000000    mov dword [eax+0x4],0x0
000017FA  8B4508            mov eax,[ebp+0x8]
000017FD  C7400800000000    mov dword [eax+0x8],0x0
00001804  C9                leave
00001805  C3                ret
00001806  55                push ebp
00001807  89E5              mov ebp,esp
00001809  83EC18            sub esp,byte +0x18
0000180C  8B4508            mov eax,[ebp+0x8]
0000180F  890424            mov [esp],eax
00001812  E84B090000        call 0x2162
00001817  C9                leave
00001818  C3                ret
00001819  90                nop
0000181A  55                push ebp
0000181B  89E5              mov ebp,esp
0000181D  83EC18            sub esp,byte +0x18
00001820  837D0C00          cmp dword [ebp+0xc],byte +0x0
00001824  7419              jz 0x183f
00001826  8B4508            mov eax,[ebp+0x8]
00001829  8B5510            mov edx,[ebp+0x10]
0000182C  89542408          mov [esp+0x8],edx
00001830  8B550C            mov edx,[ebp+0xc]
00001833  89542404          mov [esp+0x4],edx
00001837  890424            mov [esp],eax
0000183A  E829090000        call 0x2168
0000183F  C9                leave
00001840  C3                ret
00001841  55                push ebp
00001842  89E5              mov ebp,esp
00001844  83EC18            sub esp,byte +0x18
00001847  8B450C            mov eax,[ebp+0xc]
0000184A  89442404          mov [esp+0x4],eax
0000184E  8B4508            mov eax,[ebp+0x8]
00001851  890424            mov [esp],eax
00001854  E822090000        call 0x217b
00001859  C9                leave
0000185A  C3                ret
0000185B  90                nop
0000185C  55                push ebp
0000185D  89E5              mov ebp,esp
0000185F  8B4508            mov eax,[ebp+0x8]
00001862  8B4004            mov eax,[eax+0x4]
00001865  89C2              mov edx,eax
00001867  8B4508            mov eax,[ebp+0x8]
0000186A  8B00              mov eax,[eax]
0000186C  29C2              sub edx,eax
0000186E  89D0              mov eax,edx
00001870  C1F804            sar eax,byte 0x4
00001873  5D                pop ebp
00001874  C3                ret
00001875  55                push ebp
00001876  89E5              mov ebp,esp
00001878  8B4508            mov eax,[ebp+0x8]
0000187B  5D                pop ebp
0000187C  C3                ret
0000187D  90                nop
0000187E  55                push ebp
0000187F  89E5              mov ebp,esp
00001881  8B4508            mov eax,[ebp+0x8]
00001884  5D                pop ebp
00001885  C3                ret
00001886  55                push ebp
00001887  89E5              mov ebp,esp
00001889  53                push ebx
0000188A  83EC14            sub esp,byte +0x14
0000188D  8B4508            mov eax,[ebp+0x8]
00001890  8B5510            mov edx,[ebp+0x10]
00001893  89542404          mov [esp+0x4],edx
00001897  890424            mov [esp],eax
0000189A  E8E1080000        call 0x2180
0000189F  8B450C            mov eax,[ebp+0xc]
000018A2  89442404          mov [esp+0x4],eax
000018A6  8B4508            mov eax,[ebp+0x8]
000018A9  890424            mov [esp],eax
000018AC  E807090000        call 0x21b8
000018B1  EB17              jmp short 0x18ca
000018B3  89C3              mov ebx,eax
000018B5  8B4508            mov eax,[ebp+0x8]
000018B8  890424            mov [esp],eax
000018BB  E83AFAFFFF        call 0x12fa
000018C0  89D8              mov eax,ebx
000018C2  890424            mov [esp],eax
000018C5  E8E6EEFFFF        call 0x7b0
000018CA  83C414            add esp,byte +0x14
000018CD  5B                pop ebx
000018CE  5D                pop ebp
000018CF  C3                ret
000018D0  55                push ebp
000018D1  89E5              mov ebp,esp
000018D3  83EC28            sub esp,byte +0x28
000018D6  8B450C            mov eax,[ebp+0xc]
000018D9  8B00              mov eax,[eax]
000018DB  8945F4            mov [ebp-0xc],eax
000018DE  8D45F4            lea eax,[ebp-0xc]
000018E1  89442404          mov [esp+0x4],eax
000018E5  8B4508            mov eax,[ebp+0x8]
000018E8  890424            mov [esp],eax
000018EB  E806090000        call 0x21f6
000018F0  8B4508            mov eax,[ebp+0x8]
000018F3  C9                leave
000018F4  C20400            ret 0x4
000018F7  90                nop
000018F8  55                push ebp
000018F9  89E5              mov ebp,esp
000018FB  83EC28            sub esp,byte +0x28
000018FE  8B450C            mov eax,[ebp+0xc]
00001901  8B4004            mov eax,[eax+0x4]
00001904  8945F4            mov [ebp-0xc],eax
00001907  8D45F4            lea eax,[ebp-0xc]
0000190A  89442404          mov [esp+0x4],eax
0000190E  8B4508            mov eax,[ebp+0x8]
00001911  890424            mov [esp],eax
00001914  E8DD080000        call 0x21f6
00001919  8B4508            mov eax,[ebp+0x8]
0000191C  C9                leave
0000191D  C20400            ret 0x4
00001920  55                push ebp
00001921  89E5              mov ebp,esp
00001923  83EC18            sub esp,byte +0x18
00001926  8B4510            mov eax,[ebp+0x10]
00001929  89442408          mov [esp+0x8],eax
0000192D  8B450C            mov eax,[ebp+0xc]
00001930  89442404          mov [esp+0x4],eax
00001934  8B4508            mov eax,[ebp+0x8]
00001937  890424            mov [esp],eax
0000193A  E8C6080000        call 0x2205
0000193F  C9                leave
00001940  C3                ret
00001941  90                nop
00001942  55                push ebp
00001943  89E5              mov ebp,esp
00001945  8B450C            mov eax,[ebp+0xc]
00001948  8B10              mov edx,[eax]
0000194A  8B4508            mov eax,[ebp+0x8]
0000194D  8910              mov [eax],edx
0000194F  5D                pop ebp
00001950  C3                ret
00001951  55                push ebp
00001952  89E5              mov ebp,esp
00001954  53                push ebx
00001955  83EC14            sub esp,byte +0x14
00001958  8B4508            mov eax,[ebp+0x8]
0000195B  890424            mov [esp],eax
0000195E  E8C3080000        call 0x2226
00001963  8B00              mov eax,[eax]
00001965  89C3              mov ebx,eax
00001967  8B450C            mov eax,[ebp+0xc]
0000196A  890424            mov [esp],eax
0000196D  E8B4080000        call 0x2226
00001972  8B00              mov eax,[eax]
00001974  29C3              sub ebx,eax
00001976  89D8              mov eax,ebx
00001978  C1F804            sar eax,byte 0x4
0000197B  83C414            add esp,byte +0x14
0000197E  5B                pop ebx
0000197F  5D                pop ebp
00001980  C3                ret
00001981  90                nop
00001982  55                push ebp
00001983  89E5              mov ebp,esp
00001985  83EC28            sub esp,byte +0x28
00001988  8B450C            mov eax,[ebp+0xc]
0000198B  8B10              mov edx,[eax]
0000198D  8B4510            mov eax,[ebp+0x10]
00001990  8B00              mov eax,[eax]
00001992  C1E004            shl eax,byte 0x4
00001995  01D0              add eax,edx
00001997  8945F4            mov [ebp-0xc],eax
0000199A  8D45F4            lea eax,[ebp-0xc]
0000199D  89442404          mov [esp+0x4],eax
000019A1  8B4508            mov eax,[ebp+0x8]
000019A4  890424            mov [esp],eax
000019A7  E896FFFFFF        call 0x1942
000019AC  8B4508            mov eax,[ebp+0x8]
000019AF  C9                leave
000019B0  C20400            ret 0x4
000019B3  90                nop
000019B4  55                push ebp
000019B5  89E5              mov ebp,esp
000019B7  8B4508            mov eax,[ebp+0x8]
000019BA  8B00              mov eax,[eax]
000019BC  5D                pop ebp
000019BD  C3                ret
000019BE  55                push ebp
000019BF  89E5              mov ebp,esp
000019C1  57                push edi
000019C2  56                push esi
000019C3  53                push ebx
000019C4  83EC5C            sub esp,byte +0x5c
000019C7  8B450C            mov eax,[ebp+0xc]
000019CA  8945E4            mov [ebp-0x1c],eax
000019CD  8B450C            mov eax,[ebp+0xc]
000019D0  8945C0            mov [ebp-0x40],eax
000019D3  E9EA000000        jmp 0x1ac2
000019D8  8B45C0            mov eax,[ebp-0x40]
000019DB  40                inc eax
000019DC  01C0              add eax,eax
000019DE  8945C0            mov [ebp-0x40],eax
000019E1  8B45C0            mov eax,[ebp-0x40]
000019E4  48                dec eax
000019E5  8945C8            mov [ebp-0x38],eax
000019E8  8D45C4            lea eax,[ebp-0x3c]
000019EB  8D55C8            lea edx,[ebp-0x38]
000019EE  89542408          mov [esp+0x8],edx
000019F2  8D7D08            lea edi,[ebp+0x8]
000019F5  897C2404          mov [esp+0x4],edi
000019F9  890424            mov [esp],eax
000019FC  E881FFFFFF        call 0x1982
00001A01  83EC04            sub esp,byte +0x4
00001A04  8D45C4            lea eax,[ebp-0x3c]
00001A07  890424            mov [esp],eax
00001A0A  E8A5FFFFFF        call 0x19b4
00001A0F  89C3              mov ebx,eax
00001A11  8D45CC            lea eax,[ebp-0x34]
00001A14  8D55C0            lea edx,[ebp-0x40]
00001A17  89542408          mov [esp+0x8],edx
00001A1B  8D4D08            lea ecx,[ebp+0x8]
00001A1E  894C2404          mov [esp+0x4],ecx
00001A22  890424            mov [esp],eax
00001A25  E858FFFFFF        call 0x1982
00001A2A  83EC04            sub esp,byte +0x4
00001A2D  8D45CC            lea eax,[ebp-0x34]
00001A30  890424            mov [esp],eax
00001A33  E87CFFFFFF        call 0x19b4
00001A38  895C2408          mov [esp+0x8],ebx
00001A3C  89442404          mov [esp+0x4],eax
00001A40  8D4524            lea eax,[ebp+0x24]
00001A43  890424            mov [esp],eax
00001A46  E8E3070000        call 0x222e
00001A4B  84C0              test al,al
00001A4D  7407              jz 0x1a56
00001A4F  8B45C0            mov eax,[ebp-0x40]
00001A52  48                dec eax
00001A53  8945C0            mov [ebp-0x40],eax
00001A56  8D45D0            lea eax,[ebp-0x30]
00001A59  8D550C            lea edx,[ebp+0xc]
00001A5C  89542408          mov [esp+0x8],edx
00001A60  8D7D08            lea edi,[ebp+0x8]
00001A63  897C2404          mov [esp+0x4],edi
00001A67  890424            mov [esp],eax
00001A6A  E813FFFFFF        call 0x1982
00001A6F  83EC04            sub esp,byte +0x4
00001A72  8D45D0            lea eax,[ebp-0x30]
00001A75  890424            mov [esp],eax
00001A78  E837FFFFFF        call 0x19b4
00001A7D  89C3              mov ebx,eax
00001A7F  8D45D4            lea eax,[ebp-0x2c]
00001A82  8D55C0            lea edx,[ebp-0x40]
00001A85  89542408          mov [esp+0x8],edx
00001A89  8D4D08            lea ecx,[ebp+0x8]
00001A8C  894C2404          mov [esp+0x4],ecx
00001A90  890424            mov [esp],eax
00001A93  E8EAFEFFFF        call 0x1982
00001A98  83EC04            sub esp,byte +0x4
00001A9B  8D45D4            lea eax,[ebp-0x2c]
00001A9E  890424            mov [esp],eax
00001AA1  E80EFFFFFF        call 0x19b4
00001AA6  8B10              mov edx,[eax]
00001AA8  8913              mov [ebx],edx
00001AAA  8B5004            mov edx,[eax+0x4]
00001AAD  895304            mov [ebx+0x4],edx
00001AB0  8B5008            mov edx,[eax+0x8]
00001AB3  895308            mov [ebx+0x8],edx
00001AB6  8B400C            mov eax,[eax+0xc]
00001AB9  89430C            mov [ebx+0xc],eax
00001ABC  8B45C0            mov eax,[ebp-0x40]
00001ABF  89450C            mov [ebp+0xc],eax
00001AC2  8B4510            mov eax,[ebp+0x10]
00001AC5  48                dec eax
00001AC6  89C2              mov edx,eax
00001AC8  C1EA1F            shr edx,byte 0x1f
00001ACB  01D0              add eax,edx
00001ACD  D1F8              sar eax,1
00001ACF  89C2              mov edx,eax
00001AD1  8B45C0            mov eax,[ebp-0x40]
00001AD4  39C2              cmp edx,eax
00001AD6  0F8FFCFEFFFF      jg near 0x19d8
00001ADC  8B4510            mov eax,[ebp+0x10]
00001ADF  83E001            and eax,byte +0x1
00001AE2  85C0              test eax,eax
00001AE4  0F8595000000      jnz near 0x1b7f
00001AEA  8B4510            mov eax,[ebp+0x10]
00001AED  83E802            sub eax,byte +0x2
00001AF0  89C2              mov edx,eax
00001AF2  C1EA1F            shr edx,byte 0x1f
00001AF5  01D0              add eax,edx
00001AF7  D1F8              sar eax,1
00001AF9  89C2              mov edx,eax
00001AFB  8B45C0            mov eax,[ebp-0x40]
00001AFE  39C2              cmp edx,eax
00001B00  757D              jnz 0x1b7f
00001B02  8B45C0            mov eax,[ebp-0x40]
00001B05  40                inc eax
00001B06  01C0              add eax,eax
00001B08  8945C0            mov [ebp-0x40],eax
00001B0B  8D45D8            lea eax,[ebp-0x28]
00001B0E  8D550C            lea edx,[ebp+0xc]
00001B11  89542408          mov [esp+0x8],edx
00001B15  8D7D08            lea edi,[ebp+0x8]
00001B18  897C2404          mov [esp+0x4],edi
00001B1C  890424            mov [esp],eax
00001B1F  E85EFEFFFF        call 0x1982
00001B24  83EC04            sub esp,byte +0x4
00001B27  8D45D8            lea eax,[ebp-0x28]
00001B2A  890424            mov [esp],eax
00001B2D  E882FEFFFF        call 0x19b4
00001B32  89C3              mov ebx,eax
00001B34  8B45C0            mov eax,[ebp-0x40]
00001B37  48                dec eax
00001B38  8945E0            mov [ebp-0x20],eax
00001B3B  8D45DC            lea eax,[ebp-0x24]
00001B3E  8D55E0            lea edx,[ebp-0x20]
00001B41  89542408          mov [esp+0x8],edx
00001B45  8D4D08            lea ecx,[ebp+0x8]
00001B48  894C2404          mov [esp+0x4],ecx
00001B4C  890424            mov [esp],eax
00001B4F  E82EFEFFFF        call 0x1982
00001B54  83EC04            sub esp,byte +0x4
00001B57  8D45DC            lea eax,[ebp-0x24]
00001B5A  890424            mov [esp],eax
00001B5D  E852FEFFFF        call 0x19b4
00001B62  8B10              mov edx,[eax]
00001B64  8913              mov [ebx],edx
00001B66  8B5004            mov edx,[eax+0x4]
00001B69  895304            mov [ebx+0x4],edx
00001B6C  8B5008            mov edx,[eax+0x8]
00001B6F  895308            mov [ebx+0x8],edx
00001B72  8B400C            mov eax,[eax+0xc]
00001B75  89430C            mov [ebx+0xc],eax
00001B78  8B45C0            mov eax,[ebp-0x40]
00001B7B  48                dec eax
00001B7C  89450C            mov [ebp+0xc],eax
00001B7F  8B450C            mov eax,[ebp+0xc]
00001B82  89F1              mov ecx,esi
00001B84  884C241C          mov [esp+0x1c],cl
00001B88  8B5514            mov edx,[ebp+0x14]
00001B8B  8954240C          mov [esp+0xc],edx
00001B8F  8B5518            mov edx,[ebp+0x18]
00001B92  89542410          mov [esp+0x10],edx
00001B96  8B551C            mov edx,[ebp+0x1c]
00001B99  89542414          mov [esp+0x14],edx
00001B9D  8B5520            mov edx,[ebp+0x20]
00001BA0  89542418          mov [esp+0x18],edx
00001BA4  8B55E4            mov edx,[ebp-0x1c]
00001BA7  89542408          mov [esp+0x8],edx
00001BAB  89442404          mov [esp+0x4],eax
00001BAF  8B4508            mov eax,[ebp+0x8]
00001BB2  890424            mov [esp],eax
00001BB5  E833030000        call 0x1eed
00001BBA  EB0A              jmp short 0x1bc6
00001BBC  EB00              jmp short 0x1bbe
00001BBE  890424            mov [esp],eax
00001BC1  E8EAEBFFFF        call 0x7b0
00001BC6  8D65F4            lea esp,[ebp-0xc]
00001BC9  5B                pop ebx
00001BCA  5E                pop esi
00001BCB  5F                pop edi
00001BCC  5D                pop ebp
00001BCD  C3                ret
00001BCE  55                push ebp
00001BCF  89E5              mov ebp,esp
00001BD1  83EC18            sub esp,byte +0x18
00001BD4  8B4510            mov eax,[ebp+0x10]
00001BD7  89442408          mov [esp+0x8],eax
00001BDB  8B450C            mov eax,[ebp+0xc]
00001BDE  89442404          mov [esp+0x4],eax
00001BE2  8B4508            mov eax,[ebp+0x8]
00001BE5  890424            mov [esp],eax
00001BE8  E85B060000        call 0x2248
00001BED  C9                leave
00001BEE  C3                ret
00001BEF  90                nop
00001BF0  55                push ebp
00001BF1  89E5              mov ebp,esp
00001BF3  56                push esi
00001BF4  53                push ebx
00001BF5  83EC40            sub esp,byte +0x40
00001BF8  8B4508            mov eax,[ebp+0x8]
00001BFB  8B5004            mov edx,[eax+0x4]
00001BFE  8B4508            mov eax,[ebp+0x8]
00001C01  8B4008            mov eax,[eax+0x8]
00001C04  39C2              cmp edx,eax
00001C06  0F84A1000000      jz near 0x1cad
00001C0C  8B4508            mov eax,[ebp+0x8]
00001C0F  8B4004            mov eax,[eax+0x4]
00001C12  8D48F0            lea ecx,[eax-0x10]
00001C15  8B4508            mov eax,[ebp+0x8]
00001C18  8B5004            mov edx,[eax+0x4]
00001C1B  8B4508            mov eax,[ebp+0x8]
00001C1E  894C2408          mov [esp+0x8],ecx
00001C22  89542404          mov [esp+0x4],edx
00001C26  890424            mov [esp],eax
00001C29  E8A0FFFFFF        call 0x1bce
00001C2E  8B4508            mov eax,[ebp+0x8]
00001C31  8B4004            mov eax,[eax+0x4]
00001C34  8D5010            lea edx,[eax+0x10]
00001C37  8B4508            mov eax,[ebp+0x8]
00001C3A  895004            mov [eax+0x4],edx
00001C3D  8B4510            mov eax,[ebp+0x10]
00001C40  8B10              mov edx,[eax]
00001C42  8955D0            mov [ebp-0x30],edx
00001C45  8B5004            mov edx,[eax+0x4]
00001C48  8955D4            mov [ebp-0x2c],edx
00001C4B  8B5008            mov edx,[eax+0x8]
00001C4E  8955D8            mov [ebp-0x28],edx
00001C51  8B400C            mov eax,[eax+0xc]
00001C54  8945DC            mov [ebp-0x24],eax
00001C57  8B4508            mov eax,[ebp+0x8]
00001C5A  8B4004            mov eax,[eax+0x4]
00001C5D  8D70F0            lea esi,[eax-0x10]
00001C60  8B4508            mov eax,[ebp+0x8]
00001C63  8B4004            mov eax,[eax+0x4]
00001C66  8D58E0            lea ebx,[eax-0x20]
00001C69  8D450C            lea eax,[ebp+0xc]
00001C6C  890424            mov [esp],eax
00001C6F  E8B2050000        call 0x2226
00001C74  8B00              mov eax,[eax]
00001C76  89742408          mov [esp+0x8],esi
00001C7A  895C2404          mov [esp+0x4],ebx
00001C7E  890424            mov [esp],eax
00001C81  E8FA050000        call 0x2280
00001C86  8D450C            lea eax,[ebp+0xc]
00001C89  890424            mov [esp],eax
00001C8C  E823FDFFFF        call 0x19b4
00001C91  8B55D0            mov edx,[ebp-0x30]
00001C94  8910              mov [eax],edx
00001C96  8B55D4            mov edx,[ebp-0x2c]
00001C99  895004            mov [eax+0x4],edx
00001C9C  8B55D8            mov edx,[ebp-0x28]
00001C9F  895008            mov [eax+0x8],edx
00001CA2  8B55DC            mov edx,[ebp-0x24]
00001CA5  89500C            mov [eax+0xc],edx
00001CA8  E906020000        jmp 0x1eb3
00001CAD  C744240810A80408  mov dword [esp+0x8],0x804a810
00001CB5  C744240401000000  mov dword [esp+0x4],0x1
00001CBD  8B4508            mov eax,[ebp+0x8]
00001CC0  890424            mov [esp],eax
00001CC3  E8F0050000        call 0x22b8
00001CC8  8945F0            mov [ebp-0x10],eax
00001CCB  8D45E4            lea eax,[ebp-0x1c]
00001CCE  8B5508            mov edx,[ebp+0x8]
00001CD1  89542404          mov [esp+0x4],edx
00001CD5  890424            mov [esp],eax
00001CD8  E87FF7FFFF        call 0x145c
00001CDD  83EC04            sub esp,byte +0x4
00001CE0  8D45E4            lea eax,[ebp-0x1c]
00001CE3  89442404          mov [esp+0x4],eax
00001CE7  8D450C            lea eax,[ebp+0xc]
00001CEA  890424            mov [esp],eax
00001CED  E85FFCFFFF        call 0x1951
00001CF2  8945EC            mov [ebp-0x14],eax
00001CF5  8B4508            mov eax,[ebp+0x8]
00001CF8  8B55F0            mov edx,[ebp-0x10]
00001CFB  89542404          mov [esp+0x4],edx
00001CFF  890424            mov [esp],eax
00001D02  E855060000        call 0x235c
00001D07  8945E8            mov [ebp-0x18],eax
00001D0A  8B45E8            mov eax,[ebp-0x18]
00001D0D  8945F4            mov [ebp-0xc],eax
00001D10  8B45EC            mov eax,[ebp-0x14]
00001D13  C1E004            shl eax,byte 0x4
00001D16  89C2              mov edx,eax
00001D18  8B45E8            mov eax,[ebp-0x18]
00001D1B  8D0C02            lea ecx,[edx+eax]
00001D1E  8B4508            mov eax,[ebp+0x8]
00001D21  8B5510            mov edx,[ebp+0x10]
00001D24  89542408          mov [esp+0x8],edx
00001D28  894C2404          mov [esp+0x4],ecx
00001D2C  890424            mov [esp],eax
00001D2F  E89AFEFFFF        call 0x1bce
00001D34  C745F400000000    mov dword [ebp-0xc],0x0
00001D3B  8B4508            mov eax,[ebp+0x8]
00001D3E  890424            mov [esp],eax
00001D41  E83CF6FFFF        call 0x1382
00001D46  89C3              mov ebx,eax
00001D48  8D450C            lea eax,[ebp+0xc]
00001D4B  890424            mov [esp],eax
00001D4E  E8D3040000        call 0x2226
00001D53  8B10              mov edx,[eax]
00001D55  8B4508            mov eax,[ebp+0x8]
00001D58  8B00              mov eax,[eax]
00001D5A  895C240C          mov [esp+0xc],ebx
00001D5E  8B4DE8            mov ecx,[ebp-0x18]
00001D61  894C2408          mov [esp+0x8],ecx
00001D65  89542404          mov [esp+0x4],edx
00001D69  890424            mov [esp],eax
00001D6C  E81A060000        call 0x238b
00001D71  8945F4            mov [ebp-0xc],eax
00001D74  8345F410          add dword [ebp-0xc],byte +0x10
00001D78  8B4508            mov eax,[ebp+0x8]
00001D7B  890424            mov [esp],eax
00001D7E  E8FFF5FFFF        call 0x1382
00001D83  89C3              mov ebx,eax
00001D85  8B4508            mov eax,[ebp+0x8]
00001D88  8B7004            mov esi,[eax+0x4]
00001D8B  8D450C            lea eax,[ebp+0xc]
00001D8E  890424            mov [esp],eax
00001D91  E890040000        call 0x2226
00001D96  8B00              mov eax,[eax]
00001D98  895C240C          mov [esp+0xc],ebx
00001D9C  8B55F4            mov edx,[ebp-0xc]
00001D9F  89542408          mov [esp+0x8],edx
00001DA3  89742404          mov [esp+0x4],esi
00001DA7  890424            mov [esp],eax
00001DAA  E8DC050000        call 0x238b
00001DAF  8945F4            mov [ebp-0xc],eax
00001DB2  8B4508            mov eax,[ebp+0x8]
00001DB5  890424            mov [esp],eax
00001DB8  E8C5F5FFFF        call 0x1382
00001DBD  8B5508            mov edx,[ebp+0x8]
00001DC0  8B4A04            mov ecx,[edx+0x4]
00001DC3  8B5508            mov edx,[ebp+0x8]
00001DC6  8B12              mov edx,[edx]
00001DC8  89442408          mov [esp+0x8],eax
00001DCC  894C2404          mov [esp+0x4],ecx
00001DD0  891424            mov [esp],edx
00001DD3  E8B2F5FFFF        call 0x138a
00001DD8  8B4508            mov eax,[ebp+0x8]
00001DDB  8B4008            mov eax,[eax+0x8]
00001DDE  89C2              mov edx,eax
00001DE0  8B4508            mov eax,[ebp+0x8]
00001DE3  8B00              mov eax,[eax]
00001DE5  29C2              sub edx,eax
00001DE7  89D0              mov eax,edx
00001DE9  C1F804            sar eax,byte 0x4
00001DEC  89C1              mov ecx,eax
00001DEE  8B4508            mov eax,[ebp+0x8]
00001DF1  8B10              mov edx,[eax]
00001DF3  8B4508            mov eax,[ebp+0x8]
00001DF6  894C2408          mov [esp+0x8],ecx
00001DFA  89542404          mov [esp+0x4],edx
00001DFE  890424            mov [esp],eax
00001E01  E814FAFFFF        call 0x181a
00001E06  8B4508            mov eax,[ebp+0x8]
00001E09  8B55E8            mov edx,[ebp-0x18]
00001E0C  8910              mov [eax],edx
00001E0E  8B4508            mov eax,[ebp+0x8]
00001E11  8B55F4            mov edx,[ebp-0xc]
00001E14  895004            mov [eax+0x4],edx
00001E17  8B45F0            mov eax,[ebp-0x10]
00001E1A  C1E004            shl eax,byte 0x4
00001E1D  89C2              mov edx,eax
00001E1F  8B45E8            mov eax,[ebp-0x18]
00001E22  01C2              add edx,eax
00001E24  8B4508            mov eax,[ebp+0x8]
00001E27  895008            mov [eax+0x8],edx
00001E2A  E984000000        jmp 0x1eb3
00001E2F  890424            mov [esp],eax
00001E32  E879E9FFFF        call 0x7b0
00001E37  89C3              mov ebx,eax
00001E39  E832E9FFFF        call 0x770
00001E3E  89D8              mov eax,ebx
00001E40  890424            mov [esp],eax
00001E43  E868E9FFFF        call 0x7b0
00001E48  890424            mov [esp],eax
00001E4B  E840E9FFFF        call 0x790
00001E50  837DF400          cmp dword [ebp-0xc],byte +0x0
00001E54  751E              jnz 0x1e74
00001E56  8B45EC            mov eax,[ebp-0x14]
00001E59  C1E004            shl eax,byte 0x4
00001E5C  89C2              mov edx,eax
00001E5E  8B45E8            mov eax,[ebp-0x18]
00001E61  01C2              add edx,eax
00001E63  8B4508            mov eax,[ebp+0x8]
00001E66  89542404          mov [esp+0x4],edx
00001E6A  890424            mov [esp],eax
00001E6D  E8C1020000        call 0x2133
00001E72  EB21              jmp short 0x1e95
00001E74  8B4508            mov eax,[ebp+0x8]
00001E77  890424            mov [esp],eax
00001E7A  E803F5FFFF        call 0x1382
00001E7F  89442408          mov [esp+0x8],eax
00001E83  8B45F4            mov eax,[ebp-0xc]
00001E86  89442404          mov [esp+0x4],eax
00001E8A  8B45E8            mov eax,[ebp-0x18]
00001E8D  890424            mov [esp],eax
00001E90  E8F5F4FFFF        call 0x138a
00001E95  8B4508            mov eax,[ebp+0x8]
00001E98  8B55F0            mov edx,[ebp-0x10]
00001E9B  89542408          mov [esp+0x8],edx
00001E9F  8B55E8            mov edx,[ebp-0x18]
00001EA2  89542404          mov [esp+0x4],edx
00001EA6  890424            mov [esp],eax
00001EA9  E86CF9FFFF        call 0x181a
00001EAE  E84DE8FFFF        call 0x700
00001EB3  8D65F8            lea esp,[ebp-0x8]
00001EB6  5B                pop ebx
00001EB7  5E                pop esi
00001EB8  5D                pop ebp
00001EB9  C3                ret
00001EBA  55                push ebp
00001EBB  89E5              mov ebp,esp
00001EBD  83EC28            sub esp,byte +0x28
00001EC0  8B450C            mov eax,[ebp+0xc]
00001EC3  8B10              mov edx,[eax]
00001EC5  8B4510            mov eax,[ebp+0x10]
00001EC8  8B00              mov eax,[eax]
00001ECA  C1E004            shl eax,byte 0x4
00001ECD  F7D8              neg eax
00001ECF  01D0              add eax,edx
00001ED1  8945F4            mov [ebp-0xc],eax
00001ED4  8D45F4            lea eax,[ebp-0xc]
00001ED7  89442404          mov [esp+0x4],eax
00001EDB  8B4508            mov eax,[ebp+0x8]
00001EDE  890424            mov [esp],eax
00001EE1  E85CFAFFFF        call 0x1942
00001EE6  8B4508            mov eax,[ebp+0x8]
00001EE9  C9                leave
00001EEA  C20400            ret 0x4
00001EED  55                push ebp
00001EEE  89E5              mov ebp,esp
00001EF0  57                push edi
00001EF1  56                push esi
00001EF2  53                push ebx
00001EF3  83EC3C            sub esp,byte +0x3c
00001EF6  8B450C            mov eax,[ebp+0xc]
00001EF9  48                dec eax
00001EFA  89C2              mov edx,eax
00001EFC  C1EA1F            shr edx,byte 0x1f
00001EFF  01D0              add eax,edx
00001F01  D1F8              sar eax,1
00001F03  8945D4            mov [ebp-0x2c],eax
00001F06  EB7C              jmp short 0x1f84
00001F08  8D45D8            lea eax,[ebp-0x28]
00001F0B  8D550C            lea edx,[ebp+0xc]
00001F0E  89542408          mov [esp+0x8],edx
00001F12  8D4D08            lea ecx,[ebp+0x8]
00001F15  894C2404          mov [esp+0x4],ecx
00001F19  890424            mov [esp],eax
00001F1C  E861FAFFFF        call 0x1982
00001F21  83EC04            sub esp,byte +0x4
00001F24  8D45D8            lea eax,[ebp-0x28]
00001F27  890424            mov [esp],eax
00001F2A  E885FAFFFF        call 0x19b4
00001F2F  89C3              mov ebx,eax
00001F31  8D45DC            lea eax,[ebp-0x24]
00001F34  8D55D4            lea edx,[ebp-0x2c]
00001F37  89542408          mov [esp+0x8],edx
00001F3B  8D7508            lea esi,[ebp+0x8]
00001F3E  89742404          mov [esp+0x4],esi
00001F42  890424            mov [esp],eax
00001F45  E838FAFFFF        call 0x1982
00001F4A  83EC04            sub esp,byte +0x4
00001F4D  8D45DC            lea eax,[ebp-0x24]
00001F50  890424            mov [esp],eax
00001F53  E85CFAFFFF        call 0x19b4
00001F58  8B10              mov edx,[eax]
00001F5A  8913              mov [ebx],edx
00001F5C  8B5004            mov edx,[eax+0x4]
00001F5F  895304            mov [ebx+0x4],edx
00001F62  8B5008            mov edx,[eax+0x8]
00001F65  895308            mov [ebx+0x8],edx
00001F68  8B400C            mov eax,[eax+0xc]
00001F6B  89430C            mov [ebx+0xc],eax
00001F6E  8B45D4            mov eax,[ebp-0x2c]
00001F71  89450C            mov [ebp+0xc],eax
00001F74  8B450C            mov eax,[ebp+0xc]
00001F77  48                dec eax
00001F78  89C2              mov edx,eax
00001F7A  C1EA1F            shr edx,byte 0x1f
00001F7D  01D0              add eax,edx
00001F7F  D1F8              sar eax,1
00001F81  8945D4            mov [ebp-0x2c],eax
00001F84  B300              mov bl,0x0
00001F86  8B450C            mov eax,[ebp+0xc]
00001F89  3B4510            cmp eax,[ebp+0x10]
00001F8C  7E47              jng 0x1fd5
00001F8E  8D45E0            lea eax,[ebp-0x20]
00001F91  8D55D4            lea edx,[ebp-0x2c]
00001F94  89542408          mov [esp+0x8],edx
00001F98  8D7D08            lea edi,[ebp+0x8]
00001F9B  897C2404          mov [esp+0x4],edi
00001F9F  890424            mov [esp],eax
00001FA2  E8DBF9FFFF        call 0x1982
00001FA7  83EC04            sub esp,byte +0x4
00001FAA  B301              mov bl,0x1
00001FAC  8D45E0            lea eax,[ebp-0x20]
00001FAF  890424            mov [esp],eax
00001FB2  E8FDF9FFFF        call 0x19b4
00001FB7  8D5514            lea edx,[ebp+0x14]
00001FBA  89542408          mov [esp+0x8],edx
00001FBE  89442404          mov [esp+0x4],eax
00001FC2  8D4524            lea eax,[ebp+0x24]
00001FC5  890424            mov [esp],eax
00001FC8  E861020000        call 0x222e
00001FCD  84C0              test al,al
00001FCF  7404              jz 0x1fd5
00001FD1  B001              mov al,0x1
00001FD3  EB02              jmp short 0x1fd7
00001FD5  B000              mov al,0x0
00001FD7  84DB              test bl,bl
00001FD9  84C0              test al,al
00001FDB  0F8527FFFFFF      jnz near 0x1f08
00001FE1  8D45E4            lea eax,[ebp-0x1c]
00001FE4  8D550C            lea edx,[ebp+0xc]
00001FE7  89542408          mov [esp+0x8],edx
00001FEB  8D4D08            lea ecx,[ebp+0x8]
00001FEE  894C2404          mov [esp+0x4],ecx
00001FF2  890424            mov [esp],eax
00001FF5  E888F9FFFF        call 0x1982
00001FFA  83EC04            sub esp,byte +0x4
00001FFD  8D45E4            lea eax,[ebp-0x1c]
00002000  890424            mov [esp],eax
00002003  E8ACF9FFFF        call 0x19b4
00002008  8B5514            mov edx,[ebp+0x14]
0000200B  8910              mov [eax],edx
0000200D  8B5518            mov edx,[ebp+0x18]
00002010  895004            mov [eax+0x4],edx
00002013  8B551C            mov edx,[ebp+0x1c]
00002016  895008            mov [eax+0x8],edx
00002019  8B5520            mov edx,[ebp+0x20]
0000201C  89500C            mov [eax+0xc],edx
0000201F  EB0B              jmp short 0x202c
00002021  84DB              test bl,bl
00002023  90                nop
00002024  890424            mov [esp],eax
00002027  E884E7FFFF        call 0x7b0
0000202C  8D65F4            lea esp,[ebp-0xc]
0000202F  5B                pop ebx
00002030  5E                pop esi
00002031  5F                pop edi
00002032  5D                pop ebp
00002033  C3                ret
00002034  55                push ebp
00002035  89E5              mov ebp,esp
00002037  53                push ebx
00002038  83EC14            sub esp,byte +0x14
0000203B  8B4508            mov eax,[ebp+0x8]
0000203E  890424            mov [esp],eax
00002041  E86E030000        call 0x23b4
00002046  8B18              mov ebx,[eax]
00002048  8B450C            mov eax,[ebp+0xc]
0000204B  890424            mov [esp],eax
0000204E  E861030000        call 0x23b4
00002053  8B00              mov eax,[eax]
00002055  39C3              cmp ebx,eax
00002057  0F94C0            setz al
0000205A  83C414            add esp,byte +0x14
0000205D  5B                pop ebx
0000205E  5D                pop ebp
0000205F  C3                ret
00002060  55                push ebp
00002061  89E5              mov ebp,esp
00002063  8B4508            mov eax,[ebp+0x8]
00002066  8B00              mov eax,[eax]
00002068  5D                pop ebp
00002069  C3                ret
0000206A  55                push ebp
0000206B  89E5              mov ebp,esp
0000206D  8B4508            mov eax,[ebp+0x8]
00002070  8B00              mov eax,[eax]
00002072  8D50F0            lea edx,[eax-0x10]
00002075  8B4508            mov eax,[ebp+0x8]
00002078  8910              mov [eax],edx
0000207A  8B4508            mov eax,[ebp+0x8]
0000207D  5D                pop ebp
0000207E  C3                ret
0000207F  55                push ebp
00002080  89E5              mov ebp,esp
00002082  56                push esi
00002083  53                push ebx
00002084  83EC30            sub esp,byte +0x30
00002087  8D4510            lea eax,[ebp+0x10]
0000208A  890424            mov [esp],eax
0000208D  E822F9FFFF        call 0x19b4
00002092  8B10              mov edx,[eax]
00002094  8955E8            mov [ebp-0x18],edx
00002097  8B5004            mov edx,[eax+0x4]
0000209A  8955EC            mov [ebp-0x14],edx
0000209D  8B5008            mov edx,[eax+0x8]
000020A0  8955F0            mov [ebp-0x10],edx
000020A3  8B400C            mov eax,[eax+0xc]
000020A6  8945F4            mov [ebp-0xc],eax
000020A9  8D4510            lea eax,[ebp+0x10]
000020AC  890424            mov [esp],eax
000020AF  E800F9FFFF        call 0x19b4
000020B4  89C3              mov ebx,eax
000020B6  8D4508            lea eax,[ebp+0x8]
000020B9  890424            mov [esp],eax
000020BC  E8F3F8FFFF        call 0x19b4
000020C1  8B10              mov edx,[eax]
000020C3  8913              mov [ebx],edx
000020C5  8B5004            mov edx,[eax+0x4]
000020C8  895304            mov [ebx+0x4],edx
000020CB  8B5008            mov edx,[eax+0x8]
000020CE  895308            mov [ebx+0x8],edx
000020D1  8B400C            mov eax,[eax+0xc]
000020D4  89430C            mov [ebx+0xc],eax
000020D7  8D4508            lea eax,[ebp+0x8]
000020DA  89442404          mov [esp+0x4],eax
000020DE  8D450C            lea eax,[ebp+0xc]
000020E1  890424            mov [esp],eax
000020E4  E868F8FFFF        call 0x1951
000020E9  89F1              mov ecx,esi
000020EB  884C241C          mov [esp+0x1c],cl
000020EF  8B55E8            mov edx,[ebp-0x18]
000020F2  8954240C          mov [esp+0xc],edx
000020F6  8B55EC            mov edx,[ebp-0x14]
000020F9  89542410          mov [esp+0x10],edx
000020FD  8B55F0            mov edx,[ebp-0x10]
00002100  89542414          mov [esp+0x14],edx
00002104  8B55F4            mov edx,[ebp-0xc]
00002107  89542418          mov [esp+0x18],edx
0000210B  89442408          mov [esp+0x8],eax
0000210F  C744240400000000  mov dword [esp+0x4],0x0
00002117  8B4508            mov eax,[ebp+0x8]
0000211A  890424            mov [esp],eax
0000211D  E89CF8FFFF        call 0x19be
00002122  EB08              jmp short 0x212c
00002124  890424            mov [esp],eax
00002127  E884E6FFFF        call 0x7b0
0000212C  83C430            add esp,byte +0x30
0000212F  5B                pop ebx
00002130  5E                pop esi
00002131  5D                pop ebp
00002132  C3                ret
00002133  55                push ebp
00002134  89E5              mov ebp,esp
00002136  83EC18            sub esp,byte +0x18
00002139  8B450C            mov eax,[ebp+0xc]
0000213C  89442404          mov [esp+0x4],eax
00002140  8B4508            mov eax,[ebp+0x8]
00002143  890424            mov [esp],eax
00002146  E871020000        call 0x23bc
0000214B  C9                leave
0000214C  C3                ret
0000214D  90                nop
0000214E  55                push ebp
0000214F  89E5              mov ebp,esp
00002151  83EC18            sub esp,byte +0x18
00002154  8B4508            mov eax,[ebp+0x8]
00002157  890424            mov [esp],eax
0000215A  E863020000        call 0x23c2
0000215F  C9                leave
00002160  C3                ret
00002161  90                nop
00002162  55                push ebp
00002163  89E5              mov ebp,esp
00002165  5D                pop ebp
00002166  C3                ret
00002167  90                nop
00002168  55                push ebp
00002169  89E5              mov ebp,esp
0000216B  83EC18            sub esp,byte +0x18
0000216E  8B450C            mov eax,[ebp+0xc]
00002171  890424            mov [esp],eax
00002174  E877E5FFFF        call 0x6f0
00002179  C9                leave
0000217A  C3                ret
0000217B  55                push ebp
0000217C  89E5              mov ebp,esp
0000217E  5D                pop ebp
0000217F  C3                ret
00002180  55                push ebp
00002181  89E5              mov ebp,esp
00002183  83EC18            sub esp,byte +0x18
00002186  8B450C            mov eax,[ebp+0xc]
00002189  89442404          mov [esp+0x4],eax
0000218D  8B4508            mov eax,[ebp+0x8]
00002190  890424            mov [esp],eax
00002193  E830020000        call 0x23c8
00002198  8B4508            mov eax,[ebp+0x8]
0000219B  C70000000000      mov dword [eax],0x0
000021A1  8B4508            mov eax,[ebp+0x8]
000021A4  C7400400000000    mov dword [eax+0x4],0x0
000021AB  8B4508            mov eax,[ebp+0x8]
000021AE  C7400800000000    mov dword [eax+0x8],0x0
000021B5  C9                leave
000021B6  C3                ret
000021B7  90                nop
000021B8  55                push ebp
000021B9  89E5              mov ebp,esp
000021BB  83EC18            sub esp,byte +0x18
000021BE  8B450C            mov eax,[ebp+0xc]
000021C1  89442404          mov [esp+0x4],eax
000021C5  8B4508            mov eax,[ebp+0x8]
000021C8  890424            mov [esp],eax
000021CB  E88C010000        call 0x235c
000021D0  8B5508            mov edx,[ebp+0x8]
000021D3  8902              mov [edx],eax
000021D5  8B4508            mov eax,[ebp+0x8]
000021D8  8B10              mov edx,[eax]
000021DA  8B4508            mov eax,[ebp+0x8]
000021DD  895004            mov [eax+0x4],edx
000021E0  8B4508            mov eax,[ebp+0x8]
000021E3  8B00              mov eax,[eax]
000021E5  8B550C            mov edx,[ebp+0xc]
000021E8  C1E204            shl edx,byte 0x4
000021EB  01C2              add edx,eax
000021ED  8B4508            mov eax,[ebp+0x8]
000021F0  895008            mov [eax+0x8],edx
000021F3  C9                leave
000021F4  C3                ret
000021F5  90                nop
000021F6  55                push ebp
000021F7  89E5              mov ebp,esp
000021F9  8B450C            mov eax,[ebp+0xc]
000021FC  8B10              mov edx,[eax]
000021FE  8B4508            mov eax,[ebp+0x8]
00002201  8910              mov [eax],edx
00002203  5D                pop ebp
00002204  C3                ret
00002205  55                push ebp
00002206  89E5              mov ebp,esp
00002208  83EC18            sub esp,byte +0x18
0000220B  8B4510            mov eax,[ebp+0x10]
0000220E  89442408          mov [esp+0x8],eax
00002212  8B450C            mov eax,[ebp+0xc]
00002215  89442404          mov [esp+0x4],eax
00002219  8B4508            mov eax,[ebp+0x8]
0000221C  890424            mov [esp],eax
0000221F  E8BE010000        call 0x23e2
00002224  C9                leave
00002225  C3                ret
00002226  55                push ebp
00002227  89E5              mov ebp,esp
00002229  8B4508            mov eax,[ebp+0x8]
0000222C  5D                pop ebp
0000222D  C3                ret
0000222E  55                push ebp
0000222F  89E5              mov ebp,esp
00002231  83EC18            sub esp,byte +0x18
00002234  8B4510            mov eax,[ebp+0x10]
00002237  89442404          mov [esp+0x4],eax
0000223B  8B450C            mov eax,[ebp+0xc]
0000223E  890424            mov [esp],eax
00002241  E8FD010000        call 0x2443
00002246  C9                leave
00002247  C3                ret
00002248  55                push ebp
00002249  89E5              mov ebp,esp
0000224B  83EC18            sub esp,byte +0x18
0000224E  8B450C            mov eax,[ebp+0xc]
00002251  89442404          mov [esp+0x4],eax
00002255  C7042410000000    mov dword [esp],0x10
0000225C  E843EEFFFF        call 0x10a4
00002261  85C0              test eax,eax
00002263  7419              jz 0x227e
00002265  8B5510            mov edx,[ebp+0x10]
00002268  8B0A              mov ecx,[edx]
0000226A  8908              mov [eax],ecx
0000226C  8B4A04            mov ecx,[edx+0x4]
0000226F  894804            mov [eax+0x4],ecx
00002272  8B4A08            mov ecx,[edx+0x8]
00002275  894808            mov [eax+0x8],ecx
00002278  8B520C            mov edx,[edx+0xc]
0000227B  89500C            mov [eax+0xc],edx
0000227E  C9                leave
0000227F  C3                ret
00002280  55                push ebp
00002281  89E5              mov ebp,esp
00002283  53                push ebx
00002284  83EC14            sub esp,byte +0x14
00002287  8B450C            mov eax,[ebp+0xc]
0000228A  890424            mov [esp],eax
0000228D  E809020000        call 0x249b
00002292  89C3              mov ebx,eax
00002294  8B4508            mov eax,[ebp+0x8]
00002297  890424            mov [esp],eax
0000229A  E8FC010000        call 0x249b
0000229F  8B5510            mov edx,[ebp+0x10]
000022A2  89542408          mov [esp+0x8],edx
000022A6  895C2404          mov [esp+0x4],ebx
000022AA  890424            mov [esp],eax
000022AD  E8FC010000        call 0x24ae
000022B2  83C414            add esp,byte +0x14
000022B5  5B                pop ebx
000022B6  5D                pop ebp
000022B7  C3                ret
000022B8  55                push ebp
000022B9  89E5              mov ebp,esp
000022BB  53                push ebx
000022BC  83EC24            sub esp,byte +0x24
000022BF  8B4508            mov eax,[ebp+0x8]
000022C2  890424            mov [esp],eax
000022C5  E828020000        call 0x24f2
000022CA  89C3              mov ebx,eax
000022CC  8B4508            mov eax,[ebp+0x8]
000022CF  890424            mov [esp],eax
000022D2  E885F5FFFF        call 0x185c
000022D7  89DA              mov edx,ebx
000022D9  29C2              sub edx,eax
000022DB  8B450C            mov eax,[ebp+0xc]
000022DE  39C2              cmp edx,eax
000022E0  0F92C0            setc al
000022E3  84C0              test al,al
000022E5  740B              jz 0x22f2
000022E7  8B4510            mov eax,[ebp+0x10]
000022EA  890424            mov [esp],eax
000022ED  E8CEE3FFFF        call 0x6c0
000022F2  8B4508            mov eax,[ebp+0x8]
000022F5  890424            mov [esp],eax
000022F8  E85FF5FFFF        call 0x185c
000022FD  89C3              mov ebx,eax
000022FF  8B4508            mov eax,[ebp+0x8]
00002302  890424            mov [esp],eax
00002305  E852F5FFFF        call 0x185c
0000230A  8945F0            mov [ebp-0x10],eax
0000230D  8D450C            lea eax,[ebp+0xc]
00002310  89442404          mov [esp+0x4],eax
00002314  8D45F0            lea eax,[ebp-0x10]
00002317  890424            mov [esp],eax
0000231A  E8EE010000        call 0x250d
0000231F  8B00              mov eax,[eax]
00002321  01D8              add eax,ebx
00002323  8945F4            mov [ebp-0xc],eax
00002326  8B4508            mov eax,[ebp+0x8]
00002329  890424            mov [esp],eax
0000232C  E82BF5FFFF        call 0x185c
00002331  3B45F4            cmp eax,[ebp-0xc]
00002334  7710              ja 0x2346
00002336  8B4508            mov eax,[ebp+0x8]
00002339  890424            mov [esp],eax
0000233C  E8B1010000        call 0x24f2
00002341  3B45F4            cmp eax,[ebp-0xc]
00002344  730D              jnc 0x2353
00002346  8B4508            mov eax,[ebp+0x8]
00002349  890424            mov [esp],eax
0000234C  E8A1010000        call 0x24f2
00002351  EB03              jmp short 0x2356
00002353  8B45F4            mov eax,[ebp-0xc]
00002356  83C424            add esp,byte +0x24
00002359  5B                pop ebx
0000235A  5D                pop ebp
0000235B  C3                ret
0000235C  55                push ebp
0000235D  89E5              mov ebp,esp
0000235F  83EC18            sub esp,byte +0x18
00002362  837D0C00          cmp dword [ebp+0xc],byte +0x0
00002366  741C              jz 0x2384
00002368  8B4508            mov eax,[ebp+0x8]
0000236B  C744240800000000  mov dword [esp+0x8],0x0
00002373  8B550C            mov edx,[ebp+0xc]
00002376  89542404          mov [esp+0x4],edx
0000237A  890424            mov [esp],eax
0000237D  E8A6010000        call 0x2528
00002382  EB05              jmp short 0x2389
00002384  B800000000        mov eax,0x0
00002389  C9                leave
0000238A  C3                ret
0000238B  55                push ebp
0000238C  89E5              mov ebp,esp
0000238E  83EC18            sub esp,byte +0x18
00002391  8B4514            mov eax,[ebp+0x14]
00002394  8944240C          mov [esp+0xc],eax
00002398  8B4510            mov eax,[ebp+0x10]
0000239B  89442408          mov [esp+0x8],eax
0000239F  8B450C            mov eax,[ebp+0xc]
000023A2  89442404          mov [esp+0x4],eax
000023A6  8B4508            mov eax,[ebp+0x8]
000023A9  890424            mov [esp],eax
000023AC  E8A7010000        call 0x2558
000023B1  C9                leave
000023B2  C3                ret
000023B3  90                nop
000023B4  55                push ebp
000023B5  89E5              mov ebp,esp
000023B7  8B4508            mov eax,[ebp+0x8]
000023BA  5D                pop ebp
000023BB  C3                ret
000023BC  55                push ebp
000023BD  89E5              mov ebp,esp
000023BF  5D                pop ebp
000023C0  C3                ret
000023C1  90                nop
000023C2  55                push ebp
000023C3  89E5              mov ebp,esp
000023C5  5D                pop ebp
000023C6  C3                ret
000023C7  90                nop
000023C8  55                push ebp
000023C9  89E5              mov ebp,esp
000023CB  83EC18            sub esp,byte +0x18
000023CE  8B450C            mov eax,[ebp+0xc]
000023D1  89442404          mov [esp+0x4],eax
000023D5  8B4508            mov eax,[ebp+0x8]
000023D8  890424            mov [esp],eax
000023DB  E89A010000        call 0x257a
000023E0  C9                leave
000023E1  C3                ret
000023E2  55                push ebp
000023E3  89E5              mov ebp,esp
000023E5  53                push ebx
000023E6  83EC24            sub esp,byte +0x24
000023E9  8B4510            mov eax,[ebp+0x10]
000023EC  8945F4            mov [ebp-0xc],eax
000023EF  EB33              jmp short 0x2424
000023F1  8D4508            lea eax,[ebp+0x8]
000023F4  890424            mov [esp],eax
000023F7  E864FCFFFF        call 0x2060
000023FC  89C3              mov ebx,eax
000023FE  8B45F4            mov eax,[ebp-0xc]
00002401  890424            mov [esp],eax
00002404  E8B8010000        call 0x25c1
00002409  895C2404          mov [esp+0x4],ebx
0000240D  890424            mov [esp],eax
00002410  E8B4010000        call 0x25c9
00002415  8D4508            lea eax,[ebp+0x8]
00002418  890424            mov [esp],eax
0000241B  E88C010000        call 0x25ac
00002420  8345F410          add dword [ebp-0xc],byte +0x10
00002424  8D450C            lea eax,[ebp+0xc]
00002427  89442404          mov [esp+0x4],eax
0000242B  8D4508            lea eax,[ebp+0x8]
0000242E  890424            mov [esp],eax
00002431  E849010000        call 0x257f
00002436  84C0              test al,al
00002438  75B7              jnz 0x23f1
0000243A  8B45F4            mov eax,[ebp-0xc]
0000243D  83C424            add esp,byte +0x24
00002440  5B                pop ebx
00002441  5D                pop ebp
00002442  C3                ret
00002443  55                push ebp
00002444  89E5              mov ebp,esp
00002446  83EC18            sub esp,byte +0x18
00002449  8B4508            mov eax,[ebp+0x8]
0000244C  DD00              fld qword [eax]
0000244E  8B450C            mov eax,[ebp+0xc]
00002451  DD00              fld qword [eax]
00002453  DAE9              fucompp
00002455  DFE0              fnstsw ax
00002457  F6C445            test ah,0x45
0000245A  7437              jz 0x2493
0000245C  8B450C            mov eax,[ebp+0xc]
0000245F  DD00              fld qword [eax]
00002461  8B4508            mov eax,[ebp+0x8]
00002464  DD00              fld qword [eax]
00002466  DAE9              fucompp
00002468  DFE0              fnstsw ax
0000246A  F6C445            test ah,0x45
0000246D  0F94C0            setz al
00002470  83F001            xor eax,byte +0x1
00002473  84C0              test al,al
00002475  7420              jz 0x2497
00002477  8B450C            mov eax,[ebp+0xc]
0000247A  8D5008            lea edx,[eax+0x8]
0000247D  8B4508            mov eax,[ebp+0x8]
00002480  83C008            add eax,byte +0x8
00002483  89542404          mov [esp+0x4],edx
00002487  890424            mov [esp],eax
0000248A  E872010000        call 0x2601
0000248F  84C0              test al,al
00002491  7404              jz 0x2497
00002493  B001              mov al,0x1
00002495  EB02              jmp short 0x2499
00002497  B000              mov al,0x0
00002499  C9                leave
0000249A  C3                ret
0000249B  55                push ebp
0000249C  89E5              mov ebp,esp
0000249E  83EC18            sub esp,byte +0x18
000024A1  8B4508            mov eax,[ebp+0x8]
000024A4  890424            mov [esp],eax
000024A7  E88C010000        call 0x2638
000024AC  C9                leave
000024AD  C3                ret
000024AE  55                push ebp
000024AF  89E5              mov ebp,esp
000024B1  56                push esi
000024B2  53                push ebx
000024B3  83EC10            sub esp,byte +0x10
000024B6  8B4510            mov eax,[ebp+0x10]
000024B9  890424            mov [esp],eax
000024BC  E87F010000        call 0x2640
000024C1  89C6              mov esi,eax
000024C3  8B450C            mov eax,[ebp+0xc]
000024C6  890424            mov [esp],eax
000024C9  E872010000        call 0x2640
000024CE  89C3              mov ebx,eax
000024D0  8B4508            mov eax,[ebp+0x8]
000024D3  890424            mov [esp],eax
000024D6  E865010000        call 0x2640
000024DB  89742408          mov [esp+0x8],esi
000024DF  895C2404          mov [esp+0x4],ebx
000024E3  890424            mov [esp],eax
000024E6  E868010000        call 0x2653
000024EB  83C410            add esp,byte +0x10
000024EE  5B                pop ebx
000024EF  5E                pop esi
000024F0  5D                pop ebp
000024F1  C3                ret
000024F2  55                push ebp
000024F3  89E5              mov ebp,esp
000024F5  83EC18            sub esp,byte +0x18
000024F8  8B4508            mov eax,[ebp+0x8]
000024FB  890424            mov [esp],eax
000024FE  E87BF3FFFF        call 0x187e
00002503  890424            mov [esp],eax
00002506  E86D010000        call 0x2678
0000250B  C9                leave
0000250C  C3                ret
0000250D  55                push ebp
0000250E  89E5              mov ebp,esp
00002510  8B4508            mov eax,[ebp+0x8]
00002513  8B10              mov edx,[eax]
00002515  8B450C            mov eax,[ebp+0xc]
00002518  8B00              mov eax,[eax]
0000251A  39C2              cmp edx,eax
0000251C  7305              jnc 0x2523
0000251E  8B450C            mov eax,[ebp+0xc]
00002521  EB03              jmp short 0x2526
00002523  8B4508            mov eax,[ebp+0x8]
00002526  5D                pop ebp
00002527  C3                ret
00002528  55                push ebp
00002529  89E5              mov ebp,esp
0000252B  83EC18            sub esp,byte +0x18
0000252E  8B4508            mov eax,[ebp+0x8]
00002531  890424            mov [esp],eax
00002534  E853010000        call 0x268c
00002539  3B450C            cmp eax,[ebp+0xc]
0000253C  0F92C0            setc al
0000253F  84C0              test al,al
00002541  7405              jz 0x2548
00002543  E838E2FFFF        call 0x780
00002548  8B450C            mov eax,[ebp+0xc]
0000254B  C1E004            shl eax,byte 0x4
0000254E  890424            mov [esp],eax
00002551  E8FAE1FFFF        call 0x750
00002556  C9                leave
00002557  C3                ret
00002558  55                push ebp
00002559  89E5              mov ebp,esp
0000255B  83EC18            sub esp,byte +0x18
0000255E  8B4510            mov eax,[ebp+0x10]
00002561  89442408          mov [esp+0x8],eax
00002565  8B450C            mov eax,[ebp+0xc]
00002568  89442404          mov [esp+0x4],eax
0000256C  8B4508            mov eax,[ebp+0x8]
0000256F  890424            mov [esp],eax
00002572  E81F010000        call 0x2696
00002577  C9                leave
00002578  C3                ret
00002579  90                nop
0000257A  55                push ebp
0000257B  89E5              mov ebp,esp
0000257D  5D                pop ebp
0000257E  C3                ret
0000257F  55                push ebp
00002580  89E5              mov ebp,esp
00002582  53                push ebx
00002583  83EC14            sub esp,byte +0x14
00002586  8B4508            mov eax,[ebp+0x8]
00002589  890424            mov [esp],eax
0000258C  E823FEFFFF        call 0x23b4
00002591  8B18              mov ebx,[eax]
00002593  8B450C            mov eax,[ebp+0xc]
00002596  890424            mov [esp],eax
00002599  E816FEFFFF        call 0x23b4
0000259E  8B00              mov eax,[eax]
000025A0  39C3              cmp ebx,eax
000025A2  0F95C0            setnz al
000025A5  83C414            add esp,byte +0x14
000025A8  5B                pop ebx
000025A9  5D                pop ebp
000025AA  C3                ret
000025AB  90                nop
000025AC  55                push ebp
000025AD  89E5              mov ebp,esp
000025AF  8B4508            mov eax,[ebp+0x8]
000025B2  8B00              mov eax,[eax]
000025B4  8D5010            lea edx,[eax+0x10]
000025B7  8B4508            mov eax,[ebp+0x8]
000025BA  8910              mov [eax],edx
000025BC  8B4508            mov eax,[ebp+0x8]
000025BF  5D                pop ebp
000025C0  C3                ret
000025C1  55                push ebp
000025C2  89E5              mov ebp,esp
000025C4  8B4508            mov eax,[ebp+0x8]
000025C7  5D                pop ebp
000025C8  C3                ret
000025C9  55                push ebp
000025CA  89E5              mov ebp,esp
000025CC  83EC18            sub esp,byte +0x18
000025CF  8B4508            mov eax,[ebp+0x8]
000025D2  89442404          mov [esp+0x4],eax
000025D6  C7042410000000    mov dword [esp],0x10
000025DD  E8C2EAFFFF        call 0x10a4
000025E2  85C0              test eax,eax
000025E4  7419              jz 0x25ff
000025E6  8B550C            mov edx,[ebp+0xc]
000025E9  8B0A              mov ecx,[edx]
000025EB  8908              mov [eax],ecx
000025ED  8B4A04            mov ecx,[edx+0x4]
000025F0  894804            mov [eax+0x4],ecx
000025F3  8B4A08            mov ecx,[edx+0x8]
000025F6  894808            mov [eax+0x8],ecx
000025F9  8B520C            mov edx,[edx+0xc]
000025FC  89500C            mov [eax+0xc],edx
000025FF  C9                leave
00002600  C3                ret
00002601  55                push ebp
00002602  89E5              mov ebp,esp
00002604  8B4508            mov eax,[ebp+0x8]
00002607  8B10              mov edx,[eax]
00002609  8B450C            mov eax,[ebp+0xc]
0000260C  8B00              mov eax,[eax]
0000260E  39C2              cmp edx,eax
00002610  7C1E              jl 0x2630
00002612  8B450C            mov eax,[ebp+0xc]
00002615  8B10              mov edx,[eax]
00002617  8B4508            mov eax,[ebp+0x8]
0000261A  8B00              mov eax,[eax]
0000261C  39C2              cmp edx,eax
0000261E  7C14              jl 0x2634
00002620  8B4508            mov eax,[ebp+0x8]
00002623  8B5004            mov edx,[eax+0x4]
00002626  8B450C            mov eax,[ebp+0xc]
00002629  8B4004            mov eax,[eax+0x4]
0000262C  39C2              cmp edx,eax
0000262E  7D04              jnl 0x2634
00002630  B001              mov al,0x1
00002632  EB02              jmp short 0x2636
00002634  B000              mov al,0x0
00002636  5D                pop ebp
00002637  C3                ret
00002638  55                push ebp
00002639  89E5              mov ebp,esp
0000263B  8B4508            mov eax,[ebp+0x8]
0000263E  5D                pop ebp
0000263F  C3                ret
00002640  55                push ebp
00002641  89E5              mov ebp,esp
00002643  83EC18            sub esp,byte +0x18
00002646  8B4508            mov eax,[ebp+0x8]
00002649  890424            mov [esp],eax
0000264C  E8E7FFFFFF        call 0x2638
00002651  C9                leave
00002652  C3                ret
00002653  55                push ebp
00002654  89E5              mov ebp,esp
00002656  83EC28            sub esp,byte +0x28
00002659  C645F700          mov byte [ebp-0x9],0x0
0000265D  8B4510            mov eax,[ebp+0x10]
00002660  89442408          mov [esp+0x8],eax
00002664  8B450C            mov eax,[ebp+0xc]
00002667  89442404          mov [esp+0x4],eax
0000266B  8B4508            mov eax,[ebp+0x8]
0000266E  890424            mov [esp],eax
00002671  E841000000        call 0x26b7
00002676  C9                leave
00002677  C3                ret
00002678  55                push ebp
00002679  89E5              mov ebp,esp
0000267B  83EC18            sub esp,byte +0x18
0000267E  8B4508            mov eax,[ebp+0x8]
00002681  890424            mov [esp],eax
00002684  E803000000        call 0x268c
00002689  C9                leave
0000268A  C3                ret
0000268B  90                nop
0000268C  55                push ebp
0000268D  89E5              mov ebp,esp
0000268F  B8FFFFFF0F        mov eax,0xfffffff
00002694  5D                pop ebp
00002695  C3                ret
00002696  55                push ebp
00002697  89E5              mov ebp,esp
00002699  83EC18            sub esp,byte +0x18
0000269C  8B4510            mov eax,[ebp+0x10]
0000269F  89442408          mov [esp+0x8],eax
000026A3  8B450C            mov eax,[ebp+0xc]
000026A6  89442404          mov [esp+0x4],eax
000026AA  8B4508            mov eax,[ebp+0x8]
000026AD  890424            mov [esp],eax
000026B0  E84C000000        call 0x2701
000026B5  C9                leave
000026B6  C3                ret
000026B7  55                push ebp
000026B8  89E5              mov ebp,esp
000026BA  83EC10            sub esp,byte +0x10
000026BD  8B550C            mov edx,[ebp+0xc]
000026C0  8B4508            mov eax,[ebp+0x8]
000026C3  29C2              sub edx,eax
000026C5  89D0              mov eax,edx
000026C7  C1F804            sar eax,byte 0x4
000026CA  8945FC            mov [ebp-0x4],eax
000026CD  EB27              jmp short 0x26f6
000026CF  836D1010          sub dword [ebp+0x10],byte +0x10
000026D3  8B4510            mov eax,[ebp+0x10]
000026D6  836D0C10          sub dword [ebp+0xc],byte +0x10
000026DA  8B550C            mov edx,[ebp+0xc]
000026DD  8B0A              mov ecx,[edx]
000026DF  8908              mov [eax],ecx
000026E1  8B4A04            mov ecx,[edx+0x4]
000026E4  894804            mov [eax+0x4],ecx
000026E7  8B4A08            mov ecx,[edx+0x8]
000026EA  894808            mov [eax+0x8],ecx
000026ED  8B520C            mov edx,[edx+0xc]
000026F0  89500C            mov [eax+0xc],edx
000026F3  FF4DFC            dec dword [ebp-0x4]
000026F6  837DFC00          cmp dword [ebp-0x4],byte +0x0
000026FA  7FD3              jg 0x26cf
000026FC  8B4510            mov eax,[ebp+0x10]
000026FF  C9                leave
00002700  C3                ret
00002701  55                push ebp
00002702  89E5              mov ebp,esp
00002704  83EC28            sub esp,byte +0x28
00002707  8B4510            mov eax,[ebp+0x10]
0000270A  8945F4            mov [ebp-0xc],eax
0000270D  EB22              jmp short 0x2731
0000270F  8B45F4            mov eax,[ebp-0xc]
00002712  890424            mov [esp],eax
00002715  E8A7FEFFFF        call 0x25c1
0000271A  8B5508            mov edx,[ebp+0x8]
0000271D  89542404          mov [esp+0x4],edx
00002721  890424            mov [esp],eax
00002724  E8A0FEFFFF        call 0x25c9
00002729  83450810          add dword [ebp+0x8],byte +0x10
0000272D  8345F410          add dword [ebp-0xc],byte +0x10
00002731  8B4508            mov eax,[ebp+0x8]
00002734  3B450C            cmp eax,[ebp+0xc]
00002737  75D6              jnz 0x270f
00002739  8B45F4            mov eax,[ebp-0xc]
0000273C  C9                leave
0000273D  C3                ret
0000273E  6690              xchg ax,ax
00002740  55                push ebp
00002741  89E5              mov ebp,esp
00002743  5D                pop ebp
00002744  C3                ret
00002745  66662E0F1F840000  nop word [cs:eax+eax+0x0]
         -000000
00002750  55                push ebp
00002751  89E5              mov ebp,esp
00002753  57                push edi
00002754  56                push esi
00002755  53                push ebx
00002756  E84F000000        call 0x27aa
0000275B  81C3C5230000      add ebx,0x23c5
00002761  83EC1C            sub esp,byte +0x1c
00002764  E813DFFFFF        call 0x67c
00002769  8DBB02FFFFFF      lea edi,[ebx-0xfe]
0000276F  8D8302FFFFFF      lea eax,[ebx-0xfe]
00002775  29C7              sub edi,eax
00002777  C1FF02            sar edi,byte 0x2
0000277A  85FF              test edi,edi
0000277C  7424              jz 0x27a2
0000277E  31F6              xor esi,esi
00002780  8B4510            mov eax,[ebp+0x10]
00002783  89442408          mov [esp+0x8],eax
00002787  8B450C            mov eax,[ebp+0xc]
0000278A  89442404          mov [esp+0x4],eax
0000278E  8B4508            mov eax,[ebp+0x8]
00002791  890424            mov [esp],eax
00002794  FF94B302FFFFFF    call [ebx+esi*4-0xfe]
0000279B  83C601            add esi,byte +0x1
0000279E  39FE              cmp esi,edi
000027A0  72DE              jc 0x2780
000027A2  83C41C            add esp,byte +0x1c
000027A5  5B                pop ebx
000027A6  5E                pop esi
000027A7  5F                pop edi
000027A8  5D                pop ebp
000027A9  C3                ret
000027AA  8B1C24            mov ebx,[esp]
000027AD  C3                ret
000027AE  6690              xchg ax,ax
000027B0  55                push ebp
000027B1  89E5              mov ebp,esp
000027B3  53                push ebx
000027B4  52                push edx
000027B5  BB28CA0408        mov ebx,0x804ca28
000027BA  A128CA0408        mov eax,[0x804ca28]
000027BF  83F8FF            cmp eax,byte -0x1
000027C2  7410              jz 0x27d4
000027C4  8D742600          lea esi,[esi+0x0]
000027C8  83EB04            sub ebx,byte +0x4
000027CB  FFD0              call eax
000027CD  8B03              mov eax,[ebx]
000027CF  83F8FF            cmp eax,byte -0x1
000027D2  75F4              jnz 0x27c8
000027D4  58                pop eax
000027D5  5B                pop ebx
000027D6  5D                pop ebp
000027D7  C3                ret
000027D8  55                push ebp
000027D9  89E5              mov ebp,esp
000027DB  53                push ebx
000027DC  83EC04            sub esp,byte +0x4
000027DF  E800000000        call 0x27e4
000027E4  5B                pop ebx
000027E5  81C33C230000      add ebx,0x233c
000027EB  E870E0FFFF        call 0x860
000027F0  59                pop ecx
000027F1  5B                pop ebx
000027F2  C9                leave
000027F3  C3                ret
000027F4  0000              add [eax],al
000027F6  0000              add [eax],al
000027F8  0300              add eax,[eax]
000027FA  0000              add [eax],al
000027FC  0100              add [eax],eax
000027FE  0200              add al,[eax]
00002800  256C660A00        and eax,0xa666c
00002805  43                inc ebx
00002806  61                popa
00002807  7365              jnc 0x286e
00002809  2023              and [ebx],ah
0000280B  25643A2000        and eax,0x203a64
00002810  7665              jna 0x2877
00002812  63746F72          arpl [edi+ebp*2+0x72],si
00002816  3A3A              cmp bh,[edx]
00002818  5F                pop edi
00002819  4D                dec ebp
0000281A  5F                pop edi
0000281B  696E736572745F    imul ebp,[esi+0x73],dword 0x5f747265
00002822  61                popa
00002823  7578              jnz 0x289d
00002825  0000              add [eax],al
00002827  0000              add [eax],al
00002829  0000              add [eax],al
0000282B  0000              add [eax],al
0000282D  00D0              add al,dl
0000282F  41                inc ecx
00002830  0000              add [eax],al
00002832  0000              add [eax],al
00002834  0000              add [eax],al
00002836  2440              and al,0x40
00002838  011B              add [ebx],ebx
0000283A  033B              add edi,[ebx]
0000283C  2803              sub [ebx],al
0000283E  0000              add [eax],al
00002840  640000            add [fs:eax],al
00002843  0078DE            add [eax-0x22],bh
00002846  FF                db 0xff
00002847  FF440300          inc dword [ebx+eax+0x0]
0000284B  00A8E0FFFFC8      add [eax-0x37000020],ch
00002851  0300              add eax,[eax]
00002853  003A              add [edx],bh
00002855  E6FF              out 0xff,al
00002857  FFF0              push eax
00002859  0300              add eax,[eax]
0000285B  0011              add [ecx],dl
0000285D  E8FFFF6410        call 0x10652861
00002862  0000              add [eax],al
00002864  50                push eax
00002865  E8FFFF8410        call 0x10852869
0000286A  0000              add [eax],al
0000286C  6C                insb
0000286D  E8FFFF6803        call 0x3692871
00002872  0000              add [eax],al
00002874  74E8              jz 0x285e
00002876  FF                db 0xff
00002877  FF8803000088      dec dword [eax-0x77fffffd]
0000287D  E8FFFF1404        call 0x4152881
00002882  0000              add [eax],al
00002884  9C                pushf
00002885  E8FFFF3404        call 0x4352889
0000288A  0000              add [eax],al
0000288C  F4                hlt
0000288D  E8FFFF5C04        call 0x45d2891
00002892  0000              add [eax],al
00002894  6BE9FF            imul ebp,ecx,byte -0x1
00002897  FF8404000091E9    inc dword [esp+eax-0x166f0000]
0000289E  FF                db 0xff
0000289F  FFA4040000C4E9    jmp [esp+eax-0x163c0000]
000028A6  FF                db 0xff
000028A7  FFC4              inc esp
000028A9  0400              add al,0x0
000028AB  0022              add [edx],ah
000028AD  EAFFFFE8040000    jmp 0x0:0x4e8ffff
000028B4  36EAFFFF08050000  ss jmp 0x0:0x508ffff
000028BC  4A                dec edx
000028BD  EAFFFF28050000    jmp 0x0:0x528ffff
000028C4  A1EAFFFF4C        mov eax,[0x4cffffea]
000028C9  050000C2EA        add eax,0xeac20000
000028CE  FF                db 0xff
000028CF  FF6C0500          jmp far [ebp+eax+0x0]
000028D3  00D6              add dh,dl
000028D5  EAFFFF8C050000    jmp 0x0:0x58cffff
000028DC  EAEAFFFFAC0500    jmp 0x5:0xacffffea
000028E3  004AEB            add [edx-0x15],cl
000028E6  FF                db 0xff
000028E7  FFD4              call esp
000028E9  05000052EB        add eax,0xeb520000
000028EE  FF                db 0xff
000028EF  FFF4              push esp
000028F1  0500006CEB        add eax,0xeb6c0000
000028F6  FF                db 0xff
000028F7  FF1406            call [esi+eax]
000028FA  0000              add [eax],al
000028FC  24EC              and al,0xec
000028FE  FF                db 0xff
000028FF  FF4006            inc dword [eax+0x6]
00002902  0000              add [eax],al
00002904  44                inc esp
00002905  EC                in al,dx
00002906  FF                db 0xff
00002907  FF6006            jmp [eax+0x6]
0000290A  0000              add [eax],al
0000290C  66EC              o16 in al,dx
0000290E  FF                db 0xff
0000290F  FF800600004E      inc dword [eax+0x4e000006]
00002915  ED                in eax,dx
00002916  FF                db 0xff
00002917  FFA806000068      jmp far [eax+0x68000006]
0000291D  ED                in eax,dx
0000291E  FF                db 0xff
0000291F  FFC8              dec eax
00002921  06                push es
00002922  0000              add [eax],al
00002924  8EED              mov gs,ebp
00002926  FF                db 0xff
00002927  FF                db 0xff
00002928  E806000001        call 0x1002933
0000292D  EE                out dx,al
0000292E  FF                db 0xff
0000292F  FF08              dec dword [eax]
00002931  07                pop es
00002932  0000              add [eax],al
00002934  A8EE              test al,0xee
00002936  FF                db 0xff
00002937  FF30              push dword [eax]
00002939  07                pop es
0000293A  0000              add [eax],al
0000293C  F8                clc
0000293D  EE                out dx,al
0000293E  FF                db 0xff
0000293F  FF540700          call [edi+eax+0x0]
00002943  0020              add [eax],ah
00002945  EF                out dx,eax
00002946  FF                db 0xff
00002947  FF740700          push dword [edi+eax+0x0]
0000294B  0072EF            add [edx-0x11],dh
0000294E  FF                db 0xff
0000294F  FF980700009E      call far [eax-0x61fffff9]
00002955  EF                out dx,eax
00002956  FF                db 0xff
00002957  FF                db 0xff
00002958  B8070000CE        mov eax,0xce000007
0000295D  EF                out dx,eax
0000295E  FF                db 0xff
0000295F  FF                db 0xff
00002960  D807              fadd dword [edi]
00002962  0000              add [eax],al
00002964  E2EF              loop 0x2955
00002966  FF                db 0xff
00002967  FF                db 0xff
00002968  F8                clc
00002969  07                pop es
0000296A  0000              add [eax],al
0000296C  09F0              or eax,esi
0000296E  FF                db 0xff
0000296F  FF18              call far [eax]
00002971  0800              or [eax],al
00002973  0024F0            add [eax+esi*8],ah
00002976  FF                db 0xff
00002977  FF                db 0xff
00002978  3808              cmp [eax],cl
0000297A  0000              add [eax],al
0000297C  3DF0FFFF58        cmp eax,0x58fffff0
00002981  0800              or [eax],al
00002983  0046F0            add [esi-0x10],al
00002986  FF                db 0xff
00002987  FF                db 0xff
00002988  7808              js 0x2992
0000298A  0000              add [eax],al
0000298C  4E                dec esi
0000298D  F0                lock
0000298E  FF                db 0xff
0000298F  FF9808000098      call far [eax-0x67fffff8]
00002995  F0                lock
00002996  FF                db 0xff
00002997  FFC0              inc eax
00002999  0800              or [eax],al
0000299B  00C0              add al,al
0000299D  F0                lock
0000299E  FF                db 0xff
0000299F  FFE0              jmp eax
000029A1  0800              or [eax],al
000029A3  00E8              add al,ch
000029A5  F0                lock
000029A6  FF                db 0xff
000029A7  FF00              inc dword [eax]
000029A9  0900              or [eax],eax
000029AB  000A              add [edx],cl
000029AD  F1                int1
000029AE  FF                db 0xff
000029AF  FF20              jmp [eax]
000029B1  0900              or [eax],eax
000029B3  0019              add [ecx],bl
000029B5  F1                int1
000029B6  FF                db 0xff
000029B7  FF4009            inc dword [eax+0x9]
000029BA  0000              add [eax],al
000029BC  4A                dec edx
000029BD  F1                int1
000029BE  FF                db 0xff
000029BF  FF640900          jmp [ecx+ecx+0x0]
000029C3  007CF1FF          add [ecx+esi*8-0x1],bh
000029C7  FF8409000086F1    inc dword [ecx+ecx-0xe7a0000]
000029CE  FF                db 0xff
000029CF  FFA409000096F3    jmp [ecx+ecx-0xc6a0000]
000029D6  FF                db 0xff
000029D7  FF                db 0xff
000029D8  D809              fmul dword [ecx]
000029DA  0000              add [eax],al
000029DC  B8F3FFFFF8        mov eax,0xf8fffff3
000029E1  0900              or [eax],eax
000029E3  0082F6FFFF28      add [edx+0x28fffff6],al
000029E9  0A00              or al,[eax]
000029EB  00B5F6FFFF48      add [ebp+0x48fffff6],dh
000029F1  0A00              or al,[eax]
000029F3  00FC              add ah,bh
000029F5  F7FF              idiv edi
000029F7  FF                db 0xff
000029F8  7C0A              jl 0x2a04
000029FA  0000              add [eax],al
000029FC  28F8              sub al,bh
000029FE  FF                db 0xff
000029FF  FFA00A000032      jmp [eax+0x3200000a]
00002A05  F8                clc
00002A06  FF                db 0xff
00002A07  FFC0              inc eax
00002A09  0A00              or al,[eax]
00002A0B  0047F8            add [edi-0x8],al
00002A0E  FF                db 0xff
00002A0F  FFE0              jmp eax
00002A11  0A00              or al,[eax]
00002A13  00FB              add bl,bh
00002A15  F8                clc
00002A16  FF                db 0xff
00002A17  FF0C0B            dec dword [ebx+ecx]
00002A1A  0000              add [eax],al
00002A1C  16                push ss
00002A1D  F9                stc
00002A1E  FF                db 0xff
00002A1F  FF2C0B            jmp far [ebx+ecx]
00002A22  0000              add [eax],al
00002A24  2AF9              sub bh,cl
00002A26  FF                db 0xff
00002A27  FF4C0B00          dec dword [ebx+ecx+0x0]
00002A2B  0030              add [eax],dh
00002A2D  F9                stc
00002A2E  FF                db 0xff
00002A2F  FF6C0B00          jmp far [ebx+ecx+0x0]
00002A33  0043F9            add [ebx-0x7],al
00002A36  FF                db 0xff
00002A37  FF8C0B000048F9    dec dword [ebx+ecx-0x6b80000]
00002A3E  FF                db 0xff
00002A3F  FFAC0B000080F9    jmp far [ebx+ecx-0x6800000]
00002A46  FF                db 0xff
00002A47  FFCC              dec esp
00002A49  0B00              or eax,[eax]
00002A4B  00BEF9FFFFEC      add [esi-0x13000007],bh
00002A51  0B00              or eax,[eax]
00002A53  00CD              add ch,cl
00002A55  F9                stc
00002A56  FF                db 0xff
00002A57  FF0C0C            dec dword [esp+ecx]
00002A5A  0000              add [eax],al
00002A5C  EE                out dx,al
00002A5D  F9                stc
00002A5E  FF                db 0xff
00002A5F  FF2C0C            jmp far [esp+ecx]
00002A62  0000              add [eax],al
00002A64  F6F9              idiv cl
00002A66  FF                db 0xff
00002A67  FF4C0C00          dec dword [esp+ecx+0x0]
00002A6B  0010              add [eax],dl
00002A6D  FA                cli
00002A6E  FF                db 0xff
00002A6F  FF6C0C00          jmp far [esp+ecx+0x0]
00002A73  0048FA            add [eax-0x6],cl
00002A76  FF                db 0xff
00002A77  FF8C0C000080FA    dec dword [esp+ecx-0x5800000]
00002A7E  FF                db 0xff
00002A7F  FFB00C000024      push dword [eax+0x2400000c]
00002A85  FB                sti
00002A86  FF                db 0xff
00002A87  FFD4              call esp
00002A89  0C00              or al,0x0
00002A8B  0053FB            add [ebx-0x5],dl
00002A8E  FF                db 0xff
00002A8F  FFF4              push esp
00002A91  0C00              or al,0x0
00002A93  007CFBFF          add [ebx+edi*8-0x1],bh
00002A97  FF140D000084FB    call [ecx-0x47c0000]
00002A9E  FF                db 0xff
00002A9F  FF340D00008AFB    push dword [ecx-0x4760000]
00002AA6  FF                db 0xff
00002AA7  FF540D00          call [ebp+ecx+0x0]
00002AAB  0090FBFFFF74      add [eax+0x74fffffb],dl
00002AB1  0D0000AAFB        or eax,0xfbaa0000
00002AB6  FF                db 0xff
00002AB7  FF940D00000BFC    call [ebp+ecx-0x3f50000]
00002ABE  FF                db 0xff
00002ABF  FF                db 0xff
00002AC0  B80D000063        mov eax,0x6300000d
00002AC5  FC                cld
00002AC6  FF                db 0xff
00002AC7  FF                db 0xff
00002AC8  D80D000076FC      fmul dword [dword 0xfc760000]
00002ACE  FF                db 0xff
00002ACF  FF                db 0xff
00002AD0  F8                clc
00002AD1  0D0000BAFC        or eax,0xfcba0000
00002AD6  FF                db 0xff
00002AD7  FF20              jmp [eax]
00002AD9  0E                push cs
00002ADA  0000              add [eax],al
00002ADC  D5FC              aad 0xfc
00002ADE  FF                db 0xff
00002ADF  FF400E            inc dword [eax+0xe]
00002AE2  0000              add [eax],al
00002AE4  F0FC              lock cld
00002AE6  FF                db 0xff
00002AE7  FF600E            jmp [eax+0xe]
00002AEA  0000              add [eax],al
00002AEC  20FD              and ch,bh
00002AEE  FF                db 0xff
00002AEF  FF800E000042      inc dword [eax+0x4200000e]
00002AF5  FD                std
00002AF6  FF                db 0xff
00002AF7  FFA00E000047      jmp [eax+0x4700000e]
00002AFD  FD                std
00002AFE  FF                db 0xff
00002AFF  FFC0              inc eax
00002B01  0E                push cs
00002B02  0000              add [eax],al
00002B04  74FD              jz 0x2b03
00002B06  FF                db 0xff
00002B07  FFE4              jmp esp
00002B09  0E                push cs
00002B0A  0000              add [eax],al
00002B0C  89FD              mov ebp,edi
00002B0E  FF                db 0xff
00002B0F  FF040F            inc dword [edi+ecx]
00002B12  0000              add [eax],al
00002B14  91                xchg eax,ecx
00002B15  FD                std
00002B16  FF                db 0xff
00002B17  FF240F            jmp [edi+ecx]
00002B1A  0000              add [eax],al
00002B1C  C9                leave
00002B1D  FD                std
00002B1E  FF                db 0xff
00002B1F  FF440F00          inc dword [edi+ecx+0x0]
00002B23  0000              add [eax],al
00002B25  FE                db 0xfe
00002B26  FF                db 0xff
00002B27  FF640F00          jmp [edi+ecx+0x0]
00002B2B  0008              add [eax],cl
00002B2D  FE                db 0xfe
00002B2E  FF                db 0xff
00002B2F  FF840F00001BFE    inc dword [edi+ecx-0x1e50000]
00002B36  FF                db 0xff
00002B37  FFA40F000040FE    jmp [edi+ecx-0x1c00000]
00002B3E  FF                db 0xff
00002B3F  FFC4              inc esp
00002B41  0F0000            sldt [eax]
00002B44  54                push esp
00002B45  FE                db 0xfe
00002B46  FF                db 0xff
00002B47  FFE4              jmp esp
00002B49  0F0000            sldt [eax]
00002B4C  5E                pop esi
00002B4D  FE                db 0xfe
00002B4E  FF                db 0xff
00002B4F  FF0410            inc dword [eax+edx]
00002B52  0000              add [eax],al
00002B54  7FFE              jg 0x2b54
00002B56  FF                db 0xff
00002B57  FF2410            jmp [eax+edx]
00002B5A  0000              add [eax],al
00002B5C  C9                leave
00002B5D  FE                db 0xfe
00002B5E  FF                db 0xff
00002B5F  FF441000          inc dword [eax+edx+0x0]
00002B63  001400            add [eax+eax],dl
00002B66  0000              add [eax],al
00002B68  0000              add [eax],al
00002B6A  0000              add [eax],al
00002B6C  017A52            add [edx+0x52],edi
00002B6F  0001              add [ecx],al
00002B71  7C08              jl 0x2b7b
00002B73  011B              add [ebx],ebx
00002B75  0C04              or al,0x4
00002B77  0488              add al,0x88
00002B79  0100              add [eax],eax
00002B7B  0020              add [eax],ah
00002B7D  0000              add [eax],al
00002B7F  001C00            add [eax+eax],bl
00002B82  0000              add [eax],al
00002B84  2CDB              sub al,0xdb
00002B86  FF                db 0xff
00002B87  FF10              call [eax]
00002B89  0100              add [eax],eax
00002B8B  0000              add [eax],al
00002B8D  0E                push cs
00002B8E  08460E            or [esi+0xe],al
00002B91  0C4A              or al,0x4a
00002B93  0F0B              ud2
00002B95  7404              jz 0x2b9b
00002B97  7800              js 0x2b99
00002B99  3F                aas
00002B9A  1A3B              sbb bh,[ebx]
00002B9C  2A32              sub dh,[edx]
00002B9E  2422              and al,0x22
00002BA0  1C00              sbb al,0x0
00002BA2  0000              add [eax],al
00002BA4  40                inc eax
00002BA5  0000              add [eax],al
00002BA7  00FC              add ah,bh
00002BA9  E4FF              in al,0xff
00002BAB  FF08              dec dword [eax]
00002BAD  0000              add [eax],al
00002BAF  0000              add [eax],al
00002BB1  41                inc ecx
00002BB2  0E                push cs
00002BB3  088502420D05      or [ebp+0x50d4202],al
00002BB9  44                inc esp
00002BBA  C50C04            lds ecx,[esp+eax]
00002BBD  0400              add al,0x0
00002BBF  001C00            add [eax+eax],bl
00002BC2  0000              add [eax],al
00002BC4  60                pusha
00002BC5  0000              add [eax],al
00002BC7  00E4              add ah,ah
00002BC9  E4FF              in al,0xff
00002BCB  FF13              call [ebx]
00002BCD  0000              add [eax],al
00002BCF  0000              add [eax],al
00002BD1  41                inc ecx
00002BD2  0E                push cs
00002BD3  088502420D05      or [ebp+0x50d4202],al
00002BD9  4F                dec edi
00002BDA  C50C04            lds ecx,[esp+eax]
00002BDD  0400              add al,0x0
00002BDF  001C00            add [eax+eax],bl
00002BE2  0000              add [eax],al
00002BE4  0000              add [eax],al
00002BE6  0000              add [eax],al
00002BE8  017A50            add [edx+0x50],edi
00002BEB  4C                dec esp
00002BEC  52                push edx
00002BED  0001              add [ecx],al
00002BEF  7C08              jl 0x2bf9
00002BF1  07                pop es
00002BF2  00A087040800      add [eax+0x80487],ah
00002BF8  1B0C04            sbb ecx,[esp+eax]
00002BFB  0488              add al,0x88
00002BFD  0100              add [eax],eax
00002BFF  002400            add [eax+eax],ah
00002C02  0000              add [eax],al
00002C04  2400              and al,0x0
00002C06  0000              add [eax],al
00002C08  D8DC              fcomp st4
00002C0A  FF                db 0xff
00002C0B  FF9205000004      call [edx+0x4000005]
00002C11  E0B8              loopne 0x2bcb
00002C13  0408              add al,0x8
00002C15  41                inc ecx
00002C16  0E                push cs
00002C17  088502420D05      or [ebp+0x50d4202],al
00002C1D  47                inc edi
00002C1E  830303            add dword [ebx],byte +0x3
00002C21  8705C5C30C04      xchg eax,[dword 0x40cc3c5]
00002C27  0420              add al,0x20
00002C29  0000              add [eax],al
00002C2B  004C0000          add [eax+eax+0x0],cl
00002C2F  0042E2            add [edx-0x1e],al
00002C32  FF                db 0xff
00002C33  FFD7              call edi
00002C35  0100              add [eax],eax
00002C37  000434            add [esp+esi],al
00002C3A  B90408410E        mov ecx,0xe410804
00002C3F  088502420D05      or [ebp+0x50d4202],al
00002C45  03D3              add edx,ebx
00002C47  01C5              add ebp,eax
00002C49  0C04              or al,0x4
00002C4B  041C              add al,0x1c
00002C4D  0000              add [eax],al
00002C4F  00EC              add ah,ch
00002C51  0000              add [eax],al
00002C53  006CE4FF          add [esp-0x1],ch
00002C57  FF13              call [ebx]
00002C59  0000              add [eax],al
00002C5B  0000              add [eax],al
00002C5D  41                inc ecx
00002C5E  0E                push cs
00002C5F  088502420D05      or [ebp+0x50d4202],al
00002C65  4F                dec edi
00002C66  C50C04            lds ecx,[esp+eax]
00002C69  0400              add al,0x0
00002C6B  002400            add [eax+eax],ah
00002C6E  0000              add [eax],al
00002C70  90                nop
00002C71  0000              add [eax],al
00002C73  0060E4            add [eax-0x1c],ah
00002C76  FF                db 0xff
00002C77  FF5700            call [edi+0x0]
00002C7A  0000              add [eax],al
00002C7C  0443              add al,0x43
00002C7E  B90408410E        mov ecx,0xe410804
00002C83  088502420D05      or [ebp+0x50d4202],al
00002C89  44                inc esp
00002C8A  830302            add dword [ebx],byte +0x2
00002C8D  4E                dec esi
00002C8E  C3                ret
00002C8F  41                inc ecx
00002C90  C50C04            lds ecx,[esp+eax]
00002C93  0424              add al,0x24
00002C95  0000              add [eax],al
00002C97  00B800000090      add [eax-0x70000000],bh
00002C9D  E4FF              in al,0xff
00002C9F  FF7700            push dword [edi+0x0]
00002CA2  0000              add [eax],al
00002CA4  0453              add al,0x53
00002CA6  B90408410E        mov ecx,0xe410804
00002CAB  088502420D05      or [ebp+0x50d4202],al
00002CB1  44                inc esp
00002CB2  830302            add dword [ebx],byte +0x2
00002CB5  6F                outsd
00002CB6  C5                db 0xc5
00002CB7  C3                ret
00002CB8  0C04              or al,0x4
00002CBA  0400              add al,0x0
00002CBC  1C00              sbb al,0x0
00002CBE  0000              add [eax],al
00002CC0  5C                pop esp
00002CC1  0100              add [eax],eax
00002CC3  00DF              add bh,bl
00002CC5  E4FF              in al,0xff
00002CC7  FF26              jmp [esi]
00002CC9  0000              add [eax],al
00002CCB  0000              add [eax],al
00002CCD  41                inc ecx
00002CCE  0E                push cs
00002CCF  088502420D05      or [ebp+0x50d4202],al
00002CD5  60                pusha
00002CD6  C50C04            lds ecx,[esp+eax]
00002CD9  0400              add al,0x0
00002CDB  001C00            add [eax+eax],bl
00002CDE  0000              add [eax],al
00002CE0  7C01              jl 0x2ce3
00002CE2  0000              add [eax],al
00002CE4  E5E4              in eax,0xe4
00002CE6  FF                db 0xff
00002CE7  FF32              push dword [edx]
00002CE9  0000              add [eax],al
00002CEB  0000              add [eax],al
00002CED  41                inc ecx
00002CEE  0E                push cs
00002CEF  088502420D05      or [ebp+0x50d4202],al
00002CF5  6C                insb
00002CF6  C50C04            lds ecx,[esp+eax]
00002CF9  0400              add al,0x0
00002CFB  0020              add [eax],ah
00002CFD  0000              add [eax],al
00002CFF  009C010000F8E4    add [ecx+eax-0x1b080000],bl
00002D06  FF                db 0xff
00002D07  FF5E00            call far [esi+0x0]
00002D0A  0000              add [eax],al
00002D0C  00410E            add [ecx+0xe],al
00002D0F  088502420D05      or [ebp+0x50d4202],al
00002D15  44                inc esp
00002D16  830302            add dword [ebx],byte +0x2
00002D19  56                push esi
00002D1A  C5                db 0xc5
00002D1B  C3                ret
00002D1C  0C04              or al,0x4
00002D1E  0400              add al,0x0
00002D20  1C00              sbb al,0x0
00002D22  0000              add [eax],al
00002D24  C00100            rol byte [ecx],byte 0x0
00002D27  0032              add [edx],dh
00002D29  E5FF              in eax,0xff
00002D2B  FF13              call [ebx]
00002D2D  0000              add [eax],al
00002D2F  0000              add [eax],al
00002D31  41                inc ecx
00002D32  0E                push cs
00002D33  088502420D05      or [ebp+0x50d4202],al
00002D39  4F                dec edi
00002D3A  C50C04            lds ecx,[esp+eax]
00002D3D  0400              add al,0x0
00002D3F  001C00            add [eax+eax],bl
00002D42  0000              add [eax],al
00002D44  E001              loopne 0x2d47
00002D46  0000              add [eax],al
00002D48  26E5FF            es in eax,0xff
00002D4B  FF13              call [ebx]
00002D4D  0000              add [eax],al
00002D4F  0000              add [eax],al
00002D51  41                inc ecx
00002D52  0E                push cs
00002D53  088502420D05      or [ebp+0x50d4202],al
00002D59  4F                dec edi
00002D5A  C50C04            lds ecx,[esp+eax]
00002D5D  0400              add al,0x0
00002D5F  0020              add [eax],ah
00002D61  0000              add [eax],al
00002D63  0000              add [eax],al
00002D65  0200              add al,[eax]
00002D67  001A              add [edx],bl
00002D69  E5FF              in eax,0xff
00002D6B  FF5700            call [edi+0x0]
00002D6E  0000              add [eax],al
00002D70  00410E            add [ecx+0xe],al
00002D73  088502420D05      or [ebp+0x50d4202],al
00002D79  44                inc esp
00002D7A  830302            add dword [ebx],byte +0x2
00002D7D  4F                dec edi
00002D7E  C5                db 0xc5
00002D7F  C3                ret
00002D80  0C04              or al,0x4
00002D82  0400              add al,0x0
00002D84  1C00              sbb al,0x0
00002D86  0000              add [eax],al
00002D88  2402              and al,0x2
00002D8A  0000              add [eax],al
00002D8C  4D                dec ebp
00002D8D  E5FF              in eax,0xff
00002D8F  FF20              jmp [eax]
00002D91  0000              add [eax],al
00002D93  0000              add [eax],al
00002D95  41                inc ecx
00002D96  0E                push cs
00002D97  088502420D05      or [ebp+0x50d4202],al
00002D9D  5C                pop esp
00002D9E  C50C04            lds ecx,[esp+eax]
00002DA1  0400              add al,0x0
00002DA3  001C00            add [eax+eax],bl
00002DA6  0000              add [eax],al
00002DA8  44                inc esp
00002DA9  0200              add al,[eax]
00002DAB  004EE5            add [esi-0x1b],cl
00002DAE  FF                db 0xff
00002DAF  FF13              call [ebx]
00002DB1  0000              add [eax],al
00002DB3  0000              add [eax],al
00002DB5  41                inc ecx
00002DB6  0E                push cs
00002DB7  088502420D05      or [ebp+0x50d4202],al
00002DBD  4F                dec edi
00002DBE  C50C04            lds ecx,[esp+eax]
00002DC1  0400              add al,0x0
00002DC3  001C00            add [eax+eax],bl
00002DC6  0000              add [eax],al
00002DC8  640200            add al,[fs:eax]
00002DCB  0042E5            add [edx-0x1b],al
00002DCE  FF                db 0xff
00002DCF  FF13              call [ebx]
00002DD1  0000              add [eax],al
00002DD3  0000              add [eax],al
00002DD5  41                inc ecx
00002DD6  0E                push cs
00002DD7  088502420D05      or [ebp+0x50d4202],al
00002DDD  4F                dec edi
00002DDE  C50C04            lds ecx,[esp+eax]
00002DE1  0400              add al,0x0
00002DE3  002400            add [eax+eax],ah
00002DE6  0000              add [eax],al
00002DE8  0802              or [edx],al
00002DEA  0000              add [eax],al
00002DEC  36E5FF            ss in eax,0xff
00002DEF  FF5F00            call far [edi+0x0]
00002DF2  0000              add [eax],al
00002DF4  0463              add al,0x63
00002DF6  B90408410E        mov ecx,0xe410804
00002DFB  088502420D05      or [ebp+0x50d4202],al
00002E01  44                inc esp
00002E02  830302            add dword [ebx],byte +0x2
00002E05  56                push esi
00002E06  C3                ret
00002E07  41                inc ecx
00002E08  C50C04            lds ecx,[esp+eax]
00002E0B  041C              add al,0x1c
00002E0D  0000              add [eax],al
00002E0F  00AC0200006EE5    add [edx+eax-0x1a920000],ch
00002E16  FF                db 0xff
00002E17  FF08              dec dword [eax]
00002E19  0000              add [eax],al
00002E1B  0000              add [eax],al
00002E1D  41                inc ecx
00002E1E  0E                push cs
00002E1F  088502420D05      or [ebp+0x50d4202],al
00002E25  44                inc esp
00002E26  C50C04            lds ecx,[esp+eax]
00002E29  0400              add al,0x0
00002E2B  001C00            add [eax+eax],bl
00002E2E  0000              add [eax],al
00002E30  CC                int3
00002E31  0200              add al,[eax]
00002E33  0056E5            add [esi-0x1b],dl
00002E36  FF                db 0xff
00002E37  FF1A              call far [edx]
00002E39  0000              add [eax],al
00002E3B  0000              add [eax],al
00002E3D  41                inc ecx
00002E3E  0E                push cs
00002E3F  088502420D05      or [ebp+0x50d4202],al
00002E45  56                push esi
00002E46  C50C04            lds ecx,[esp+eax]
00002E49  0400              add al,0x0
00002E4B  0028              add [eax],ch
00002E4D  0000              add [eax],al
00002E4F  007002            add [eax+0x2],dh
00002E52  0000              add [eax],al
00002E54  50                push eax
00002E55  E5FF              in eax,0xff
00002E57  FFB700000004      push dword [edi+0x4000000]
00002E5D  6F                outsd
00002E5E  B90408410E        mov ecx,0xe410804
00002E63  088502420D05      or [ebp+0x50d4202],al
00002E69  45                inc ebp
00002E6A  8603              xchg al,[ebx]
00002E6C  830402AC          add dword [edx+eax],byte -0x54
00002E70  C3                ret
00002E71  41                inc ecx
00002E72  C641C50C          mov byte [ecx-0x3b],0xc
00002E76  0404              add al,0x4
00002E78  1C00              sbb al,0x0
00002E7A  0000              add [eax],al
00002E7C  1803              sbb [ebx],al
00002E7E  0000              add [eax],al
00002E80  DCE5              fsubr to st5
00002E82  FF                db 0xff
00002E83  FF1F              call far [edi]
00002E85  0000              add [eax],al
00002E87  0000              add [eax],al
00002E89  41                inc ecx
00002E8A  0E                push cs
00002E8B  088502420D05      or [ebp+0x50d4202],al
00002E91  59                pop ecx
00002E92  C50C04            lds ecx,[esp+eax]
00002E95  0400              add al,0x0
00002E97  001C00            add [eax+eax],bl
00002E9A  0000              add [eax],al
00002E9C  3803              cmp [ebx],al
00002E9E  0000              add [eax],al
00002EA0  DCE5              fsubr to st5
00002EA2  FF                db 0xff
00002EA3  FF22              jmp [edx]
00002EA5  0000              add [eax],al
00002EA7  0000              add [eax],al
00002EA9  41                inc ecx
00002EAA  0E                push cs
00002EAB  088502420D05      or [ebp+0x50d4202],al
00002EB1  5C                pop esp
00002EB2  C50C04            lds ecx,[esp+eax]
00002EB5  0400              add al,0x0
00002EB7  002400            add [eax+eax],ah
00002EBA  0000              add [eax],al
00002EBC  DC02              fadd qword [edx]
00002EBE  0000              add [eax],al
00002EC0  DEE5              fsubrp st5
00002EC2  FF                db 0xff
00002EC3  FF                db 0xff
00002EC4  E800000004        call 0x4002ec9
00002EC9  81B90408410E0885  cmp dword [ecx+0xe410804],0x42028508
         -0242
00002ED3  0D05448303        or eax,0x3834405
00002ED8  02E0              add ah,al
00002EDA  C5                db 0xc5
00002EDB  C3                ret
00002EDC  0C04              or al,0x4
00002EDE  0400              add al,0x0
00002EE0  1C00              sbb al,0x0
00002EE2  0000              add [eax],al
00002EE4  800300            add byte [ebx],0x0
00002EE7  009EE6FFFF1A      add [esi+0x1affffe6],bl
00002EED  0000              add [eax],al
00002EEF  0000              add [eax],al
00002EF1  41                inc ecx
00002EF2  0E                push cs
00002EF3  088502420D05      or [ebp+0x50d4202],al
00002EF9  56                push esi
00002EFA  C50C04            lds ecx,[esp+eax]
00002EFD  0400              add al,0x0
00002EFF  001C00            add [eax+eax],bl
00002F02  0000              add [eax],al
00002F04  A003000098        mov al,[0x98000003]
00002F09  E6FF              out 0xff,al
00002F0B  FF26              jmp [esi]
00002F0D  0000              add [eax],al
00002F0F  0000              add [eax],al
00002F11  41                inc ecx
00002F12  0E                push cs
00002F13  088502420D05      or [ebp+0x50d4202],al
00002F19  62                db 0x62
00002F1A  C50C04            lds ecx,[esp+eax]
00002F1D  0400              add al,0x0
00002F1F  001C00            add [eax+eax],bl
00002F22  0000              add [eax],al
00002F24  C00300            rol byte [ebx],byte 0x0
00002F27  009EE6FFFF73      add [esi+0x73ffffe6],bl
00002F2D  0000              add [eax],al
00002F2F  0000              add [eax],al
00002F31  41                inc ecx
00002F32  0E                push cs
00002F33  088502420D05      or [ebp+0x50d4202],al
00002F39  026FC5            add ch,[edi-0x3b]
00002F3C  0C04              or al,0x4
00002F3E  0400              add al,0x0
00002F40  2400              and al,0x0
00002F42  0000              add [eax],al
00002F44  640300            add eax,[fs:eax]
00002F47  00F1              add cl,dh
00002F49  E6FF              out 0xff,al
00002F4B  FFA700000004      jmp [edi+0x4000000]
00002F51  95                xchg eax,ebp
00002F52  B90408410E        mov ecx,0xe410804
00002F57  088502420D05      or [ebp+0x50d4202],al
00002F5D  44                inc esp
00002F5E  830302            add dword [ebx],byte +0x2
00002F61  9F                lahf
00002F62  C5                db 0xc5
00002F63  C3                ret
00002F64  0C04              or al,0x4
00002F66  0400              add al,0x0
00002F68  2000              and [eax],al
00002F6A  0000              add [eax],al
00002F6C  8C03              mov [ebx],es
00002F6E  0000              add [eax],al
00002F70  70E7              jo 0x2f59
00002F72  FF                db 0xff
00002F73  FF5000            call [eax+0x0]
00002F76  0000              add [eax],al
00002F78  04A3              add al,0xa3
00002F7A  B90408410E        mov ecx,0xe410804
00002F7F  088502420D05      or [ebp+0x50d4202],al
00002F85  024CC50C          add cl,[ebp+eax*8+0xc]
00002F89  0404              add al,0x4
00002F8B  001C00            add [eax+eax],bl
00002F8E  0000              add [eax],al
00002F90  2C04              sub al,0x4
00002F92  0000              add [eax],al
00002F94  9C                pushf
00002F95  E7FF              out 0xff,eax
00002F97  FF28              jmp far [eax]
00002F99  0000              add [eax],al
00002F9B  0000              add [eax],al
00002F9D  41                inc ecx
00002F9E  0E                push cs
00002F9F  088502420D05      or [ebp+0x50d4202],al
00002FA5  64C50C04          lds ecx,[fs:esp+eax]
00002FA9  0400              add al,0x0
00002FAB  0020              add [eax],ah
00002FAD  0000              add [eax],al
00002FAF  004C0400          add [esp+eax+0x0],cl
00002FB3  00A4E7FFFF5100    add [edi+0x51ffff],ah
00002FBA  0000              add [eax],al
00002FBC  00410E            add [ecx+0xe],al
00002FBF  088502420D05      or [ebp+0x50d4202],al
00002FC5  44                inc esp
00002FC6  830302            add dword [ebx],byte +0x2
00002FC9  48                dec eax
00002FCA  C3                ret
00002FCB  41                inc ecx
00002FCC  C50C04            lds ecx,[esp+eax]
00002FCF  041C              add al,0x1c
00002FD1  0000              add [eax],al
00002FD3  007004            add [eax+0x4],dh
00002FD6  0000              add [eax],al
00002FD8  D2E7              shl bh,cl
00002FDA  FF                db 0xff
00002FDB  FF2C00            jmp far [eax+eax]
00002FDE  0000              add [eax],al
00002FE0  00410E            add [ecx+0xe],al
00002FE3  088502420D05      or [ebp+0x50d4202],al
00002FE9  68C50C0404        push dword 0x4040cc5
00002FEE  0000              add [eax],al
00002FF0  1C00              sbb al,0x0
00002FF2  0000              add [eax],al
00002FF4  90                nop
00002FF5  0400              add al,0x0
00002FF7  00DE              add dh,bl
00002FF9  E7FF              out 0xff,eax
00002FFB  FF30              push dword [eax]
00002FFD  0000              add [eax],al
00002FFF  0000              add [eax],al
00003001  41                inc ecx
00003002  0E                push cs
00003003  088502420D05      or [ebp+0x50d4202],al
00003009  6C                insb
0000300A  C50C04            lds ecx,[esp+eax]
0000300D  0400              add al,0x0
0000300F  001C00            add [eax+eax],bl
00003012  0000              add [eax],al
00003014  B004              mov al,0x4
00003016  0000              add [eax],al
00003018  EE                out dx,al
00003019  E7FF              out 0xff,eax
0000301B  FF13              call [ebx]
0000301D  0000              add [eax],al
0000301F  0000              add [eax],al
00003021  41                inc ecx
00003022  0E                push cs
00003023  088502420D05      or [ebp+0x50d4202],al
00003029  4F                dec edi
0000302A  C50C04            lds ecx,[esp+eax]
0000302D  0400              add al,0x0
0000302F  001C00            add [eax+eax],bl
00003032  0000              add [eax],al
00003034  D00400            rol byte [eax+eax],1
00003037  00E2              add dl,ah
00003039  E7FF              out 0xff,eax
0000303B  FF27              jmp [edi]
0000303D  0000              add [eax],al
0000303F  0000              add [eax],al
00003041  41                inc ecx
00003042  0E                push cs
00003043  088502420D05      or [ebp+0x50d4202],al
00003049  63C5              arpl bp,ax
0000304B  0C04              or al,0x4
0000304D  0400              add al,0x0
0000304F  001C00            add [eax+eax],bl
00003052  0000              add [eax],al
00003054  F00400            lock add al,0x0
00003057  00E9              add cl,ch
00003059  E7FF              out 0xff,eax
0000305B  FF1A              call far [edx]
0000305D  0000              add [eax],al
0000305F  0000              add [eax],al
00003061  41                inc ecx
00003062  0E                push cs
00003063  088502420D05      or [ebp+0x50d4202],al
00003069  56                push esi
0000306A  C50C04            lds ecx,[esp+eax]
0000306D  0400              add al,0x0
0000306F  001C00            add [eax+eax],bl
00003072  0000              add [eax],al
00003074  10050000E4E7      adc [dword 0xe7e40000],al
0000307A  FF                db 0xff
0000307B  FF19              call far [ecx]
0000307D  0000              add [eax],al
0000307F  0000              add [eax],al
00003081  41                inc ecx
00003082  0E                push cs
00003083  088502420D05      or [ebp+0x50d4202],al
00003089  55                push ebp
0000308A  C50C04            lds ecx,[esp+eax]
0000308D  0400              add al,0x0
0000308F  001C00            add [eax+eax],bl
00003092  0000              add [eax],al
00003094  30050000DDE7      xor [dword 0xe7dd0000],al
0000309A  FF                db 0xff
0000309B  FF08              dec dword [eax]
0000309D  0000              add [eax],al
0000309F  0000              add [eax],al
000030A1  41                inc ecx
000030A2  0E                push cs
000030A3  088502420D05      or [ebp+0x50d4202],al
000030A9  44                inc esp
000030AA  C50C04            lds ecx,[esp+eax]
000030AD  0400              add al,0x0
000030AF  001C00            add [eax+eax],bl
000030B2  0000              add [eax],al
000030B4  50                push eax
000030B5  050000C6E7        add eax,0xe7c60000
000030BA  FF                db 0xff
000030BB  FF08              dec dword [eax]
000030BD  0000              add [eax],al
000030BF  0000              add [eax],al
000030C1  41                inc ecx
000030C2  0E                push cs
000030C3  088502420D05      or [ebp+0x50d4202],al
000030C9  44                inc esp
000030CA  C50C04            lds ecx,[esp+eax]
000030CD  0400              add al,0x0
000030CF  002400            add [eax+eax],ah
000030D2  0000              add [eax],al
000030D4  F4                hlt
000030D5  0400              add al,0x0
000030D7  00AEE7FFFF4A      add [esi+0x4affffe7],ch
000030DD  0000              add [eax],al
000030DF  0004B7            add [edi+esi*4],al
000030E2  B90408410E        mov ecx,0xe410804
000030E7  088502420D05      or [ebp+0x50d4202],al
000030ED  44                inc esp
000030EE  830302            add dword [ebx],byte +0x2
000030F1  41                inc ecx
000030F2  C3                ret
000030F3  41                inc ecx
000030F4  C50C04            lds ecx,[esp+eax]
000030F7  041C              add al,0x1c
000030F9  0000              add [eax],al
000030FB  0098050000D0      add [eax-0x2ffffffb],bl
00003101  E7FF              out 0xff,eax
00003103  FF27              jmp [edi]
00003105  0000              add [eax],al
00003107  0000              add [eax],al
00003109  41                inc ecx
0000310A  0E                push cs
0000310B  088502420D05      or [ebp+0x50d4202],al
00003111  61                popa
00003112  C50C04            lds ecx,[esp+eax]
00003115  0400              add al,0x0
00003117  001C00            add [eax+eax],bl
0000311A  0000              add [eax],al
0000311C  B8050000D8        mov eax,0xd8000005
00003121  E7FF              out 0xff,eax
00003123  FF28              jmp far [eax]
00003125  0000              add [eax],al
00003127  0000              add [eax],al
00003129  41                inc ecx
0000312A  0E                push cs
0000312B  088502420D05      or [ebp+0x50d4202],al
00003131  62                db 0x62
00003132  C50C04            lds ecx,[esp+eax]
00003135  0400              add al,0x0
00003137  001C00            add [eax+eax],bl
0000313A  0000              add [eax],al
0000313C  D8050000E0E7      fadd dword [dword 0xe7e00000]
00003142  FF                db 0xff
00003143  FF21              jmp [ecx]
00003145  0000              add [eax],al
00003147  0000              add [eax],al
00003149  41                inc ecx
0000314A  0E                push cs
0000314B  088502420D05      or [ebp+0x50d4202],al
00003151  5D                pop ebp
00003152  C50C04            lds ecx,[esp+eax]
00003155  0400              add al,0x0
00003157  001C00            add [eax+eax],bl
0000315A  0000              add [eax],al
0000315C  F8                clc
0000315D  050000E2E7        add eax,0xe7e20000
00003162  FF                db 0xff
00003163  FF0F              dec dword [edi]
00003165  0000              add [eax],al
00003167  0000              add [eax],al
00003169  41                inc ecx
0000316A  0E                push cs
0000316B  088502420D05      or [ebp+0x50d4202],al
00003171  4B                dec ebx
00003172  C50C04            lds ecx,[esp+eax]
00003175  0400              add al,0x0
00003177  0020              add [eax],ah
00003179  0000              add [eax],al
0000317B  0018              add [eax],bl
0000317D  06                push es
0000317E  0000              add [eax],al
00003180  D1E7              shl edi,1
00003182  FF                db 0xff
00003183  FF30              push dword [eax]
00003185  0000              add [eax],al
00003187  0000              add [eax],al
00003189  41                inc ecx
0000318A  0E                push cs
0000318B  088502420D05      or [ebp+0x50d4202],al
00003191  44                inc esp
00003192  830367            add dword [ebx],byte +0x67
00003195  C3                ret
00003196  41                inc ecx
00003197  C50C04            lds ecx,[esp+eax]
0000319A  0400              add al,0x0
0000319C  1C00              sbb al,0x0
0000319E  0000              add [eax],al
000031A0  3C06              cmp al,0x6
000031A2  0000              add [eax],al
000031A4  DEE7              fsubrp st7
000031A6  FF                db 0xff
000031A7  FF31              push dword [ecx]
000031A9  0000              add [eax],al
000031AB  0000              add [eax],al
000031AD  41                inc ecx
000031AE  0E                push cs
000031AF  088502420D05      or [ebp+0x50d4202],al
000031B5  6BC50C            imul eax,ebp,byte +0xc
000031B8  0404              add al,0x4
000031BA  0000              add [eax],al
000031BC  1C00              sbb al,0x0
000031BE  0000              add [eax],al
000031C0  5C                pop esp
000031C1  06                push es
000031C2  0000              add [eax],al
000031C4  F0E7FF            lock out 0xff,eax
000031C7  FF0A              dec dword [edx]
000031C9  0000              add [eax],al
000031CB  0000              add [eax],al
000031CD  41                inc ecx
000031CE  0E                push cs
000031CF  088502420D05      or [ebp+0x50d4202],al
000031D5  46                inc esi
000031D6  C50C04            lds ecx,[esp+eax]
000031D9  0400              add al,0x0
000031DB  0030              add [eax],dh
000031DD  0000              add [eax],al
000031DF  0000              add [eax],al
000031E1  06                push es
000031E2  0000              add [eax],al
000031E4  DA                db 0xda
000031E5  E7FF              out 0xff,eax
000031E7  FF10              call [eax]
000031E9  0200              add al,[eax]
000031EB  0004C3            add [ebx+eax*8],al
000031EE  B90408410E        mov ecx,0xe410804
000031F3  088502420D05      or [ebp+0x50d4202],al
000031F9  46                inc esi
000031FA  8703              xchg eax,[ebx]
000031FC  860483            xchg al,[ebx+eax*4]
000031FF  05030302C3        add eax,0xc3020303
00003204  41                inc ecx
00003205  C641C741          mov byte [ecx-0x39],0x41
00003209  C50C04            lds ecx,[esp+eax]
0000320C  0400              add al,0x0
0000320E  0000              add [eax],al
00003210  1C00              sbb al,0x0
00003212  0000              add [eax],al
00003214  B006              mov al,0x6
00003216  0000              add [eax],al
00003218  B6E9              mov dh,0xe9
0000321A  FF                db 0xff
0000321B  FF21              jmp [ecx]
0000321D  0000              add [eax],al
0000321F  0000              add [eax],al
00003221  41                inc ecx
00003222  0E                push cs
00003223  088502420D05      or [ebp+0x50d4202],al
00003229  5D                pop ebp
0000322A  C50C04            lds ecx,[esp+eax]
0000322D  0400              add al,0x0
0000322F  002C00            add [eax+eax],ch
00003232  0000              add [eax],al
00003234  54                push esp
00003235  06                push es
00003236  0000              add [eax],al
00003238  B8E9FFFFCA        mov eax,0xcaffffe9
0000323D  0200              add al,[eax]
0000323F  0004D8            add [eax+ebx*8],al
00003242  B90408410E        mov ecx,0xe410804
00003247  088502420D05      or [ebp+0x50d4202],al
0000324D  45                inc ebp
0000324E  8603              xchg al,[ebx]
00003250  830403BF          add dword [ebx+eax],byte -0x41
00003254  02C3              add al,bl
00003256  41                inc ecx
00003257  C641C50C          mov byte [ecx-0x3b],0xc
0000325B  0404              add al,0x4
0000325D  0000              add [eax],al
0000325F  001C00            add [eax+eax],bl
00003262  0000              add [eax],al
00003264  0007              add [edi],al
00003266  0000              add [eax],al
00003268  52                push edx
00003269  EC                in al,dx
0000326A  FF                db 0xff
0000326B  FF33              push dword [ebx]
0000326D  0000              add [eax],al
0000326F  0000              add [eax],al
00003271  41                inc ecx
00003272  0E                push cs
00003273  088502420D05      or [ebp+0x50d4202],al
00003279  6D                insd
0000327A  C50C04            lds ecx,[esp+eax]
0000327D  0400              add al,0x0
0000327F  0030              add [eax],dh
00003281  0000              add [eax],al
00003283  00A406000065EC    add [esi+eax-0x139b0000],ah
0000328A  FF                db 0xff
0000328B  FF4701            inc dword [edi+0x1]
0000328E  0000              add [eax],al
00003290  0404              add al,0x4
00003292  BA0408410E        mov edx,0xe410804
00003297  088502420D05      or [ebp+0x50d4202],al
0000329D  46                inc esi
0000329E  8703              xchg eax,[ebx]
000032A0  860483            xchg al,[ebx+eax*4]
000032A3  05033A01C3        add eax,0xc3013a03
000032A8  41                inc ecx
000032A9  C641C741          mov byte [ecx-0x39],0x41
000032AD  C50C04            lds ecx,[esp+eax]
000032B0  0400              add al,0x0
000032B2  0000              add [eax],al
000032B4  2000              and [eax],al
000032B6  0000              add [eax],al
000032B8  54                push esp
000032B9  07                pop es
000032BA  0000              add [eax],al
000032BC  78ED              js 0x32ab
000032BE  FF                db 0xff
000032BF  FF2C00            jmp far [eax+eax]
000032C2  0000              add [eax],al
000032C4  00410E            add [ecx+0xe],al
000032C7  088502420D05      or [ebp+0x50d4202],al
000032CD  44                inc esp
000032CE  830363            add dword [ebx],byte +0x63
000032D1  C3                ret
000032D2  41                inc ecx
000032D3  C50C04            lds ecx,[esp+eax]
000032D6  0400              add al,0x0
000032D8  1C00              sbb al,0x0
000032DA  0000              add [eax],al
000032DC  7807              js 0x32e5
000032DE  0000              add [eax],al
000032E0  80EDFF            sub ch,0xff
000032E3  FF0A              dec dword [edx]
000032E5  0000              add [eax],al
000032E7  0000              add [eax],al
000032E9  41                inc ecx
000032EA  0E                push cs
000032EB  088502420D05      or [ebp+0x50d4202],al
000032F1  46                inc esi
000032F2  C50C04            lds ecx,[esp+eax]
000032F5  0400              add al,0x0
000032F7  001C00            add [eax+eax],bl
000032FA  0000              add [eax],al
000032FC  98                cwde
000032FD  07                pop es
000032FE  0000              add [eax],al
00003300  6AED              push byte -0x13
00003302  FF                db 0xff
00003303  FF1500000000      call [dword 0x0]
00003309  41                inc ecx
0000330A  0E                push cs
0000330B  088502420D05      or [ebp+0x50d4202],al
00003311  51                push ecx
00003312  C50C04            lds ecx,[esp+eax]
00003315  0400              add al,0x0
00003317  0028              add [eax],ch
00003319  0000              add [eax],al
0000331B  003C07            add [edi+eax],bh
0000331E  0000              add [eax],al
00003320  5F                pop edi
00003321  ED                in eax,dx
00003322  FF                db 0xff
00003323  FFB40000000413    push dword [eax+eax+0x13040000]
0000332A  BA0408410E        mov edx,0xe410804
0000332F  088502420D05      or [ebp+0x50d4202],al
00003335  45                inc ebp
00003336  8603              xchg al,[ebx]
00003338  830402A9          add dword [edx+eax],byte -0x57
0000333C  C3                ret
0000333D  41                inc ecx
0000333E  C641C50C          mov byte [ecx-0x3b],0xc
00003342  0404              add al,0x4
00003344  1C00              sbb al,0x0
00003346  0000              add [eax],al
00003348  E407              in al,0x7
0000334A  0000              add [eax],al
0000334C  E7ED              out 0xed,eax
0000334E  FF                db 0xff
0000334F  FF1A              call far [edx]
00003351  0000              add [eax],al
00003353  0000              add [eax],al
00003355  41                inc ecx
00003356  0E                push cs
00003357  088502420D05      or [ebp+0x50d4202],al
0000335D  56                push esi
0000335E  C50C04            lds ecx,[esp+eax]
00003361  0400              add al,0x0
00003363  001C00            add [eax+eax],bl
00003366  0000              add [eax],al
00003368  0408              add al,0x8
0000336A  0000              add [eax],al
0000336C  E2ED              loop 0x335b
0000336E  FF                db 0xff
0000336F  FF13              call [ebx]
00003371  0000              add [eax],al
00003373  0000              add [eax],al
00003375  41                inc ecx
00003376  0E                push cs
00003377  088502420D05      or [ebp+0x50d4202],al
0000337D  4F                dec edi
0000337E  C50C04            lds ecx,[esp+eax]
00003381  0400              add al,0x0
00003383  001C00            add [eax+eax],bl
00003386  0000              add [eax],al
00003388  2408              and al,0x8
0000338A  0000              add [eax],al
0000338C  D6                salc
0000338D  ED                in eax,dx
0000338E  FF                db 0xff
0000338F  FF0500000000      inc dword [dword 0x0]
00003395  41                inc ecx
00003396  0E                push cs
00003397  088502420D05      or [ebp+0x50d4202],al
0000339D  41                inc ecx
0000339E  C50C04            lds ecx,[esp+eax]
000033A1  0400              add al,0x0
000033A3  001C00            add [eax+eax],bl
000033A6  0000              add [eax],al
000033A8  44                inc esp
000033A9  0800              or [eax],al
000033AB  00BCEDFFFF1300    add [ebp+ebp*8+0x13ffff],bh
000033B2  0000              add [eax],al
000033B4  00410E            add [ecx+0xe],al
000033B7  088502420D05      or [ebp+0x50d4202],al
000033BD  4F                dec edi
000033BE  C50C04            lds ecx,[esp+eax]
000033C1  0400              add al,0x0
000033C3  001C00            add [eax+eax],bl
000033C6  0000              add [eax],al
000033C8  640800            or [fs:eax],al
000033CB  00AFEDFFFF05      add [edi+0x5ffffed],ch
000033D1  0000              add [eax],al
000033D3  0000              add [eax],al
000033D5  41                inc ecx
000033D6  0E                push cs
000033D7  088502420D05      or [ebp+0x50d4202],al
000033DD  41                inc ecx
000033DE  C50C04            lds ecx,[esp+eax]
000033E1  0400              add al,0x0
000033E3  001C00            add [eax+eax],bl
000033E6  0000              add [eax],al
000033E8  8408              test [eax],cl
000033EA  0000              add [eax],al
000033EC  94                xchg eax,esp
000033ED  ED                in eax,dx
000033EE  FF                db 0xff
000033EF  FF37              push dword [edi]
000033F1  0000              add [eax],al
000033F3  0000              add [eax],al
000033F5  41                inc ecx
000033F6  0E                push cs
000033F7  088502420D05      or [ebp+0x50d4202],al
000033FD  73C5              jnc 0x33c4
000033FF  0C04              or al,0x4
00003401  0400              add al,0x0
00003403  001C00            add [eax+eax],bl
00003406  0000              add [eax],al
00003408  A4                movsb
00003409  0800              or [eax],al
0000340B  00ACEDFFFF3D00    add [ebp+ebp*8+0x3dffff],ch
00003412  0000              add [eax],al
00003414  00410E            add [ecx+0xe],al
00003417  088502420D05      or [ebp+0x50d4202],al
0000341D  79C5              jns 0x33e4
0000341F  0C04              or al,0x4
00003421  0400              add al,0x0
00003423  001C00            add [eax+eax],bl
00003426  0000              add [eax],al
00003428  C408              les ecx,[eax]
0000342A  0000              add [eax],al
0000342C  CAEDFF            retf 0xffed
0000342F  FF0F              dec dword [edi]
00003431  0000              add [eax],al
00003433  0000              add [eax],al
00003435  41                inc ecx
00003436  0E                push cs
00003437  088502420D05      or [ebp+0x50d4202],al
0000343D  4B                dec ebx
0000343E  C50C04            lds ecx,[esp+eax]
00003441  0400              add al,0x0
00003443  001C00            add [eax+eax],bl
00003446  0000              add [eax],al
00003448  E408              in al,0x8
0000344A  0000              add [eax],al
0000344C  B9EDFFFF21        mov ecx,0x21ffffed
00003451  0000              add [eax],al
00003453  0000              add [eax],al
00003455  41                inc ecx
00003456  0E                push cs
00003457  088502420D05      or [ebp+0x50d4202],al
0000345D  5D                pop ebp
0000345E  C50C04            lds ecx,[esp+eax]
00003461  0400              add al,0x0
00003463  001C00            add [eax+eax],bl
00003466  0000              add [eax],al
00003468  0409              add al,0x9
0000346A  0000              add [eax],al
0000346C  BAEDFFFF08        mov edx,0x8ffffed
00003471  0000              add [eax],al
00003473  0000              add [eax],al
00003475  41                inc ecx
00003476  0E                push cs
00003477  088502420D05      or [ebp+0x50d4202],al
0000347D  44                inc esp
0000347E  C50C04            lds ecx,[esp+eax]
00003481  0400              add al,0x0
00003483  001C00            add [eax+eax],bl
00003486  0000              add [eax],al
00003488  2409              and al,0x9
0000348A  0000              add [eax],al
0000348C  A2EDFFFF1A        mov [0x1affffed],al
00003491  0000              add [eax],al
00003493  0000              add [eax],al
00003495  41                inc ecx
00003496  0E                push cs
00003497  088502420D05      or [ebp+0x50d4202],al
0000349D  56                push esi
0000349E  C50C04            lds ecx,[esp+eax]
000034A1  0400              add al,0x0
000034A3  001C00            add [eax+eax],bl
000034A6  0000              add [eax],al
000034A8  44                inc esp
000034A9  0900              or [eax],eax
000034AB  009CEDFFFF3800    add [ebp+ebp*8+0x38ffff],bl
000034B2  0000              add [eax],al
000034B4  00410E            add [ecx+0xe],al
000034B7  088502420D05      or [ebp+0x50d4202],al
000034BD  74C5              jz 0x3484
000034BF  0C04              or al,0x4
000034C1  0400              add al,0x0
000034C3  0020              add [eax],ah
000034C5  0000              add [eax],al
000034C7  00640900          add [ecx+ecx+0x0],ah
000034CB  00B4EDFFFF3800    add [ebp+ebp*8+0x38ffff],dh
000034D2  0000              add [eax],al
000034D4  00410E            add [ecx+0xe],al
000034D7  088502420D05      or [ebp+0x50d4202],al
000034DD  44                inc esp
000034DE  83036F            add dword [ebx],byte +0x6f
000034E1  C3                ret
000034E2  41                inc ecx
000034E3  C50C04            lds ecx,[esp+eax]
000034E6  0400              add al,0x0
000034E8  2000              and [eax],al
000034EA  0000              add [eax],al
000034EC  8809              mov [ecx],cl
000034EE  0000              add [eax],al
000034F0  C8EDFFFF          enter 0xffed,0xff
000034F4  A4                movsb
000034F5  0000              add [eax],al
000034F7  0000              add [eax],al
000034F9  41                inc ecx
000034FA  0E                push cs
000034FB  088502420D05      or [ebp+0x50d4202],al
00003501  44                inc esp
00003502  830302            add dword [ebx],byte +0x2
00003505  9BC3              wait ret
00003507  41                inc ecx
00003508  C50C04            lds ecx,[esp+eax]
0000350B  041C              add al,0x1c
0000350D  0000              add [eax],al
0000350F  00AC09000048EE    add [ecx+ecx-0x11b80000],ch
00003516  FF                db 0xff
00003517  FF2F              jmp far [edi]
00003519  0000              add [eax],al
0000351B  0000              add [eax],al
0000351D  41                inc ecx
0000351E  0E                push cs
0000351F  088502420D05      or [ebp+0x50d4202],al
00003525  6BC50C            imul eax,ebp,byte +0xc
00003528  0404              add al,0x4
0000352A  0000              add [eax],al
0000352C  1C00              sbb al,0x0
0000352E  0000              add [eax],al
00003530  CC                int3
00003531  0900              or [eax],eax
00003533  0057EE            add [edi-0x12],dl
00003536  FF                db 0xff
00003537  FF28              jmp far [eax]
00003539  0000              add [eax],al
0000353B  0000              add [eax],al
0000353D  41                inc ecx
0000353E  0E                push cs
0000353F  088502420D05      or [ebp+0x50d4202],al
00003545  64C50C04          lds ecx,[fs:esp+eax]
00003549  0400              add al,0x0
0000354B  001C00            add [eax+eax],bl
0000354E  0000              add [eax],al
00003550  EC                in al,dx
00003551  0900              or [eax],eax
00003553  0060EE            add [eax-0x12],ah
00003556  FF                db 0xff
00003557  FF08              dec dword [eax]
00003559  0000              add [eax],al
0000355B  0000              add [eax],al
0000355D  41                inc ecx
0000355E  0E                push cs
0000355F  088502420D05      or [ebp+0x50d4202],al
00003565  44                inc esp
00003566  C50C04            lds ecx,[esp+eax]
00003569  0400              add al,0x0
0000356B  001C00            add [eax+eax],bl
0000356E  0000              add [eax],al
00003570  0C0A              or al,0xa
00003572  0000              add [eax],al
00003574  48                dec eax
00003575  EE                out dx,al
00003576  FF                db 0xff
00003577  FF0500000000      inc dword [dword 0x0]
0000357D  41                inc ecx
0000357E  0E                push cs
0000357F  088502420D05      or [ebp+0x50d4202],al
00003585  41                inc ecx
00003586  C50C04            lds ecx,[esp+eax]
00003589  0400              add al,0x0
0000358B  001C00            add [eax+eax],bl
0000358E  0000              add [eax],al
00003590  2C0A              sub al,0xa
00003592  0000              add [eax],al
00003594  2EEE              cs out dx,al
00003596  FF                db 0xff
00003597  FF0500000000      inc dword [dword 0x0]
0000359D  41                inc ecx
0000359E  0E                push cs
0000359F  088502420D05      or [ebp+0x50d4202],al
000035A5  41                inc ecx
000035A6  C50C04            lds ecx,[esp+eax]
000035A9  0400              add al,0x0
000035AB  001C00            add [eax+eax],bl
000035AE  0000              add [eax],al
000035B0  4C                dec esp
000035B1  0A00              or al,[eax]
000035B3  0014EE            add [esi+ebp*8],dl
000035B6  FF                db 0xff
000035B7  FF1A              call far [edx]
000035B9  0000              add [eax],al
000035BB  0000              add [eax],al
000035BD  41                inc ecx
000035BE  0E                push cs
000035BF  088502420D05      or [ebp+0x50d4202],al
000035C5  56                push esi
000035C6  C50C04            lds ecx,[esp+eax]
000035C9  0400              add al,0x0
000035CB  0020              add [eax],ah
000035CD  0000              add [eax],al
000035CF  006C0A00          add [edx+ecx+0x0],ch
000035D3  000E              add [esi],cl
000035D5  EE                out dx,al
000035D6  FF                db 0xff
000035D7  FF6100            jmp [ecx+0x0]
000035DA  0000              add [eax],al
000035DC  00410E            add [ecx+0xe],al
000035DF  088502420D05      or [ebp+0x50d4202],al
000035E5  44                inc esp
000035E6  830302            add dword [ebx],byte +0x2
000035E9  58                pop eax
000035EA  C3                ret
000035EB  41                inc ecx
000035EC  C50C04            lds ecx,[esp+eax]
000035EF  041C              add al,0x1c
000035F1  0000              add [eax],al
000035F3  00900A00004B      add [eax+0x4b00000a],dl
000035F9  EE                out dx,al
000035FA  FF                db 0xff
000035FB  FF5800            call far [eax+0x0]
000035FE  0000              add [eax],al
00003600  00410E            add [ecx+0xe],al
00003603  088502420D05      or [ebp+0x50d4202],al
00003609  0254C50C          add dl,[ebp+eax*8+0xc]
0000360D  0404              add al,0x4
0000360F  001C00            add [eax+eax],bl
00003612  0000              add [eax],al
00003614  B00A              mov al,0xa
00003616  0000              add [eax],al
00003618  83EEFF            sub esi,byte -0x1
0000361B  FF13              call [ebx]
0000361D  0000              add [eax],al
0000361F  0000              add [eax],al
00003621  41                inc ecx
00003622  0E                push cs
00003623  088502420D05      or [ebp+0x50d4202],al
00003629  4F                dec edi
0000362A  C50C04            lds ecx,[esp+eax]
0000362D  0400              add al,0x0
0000362F  002400            add [eax+eax],ah
00003632  0000              add [eax],al
00003634  D00A              ror byte [edx],1
00003636  0000              add [eax],al
00003638  76EE              jna 0x3628
0000363A  FF                db 0xff
0000363B  FF440000          inc dword [eax+eax+0x0]
0000363F  0000              add [eax],al
00003641  41                inc ecx
00003642  0E                push cs
00003643  088502420D05      or [ebp+0x50d4202],al
00003649  45                inc ebp
0000364A  8603              xchg al,[ebx]
0000364C  830479C3          add dword [ecx+edi*2],byte -0x3d
00003650  41                inc ecx
00003651  C641C50C          mov byte [ecx-0x3b],0xc
00003655  0404              add al,0x4
00003657  001C00            add [eax+eax],bl
0000365A  0000              add [eax],al
0000365C  F8                clc
0000365D  0A00              or al,[eax]
0000365F  0092EEFFFF1B      add [edx+0x1bffffee],dl
00003665  0000              add [eax],al
00003667  0000              add [eax],al
00003669  41                inc ecx
0000366A  0E                push cs
0000366B  088502420D05      or [ebp+0x50d4202],al
00003671  57                push edi
00003672  C50C04            lds ecx,[esp+eax]
00003675  0400              add al,0x0
00003677  001C00            add [eax+eax],bl
0000367A  0000              add [eax],al
0000367C  180B              sbb [ebx],cl
0000367E  0000              add [eax],al
00003680  8D                db 0x8d
00003681  EE                out dx,al
00003682  FF                db 0xff
00003683  FF1B              call far [ebx]
00003685  0000              add [eax],al
00003687  0000              add [eax],al
00003689  41                inc ecx
0000368A  0E                push cs
0000368B  088502420D05      or [ebp+0x50d4202],al
00003691  57                push edi
00003692  C50C04            lds ecx,[esp+eax]
00003695  0400              add al,0x0
00003697  001C00            add [eax+eax],bl
0000369A  0000              add [eax],al
0000369C  380B              cmp [ebx],cl
0000369E  0000              add [eax],al
000036A0  88EE              mov dh,ch
000036A2  FF                db 0xff
000036A3  FF30              push dword [eax]
000036A5  0000              add [eax],al
000036A7  0000              add [eax],al
000036A9  41                inc ecx
000036AA  0E                push cs
000036AB  088502420D05      or [ebp+0x50d4202],al
000036B1  6C                insb
000036B2  C50C04            lds ecx,[esp+eax]
000036B5  0400              add al,0x0
000036B7  001C00            add [eax+eax],bl
000036BA  0000              add [eax],al
000036BC  58                pop eax
000036BD  0B00              or eax,[eax]
000036BF  0098EEFFFF21      add [eax+0x21ffffee],bl
000036C5  0000              add [eax],al
000036C7  0000              add [eax],al
000036C9  41                inc ecx
000036CA  0E                push cs
000036CB  088502420D05      or [ebp+0x50d4202],al
000036D1  5D                pop ebp
000036D2  C50C04            lds ecx,[esp+eax]
000036D5  0400              add al,0x0
000036D7  001C00            add [eax+eax],bl
000036DA  0000              add [eax],al
000036DC  780B              js 0x36e9
000036DE  0000              add [eax],al
000036E0  9AEEFFFF050000    call 0x0:0x5ffffee
000036E7  0000              add [eax],al
000036E9  41                inc ecx
000036EA  0E                push cs
000036EB  088502420D05      or [ebp+0x50d4202],al
000036F1  41                inc ecx
000036F2  C50C04            lds ecx,[esp+eax]
000036F5  0400              add al,0x0
000036F7  0020              add [eax],ah
000036F9  0000              add [eax],al
000036FB  00980B00007F      add [eax+0x7f00000b],bl
00003701  EE                out dx,al
00003702  FF                db 0xff
00003703  FF2C00            jmp far [eax+eax]
00003706  0000              add [eax],al
00003708  00410E            add [ecx+0xe],al
0000370B  088502420D05      or [ebp+0x50d4202],al
00003711  44                inc esp
00003712  830363            add dword [ebx],byte +0x63
00003715  C3                ret
00003716  41                inc ecx
00003717  C50C04            lds ecx,[esp+eax]
0000371A  0400              add al,0x0
0000371C  1C00              sbb al,0x0
0000371E  0000              add [eax],al
00003720  BC0B000088        mov esp,0x8800000b
00003725  EE                out dx,al
00003726  FF                db 0xff
00003727  FF1500000000      call [dword 0x0]
0000372D  41                inc ecx
0000372E  0E                push cs
0000372F  088502420D05      or [ebp+0x50d4202],al
00003735  51                push ecx
00003736  C50C04            lds ecx,[esp+eax]
00003739  0400              add al,0x0
0000373B  001C00            add [eax+eax],bl
0000373E  0000              add [eax],al
00003740  DC0B              fmul qword [ebx]
00003742  0000              add [eax],al
00003744  7DEE              jnl 0x3734
00003746  FF                db 0xff
00003747  FF08              dec dword [eax]
00003749  0000              add [eax],al
0000374B  0000              add [eax],al
0000374D  41                inc ecx
0000374E  0E                push cs
0000374F  088502420D05      or [ebp+0x50d4202],al
00003755  44                inc esp
00003756  C50C04            lds ecx,[esp+eax]
00003759  0400              add al,0x0
0000375B  001C00            add [eax+eax],bl
0000375E  0000              add [eax],al
00003760  FC                cld
00003761  0B00              or eax,[eax]
00003763  0065EE            add [ebp-0x12],ah
00003766  FF                db 0xff
00003767  FF                db 0xff
00003768  3800              cmp [eax],al
0000376A  0000              add [eax],al
0000376C  00410E            add [ecx+0xe],al
0000376F  088502420D05      or [ebp+0x50d4202],al
00003775  74C5              jz 0x373c
00003777  0C04              or al,0x4
00003779  0400              add al,0x0
0000377B  001C00            add [eax+eax],bl
0000377E  0000              add [eax],al
00003780  1C0C              sbb al,0xc
00003782  0000              add [eax],al
00003784  7DEE              jnl 0x3774
00003786  FF                db 0xff
00003787  FF37              push dword [edi]
00003789  0000              add [eax],al
0000378B  0000              add [eax],al
0000378D  41                inc ecx
0000378E  0E                push cs
0000378F  088502420D05      or [ebp+0x50d4202],al
00003795  73C5              jnc 0x375c
00003797  0C04              or al,0x4
00003799  0400              add al,0x0
0000379B  001C00            add [eax+eax],bl
0000379E  0000              add [eax],al
000037A0  3C0C              cmp al,0xc
000037A2  0000              add [eax],al
000037A4  94                xchg eax,esp
000037A5  EE                out dx,al
000037A6  FF                db 0xff
000037A7  FF08              dec dword [eax]
000037A9  0000              add [eax],al
000037AB  0000              add [eax],al
000037AD  41                inc ecx
000037AE  0E                push cs
000037AF  088502420D05      or [ebp+0x50d4202],al
000037B5  44                inc esp
000037B6  C50C04            lds ecx,[esp+eax]
000037B9  0400              add al,0x0
000037BB  001C00            add [eax+eax],bl
000037BE  0000              add [eax],al
000037C0  5C                pop esp
000037C1  0C00              or al,0x0
000037C3  007CEEFF          add [esi+ebp*8-0x1],bh
000037C7  FF13              call [ebx]
000037C9  0000              add [eax],al
000037CB  0000              add [eax],al
000037CD  41                inc ecx
000037CE  0E                push cs
000037CF  088502420D05      or [ebp+0x50d4202],al
000037D5  4F                dec edi
000037D6  C50C04            lds ecx,[esp+eax]
000037D9  0400              add al,0x0
000037DB  001C00            add [eax+eax],bl
000037DE  0000              add [eax],al
000037E0  7C0C              jl 0x37ee
000037E2  0000              add [eax],al
000037E4  6F                outsd
000037E5  EE                out dx,al
000037E6  FF                db 0xff
000037E7  FF2500000000      jmp [dword 0x0]
000037ED  41                inc ecx
000037EE  0E                push cs
000037EF  088502420D05      or [ebp+0x50d4202],al
000037F5  61                popa
000037F6  C50C04            lds ecx,[esp+eax]
000037F9  0400              add al,0x0
000037FB  001C00            add [eax+eax],bl
000037FE  0000              add [eax],al
00003800  9C                pushf
00003801  0C00              or al,0x0
00003803  0074EEFF          add [esi+ebp*8-0x1],dh
00003807  FF13              call [ebx]
00003809  0000              add [eax],al
0000380B  0000              add [eax],al
0000380D  41                inc ecx
0000380E  0E                push cs
0000380F  088502420D05      or [ebp+0x50d4202],al
00003815  4F                dec edi
00003816  C50C04            lds ecx,[esp+eax]
00003819  0400              add al,0x0
0000381B  001C00            add [eax+eax],bl
0000381E  0000              add [eax],al
00003820  BC0C000068        mov esp,0x6800000c
00003825  EE                out dx,al
00003826  FF                db 0xff
00003827  FF0A              dec dword [edx]
00003829  0000              add [eax],al
0000382B  0000              add [eax],al
0000382D  41                inc ecx
0000382E  0E                push cs
0000382F  088502420D05      or [ebp+0x50d4202],al
00003835  46                inc esi
00003836  C50C04            lds ecx,[esp+eax]
00003839  0400              add al,0x0
0000383B  001C00            add [eax+eax],bl
0000383E  0000              add [eax],al
00003840  DC0C00            fmul qword [eax+eax]
00003843  0052EE            add [edx-0x12],dl
00003846  FF                db 0xff
00003847  FF21              jmp [ecx]
00003849  0000              add [eax],al
0000384B  0000              add [eax],al
0000384D  41                inc ecx
0000384E  0E                push cs
0000384F  088502420D05      or [ebp+0x50d4202],al
00003855  5D                pop ebp
00003856  C50C04            lds ecx,[esp+eax]
00003859  0400              add al,0x0
0000385B  001C00            add [eax+eax],bl
0000385E  0000              add [eax],al
00003860  FC                cld
00003861  0C00              or al,0x0
00003863  0053EE            add [ebx-0x12],dl
00003866  FF                db 0xff
00003867  FF4A00            dec dword [edx+0x0]
0000386A  0000              add [eax],al
0000386C  00410E            add [ecx+0xe],al
0000386F  088502420D05      or [ebp+0x50d4202],al
00003875  0246C5            add al,[esi-0x3b]
00003878  0C04              or al,0x4
0000387A  0400              add al,0x0
0000387C  1C00              sbb al,0x0
0000387E  0000              add [eax],al
00003880  1C0D              sbb al,0xd
00003882  0000              add [eax],al
00003884  7DEE              jnl 0x3874
00003886  FF                db 0xff
00003887  FF                db 0xff
00003888  3D00000000        cmp eax,0x0
0000388D  41                inc ecx
0000388E  0E                push cs
0000388F  088502420D05      or [ebp+0x50d4202],al
00003895  79C5              jns 0x385c
00003897  0C04              or al,0x4
00003899  0400              add al,0x0
0000389B  001C00            add [eax+eax],bl
0000389E  0000              add [eax],al
000038A0  3C0D              cmp al,0xd
000038A2  0000              add [eax],al
000038A4  A5                movsd
000038A5  D7                xlatb
000038A6  FF                db 0xff
000038A7  FF                db 0xff
000038A8  3F                aas
000038A9  0000              add [eax],al
000038AB  0000              add [eax],al
000038AD  41                inc ecx
000038AE  0E                push cs
000038AF  088502420D05      or [ebp+0x50d4202],al
000038B5  7BC5              jpo 0x387c
000038B7  0C04              or al,0x4
000038B9  0400              add al,0x0
000038BB  001C00            add [eax+eax],bl
000038BE  0000              add [eax],al
000038C0  5C                pop esp
000038C1  0D0000C4D7        or eax,0xd7c40000
000038C6  FF                db 0xff
000038C7  FF1C00            call far [eax+eax]
000038CA  0000              add [eax],al
000038CC  00410E            add [ecx+0xe],al
000038CF  088502420D05      or [ebp+0x50d4202],al
000038D5  58                pop eax
000038D6  C50C04            lds ecx,[esp+eax]
000038D9  0400              add al,0x0
000038DB  0000              add [eax],al
000038DD  0000              add [eax],al
000038DF  00FF              add bh,bh
000038E1  FF01              inc dword [ecx]
000038E3  50                push eax
000038E4  1305850B0035      adc eax,[dword 0x35000b85]
000038EA  05B90A0043        add eax,0x43000ab9
000038EF  05CD0A0061        add eax,0x61000acd
000038F4  3CF1              cmp al,0xf1
000038F6  0A00              or al,[eax]
000038F8  B301              mov bl,0x1
000038FA  05E10A00C6        add eax,0xc6000ae1
000038FF  01E1              add ecx,esp
00003901  05F10A00BD        add eax,0xbd000af1
00003906  07                pop es
00003907  05E50A0094        add eax,0x94000ae5
0000390C  0832              or [edx],dh
0000390E  F1                int1
0000390F  0A00              or al,[eax]
00003911  D9                db 0xd9
00003912  0805E90A00F4      or [dword 0xf4000ae9],al
00003918  082E              or [esi],ch
0000391A  F1                int1
0000391B  0A00              or al,[eax]
0000391D  B509              mov ch,0x9
0000391F  05ED0A00D0        add eax,0xd0000aed
00003924  0959F1            or [ecx-0xf],ebx
00003927  0A00              or al,[eax]
00003929  B20A              mov dl,0xa
0000392B  05850B0088        add eax,0x88000b85
00003930  0B050000FFFF      or eax,[dword 0xffff0000]
00003936  010B              add [ebx],ecx
00003938  189C03CD0300D0    sbb [ebx+eax-0x2ffffc33],bl
0000393F  03050000FFFF      add eax,[dword 0xffff0000]
00003945  010C28            add [eax+ebp],ecx
00003948  053A003305        add eax,0x533003a
0000394D  0000              add [eax],al
0000394F  4C                dec esp
00003950  050000FFFF        add eax,0xffff0000
00003955  010C14            add [esp+edx],ecx
00003958  0500002633        add eax,0x33260000
0000395D  5B                pop ebx
0000395E  006D05            add [ebp+0x5],ch
00003961  0000              add [eax],al
00003963  FF                db 0xff
00003964  FF01              inc dword [ecx]
00003966  0830              or [eax],dh
00003968  0542005405        add eax,0x5540042
0000396D  0000              add [eax],al
0000396F  FF                db 0xff
00003970  FF01              inc dword [ecx]
00003972  0E                push cs
00003973  360500005A37      ss add eax,0x375a0000
00003979  99                cdq
0000397A  0100              add [eax],eax
0000397C  AB                stosd
0000397D  01050000FFFF      add [dword 0xffff0000],eax
00003983  0110              add [eax],edx
00003985  1426              adc al,0x26
00003987  DB01              fild dword [ecx]
00003989  00C1              add cl,al
0000398B  0105D90100DE      add [dword 0xde0001d9],eax
00003991  01050000FFFF      add [dword 0xffff0000],eax
00003997  010A              add [edx],ecx
00003999  59                pop ecx
0000399A  3F                aas
0000399B  9A01009D010500    call 0x5:0x19d0001
000039A2  00FF              add bh,bh
000039A4  FF01              inc dword [ecx]
000039A6  1013              adc [ebx],dl
000039A8  0500002805        add eax,0x5280000
000039AD  46                inc esi
000039AE  003D05440049      add [dword 0x49004405],bh
000039B4  050000FFFF        add eax,0xffff0000
000039B9  0108              add [eax],ecx
000039BB  26052D003F05      es add eax,0x53f002d
000039C1  0000              add [eax],al
000039C3  FF                db 0xff
000039C4  FF01              inc dword [ecx]
000039C6  11880105FE03      adc [eax+0x3fe0501],ecx
000039CC  00F7              add bh,dh
000039CE  030580040083      add eax,[dword 0x83000480]
000039D4  0405              add al,0x5
000039D6  0000              add [eax],al
000039D8  FF00              inc dword [eax]
000039DA  2901              sub [ecx],eax
000039DC  21910105BF04      and [ecx+0x4bf0501],edx
000039E2  00D3              add bl,dl
000039E4  01440000          add [eax+eax+0x0],eax
000039E8  FC                cld
000039E9  0243D8            add al,[ebx-0x28]
000039EC  0401              add al,0x1
000039EE  E303              jecxz 0x39f3
000039F0  640000            add [fs:eax],al
000039F3  D304050000FD04    rol dword [eax+0x4fd0000],cl
000039FA  46                inc esi
000039FB  C7040001000000    mov dword [eax+eax],0x1
00003A02  0000              add [eax],al
00003A04  FF                db 0xff
00003A05  FF01              inc dword [ecx]
00003A07  0BDB              or ebx,ebx
00003A09  0105B40200BA      add [dword 0xba0002b4],eax
00003A0F  02050000FFFF      add al,[dword 0xffff0000]
00003A15  010B              add [ebx],ecx
00003A17  9E                sahf
00003A18  0105A50100A8      add [dword 0xa80001a5],eax
00003A1E  010500000000      add [dword 0x0],eax
00003A24  FF                db 0xff
00003A25  FF                db 0xff
00003A26  FF                db 0xff
00003A27  FF8890040800      dec dword [eax+0x80490]
00003A2D  0000              add [eax],al
00003A2F  00FF              add bh,bh
00003A31  FF                db 0xff
00003A32  FF                db 0xff
00003A33  FF00              inc dword [eax]
00003A35  0000              add [eax],al
00003A37  0000              add [eax],al
00003A39  0000              add [eax],al
00003A3B  0001              add [ecx],al
00003A3D  0000              add [eax],al
00003A3F  0001              add [ecx],al
00003A41  0000              add [eax],al
00003A43  0001              add [ecx],al
00003A45  0000              add [eax],al
00003A47  0036              add [esi],dh
00003A49  0100              add [eax],eax
00003A4B  0001              add [ecx],al
00003A4D  0000              add [eax],al
00003A4F  004001            add [eax+0x1],al
00003A52  0000              add [eax],al
00003A54  0100              add [eax],eax
00003A56  0000              add [eax],al
00003A58  5D                pop ebp
00003A59  0100              add [eax],eax
00003A5B  000C00            add [eax+eax],cl
00003A5E  0000              add [eax],al
00003A60  7C86              jl 0x39e8
00003A62  0408              add al,0x8
00003A64  0D000000D8        or eax,0xd8000000
00003A69  A7                cmpsd
00003A6A  0408              add al,0x8
00003A6C  0400              add al,0x0
00003A6E  0000              add [eax],al
00003A70  6881040805        push dword 0x5080481
00003A75  0000              add [eax],al
00003A77  006C8304          add [ebx+eax*4+0x4],ch
00003A7B  0806              or [esi],al
00003A7D  0000              add [eax],al
00003A7F  000C82            add [edx+eax*4],cl
00003A82  0408              add al,0x8
00003A84  0A00              or al,[eax]
00003A86  0000              add [eax],al
00003A88  D101              rol dword [ecx],1
00003A8A  0000              add [eax],al
00003A8C  0B00              or eax,[eax]
00003A8E  0000              add [eax],al
00003A90  1000              adc [eax],al
00003A92  0000              add [eax],al
00003A94  1500000000        adc eax,0x0
00003A99  0000              add [eax],al
00003A9B  0003              add [ebx],al
00003A9D  0000              add [eax],al
00003A9F  0020              add [eax],ah
00003AA1  CB                retf
00003AA2  0408              add al,0x8
00003AA4  0200              add al,[eax]
00003AA6  0000              add [eax],al
00003AA8  800000            add byte [eax],0x0
00003AAB  001400            add [eax+eax],dl
00003AAE  0000              add [eax],al
00003AB0  1100              adc [eax],eax
00003AB2  0000              add [eax],al
00003AB4  17                pop ss
00003AB5  0000              add [eax],al
00003AB7  00FC              add ah,bh
00003AB9  850408            test [eax+ecx],eax
00003ABC  1100              adc [eax],eax
00003ABE  0000              add [eax],al
00003AC0  EC                in al,dx
00003AC1  850408            test [eax+ecx],eax
00003AC4  1200              adc al,[eax]
00003AC6  0000              add [eax],al
00003AC8  1000              adc [eax],al
00003ACA  0000              add [eax],al
00003ACC  1300              adc eax,[eax]
00003ACE  0000              add [eax],al
00003AD0  0800              or [eax],al
00003AD2  0000              add [eax],al
00003AD4  FE                db 0xfe
00003AD5  FF                db 0xff
00003AD6  FF6F6C            jmp far [edi+0x6c]
00003AD9  850408            test [eax+ecx],eax
00003ADC  FF                db 0xff
00003ADD  FF                db 0xff
00003ADE  FF6F03            jmp far [edi+0x3]
00003AE1  0000              add [eax],al
00003AE3  00F0              add al,dh
00003AE5  FF                db 0xff
00003AE6  FF6F3E            jmp far [edi+0x3e]
00003AE9  850408            test [eax+ecx],eax
00003AEC  0000              add [eax],al
00003AEE  0000              add [eax],al
00003AF0  0000              add [eax],al
00003AF2  0000              add [eax],al
00003AF4  0000              add [eax],al
00003AF6  0000              add [eax],al
00003AF8  0000              add [eax],al
00003AFA  0000              add [eax],al
00003AFC  0000              add [eax],al
00003AFE  0000              add [eax],al
00003B00  0000              add [eax],al
00003B02  0000              add [eax],al
00003B04  0000              add [eax],al
00003B06  0000              add [eax],al
00003B08  0000              add [eax],al
00003B0A  0000              add [eax],al
00003B0C  0000              add [eax],al
00003B0E  0000              add [eax],al
00003B10  0000              add [eax],al
00003B12  0000              add [eax],al
00003B14  0000              add [eax],al
00003B16  0000              add [eax],al
00003B18  0000              add [eax],al
00003B1A  0000              add [eax],al
00003B1C  0000              add [eax],al
00003B1E  0000              add [eax],al
00003B20  3CCA              cmp al,0xca
00003B22  0408              add al,0x8
00003B24  0000              add [eax],al
00003B26  0000              add [eax],al
00003B28  0000              add [eax],al
00003B2A  0000              add [eax],al
00003B2C  C6860408D68604    mov byte [esi-0x7929f7fc],0x4
00003B33  08E6              or dh,ah
00003B35  860408            xchg al,[eax+ecx]
00003B38  F6860408068704    test byte [esi-0x78f9f7fc],0x4
00003B3F  0816              or [esi],dl
00003B41  870408            xchg eax,[eax+ecx]
00003B44  26870408          xchg eax,[es:eax+ecx]
00003B48  36870408          xchg eax,[ss:eax+ecx]
00003B4C  46                inc esi
00003B4D  870408            xchg eax,[eax+ecx]
00003B50  56                push esi
00003B51  870408            xchg eax,[eax+ecx]
00003B54  66870408          xchg ax,[eax+ecx]
00003B58  7687              jna 0x3ae1
00003B5A  0408              add al,0x8
00003B5C  868704089687      xchg al,[edi-0x7869f7fc]
00003B62  0408              add al,0x8
00003B64  A6                cmpsb
00003B65  870408            xchg eax,[eax+ecx]
00003B68  B687              mov dh,0x87
00003B6A  0408              add al,0x8
00003B6C  0000              add [eax],al
00003B6E  0000              add [eax],al
00003B70  0000              add [eax],al
00003B72  0000              add [eax],al
00003B74  0000              add [eax],al
00003B76  0000              add [eax],al
00003B78  3A8C30E28E7945    cmp cl,[eax+esi+0x45798ee2]
00003B7F  3E0100            add [ds:eax],eax
00003B82  0000              add [eax],al
00003B84  FF                db 0xff
00003B85  FF                db 0xff
00003B86  FF                db 0xff
00003B87  FF00              inc dword [eax]
00003B89  0000              add [eax],al
00003B8B  0000              add [eax],al
00003B8D  0000              add [eax],al
00003B8F  0000              add [eax],al
00003B91  0000              add [eax],al
00003B93  0000              add [eax],al
00003B95  0000              add [eax],al
00003B97  00FF              add bh,bh
00003B99  FF                db 0xff
00003B9A  FF                db 0xff
00003B9B  FF01              inc dword [ecx]
00003B9D  0000              add [eax],al
00003B9F  004743            add [edi+0x43],al
00003BA2  43                inc ebx
00003BA3  3A20              cmp ah,[eax]
00003BA5  285562            sub [ebp+0x62],dl
00003BA8  756E              jnz 0x3c18
00003BAA  7475              jz 0x3c21
00003BAC  20342E            and [esi+ebp],dh
00003BAF  342E              xor al,0x2e
00003BB1  332D34756275      xor ebp,[dword 0x75627534]
00003BB7  6E                outsb
00003BB8  7475              jz 0x3c2f
00003BBA  352920342E        xor eax,0x2e342029
00003BBF  342E              xor al,0x2e
00003BC1  3300              xor eax,[eax]
00003BC3  47                inc edi
00003BC4  43                inc ebx
00003BC5  43                inc ebx
00003BC6  3A20              cmp ah,[eax]
00003BC8  28474E            sub [edi+0x4e],al
00003BCB  55                push ebp
00003BCC  2920              sub [eax],esp
00003BCE  342E              xor al,0x2e
00003BD0  382E              cmp [esi],ch
00003BD2  3100              xor [eax],eax
00003BD4  0000              add [eax],al
00003BD6  0000              add [eax],al
00003BD8  1C00              sbb al,0x0
00003BDA  0000              add [eax],al
00003BDC  0200              add al,[eax]
00003BDE  0000              add [eax],al
00003BE0  0000              add [eax],al
00003BE2  0400              add al,0x0
00003BE4  0000              add [eax],al
00003BE6  0000              add [eax],al
00003BE8  C0870408220000    rol byte [edi+0x220804],byte 0x0
00003BEF  0000              add [eax],al
00003BF1  0000              add [eax],al
00003BF3  0000              add [eax],al
00003BF5  0000              add [eax],al
00003BF7  001C00            add [eax+eax],bl
00003BFA  0000              add [eax],al
00003BFC  0200              add al,[eax]
00003BFE  0E                push cs
00003BFF  0100              add [eax],eax
00003C01  000400            add [eax+eax],al
00003C04  0000              add [eax],al
00003C06  0000              add [eax],al
00003C08  40                inc eax
00003C09  A7                cmpsd
00003C0A  0408              add al,0x8
00003C0C  6A00              push byte +0x0
00003C0E  0000              add [eax],al
00003C10  0000              add [eax],al
00003C12  0000              add [eax],al
00003C14  0000              add [eax],al
00003C16  0000              add [eax],al
00003C18  2100              and [eax],eax
00003C1A  0000              add [eax],al
00003C1C  0200              add al,[eax]
00003C1E  810000008D00      add dword [eax],0x8d0000
00003C24  0000              add [eax],al
00003C26  7500              jnz 0x3c28
00003C28  0000              add [eax],al
00003C2A  5F                pop edi
00003C2B  49                dec ecx
00003C2C  4F                dec edi
00003C2D  5F                pop edi
00003C2E  7374              jnc 0x3ca4
00003C30  64696E5F75736564  imul ebp,[fs:esi+0x5f],dword 0x64657375
00003C38  0000              add [eax],al
00003C3A  0000              add [eax],al
00003C3C  0036              add [esi],dh
00003C3E  0000              add [eax],al
00003C40  0002              add [edx],al
00003C42  000E              add [esi],cl
00003C44  0100              add [eax],eax
00003C46  0013              add [ebx],dl
00003C48  0100              add [eax],eax
00003C4A  003E              add [esi],bh
00003C4C  0000              add [eax],al
00003C4E  005F5F            add [edi+0x5f],bl
00003C51  6C                insb
00003C52  6962635F637375    imul esp,[edx+0x63],dword 0x7573635f
00003C59  5F                pop edi
00003C5A  66696E690053      imul bp,[esi+0x69],word 0x5300
00003C60  0000              add [eax],al
00003C62  005F5F            add [edi+0x5f],bl
00003C65  6C                insb
00003C66  6962635F637375    imul esp,[edx+0x63],dword 0x7573635f
00003C6D  5F                pop edi
00003C6E  696E6974000000    imul ebp,[esi+0x69],dword 0x74
00003C75  0000              add [eax],al
00003C77  7D00              jnl 0x3c79
00003C79  0000              add [eax],al
00003C7B  0200              add al,[eax]
00003C7D  0000              add [eax],al
00003C7F  0000              add [eax],al
00003C81  0401              add al,0x1
00003C83  0000              add [eax],al
00003C85  0000              add [eax],al
00003C87  C0870408E28704    rol byte [edi-0x781df7fc],byte 0x4
00003C8E  082E              or [esi],ch
00003C90  2E2F              cs das
00003C92  7379              jnc 0x3d0d
00003C94  7364              jnc 0x3cfa
00003C96  657073            gs jo 0x3d0c
00003C99  2F                das
00003C9A  693338362F65      imul esi,[ebx],dword 0x652f3638
00003CA0  6C                insb
00003CA1  662F              o16 das
00003CA3  7374              jnc 0x3d19
00003CA5  61                popa
00003CA6  7274              jc 0x3d1c
00003CA8  2E53              cs push ebx
00003CAA  002F              add [edi],ch
00003CAC  686F6D652F        push dword 0x2f656d6f
00003CB1  7069              jo 0x3d1c
00003CB3  657272            gs jc 0x3d28
00003CB6  652F              gs das
00003CB8  42                inc edx
00003CB9  7572              jnz 0x3d2d
00003CBB  6561              gs popa
00003CBD  752F              jnz 0x3cee
00003CBF  6865616465        push dword 0x65646165
00003CC4  7273              jc 0x3d39
00003CC6  2D676C6962        sub eax,0x62696c67
00003CCB  632D666F722D      arpl [dword 0x2d726f66],bp
00003CD1  6C                insb
00003CD2  696E75782F676C    imul ebp,[esi+0x75],dword 0x6c672f78
00003CD9  6962632D322E31    imul esp,[edx+0x63],dword 0x312e322d
00003CE0  322E              xor ch,[esi]
00003CE2  322F              xor ch,[edi]
00003CE4  637375            arpl [ebx+0x75],si
00003CE7  00474E            add [edi+0x4e],al
00003CEA  55                push ebp
00003CEB  204153            and [ecx+0x53],al
00003CEE  2032              and [edx],dh
00003CF0  2E3230            xor dh,[cs:eax]
00003CF3  2E3100            xor [cs:eax],eax
00003CF6  018089000000      add [eax+0x89],eax
00003CFC  0200              add al,[eax]
00003CFE  1400              adc al,0x0
00003D00  0000              add [eax],al
00003D02  0401              add al,0x1
00003D04  8E00              mov es,[eax]
00003D06  0000              add [eax],al
00003D08  01CD              add ebp,ecx
00003D0A  0000              add [eax],al
00003D0C  004300            add [ebx+0x0],al
00003D0F  0000              add [eax],al
00003D11  E487              in al,0x87
00003D13  0408              add al,0x8
00003D15  E487              in al,0x87
00003D17  0408              add al,0x8
00003D19  5B                pop ebx
00003D1A  0000              add [eax],al
00003D1C  0002              add [edx],al
00003D1E  0108              add [eax],ecx
00003D20  800000            add byte [eax],0x0
00003D23  0002              add [edx],al
00003D25  0207              add al,[edi]
00003D27  0000              add [eax],al
00003D29  0000              add [eax],al
00003D2B  020407            add al,[edi+eax]
00003D2E  360000            add [ss:eax],al
00003D31  0002              add [edx],al
00003D33  0407              add al,0x7
00003D35  3100              xor [eax],eax
00003D37  0000              add [eax],al
00003D39  0201              add al,[ecx]
00003D3B  06                push es
00003D3C  82                db 0x82
00003D3D  0000              add [eax],al
00003D3F  0002              add [edx],al
00003D41  020513000000      add al,[dword 0x13]
00003D47  030405696E7400    add eax,[eax+0x746e69]
00003D4E  0208              add cl,[eax]
00003D50  059A000000        add eax,0x9a
00003D55  0208              add cl,[eax]
00003D57  07                pop es
00003D58  2C00              sub al,0x0
00003D5A  0000              add [eax],al
00003D5C  0204059F000000    add al,[eax+0x9f]
00003D63  0404              add al,0x4
00003D65  07                pop es
00003D66  0201              add al,[ecx]
00003D68  06                push es
00003D69  8900              mov [eax],eax
00003D6B  0000              add [eax],al
00003D6D  051D000000        add eax,0x1d
00003D72  0119              add [ecx],ebx
00003D74  8700              xchg eax,[eax]
00003D76  0000              add [eax],al
00003D78  010503FCA704      add [dword 0x4a7fc03],eax
00003D7E  0806              or [esi],al
00003D80  4F                dec edi
00003D81  0000              add [eax],al
00003D83  0000              add [eax],al
00003D85  0F0100            sgdt [eax]
00003D88  0002              add [edx],al
00003D8A  005F00            add [edi+0x0],bl
00003D8D  0000              add [eax],al
00003D8F  0401              add al,0x1
00003D91  8E00              mov es,[eax]
00003D93  0000              add [eax],al
00003D95  01C9              add ecx,ecx
00003D97  0000              add [eax],al
00003D99  004300            add [ebx+0x0],al
00003D9C  0000              add [eax],al
00003D9E  40                inc eax
00003D9F  A7                cmpsd
00003DA0  0408              add al,0x8
00003DA2  AA                stosb
00003DA3  A7                cmpsd
00003DA4  0408              add al,0x8
00003DA6  82                db 0x82
00003DA7  0000              add [eax],al
00003DA9  0002              add [edx],al
00003DAB  0405              add al,0x5
00003DAD  696E740003AD00    imul ebp,[esi+0x74],dword 0xad0300
00003DB4  0000              add [eax],al
00003DB6  02D3              add dl,bl
00003DB8  37                aaa
00003DB9  0000              add [eax],al
00003DBB  000404            add [esp+eax],al
00003DBE  07                pop es
00003DBF  360000            add [ss:eax],al
00003DC2  000501FD0000      add [dword 0xfd01],al
00003DC8  0001              add [ecx],al
00003DCA  830140            add dword [ecx],byte +0x40
00003DCD  A7                cmpsd
00003DCE  0408              add al,0x8
00003DD0  45                inc ebp
00003DD1  A7                cmpsd
00003DD2  0408              add al,0x8
00003DD4  0000              add [eax],al
00003DD6  0000              add [eax],al
00003DD8  06                push es
00003DD9  01B900000001      add [ecx+0x1000000],edi
00003DDF  690150A70408      imul eax,[ecx],dword 0x804a750
00003DE5  AA                stosb
00003DE6  A7                cmpsd
00003DE7  0408              add al,0x8
00003DE9  2C00              sub al,0x0
00003DEB  0000              add [eax],al
00003DED  B900000007        mov ecx,0x7000000
00003DF2  B400              mov ah,0x0
00003DF4  0000              add [eax],al
00003DF6  016925            add [ecx+0x25],ebp
00003DF9  0000              add [eax],al
00003DFB  0002              add [edx],al
00003DFD  91                xchg eax,ecx
00003DFE  0007              add [edi],al
00003E00  0D01000001        or eax,0x1000001
00003E05  69B9000000029104  imul edi,[ecx+0x2000000],dword 0xa8070491
         -07A8
00003E0F  0000              add [eax],al
00003E11  0001              add [ecx],al
00003E13  69B9000000029108  imul edi,[ecx+0x2000000],dword 0xe7080891
         -08E7
00003E1D  0000              add [eax],al
00003E1F  0001              add [ecx],al
00003E21  7ACC              jpe 0x3def
00003E23  0000              add [eax],al
00003E25  0009              add [ecx],cl
00003E27  69A70408A2A70408  imul esp,[edi-0x585df7fc],dword 0x690a0804
         -0A69
00003E31  0001              add [ecx],al
00003E33  7B2C              jpo 0x3e61
00003E35  0000              add [eax],al
00003E37  005800            add [eax+0x0],bl
00003E3A  0000              add [eax],al
00003E3C  0000              add [eax],al
00003E3E  0B04BF            or eax,[edi+edi*4]
00003E41  0000              add [eax],al
00003E43  000B              add [ebx],cl
00003E45  04C5              add al,0xc5
00003E47  0000              add [eax],al
00003E49  000401            add [ecx+eax],al
00003E4C  06                push es
00003E4D  8900              mov [eax],eax
00003E4F  0000              add [eax],al
00003E51  0C2C              or al,0x2c
00003E53  0000              add [eax],al
00003E55  000DF2000000      add [dword 0xf2],cl
00003E5B  DC00              fadd qword [eax]
00003E5D  0000              add [eax],al
00003E5F  0E                push cs
00003E60  000F              add [edi],cl
00003E62  01F2              add edx,esi
00003E64  0000              add [eax],al
00003E66  0010              add [eax],dl
00003E68  2500000010        and eax,0x10000000
00003E6D  B900000010        mov ecx,0x10000000
00003E72  B900000000        mov ecx,0x0
00003E77  0B04DC            or eax,[esp+ebx*8]
00003E7A  0000              add [eax],al
00003E7C  0011              add [ecx],dl
00003E7E  D400              aam 0x0
00003E80  0000              add [eax],al
00003E82  013B              add [ebx],edi
00003E84  D100              rol dword [eax],1
00003E86  0000              add [eax],al
00003E88  0101              add [ecx],eax
00003E8A  11EC              adc esp,ebp
00003E8C  0000              add [eax],al
00003E8E  0001              add [ecx],al
00003E90  3DD1000000        cmp eax,0xd1
00003E95  0101              add [ecx],eax
00003E97  0001              add [ecx],al
00003E99  1100              adc [eax],eax
00003E9B  1006              adc [esi],al
00003E9D  1101              adc [ecx],eax
00003E9F  1201              adc al,[ecx]
00003EA1  0308              add ecx,[eax]
00003EA3  1B08              sbb ecx,[eax]
00003EA5  2508130500        and eax,0x51308
00003EAA  0000              add [eax],al
00003EAC  0111              add [ecx],edx
00003EAE  01250E130B03      add [dword 0x30b130e],esp
00003EB4  0E                push cs
00003EB5  1B0E              sbb ecx,[esi]
00003EB7  1101              adc [ecx],eax
00003EB9  1201              adc al,[ecx]
00003EBB  1006              adc [esi],al
00003EBD  0000              add [eax],al
00003EBF  022400            add ah,[eax+eax]
00003EC2  0B0B              or ecx,[ebx]
00003EC4  3E0B03            or eax,[ds:ebx]
00003EC7  0E                push cs
00003EC8  0000              add [eax],al
00003ECA  032400            add esp,[eax+eax]
00003ECD  0B0B              or ecx,[ebx]
00003ECF  3E0B03            or eax,[ds:ebx]
00003ED2  0800              or [eax],al
00003ED4  000424            add [esp],al
00003ED7  000B              add [ebx],cl
00003ED9  0B3E              or edi,[esi]
00003EDB  0B00              or eax,[eax]
00003EDD  00053400030E      add [dword 0xe030034],al
00003EE3  3A0B              cmp cl,[ebx]
00003EE5  3B0B              cmp ecx,[ebx]
00003EE7  49                dec ecx
00003EE8  133F              adc edi,[edi]
00003EEA  0C02              or al,0x2
00003EEC  0A00              or al,[eax]
00003EEE  0006              add [esi],al
00003EF0  26004913          add [es:ecx+0x13],cl
00003EF4  0000              add [eax],al
00003EF6  0001              add [ecx],al
00003EF8  1101              adc [ecx],eax
00003EFA  250E130B03        and eax,0x30b130e
00003EFF  0E                push cs
00003F00  1B0E              sbb ecx,[esi]
00003F02  1101              adc [ecx],eax
00003F04  1201              adc al,[ecx]
00003F06  1006              adc [esi],al
00003F08  0000              add [eax],al
00003F0A  022400            add ah,[eax+eax]
00003F0D  0B0B              or ecx,[ebx]
00003F0F  3E0B03            or eax,[ds:ebx]
00003F12  0800              or [eax],al
00003F14  0003              add [ebx],al
00003F16  16                push ss
00003F17  0003              add [ebx],al
00003F19  0E                push cs
00003F1A  3A0B              cmp cl,[ebx]
00003F1C  3B0B              cmp ecx,[ebx]
00003F1E  49                dec ecx
00003F1F  1300              adc eax,[eax]
00003F21  000424            add [esp],al
00003F24  000B              add [ebx],cl
00003F26  0B3E              or edi,[esi]
00003F28  0B03              or eax,[ebx]
00003F2A  0E                push cs
00003F2B  0000              add [eax],al
00003F2D  052E003F0C        add eax,0xc3f002e
00003F32  030E              add ecx,[esi]
00003F34  3A0B              cmp cl,[ebx]
00003F36  3B0B              cmp ecx,[ebx]
00003F38  27                daa
00003F39  0C11              or al,0x11
00003F3B  0112              add [edx],edx
00003F3D  014006            add [eax+0x6],eax
00003F40  0000              add [eax],al
00003F42  06                push es
00003F43  2E013F            add [cs:edi],edi
00003F46  0C03              or al,0x3
00003F48  0E                push cs
00003F49  3A0B              cmp cl,[ebx]
00003F4B  3B0B              cmp ecx,[ebx]
00003F4D  27                daa
00003F4E  0C11              or al,0x11
00003F50  0112              add [edx],edx
00003F52  014006            add [eax+0x6],eax
00003F55  0113              add [ebx],edx
00003F57  0000              add [eax],al
00003F59  07                pop es
00003F5A  0500030E3A        add eax,0x3a0e0300
00003F5F  0B3B              or edi,[ebx]
00003F61  0B4913            or ecx,[ecx+0x13]
00003F64  020A              add cl,[edx]
00003F66  0000              add [eax],al
00003F68  083400            or [eax+eax],dh
00003F6B  030E              add ecx,[esi]
00003F6D  3A0B              cmp cl,[ebx]
00003F6F  3B0B              cmp ecx,[ebx]
00003F71  49                dec ecx
00003F72  1300              adc eax,[eax]
00003F74  0009              add [ecx],cl
00003F76  0B01              or eax,[ecx]
00003F78  1101              adc [ecx],eax
00003F7A  1201              adc al,[ecx]
00003F7C  0000              add [eax],al
00003F7E  0A3400            or dh,[eax+eax]
00003F81  0308              add ecx,[eax]
00003F83  3A0B              cmp cl,[ebx]
00003F85  3B0B              cmp ecx,[ebx]
00003F87  49                dec ecx
00003F88  1302              adc eax,[edx]
00003F8A  06                push es
00003F8B  0000              add [eax],al
00003F8D  0B0F              or ecx,[edi]
00003F8F  000B              add [ebx],cl
00003F91  0B4913            or ecx,[ecx+0x13]
00003F94  0000              add [eax],al
00003F96  0C26              or al,0x26
00003F98  004913            add [ecx+0x13],cl
00003F9B  0000              add [eax],al
00003F9D  0D01014913        or eax,0x13490101
00003FA2  0113              add [ebx],edx
00003FA4  0000              add [eax],al
00003FA6  0E                push cs
00003FA7  2100              and [eax],eax
00003FA9  0000              add [eax],al
00003FAB  0F1501            unpckhps xmm0,oword [ecx]
00003FAE  27                daa
00003FAF  0C01              or al,0x1
00003FB1  1300              adc eax,[eax]
00003FB3  0010              add [eax],dl
00003FB5  0500491300        add eax,0x134900
00003FBA  0011              add [ecx],dl
00003FBC  3400              xor al,0x0
00003FBE  030E              add ecx,[esi]
00003FC0  3A0B              cmp cl,[ebx]
00003FC2  3B0B              cmp ecx,[ebx]
00003FC4  49                dec ecx
00003FC5  133F              adc edi,[edi]
00003FC7  0C3C              or al,0x3c
00003FC9  0C00              or al,0x0
00003FCB  0000              add [eax],al
00003FCD  57                push edi
00003FCE  0000              add [eax],al
00003FD0  0002              add [edx],al
00003FD2  0032              add [edx],dh
00003FD4  0000              add [eax],al
00003FD6  0001              add [ecx],al
00003FD8  01FB              add ebx,edi
00003FDA  0E                push cs
00003FDB  0D00010101        or eax,0x1010100
00003FE0  0100              add [eax],eax
00003FE2  0000              add [eax],al
00003FE4  0100              add [eax],eax
00003FE6  0001              add [ecx],al
00003FE8  2E2E2F            cs das
00003FEB  7379              jnc 0x4066
00003FED  7364              jnc 0x4053
00003FEF  657073            gs jo 0x4065
00003FF2  2F                das
00003FF3  693338362F65      imul esi,[ebx],dword 0x652f3638
00003FF9  6C                insb
00003FFA  660000            o16 add [eax],al
00003FFD  7374              jnc 0x4073
00003FFF  61                popa
00004000  7274              jc 0x4076
00004002  2E53              cs push ebx
00004004  0001              add [ecx],al
00004006  0000              add [eax],al
00004008  0000              add [eax],al
0000400A  0502C08704        add eax,0x487c002
0000400F  0803              or [ebx],al
00004011  C00001            rol byte [eax],byte 0x1
00004014  3321              xor esp,[ecx]
00004016  343D              xor al,0x3d
00004018  2522031820        and eax,0x20180322
0000401D  59                pop ecx
0000401E  5A                pop edx
0000401F  2122              and [edx],esp
00004021  5C                pop esp
00004022  5B                pop ebx
00004023  0201              add al,[ecx]
00004025  0001              add [ecx],al
00004027  0123              add [ebx],esp
00004029  0000              add [eax],al
0000402B  0002              add [edx],al
0000402D  001D00000001      add [dword 0x1000000],bl
00004033  01FB              add ebx,edi
00004035  0E                push cs
00004036  0D00010101        or eax,0x1010100
0000403B  0100              add [eax],eax
0000403D  0000              add [eax],al
0000403F  0100              add [eax],eax
00004041  0001              add [ecx],al
00004043  00696E            add [ecx+0x6e],ch
00004046  69742E6300000000  imul esi,[esi+ebp+0x63],dword 0x0
0000404E  007B00            add [ebx+0x0],bh
00004051  0000              add [eax],al
00004053  0200              add al,[eax]
00004055  57                push edi
00004056  0000              add [eax],al
00004058  0001              add [ecx],al
0000405A  01FB              add ebx,edi
0000405C  0E                push cs
0000405D  0D00010101        or eax,0x1010100
00004062  0100              add [eax],eax
00004064  0000              add [eax],al
00004066  0100              add [eax],eax
00004068  0001              add [ecx],al
0000406A  2F                das
0000406B  7573              jnz 0x40e0
0000406D  722F              jc 0x409e
0000406F  6C                insb
00004070  69622F6763632F    imul esp,[edx+0x2f],dword 0x2f636367
00004077  693438362D6C69    imul esi,[eax+edi],dword 0x696c2d36
0000407E  6E                outsb
0000407F  7578              jnz 0x40f9
00004081  2D676E752F        sub eax,0x2f756e67
00004086  342E              xor al,0x2e
00004088  342E              xor al,0x2e
0000408A  332F              xor ebp,[edi]
0000408C  696E636C756465    imul ebp,[esi+0x63],dword 0x6564756c
00004093  0000              add [eax],al
00004095  656C              gs insb
00004097  662D696E          sub ax,0x6e69
0000409B  69742E6300000000  imul esi,[esi+ebp+0x63],dword 0x0
000040A3  7374              jnc 0x4119
000040A5  646465662E680001  cs push word 0x100
000040AD  0000              add [eax],al
000040AF  0000              add [eax],al
000040B1  050240A704        add eax,0x4a74002
000040B6  0803              or [ebx],al
000040B8  830101            add dword [ecx],byte +0x1
000040BB  44                inc esp
000040BC  035EC8            add ebx,[esi-0x38]
000040BF  030E              add ecx,[esi]
000040C1  083C5B            or [ebx+ebx*2],bh
000040C4  086708            or [edi+0x8],ah
000040C7  9D                popf
000040C8  7602              jna 0x40cc
000040CA  0800              or [eax],al
000040CC  0101              add [ecx],eax
000040CE  0000              add [eax],al
000040D0  1000              adc [eax],al
000040D2  0000              add [eax],al
000040D4  FF                db 0xff
000040D5  FF                db 0xff
000040D6  FF                db 0xff
000040D7  FF01              inc dword [ecx]
000040D9  0001              add [ecx],al
000040DB  7C08              jl 0x40e5
000040DD  0C04              or al,0x4
000040DF  0488              add al,0x88
000040E1  0100              add [eax],eax
000040E3  001400            add [eax+eax],dl
000040E6  0000              add [eax],al
000040E8  0000              add [eax],al
000040EA  0000              add [eax],al
000040EC  40                inc eax
000040ED  A7                cmpsd
000040EE  0408              add al,0x8
000040F0  0500000041        add eax,0x41000000
000040F5  0E                push cs
000040F6  084285            or [edx-0x7b],al
000040F9  020D051C0000      add cl,[dword 0x1c05]
000040FF  0000              add [eax],al
00004101  0000              add [eax],al
00004103  0050A7            add [eax-0x59],dl
00004106  0408              add al,0x8
00004108  5A                pop edx
00004109  0000              add [eax],al
0000410B  00410E            add [ecx+0xe],al
0000410E  084285            or [edx-0x7b],al
00004111  020D054E8305      add cl,[dword 0x5834e05]
00004117  860487            xchg al,[edi+eax*4]
0000411A  0300              add eax,[eax]
0000411C  7368              jnc 0x4186
0000411E  6F                outsd
0000411F  7274              jc 0x4195
00004121  20756E            and [ebp+0x6e],dh
00004124  7369              jnc 0x418f
00004126  676E              a16 outsb
00004128  656420696E        and [fs:ecx+0x6e],ch
0000412D  7400              jz 0x412f
0000412F  7368              jnc 0x4199
00004131  6F                outsd
00004132  7274              jc 0x41a8
00004134  20696E            and [ecx+0x6e],ch
00004137  7400              jz 0x4139
00004139  5F                pop edi
0000413A  49                dec ecx
0000413B  4F                dec edi
0000413C  5F                pop edi
0000413D  7374              jnc 0x41b3
0000413F  64696E5F75736564  imul ebp,[fs:esi+0x5f],dword 0x64657375
00004147  006C6F6E          add [edi+ebp*2+0x6e],ch
0000414B  67206C6F          and [si+0x6f],ch
0000414F  6E                outsb
00004150  6720756E          and [di+0x6e],dh
00004154  7369              jnc 0x41bf
00004156  676E              a16 outsb
00004158  656420696E        and [fs:ecx+0x6e],ch
0000415D  7400              jz 0x415f
0000415F  2F                das
00004160  686F6D652F        push dword 0x2f656d6f
00004165  7069              jo 0x41d0
00004167  657272            gs jc 0x41dc
0000416A  652F              gs das
0000416C  42                inc edx
0000416D  7572              jnz 0x41e1
0000416F  6561              gs popa
00004171  752F              jnz 0x41a2
00004173  6865616465        push dword 0x65646165
00004178  7273              jc 0x41ed
0000417A  2D676C6962        sub eax,0x62696c67
0000417F  632D666F722D      arpl [dword 0x2d726f66],bp
00004185  6C                insb
00004186  696E75782F676C    imul ebp,[esi+0x75],dword 0x6c672f78
0000418D  6962632D322E31    imul esp,[edx+0x63],dword 0x312e322d
00004194  322E              xor ch,[esi]
00004196  322F              xor ch,[edi]
00004198  637375            arpl [ebx+0x75],si
0000419B  00756E            add [ebp+0x6e],dh
0000419E  7369              jnc 0x4209
000041A0  676E              a16 outsb
000041A2  6564206368        and [fs:ebx+0x68],ah
000041A7  61                popa
000041A8  7200              jc 0x41aa
000041AA  47                inc edi
000041AB  4E                dec esi
000041AC  55                push ebp
000041AD  204320            and [ebx+0x20],al
000041B0  342E              xor al,0x2e
000041B2  342E              xor al,0x2e
000041B4  3300              xor eax,[eax]
000041B6  6C                insb
000041B7  6F                outsd
000041B8  6E                outsb
000041B9  67206C6F          and [si+0x6f],ch
000041BD  6E                outsb
000041BE  6720696E          and [bx+di+0x6e],ch
000041C2  7400              jz 0x41c4
000041C4  656E              gs outsb
000041C6  7670              jna 0x4238
000041C8  007369            add [ebx+0x69],dh
000041CB  7A65              jpe 0x4232
000041CD  5F                pop edi
000041CE  7400              jz 0x41d0
000041D0  61                popa
000041D1  7267              jc 0x423a
000041D3  6300              arpl [eax],ax
000041D5  5F                pop edi
000041D6  5F                pop edi
000041D7  6C                insb
000041D8  6962635F637375    imul esp,[edx+0x63],dword 0x7573635f
000041DF  5F                pop edi
000041E0  696E697400656C    imul ebp,[esi+0x69],dword 0x6c650074
000041E7  662D696E          sub ax,0x6e69
000041EB  69742E63005F5F69  imul esi,[esi+ebp+0x63],dword 0x695f5f00
000041F3  6E                outsb
000041F4  69745F6172726179  imul esi,[edi+ebx*2+0x61],dword 0x79617272
000041FC  5F                pop edi
000041FD  7374              jnc 0x4273
000041FF  61                popa
00004200  7274              jc 0x4276
00004202  007369            add [ebx+0x69],dh
00004205  7A65              jpe 0x426c
00004207  005F5F            add [edi+0x5f],bl
0000420A  696E69745F6172    imul ebp,[esi+0x69],dword 0x72615f74
00004211  7261              jc 0x4274
00004213  795F              jns 0x4274
00004215  656E              gs outsb
00004217  64005F5F          add [fs:edi+0x5f],bl
0000421B  6C                insb
0000421C  6962635F637375    imul esp,[edx+0x63],dword 0x7573635f
00004223  5F                pop edi
00004224  66696E690061      imul bp,[esi+0x69],word 0x6100
0000422A  7267              jc 0x4293
0000422C  7600              jna 0x422e
0000422E  0000              add [eax],al
00004230  0000              add [eax],al
00004232  0100              add [eax],eax
00004234  0000              add [eax],al
00004236  0200              add al,[eax]
00004238  7404              jz 0x423e
0000423A  0100              add [eax],eax
0000423C  0000              add [eax],al
0000423E  0300              add eax,[eax]
00004240  0000              add [eax],al
00004242  0200              add al,[eax]
00004244  7408              jz 0x424e
00004246  0300              add eax,[eax]
00004248  0000              add [eax],al
0000424A  0500000002        add eax,0x2000000
0000424F  007508            add [ebp+0x8],dh
00004252  0000              add [eax],al
00004254  0000              add [eax],al
00004256  0000              add [eax],al
00004258  0000              add [eax],al
0000425A  1000              adc [eax],al
0000425C  0000              add [eax],al
0000425E  1100              adc [eax],eax
00004260  0000              add [eax],al
00004262  0200              add al,[eax]
00004264  7404              jz 0x426a
00004266  1100              adc [eax],eax
00004268  0000              add [eax],al
0000426A  1300              adc eax,[eax]
0000426C  0000              add [eax],al
0000426E  0200              add al,[eax]
00004270  7408              jz 0x427a
00004272  1300              adc eax,[eax]
00004274  0000              add [eax],al
00004276  6A00              push byte +0x0
00004278  0000              add [eax],al
0000427A  0200              add al,[eax]
0000427C  7508              jnz 0x4286
0000427E  0000              add [eax],al
00004280  0000              add [eax],al
00004282  0000              add [eax],al
00004284  0000              add [eax],al
00004286  40                inc eax
00004287  0000              add [eax],al
00004289  006700            add [edi+0x0],ah
0000428C  0000              add [eax],al
0000428E  0100              add [eax],eax
00004290  56                push esi
00004291  0000              add [eax],al
00004293  0000              add [eax],al
00004295  0000              add [eax],al
00004297  0000              add [eax],al
00004299  002E              add [esi],ch
0000429B  7379              jnc 0x4316
0000429D  6D                insd
0000429E  7461              jz 0x4301
000042A0  6200              bound eax,[eax]
000042A2  2E7374            cs jnc 0x4319
000042A5  7274              jc 0x431b
000042A7  61                popa
000042A8  6200              bound eax,[eax]
000042AA  2E7368            cs jnc 0x4315
000042AD  7374              jnc 0x4323
000042AF  7274              jc 0x4325
000042B1  61                popa
000042B2  6200              bound eax,[eax]
000042B4  2E696E7465727000  imul ebp,[cs:esi+0x74],dword 0x707265
000042BC  2E6E              cs outsb
000042BE  6F                outsd
000042BF  7465              jz 0x4326
000042C1  2E41              cs inc ecx
000042C3  42                inc edx
000042C4  49                dec ecx
000042C5  2D74616700        sub eax,0x676174
000042CA  2E6861736800      cs push dword 0x687361
000042D0  2E64796E          fs jns 0x4342
000042D4  7379              jnc 0x434f
000042D6  6D                insd
000042D7  002E              add [esi],ch
000042D9  64796E            fs jns 0x434a
000042DC  7374              jnc 0x4352
000042DE  7200              jc 0x42e0
000042E0  2E676E            cs a16 outsb
000042E3  752E              jnz 0x4313
000042E5  7665              jna 0x434c
000042E7  7273              jc 0x435c
000042E9  696F6E002E676E    imul ebp,[edi+0x6e],dword 0x6e672e00
000042F0  752E              jnz 0x4320
000042F2  7665              jna 0x4359
000042F4  7273              jc 0x4369
000042F6  696F6E5F72002E    imul ebp,[edi+0x6e],dword 0x2e00725f
000042FD  7265              jc 0x4364
000042FF  6C                insb
00004300  2E64796E          fs jns 0x4372
00004304  002E              add [esi],ch
00004306  7265              jc 0x436d
00004308  6C                insb
00004309  2E706C            cs jo 0x4378
0000430C  7400              jz 0x430e
0000430E  2E696E6974002E74  imul ebp,[cs:esi+0x69],dword 0x742e0074
00004316  657874            gs js 0x438d
00004319  002E              add [esi],ch
0000431B  66696E69002E      imul bp,[esi+0x69],word 0x2e00
00004321  726F              jc 0x4392
00004323  6461              fs popa
00004325  7461              jz 0x4388
00004327  002E              add [esi],ch
00004329  65685F667261      gs push dword 0x6172665f
0000432F  6D                insd
00004330  655F              gs pop edi
00004332  686472002E        push dword 0x2e007264
00004337  65685F667261      gs push dword 0x6172665f
0000433D  6D                insd
0000433E  65002E            add [gs:esi],ch
00004341  6763635F          arpl [bp+di+0x5f],sp
00004345  657863            gs js 0x43ab
00004348  657074            gs jo 0x43bf
0000434B  5F                pop edi
0000434C  7461              jz 0x43af
0000434E  626C6500          bound ebp,[ebp+0x0]
00004352  2E63746F72        arpl [cs:edi+ebp*2+0x72],si
00004357  7300              jnc 0x4359
00004359  2E64746F          fs jz 0x43cc
0000435D  7273              jc 0x43d2
0000435F  002E              add [esi],ch
00004361  6A63              push byte +0x63
00004363  7200              jc 0x4365
00004365  2E64796E          fs jns 0x43d7
00004369  61                popa
0000436A  6D                insd
0000436B  6963002E676F74    imul esp,[ebx+0x0],dword 0x746f672e
00004372  002E              add [esi],ch
00004374  676F              a16 outsd
00004376  742E              jz 0x43a6
00004378  706C              jo 0x43e6
0000437A  7400              jz 0x437c
0000437C  2E6461            fs popa
0000437F  7461              jz 0x43e2
00004381  002E              add [esi],ch
00004383  627373            bound esi,[ebx+0x73]
00004386  002E              add [esi],ch
00004388  636F6D            arpl [edi+0x6d],bp
0000438B  6D                insd
0000438C  656E              gs outsb
0000438E  7400              jz 0x4390
00004390  2E6465627567      bound esi,[gs:ebp+0x67]
00004396  5F                pop edi
00004397  61                popa
00004398  7261              jc 0x43fb
0000439A  6E                outsb
0000439B  67657300          gs jnc 0x439f
0000439F  2E6465627567      bound esi,[gs:ebp+0x67]
000043A5  5F                pop edi
000043A6  7075              jo 0x441d
000043A8  626E61            bound ebp,[esi+0x61]
000043AB  6D                insd
000043AC  657300            gs jnc 0x43af
000043AF  2E6465627567      bound esi,[gs:ebp+0x67]
000043B5  5F                pop edi
000043B6  696E666F002E64    imul ebp,[esi+0x66],dword 0x642e006f
000043BD  65627567          bound esi,[gs:ebp+0x67]
000043C1  5F                pop edi
000043C2  61                popa
000043C3  626272            bound esp,[edx+0x72]
000043C6  657600            gs jna 0x43c9
000043C9  2E6465627567      bound esi,[gs:ebp+0x67]
000043CF  5F                pop edi
000043D0  6C                insb
000043D1  696E65002E6465    imul ebp,[esi+0x65],dword 0x65642e00
000043D8  627567            bound esi,[ebp+0x67]
000043DB  5F                pop edi
000043DC  667261            o16 jc 0x4440
000043DF  6D                insd
000043E0  65002E            add [gs:esi],ch
000043E3  6465627567        bound esi,[gs:ebp+0x67]
000043E8  5F                pop edi
000043E9  7374              jnc 0x445f
000043EB  7200              jc 0x43ed
000043ED  2E6465627567      bound esi,[gs:ebp+0x67]
000043F3  5F                pop edi
000043F4  6C                insb
000043F5  6F                outsd
000043F6  6300              arpl [eax],ax
000043F8  0000              add [eax],al
000043FA  0000              add [eax],al
000043FC  0000              add [eax],al
000043FE  0000              add [eax],al
00004400  0000              add [eax],al
00004402  0000              add [eax],al
00004404  0000              add [eax],al
00004406  0000              add [eax],al
00004408  0000              add [eax],al
0000440A  0000              add [eax],al
0000440C  0000              add [eax],al
0000440E  0000              add [eax],al
00004410  0000              add [eax],al
00004412  0000              add [eax],al
00004414  0000              add [eax],al
00004416  0000              add [eax],al
00004418  0000              add [eax],al
0000441A  0000              add [eax],al
0000441C  0000              add [eax],al
0000441E  0000              add [eax],al
00004420  1B00              sbb eax,[eax]
00004422  0000              add [eax],al
00004424  0100              add [eax],eax
00004426  0000              add [eax],al
00004428  0200              add al,[eax]
0000442A  0000              add [eax],al
0000442C  3481              xor al,0x81
0000442E  0408              add al,0x8
00004430  3401              xor al,0x1
00004432  0000              add [eax],al
00004434  1300              adc eax,[eax]
00004436  0000              add [eax],al
00004438  0000              add [eax],al
0000443A  0000              add [eax],al
0000443C  0000              add [eax],al
0000443E  0000              add [eax],al
00004440  0100              add [eax],eax
00004442  0000              add [eax],al
00004444  0000              add [eax],al
00004446  0000              add [eax],al
00004448  2300              and eax,[eax]
0000444A  0000              add [eax],al
0000444C  07                pop es
0000444D  0000              add [eax],al
0000444F  0002              add [edx],al
00004451  0000              add [eax],al
00004453  004881            add [eax-0x7f],cl
00004456  0408              add al,0x8
00004458  48                dec eax
00004459  0100              add [eax],eax
0000445B  0020              add [eax],ah
0000445D  0000              add [eax],al
0000445F  0000              add [eax],al
00004461  0000              add [eax],al
00004463  0000              add [eax],al
00004465  0000              add [eax],al
00004467  000400            add [eax+eax],al
0000446A  0000              add [eax],al
0000446C  0000              add [eax],al
0000446E  0000              add [eax],al
00004470  3100              xor [eax],eax
00004472  0000              add [eax],al
00004474  0500000002        add eax,0x2000000
00004479  0000              add [eax],al
0000447B  006881            add [eax-0x7f],ch
0000447E  0408              add al,0x8
00004480  68010000A4        push dword 0xa4000001
00004485  0000              add [eax],al
00004487  000400            add [eax+eax],al
0000448A  0000              add [eax],al
0000448C  0000              add [eax],al
0000448E  0000              add [eax],al
00004490  0400              add al,0x0
00004492  0000              add [eax],al
00004494  0400              add al,0x0
00004496  0000              add [eax],al
00004498  37                aaa
00004499  0000              add [eax],al
0000449B  000B              add [ebx],cl
0000449D  0000              add [eax],al
0000449F  0002              add [edx],al
000044A1  0000              add [eax],al
000044A3  000C82            add [edx+eax*4],cl
000044A6  0408              add al,0x8
000044A8  0C02              or al,0x2
000044AA  0000              add [eax],al
000044AC  60                pusha
000044AD  0100              add [eax],eax
000044AF  000500000001      add [dword 0x1000000],al
000044B5  0000              add [eax],al
000044B7  000400            add [eax+eax],al
000044BA  0000              add [eax],al
000044BC  1000              adc [eax],al
000044BE  0000              add [eax],al
000044C0  3F                aas
000044C1  0000              add [eax],al
000044C3  0003              add [ebx],al
000044C5  0000              add [eax],al
000044C7  0002              add [edx],al
000044C9  0000              add [eax],al
000044CB  006C8304          add [ebx+eax*4+0x4],ch
000044CF  086C0300          or [ebx+eax+0x0],ch
000044D3  00D1              add cl,dl
000044D5  0100              add [eax],eax
000044D7  0000              add [eax],al
000044D9  0000              add [eax],al
000044DB  0000              add [eax],al
000044DD  0000              add [eax],al
000044DF  0001              add [ecx],al
000044E1  0000              add [eax],al
000044E3  0000              add [eax],al
000044E5  0000              add [eax],al
000044E7  004700            add [edi+0x0],al
000044EA  0000              add [eax],al
000044EC  FF                db 0xff
000044ED  FF                db 0xff
000044EE  FF6F02            jmp far [edi+0x2]
000044F1  0000              add [eax],al
000044F3  003E              add [esi],bh
000044F5  850408            test [eax+ecx],eax
000044F8  3E0500002C00      ds add eax,0x2c0000
000044FE  0000              add [eax],al
00004500  0400              add al,0x0
00004502  0000              add [eax],al
00004504  0000              add [eax],al
00004506  0000              add [eax],al
00004508  0200              add al,[eax]
0000450A  0000              add [eax],al
0000450C  0200              add al,[eax]
0000450E  0000              add [eax],al
00004510  54                push esp
00004511  0000              add [eax],al
00004513  00FE              add dh,bh
00004515  FF                db 0xff
00004516  FF6F02            jmp far [edi+0x2]
00004519  0000              add [eax],al
0000451B  006C8504          add [ebp+eax*4+0x4],ch
0000451F  086C0500          or [ebp+eax+0x0],ch
00004523  008000000005      add [eax+0x5000000],al
00004529  0000              add [eax],al
0000452B  0003              add [ebx],al
0000452D  0000              add [eax],al
0000452F  000400            add [eax+eax],al
00004532  0000              add [eax],al
00004534  0000              add [eax],al
00004536  0000              add [eax],al
00004538  6300              arpl [eax],ax
0000453A  0000              add [eax],al
0000453C  0900              or [eax],eax
0000453E  0000              add [eax],al
00004540  0200              add al,[eax]
00004542  0000              add [eax],al
00004544  EC                in al,dx
00004545  850408            test [eax+ecx],eax
00004548  EC                in al,dx
00004549  0500001000        add eax,0x100000
0000454E  0000              add [eax],al
00004550  0400              add al,0x0
00004552  0000              add [eax],al
00004554  0000              add [eax],al
00004556  0000              add [eax],al
00004558  0400              add al,0x0
0000455A  0000              add [eax],al
0000455C  0800              or [eax],al
0000455E  0000              add [eax],al
00004560  6C                insb
00004561  0000              add [eax],al
00004563  0009              add [ecx],cl
00004565  0000              add [eax],al
00004567  0002              add [edx],al
00004569  0000              add [eax],al
0000456B  00FC              add ah,bh
0000456D  850408            test [eax+ecx],eax
00004570  FC                cld
00004571  0500008000        add eax,0x800000
00004576  0000              add [eax],al
00004578  0400              add al,0x0
0000457A  0000              add [eax],al
0000457C  0B00              or eax,[eax]
0000457E  0000              add [eax],al
00004580  0400              add al,0x0
00004582  0000              add [eax],al
00004584  0800              or [eax],al
00004586  0000              add [eax],al
00004588  7500              jnz 0x458a
0000458A  0000              add [eax],al
0000458C  0100              add [eax],eax
0000458E  0000              add [eax],al
00004590  06                push es
00004591  0000              add [eax],al
00004593  007C8604          add [esi+eax*4+0x4],bh
00004597  087C0600          or [esi+eax+0x0],bh
0000459B  0030              add [eax],dh
0000459D  0000              add [eax],al
0000459F  0000              add [eax],al
000045A1  0000              add [eax],al
000045A3  0000              add [eax],al
000045A5  0000              add [eax],al
000045A7  000400            add [eax+eax],al
000045AA  0000              add [eax],al
000045AC  0000              add [eax],al
000045AE  0000              add [eax],al
000045B0  7000              jo 0x45b2
000045B2  0000              add [eax],al
000045B4  0100              add [eax],eax
000045B6  0000              add [eax],al
000045B8  06                push es
000045B9  0000              add [eax],al
000045BB  00B0860408B0      add [eax-0x4ff7fb7a],dh
000045C1  06                push es
000045C2  0000              add [eax],al
000045C4  1001              adc [ecx],al
000045C6  0000              add [eax],al
000045C8  0000              add [eax],al
000045CA  0000              add [eax],al
000045CC  0000              add [eax],al
000045CE  0000              add [eax],al
000045D0  1000              adc [eax],al
000045D2  0000              add [eax],al
000045D4  0400              add al,0x0
000045D6  0000              add [eax],al
000045D8  7B00              jpo 0x45da
000045DA  0000              add [eax],al
000045DC  0100              add [eax],eax
000045DE  0000              add [eax],al
000045E0  06                push es
000045E1  0000              add [eax],al
000045E3  00C0              add al,al
000045E5  870408            xchg eax,[eax+ecx]
000045E8  C00700            rol byte [edi],byte 0x0
000045EB  0018              add [eax],bl
000045ED  2000              and [eax],al
000045EF  0000              add [eax],al
000045F1  0000              add [eax],al
000045F3  0000              add [eax],al
000045F5  0000              add [eax],al
000045F7  0010              add [eax],dl
000045F9  0000              add [eax],al
000045FB  0000              add [eax],al
000045FD  0000              add [eax],al
000045FF  008100000001      add [ecx+0x1000000],al
00004605  0000              add [eax],al
00004607  0006              add [esi],al
00004609  0000              add [eax],al
0000460B  00D8              add al,bl
0000460D  A7                cmpsd
0000460E  0408              add al,0x8
00004610  D827              fsub dword [edi]
00004612  0000              add [eax],al
00004614  1C00              sbb al,0x0
00004616  0000              add [eax],al
00004618  0000              add [eax],al
0000461A  0000              add [eax],al
0000461C  0000              add [eax],al
0000461E  0000              add [eax],al
00004620  0400              add al,0x0
00004622  0000              add [eax],al
00004624  0000              add [eax],al
00004626  0000              add [eax],al
00004628  8700              xchg eax,[eax]
0000462A  0000              add [eax],al
0000462C  0100              add [eax],eax
0000462E  0000              add [eax],al
00004630  0200              add al,[eax]
00004632  0000              add [eax],al
00004634  F8                clc
00004635  A7                cmpsd
00004636  0408              add al,0x8
00004638  F8                clc
00004639  27                daa
0000463A  0000              add [eax],al
0000463C  40                inc eax
0000463D  0000              add [eax],al
0000463F  0000              add [eax],al
00004641  0000              add [eax],al
00004643  0000              add [eax],al
00004645  0000              add [eax],al
00004647  0008              add [eax],cl
00004649  0000              add [eax],al
0000464B  0000              add [eax],al
0000464D  0000              add [eax],al
0000464F  008F00000001      add [edi+0x1000000],cl
00004655  0000              add [eax],al
00004657  0002              add [edx],al
00004659  0000              add [eax],al
0000465B  0038              add [eax],bh
0000465D  A804              test al,0x4
0000465F  0838              or [eax],bh
00004661  2800              sub [eax],al
00004663  002C03            add [ebx+eax],ch
00004666  0000              add [eax],al
00004668  0000              add [eax],al
0000466A  0000              add [eax],al
0000466C  0000              add [eax],al
0000466E  0000              add [eax],al
00004670  0400              add al,0x0
00004672  0000              add [eax],al
00004674  0000              add [eax],al
00004676  0000              add [eax],al
00004678  9D                popf
00004679  0000              add [eax],al
0000467B  0001              add [ecx],al
0000467D  0000              add [eax],al
0000467F  0002              add [edx],al
00004681  0000              add [eax],al
00004683  0064AB04          add [ebx+ebp*4+0x4],ah
00004687  08642B00          or [ebx+ebp+0x0],ah
0000468B  007C0D00          add [ebp+ecx+0x0],bh
0000468F  0000              add [eax],al
00004691  0000              add [eax],al
00004693  0000              add [eax],al
00004695  0000              add [eax],al
00004697  000400            add [eax+eax],al
0000469A  0000              add [eax],al
0000469C  0000              add [eax],al
0000469E  0000              add [eax],al
000046A0  A7                cmpsd
000046A1  0000              add [eax],al
000046A3  0001              add [ecx],al
000046A5  0000              add [eax],al
000046A7  0002              add [edx],al
000046A9  0000              add [eax],al
000046AB  00E0              add al,ah
000046AD  B80408E038        mov eax,0x38e00804
000046B2  0000              add [eax],al
000046B4  42                inc edx
000046B5  0100              add [eax],eax
000046B7  0000              add [eax],al
000046B9  0000              add [eax],al
000046BB  0000              add [eax],al
000046BD  0000              add [eax],al
000046BF  000400            add [eax+eax],al
000046C2  0000              add [eax],al
000046C4  0000              add [eax],al
000046C6  0000              add [eax],al
000046C8  B900000001        mov ecx,0x1000000
000046CD  0000              add [eax],al
000046CF  0003              add [ebx],al
000046D1  0000              add [eax],al
000046D3  0024CA            add [edx+ecx*8],ah
000046D6  0408              add al,0x8
000046D8  243A              and al,0x3a
000046DA  0000              add [eax],al
000046DC  0C00              or al,0x0
000046DE  0000              add [eax],al
000046E0  0000              add [eax],al
000046E2  0000              add [eax],al
000046E4  0000              add [eax],al
000046E6  0000              add [eax],al
000046E8  0400              add al,0x0
000046EA  0000              add [eax],al
000046EC  0000              add [eax],al
000046EE  0000              add [eax],al
000046F0  C00000            rol byte [eax],byte 0x0
000046F3  0001              add [ecx],al
000046F5  0000              add [eax],al
000046F7  0003              add [ebx],al
000046F9  0000              add [eax],al
000046FB  0030              add [eax],dh
000046FD  CA0408            retf 0x804
00004700  303A              xor [edx],bh
00004702  0000              add [eax],al
00004704  0800              or [eax],al
00004706  0000              add [eax],al
00004708  0000              add [eax],al
0000470A  0000              add [eax],al
0000470C  0000              add [eax],al
0000470E  0000              add [eax],al
00004710  0400              add al,0x0
00004712  0000              add [eax],al
00004714  0000              add [eax],al
00004716  0000              add [eax],al
00004718  C70000000100      mov dword [eax],0x10000
0000471E  0000              add [eax],al
00004720  0300              add eax,[eax]
00004722  0000              add [eax],al
00004724  38CA              cmp dl,cl
00004726  0408              add al,0x8
00004728  383A              cmp [edx],bh
0000472A  0000              add [eax],al
0000472C  0400              add al,0x0
0000472E  0000              add [eax],al
00004730  0000              add [eax],al
00004732  0000              add [eax],al
00004734  0000              add [eax],al
00004736  0000              add [eax],al
00004738  0400              add al,0x0
0000473A  0000              add [eax],al
0000473C  0000              add [eax],al
0000473E  0000              add [eax],al
00004740  CC                int3
00004741  0000              add [eax],al
00004743  0006              add [esi],al
00004745  0000              add [eax],al
00004747  0003              add [ebx],al
00004749  0000              add [eax],al
0000474B  003CCA            add [edx+ecx*8],bh
0000474E  0408              add al,0x8
00004750  3C3A              cmp al,0x3a
00004752  0000              add [eax],al
00004754  E000              loopne 0x4756
00004756  0000              add [eax],al
00004758  0500000000        add eax,0x0
0000475D  0000              add [eax],al
0000475F  000400            add [eax+eax],al
00004762  0000              add [eax],al
00004764  0800              or [eax],al
00004766  0000              add [eax],al
00004768  D500              aad 0x0
0000476A  0000              add [eax],al
0000476C  0100              add [eax],eax
0000476E  0000              add [eax],al
00004770  0300              add eax,[eax]
00004772  0000              add [eax],al
00004774  1CCB              sbb al,0xcb
00004776  0408              add al,0x8
00004778  1C3B              sbb al,0x3b
0000477A  0000              add [eax],al
0000477C  0400              add al,0x0
0000477E  0000              add [eax],al
00004780  0000              add [eax],al
00004782  0000              add [eax],al
00004784  0000              add [eax],al
00004786  0000              add [eax],al
00004788  0400              add al,0x0
0000478A  0000              add [eax],al
0000478C  0400              add al,0x0
0000478E  0000              add [eax],al
00004790  DA00              fiadd dword [eax]
00004792  0000              add [eax],al
00004794  0100              add [eax],eax
00004796  0000              add [eax],al
00004798  0300              add eax,[eax]
0000479A  0000              add [eax],al
0000479C  20CB              and bl,cl
0000479E  0408              add al,0x8
000047A0  203B              and [ebx],bh
000047A2  0000              add [eax],al
000047A4  4C                dec esp
000047A5  0000              add [eax],al
000047A7  0000              add [eax],al
000047A9  0000              add [eax],al
000047AB  0000              add [eax],al
000047AD  0000              add [eax],al
000047AF  000400            add [eax+eax],al
000047B2  0000              add [eax],al
000047B4  0400              add al,0x0
000047B6  0000              add [eax],al
000047B8  E300              jecxz 0x47ba
000047BA  0000              add [eax],al
000047BC  0100              add [eax],eax
000047BE  0000              add [eax],al
000047C0  0300              add eax,[eax]
000047C2  0000              add [eax],al
000047C4  70CB              jo 0x4791
000047C6  0408              add al,0x8
000047C8  703B              jo 0x4805
000047CA  0000              add [eax],al
000047CC  3000              xor [eax],al
000047CE  0000              add [eax],al
000047D0  0000              add [eax],al
000047D2  0000              add [eax],al
000047D4  0000              add [eax],al
000047D6  0000              add [eax],al
000047D8  0800              or [eax],al
000047DA  0000              add [eax],al
000047DC  0000              add [eax],al
000047DE  0000              add [eax],al
000047E0  E900000008        jmp 0x80047e5
000047E5  0000              add [eax],al
000047E7  0003              add [ebx],al
000047E9  0000              add [eax],al
000047EB  00A0CB0408A0      add [eax-0x5ff7fb35],ah
000047F1  3B00              cmp eax,[eax]
000047F3  008C7E02000000    add [esi+edi*2+0x2],cl
000047FA  0000              add [eax],al
000047FC  0000              add [eax],al
000047FE  0000              add [eax],al
00004800  2000              and [eax],al
00004802  0000              add [eax],al
00004804  0000              add [eax],al
00004806  0000              add [eax],al
00004808  EE                out dx,al
00004809  0000              add [eax],al
0000480B  0001              add [ecx],al
0000480D  0000              add [eax],al
0000480F  0030              add [eax],dh
00004811  0000              add [eax],al
00004813  0000              add [eax],al
00004815  0000              add [eax],al
00004817  00A03B000034      add [eax+0x3400003b],ah
0000481D  0000              add [eax],al
0000481F  0000              add [eax],al
00004821  0000              add [eax],al
00004823  0000              add [eax],al
00004825  0000              add [eax],al
00004827  0001              add [ecx],al
00004829  0000              add [eax],al
0000482B  0001              add [ecx],al
0000482D  0000              add [eax],al
0000482F  00F7              add bh,dh
00004831  0000              add [eax],al
00004833  0001              add [ecx],al
00004835  0000              add [eax],al
00004837  0000              add [eax],al
00004839  0000              add [eax],al
0000483B  0000              add [eax],al
0000483D  0000              add [eax],al
0000483F  00D8              add al,bl
00004841  3B00              cmp eax,[eax]
00004843  004000            add [eax+0x0],al
00004846  0000              add [eax],al
00004848  0000              add [eax],al
0000484A  0000              add [eax],al
0000484C  0000              add [eax],al
0000484E  0000              add [eax],al
00004850  0800              or [eax],al
00004852  0000              add [eax],al
00004854  0000              add [eax],al
00004856  0000              add [eax],al
00004858  06                push es
00004859  0100              add [eax],eax
0000485B  0001              add [ecx],al
0000485D  0000              add [eax],al
0000485F  0000              add [eax],al
00004861  0000              add [eax],al
00004863  0000              add [eax],al
00004865  0000              add [eax],al
00004867  0018              add [eax],bl
00004869  3C00              cmp al,0x0
0000486B  005F00            add [edi+0x0],bl
0000486E  0000              add [eax],al
00004870  0000              add [eax],al
00004872  0000              add [eax],al
00004874  0000              add [eax],al
00004876  0000              add [eax],al
00004878  0100              add [eax],eax
0000487A  0000              add [eax],al
0000487C  0000              add [eax],al
0000487E  0000              add [eax],al
00004880  16                push ss
00004881  0100              add [eax],eax
00004883  0001              add [ecx],al
00004885  0000              add [eax],al
00004887  0000              add [eax],al
00004889  0000              add [eax],al
0000488B  0000              add [eax],al
0000488D  0000              add [eax],al
0000488F  00773C            add [edi+0x3c],dh
00004892  0000              add [eax],al
00004894  2102              and [edx],eax
00004896  0000              add [eax],al
00004898  0000              add [eax],al
0000489A  0000              add [eax],al
0000489C  0000              add [eax],al
0000489E  0000              add [eax],al
000048A0  0100              add [eax],eax
000048A2  0000              add [eax],al
000048A4  0000              add [eax],al
000048A6  0000              add [eax],al
000048A8  2201              and al,[ecx]
000048AA  0000              add [eax],al
000048AC  0100              add [eax],eax
000048AE  0000              add [eax],al
000048B0  0000              add [eax],al
000048B2  0000              add [eax],al
000048B4  0000              add [eax],al
000048B6  0000              add [eax],al
000048B8  98                cwde
000048B9  3E0000            add [ds:eax],al
000048BC  3501000000        xor eax,0x1
000048C1  0000              add [eax],al
000048C3  0000              add [eax],al
000048C5  0000              add [eax],al
000048C7  0001              add [ecx],al
000048C9  0000              add [eax],al
000048CB  0000              add [eax],al
000048CD  0000              add [eax],al
000048CF  0030              add [eax],dh
000048D1  0100              add [eax],eax
000048D3  0001              add [ecx],al
000048D5  0000              add [eax],al
000048D7  0000              add [eax],al
000048D9  0000              add [eax],al
000048DB  0000              add [eax],al
000048DD  0000              add [eax],al
000048DF  00CD              add ch,cl
000048E1  3F                aas
000048E2  0000              add [eax],al
000048E4  0101              add [ecx],eax
000048E6  0000              add [eax],al
000048E8  0000              add [eax],al
000048EA  0000              add [eax],al
000048EC  0000              add [eax],al
000048EE  0000              add [eax],al
000048F0  0100              add [eax],eax
000048F2  0000              add [eax],al
000048F4  0000              add [eax],al
000048F6  0000              add [eax],al
000048F8  3C01              cmp al,0x1
000048FA  0000              add [eax],al
000048FC  0100              add [eax],eax
000048FE  0000              add [eax],al
00004900  0000              add [eax],al
00004902  0000              add [eax],al
00004904  0000              add [eax],al
00004906  0000              add [eax],al
00004908  D04000            rol byte [eax+0x0],1
0000490B  004C0000          add [eax+eax+0x0],cl
0000490F  0000              add [eax],al
00004911  0000              add [eax],al
00004913  0000              add [eax],al
00004915  0000              add [eax],al
00004917  000400            add [eax+eax],al
0000491A  0000              add [eax],al
0000491C  0000              add [eax],al
0000491E  0000              add [eax],al
00004920  49                dec ecx
00004921  0100              add [eax],eax
00004923  0001              add [ecx],al
00004925  0000              add [eax],al
00004927  0030              add [eax],dh
00004929  0000              add [eax],al
0000492B  0000              add [eax],al
0000492D  0000              add [eax],al
0000492F  001C41            add [ecx+eax*2],bl
00004932  0000              add [eax],al
00004934  1201              adc al,[ecx]
00004936  0000              add [eax],al
00004938  0000              add [eax],al
0000493A  0000              add [eax],al
0000493C  0000              add [eax],al
0000493E  0000              add [eax],al
00004940  0100              add [eax],eax
00004942  0000              add [eax],al
00004944  0100              add [eax],eax
00004946  0000              add [eax],al
00004948  54                push esp
00004949  0100              add [eax],eax
0000494B  0001              add [ecx],al
0000494D  0000              add [eax],al
0000494F  0000              add [eax],al
00004951  0000              add [eax],al
00004953  0000              add [eax],al
00004955  0000              add [eax],al
00004957  002E              add [esi],ch
00004959  42                inc edx
0000495A  0000              add [eax],al
0000495C  6B0000            imul eax,[eax],byte +0x0
0000495F  0000              add [eax],al
00004961  0000              add [eax],al
00004963  0000              add [eax],al
00004965  0000              add [eax],al
00004967  0001              add [ecx],al
00004969  0000              add [eax],al
0000496B  0000              add [eax],al
0000496D  0000              add [eax],al
0000496F  0011              add [ecx],dl
00004971  0000              add [eax],al
00004973  0003              add [ebx],al
00004975  0000              add [eax],al
00004977  0000              add [eax],al
00004979  0000              add [eax],al
0000497B  0000              add [eax],al
0000497D  0000              add [eax],al
0000497F  00994200005F      add [ecx+0x5f000042],bl
00004985  0100              add [eax],eax
00004987  0000              add [eax],al
00004989  0000              add [eax],al
0000498B  0000              add [eax],al
0000498D  0000              add [eax],al
0000498F  0001              add [ecx],al
00004991  0000              add [eax],al
00004993  0000              add [eax],al
00004995  0000              add [eax],al
00004997  0001              add [ecx],al
00004999  0000              add [eax],al
0000499B  0002              add [edx],al
0000499D  0000              add [eax],al
0000499F  0000              add [eax],al
000049A1  0000              add [eax],al
000049A3  0000              add [eax],al
000049A5  0000              add [eax],al
000049A7  00E8              add al,ch
000049A9  49                dec ecx
000049AA  0000              add [eax],al
000049AC  300E              xor [esi],cl
000049AE  0000              add [eax],al
000049B0  2500000040        and eax,0x40000000
000049B5  0000              add [eax],al
000049B7  000400            add [eax+eax],al
000049BA  0000              add [eax],al
000049BC  1000              adc [eax],al
000049BE  0000              add [eax],al
000049C0  0900              or [eax],eax
000049C2  0000              add [eax],al
000049C4  0300              add eax,[eax]
000049C6  0000              add [eax],al
000049C8  0000              add [eax],al
000049CA  0000              add [eax],al
000049CC  0000              add [eax],al
000049CE  0000              add [eax],al
000049D0  185800            sbb [eax+0x0],bl
000049D3  00ED              add ch,ch
000049D5  2100              and [eax],eax
000049D7  0000              add [eax],al
000049D9  0000              add [eax],al
000049DB  0000              add [eax],al
000049DD  0000              add [eax],al
000049DF  0001              add [ecx],al
000049E1  0000              add [eax],al
000049E3  0000              add [eax],al
000049E5  0000              add [eax],al
000049E7  0000              add [eax],al
000049E9  0000              add [eax],al
000049EB  0000              add [eax],al
000049ED  0000              add [eax],al
000049EF  0000              add [eax],al
000049F1  0000              add [eax],al
000049F3  0000              add [eax],al
000049F5  0000              add [eax],al
000049F7  0000              add [eax],al
000049F9  0000              add [eax],al
000049FB  003481            add [ecx+eax*4],dh
000049FE  0408              add al,0x8
00004A00  0000              add [eax],al
00004A02  0000              add [eax],al
00004A04  0300              add eax,[eax]
00004A06  0100              add [eax],eax
00004A08  0000              add [eax],al
00004A0A  0000              add [eax],al
00004A0C  48                dec eax
00004A0D  81040800000000    add dword [eax+ecx],0x0
00004A14  0300              add eax,[eax]
00004A16  0200              add al,[eax]
00004A18  0000              add [eax],al
00004A1A  0000              add [eax],al
00004A1C  6881040800        push dword 0x80481
00004A21  0000              add [eax],al
00004A23  0003              add [ebx],al
00004A25  0003              add [ebx],al
00004A27  0000              add [eax],al
00004A29  0000              add [eax],al
00004A2B  000C82            add [edx+eax*4],cl
00004A2E  0408              add al,0x8
00004A30  0000              add [eax],al
00004A32  0000              add [eax],al
00004A34  0300              add eax,[eax]
00004A36  0400              add al,0x0
00004A38  0000              add [eax],al
00004A3A  0000              add [eax],al
00004A3C  6C                insb
00004A3D  83040800          add dword [eax+ecx],byte +0x0
00004A41  0000              add [eax],al
00004A43  0003              add [ebx],al
00004A45  000500000000      add [dword 0x0],al
00004A4B  003E              add [esi],bh
00004A4D  850408            test [eax+ecx],eax
00004A50  0000              add [eax],al
00004A52  0000              add [eax],al
00004A54  0300              add eax,[eax]
00004A56  06                push es
00004A57  0000              add [eax],al
00004A59  0000              add [eax],al
00004A5B  006C8504          add [ebp+eax*4+0x4],ch
00004A5F  0800              or [eax],al
00004A61  0000              add [eax],al
00004A63  0003              add [ebx],al
00004A65  0007              add [edi],al
00004A67  0000              add [eax],al
00004A69  0000              add [eax],al
00004A6B  00EC              add ah,ch
00004A6D  850408            test [eax+ecx],eax
00004A70  0000              add [eax],al
00004A72  0000              add [eax],al
00004A74  0300              add eax,[eax]
00004A76  0800              or [eax],al
00004A78  0000              add [eax],al
00004A7A  0000              add [eax],al
00004A7C  FC                cld
00004A7D  850408            test [eax+ecx],eax
00004A80  0000              add [eax],al
00004A82  0000              add [eax],al
00004A84  0300              add eax,[eax]
00004A86  0900              or [eax],eax
00004A88  0000              add [eax],al
00004A8A  0000              add [eax],al
00004A8C  7C86              jl 0x4a14
00004A8E  0408              add al,0x8
00004A90  0000              add [eax],al
00004A92  0000              add [eax],al
00004A94  0300              add eax,[eax]
00004A96  0A00              or al,[eax]
00004A98  0000              add [eax],al
00004A9A  0000              add [eax],al
00004A9C  B086              mov al,0x86
00004A9E  0408              add al,0x8
00004AA0  0000              add [eax],al
00004AA2  0000              add [eax],al
00004AA4  0300              add eax,[eax]
00004AA6  0B00              or eax,[eax]
00004AA8  0000              add [eax],al
00004AAA  0000              add [eax],al
00004AAC  C0870408000000    rol byte [edi+0x804],byte 0x0
00004AB3  0003              add [ebx],al
00004AB5  000C00            add [eax+eax],cl
00004AB8  0000              add [eax],al
00004ABA  0000              add [eax],al
00004ABC  D8A704080000      fsub dword [edi+0x804]
00004AC2  0000              add [eax],al
00004AC4  0300              add eax,[eax]
00004AC6  0D00000000        or eax,0x0
00004ACB  00F8              add al,bh
00004ACD  A7                cmpsd
00004ACE  0408              add al,0x8
00004AD0  0000              add [eax],al
00004AD2  0000              add [eax],al
00004AD4  0300              add eax,[eax]
00004AD6  0E                push cs
00004AD7  0000              add [eax],al
00004AD9  0000              add [eax],al
00004ADB  0038              add [eax],bh
00004ADD  A804              test al,0x4
00004ADF  0800              or [eax],al
00004AE1  0000              add [eax],al
00004AE3  0003              add [ebx],al
00004AE5  000F              add [edi],cl
00004AE7  0000              add [eax],al
00004AE9  0000              add [eax],al
00004AEB  0064AB04          add [ebx+ebp*4+0x4],ah
00004AEF  0800              or [eax],al
00004AF1  0000              add [eax],al
00004AF3  0003              add [ebx],al
00004AF5  0010              add [eax],dl
00004AF7  0000              add [eax],al
00004AF9  0000              add [eax],al
00004AFB  00E0              add al,ah
00004AFD  B804080000        mov eax,0x804
00004B02  0000              add [eax],al
00004B04  0300              add eax,[eax]
00004B06  1100              adc [eax],eax
00004B08  0000              add [eax],al
00004B0A  0000              add [eax],al
00004B0C  24CA              and al,0xca
00004B0E  0408              add al,0x8
00004B10  0000              add [eax],al
00004B12  0000              add [eax],al
00004B14  0300              add eax,[eax]
00004B16  1200              adc al,[eax]
00004B18  0000              add [eax],al
00004B1A  0000              add [eax],al
00004B1C  30CA              xor dl,cl
00004B1E  0408              add al,0x8
00004B20  0000              add [eax],al
00004B22  0000              add [eax],al
00004B24  0300              add eax,[eax]
00004B26  1300              adc eax,[eax]
00004B28  0000              add [eax],al
00004B2A  0000              add [eax],al
00004B2C  38CA              cmp dl,cl
00004B2E  0408              add al,0x8
00004B30  0000              add [eax],al
00004B32  0000              add [eax],al
00004B34  0300              add eax,[eax]
00004B36  1400              adc al,0x0
00004B38  0000              add [eax],al
00004B3A  0000              add [eax],al
00004B3C  3CCA              cmp al,0xca
00004B3E  0408              add al,0x8
00004B40  0000              add [eax],al
00004B42  0000              add [eax],al
00004B44  0300              add eax,[eax]
00004B46  1500000000        adc eax,0x0
00004B4B  001CCB            add [ebx+ecx*8],bl
00004B4E  0408              add al,0x8
00004B50  0000              add [eax],al
00004B52  0000              add [eax],al
00004B54  0300              add eax,[eax]
00004B56  16                push ss
00004B57  0000              add [eax],al
00004B59  0000              add [eax],al
00004B5B  0020              add [eax],ah
00004B5D  CB                retf
00004B5E  0408              add al,0x8
00004B60  0000              add [eax],al
00004B62  0000              add [eax],al
00004B64  0300              add eax,[eax]
00004B66  17                pop ss
00004B67  0000              add [eax],al
00004B69  0000              add [eax],al
00004B6B  0070CB            add [eax-0x35],dh
00004B6E  0408              add al,0x8
00004B70  0000              add [eax],al
00004B72  0000              add [eax],al
00004B74  0300              add eax,[eax]
00004B76  1800              sbb [eax],al
00004B78  0000              add [eax],al
00004B7A  0000              add [eax],al
00004B7C  A0CB040800        mov al,[0x804cb]
00004B81  0000              add [eax],al
00004B83  0003              add [ebx],al
00004B85  0019              add [ecx],bl
00004B87  0000              add [eax],al
00004B89  0000              add [eax],al
00004B8B  0000              add [eax],al
00004B8D  0000              add [eax],al
00004B8F  0000              add [eax],al
00004B91  0000              add [eax],al
00004B93  0003              add [ebx],al
00004B95  001A              add [edx],bl
00004B97  0000              add [eax],al
00004B99  0000              add [eax],al
00004B9B  0000              add [eax],al
00004B9D  0000              add [eax],al
00004B9F  0000              add [eax],al
00004BA1  0000              add [eax],al
00004BA3  0003              add [ebx],al
00004BA5  001B              add [ebx],bl
00004BA7  0000              add [eax],al
00004BA9  0000              add [eax],al
00004BAB  0000              add [eax],al
00004BAD  0000              add [eax],al
00004BAF  0000              add [eax],al
00004BB1  0000              add [eax],al
00004BB3  0003              add [ebx],al
00004BB5  001C00            add [eax+eax],bl
00004BB8  0000              add [eax],al
00004BBA  0000              add [eax],al
00004BBC  0000              add [eax],al
00004BBE  0000              add [eax],al
00004BC0  0000              add [eax],al
00004BC2  0000              add [eax],al
00004BC4  0300              add eax,[eax]
00004BC6  1D00000000        sbb eax,0x0
00004BCB  0000              add [eax],al
00004BCD  0000              add [eax],al
00004BCF  0000              add [eax],al
00004BD1  0000              add [eax],al
00004BD3  0003              add [ebx],al
00004BD5  001E              add [esi],bl
00004BD7  0000              add [eax],al
00004BD9  0000              add [eax],al
00004BDB  0000              add [eax],al
00004BDD  0000              add [eax],al
00004BDF  0000              add [eax],al
00004BE1  0000              add [eax],al
00004BE3  0003              add [ebx],al
00004BE5  001F              add [edi],bl
00004BE7  0000              add [eax],al
00004BE9  0000              add [eax],al
00004BEB  0000              add [eax],al
00004BED  0000              add [eax],al
00004BEF  0000              add [eax],al
00004BF1  0000              add [eax],al
00004BF3  0003              add [ebx],al
00004BF5  0020              add [eax],ah
00004BF7  0000              add [eax],al
00004BF9  0000              add [eax],al
00004BFB  0000              add [eax],al
00004BFD  0000              add [eax],al
00004BFF  0000              add [eax],al
00004C01  0000              add [eax],al
00004C03  0003              add [ebx],al
00004C05  0021              add [ecx],ah
00004C07  0000              add [eax],al
00004C09  0000              add [eax],al
00004C0B  0000              add [eax],al
00004C0D  0000              add [eax],al
00004C0F  0000              add [eax],al
00004C11  0000              add [eax],al
00004C13  0003              add [ebx],al
00004C15  0022              add [edx],ah
00004C17  0001              add [ecx],al
00004C19  0000              add [eax],al
00004C1B  0000              add [eax],al
00004C1D  0000              add [eax],al
00004C1F  0000              add [eax],al
00004C21  0000              add [eax],al
00004C23  000400            add [eax+eax],al
00004C26  F1                int1
00004C27  FF08              dec dword [eax]
00004C29  0000              add [eax],al
00004C2B  0000              add [eax],al
00004C2D  0000              add [eax],al
00004C2F  0000              add [eax],al
00004C31  0000              add [eax],al
00004C33  000400            add [eax+eax],al
00004C36  F1                int1
00004C37  FF13              call [ebx]
00004C39  0000              add [eax],al
00004C3B  0000              add [eax],al
00004C3D  0000              add [eax],al
00004C3F  0000              add [eax],al
00004C41  0000              add [eax],al
00004C43  000400            add [eax+eax],al
00004C46  F1                int1
00004C47  FF1E              call far [esi]
00004C49  0000              add [eax],al
00004C4B  0024CA            add [edx+ecx*8],ah
00004C4E  0408              add al,0x8
00004C50  0000              add [eax],al
00004C52  0000              add [eax],al
00004C54  0100              add [eax],eax
00004C56  1200              adc al,[eax]
00004C58  2C00              sub al,0x0
00004C5A  0000              add [eax],al
00004C5C  30CA              xor dl,cl
00004C5E  0408              add al,0x8
00004C60  0000              add [eax],al
00004C62  0000              add [eax],al
00004C64  0100              add [eax],eax
00004C66  1300              adc eax,[eax]
00004C68  3A00              cmp al,[eax]
00004C6A  0000              add [eax],al
00004C6C  38CA              cmp dl,cl
00004C6E  0408              add al,0x8
00004C70  0000              add [eax],al
00004C72  0000              add [eax],al
00004C74  0100              add [eax],eax
00004C76  1400              adc al,0x0
00004C78  47                inc edi
00004C79  0000              add [eax],al
00004C7B  00F0              add al,dh
00004C7D  870408            xchg eax,[eax+ecx]
00004C80  0000              add [eax],al
00004C82  0000              add [eax],al
00004C84  0200              add al,[eax]
00004C86  0C00              or al,0x0
00004C88  5C                pop esp
00004C89  0000              add [eax],al
00004C8B  0020              add [eax],ah
00004C8D  880408            mov [eax+ecx],al
00004C90  0000              add [eax],al
00004C92  0000              add [eax],al
00004C94  0200              add al,[eax]
00004C96  0C00              or al,0x0
00004C98  6F                outsd
00004C99  0000              add [eax],al
00004C9B  006088            add [eax-0x78],ah
00004C9E  0408              add al,0x8
00004CA0  0000              add [eax],al
00004CA2  0000              add [eax],al
00004CA4  0200              add al,[eax]
00004CA6  0C00              or al,0x0
00004CA8  8500              test [eax],eax
00004CAA  0000              add [eax],al
00004CAC  30CC              xor ah,cl
00004CAE  0408              add al,0x8
00004CB0  0100              add [eax],eax
00004CB2  0000              add [eax],al
00004CB4  0100              add [eax],eax
00004CB6  1900              sbb [eax],eax
00004CB8  94                xchg eax,esp
00004CB9  0000              add [eax],al
00004CBB  0034CC            add [esp+ecx*8],dh
00004CBE  0408              add al,0x8
00004CC0  0400              add al,0x0
00004CC2  0000              add [eax],al
00004CC4  0100              add [eax],eax
00004CC6  1900              sbb [eax],eax
00004CC8  A2000000B0        mov [0xb0000000],al
00004CCD  880408            mov [eax+ecx],al
00004CD0  0000              add [eax],al
00004CD2  0000              add [eax],al
00004CD4  0200              add al,[eax]
00004CD6  0C00              or al,0x0
00004CD8  1300              adc eax,[eax]
00004CDA  0000              add [eax],al
00004CDC  0000              add [eax],al
00004CDE  0000              add [eax],al
00004CE0  0000              add [eax],al
00004CE2  0000              add [eax],al
00004CE4  0400              add al,0x0
00004CE6  F1                int1
00004CE7  FFAE0000002C      jmp far [esi+0x2c000000]
00004CED  CA0408            retf 0x804
00004CF0  0000              add [eax],al
00004CF2  0000              add [eax],al
00004CF4  0100              add [eax],eax
00004CF6  1200              adc al,[eax]
00004CF8  BB000000DC        mov ebx,0xdc000000
00004CFD  B804080000        mov eax,0x804
00004D02  0000              add [eax],al
00004D04  0100              add [eax],eax
00004D06  1000              adc [eax],al
00004D08  C9                leave
00004D09  0000              add [eax],al
00004D0B  0038              add [eax],bh
00004D0D  CA0408            retf 0x804
00004D10  0000              add [eax],al
00004D12  0000              add [eax],al
00004D14  0100              add [eax],eax
00004D16  1400              adc al,0x0
00004D18  D500              aad 0x0
00004D1A  0000              add [eax],al
00004D1C  B0A7              mov al,0xa7
00004D1E  0408              add al,0x8
00004D20  0000              add [eax],al
00004D22  0000              add [eax],al
00004D24  0200              add al,[eax]
00004D26  0C00              or al,0x0
00004D28  0800              or [eax],al
00004D2A  0000              add [eax],al
00004D2C  0000              add [eax],al
00004D2E  0000              add [eax],al
00004D30  0000              add [eax],al
00004D32  0000              add [eax],al
00004D34  0400              add al,0x0
00004D36  F1                int1
00004D37  FF                db 0xff
00004D38  EB00              jmp short 0x4d3a
00004D3A  0000              add [eax],al
00004D3C  0000              add [eax],al
00004D3E  0000              add [eax],al
00004D40  0000              add [eax],al
00004D42  0000              add [eax],al
00004D44  0400              add al,0x0
00004D46  F1                int1
00004D47  FF03              inc dword [ebx]
00004D49  0100              add [eax],eax
00004D4B  0028              add [eax],ch
00004D4D  4A                dec edx
00004D4E  07                pop es
00004D4F  0801              or [ecx],al
00004D51  0000              add [eax],al
00004D53  0001              add [ecx],al
00004D55  0019              add [ecx],bl
00004D57  0012              add [edx],dl
00004D59  0100              add [eax],eax
00004D5B  004990            add [ecx-0x70],cl
00004D5E  0408              add al,0x8
00004D60  3F                aas
00004D61  0000              add [eax],al
00004D63  0002              add [edx],al
00004D65  000C00            add [eax+eax],cl
00004D68  42                inc edx
00004D69  0100              add [eax],eax
00004D6B  0028              add [eax],ch
00004D6D  A804              test al,0x4
00004D6F  0808              or [eax],cl
00004D71  0000              add [eax],al
00004D73  0001              add [ecx],al
00004D75  000E              add [esi],cl
00004D77  004A01            add [edx+0x1],cl
00004D7A  0000              add [eax],al
00004D7C  889004081C00      mov [eax+0x1c0804],dl
00004D82  0000              add [eax],al
00004D84  0200              add al,[eax]
00004D86  0C00              or al,0x0
00004D88  5B                pop ebx
00004D89  0100              add [eax],eax
00004D8B  0000              add [eax],al
00004D8D  0000              add [eax],al
00004D8F  0000              add [eax],al
00004D91  0000              add [eax],al
00004D93  000400            add [eax+eax],al
00004D96  F1                int1
00004D97  FF00              inc dword [eax]
00004D99  0000              add [eax],al
00004D9B  0000              add [eax],al
00004D9D  0000              add [eax],al
00004D9F  0000              add [eax],al
00004DA1  0000              add [eax],al
00004DA3  000400            add [eax+eax],al
00004DA6  F1                int1
00004DA7  FF6601            jmp [esi+0x1]
00004DAA  0000              add [eax],al
00004DAC  20CB              and bl,cl
00004DAE  0408              add al,0x8
00004DB0  0000              add [eax],al
00004DB2  0000              add [eax],al
00004DB4  0100              add [eax],eax
00004DB6  17                pop ss
00004DB7  007C0100          add [ecx+eax+0x0],bh
00004DBB  0022              add [edx],ah
00004DBD  CA0408            retf 0x804
00004DC0  0000              add [eax],al
00004DC2  0000              add [eax],al
00004DC4  0000              add [eax],al
00004DC6  1200              adc al,[eax]
00004DC8  8D01              lea eax,[ecx]
00004DCA  0000              add [eax],al
00004DCC  22CA              and cl,dl
00004DCE  0408              add al,0x8
00004DD0  0000              add [eax],al
00004DD2  0000              add [eax],al
00004DD4  0000              add [eax],al
00004DD6  1200              adc al,[eax]
00004DD8  A00100003C        mov al,[0x3c000001]
00004DDD  CA0408            retf 0x804
00004DE0  0000              add [eax],al
00004DE2  0000              add [eax],al
00004DE4  0100              add [eax],eax
00004DE6  1500A90100        adc eax,0x1a900
00004DEB  00F6              add dh,dh
00004DED  A104080F00        mov eax,[0xf0804]
00004DF2  0000              add [eax],al
00004DF4  2200              and al,[eax]
00004DF6  0C00              or al,0x0
00004DF8  FC                cld
00004DF9  0100              add [eax],eax
00004DFB  0070CB            add [eax-0x35],dh
00004DFE  0408              add al,0x8
00004E00  0000              add [eax],al
00004E02  0000              add [eax],al
00004E04  2000              and [eax],al
00004E06  1800              sbb [eax],al
00004E08  07                pop es
00004E09  0200              add al,[eax]
00004E0B  00A0CB040890      add [eax-0x6ff7fb35],ah
00004E11  0000              add [eax],al
00004E13  0011              add [ecx],dl
00004E15  0019              add [ecx],bl
00004E17  001D0200007C      add [dword 0x7c000002],bl
00004E1D  94                xchg eax,esp
00004E1E  0408              add al,0x8
00004E20  2200              and al,[eax]
00004E22  0000              add [eax],al
00004E24  2200              and al,[eax]
00004E26  0C00              or al,0x0
00004E28  4A                dec edx
00004E29  0200              add al,[eax]
00004E2B  0039              add [ecx],bh
00004E2D  96                xchg eax,esi
00004E2E  0408              add al,0x8
00004E30  A7                cmpsd
00004E31  0000              add [eax],al
00004E33  0022              add [edx],ah
00004E35  000C00            add [eax+eax],cl
00004E38  B802000042        mov eax,0x42000002
00004E3D  99                cdq
00004E3E  0408              add al,0x8
00004E40  0F0000            sldt [eax]
00004E43  0022              add [edx],ah
00004E45  000C00            add [eax+eax],cl
00004E48  0A03              or al,[ebx]
00004E4A  0000              add [eax],al
00004E4C  6AA0              push byte -0x60
00004E4E  0408              add al,0x8
00004E50  1500000022        adc eax,0x22000000
00004E55  000C00            add [eax+eax],cl
00004E58  58                pop eax
00004E59  0300              add eax,[eax]
00004E5B  002C91            add [ecx+edx*4],ch
00004E5E  0408              add al,0x8
00004E60  7700              ja 0x4e62
00004E62  0000              add [eax],al
00004E64  2200              and al,[eax]
00004E66  0C00              or al,0x0
00004E68  AF                scasd
00004E69  0300              add eax,[eax]
00004E6B  00B4A304080800    add [ebx+0x80804],dh
00004E72  0000              add [eax],al
00004E74  2200              and al,[eax]
00004E76  0C00              or al,0x0
00004E78  020400            add al,[eax+eax]
00004E7B  0000              add [eax],al
00004E7D  0000              add [eax],al
00004E7F  0000              add [eax],al
00004E81  0000              add [eax],al
00004E83  0012              add [edx],dl
00004E85  0000              add [eax],al
00004E87  002D04000033      add [dword 0x33000004],ch
00004E8D  A104081A00        mov eax,[0x1a0804]
00004E92  0000              add [eax],al
00004E94  2200              and al,[eax]
00004E96  0C00              or al,0x0
00004E98  7304              jnc 0x4e9e
00004E9A  0000              add [eax],al
00004E9C  AA                stosb
00004E9D  97                xchg eax,edi
00004E9E  0408              add al,0x8
00004EA0  2C00              sub al,0x0
00004EA2  0000              add [eax],al
00004EA4  2200              and al,[eax]
00004EA6  0C00              or al,0x0
00004EA8  A5                movsd
00004EA9  0400              add al,0x0
00004EAB  0034A0            add [eax],dh
00004EAE  0408              add al,0x8
00004EB0  2C00              sub al,0x0
00004EB2  0000              add [eax],al
00004EB4  2200              and al,[eax]
00004EB6  0C00              or al,0x0
00004EB8  0405              add al,0x5
00004EBA  0000              add [eax],al
00004EBC  D6                salc
00004EBD  97                xchg eax,edi
00004EBE  0408              add al,0x8
00004EC0  3000              xor [eax],al
00004EC2  0000              add [eax],al
00004EC4  2200              and al,[eax]
00004EC6  0C00              or al,0x0
00004EC8  44                inc esp
00004EC9  05000005A2        add eax,0xa2050000
00004ECE  0408              add al,0x8
00004ED0  2100              and [eax],eax
00004ED2  0000              add [eax],al
00004ED4  2200              and al,[eax]
00004ED6  0C00              or al,0x0
00004ED8  B705              mov bh,0x5
00004EDA  0000              add [eax],al
00004EDC  8CA604080A00      mov [esi+0xa0804],fs
00004EE2  0000              add [eax],al
00004EE4  2200              and al,[eax]
00004EE6  0C00              or al,0x0
00004EE8  F30500008BA3      rep add eax,0xa38b0000
00004EEE  0408              add al,0x8
00004EF0  2800              sub [eax],al
00004EF2  0000              add [eax],al
00004EF4  2200              and al,[eax]
00004EF6  0C00              or al,0x0
00004EF8  49                dec ecx
00004EF9  06                push es
00004EFA  0000              add [eax],al
00004EFC  0000              add [eax],al
00004EFE  0000              add [eax],al
00004F00  0000              add [eax],al
00004F02  0000              add [eax],al
00004F04  1200              adc al,[eax]
00004F06  0000              add [eax],al
00004F08  6306              arpl [esi],ax
00004F0A  0000              add [eax],al
00004F0C  FC                cld
00004F0D  91                xchg eax,ecx
00004F0E  0408              add al,0x8
00004F10  5E                pop esi
00004F11  0000              add [eax],al
00004F13  0022              add [edx],ah
00004F15  000C00            add [eax+eax],cl
00004F18  B806000040        mov eax,0x40000006
00004F1D  A7                cmpsd
00004F1E  0408              add al,0x8
00004F20  0500000012        add eax,0x12000000
00004F25  000C00            add [eax+eax],cl
00004F28  C8060000          enter 0x6,0x0
00004F2C  FA                cli
00004F2D  92                xchg eax,edx
00004F2E  0408              add al,0x8
00004F30  1300              adc eax,[eax]
00004F32  0000              add [eax],al
00004F34  2200              and al,[eax]
00004F36  0C00              or al,0x0
00004F38  0807              or [edi],al
00004F3A  0000              add [eax],al
00004F3C  C0870408000000    rol byte [edi+0x804],byte 0x0
00004F43  0012              add [edx],dl
00004F45  000C00            add [eax+eax],cl
00004F48  0F07              sysret
00004F4A  0000              add [eax],al
00004F4C  01A604083700      add [esi+0x370804],esp
00004F52  0000              add [eax],al
00004F54  2200              and al,[eax]
00004F56  0C00              or al,0x0
00004F58  2E07              cs pop es
00004F5A  0000              add [eax],al
00004F5C  90                nop
00004F5D  CB                retf
00004F5E  0408              add al,0x8
00004F60  1000              adc [eax],al
00004F62  0000              add [eax],al
00004F64  1100              adc [eax],eax
00004F66  1800              sbb [eax],al
00004F68  3107              xor [edi],eax
00004F6A  0000              add [eax],al
00004F6C  A4                movsb
00004F6D  93                xchg eax,ebx
00004F6E  0408              add al,0x8
00004F70  B700              mov bh,0x0
00004F72  0000              add [eax],al
00004F74  2200              and al,[eax]
00004F76  0C00              or al,0x0
00004F78  60                pusha
00004F79  07                pop es
00004F7A  0000              add [eax],al
00004F7C  42                inc edx
00004F7D  99                cdq
00004F7E  0408              add al,0x8
00004F80  0F0000            sldt [eax]
00004F83  0022              add [edx],ah
00004F85  000C00            add [eax+eax],cl
00004F88  B207              mov dl,0x7
00004F8A  0000              add [eax],al
00004F8C  8A9304081A00      mov dl,[ebx+0x1a0804]
00004F92  0000              add [eax],al
00004F94  2200              and al,[eax]
00004F96  0C00              or al,0x0
00004F98  E507              in eax,0x7
00004F9A  0000              add [eax],al
00004F9C  0000              add [eax],al
00004F9E  0000              add [eax],al
00004FA0  0000              add [eax],al
00004FA2  0000              add [eax],al
00004FA4  2000              and [eax],al
00004FA6  0000              add [eax],al
00004FA8  F4                hlt
00004FA9  07                pop es
00004FAA  0000              add [eax],al
00004FAC  0000              add [eax],al
00004FAE  0000              add [eax],al
00004FB0  0000              add [eax],al
00004FB2  0000              add [eax],al
00004FB4  2000              and [eax],al
00004FB6  0000              add [eax],al
00004FB8  0808              or [eax],cl
00004FBA  0000              add [eax],al
00004FBC  7FA0              jg 0x4f5e
00004FBE  0408              add al,0x8
00004FC0  B400              mov ah,0x0
00004FC2  0000              add [eax],al
00004FC4  2200              and al,[eax]
00004FC6  0C00              or al,0x0
00004FC8  7B08              jpo 0x4fd2
00004FCA  0000              add [eax],al
00004FCC  F8                clc
00004FCD  A7                cmpsd
00004FCE  0408              add al,0x8
00004FD0  0400              add al,0x0
00004FD2  0000              add [eax],al
00004FD4  1100              adc [eax],eax
00004FD6  0E                push cs
00004FD7  008208000028      add [edx+0x28000008],al
00004FDD  A5                movsd
00004FDE  0408              add al,0x8
00004FE0  3000              xor [eax],al
00004FE2  0000              add [eax],al
00004FE4  2200              and al,[eax]
00004FE6  0C00              or al,0x0
00004FE8  C00800            ror byte [eax],byte 0x0
00004FEB  0000              add [eax],al
00004FED  0000              add [eax],al
00004FEF  0000              add [eax],al
00004FF1  0000              add [eax],al
00004FF3  0012              add [edx],dl
00004FF5  0000              add [eax],al
00004FF7  00D4              add ah,dl
00004FF9  0800              or [eax],al
00004FFB  00E0              add al,ah
00004FFD  880408            mov [eax+ecx],al
00005000  92                xchg eax,edx
00005001  0500001200        add eax,0x120000
00005006  0C00              or al,0x0
00005008  DE08              fimul word [eax]
0000500A  0000              add [eax],al
0000500C  BCA3040805        mov esp,0x50804a3
00005011  0000              add [eax],al
00005013  0022              add [edx],ah
00005015  000C00            add [eax+eax],cl
00005018  1B09              sbb ecx,[ecx]
0000501A  0000              add [eax],al
0000501C  E096              loopne 0x4fb4
0000501E  0408              add al,0x8
00005020  50                push eax
00005021  0000              add [eax],al
00005023  0022              add [edx],ah
00005025  000C00            add [eax+eax],cl
00005028  4B                dec ebx
00005029  0900              or [eax],eax
0000502B  006E92            add [esi-0x6e],ch
0000502E  0408              add al,0x8
00005030  1300              adc eax,[eax]
00005032  0000              add [eax],al
00005034  2200              and al,[eax]
00005036  0C00              or al,0x0
00005038  9C                pushf
00005039  0900              or [eax],eax
0000503B  00D8              add al,bl
0000503D  A7                cmpsd
0000503E  0408              add al,0x8
00005040  0000              add [eax],al
00005042  0000              add [eax],al
00005044  1200              adc al,[eax]
00005046  0D00A20900        or eax,0x9a200
0000504B  000E              add [esi],cl
0000504D  93                xchg eax,ebx
0000504E  0408              add al,0x8
00005050  1300              adc eax,[eax]
00005052  0000              add [eax],al
00005054  2200              and al,[eax]
00005056  0C00              or al,0x0
00005058  D409              aam 0x9
0000505A  0000              add [eax],al
0000505C  C0900408130000    rcl byte [eax+0x130804],byte 0x0
00005063  0022              add [edx],ah
00005065  000C00            add [eax+eax],cl
00005068  FF09              dec dword [ecx]
0000506A  0000              add [eax],al
0000506C  0000              add [eax],al
0000506E  0000              add [eax],al
00005070  0000              add [eax],al
00005072  0000              add [eax],al
00005074  1200              adc al,[eax]
00005076  0000              add [eax],al
00005078  190A              sbb [edx],ecx
0000507A  0000              add [eax],al
0000507C  C2A304            ret 0x4a3
0000507F  080500000022      or [dword 0x22000000],al
00005085  000C00            add [eax+eax],cl
00005088  4D                dec ebp
00005089  0A00              or al,[eax]
0000508B  0048CC            add [eax-0x34],cl
0000508E  0408              add al,0x8
00005090  0400              add al,0x0
00005092  0000              add [eax],al
00005094  1100              adc [eax],eax
00005096  1900              sbb [eax],eax
00005098  4F                dec edi
00005099  0A00              or al,[eax]
0000509B  00D4              add ah,dl
0000509D  90                nop
0000509E  0408              add al,0x8
000050A0  57                push edi
000050A1  0000              add [eax],al
000050A3  0022              add [edx],ah
000050A5  000C00            add [eax+eax],cl
000050A8  7A0A              jpe 0x50b4
000050AA  0000              add [eax],al
000050AC  06                push es
000050AD  98                cwde
000050AE  0408              add al,0x8
000050B0  1300              adc eax,[eax]
000050B2  0000              add [eax],al
000050B4  2200              and al,[eax]
000050B6  0C00              or al,0x0
000050B8  96                xchg eax,esi
000050B9  0A00              or al,[eax]
000050BB  0000              add [eax],al
000050BD  0000              add [eax],al
000050BF  0000              add [eax],al
000050C1  0000              add [eax],al
000050C3  0012              add [edx],dl
000050C5  0000              add [eax],al
000050C7  00BB0A0000AC      add [ebx-0x53fffff6],bh
000050CD  A5                movsd
000050CE  0408              add al,0x8
000050D0  1500000022        adc eax,0x22000000
000050D5  000C00            add [eax+eax],cl
000050D8  0A0B              or cl,[ebx]
000050DA  0000              add [eax],al
000050DC  41                inc ecx
000050DD  98                cwde
000050DE  0408              add al,0x8
000050E0  1A00              sbb al,[eax]
000050E2  0000              add [eax],al
000050E4  2200              and al,[eax]
000050E6  0C00              or al,0x0
000050E8  320B              xor cl,[ebx]
000050EA  0000              add [eax],al
000050EC  80A20408380000    and byte [edx+0x380804],0x0
000050F3  0022              add [edx],ah
000050F5  000C00            add [eax+eax],cl
000050F8  680B0000C9        push dword 0xc900000b
000050FD  A5                movsd
000050FE  0408              add al,0x8
00005100  3800              cmp [eax],al
00005102  0000              add [eax],al
00005104  2200              and al,[eax]
00005106  0C00              or al,0x0
00005108  98                cwde
00005109  0B00              or eax,[eax]
0000510B  0062A1            add [edx-0x5f],ah
0000510E  0408              add al,0x8
00005110  0500000022        add eax,0x22000000
00005115  000C00            add [eax+eax],cl
00005118  CC                int3
00005119  0B00              or eax,[eax]
0000511B  002E              add [esi],ch
0000511D  A204081A00        mov [0x1a0804],al
00005122  0000              add [eax],al
00005124  2200              and al,[eax]
00005126  0C00              or al,0x0
00005128  F6                db 0xf6
00005129  0B00              or eax,[eax]
0000512B  007E98            add [esi-0x68],bh
0000512E  0408              add al,0x8
00005130  0800              or [eax],al
00005132  0000              add [eax],al
00005134  2200              and al,[eax]
00005136  0C00              or al,0x0
00005138  3C0C              cmp al,0xc
0000513A  0000              add [eax],al
0000513C  0000              add [eax],al
0000513E  0000              add [eax],al
00005140  0000              add [eax],al
00005142  0000              add [eax],al
00005144  1200              adc al,[eax]
00005146  0000              add [eax],al
00005148  59                pop ecx
00005149  0C00              or al,0x0
0000514B  00F2              add dl,dh
0000514D  A4                movsb
0000514E  0408              add al,0x8
00005150  1B00              sbb eax,[eax]
00005152  0000              add [eax],al
00005154  2200              and al,[eax]
00005156  0C00              or al,0x0
00005158  8C0C00            mov [eax+eax],cs
0000515B  0096A6040821      add [esi+0x210804a6],dl
00005161  0000              add [eax],al
00005163  0022              add [edx],ah
00005165  000C00            add [eax+eax],cl
00005168  C7                db 0xc7
00005169  0C00              or al,0x0
0000516B  0030              add [eax],dh
0000516D  870408            xchg eax,[eax+ecx]
00005170  0000              add [eax],al
00005172  0000              add [eax],al
00005174  1200              adc al,[eax]
00005176  0000              add [eax],al
00005178  EC                in al,dx
00005179  0C00              or al,0x0
0000517B  0026              add [esi],ah
0000517D  A204080800        mov [0x80804],al
00005182  0000              add [eax],al
00005184  2200              and al,[eax]
00005186  0C00              or al,0x0
00005188  3E0D00000000      ds or eax,0x0
0000518E  0000              add [eax],al
00005190  0000              add [eax],al
00005192  0000              add [eax],al
00005194  2000              and [eax],al
00005196  0000              add [eax],al
00005198  5A                pop edx
00005199  0D0000F898        or eax,0x98f80000
0000519E  0408              add al,0x8
000051A0  2800              sub [eax],al
000051A2  0000              add [eax],al
000051A4  2200              and al,[eax]
000051A6  0C00              or al,0x0
000051A8  880D0000FCA7      mov [dword 0xa7fc0000],cl
000051AE  0408              add al,0x8
000051B0  0400              add al,0x0
000051B2  0000              add [eax],al
000051B4  1100              adc [eax],eax
000051B6  0E                push cs
000051B7  00970D0000A4      add [edi-0x5bfffff3],dl
000051BD  90                nop
000051BE  0408              add al,0x8
000051C0  0800              or [eax],al
000051C2  0000              add [eax],al
000051C4  2200              and al,[eax]
000051C6  0C00              or al,0x0
000051C8  9F                lahf
000051C9  0D0000D992        or eax,0x92d90000
000051CE  0408              add al,0x8
000051D0  2000              and [eax],al
000051D2  0000              add [eax],al
000051D4  2200              and al,[eax]
000051D6  0C00              or al,0x0
000051D8  B50D              mov ch,0xd
000051DA  0000              add [eax],al
000051DC  0000              add [eax],al
000051DE  0000              add [eax],al
000051E0  0000              add [eax],al
000051E2  0000              add [eax],al
000051E4  2000              and [eax],al
000051E6  0000              add [eax],al
000051E8  CF                iret
000051E9  0D000070CB        or eax,0xcb700000
000051EE  0408              add al,0x8
000051F0  0000              add [eax],al
000051F2  0000              add [eax],al
000051F4  1000              adc [eax],al
000051F6  1800              sbb [eax],al
000051F8  DC0D0000ED9E      fmul qword [dword 0x9eed0000]
000051FE  0408              add al,0x8
00005200  47                inc edi
00005201  0100              add [eax],eax
00005203  0022              add [edx],ah
00005205  000C00            add [eax+eax],cl
00005208  57                push edi
00005209  0E                push cs
0000520A  0000              add [eax],al
0000520C  82                db 0x82
0000520D  99                cdq
0000520E  0408              add al,0x8
00005210  3100              xor [eax],eax
00005212  0000              add [eax],al
00005214  2200              and al,[eax]
00005216  0C00              or al,0x0
00005218  A80E              test al,0xe
0000521A  0000              add [eax],al
0000521C  C8A30408          enter 0x4a3,0x8
00005220  1A00              sbb al,[eax]
00005222  0000              add [eax],al
00005224  2200              and al,[eax]
00005226  0C00              or al,0x0
00005228  C80E0000          enter 0xe,0x0
0000522C  229304085F00      and dl,[ebx+0x5f0804]
00005232  0000              add [eax],al
00005234  2200              and al,[eax]
00005236  0C00              or al,0x0
00005238  FA                cli
00005239  0E                push cs
0000523A  0000              add [eax],al
0000523C  B8A20408A4        mov eax,0xa40804a2
00005241  0000              add [eax],al
00005243  0022              add [edx],ah
00005245  000C00            add [eax+eax],cl
00005248  350F0000E0        xor eax,0xe000000f
0000524D  6B0508649F0000    imul eax,[dword 0x9f6408],byte +0x0
00005254  1100              adc [eax],eax
00005256  1900              sbb [eax],eax
00005258  380F              cmp [edi],cl
0000525A  0000              add [eax],al
0000525C  44                inc esp
0000525D  CC                int3
0000525E  0408              add al,0x8
00005260  0400              add al,0x0
00005262  0000              add [eax],al
00005264  1100              adc [eax],eax
00005266  1900              sbb [eax],eax
00005268  3A0F              cmp cl,[edi]
0000526A  0000              add [eax],al
0000526C  D09804082700      rcr byte [eax+0x270804],1
00005272  0000              add [eax],al
00005274  2200              and al,[eax]
00005276  0C00              or al,0x0
00005278  6A0F              push byte +0xf
0000527A  0000              add [eax],al
0000527C  209904082100      and [ecx+0x210804],bl
00005282  0000              add [eax],al
00005284  2200              and al,[eax]
00005286  0C00              or al,0x0
00005288  EC                in al,dx
00005289  0F0000            sldt [eax]
0000528C  7BA1              jpo 0x522f
0000528E  0408              add al,0x8
00005290  0500000022        add eax,0x22000000
00005295  000C00            add [eax+eax],cl
00005298  2B10              sub edx,[eax]
0000529A  0000              add [eax],al
0000529C  F6A104080F00      mul byte [ecx+0xf0804]
000052A2  0000              add [eax],al
000052A4  2200              and al,[eax]
000052A6  0C00              or al,0x0
000052A8  7E10              jng 0x52ba
000052AA  0000              add [eax],al
000052AC  62A104080500      bound esp,[ecx+0x50804]
000052B2  0000              add [eax],al
000052B4  2200              and al,[eax]
000052B6  0C00              or al,0x0
000052B8  B210              mov dl,0x10
000052BA  0000              add [eax],al
000052BC  82                db 0x82
000052BD  92                xchg eax,edx
000052BE  0408              add al,0x8
000052C0  57                push edi
000052C1  0000              add [eax],al
000052C3  0022              add [edx],ah
000052C5  000C00            add [eax+eax],cl
000052C8  0211              add dl,[ecx]
000052CA  0000              add [eax],al
000052CC  68A1040813        push dword 0x130804a1
000052D1  0000              add [eax],al
000052D3  0022              add [edx],ah
000052D5  000C00            add [eax+eax],cl
000052D8  44                inc esp
000052D9  1100              adc [eax],eax
000052DB  0022              add [edx],ah
000052DD  93                xchg eax,ebx
000052DE  0408              add al,0x8
000052E0  5F                pop edi
000052E1  0000              add [eax],al
000052E3  0022              add [edx],ah
000052E5  000C00            add [eax+eax],cl
000052E8  7611              jna 0x52fb
000052EA  0000              add [eax],al
000052EC  A0CB040800        mov al,[0x804cb]
000052F1  0000              add [eax],al
000052F3  0011              add [ecx],dl
000052F5  0218              add bl,[eax]
000052F7  00821100000E      add [edx+0xe000011],al
000052FD  93                xchg eax,ebx
000052FE  0408              add al,0x8
00005300  1300              adc eax,[eax]
00005302  0000              add [eax],al
00005304  2200              and al,[eax]
00005306  0C00              or al,0x0
00005308  B411              mov ah,0x11
0000530A  0000              add [eax],al
0000530C  C9                leave
0000530D  91                xchg eax,ecx
0000530E  0408              add al,0x8
00005310  3200              xor al,[eax]
00005312  0000              add [eax],al
00005314  2200              and al,[eax]
00005316  0C00              or al,0x0
00005318  E111              loope 0x532b
0000531A  0000              add [eax],al
0000531C  01A704083D00      add [edi+0x3d0804],esp
00005322  0000              add [eax],al
00005324  2200              and al,[eax]
00005326  0C00              or al,0x0
00005328  3512000074        xor eax,0x74000012
0000532D  CB                retf
0000532E  0408              add al,0x8
00005330  0000              add [eax],al
00005332  0000              add [eax],al
00005334  1102              adc [edx],eax
00005336  1800              sbb [eax],al
00005338  42                inc edx
00005339  1200              adc al,[eax]
0000533B  0034CA            add [edx+ecx*8],dh
0000533E  0408              add al,0x8
00005340  0000              add [eax],al
00005342  0000              add [eax],al
00005344  1102              adc [edx],eax
00005346  1300              adc eax,[eax]
00005348  4F                dec edi
00005349  1200              adc al,[eax]
0000534B  0050A7            add [eax-0x59],dl
0000534E  0408              add al,0x8
00005350  5A                pop edx
00005351  0000              add [eax],al
00005353  0012              add [edx],dl
00005355  000C00            add [eax+eax],cl
00005358  5F                pop edi
00005359  1200              adc al,[eax]
0000535B  0058A5            add [eax-0x5b],bl
0000535E  0408              add al,0x8
00005360  2100              and [eax],eax
00005362  0000              add [eax],al
00005364  2200              and al,[eax]
00005366  0C00              or al,0x0
00005368  A9120000B7        test eax,0xb7000012
0000536D  A6                cmpsb
0000536E  0408              add al,0x8
00005370  4A                dec edx
00005371  0000              add [eax],al
00005373  0022              add [edx],ah
00005375  000C00            add [eax+eax],cl
00005378  1F                pop ds
00005379  1300              adc eax,[eax]
0000537B  0000              add [eax],al
0000537D  0000              add [eax],al
0000537F  0000              add [eax],al
00005381  0000              add [eax],al
00005383  0012              add [edx],dl
00005385  0000              add [eax],al
00005387  0031              add [ecx],dh
00005389  1300              adc eax,[eax]
0000538B  00BA9E040833      add [edx+0x3308049e],bh
00005391  0000              add [eax],al
00005393  0022              add [edx],ah
00005395  000C00            add [eax+eax],cl
00005398  82                db 0x82
00005399  1300              adc eax,[eax]
0000539B  00C1              add cl,al
0000539D  A5                movsd
0000539E  0408              add al,0x8
000053A0  0800              or [eax],al
000053A2  0000              add [eax],al
000053A4  2200              and al,[eax]
000053A6  0C00              or al,0x0
000053A8  AE                scasb
000053A9  1300              adc eax,[eax]
000053AB  0030              add [eax],dh
000053AD  97                xchg eax,edi
000053AE  0408              add al,0x8
000053B0  2800              sub [eax],al
000053B2  0000              add [eax],al
000053B4  2200              and al,[eax]
000053B6  0C00              or al,0x0
000053B8  DE13              ficom word [ebx]
000053BA  0000              add [eax],al
000053BC  5C                pop esp
000053BD  A304082F00        mov [0x2f0804],eax
000053C2  0000              add [eax],al
000053C4  2200              and al,[eax]
000053C6  0C00              or al,0x0
000053C8  1B1400            sbb edx,[eax+eax]
000053CB  007AA5            add [edx-0x5b],bh
000053CE  0408              add al,0x8
000053D0  0500000022        add eax,0x22000000
000053D5  000C00            add [eax+eax],cl
000053D8  53                push ebx
000053D9  1400              adc al,0x0
000053DB  00869504081A      add [esi+0x1a080495],al
000053E1  0000              add [eax],al
000053E3  0022              add [edx],ah
000053E5  000C00            add [eax+eax],cl
000053E8  6B140000          imul edx,[eax+eax],byte +0x0
000053EC  7AA5              jpe 0x5393
000053EE  0408              add al,0x8
000053F0  0500000022        add eax,0x22000000
000053F5  000C00            add [eax+eax],cl
000053F8  A314000040        mov [0x40000014],eax
000053FD  A6                cmpsb
000053FE  0408              add al,0x8
00005400  1300              adc eax,[eax]
00005402  0000              add [eax],al
00005404  2200              and al,[eax]
00005406  0C00              or al,0x0
00005408  F1                int1
00005409  1400              adc al,0x0
0000540B  00A4930408B700    add [ebx+edx*4+0xb70804],ah
00005412  0000              add [eax],al
00005414  2200              and al,[eax]
00005416  0C00              or al,0x0
00005418  20150000AC90      and [dword 0x90ac0000],dl
0000541E  0408              add al,0x8
00005420  1300              adc eax,[eax]
00005422  0000              add [eax],al
00005424  2200              and al,[eax]
00005426  0C00              or al,0x0
00005428  6E                outsb
00005429  1500000000        adc eax,0x0
0000542E  0000              add [eax],al
00005430  0000              add [eax],al
00005432  0000              add [eax],al
00005434  1200              adc al,[eax]
00005436  0000              add [eax],al
00005438  8115000048A20408  adc dword [dword 0xa2480000],0x380804
         -3800
00005442  0000              add [eax],al
00005444  2200              and al,[eax]
00005446  0C00              or al,0x0
00005448  C5150000B499      lds edx,[dword 0x99b40000]
0000544E  0408              add al,0x8
00005450  0A00              or al,[eax]
00005452  0000              add [eax],al
00005454  2200              and al,[eax]
00005456  0C00              or al,0x0
00005458  1416              adc al,0x16
0000545A  0000              add [eax],al
0000545C  5A                pop edx
0000545D  92                xchg eax,edx
0000545E  0408              add al,0x8
00005460  1300              adc eax,[eax]
00005462  0000              add [eax],al
00005464  2200              and al,[eax]
00005466  0C00              or al,0x0
00005468  6716              push ss
0000546A  0000              add [eax],al
0000546C  F09B0408          wait lock add al,0x8
00005470  CA0200            retf 0x2
00005473  0022              add [edx],ah
00005475  000C00            add [eax+eax],cl
00005478  CB                retf
00005479  16                push ss
0000547A  0000              add [eax],al
0000547C  D490              aam 0x90
0000547E  0408              add al,0x8
00005480  57                push edi
00005481  0000              add [eax],al
00005483  0022              add [edx],ah
00005485  000C00            add [eax+eax],cl
00005488  F616              not byte [esi]
0000548A  0000              add [eax],al
0000548C  43                inc ebx
0000548D  A4                movsb
0000548E  0408              add al,0x8
00005490  58                pop eax
00005491  0000              add [eax],al
00005493  0022              add [edx],ah
00005495  000C00            add [eax+eax],cl
00005498  1B17              sbb edx,[edi]
0000549A  0000              add [eax],al
0000549C  A0CB040800        mov al,[0x804cb]
000054A1  0000              add [eax],al
000054A3  0010              add [eax],dl
000054A5  0019              add [ecx],bl
000054A7  0027              add [edi],ah
000054A9  17                pop ss
000054AA  0000              add [eax],al
000054AC  80A10408370000    and byte [ecx+0x370804],0x0
000054B3  0022              add [edx],ah
000054B5  000C00            add [eax+eax],cl
000054B8  6B1700            imul edx,[edi],byte +0x0
000054BB  00AEA4040844      add [esi+0x440804a4],ch
000054C1  0000              add [eax],al
000054C3  0022              add [edx],ah
000054C5  000C00            add [eax+eax],cl
000054C8  B017              mov al,0x17
000054CA  0000              add [eax],al
000054CC  53                push ebx
000054CD  A6                cmpsb
000054CE  0408              add al,0x8
000054D0  2500000022        and eax,0x22000000
000054D5  000C00            add [eax+eax],cl
000054D8  F4                hlt
000054D9  17                pop ss
000054DA  0000              add [eax],al
000054DC  0DA504081B        or eax,0x1b0804a5
000054E1  0000              add [eax],al
000054E3  0022              add [edx],ah
000054E5  000C00            add [eax+eax],cl
000054E8  0A18              or bl,[eax]
000054EA  0000              add [eax],al
000054EC  40                inc eax
000054ED  CC                int3
000054EE  0408              add al,0x8
000054F0  0400              add al,0x0
000054F2  0000              add [eax],al
000054F4  1100              adc [eax],eax
000054F6  1900              sbb [eax],eax
000054F8  0C18              or al,0x18
000054FA  0000              add [eax],al
000054FC  4E                dec esi
000054FD  A104081300        mov eax,[0x130804]
00005502  0000              add [eax],al
00005504  2200              and al,[eax]
00005506  0C00              or al,0x0
00005508  2818              sub [eax],bl
0000550A  0000              add [eax],al
0000550C  06                push es
0000550D  98                cwde
0000550E  0408              add al,0x8
00005510  1300              adc eax,[eax]
00005512  0000              add [eax],al
00005514  2200              and al,[eax]
00005516  0C00              or al,0x0
00005518  44                inc esp
00005519  1800              sbb [eax],al
0000551B  005C9804          add [eax+ebx*4+0x4],bl
0000551F  0819              or [ecx],bl
00005521  0000              add [eax],al
00005523  0022              add [edx],ah
00005525  000C00            add [eax+eax],cl
00005528  7318              jnc 0x5542
0000552A  0000              add [eax],al
0000552C  FA                cli
0000552D  92                xchg eax,edx
0000552E  0408              add al,0x8
00005530  1300              adc eax,[eax]
00005532  0000              add [eax],al
00005534  2200              and al,[eax]
00005536  0C00              or al,0x0
00005538  B318              mov bl,0x18
0000553A  0000              add [eax],al
0000553C  BE99040810        mov esi,0x10080499
00005541  0200              add al,[eax]
00005543  0022              add [edx],ah
00005545  000C00            add [eax+eax],cl
00005548  3019              xor [ecx],bl
0000554A  0000              add [eax],al
0000554C  D6                salc
0000554D  97                xchg eax,edi
0000554E  0408              add al,0x8
00005550  3000              xor [eax],al
00005552  0000              add [eax],al
00005554  2200              and al,[eax]
00005556  0C00              or al,0x0
00005558  7019              jo 0x5573
0000555A  0000              add [eax],al
0000555C  58                pop eax
0000555D  97                xchg eax,edi
0000555E  0408              add al,0x8
00005560  51                push ecx
00005561  0000              add [eax],al
00005563  0022              add [edx],ah
00005565  000C00            add [eax+eax],cl
00005568  DD19              fstp qword [ecx]
0000556A  0000              add [eax],al
0000556C  0000              add [eax],al
0000556E  0000              add [eax],al
00005570  0000              add [eax],al
00005572  0000              add [eax],al
00005574  1200              adc al,[eax]
00005576  0000              add [eax],al
00005578  F5                cmc
00005579  1900              sbb [eax],eax
0000557B  0080A1040837      add [eax+0x370804a1],al
00005581  0000              add [eax],al
00005583  0022              add [edx],ah
00005585  000C00            add [eax+eax],cl
00005588  391A              cmp [edx],ebx
0000558A  0000              add [eax],al
0000558C  60                pusha
0000558D  CC                int3
0000558E  0408              add al,0x8
00005590  649F              fs lahf
00005592  0000              add [eax],al
00005594  1100              adc [eax],eax
00005596  1900              sbb [eax],eax
00005598  3C1A              cmp al,0x1a
0000559A  0000              add [eax],al
0000559C  7FA5              jg 0x5543
0000559E  0408              add al,0x8
000055A0  2C00              sub al,0x0
000055A2  0000              add [eax],al
000055A4  2200              and al,[eax]
000055A6  0C00              or al,0x0
000055A8  9B1A00            wait sbb al,[eax]
000055AB  00CE              add dh,cl
000055AD  9B0408            wait add al,0x8
000055B0  2100              and [eax],eax
000055B2  0000              add [eax],al
000055B4  2200              and al,[eax]
000055B6  0C00              or al,0x0
000055B8  ED                in eax,dx
000055B9  1A00              sbb al,[eax]
000055BB  002C4A            add [edx+ecx*2],ch
000055BE  07                pop es
000055BF  0800              or [eax],al
000055C1  0000              add [eax],al
000055C3  0010              add [eax],dl
000055C5  0019              add [ecx],bl
000055C7  00F2              add dl,dh
000055C9  1A00              sbb al,[eax]
000055CB  0038              add [eax],bh
000055CD  A6                cmpsb
000055CE  0408              add al,0x8
000055D0  0800              or [eax],al
000055D2  0000              add [eax],al
000055D4  2200              and al,[eax]
000055D6  0C00              or al,0x0
000055D8  281B              sub [ebx],bl
000055DA  0000              add [eax],al
000055DC  E2A3              loop 0x5581
000055DE  0408              add al,0x8
000055E0  61                popa
000055E1  0000              add [eax],al
000055E3  0022              add [edx],ah
000055E5  000C00            add [eax+eax],cl
000055E8  B41B              mov ah,0x1b
000055EA  0000              add [eax],al
000055EC  60                pusha
000055ED  A004080A00        mov al,[0xa0804]
000055F2  0000              add [eax],al
000055F4  2200              and al,[eax]
000055F6  0C00              or al,0x0
000055F8  041C              add al,0x1c
000055FA  0000              add [eax],al
000055FC  0000              add [eax],al
000055FE  0000              add [eax],al
00005600  0000              add [eax],al
00005602  0000              add [eax],al
00005604  1200              adc al,[eax]
00005606  0000              add [eax],al
00005608  201C00            and [eax+eax],bl
0000560B  0000              add [eax],al
0000560D  0000              add [eax],al
0000560F  0000              add [eax],al
00005611  0000              add [eax],al
00005613  0012              add [edx],dl
00005615  0000              add [eax],al
00005617  00461C            add [esi+0x1c],al
0000561A  0000              add [eax],al
0000561C  9BA4              wait movsb
0000561E  0408              add al,0x8
00005620  1300              adc eax,[eax]
00005622  0000              add [eax],al
00005624  2200              and al,[eax]
00005626  0C00              or al,0x0
00005628  94                xchg eax,esp
00005629  1C00              sbb al,0x0
0000562B  0080CB040810      add [eax+0x100804cb],al
00005631  0000              add [eax],al
00005633  0011              add [ecx],dl
00005635  0018              add [eax],bl
00005637  00971C00004E      add [edi+0x4e00001c],dl
0000563D  A104081300        mov eax,[0x130804]
00005642  0000              add [eax],al
00005644  2200              and al,[eax]
00005646  0C00              or al,0x0
00005648  B31C              mov bl,0x1c
0000564A  0000              add [eax],al
0000564C  78A6              js 0x55f4
0000564E  0408              add al,0x8
00005650  1300              adc eax,[eax]
00005652  0000              add [eax],al
00005654  2200              and al,[eax]
00005656  0C00              or al,0x0
00005658  F71C00            neg dword [eax+eax]
0000565B  009E940408E8      add [esi-0x17f7fb6c],bl
00005661  0000              add [eax],al
00005663  0022              add [edx],ah
00005665  000C00            add [eax+eax],cl
00005668  651D00008698      gs sbb eax,0x98860000
0000566E  0408              add al,0x8
00005670  4A                dec edx
00005671  0000              add [eax],al
00005673  0022              add [edx],ah
00005675  000C00            add [eax+eax],cl
00005678  9C                pushf
00005679  1D0000600B        sbb eax,0xb600000
0000567E  06                push es
0000567F  08C8              or al,cl
00005681  3E0100            add [ds:eax],eax
00005684  1100              adc [eax],eax
00005686  1900              sbb [eax],eax
00005688  A11D000000        mov eax,[0x1d]
0000568D  0000              add [eax],al
0000568F  0000              add [eax],al
00005691  0000              add [eax],al
00005693  0012              add [edx],dl
00005695  0000              add [eax],al
00005697  00BF1D0000A0      add [edi-0x5fffffe3],bh
0000569D  95                xchg eax,ebp
0000569E  0408              add al,0x8
000056A0  260000            add [es:eax],al
000056A3  0022              add [edx],ah
000056A5  000C00            add [eax+eax],cl
000056A8  DE1D0000C2A3      ficomp word [dword 0xa3c20000]
000056AE  0408              add al,0x8
000056B0  0500000022        add eax,0x22000000
000056B5  000C00            add [eax+eax],cl
000056B8  121E              adc bl,[esi]
000056BA  0000              add [eax],al
000056BC  869504081A00      xchg dl,[ebp+0x1a0804]
000056C2  0000              add [eax],al
000056C4  2200              and al,[eax]
000056C6  0C00              or al,0x0
000056C8  2A1E              sub bl,[esi]
000056CA  0000              add [eax],al
000056CC  C6                db 0xc6
000056CD  95                xchg eax,ebp
000056CE  0408              add al,0x8
000056D0  7300              jnc 0x56d2
000056D2  0000              add [eax],al
000056D4  2200              and al,[eax]
000056D6  0C00              or al,0x0
000056D8  61                popa
000056D9  1E                push ds
000056DA  0000              add [eax],al
000056DC  869804084A00      xchg bl,[eax+0x4a0804]
000056E2  0000              add [eax],al
000056E4  2200              and al,[eax]
000056E6  0C00              or al,0x0
000056E8  98                cwde
000056E9  1E                push ds
000056EA  0000              add [eax],al
000056EC  78CB              js 0x56b9
000056EE  0408              add al,0x8
000056F0  0800              or [eax],al
000056F2  0000              add [eax],al
000056F4  1100              adc [eax],eax
000056F6  1800              sbb [eax],al
000056F8  9C                pushf
000056F9  1E                push ds
000056FA  0000              add [eax],al
000056FC  A0CB040800        mov al,[0x804cb]
00005701  0000              add [eax],al
00005703  0010              add [eax],dl
00005705  0018              add [eax],bl
00005707  00A31E0000A0      add [ebx-0x5fffffe2],ah
0000570D  95                xchg eax,ebp
0000570E  0408              add al,0x8
00005710  260000            add [es:eax],al
00005713  0022              add [edx],ah
00005715  000C00            add [eax+eax],cl
00005718  C21E00            ret 0x1e
0000571B  00A391040826      add [ebx+0x26080491],ah
00005721  0000              add [eax],al
00005723  0022              add [edx],ah
00005725  000C00            add [eax+eax],cl
00005728  E91E0000A0        jmp 0xa000574b
0000572D  870408            xchg eax,[eax+ecx]
00005730  0000              add [eax],al
00005732  0000              add [eax],al
00005734  1200              adc al,[eax]
00005736  0000              add [eax],al
00005738  0A1F              or bl,[edi]
0000573A  0000              add [eax],al
0000573C  C8A30408          enter 0x4a3,0x8
00005740  1A00              sbb al,[eax]
00005742  0000              add [eax],al
00005744  2200              and al,[eax]
00005746  0C00              or al,0x0
00005748  2A1F              sub bl,[edi]
0000574A  0000              add [eax],al
0000574C  AC                lodsb
0000574D  90                nop
0000574E  0408              add al,0x8
00005750  1300              adc eax,[eax]
00005752  0000              add [eax],al
00005754  2200              and al,[eax]
00005756  0C00              or al,0x0
00005758  781F              js 0x5779
0000575A  0000              add [eax],al
0000575C  0000              add [eax],al
0000575E  0000              add [eax],al
00005760  0000              add [eax],al
00005762  0000              add [eax],al
00005764  1200              adc al,[eax]
00005766  0000              add [eax],al
00005768  90                nop
00005769  1F                pop ds
0000576A  0000              add [eax],al
0000576C  2C91              sub al,0x91
0000576E  0408              add al,0x8
00005770  7700              ja 0x5772
00005772  0000              add [eax],al
00005774  2200              and al,[eax]
00005776  0C00              or al,0x0
00005778  E71F              out 0x1f,eax
0000577A  0000              add [eax],al
0000577C  1A9804082700      sbb bl,[eax+0x270804]
00005782  0000              add [eax],al
00005784  2200              and al,[eax]
00005786  0C00              or al,0x0
00005788  2A20              sub ah,[eax]
0000578A  0000              add [eax],al
0000578C  B8A104083D        mov eax,0x3d0804a1
00005791  0000              add [eax],al
00005793  0022              add [edx],ah
00005795  000C00            add [eax+eax],cl
00005798  6D                insd
00005799  2000              and [eax],al
0000579B  005199            add [ecx-0x67],dl
0000579E  0408              add al,0x8
000057A0  3000              xor [eax],al
000057A2  0000              add [eax],al
000057A4  2200              and al,[eax]
000057A6  0C00              or al,0x0
000057A8  DE20              fisub word [eax]
000057AA  0000              add [eax],al
000057AC  5C                pop esp
000057AD  94                xchg eax,esp
000057AE  0408              add al,0x8
000057B0  1F                pop ds
000057B1  0000              add [eax],al
000057B3  0022              add [edx],ah
000057B5  000C00            add [eax+eax],cl
000057B8  0D210000AA        or eax,0xaa000021
000057BD  A7                cmpsd
000057BE  0408              add al,0x8
000057C0  0000              add [eax],al
000057C2  0000              add [eax],al
000057C4  1202              adc al,[edx]
000057C6  0C00              or al,0x0
000057C8  2421              and al,0x21
000057CA  0000              add [eax],al
000057CC  728E              jc 0x575c
000057CE  0408              add al,0x8
000057D0  D7                xlatb
000057D1  0100              add [eax],eax
000057D3  0012              add [edx],dl
000057D5  000C00            add [eax+eax],cl
000057D8  2921              sub [ecx],esp
000057DA  0000              add [eax],al
000057DC  82                db 0x82
000057DD  93                xchg eax,ebx
000057DE  0408              add al,0x8
000057E0  0800              or [eax],al
000057E2  0000              add [eax],al
000057E4  2200              and al,[eax]
000057E6  0C00              or al,0x0
000057E8  6E                outsb
000057E9  2100              and [eax],eax
000057EB  007C8604          add [esi+eax*4+0x4],bh
000057EF  0800              or [eax],al
000057F1  0000              add [eax],al
000057F3  0012              add [edx],dl
000057F5  000A              add [edx],cl
000057F7  00742100          add [ecx+0x0],dh
000057FB  007598            add [ebp-0x68],dh
000057FE  0408              add al,0x8
00005800  0800              or [eax],al
00005802  0000              add [eax],al
00005804  2200              and al,[eax]
00005806  0C00              or al,0x0
00005808  C22100            ret 0x21
0000580B  00C0              add al,al
0000580D  90                nop
0000580E  0408              add al,0x8
00005810  1300              adc eax,[eax]
00005812  0000              add [eax],al
00005814  2200              and al,[eax]
00005816  0C00              or al,0x0
00005818  00696E            add [ecx+0x6e],ch
0000581B  69742E6300696E69  imul esi,[esi+ebp+0x63],dword 0x696e6900
00005823  7466              jz 0x588b
00005825  696E692E630063    imul ebp,[esi+0x69],dword 0x6300632e
0000582C  7274              jc 0x58a2
0000582E  7374              jnc 0x58a4
00005830  7566              jnz 0x5898
00005832  662E6300          o16 arpl [cs:eax],ax
00005836  5F                pop edi
00005837  5F                pop edi
00005838  43                inc ebx
00005839  54                push esp
0000583A  4F                dec edi
0000583B  52                push edx
0000583C  5F                pop edi
0000583D  4C                dec esp
0000583E  49                dec ecx
0000583F  53                push ebx
00005840  54                push esp
00005841  5F                pop edi
00005842  5F                pop edi
00005843  005F5F            add [edi+0x5f],bl
00005846  44                inc esp
00005847  54                push esp
00005848  4F                dec edi
00005849  52                push edx
0000584A  5F                pop edi
0000584B  4C                dec esp
0000584C  49                dec ecx
0000584D  53                push ebx
0000584E  54                push esp
0000584F  5F                pop edi
00005850  5F                pop edi
00005851  005F5F            add [edi+0x5f],bl
00005854  4A                dec edx
00005855  43                inc ebx
00005856  52                push edx
00005857  5F                pop edi
00005858  4C                dec esp
00005859  49                dec ecx
0000585A  53                push ebx
0000585B  54                push esp
0000585C  5F                pop edi
0000585D  5F                pop edi
0000585E  00646572          add [ebp+0x72],ah
00005862  656769737465725F  imul esi,[gs:bp+di+0x74],dword 0x745f7265
         -74
0000586B  6D                insd
0000586C  5F                pop edi
0000586D  636C6F6E          arpl [edi+ebp*2+0x6e],bp
00005871  657300            gs jnc 0x5874
00005874  7265              jc 0x58db
00005876  6769737465725F74  imul esi,[bp+di+0x74],dword 0x745f7265
0000587E  6D                insd
0000587F  5F                pop edi
00005880  636C6F6E          arpl [edi+ebp*2+0x6e],bp
00005884  657300            gs jnc 0x5887
00005887  5F                pop edi
00005888  5F                pop edi
00005889  646F              fs outsd
0000588B  5F                pop edi
0000588C  676C              a16 insb
0000588E  6F                outsd
0000588F  62616C            bound esp,[ecx+0x6c]
00005892  5F                pop edi
00005893  64746F            fs jz 0x5905
00005896  7273              jc 0x590b
00005898  5F                pop edi
00005899  61                popa
0000589A  7578              jnz 0x5914
0000589C  00636F            add [ebx+0x6f],ah
0000589F  6D                insd
000058A0  706C              jo 0x590e
000058A2  657465            gs jz 0x590a
000058A5  642E3333          xor esi,[cs:ebx]
000058A9  3238              xor bh,[eax]
000058AB  0064746F          add [esp+esi*2+0x6f],ah
000058AF  725F              jc 0x5910
000058B1  6964782E33333330  imul esp,[eax+edi*2+0x2e],dword 0x30333333
000058B9  006672            add [esi+0x72],ah
000058BC  61                popa
000058BD  6D                insd
000058BE  655F              gs pop edi
000058C0  64756D            fs jnz 0x5930
000058C3  6D                insd
000058C4  7900              jns 0x58c6
000058C6  5F                pop edi
000058C7  5F                pop edi
000058C8  43                inc ebx
000058C9  54                push esp
000058CA  4F                dec edi
000058CB  52                push edx
000058CC  5F                pop edi
000058CD  45                inc ebp
000058CE  4E                dec esi
000058CF  44                inc esp
000058D0  5F                pop edi
000058D1  5F                pop edi
000058D2  005F5F            add [edi+0x5f],bl
000058D5  46                inc esi
000058D6  52                push edx
000058D7  41                inc ecx
000058D8  4D                dec ebp
000058D9  45                inc ebp
000058DA  5F                pop edi
000058DB  45                inc ebp
000058DC  4E                dec esi
000058DD  44                inc esp
000058DE  5F                pop edi
000058DF  5F                pop edi
000058E0  005F5F            add [edi+0x5f],bl
000058E3  4A                dec edx
000058E4  43                inc ebx
000058E5  52                push edx
000058E6  5F                pop edi
000058E7  45                inc ebp
000058E8  4E                dec esi
000058E9  44                inc esp
000058EA  5F                pop edi
000058EB  5F                pop edi
000058EC  005F5F            add [edi+0x5f],bl
000058EF  646F              fs outsd
000058F1  5F                pop edi
000058F2  676C              a16 insb
000058F4  6F                outsd
000058F5  62616C            bound esp,[ecx+0x6c]
000058F8  5F                pop edi
000058F9  63746F72          arpl [edi+ebp*2+0x72],si
000058FD  735F              jnc 0x595e
000058FF  61                popa
00005900  7578              jnz 0x597a
00005902  0031              add [ecx],dh
00005904  3833              cmp [ebx],dh
00005906  363438            ss xor al,0x38
00005909  365F              ss pop edi
0000590B  313438            xor [eax+edi],esi
0000590E  353438385F        xor eax,0x5f383834
00005913  736D              jnc 0x5982
00005915  6E                outsb
00005916  2E637070          arpl [cs:eax+0x70],si
0000591A  005F5A            add [edi+0x5a],bl
0000591D  53                push ebx
0000591E  744C              jz 0x596c
00005920  385F5F            cmp [edi+0x5f],bl
00005923  696F696E697400    imul ebp,[edi+0x69],dword 0x74696e
0000592A  5F                pop edi
0000592B  5A                pop edx
0000592C  3431              xor al,0x31
0000592E  5F                pop edi
0000592F  5F                pop edi
00005930  7374              jnc 0x59a6
00005932  61                popa
00005933  7469              jz 0x599e
00005935  635F69            arpl [edi+0x69],bx
00005938  6E                outsb
00005939  697469616C697A61  imul esi,[ecx+ebp*2+0x61],dword 0x617a696c
00005941  7469              jz 0x59ac
00005943  6F                outsd
00005944  6E                outsb
00005945  5F                pop edi
00005946  61                popa
00005947  6E                outsb
00005948  645F              fs pop edi
0000594A  64657374          gs jnc 0x59c2
0000594E  7275              jc 0x59c5
00005950  6374696F          arpl [ecx+ebp*2+0x6f],si
00005954  6E                outsb
00005955  5F                pop edi
00005956  306969            xor [ecx+0x69],ch
00005959  005F5A            add [edi+0x5a],bl
0000595C  4C                dec esp
0000595D  33494E            xor ecx,[ecx+0x4e]
00005960  46                inc esi
00005961  005F47            add [edi+0x47],bl
00005964  4C                dec esp
00005965  4F                dec edi
00005966  42                inc edx
00005967  41                inc ecx
00005968  4C                dec esp
00005969  5F                pop edi
0000596A  5F                pop edi
0000596B  7375              jnc 0x59e2
0000596D  625F49            bound ebx,[edi+0x49]
00005970  5F                pop edi
00005971  4E                dec esi
00005972  00656C            add [ebp+0x6c],ah
00005975  662D696E          sub ax,0x6e69
00005979  69742E63005F474C  imul esi,[esi+ebp+0x63],dword 0x4c475f00
00005981  4F                dec edi
00005982  42                inc edx
00005983  41                inc ecx
00005984  4C                dec esp
00005985  5F                pop edi
00005986  4F                dec edi
00005987  46                inc esi
00005988  46                inc esi
00005989  53                push ebx
0000598A  45                inc ebp
0000598B  54                push esp
0000598C  5F                pop edi
0000598D  54                push esp
0000598E  41                inc ecx
0000598F  42                inc edx
00005990  4C                dec esp
00005991  45                inc ebp
00005992  5F                pop edi
00005993  005F5F            add [edi+0x5f],bl
00005996  696E69745F6172    imul ebp,[esi+0x69],dword 0x72615f74
0000599D  7261              jc 0x5a00
0000599F  795F              jns 0x5a00
000059A1  656E              gs outsb
000059A3  64005F5F          add [fs:edi+0x5f],bl
000059A7  696E69745F6172    imul ebp,[esi+0x69],dword 0x72615f74
000059AE  7261              jc 0x5a11
000059B0  795F              jns 0x5a11
000059B2  7374              jnc 0x5a28
000059B4  61                popa
000059B5  7274              jc 0x5a2b
000059B7  005F44            add [edi+0x44],bl
000059BA  59                pop ecx
000059BB  4E                dec esi
000059BC  41                inc ecx
000059BD  4D                dec ebp
000059BE  49                dec ecx
000059BF  43                inc ebx
000059C0  005F5A            add [edi+0x5a],bl
000059C3  4E                dec esi
000059C4  395F5F            cmp [edi+0x5f],ebx
000059C7  676E              a16 outsb
000059C9  755F              jnz 0x5a2a
000059CB  637878            arpl [eax+0x78],di
000059CE  3137              xor [edi],esi
000059D0  5F                pop edi
000059D1  5F                pop edi
000059D2  6E                outsb
000059D3  6F                outsd
000059D4  726D              jc 0x5a43
000059D6  61                popa
000059D7  6C                insb
000059D8  5F                pop edi
000059D9  6974657261746F72  imul esi,[ebp+0x72],dword 0x726f7461
000059E1  49                dec ecx
000059E2  50                push eax
000059E3  4B                dec ebx
000059E4  53                push ebx
000059E5  7434              jz 0x5a1b
000059E7  7061              jo 0x5a4a
000059E9  6972496453315F    imul esi,[edx+0x49],dword 0x5f315364
000059F0  49                dec ecx
000059F1  69694545537436    imul ebp,[ecx+0x45],dword 0x36745345
000059F8  7665              jna 0x5a5f
000059FA  63746F72          arpl [edi+ebp*2+0x72],si
000059FE  49                dec ecx
000059FF  53                push ebx
00005A00  335F53            xor ebx,[edi+0x53]
00005A03  61                popa
00005A04  49                dec ecx
00005A05  53                push ebx
00005A06  335F45            xor ebx,[edi+0x45]
00005A09  45                inc ebp
00005A0A  45                inc ebp
00005A0B  43                inc ebx
00005A0C  314552            xor [ebp+0x52],eax
00005A0F  4B                dec ebx
00005A10  53                push ebx
00005A11  355F006461        xor eax,0x6164005f
00005A16  7461              jz 0x5a79
00005A18  5F                pop edi
00005A19  7374              jnc 0x5a8f
00005A1B  61                popa
00005A1C  7274              jc 0x5a92
00005A1E  005F5A            add [edi+0x5a],bl
00005A21  53                push ebx
00005A22  7433              jz 0x5a57
00005A24  63696E            arpl [ecx+0x6e],bp
00005A27  40                inc eax
00005A28  40                inc eax
00005A29  47                inc edi
00005A2A  4C                dec esp
00005A2B  49                dec ecx
00005A2C  42                inc edx
00005A2D  43                inc ebx
00005A2E  58                pop eax
00005A2F  58                pop eax
00005A30  5F                pop edi
00005A31  332E              xor ebp,[esi]
00005A33  3400              xor al,0x0
00005A35  5F                pop edi
00005A36  5A                pop edx
00005A37  4E                dec esi
00005A38  53                push ebx
00005A39  7436              jz 0x5a71
00005A3B  7665              jna 0x5aa2
00005A3D  63746F72          arpl [edi+ebp*2+0x72],si
00005A41  49                dec ecx
00005A42  53                push ebx
00005A43  7434              jz 0x5a79
00005A45  7061              jo 0x5aa8
00005A47  6972496453305F    imul esi,[edx+0x49],dword 0x5f305364
00005A4E  49                dec ecx
00005A4F  69694545536149    imul ebp,[ecx+0x45],dword 0x49615345
00005A56  53                push ebx
00005A57  325F45            xor bl,[edi+0x45]
00005A5A  45                inc ebp
00005A5B  33656E            xor esp,[ebp+0x6e]
00005A5E  6445              fs inc ebp
00005A60  7600              jna 0x5a62
00005A62  5F                pop edi
00005A63  5A                pop edx
00005A64  53                push ebx
00005A65  7439              jz 0x5aa0
00005A67  7075              jo 0x5ade
00005A69  7368              jnc 0x5ad3
00005A6B  5F                pop edi
00005A6C  6865617049        push dword 0x49706165
00005A71  4E                dec esi
00005A72  395F5F            cmp [edi+0x5f],ebx
00005A75  676E              a16 outsb
00005A77  755F              jnz 0x5ad8
00005A79  637878            arpl [eax+0x78],di
00005A7C  3137              xor [edi],esi
00005A7E  5F                pop edi
00005A7F  5F                pop edi
00005A80  6E                outsb
00005A81  6F                outsd
00005A82  726D              jc 0x5af1
00005A84  61                popa
00005A85  6C                insb
00005A86  5F                pop edi
00005A87  6974657261746F72  imul esi,[ebp+0x72],dword 0x726f7461
00005A8F  49                dec ecx
00005A90  50                push eax
00005A91  53                push ebx
00005A92  7434              jz 0x5ac8
00005A94  7061              jo 0x5af7
00005A96  6972496453325F    imul esi,[edx+0x49],dword 0x5f325364
00005A9D  49                dec ecx
00005A9E  69694545537436    imul ebp,[ecx+0x45],dword 0x36745345
00005AA5  7665              jna 0x5b0c
00005AA7  63746F72          arpl [edi+ebp*2+0x72],si
00005AAB  49                dec ecx
00005AAC  53                push ebx
00005AAD  345F              xor al,0x5f
00005AAF  53                push ebx
00005AB0  61                popa
00005AB1  49                dec ecx
00005AB2  53                push ebx
00005AB3  345F              xor al,0x5f
00005AB5  45                inc ebp
00005AB6  45                inc ebp
00005AB7  45                inc ebp
00005AB8  45                inc ebp
00005AB9  53                push ebx
00005ABA  7434              jz 0x5af0
00005ABC  6C                insb
00005ABD  657373            gs jnc 0x5b33
00005AC0  49                dec ecx
00005AC1  53                push ebx
00005AC2  345F              xor al,0x5f
00005AC4  45                inc ebp
00005AC5  45                inc ebp
00005AC6  7654              jna 0x5b1c
00005AC8  5F                pop edi
00005AC9  53                push ebx
00005ACA  43                inc ebx
00005ACB  5F                pop edi
00005ACC  54                push esp
00005ACD  305F00            xor [edi+0x0],bl
00005AD0  5F                pop edi
00005AD1  5A                pop edx
00005AD2  4E                dec esi
00005AD3  395F5F            cmp [edi+0x5f],ebx
00005AD6  676E              a16 outsb
00005AD8  755F              jnz 0x5b39
00005ADA  637878            arpl [eax+0x78],di
00005ADD  3137              xor [edi],esi
00005ADF  5F                pop edi
00005AE0  5F                pop edi
00005AE1  6E                outsb
00005AE2  6F                outsd
00005AE3  726D              jc 0x5b52
00005AE5  61                popa
00005AE6  6C                insb
00005AE7  5F                pop edi
00005AE8  6974657261746F72  imul esi,[ebp+0x72],dword 0x726f7461
00005AF0  49                dec ecx
00005AF1  50                push eax
00005AF2  53                push ebx
00005AF3  7434              jz 0x5b29
00005AF5  7061              jo 0x5b58
00005AF7  6972496453315F    imul esi,[edx+0x49],dword 0x5f315364
00005AFE  49                dec ecx
00005AFF  69694545537436    imul ebp,[ecx+0x45],dword 0x36745345
00005B06  7665              jna 0x5b6d
00005B08  63746F72          arpl [edi+ebp*2+0x72],si
00005B0C  49                dec ecx
00005B0D  53                push ebx
00005B0E  335F53            xor ebx,[edi+0x53]
00005B11  61                popa
00005B12  49                dec ecx
00005B13  53                push ebx
00005B14  335F45            xor ebx,[edi+0x45]
00005B17  45                inc ebp
00005B18  45                inc ebp
00005B19  43                inc ebx
00005B1A  324552            xor al,[ebp+0x52]
00005B1D  4B                dec ebx
00005B1E  53                push ebx
00005B1F  345F              xor al,0x5f
00005B21  005F5A            add [edi+0x5a],bl
00005B24  4E                dec esi
00005B25  395F5F            cmp [edi+0x5f],ebx
00005B28  676E              a16 outsb
00005B2A  755F              jnz 0x5b8b
00005B2C  637878            arpl [eax+0x78],di
00005B2F  3137              xor [edi],esi
00005B31  5F                pop edi
00005B32  5F                pop edi
00005B33  6E                outsb
00005B34  6F                outsd
00005B35  726D              jc 0x5ba4
00005B37  61                popa
00005B38  6C                insb
00005B39  5F                pop edi
00005B3A  6974657261746F72  imul esi,[ebp+0x72],dword 0x726f7461
00005B42  49                dec ecx
00005B43  50                push eax
00005B44  53                push ebx
00005B45  7434              jz 0x5b7b
00005B47  7061              jo 0x5baa
00005B49  6972496453315F    imul esi,[edx+0x49],dword 0x5f315364
00005B50  49                dec ecx
00005B51  69694545537436    imul ebp,[ecx+0x45],dword 0x36745345
00005B58  7665              jna 0x5bbf
00005B5A  63746F72          arpl [edi+ebp*2+0x72],si
00005B5E  49                dec ecx
00005B5F  53                push ebx
00005B60  335F53            xor ebx,[edi+0x53]
00005B63  61                popa
00005B64  49                dec ecx
00005B65  53                push ebx
00005B66  335F45            xor ebx,[edi+0x45]
00005B69  45                inc ebp
00005B6A  45                inc ebp
00005B6B  6D                insd
00005B6C  6D                insd
00005B6D  45                inc ebp
00005B6E  7600              jna 0x5b70
00005B70  5F                pop edi
00005B71  5A                pop edx
00005B72  4E                dec esi
00005B73  53                push ebx
00005B74  7431              jz 0x5ba7
00005B76  3470              xor al,0x70
00005B78  7269              jc 0x5be3
00005B7A  6F                outsd
00005B7B  7269              jc 0x5be6
00005B7D  7479              jz 0x5bf8
00005B7F  5F                pop edi
00005B80  7175              jno 0x5bf7
00005B82  657565            gs jnz 0x5bea
00005B85  49                dec ecx
00005B86  53                push ebx
00005B87  7434              jz 0x5bbd
00005B89  7061              jo 0x5bec
00005B8B  6972496453305F    imul esi,[edx+0x49],dword 0x5f305364
00005B92  49                dec ecx
00005B93  69694545537436    imul ebp,[ecx+0x45],dword 0x36745345
00005B9A  7665              jna 0x5c01
00005B9C  63746F72          arpl [edi+ebp*2+0x72],si
00005BA0  49                dec ecx
00005BA1  53                push ebx
00005BA2  325F53            xor bl,[edi+0x53]
00005BA5  61                popa
00005BA6  49                dec ecx
00005BA7  53                push ebx
00005BA8  325F45            xor bl,[edi+0x45]
00005BAB  45                inc ebp
00005BAC  53                push ebx
00005BAD  7434              jz 0x5be3
00005BAF  6C                insb
00005BB0  657373            gs jnc 0x5c26
00005BB3  49                dec ecx
00005BB4  53                push ebx
00005BB5  325F45            xor bl,[edi+0x45]
00005BB8  45                inc ebp
00005BB9  43                inc ebx
00005BBA  314552            xor [ebp+0x52],eax
00005BBD  4B                dec ebx
00005BBE  53                push ebx
00005BBF  37                aaa
00005BC0  5F                pop edi
00005BC1  52                push edx
00005BC2  4B                dec ebx
00005BC3  53                push ebx
00005BC4  355F005F5A        xor eax,0x5a5f005f
00005BC9  4E                dec esi
00005BCA  4B                dec ebx
00005BCB  395F5F            cmp [edi+0x5f],ebx
00005BCE  676E              a16 outsb
00005BD0  755F              jnz 0x5c31
00005BD2  637878            arpl [eax+0x78],di
00005BD5  3137              xor [edi],esi
00005BD7  5F                pop edi
00005BD8  5F                pop edi
00005BD9  6E                outsb
00005BDA  6F                outsd
00005BDB  726D              jc 0x5c4a
00005BDD  61                popa
00005BDE  6C                insb
00005BDF  5F                pop edi
00005BE0  6974657261746F72  imul esi,[ebp+0x72],dword 0x726f7461
00005BE8  49                dec ecx
00005BE9  50                push eax
00005BEA  4B                dec ebx
00005BEB  53                push ebx
00005BEC  7434              jz 0x5c22
00005BEE  7061              jo 0x5c51
00005BF0  6972496453315F    imul esi,[edx+0x49],dword 0x5f315364
00005BF7  49                dec ecx
00005BF8  69694545537436    imul ebp,[ecx+0x45],dword 0x36745345
00005BFF  7665              jna 0x5c66
00005C01  63746F72          arpl [edi+ebp*2+0x72],si
00005C05  49                dec ecx
00005C06  53                push ebx
00005C07  335F53            xor ebx,[edi+0x53]
00005C0A  61                popa
00005C0B  49                dec ecx
00005C0C  53                push ebx
00005C0D  335F45            xor ebx,[edi+0x45]
00005C10  45                inc ebp
00005C11  45                inc ebp
00005C12  3462              xor al,0x62
00005C14  61                popa
00005C15  7365              jnc 0x5c7c
00005C17  45                inc ebp
00005C18  7600              jna 0x5c1a
00005C1A  5F                pop edi
00005C1B  5A                pop edx
00005C1C  53                push ebx
00005C1D  7432              jz 0x5c51
00005C1F  305F5F            xor [edi+0x5f],bl
00005C22  7468              jz 0x5c8c
00005C24  726F              jc 0x5c95
00005C26  775F              ja 0x5c87
00005C28  6C                insb
00005C29  656E              gs outsb
00005C2B  677468            jz 0x5c96
00005C2E  5F                pop edi
00005C2F  657272            gs jc 0x5ca4
00005C32  6F                outsd
00005C33  7250              jc 0x5c85
00005C35  4B                dec ebx
00005C36  634040            arpl [eax+0x40],ax
00005C39  47                inc edi
00005C3A  4C                dec esp
00005C3B  49                dec ecx
00005C3C  42                inc edx
00005C3D  43                inc ebx
00005C3E  58                pop eax
00005C3F  58                pop eax
00005C40  5F                pop edi
00005C41  332E              xor ebp,[esi]
00005C43  3400              xor al,0x0
00005C45  5F                pop edi
00005C46  5A                pop edx
00005C47  4E                dec esi
00005C48  395F5F            cmp [edi+0x5f],ebx
00005C4B  676E              a16 outsb
00005C4D  755F              jnz 0x5cae
00005C4F  637878            arpl [eax+0x78],di
00005C52  31345F            xor [edi+ebx*2],esi
00005C55  5F                pop edi
00005C56  61                popa
00005C57  6C                insb
00005C58  6C                insb
00005C59  6F                outsd
00005C5A  635F74            arpl [edi+0x74],bx
00005C5D  7261              jc 0x5cc0
00005C5F  6974734953614953  imul esi,[ebx+esi*2+0x49],dword 0x53496153
00005C67  7434              jz 0x5c9d
00005C69  7061              jo 0x5ccc
00005C6B  6972496453315F    imul esi,[edx+0x49],dword 0x5f315364
00005C72  49                dec ecx
00005C73  69694545454537    imul ebp,[ecx+0x45],dword 0x37454545
00005C7A  64657374          gs jnc 0x5cf2
00005C7E  726F              jc 0x5cef
00005C80  7945              jns 0x5cc7
00005C82  52                push edx
00005C83  53                push ebx
00005C84  345F              xor al,0x5f
00005C86  50                push eax
00005C87  53                push ebx
00005C88  335F00            xor ebx,[edi+0x0]
00005C8B  5F                pop edi
00005C8C  5A                pop edx
00005C8D  4E                dec esi
00005C8E  53                push ebx
00005C8F  7436              jz 0x5cc7
00005C91  7665              jna 0x5cf8
00005C93  63746F72          arpl [edi+ebp*2+0x72],si
00005C97  49                dec ecx
00005C98  53                push ebx
00005C99  7434              jz 0x5ccf
00005C9B  7061              jo 0x5cfe
00005C9D  6972496453305F    imul esi,[edx+0x49],dword 0x5f305364
00005CA4  49                dec ecx
00005CA5  69694545536149    imul ebp,[ecx+0x45],dword 0x49615345
00005CAC  53                push ebx
00005CAD  325F45            xor bl,[edi+0x45]
00005CB0  45                inc ebp
00005CB1  38706F            cmp [eax+0x6f],dh
00005CB4  705F              jo 0x5d15
00005CB6  626163            bound esp,[ecx+0x63]
00005CB9  6B457600          imul eax,[ebp+0x76],byte +0x0
00005CBD  5F                pop edi
00005CBE  5A                pop edx
00005CBF  4E                dec esi
00005CC0  395F5F            cmp [edi+0x5f],ebx
00005CC3  676E              a16 outsb
00005CC5  755F              jnz 0x5d26
00005CC7  637878            arpl [eax+0x78],di
00005CCA  657149            gs jno 0x5d16
00005CCD  50                push eax
00005CCE  4B                dec ebx
00005CCF  53                push ebx
00005CD0  7434              jz 0x5d06
00005CD2  7061              jo 0x5d35
00005CD4  6972496453315F    imul esi,[edx+0x49],dword 0x5f315364
00005CDB  49                dec ecx
00005CDC  69694545537436    imul ebp,[ecx+0x45],dword 0x36745345
00005CE3  7665              jna 0x5d4a
00005CE5  63746F72          arpl [edi+ebp*2+0x72],si
00005CE9  49                dec ecx
00005CEA  53                push ebx
00005CEB  335F53            xor ebx,[edi+0x53]
00005CEE  61                popa
00005CEF  49                dec ecx
00005CF0  53                push ebx
00005CF1  335F45            xor ebx,[edi+0x45]
00005CF4  45                inc ebp
00005CF5  45                inc ebp
00005CF6  45                inc ebp
00005CF7  62524B            bound edx,[edx+0x4b]
00005CFA  4E                dec esi
00005CFB  53                push ebx
00005CFC  5F                pop edi
00005CFD  3137              xor [edi],esi
00005CFF  5F                pop edi
00005D00  5F                pop edi
00005D01  6E                outsb
00005D02  6F                outsd
00005D03  726D              jc 0x5d72
00005D05  61                popa
00005D06  6C                insb
00005D07  5F                pop edi
00005D08  6974657261746F72  imul esi,[ebp+0x72],dword 0x726f7461
00005D10  49                dec ecx
00005D11  54                push esp
00005D12  5F                pop edi
00005D13  54                push esp
00005D14  305F45            xor [edi+0x45],bl
00005D17  45                inc ebp
00005D18  53                push ebx
00005D19  45                inc ebp
00005D1A  5F                pop edi
00005D1B  005F5A            add [edi+0x5a],bl
00005D1E  4E                dec esi
00005D1F  53                push ebx
00005D20  7431              jz 0x5d53
00005D22  325F56            xor bl,[edi+0x56]
00005D25  6563746F72        arpl [gs:edi+ebp*2+0x72],si
00005D2A  5F                pop edi
00005D2B  626173            bound esp,[ecx+0x73]
00005D2E  6549              gs dec ecx
00005D30  53                push ebx
00005D31  7434              jz 0x5d67
00005D33  7061              jo 0x5d96
00005D35  6972496453305F    imul esi,[edx+0x49],dword 0x5f305364
00005D3C  49                dec ecx
00005D3D  69694545536149    imul ebp,[ecx+0x45],dword 0x49615345
00005D44  53                push ebx
00005D45  325F45            xor bl,[edi+0x45]
00005D48  45                inc ebp
00005D49  3132              xor [edx],esi
00005D4B  5F                pop edi
00005D4C  56                push esi
00005D4D  6563746F72        arpl [gs:edi+ebp*2+0x72],si
00005D52  5F                pop edi
00005D53  696D706C433145    imul ebp,[ebp+0x70],dword 0x4531436c
00005D5A  7600              jna 0x5d5c
00005D5C  5F                pop edi
00005D5D  5A                pop edx
00005D5E  53                push ebx
00005D5F  7431              jz 0x5d92
00005D61  38756E            cmp [ebp+0x6e],dh
00005D64  696E697469616C    imul ebp,[esi+0x69],dword 0x6c616974
00005D6B  697A65645F636F    imul edi,[edx+0x65],dword 0x6f635f64
00005D72  7079              jo 0x5ded
00005D74  49                dec ecx
00005D75  4E                dec esi
00005D76  395F5F            cmp [edi+0x5f],ebx
00005D79  676E              a16 outsb
00005D7B  755F              jnz 0x5ddc
00005D7D  637878            arpl [eax+0x78],di
00005D80  3137              xor [edi],esi
00005D82  5F                pop edi
00005D83  5F                pop edi
00005D84  6E                outsb
00005D85  6F                outsd
00005D86  726D              jc 0x5df5
00005D88  61                popa
00005D89  6C                insb
00005D8A  5F                pop edi
00005D8B  6974657261746F72  imul esi,[ebp+0x72],dword 0x726f7461
00005D93  49                dec ecx
00005D94  50                push eax
00005D95  4B                dec ebx
00005D96  53                push ebx
00005D97  7434              jz 0x5dcd
00005D99  7061              jo 0x5dfc
00005D9B  6972496453325F    imul esi,[edx+0x49],dword 0x5f325364
00005DA2  49                dec ecx
00005DA3  69694545537436    imul ebp,[ecx+0x45],dword 0x36745345
00005DAA  7665              jna 0x5e11
00005DAC  63746F72          arpl [edi+ebp*2+0x72],si
00005DB0  49                dec ecx
00005DB1  53                push ebx
00005DB2  345F              xor al,0x5f
00005DB4  53                push ebx
00005DB5  61                popa
00005DB6  49                dec ecx
00005DB7  53                push ebx
00005DB8  345F              xor al,0x5f
00005DBA  45                inc ebp
00005DBB  45                inc ebp
00005DBC  45                inc ebp
00005DBD  45                inc ebp
00005DBE  50                push eax
00005DBF  53                push ebx
00005DC0  345F              xor al,0x5f
00005DC2  45                inc ebp
00005DC3  54                push esp
00005DC4  305F54            xor [edi+0x54],bl
00005DC7  5F                pop edi
00005DC8  53                push ebx
00005DC9  44                inc esp
00005DCA  5F                pop edi
00005DCB  53                push ebx
00005DCC  43                inc ebx
00005DCD  5F                pop edi
00005DCE  005F5A            add [edi+0x5a],bl
00005DD1  4E                dec esi
00005DD2  4B                dec ebx
00005DD3  395F5F            cmp [edi+0x5f],ebx
00005DD6  676E              a16 outsb
00005DD8  755F              jnz 0x5e39
00005DDA  637878            arpl [eax+0x78],di
00005DDD  3133              xor [ebx],esi
00005DDF  6E                outsb
00005DE0  65775F            gs ja 0x5e42
00005DE3  61                popa
00005DE4  6C                insb
00005DE5  6C                insb
00005DE6  6F                outsd
00005DE7  636174            arpl [ecx+0x74],sp
00005DEA  6F                outsd
00005DEB  7249              jc 0x5e36
00005DED  53                push ebx
00005DEE  7434              jz 0x5e24
00005DF0  7061              jo 0x5e53
00005DF2  6972496453315F    imul esi,[edx+0x49],dword 0x5f315364
00005DF9  49                dec ecx
00005DFA  6969454545386D    imul ebp,[ecx+0x45],dword 0x6d384545
00005E01  61                popa
00005E02  785F              js 0x5e63
00005E04  7369              jnc 0x5e6f
00005E06  7A65              jpe 0x5e6d
00005E08  45                inc ebp
00005E09  7600              jna 0x5e0b
00005E0B  5F                pop edi
00005E0C  5A                pop edx
00005E0D  53                push ebx
00005E0E  7433              jz 0x5e43
00005E10  345F              xor al,0x5f
00005E12  5F                pop edi
00005E13  756E              jnz 0x5e83
00005E15  696E697469616C    imul ebp,[esi+0x69],dword 0x6c616974
00005E1C  697A65645F6D6F    imul edi,[edx+0x65],dword 0x6f6d5f64
00005E23  7665              jna 0x5e8a
00005E25  5F                pop edi
00005E26  69665F6E6F6578    imul esp,[esi+0x5f],dword 0x78656f6e
00005E2D  636570            arpl [ebp+0x70],sp
00005E30  745F              jz 0x5e91
00005E32  61                popa
00005E33  49                dec ecx
00005E34  50                push eax
00005E35  53                push ebx
00005E36  7434              jz 0x5e6c
00005E38  7061              jo 0x5e9b
00005E3A  6972496453305F    imul esi,[edx+0x49],dword 0x5f305364
00005E41  49                dec ecx
00005E42  6969454553335F    imul ebp,[ecx+0x45],dword 0x5f335345
00005E49  53                push ebx
00005E4A  61                popa
00005E4B  49                dec ecx
00005E4C  53                push ebx
00005E4D  325F45            xor bl,[edi+0x45]
00005E50  45                inc ebp
00005E51  54                push esp
00005E52  305F54            xor [edi+0x54],bl
00005E55  5F                pop edi
00005E56  53                push ebx
00005E57  365F              ss pop edi
00005E59  53                push ebx
00005E5A  355F525431        xor eax,0x3154525f
00005E5F  5F                pop edi
00005E60  005F5F            add [edi+0x5f],bl
00005E63  637861            arpl [eax+0x61],di
00005E66  5F                pop edi
00005E67  61                popa
00005E68  7465              jz 0x5ecf
00005E6A  7869              js 0x5ed5
00005E6C  7440              jz 0x5eae
00005E6E  40                inc eax
00005E6F  47                inc edi
00005E70  4C                dec esp
00005E71  49                dec ecx
00005E72  42                inc edx
00005E73  43                inc ebx
00005E74  5F                pop edi
00005E75  322E              xor ch,[esi]
00005E77  312E              xor [esi],ebp
00005E79  3300              xor eax,[eax]
00005E7B  5F                pop edi
00005E7C  5A                pop edx
00005E7D  4E                dec esi
00005E7E  53                push ebx
00005E7F  7431              jz 0x5eb2
00005E81  3470              xor al,0x70
00005E83  7269              jc 0x5eee
00005E85  6F                outsd
00005E86  7269              jc 0x5ef1
00005E88  7479              jz 0x5f03
00005E8A  5F                pop edi
00005E8B  7175              jno 0x5f02
00005E8D  657565            gs jnz 0x5ef5
00005E90  49                dec ecx
00005E91  53                push ebx
00005E92  7434              jz 0x5ec8
00005E94  7061              jo 0x5ef7
00005E96  6972496453305F    imul esi,[edx+0x49],dword 0x5f305364
00005E9D  49                dec ecx
00005E9E  69694545537436    imul ebp,[ecx+0x45],dword 0x36745345
00005EA5  7665              jna 0x5f0c
00005EA7  63746F72          arpl [edi+ebp*2+0x72],si
00005EAB  49                dec ecx
00005EAC  53                push ebx
00005EAD  325F53            xor bl,[edi+0x53]
00005EB0  61                popa
00005EB1  49                dec ecx
00005EB2  53                push ebx
00005EB3  325F45            xor bl,[edi+0x45]
00005EB6  45                inc ebp
00005EB7  53                push ebx
00005EB8  7434              jz 0x5eee
00005EBA  6C                insb
00005EBB  657373            gs jnc 0x5f31
00005EBE  49                dec ecx
00005EBF  53                push ebx
00005EC0  325F45            xor bl,[edi+0x45]
00005EC3  45                inc ebp
00005EC4  3470              xor al,0x70
00005EC6  7573              jnz 0x5f3b
00005EC8  6845524B53        push dword 0x534b5245
00005ECD  325F00            xor bl,[edi+0x0]
00005ED0  5F                pop edi
00005ED1  5F                pop edi
00005ED2  6C                insb
00005ED3  6962635F637375    imul esp,[edx+0x63],dword 0x7573635f
00005EDA  5F                pop edi
00005EDB  66696E69005F      imul bp,[esi+0x69],word 0x5f00
00005EE1  5A                pop edx
00005EE2  4E                dec esi
00005EE3  53                push ebx
00005EE4  7431              jz 0x5f17
00005EE6  325F56            xor bl,[edi+0x56]
00005EE9  6563746F72        arpl [gs:edi+ebp*2+0x72],si
00005EEE  5F                pop edi
00005EEF  626173            bound esp,[ecx+0x73]
00005EF2  6549              gs dec ecx
00005EF4  53                push ebx
00005EF5  7434              jz 0x5f2b
00005EF7  7061              jo 0x5f5a
00005EF9  6972496453305F    imul esi,[edx+0x49],dword 0x5f305364
00005F00  49                dec ecx
00005F01  69694545536149    imul ebp,[ecx+0x45],dword 0x49615345
00005F08  53                push ebx
00005F09  325F45            xor bl,[edi+0x45]
00005F0C  45                inc ebp
00005F0D  3132              xor [edx],esi
00005F0F  5F                pop edi
00005F10  56                push esi
00005F11  6563746F72        arpl [gs:edi+ebp*2+0x72],si
00005F16  5F                pop edi
00005F17  696D706C443245    imul ebp,[ebp+0x70],dword 0x4532446c
00005F1E  7600              jna 0x5f20
00005F20  5F                pop edi
00005F21  7374              jnc 0x5f97
00005F23  61                popa
00005F24  7274              jc 0x5f9a
00005F26  005F5A            add [edi+0x5a],bl
00005F29  53                push ebx
00005F2A  746C              jz 0x5f98
00005F2C  7449              jz 0x5f77
00005F2E  69694562524B53    imul ebp,[ecx+0x45],dword 0x534b5262
00005F35  7434              jz 0x5f6b
00005F37  7061              jo 0x5f9a
00005F39  697249545F5430    imul esi,[edx+0x49],dword 0x30545f54
00005F40  5F                pop edi
00005F41  45                inc ebp
00005F42  53                push ebx
00005F43  355F006479        xor eax,0x7964005f
00005F48  005F5A            add [edi+0x5a],bl
00005F4B  4E                dec esi
00005F4C  53                push ebx
00005F4D  7436              jz 0x5f85
00005F4F  7665              jna 0x5fb6
00005F51  63746F72          arpl [edi+ebp*2+0x72],si
00005F55  49                dec ecx
00005F56  53                push ebx
00005F57  7434              jz 0x5f8d
00005F59  7061              jo 0x5fbc
00005F5B  6972496453305F    imul esi,[edx+0x49],dword 0x5f305364
00005F62  49                dec ecx
00005F63  69694545536149    imul ebp,[ecx+0x45],dword 0x49615345
00005F6A  53                push ebx
00005F6B  325F45            xor bl,[edi+0x45]
00005F6E  45                inc ebp
00005F6F  43                inc ebx
00005F70  314552            xor [ebp+0x52],eax
00005F73  4B                dec ebx
00005F74  53                push ebx
00005F75  345F              xor al,0x5f
00005F77  005F5A            add [edi+0x5a],bl
00005F7A  4E                dec esi
00005F7B  395F5F            cmp [edi+0x5f],ebx
00005F7E  676E              a16 outsb
00005F80  755F              jnz 0x5fe1
00005F82  637878            arpl [eax+0x78],di
00005F85  3137              xor [edi],esi
00005F87  5F                pop edi
00005F88  5F                pop edi
00005F89  6E                outsb
00005F8A  6F                outsd
00005F8B  726D              jc 0x5ffa
00005F8D  61                popa
00005F8E  6C                insb
00005F8F  5F                pop edi
00005F90  6974657261746F72  imul esi,[ebp+0x72],dword 0x726f7461
00005F98  49                dec ecx
00005F99  50                push eax
00005F9A  53                push ebx
00005F9B  7434              jz 0x5fd1
00005F9D  7061              jo 0x6000
00005F9F  6972496453315F    imul esi,[edx+0x49],dword 0x5f315364
00005FA6  49                dec ecx
00005FA7  69694545537436    imul ebp,[ecx+0x45],dword 0x36745345
00005FAE  7665              jna 0x6015
00005FB0  63746F72          arpl [edi+ebp*2+0x72],si
00005FB4  49                dec ecx
00005FB5  53                push ebx
00005FB6  335F53            xor ebx,[edi+0x53]
00005FB9  61                popa
00005FBA  49                dec ecx
00005FBB  53                push ebx
00005FBC  335F45            xor ebx,[edi+0x45]
00005FBF  45                inc ebp
00005FC0  45                inc ebp
00005FC1  43                inc ebx
00005FC2  314552            xor [ebp+0x52],eax
00005FC5  4B                dec ebx
00005FC6  53                push ebx
00005FC7  345F              xor al,0x5f
00005FC9  005F5A            add [edi+0x5a],bl
00005FCC  53                push ebx
00005FCD  7438              jz 0x6007
00005FCF  5F                pop edi
00005FD0  44                inc esp
00005FD1  657374            gs jnc 0x6048
00005FD4  726F              jc 0x6045
00005FD6  7949              jns 0x6021
00005FD8  50                push eax
00005FD9  53                push ebx
00005FDA  7434              jz 0x6010
00005FDC  7061              jo 0x603f
00005FDE  6972496453305F    imul esi,[edx+0x49],dword 0x5f305364
00005FE5  49                dec ecx
00005FE6  6969454553325F    imul ebp,[ecx+0x45],dword 0x5f325345
00005FED  45                inc ebp
00005FEE  7654              jna 0x6044
00005FF0  5F                pop edi
00005FF1  53                push ebx
00005FF2  345F              xor al,0x5f
00005FF4  52                push edx
00005FF5  53                push ebx
00005FF6  61                popa
00005FF7  49                dec ecx
00005FF8  54                push esp
00005FF9  305F45            xor [edi+0x45],bl
00005FFC  005F5F            add [edi+0x5f],bl
00005FFF  676D              a16 insd
00006001  6F                outsd
00006002  6E                outsb
00006003  5F                pop edi
00006004  7374              jnc 0x607a
00006006  61                popa
00006007  7274              jc 0x607d
00006009  5F                pop edi
0000600A  5F                pop edi
0000600B  005F4A            add [edi+0x4a],bl
0000600E  765F              jna 0x606f
00006010  52                push edx
00006011  6567697374657243  imul esi,[gs:bp+di+0x74],dword 0x6c437265
         -6C
0000601A  61                popa
0000601B  7373              jnc 0x6090
0000601D  657300            gs jnc 0x6020
00006020  5F                pop edi
00006021  5A                pop edx
00006022  53                push ebx
00006023  7431              jz 0x6056
00006025  305F5F            xor [edi+0x5f],bl
00006028  706F              jo 0x6099
0000602A  705F              jo 0x608b
0000602C  6865617049        push dword 0x49706165
00006031  4E                dec esi
00006032  395F5F            cmp [edi+0x5f],ebx
00006035  676E              a16 outsb
00006037  755F              jnz 0x6098
00006039  637878            arpl [eax+0x78],di
0000603C  3137              xor [edi],esi
0000603E  5F                pop edi
0000603F  5F                pop edi
00006040  6E                outsb
00006041  6F                outsd
00006042  726D              jc 0x60b1
00006044  61                popa
00006045  6C                insb
00006046  5F                pop edi
00006047  6974657261746F72  imul esi,[ebp+0x72],dword 0x726f7461
0000604F  49                dec ecx
00006050  50                push eax
00006051  53                push ebx
00006052  7434              jz 0x6088
00006054  7061              jo 0x60b7
00006056  6972496453325F    imul esi,[edx+0x49],dword 0x5f325364
0000605D  49                dec ecx
0000605E  69694545537436    imul ebp,[ecx+0x45],dword 0x36745345
00006065  7665              jna 0x60cc
00006067  63746F72          arpl [edi+ebp*2+0x72],si
0000606B  49                dec ecx
0000606C  53                push ebx
0000606D  345F              xor al,0x5f
0000606F  53                push ebx
00006070  61                popa
00006071  49                dec ecx
00006072  53                push ebx
00006073  345F              xor al,0x5f
00006075  45                inc ebp
00006076  45                inc ebp
00006077  45                inc ebp
00006078  45                inc ebp
00006079  53                push ebx
0000607A  7434              jz 0x60b0
0000607C  6C                insb
0000607D  657373            gs jnc 0x60f3
00006080  49                dec ecx
00006081  53                push ebx
00006082  345F              xor al,0x5f
00006084  45                inc ebp
00006085  45                inc ebp
00006086  7654              jna 0x60dc
00006088  5F                pop edi
00006089  53                push ebx
0000608A  43                inc ebx
0000608B  5F                pop edi
0000608C  53                push ebx
0000608D  43                inc ebx
0000608E  5F                pop edi
0000608F  54                push esp
00006090  305F00            xor [edi+0x0],bl
00006093  5F                pop edi
00006094  66705F            o16 jo 0x60f6
00006097  6877005F5A        push dword 0x5a5f0077
0000609C  4E                dec esi
0000609D  395F5F            cmp [edi+0x5f],ebx
000060A0  676E              a16 outsb
000060A2  755F              jnz 0x6103
000060A4  637878            arpl [eax+0x78],di
000060A7  3133              xor [ebx],esi
000060A9  6E                outsb
000060AA  65775F            gs ja 0x610c
000060AD  61                popa
000060AE  6C                insb
000060AF  6C                insb
000060B0  6F                outsd
000060B1  636174            arpl [ecx+0x74],sp
000060B4  6F                outsd
000060B5  7249              jc 0x6100
000060B7  53                push ebx
000060B8  7434              jz 0x60ee
000060BA  7061              jo 0x611d
000060BC  6972496453315F    imul esi,[edx+0x49],dword 0x5f315364
000060C3  49                dec ecx
000060C4  69694545453861    imul ebp,[ecx+0x45],dword 0x61384545
000060CB  6C                insb
000060CC  6C                insb
000060CD  6F                outsd
000060CE  636174            arpl [ecx+0x74],sp
000060D1  6545              gs inc ebp
000060D3  6A50              push byte +0x50
000060D5  4B                dec ebx
000060D6  7600              jna 0x60d8
000060D8  5F                pop edi
000060D9  5A                pop edx
000060DA  646C              fs insb
000060DC  50                push eax
000060DD  7640              jna 0x611f
000060DF  40                inc eax
000060E0  47                inc edi
000060E1  4C                dec esp
000060E2  49                dec ecx
000060E3  42                inc edx
000060E4  43                inc ebx
000060E5  58                pop eax
000060E6  58                pop eax
000060E7  5F                pop edi
000060E8  332E              xor ebp,[esi]
000060EA  3400              xor al,0x0
000060EC  5F                pop edi
000060ED  5A                pop edx
000060EE  35736F6C76        xor eax,0x766c6f73
000060F3  657600            gs jna 0x60f6
000060F6  5F                pop edi
000060F7  5A                pop edx
000060F8  4E                dec esi
000060F9  395F5F            cmp [edi+0x5f],ebx
000060FC  676E              a16 outsb
000060FE  755F              jnz 0x615f
00006100  637878            arpl [eax+0x78],di
00006103  3133              xor [ebx],esi
00006105  6E                outsb
00006106  65775F            gs ja 0x6168
00006109  61                popa
0000610A  6C                insb
0000610B  6C                insb
0000610C  6F                outsd
0000610D  636174            arpl [ecx+0x74],sp
00006110  6F                outsd
00006111  7249              jc 0x615c
00006113  53                push ebx
00006114  7434              jz 0x614a
00006116  7061              jo 0x6179
00006118  6972496453315F    imul esi,[edx+0x49],dword 0x5f315364
0000611F  49                dec ecx
00006120  69694545453764    imul ebp,[ecx+0x45],dword 0x64374545
00006127  657374            gs jnc 0x619e
0000612A  726F              jc 0x619b
0000612C  7945              jns 0x6173
0000612E  50                push eax
0000612F  53                push ebx
00006130  335F00            xor ebx,[edi+0x0]
00006133  5F                pop edi
00006134  5A                pop edx
00006135  4E                dec esi
00006136  4B                dec ebx
00006137  53                push ebx
00006138  7436              jz 0x6170
0000613A  7665              jna 0x61a1
0000613C  63746F72          arpl [edi+ebp*2+0x72],si
00006140  49                dec ecx
00006141  53                push ebx
00006142  7434              jz 0x6178
00006144  7061              jo 0x61a7
00006146  6972496453305F    imul esi,[edx+0x49],dword 0x5f305364
0000614D  49                dec ecx
0000614E  69694545536149    imul ebp,[ecx+0x45],dword 0x49615345
00006155  53                push ebx
00006156  325F45            xor bl,[edi+0x45]
00006159  45                inc ebp
0000615A  35656D7074        xor eax,0x74706d65
0000615F  7945              jns 0x61a6
00006161  7600              jna 0x6163
00006163  5F                pop edi
00006164  5A                pop edx
00006165  4E                dec esi
00006166  4B                dec ebx
00006167  53                push ebx
00006168  7431              jz 0x619b
0000616A  3470              xor al,0x70
0000616C  7269              jc 0x61d7
0000616E  6F                outsd
0000616F  7269              jc 0x61da
00006171  7479              jz 0x61ec
00006173  5F                pop edi
00006174  7175              jno 0x61eb
00006176  657565            gs jnz 0x61de
00006179  49                dec ecx
0000617A  53                push ebx
0000617B  7434              jz 0x61b1
0000617D  7061              jo 0x61e0
0000617F  6972496453305F    imul esi,[edx+0x49],dword 0x5f305364
00006186  49                dec ecx
00006187  69694545537436    imul ebp,[ecx+0x45],dword 0x36745345
0000618E  7665              jna 0x61f5
00006190  63746F72          arpl [edi+ebp*2+0x72],si
00006194  49                dec ecx
00006195  53                push ebx
00006196  325F53            xor bl,[edi+0x53]
00006199  61                popa
0000619A  49                dec ecx
0000619B  53                push ebx
0000619C  325F45            xor bl,[edi+0x45]
0000619F  45                inc ebp
000061A0  53                push ebx
000061A1  7434              jz 0x61d7
000061A3  6C                insb
000061A4  657373            gs jnc 0x621a
000061A7  49                dec ecx
000061A8  53                push ebx
000061A9  325F45            xor bl,[edi+0x45]
000061AC  45                inc ebp
000061AD  33746F70          xor esi,[edi+ebp*2+0x70]
000061B1  45                inc ebp
000061B2  7600              jna 0x61b4
000061B4  5F                pop edi
000061B5  66696E69005F      imul bp,[esi+0x69],word 0x5f00
000061BB  5A                pop edx
000061BC  4E                dec esi
000061BD  53                push ebx
000061BE  7431              jz 0x61f1
000061C0  325F56            xor bl,[edi+0x56]
000061C3  6563746F72        arpl [gs:edi+ebp*2+0x72],si
000061C8  5F                pop edi
000061C9  626173            bound esp,[ecx+0x73]
000061CC  6549              gs dec ecx
000061CE  53                push ebx
000061CF  7434              jz 0x6205
000061D1  7061              jo 0x6234
000061D3  6972496453305F    imul esi,[edx+0x49],dword 0x5f305364
000061DA  49                dec ecx
000061DB  69694545536149    imul ebp,[ecx+0x45],dword 0x49615345
000061E2  53                push ebx
000061E3  325F45            xor bl,[edi+0x45]
000061E6  45                inc ebp
000061E7  43                inc ebx
000061E8  314576            xor [ebp+0x76],eax
000061EB  005F5A            add [edi+0x5a],bl
000061EE  4E                dec esi
000061EF  53                push ebx
000061F0  7436              jz 0x6228
000061F2  7665              jna 0x6259
000061F4  63746F72          arpl [edi+ebp*2+0x72],si
000061F8  49                dec ecx
000061F9  53                push ebx
000061FA  7434              jz 0x6230
000061FC  7061              jo 0x625f
000061FE  6972496453305F    imul esi,[edx+0x49],dword 0x5f305364
00006205  49                dec ecx
00006206  69694545536149    imul ebp,[ecx+0x45],dword 0x49615345
0000620D  53                push ebx
0000620E  325F45            xor bl,[edi+0x45]
00006211  45                inc ebp
00006212  43                inc ebx
00006213  324576            xor al,[ebp+0x76]
00006216  005F5F            add [edi+0x5f],bl
00006219  637861            arpl [eax+0x61],di
0000621C  5F                pop edi
0000621D  7265              jc 0x6284
0000621F  7468              jz 0x6289
00006221  726F              jc 0x6292
00006223  7740              ja 0x6265
00006225  40                inc eax
00006226  43                inc ebx
00006227  58                pop eax
00006228  58                pop eax
00006229  41                inc ecx
0000622A  42                inc edx
0000622B  49                dec ecx
0000622C  5F                pop edi
0000622D  312E              xor [esi],ebp
0000622F  3300              xor eax,[eax]
00006231  5F                pop edi
00006232  5A                pop edx
00006233  4E                dec esi
00006234  395F5F            cmp [edi+0x5f],ebx
00006237  676E              a16 outsb
00006239  755F              jnz 0x629a
0000623B  637878            arpl [eax+0x78],di
0000623E  3133              xor [ebx],esi
00006240  6E                outsb
00006241  65775F            gs ja 0x62a3
00006244  61                popa
00006245  6C                insb
00006246  6C                insb
00006247  6F                outsd
00006248  636174            arpl [ecx+0x74],sp
0000624B  6F                outsd
0000624C  7249              jc 0x6297
0000624E  53                push ebx
0000624F  7434              jz 0x6285
00006251  7061              jo 0x62b4
00006253  6972496453315F    imul esi,[edx+0x49],dword 0x5f315364
0000625A  49                dec ecx
0000625B  69694545454331    imul ebp,[ecx+0x45],dword 0x31434545
00006262  45                inc ebp
00006263  7600              jna 0x6265
00006265  48                dec eax
00006266  005F5A            add [edi+0x5a],bl
00006269  4E                dec esi
0000626A  53                push ebx
0000626B  7436              jz 0x62a3
0000626D  7665              jna 0x62d4
0000626F  63746F72          arpl [edi+ebp*2+0x72],si
00006273  49                dec ecx
00006274  53                push ebx
00006275  7434              jz 0x62ab
00006277  7061              jo 0x62da
00006279  6972496453305F    imul esi,[edx+0x49],dword 0x5f305364
00006280  49                dec ecx
00006281  69694545536149    imul ebp,[ecx+0x45],dword 0x49615345
00006288  53                push ebx
00006289  325F45            xor bl,[edi+0x45]
0000628C  45                inc ebp
0000628D  44                inc esp
0000628E  314576            xor [ebp+0x76],eax
00006291  005F5A            add [edi+0x5a],bl
00006294  4E                dec esi
00006295  53                push ebx
00006296  61                popa
00006297  49                dec ecx
00006298  53                push ebx
00006299  7434              jz 0x62cf
0000629B  7061              jo 0x62fe
0000629D  69724964535F49    imul esi,[edx+0x49],dword 0x495f5364
000062A4  69694545454432    imul ebp,[ecx+0x45],dword 0x32444545
000062AB  45                inc ebp
000062AC  7600              jna 0x62ae
000062AE  5F                pop edi
000062AF  5A                pop edx
000062B0  4E                dec esi
000062B1  53                push ebx
000062B2  7438              jz 0x62ec
000062B4  696F735F626173    imul ebp,[edi+0x73],dword 0x7361625f
000062BB  653449            gs xor al,0x49
000062BE  6E                outsb
000062BF  6974433145764040  imul esi,[ebx+eax*2+0x31],dword 0x40407645
000062C7  47                inc edi
000062C8  4C                dec esp
000062C9  49                dec ecx
000062CA  42                inc edx
000062CB  43                inc ebx
000062CC  58                pop eax
000062CD  58                pop eax
000062CE  5F                pop edi
000062CF  332E              xor ebp,[esi]
000062D1  3400              xor al,0x0
000062D3  5F                pop edi
000062D4  5A                pop edx
000062D5  4E                dec esi
000062D6  395F5F            cmp [edi+0x5f],ebx
000062D9  676E              a16 outsb
000062DB  755F              jnz 0x633c
000062DD  637878            arpl [eax+0x78],di
000062E0  3137              xor [edi],esi
000062E2  5F                pop edi
000062E3  5F                pop edi
000062E4  6E                outsb
000062E5  6F                outsd
000062E6  726D              jc 0x6355
000062E8  61                popa
000062E9  6C                insb
000062EA  5F                pop edi
000062EB  6974657261746F72  imul esi,[ebp+0x72],dword 0x726f7461
000062F3  49                dec ecx
000062F4  50                push eax
000062F5  4B                dec ebx
000062F6  53                push ebx
000062F7  7434              jz 0x632d
000062F9  7061              jo 0x635c
000062FB  6972496453315F    imul esi,[edx+0x49],dword 0x5f315364
00006302  49                dec ecx
00006303  69694545537436    imul ebp,[ecx+0x45],dword 0x36745345
0000630A  7665              jna 0x6371
0000630C  63746F72          arpl [edi+ebp*2+0x72],si
00006310  49                dec ecx
00006311  53                push ebx
00006312  335F53            xor ebx,[edi+0x53]
00006315  61                popa
00006316  49                dec ecx
00006317  53                push ebx
00006318  335F45            xor ebx,[edi+0x45]
0000631B  45                inc ebp
0000631C  45                inc ebp
0000631D  7070              jo 0x638f
0000631F  45                inc ebp
00006320  7600              jna 0x6322
00006322  5F                pop edi
00006323  5A                pop edx
00006324  53                push ebx
00006325  7438              jz 0x635f
00006327  5F                pop edi
00006328  44                inc esp
00006329  657374            gs jnc 0x63a0
0000632C  726F              jc 0x639d
0000632E  7949              jns 0x6379
00006330  50                push eax
00006331  53                push ebx
00006332  7434              jz 0x6368
00006334  7061              jo 0x6397
00006336  6972496453305F    imul esi,[edx+0x49],dword 0x5f305364
0000633D  49                dec ecx
0000633E  69694545457654    imul ebp,[ecx+0x45],dword 0x54764545
00006345  5F                pop edi
00006346  53                push ebx
00006347  345F              xor al,0x5f
00006349  005F5A            add [edi+0x5a],bl
0000634C  53                push ebx
0000634D  7431              jz 0x6380
0000634F  33636F            xor esp,[ebx+0x6f]
00006352  7079              jo 0x63cd
00006354  5F                pop edi
00006355  626163            bound esp,[ecx+0x63]
00006358  6B776172          imul esi,[edi+0x61],byte +0x72
0000635C  6449              fs dec ecx
0000635E  50                push eax
0000635F  53                push ebx
00006360  7434              jz 0x6396
00006362  7061              jo 0x63c5
00006364  6972496453305F    imul esi,[edx+0x49],dword 0x5f305364
0000636B  49                dec ecx
0000636C  6969454553335F    imul ebp,[ecx+0x45],dword 0x5f335345
00006373  45                inc ebp
00006374  54                push esp
00006375  305F54            xor [edi+0x54],bl
00006378  5F                pop edi
00006379  53                push ebx
0000637A  355F53345F        xor eax,0x5f34535f
0000637F  005F5A            add [edi+0x5a],bl
00006382  53                push ebx
00006383  7431              jz 0x63b6
00006385  305F43            xor [edi+0x43],bl
00006388  6F                outsd
00006389  6E                outsb
0000638A  7374              jnc 0x6400
0000638C  7275              jc 0x6403
0000638E  63744953          arpl [ecx+ecx*2+0x53],si
00006392  7434              jz 0x63c8
00006394  7061              jo 0x63f7
00006396  6972496453305F    imul esi,[edx+0x49],dword 0x5f305364
0000639D  49                dec ecx
0000639E  6969454553325F    imul ebp,[ecx+0x45],dword 0x5f325345
000063A5  45                inc ebp
000063A6  7650              jna 0x63f8
000063A8  54                push esp
000063A9  5F                pop edi
000063AA  52                push edx
000063AB  4B                dec ebx
000063AC  54                push esp
000063AD  305F00            xor [edi+0x0],bl
000063B0  5F                pop edi
000063B1  5A                pop edx
000063B2  4E                dec esi
000063B3  395F5F            cmp [edi+0x5f],ebx
000063B6  676E              a16 outsb
000063B8  755F              jnz 0x6419
000063BA  637878            arpl [eax+0x78],di
000063BD  3133              xor [ebx],esi
000063BF  6E                outsb
000063C0  65775F            gs ja 0x6422
000063C3  61                popa
000063C4  6C                insb
000063C5  6C                insb
000063C6  6F                outsd
000063C7  636174            arpl [ecx+0x74],sp
000063CA  6F                outsd
000063CB  7249              jc 0x6416
000063CD  53                push ebx
000063CE  7434              jz 0x6404
000063D0  7061              jo 0x6433
000063D2  6972496453315F    imul esi,[edx+0x49],dword 0x5f315364
000063D9  49                dec ecx
000063DA  69694545454431    imul ebp,[ecx+0x45],dword 0x31444545
000063E1  45                inc ebp
000063E2  7600              jna 0x63e4
000063E4  5F                pop edi
000063E5  5A                pop edx
000063E6  4E                dec esi
000063E7  4B                dec ebx
000063E8  53                push ebx
000063E9  7434              jz 0x641f
000063EB  6C                insb
000063EC  657373            gs jnc 0x6462
000063EF  49                dec ecx
000063F0  53                push ebx
000063F1  7434              jz 0x6427
000063F3  7061              jo 0x6456
000063F5  6972496453305F    imul esi,[edx+0x49],dword 0x5f305364
000063FC  49                dec ecx
000063FD  6969454545636C    imul ebp,[ecx+0x45],dword 0x6c634545
00006404  45                inc ebp
00006405  52                push edx
00006406  4B                dec ebx
00006407  53                push ebx
00006408  325F53            xor bl,[edi+0x53]
0000640B  355F005F5A        xor eax,0x5a5f005f
00006410  4E                dec esi
00006411  4B                dec ebx
00006412  53                push ebx
00006413  7431              jz 0x6446
00006415  325F56            xor bl,[edi+0x56]
00006418  6563746F72        arpl [gs:edi+ebp*2+0x72],si
0000641D  5F                pop edi
0000641E  626173            bound esp,[ecx+0x73]
00006421  6549              gs dec ecx
00006423  53                push ebx
00006424  7434              jz 0x645a
00006426  7061              jo 0x6489
00006428  6972496453305F    imul esi,[edx+0x49],dword 0x5f305364
0000642F  49                dec ecx
00006430  69694545536149    imul ebp,[ecx+0x45],dword 0x49615345
00006437  53                push ebx
00006438  325F45            xor bl,[edi+0x45]
0000643B  45                inc ebp
0000643C  3139              xor [ecx],edi
0000643E  5F                pop edi
0000643F  4D                dec ebp
00006440  5F                pop edi
00006441  6765745F          gs jz 0x64a4
00006445  54                push esp
00006446  705F              jo 0x64a7
00006448  61                popa
00006449  6C                insb
0000644A  6C                insb
0000644B  6F                outsd
0000644C  636174            arpl [ecx+0x74],sp
0000644F  6F                outsd
00006450  7245              jc 0x6497
00006452  7600              jna 0x6454
00006454  5F                pop edi
00006455  5F                pop edi
00006456  6C                insb
00006457  6962635F737461    imul esp,[edx+0x63],dword 0x6174735f
0000645E  7274              jc 0x64d4
00006460  5F                pop edi
00006461  6D                insd
00006462  61                popa
00006463  696E4040474C49    imul ebp,[esi+0x40],dword 0x494c4740
0000646A  42                inc edx
0000646B  43                inc ebx
0000646C  5F                pop edi
0000646D  322E              xor ch,[esi]
0000646F  3000              xor [eax],al
00006471  5F                pop edi
00006472  5A                pop edx
00006473  4E                dec esi
00006474  4B                dec ebx
00006475  53                push ebx
00006476  7436              jz 0x64ae
00006478  7665              jna 0x64df
0000647A  63746F72          arpl [edi+ebp*2+0x72],si
0000647E  49                dec ecx
0000647F  53                push ebx
00006480  7434              jz 0x64b6
00006482  7061              jo 0x64e5
00006484  6972496453305F    imul esi,[edx+0x49],dword 0x5f305364
0000648B  49                dec ecx
0000648C  69694545536149    imul ebp,[ecx+0x45],dword 0x49615345
00006493  53                push ebx
00006494  325F45            xor bl,[edi+0x45]
00006497  45                inc ebp
00006498  386D61            cmp [ebp+0x61],ch
0000649B  785F              js 0x64fc
0000649D  7369              jnc 0x6508
0000649F  7A65              jpe 0x6506
000064A1  45                inc ebp
000064A2  7600              jna 0x64a4
000064A4  5F                pop edi
000064A5  5A                pop edx
000064A6  53                push ebx
000064A7  7431              jz 0x64da
000064A9  38756E            cmp [ebp+0x6e],dh
000064AC  696E697469616C    imul ebp,[esi+0x69],dword 0x6c616974
000064B3  697A65645F636F    imul edi,[edx+0x65],dword 0x6f635f64
000064BA  7079              jo 0x6535
000064BC  49                dec ecx
000064BD  50                push eax
000064BE  53                push ebx
000064BF  7434              jz 0x64f5
000064C1  7061              jo 0x6524
000064C3  6972496453305F    imul esi,[edx+0x49],dword 0x5f305364
000064CA  49                dec ecx
000064CB  6969454553335F    imul ebp,[ecx+0x45],dword 0x5f335345
000064D2  45                inc ebp
000064D3  54                push esp
000064D4  305F54            xor [edi+0x54],bl
000064D7  5F                pop edi
000064D8  53                push ebx
000064D9  355F53345F        xor eax,0x5f34535f
000064DE  005F5A            add [edi+0x5a],bl
000064E1  4E                dec esi
000064E2  53                push ebx
000064E3  7438              jz 0x651d
000064E5  696F735F626173    imul ebp,[edi+0x73],dword 0x7361625f
000064EC  653449            gs xor al,0x49
000064EF  6E                outsb
000064F0  6974443145764040  imul esi,[esp+eax*2+0x31],dword 0x40407645
000064F8  47                inc edi
000064F9  4C                dec esp
000064FA  49                dec ecx
000064FB  42                inc edx
000064FC  43                inc ebx
000064FD  58                pop eax
000064FE  58                pop eax
000064FF  5F                pop edi
00006500  332E              xor ebp,[esi]
00006502  3400              xor al,0x0
00006504  5F                pop edi
00006505  5A                pop edx
00006506  4E                dec esi
00006507  4B                dec ebx
00006508  395F5F            cmp [edi+0x5f],ebx
0000650B  676E              a16 outsb
0000650D  755F              jnz 0x656e
0000650F  637878            arpl [eax+0x78],di
00006512  3137              xor [edi],esi
00006514  5F                pop edi
00006515  5F                pop edi
00006516  6E                outsb
00006517  6F                outsd
00006518  726D              jc 0x6587
0000651A  61                popa
0000651B  6C                insb
0000651C  5F                pop edi
0000651D  6974657261746F72  imul esi,[ebp+0x72],dword 0x726f7461
00006525  49                dec ecx
00006526  50                push eax
00006527  53                push ebx
00006528  7434              jz 0x655e
0000652A  7061              jo 0x658d
0000652C  6972496453315F    imul esi,[edx+0x49],dword 0x5f315364
00006533  49                dec ecx
00006534  69694545537436    imul ebp,[ecx+0x45],dword 0x36745345
0000653B  7665              jna 0x65a2
0000653D  63746F72          arpl [edi+ebp*2+0x72],si
00006541  49                dec ecx
00006542  53                push ebx
00006543  335F53            xor ebx,[edi+0x53]
00006546  61                popa
00006547  49                dec ecx
00006548  53                push ebx
00006549  335F45            xor ebx,[edi+0x45]
0000654C  45                inc ebp
0000654D  45                inc ebp
0000654E  3462              xor al,0x62
00006550  61                popa
00006551  7365              jnc 0x65b8
00006553  45                inc ebp
00006554  7600              jna 0x6556
00006556  5F                pop edi
00006557  49                dec ecx
00006558  54                push esp
00006559  4D                dec ebp
0000655A  5F                pop edi
0000655B  64657265          gs jc 0x65c4
0000655F  676973746572544D  imul esi,[bp+di+0x74],dword 0x4d547265
00006567  43                inc ebx
00006568  6C                insb
00006569  6F                outsd
0000656A  6E                outsb
0000656B  6554              gs push esp
0000656D  61                popa
0000656E  626C6500          bound ebp,[ebp+0x0]
00006572  5F                pop edi
00006573  5A                pop edx
00006574  4E                dec esi
00006575  4B                dec ebx
00006576  53                push ebx
00006577  7436              jz 0x65af
00006579  7665              jna 0x65e0
0000657B  63746F72          arpl [edi+ebp*2+0x72],si
0000657F  49                dec ecx
00006580  53                push ebx
00006581  7434              jz 0x65b7
00006583  7061              jo 0x65e6
00006585  6972496453305F    imul esi,[edx+0x49],dword 0x5f305364
0000658C  49                dec ecx
0000658D  69694545536149    imul ebp,[ecx+0x45],dword 0x49615345
00006594  53                push ebx
00006595  325F45            xor bl,[edi+0x45]
00006598  45                inc ebp
00006599  33656E            xor esp,[ebp+0x6e]
0000659C  6445              fs inc ebp
0000659E  7600              jna 0x65a0
000065A0  5F                pop edi
000065A1  49                dec ecx
000065A2  4F                dec edi
000065A3  5F                pop edi
000065A4  7374              jnc 0x661a
000065A6  64696E5F75736564  imul ebp,[fs:esi+0x5f],dword 0x64657375
000065AE  005F5A            add [edi+0x5a],bl
000065B1  6E                outsb
000065B2  776A              ja 0x661e
000065B4  50                push eax
000065B5  7600              jna 0x65b7
000065B7  5F                pop edi
000065B8  5A                pop edx
000065B9  53                push ebx
000065BA  7433              jz 0x65ef
000065BC  6D                insd
000065BD  61                popa
000065BE  7849              js 0x6609
000065C0  6445              fs inc ebp
000065C2  52                push edx
000065C3  4B                dec ebx
000065C4  54                push esp
000065C5  5F                pop edi
000065C6  53                push ebx
000065C7  325F53            xor bl,[edi+0x53]
000065CA  325F00            xor bl,[edi+0x0]
000065CD  5F                pop edi
000065CE  49                dec ecx
000065CF  54                push esp
000065D0  4D                dec ebp
000065D1  5F                pop edi
000065D2  7265              jc 0x6639
000065D4  676973746572544D  imul esi,[bp+di+0x74],dword 0x4d547265
000065DC  43                inc ebx
000065DD  6C                insb
000065DE  6F                outsd
000065DF  6E                outsb
000065E0  6554              gs push esp
000065E2  61                popa
000065E3  626C6500          bound ebp,[ebp+0x0]
000065E7  5F                pop edi
000065E8  5F                pop edi
000065E9  6461              fs popa
000065EB  7461              jz 0x664e
000065ED  5F                pop edi
000065EE  7374              jnc 0x6664
000065F0  61                popa
000065F1  7274              jc 0x6667
000065F3  005F5A            add [edi+0x5a],bl
000065F6  53                push ebx
000065F7  7431              jz 0x662a
000065F9  315F5F            xor [edi+0x5f],ebx
000065FC  7075              jo 0x6673
000065FE  7368              jnc 0x6668
00006600  5F                pop edi
00006601  6865617049        push dword 0x49706165
00006606  4E                dec esi
00006607  395F5F            cmp [edi+0x5f],ebx
0000660A  676E              a16 outsb
0000660C  755F              jnz 0x666d
0000660E  637878            arpl [eax+0x78],di
00006611  3137              xor [edi],esi
00006613  5F                pop edi
00006614  5F                pop edi
00006615  6E                outsb
00006616  6F                outsd
00006617  726D              jc 0x6686
00006619  61                popa
0000661A  6C                insb
0000661B  5F                pop edi
0000661C  6974657261746F72  imul esi,[ebp+0x72],dword 0x726f7461
00006624  49                dec ecx
00006625  50                push eax
00006626  53                push ebx
00006627  7434              jz 0x665d
00006629  7061              jo 0x668c
0000662B  6972496453325F    imul esi,[edx+0x49],dword 0x5f325364
00006632  49                dec ecx
00006633  69694545537436    imul ebp,[ecx+0x45],dword 0x36745345
0000663A  7665              jna 0x66a1
0000663C  63746F72          arpl [edi+ebp*2+0x72],si
00006640  49                dec ecx
00006641  53                push ebx
00006642  345F              xor al,0x5f
00006644  53                push ebx
00006645  61                popa
00006646  49                dec ecx
00006647  53                push ebx
00006648  345F              xor al,0x5f
0000664A  45                inc ebp
0000664B  45                inc ebp
0000664C  45                inc ebp
0000664D  45                inc ebp
0000664E  6953345F537434    imul edx,[ebx+0x34],dword 0x3474535f
00006655  6C                insb
00006656  657373            gs jnc 0x66cc
00006659  49                dec ecx
0000665A  53                push ebx
0000665B  345F              xor al,0x5f
0000665D  45                inc ebp
0000665E  45                inc ebp
0000665F  7654              jna 0x66b5
00006661  5F                pop edi
00006662  54                push esp
00006663  305F53            xor [edi+0x53],bl
00006666  44                inc esp
00006667  5F                pop edi
00006668  54                push esp
00006669  315F54            xor [edi+0x54],ebx
0000666C  325F00            xor bl,[edi+0x0]
0000666F  5F                pop edi
00006670  5A                pop edx
00006671  4E                dec esi
00006672  4B                dec ebx
00006673  395F5F            cmp [edi+0x5f],ebx
00006676  676E              a16 outsb
00006678  755F              jnz 0x66d9
0000667A  637878            arpl [eax+0x78],di
0000667D  3137              xor [edi],esi
0000667F  5F                pop edi
00006680  5F                pop edi
00006681  6E                outsb
00006682  6F                outsd
00006683  726D              jc 0x66f2
00006685  61                popa
00006686  6C                insb
00006687  5F                pop edi
00006688  6974657261746F72  imul esi,[ebp+0x72],dword 0x726f7461
00006690  49                dec ecx
00006691  50                push eax
00006692  53                push ebx
00006693  7434              jz 0x66c9
00006695  7061              jo 0x66f8
00006697  6972496453315F    imul esi,[edx+0x49],dword 0x5f315364
0000669E  49                dec ecx
0000669F  69694545537436    imul ebp,[ecx+0x45],dword 0x36745345
000066A6  7665              jna 0x670d
000066A8  63746F72          arpl [edi+ebp*2+0x72],si
000066AC  49                dec ecx
000066AD  53                push ebx
000066AE  335F53            xor ebx,[edi+0x53]
000066B1  61                popa
000066B2  49                dec ecx
000066B3  53                push ebx
000066B4  335F45            xor ebx,[edi+0x45]
000066B7  45                inc ebp
000066B8  45                inc ebp
000066B9  706C              jo 0x6727
000066BB  45                inc ebp
000066BC  52                push edx
000066BD  4B                dec ebx
000066BE  69005F5A4E53      imul eax,[eax],dword 0x534e5a5f
000066C4  61                popa
000066C5  49                dec ecx
000066C6  53                push ebx
000066C7  7434              jz 0x66fd
000066C9  7061              jo 0x672c
000066CB  69724964535F49    imul esi,[edx+0x49],dword 0x495f5364
000066D2  69694545454331    imul ebp,[ecx+0x45],dword 0x31434545
000066D9  45                inc ebp
000066DA  52                push edx
000066DB  4B                dec ebx
000066DC  53                push ebx
000066DD  325F00            xor bl,[edi+0x0]
000066E0  5F                pop edi
000066E1  5A                pop edx
000066E2  4E                dec esi
000066E3  53                push ebx
000066E4  7431              jz 0x6717
000066E6  325F56            xor bl,[edi+0x56]
000066E9  6563746F72        arpl [gs:edi+ebp*2+0x72],si
000066EE  5F                pop edi
000066EF  626173            bound esp,[ecx+0x73]
000066F2  6549              gs dec ecx
000066F4  53                push ebx
000066F5  7434              jz 0x672b
000066F7  7061              jo 0x675a
000066F9  6972496453305F    imul esi,[edx+0x49],dword 0x5f305364
00006700  49                dec ecx
00006701  69694545536149    imul ebp,[ecx+0x45],dword 0x49615345
00006708  53                push ebx
00006709  325F45            xor bl,[edi+0x45]
0000670C  45                inc ebp
0000670D  44                inc esp
0000670E  324576            xor al,[ebp+0x76]
00006711  005F5A            add [edi+0x5a],bl
00006714  4E                dec esi
00006715  4B                dec ebx
00006716  53                push ebx
00006717  7436              jz 0x674f
00006719  7665              jna 0x6780
0000671B  63746F72          arpl [edi+ebp*2+0x72],si
0000671F  49                dec ecx
00006720  53                push ebx
00006721  7434              jz 0x6757
00006723  7061              jo 0x6786
00006725  6972496453305F    imul esi,[edx+0x49],dword 0x5f305364
0000672C  49                dec ecx
0000672D  69694545536149    imul ebp,[ecx+0x45],dword 0x49615345
00006734  53                push ebx
00006735  325F45            xor bl,[edi+0x45]
00006738  45                inc ebp
00006739  3132              xor [edx],esi
0000673B  5F                pop edi
0000673C  4D                dec ebp
0000673D  5F                pop edi
0000673E  636865            arpl [eax+0x65],bp
00006741  636B5F            arpl [ebx+0x5f],bp
00006744  6C                insb
00006745  656E              gs outsb
00006747  45                inc ebp
00006748  6A50              push byte +0x50
0000674A  4B                dec ebx
0000674B  6300              arpl [eax],ax
0000674D  666C              o16 insb
0000674F  004D00            add [ebp+0x0],cl
00006752  5F                pop edi
00006753  5A                pop edx
00006754  4E                dec esi
00006755  4B                dec ebx
00006756  53                push ebx
00006757  7436              jz 0x678f
00006759  7665              jna 0x67c0
0000675B  63746F72          arpl [edi+ebp*2+0x72],si
0000675F  49                dec ecx
00006760  53                push ebx
00006761  7434              jz 0x6797
00006763  7061              jo 0x67c6
00006765  6972496453305F    imul esi,[edx+0x49],dword 0x5f305364
0000676C  49                dec ecx
0000676D  69694545536149    imul ebp,[ecx+0x45],dword 0x49615345
00006774  53                push ebx
00006775  325F45            xor bl,[edi+0x45]
00006778  45                inc ebp
00006779  3562656769        xor eax,0x69676562
0000677E  6E                outsb
0000677F  45                inc ebp
00006780  7600              jna 0x6782
00006782  5F                pop edi
00006783  5A                pop edx
00006784  53                push ebx
00006785  7432              jz 0x67b9
00006787  325F5F            xor bl,[edi+0x5f]
0000678A  756E              jnz 0x67fa
0000678C  696E697469616C    imul ebp,[esi+0x69],dword 0x6c616974
00006793  697A65645F636F    imul edi,[edx+0x65],dword 0x6f635f64
0000679A  7079              jo 0x6815
0000679C  5F                pop edi
0000679D  61                popa
0000679E  49                dec ecx
0000679F  4E                dec esi
000067A0  395F5F            cmp [edi+0x5f],ebx
000067A3  676E              a16 outsb
000067A5  755F              jnz 0x6806
000067A7  637878            arpl [eax+0x78],di
000067AA  3137              xor [edi],esi
000067AC  5F                pop edi
000067AD  5F                pop edi
000067AE  6E                outsb
000067AF  6F                outsd
000067B0  726D              jc 0x681f
000067B2  61                popa
000067B3  6C                insb
000067B4  5F                pop edi
000067B5  6974657261746F72  imul esi,[ebp+0x72],dword 0x726f7461
000067BD  49                dec ecx
000067BE  50                push eax
000067BF  4B                dec ebx
000067C0  53                push ebx
000067C1  7434              jz 0x67f7
000067C3  7061              jo 0x6826
000067C5  6972496453325F    imul esi,[edx+0x49],dword 0x5f325364
000067CC  49                dec ecx
000067CD  69694545537436    imul ebp,[ecx+0x45],dword 0x36745345
000067D4  7665              jna 0x683b
000067D6  63746F72          arpl [edi+ebp*2+0x72],si
000067DA  49                dec ecx
000067DB  53                push ebx
000067DC  345F              xor al,0x5f
000067DE  53                push ebx
000067DF  61                popa
000067E0  49                dec ecx
000067E1  53                push ebx
000067E2  345F              xor al,0x5f
000067E4  45                inc ebp
000067E5  45                inc ebp
000067E6  45                inc ebp
000067E7  45                inc ebp
000067E8  50                push eax
000067E9  53                push ebx
000067EA  345F              xor al,0x5f
000067EC  53                push ebx
000067ED  345F              xor al,0x5f
000067EF  45                inc ebp
000067F0  54                push esp
000067F1  305F54            xor [edi+0x54],bl
000067F4  5F                pop edi
000067F5  53                push ebx
000067F6  44                inc esp
000067F7  5F                pop edi
000067F8  53                push ebx
000067F9  43                inc ebx
000067FA  5F                pop edi
000067FB  52                push edx
000067FC  53                push ebx
000067FD  61                popa
000067FE  49                dec ecx
000067FF  54                push esp
00006800  315F45            xor [edi+0x45],ebx
00006803  005F5A            add [edi+0x5a],bl
00006806  4E                dec esi
00006807  53                push ebx
00006808  7431              jz 0x683b
0000680A  325F44            xor bl,[edi+0x44]
0000680D  657374            gs jnc 0x6884
00006810  726F              jc 0x6881
00006812  795F              jns 0x6873
00006814  61                popa
00006815  7578              jnz 0x688f
00006817  49                dec ecx
00006818  4C                dec esp
00006819  6231              bound esi,[ecx]
0000681B  45                inc ebp
0000681C  45                inc ebp
0000681D  395F5F            cmp [edi+0x5f],ebx
00006820  64657374          gs jnc 0x6898
00006824  726F              jc 0x6895
00006826  7949              jns 0x6871
00006828  50                push eax
00006829  53                push ebx
0000682A  7434              jz 0x6860
0000682C  7061              jo 0x688f
0000682E  6972496453325F    imul esi,[edx+0x49],dword 0x5f325364
00006835  49                dec ecx
00006836  69694545454576    imul ebp,[ecx+0x45],dword 0x76454545
0000683D  54                push esp
0000683E  5F                pop edi
0000683F  53                push ebx
00006840  365F              ss pop edi
00006842  005F5A            add [edi+0x5a],bl
00006845  4E                dec esi
00006846  395F5F            cmp [edi+0x5f],ebx
00006849  676E              a16 outsb
0000684B  755F              jnz 0x68ac
0000684D  637878            arpl [eax+0x78],di
00006850  3137              xor [edi],esi
00006852  5F                pop edi
00006853  5F                pop edi
00006854  6E                outsb
00006855  6F                outsd
00006856  726D              jc 0x68c5
00006858  61                popa
00006859  6C                insb
0000685A  5F                pop edi
0000685B  6974657261746F72  imul esi,[ebp+0x72],dword 0x726f7461
00006863  49                dec ecx
00006864  50                push eax
00006865  4B                dec ebx
00006866  53                push ebx
00006867  7434              jz 0x689d
00006869  7061              jo 0x68cc
0000686B  6972496453315F    imul esi,[edx+0x49],dword 0x5f315364
00006872  49                dec ecx
00006873  69694545537436    imul ebp,[ecx+0x45],dword 0x36745345
0000687A  7665              jna 0x68e1
0000687C  63746F72          arpl [edi+ebp*2+0x72],si
00006880  49                dec ecx
00006881  53                push ebx
00006882  335F53            xor ebx,[edi+0x53]
00006885  61                popa
00006886  49                dec ecx
00006887  53                push ebx
00006888  335F45            xor ebx,[edi+0x45]
0000688B  45                inc ebp
0000688C  45                inc ebp
0000688D  43                inc ebx
0000688E  324552            xor al,[ebp+0x52]
00006891  4B                dec ebx
00006892  53                push ebx
00006893  355F005F5A        xor eax,0x5a5f005f
00006898  4E                dec esi
00006899  395F5F            cmp [edi+0x5f],ebx
0000689C  676E              a16 outsb
0000689E  755F              jnz 0x68ff
000068A0  637878            arpl [eax+0x78],di
000068A3  3133              xor [ebx],esi
000068A5  6E                outsb
000068A6  65775F            gs ja 0x6908
000068A9  61                popa
000068AA  6C                insb
000068AB  6C                insb
000068AC  6F                outsd
000068AD  636174            arpl [ecx+0x74],sp
000068B0  6F                outsd
000068B1  7249              jc 0x68fc
000068B3  53                push ebx
000068B4  7434              jz 0x68ea
000068B6  7061              jo 0x6919
000068B8  6972496453315F    imul esi,[edx+0x49],dword 0x5f315364
000068BF  49                dec ecx
000068C0  69694545454432    imul ebp,[ecx+0x45],dword 0x32444545
000068C7  45                inc ebp
000068C8  7600              jna 0x68ca
000068CA  5F                pop edi
000068CB  5A                pop edx
000068CC  4E                dec esi
000068CD  53                push ebx
000068CE  7431              jz 0x6901
000068D0  3470              xor al,0x70
000068D2  7269              jc 0x693d
000068D4  6F                outsd
000068D5  7269              jc 0x6940
000068D7  7479              jz 0x6952
000068D9  5F                pop edi
000068DA  7175              jno 0x6951
000068DC  657565            gs jnz 0x6944
000068DF  49                dec ecx
000068E0  53                push ebx
000068E1  7434              jz 0x6917
000068E3  7061              jo 0x6946
000068E5  6972496453305F    imul esi,[edx+0x49],dword 0x5f305364
000068EC  49                dec ecx
000068ED  69694545537436    imul ebp,[ecx+0x45],dword 0x36745345
000068F4  7665              jna 0x695b
000068F6  63746F72          arpl [edi+ebp*2+0x72],si
000068FA  49                dec ecx
000068FB  53                push ebx
000068FC  325F53            xor bl,[edi+0x53]
000068FF  61                popa
00006900  49                dec ecx
00006901  53                push ebx
00006902  325F45            xor bl,[edi+0x45]
00006905  45                inc ebp
00006906  53                push ebx
00006907  7434              jz 0x693d
00006909  6C                insb
0000690A  657373            gs jnc 0x6980
0000690D  49                dec ecx
0000690E  53                push ebx
0000690F  325F45            xor bl,[edi+0x45]
00006912  45                inc ebp
00006913  33706F            xor esi,[eax+0x6f]
00006916  7045              jo 0x695d
00006918  7600              jna 0x691a
0000691A  5F                pop edi
0000691B  5A                pop edx
0000691C  4E                dec esi
0000691D  395F5F            cmp [edi+0x5f],ebx
00006920  676E              a16 outsb
00006922  755F              jnz 0x6983
00006924  637878            arpl [eax+0x78],di
00006927  3133              xor [ebx],esi
00006929  6E                outsb
0000692A  65775F            gs ja 0x698c
0000692D  61                popa
0000692E  6C                insb
0000692F  6C                insb
00006930  6F                outsd
00006931  636174            arpl [ecx+0x74],sp
00006934  6F                outsd
00006935  7249              jc 0x6980
00006937  53                push ebx
00006938  7434              jz 0x696e
0000693A  7061              jo 0x699d
0000693C  6972496453315F    imul esi,[edx+0x49],dword 0x5f315364
00006943  49                dec ecx
00006944  69694545453130    imul ebp,[ecx+0x45],dword 0x30314545
0000694B  646561            gs popa
0000694E  6C                insb
0000694F  6C                insb
00006950  6F                outsd
00006951  636174            arpl [ecx+0x74],sp
00006954  6545              gs inc ebp
00006956  50                push eax
00006957  53                push ebx
00006958  335F6A            xor ebx,[edi+0x6a]
0000695B  005F5A            add [edi+0x5a],bl
0000695E  4E                dec esi
0000695F  53                push ebx
00006960  7431              jz 0x6993
00006962  325F56            xor bl,[edi+0x56]
00006965  6563746F72        arpl [gs:edi+ebp*2+0x72],si
0000696A  5F                pop edi
0000696B  626173            bound esp,[ecx+0x73]
0000696E  6549              gs dec ecx
00006970  53                push ebx
00006971  7434              jz 0x69a7
00006973  7061              jo 0x69d6
00006975  6972496453305F    imul esi,[edx+0x49],dword 0x5f305364
0000697C  49                dec ecx
0000697D  69694545536149    imul ebp,[ecx+0x45],dword 0x49615345
00006984  53                push ebx
00006985  325F45            xor bl,[edi+0x45]
00006988  45                inc ebp
00006989  44                inc esp
0000698A  314576            xor [ebp+0x76],eax
0000698D  005F5F            add [edi+0x5f],bl
00006990  54                push esp
00006991  4D                dec ebp
00006992  43                inc ebx
00006993  5F                pop edi
00006994  45                inc ebp
00006995  4E                dec esi
00006996  44                inc esp
00006997  5F                pop edi
00006998  5F                pop edi
00006999  005F5A            add [edi+0x5a],bl
0000699C  4E                dec esi
0000699D  53                push ebx
0000699E  7431              jz 0x69d1
000069A0  325F56            xor bl,[edi+0x56]
000069A3  6563746F72        arpl [gs:edi+ebp*2+0x72],si
000069A8  5F                pop edi
000069A9  626173            bound esp,[ecx+0x73]
000069AC  6549              gs dec ecx
000069AE  53                push ebx
000069AF  7434              jz 0x69e5
000069B1  7061              jo 0x6a14
000069B3  6972496453305F    imul esi,[edx+0x49],dword 0x5f305364
000069BA  49                dec ecx
000069BB  69694545536149    imul ebp,[ecx+0x45],dword 0x49615345
000069C2  53                push ebx
000069C3  325F45            xor bl,[edi+0x45]
000069C6  45                inc ebp
000069C7  43                inc ebx
000069C8  324576            xor al,[ebp+0x76]
000069CB  005F5A            add [edi+0x5a],bl
000069CE  53                push ebx
000069CF  7439              jz 0x6a0a
000069D1  6D                insd
000069D2  61                popa
000069D3  6B655F70          imul esp,[ebp+0x5f],byte +0x70
000069D7  61                popa
000069D8  69724964537434    imul esi,[edx+0x49],dword 0x34745364
000069DF  7061              jo 0x6a42
000069E1  69724969694545    imul esi,[edx+0x49],dword 0x45456969
000069E8  53                push ebx
000069E9  305F49            xor [edi+0x49],bl
000069EC  54                push esp
000069ED  5F                pop edi
000069EE  54                push esp
000069EF  305F45            xor [edi+0x45],bl
000069F2  53                push ebx
000069F3  325F53            xor bl,[edi+0x53]
000069F6  335F00            xor ebx,[edi+0x0]
000069F9  5F                pop edi
000069FA  5A                pop edx
000069FB  4E                dec esi
000069FC  53                push ebx
000069FD  7432              jz 0x6a31
000069FF  305F5F            xor [edi+0x5f],bl
00006A02  756E              jnz 0x6a72
00006A04  696E697469616C    imul ebp,[esi+0x69],dword 0x6c616974
00006A0B  697A65645F636F    imul edi,[edx+0x65],dword 0x6f635f64
00006A12  7079              jo 0x6a8d
00006A14  49                dec ecx
00006A15  4C                dec esp
00006A16  6230              bound esi,[eax]
00006A18  45                inc ebp
00006A19  45                inc ebp
00006A1A  3133              xor [ebx],esi
00006A1C  5F                pop edi
00006A1D  5F                pop edi
00006A1E  756E              jnz 0x6a8e
00006A20  696E69745F636F    imul ebp,[esi+0x69],dword 0x6f635f74
00006A27  7079              jo 0x6aa2
00006A29  49                dec ecx
00006A2A  50                push eax
00006A2B  53                push ebx
00006A2C  7434              jz 0x6a62
00006A2E  7061              jo 0x6a91
00006A30  6972496453325F    imul esi,[edx+0x49],dword 0x5f325364
00006A37  49                dec ecx
00006A38  6969454553355F    imul ebp,[ecx+0x45],dword 0x5f355345
00006A3F  45                inc ebp
00006A40  45                inc ebp
00006A41  54                push esp
00006A42  305F54            xor [edi+0x54],bl
00006A45  5F                pop edi
00006A46  53                push ebx
00006A47  37                aaa
00006A48  5F                pop edi
00006A49  53                push ebx
00006A4A  365F              ss pop edi
00006A4C  005F5F            add [edi+0x5f],bl
00006A4F  64736F            fs jnc 0x6ac1
00006A52  5F                pop edi
00006A53  68616E646C        push dword 0x6c646e61
00006A58  65005F5F          add [gs:edi+0x5f],bl
00006A5C  44                inc esp
00006A5D  54                push esp
00006A5E  4F                dec edi
00006A5F  52                push edx
00006A60  5F                pop edi
00006A61  45                inc ebp
00006A62  4E                dec esi
00006A63  44                inc esp
00006A64  5F                pop edi
00006A65  5F                pop edi
00006A66  005F5F            add [edi+0x5f],bl
00006A69  6C                insb
00006A6A  6962635F637375    imul esp,[edx+0x63],dword 0x7573635f
00006A71  5F                pop edi
00006A72  696E6974005F5A    imul ebp,[esi+0x69],dword 0x5a5f0074
00006A79  53                push ebx
00006A7A  7432              jz 0x6aae
00006A7C  325F5F            xor bl,[edi+0x5f]
00006A7F  756E              jnz 0x6aef
00006A81  696E697469616C    imul ebp,[esi+0x69],dword 0x6c616974
00006A88  697A65645F636F    imul edi,[edx+0x65],dword 0x6f635f64
00006A8F  7079              jo 0x6b0a
00006A91  5F                pop edi
00006A92  61                popa
00006A93  49                dec ecx
00006A94  50                push eax
00006A95  53                push ebx
00006A96  7434              jz 0x6acc
00006A98  7061              jo 0x6afb
00006A9A  6972496453305F    imul esi,[edx+0x49],dword 0x5f305364
00006AA1  49                dec ecx
00006AA2  6969454553335F    imul ebp,[ecx+0x45],dword 0x5f335345
00006AA9  53                push ebx
00006AAA  325F45            xor bl,[edi+0x45]
00006AAD  54                push esp
00006AAE  305F54            xor [edi+0x54],bl
00006AB1  5F                pop edi
00006AB2  53                push ebx
00006AB3  355F53345F        xor eax,0x5f34535f
00006AB8  52                push edx
00006AB9  53                push ebx
00006ABA  61                popa
00006ABB  49                dec ecx
00006ABC  54                push esp
00006ABD  315F45            xor [edi+0x45],ebx
00006AC0  005F5A            add [edi+0x5a],bl
00006AC3  4E                dec esi
00006AC4  53                push ebx
00006AC5  7432              jz 0x6af9
00006AC7  305F5F            xor [edi+0x5f],bl
00006ACA  636F70            arpl [edi+0x70],bp
00006ACD  795F              jns 0x6b2e
00006ACF  6D                insd
00006AD0  6F                outsd
00006AD1  7665              jna 0x6b38
00006AD3  5F                pop edi
00006AD4  626163            bound esp,[ecx+0x63]
00006AD7  6B776172          imul esi,[edi+0x61],byte +0x72
00006ADB  6449              fs dec ecx
00006ADD  4C                dec esp
00006ADE  6230              bound esi,[eax]
00006AE0  45                inc ebp
00006AE1  4C                dec esp
00006AE2  6230              bound esi,[eax]
00006AE4  45                inc ebp
00006AE5  53                push ebx
00006AE6  7432              jz 0x6b1a
00006AE8  367261            ss jc 0x6b4c
00006AEB  6E                outsb
00006AEC  646F              fs outsd
00006AEE  6D                insd
00006AEF  5F                pop edi
00006AF0  61                popa
00006AF1  636365            arpl [ebx+0x65],sp
00006AF4  7373              jnc 0x6b69
00006AF6  5F                pop edi
00006AF7  6974657261746F72  imul esi,[ebp+0x72],dword 0x726f7461
00006AFF  5F                pop edi
00006B00  7461              jz 0x6b63
00006B02  6745              inc ebp
00006B04  3133              xor [ebx],esi
00006B06  5F                pop edi
00006B07  5F                pop edi
00006B08  636F70            arpl [edi+0x70],bp
00006B0B  795F              jns 0x6b6c
00006B0D  6D                insd
00006B0E  6F                outsd
00006B0F  7665              jna 0x6b76
00006B11  5F                pop edi
00006B12  624950            bound ecx,[ecx+0x50]
00006B15  53                push ebx
00006B16  7434              jz 0x6b4c
00006B18  7061              jo 0x6b7b
00006B1A  6972496453335F    imul esi,[edx+0x49],dword 0x5f335364
00006B21  49                dec ecx
00006B22  6969454553365F    imul ebp,[ecx+0x45],dword 0x5f365345
00006B29  45                inc ebp
00006B2A  45                inc ebp
00006B2B  54                push esp
00006B2C  305F54            xor [edi+0x54],bl
00006B2F  5F                pop edi
00006B30  53                push ebx
00006B31  385F53            cmp [edi+0x53],bl
00006B34  37                aaa
00006B35  5F                pop edi
00006B36  007072            add [eax+0x72],dh
00006B39  696E7466404047    imul ebp,[esi+0x74],dword 0x47404066
00006B40  4C                dec esp
00006B41  49                dec ecx
00006B42  42                inc edx
00006B43  43                inc ebx
00006B44  5F                pop edi
00006B45  322E              xor ch,[esi]
00006B47  3000              xor [eax],al
00006B49  5F                pop edi
00006B4A  5A                pop edx
00006B4B  4E                dec esi
00006B4C  4B                dec ebx
00006B4D  395F5F            cmp [edi+0x5f],ebx
00006B50  676E              a16 outsb
00006B52  755F              jnz 0x6bb3
00006B54  637878            arpl [eax+0x78],di
00006B57  3137              xor [edi],esi
00006B59  5F                pop edi
00006B5A  5F                pop edi
00006B5B  6E                outsb
00006B5C  6F                outsd
00006B5D  726D              jc 0x6bcc
00006B5F  61                popa
00006B60  6C                insb
00006B61  5F                pop edi
00006B62  6974657261746F72  imul esi,[ebp+0x72],dword 0x726f7461
00006B6A  49                dec ecx
00006B6B  50                push eax
00006B6C  53                push ebx
00006B6D  7434              jz 0x6ba3
00006B6F  7061              jo 0x6bd2
00006B71  6972496453315F    imul esi,[edx+0x49],dword 0x5f315364
00006B78  49                dec ecx
00006B79  69694545537436    imul ebp,[ecx+0x45],dword 0x36745345
00006B80  7665              jna 0x6be7
00006B82  63746F72          arpl [edi+ebp*2+0x72],si
00006B86  49                dec ecx
00006B87  53                push ebx
00006B88  335F53            xor ebx,[edi+0x53]
00006B8B  61                popa
00006B8C  49                dec ecx
00006B8D  53                push ebx
00006B8E  335F45            xor ebx,[edi+0x45]
00006B91  45                inc ebp
00006B92  45                inc ebp
00006B93  6D                insd
00006B94  6945524B69005F    imul eax,[ebp+0x52],dword 0x5f00694b
00006B9B  5A                pop edx
00006B9C  53                push ebx
00006B9D  7431              jz 0x6bd0
00006B9F  315F5F            xor [edi+0x5f],ebx
00006BA2  61                popa
00006BA3  64647265          fs jc 0x6c0c
00006BA7  7373              jnc 0x6c1c
00006BA9  6F                outsd
00006BAA  6649              dec cx
00006BAC  53                push ebx
00006BAD  7434              jz 0x6be3
00006BAF  7061              jo 0x6c12
00006BB1  6972496453305F    imul esi,[edx+0x49],dword 0x5f305364
00006BB8  49                dec ecx
00006BB9  69694545455054    imul ebp,[ecx+0x45],dword 0x54504545
00006BC0  5F                pop edi
00006BC1  52                push edx
00006BC2  53                push ebx
00006BC3  335F00            xor ebx,[edi+0x0]
00006BC6  5F                pop edi
00006BC7  5A                pop edx
00006BC8  4E                dec esi
00006BC9  4B                dec ebx
00006BCA  53                push ebx
00006BCB  7436              jz 0x6c03
00006BCD  7665              jna 0x6c34
00006BCF  63746F72          arpl [edi+ebp*2+0x72],si
00006BD3  49                dec ecx
00006BD4  53                push ebx
00006BD5  7434              jz 0x6c0b
00006BD7  7061              jo 0x6c3a
00006BD9  6972496453305F    imul esi,[edx+0x49],dword 0x5f305364
00006BE0  49                dec ecx
00006BE1  69694545536149    imul ebp,[ecx+0x45],dword 0x49615345
00006BE8  53                push ebx
00006BE9  325F45            xor bl,[edi+0x45]
00006BEC  45                inc ebp
00006BED  3566726F6E        xor eax,0x6e6f7266
00006BF2  7445              jz 0x6c39
00006BF4  7600              jna 0x6bf6
00006BF6  5F                pop edi
00006BF7  5A                pop edx
00006BF8  4E                dec esi
00006BF9  53                push ebx
00006BFA  7431              jz 0x6c2d
00006BFC  325F56            xor bl,[edi+0x56]
00006BFF  6563746F72        arpl [gs:edi+ebp*2+0x72],si
00006C04  5F                pop edi
00006C05  626173            bound esp,[ecx+0x73]
00006C08  6549              gs dec ecx
00006C0A  53                push ebx
00006C0B  7434              jz 0x6c41
00006C0D  7061              jo 0x6c70
00006C0F  6972496453305F    imul esi,[edx+0x49],dword 0x5f305364
00006C16  49                dec ecx
00006C17  69694545536149    imul ebp,[ecx+0x45],dword 0x49615345
00006C1E  53                push ebx
00006C1F  325F45            xor bl,[edi+0x45]
00006C22  45                inc ebp
00006C23  3131              xor [ecx],esi
00006C25  5F                pop edi
00006C26  4D                dec ebp
00006C27  5F                pop edi
00006C28  61                popa
00006C29  6C                insb
00006C2A  6C                insb
00006C2B  6F                outsd
00006C2C  636174            arpl [ecx+0x74],sp
00006C2F  6545              gs inc ebp
00006C31  6A00              push byte +0x0
00006C33  5F                pop edi
00006C34  5A                pop edx
00006C35  4E                dec esi
00006C36  395F5F            cmp [edi+0x5f],ebx
00006C39  676E              a16 outsb
00006C3B  755F              jnz 0x6c9c
00006C3D  637878            arpl [eax+0x78],di
00006C40  3133              xor [ebx],esi
00006C42  6E                outsb
00006C43  65775F            gs ja 0x6ca5
00006C46  61                popa
00006C47  6C                insb
00006C48  6C                insb
00006C49  6F                outsd
00006C4A  636174            arpl [ecx+0x74],sp
00006C4D  6F                outsd
00006C4E  7249              jc 0x6c99
00006C50  53                push ebx
00006C51  7434              jz 0x6c87
00006C53  7061              jo 0x6cb6
00006C55  6972496453315F    imul esi,[edx+0x49],dword 0x5f315364
00006C5C  49                dec ecx
00006C5D  69694545454331    imul ebp,[ecx+0x45],dword 0x31434545
00006C64  45                inc ebp
00006C65  52                push edx
00006C66  4B                dec ebx
00006C67  53                push ebx
00006C68  345F              xor al,0x5f
00006C6A  005F5A            add [edi+0x5a],bl
00006C6D  4E                dec esi
00006C6E  53                push ebx
00006C6F  7434              jz 0x6ca5
00006C71  7061              jo 0x6cd4
00006C73  69724969694543    imul esi,[edx+0x49],dword 0x43456969
00006C7A  314552            xor [ebp+0x52],eax
00006C7D  4B                dec ebx
00006C7E  6953325F005F5A    imul edx,[ebx+0x32],dword 0x5a5f005f
00006C85  4E                dec esi
00006C86  395F5F            cmp [edi+0x5f],ebx
00006C89  676E              a16 outsb
00006C8B  755F              jnz 0x6cec
00006C8D  637878            arpl [eax+0x78],di
00006C90  3133              xor [ebx],esi
00006C92  6E                outsb
00006C93  65775F            gs ja 0x6cf5
00006C96  61                popa
00006C97  6C                insb
00006C98  6C                insb
00006C99  6F                outsd
00006C9A  636174            arpl [ecx+0x74],sp
00006C9D  6F                outsd
00006C9E  7249              jc 0x6ce9
00006CA0  53                push ebx
00006CA1  7434              jz 0x6cd7
00006CA3  7061              jo 0x6d06
00006CA5  6972496453315F    imul esi,[edx+0x49],dword 0x5f315364
00006CAC  49                dec ecx
00006CAD  69694545454332    imul ebp,[ecx+0x45],dword 0x32434545
00006CB4  45                inc ebp
00006CB5  52                push edx
00006CB6  4B                dec ebx
00006CB7  53                push ebx
00006CB8  345F              xor al,0x5f
00006CBA  005F5A            add [edi+0x5a],bl
00006CBD  53                push ebx
00006CBE  7431              jz 0x6cf1
00006CC0  325F5F            xor bl,[edi+0x5f]
00006CC3  6E                outsb
00006CC4  697465725F626173  imul esi,[ebp+0x72],dword 0x7361625f
00006CCC  6549              gs dec ecx
00006CCE  50                push eax
00006CCF  53                push ebx
00006CD0  7434              jz 0x6d06
00006CD2  7061              jo 0x6d35
00006CD4  6972496453305F    imul esi,[edx+0x49],dword 0x5f305364
00006CDB  49                dec ecx
00006CDC  69694545454E53    imul ebp,[ecx+0x45],dword 0x534e4545
00006CE3  7431              jz 0x6d16
00006CE5  315F4E            xor [edi+0x4e],ebx
00006CE8  697465725F626173  imul esi,[ebp+0x72],dword 0x7361625f
00006CF0  6549              gs dec ecx
00006CF2  54                push esp
00006CF3  5F                pop edi
00006CF4  45                inc ebp
00006CF5  3133              xor [ebx],esi
00006CF7  6974657261746F72  imul esi,[ebp+0x72],dword 0x726f7461
00006CFF  5F                pop edi
00006D00  7479              jz 0x6d7b
00006D02  7065              jo 0x6d69
00006D04  45                inc ebp
00006D05  53                push ebx
00006D06  355F005F5A        xor eax,0x5a5f005f
00006D0B  4E                dec esi
00006D0C  53                push ebx
00006D0D  7436              jz 0x6d45
00006D0F  7665              jna 0x6d76
00006D11  63746F72          arpl [edi+ebp*2+0x72],si
00006D15  49                dec ecx
00006D16  53                push ebx
00006D17  7434              jz 0x6d4d
00006D19  7061              jo 0x6d7c
00006D1B  6972496453305F    imul esi,[edx+0x49],dword 0x5f305364
00006D22  49                dec ecx
00006D23  69694545536149    imul ebp,[ecx+0x45],dword 0x49615345
00006D2A  53                push ebx
00006D2B  325F45            xor bl,[edi+0x45]
00006D2E  45                inc ebp
00006D2F  43                inc ebx
00006D30  324552            xor al,[ebp+0x52]
00006D33  4B                dec ebx
00006D34  53                push ebx
00006D35  345F              xor al,0x5f
00006D37  005F5A            add [edi+0x5a],bl
00006D3A  4E                dec esi
00006D3B  53                push ebx
00006D3C  7431              jz 0x6d6f
00006D3E  3470              xor al,0x70
00006D40  7269              jc 0x6dab
00006D42  6F                outsd
00006D43  7269              jc 0x6dae
00006D45  7479              jz 0x6dc0
00006D47  5F                pop edi
00006D48  7175              jno 0x6dbf
00006D4A  657565            gs jnz 0x6db2
00006D4D  49                dec ecx
00006D4E  53                push ebx
00006D4F  7434              jz 0x6d85
00006D51  7061              jo 0x6db4
00006D53  6972496453305F    imul esi,[edx+0x49],dword 0x5f305364
00006D5A  49                dec ecx
00006D5B  69694545537436    imul ebp,[ecx+0x45],dword 0x36745345
00006D62  7665              jna 0x6dc9
00006D64  63746F72          arpl [edi+ebp*2+0x72],si
00006D68  49                dec ecx
00006D69  53                push ebx
00006D6A  325F53            xor bl,[edi+0x53]
00006D6D  61                popa
00006D6E  49                dec ecx
00006D6F  53                push ebx
00006D70  325F45            xor bl,[edi+0x45]
00006D73  45                inc ebp
00006D74  53                push ebx
00006D75  7434              jz 0x6dab
00006D77  6C                insb
00006D78  657373            gs jnc 0x6dee
00006D7B  49                dec ecx
00006D7C  53                push ebx
00006D7D  325F45            xor bl,[edi+0x45]
00006D80  45                inc ebp
00006D81  44                inc esp
00006D82  314576            xor [ebp+0x76],eax
00006D85  005F5A            add [edi+0x5a],bl
00006D88  6E                outsb
00006D89  776A              ja 0x6df5
00006D8B  40                inc eax
00006D8C  40                inc eax
00006D8D  47                inc edi
00006D8E  4C                dec esp
00006D8F  49                dec ecx
00006D90  42                inc edx
00006D91  43                inc ebx
00006D92  58                pop eax
00006D93  58                pop eax
00006D94  5F                pop edi
00006D95  332E              xor ebp,[esi]
00006D97  3400              xor al,0x0
00006D99  5F                pop edi
00006D9A  5A                pop edx
00006D9B  4E                dec esi
00006D9C  395F5F            cmp [edi+0x5f],ebx
00006D9F  676E              a16 outsb
00006DA1  755F              jnz 0x6e02
00006DA3  637878            arpl [eax+0x78],di
00006DA6  3133              xor [ebx],esi
00006DA8  6E                outsb
00006DA9  65775F            gs ja 0x6e0b
00006DAC  61                popa
00006DAD  6C                insb
00006DAE  6C                insb
00006DAF  6F                outsd
00006DB0  636174            arpl [ecx+0x74],sp
00006DB3  6F                outsd
00006DB4  7249              jc 0x6dff
00006DB6  53                push ebx
00006DB7  7434              jz 0x6ded
00006DB9  7061              jo 0x6e1c
00006DBB  6972496453315F    imul esi,[edx+0x49],dword 0x5f315364
00006DC2  49                dec ecx
00006DC3  69694545453963    imul ebp,[ecx+0x45],dword 0x63394545
00006DCA  6F                outsd
00006DCB  6E                outsb
00006DCC  7374              jnc 0x6e42
00006DCE  7275              jc 0x6e45
00006DD0  63744550          arpl [ebp+eax*2+0x50],si
00006DD4  53                push ebx
00006DD5  335F52            xor ebx,[edi+0x52]
00006DD8  4B                dec ebx
00006DD9  53                push ebx
00006DDA  335F00            xor ebx,[edi+0x0]
00006DDD  5F                pop edi
00006DDE  5A                pop edx
00006DDF  4E                dec esi
00006DE0  4B                dec ebx
00006DE1  395F5F            cmp [edi+0x5f],ebx
00006DE4  676E              a16 outsb
00006DE6  755F              jnz 0x6e47
00006DE8  637878            arpl [eax+0x78],di
00006DEB  3137              xor [edi],esi
00006DED  5F                pop edi
00006DEE  5F                pop edi
00006DEF  6E                outsb
00006DF0  6F                outsd
00006DF1  726D              jc 0x6e60
00006DF3  61                popa
00006DF4  6C                insb
00006DF5  5F                pop edi
00006DF6  6974657261746F72  imul esi,[ebp+0x72],dword 0x726f7461
00006DFE  49                dec ecx
00006DFF  50                push eax
00006E00  53                push ebx
00006E01  7434              jz 0x6e37
00006E03  7061              jo 0x6e66
00006E05  6972496453315F    imul esi,[edx+0x49],dword 0x5f315364
00006E0C  49                dec ecx
00006E0D  69694545537436    imul ebp,[ecx+0x45],dword 0x36745345
00006E14  7665              jna 0x6e7b
00006E16  63746F72          arpl [edi+ebp*2+0x72],si
00006E1A  49                dec ecx
00006E1B  53                push ebx
00006E1C  335F53            xor ebx,[edi+0x53]
00006E1F  61                popa
00006E20  49                dec ecx
00006E21  53                push ebx
00006E22  335F45            xor ebx,[edi+0x45]
00006E25  45                inc ebp
00006E26  45                inc ebp
00006E27  646545            gs inc ebp
00006E2A  7600              jna 0x6e2c
00006E2C  5F                pop edi
00006E2D  5A                pop edx
00006E2E  4E                dec esi
00006E2F  4B                dec ebx
00006E30  53                push ebx
00006E31  7431              jz 0x6e64
00006E33  3470              xor al,0x70
00006E35  7269              jc 0x6ea0
00006E37  6F                outsd
00006E38  7269              jc 0x6ea3
00006E3A  7479              jz 0x6eb5
00006E3C  5F                pop edi
00006E3D  7175              jno 0x6eb4
00006E3F  657565            gs jnz 0x6ea7
00006E42  49                dec ecx
00006E43  53                push ebx
00006E44  7434              jz 0x6e7a
00006E46  7061              jo 0x6ea9
00006E48  6972496453305F    imul esi,[edx+0x49],dword 0x5f305364
00006E4F  49                dec ecx
00006E50  69694545537436    imul ebp,[ecx+0x45],dword 0x36745345
00006E57  7665              jna 0x6ebe
00006E59  63746F72          arpl [edi+ebp*2+0x72],si
00006E5D  49                dec ecx
00006E5E  53                push ebx
00006E5F  325F53            xor bl,[edi+0x53]
00006E62  61                popa
00006E63  49                dec ecx
00006E64  53                push ebx
00006E65  325F45            xor bl,[edi+0x45]
00006E68  45                inc ebp
00006E69  53                push ebx
00006E6A  7434              jz 0x6ea0
00006E6C  6C                insb
00006E6D  657373            gs jnc 0x6ee3
00006E70  49                dec ecx
00006E71  53                push ebx
00006E72  325F45            xor bl,[edi+0x45]
00006E75  45                inc ebp
00006E76  35656D7074        xor eax,0x74706d65
00006E7B  7945              jns 0x6ec2
00006E7D  7600              jna 0x6e7f
00006E7F  5F                pop edi
00006E80  5A                pop edx
00006E81  4E                dec esi
00006E82  53                push ebx
00006E83  7436              jz 0x6ebb
00006E85  7665              jna 0x6eec
00006E87  63746F72          arpl [edi+ebp*2+0x72],si
00006E8B  49                dec ecx
00006E8C  53                push ebx
00006E8D  7434              jz 0x6ec3
00006E8F  7061              jo 0x6ef2
00006E91  6972496453305F    imul esi,[edx+0x49],dword 0x5f305364
00006E98  49                dec ecx
00006E99  69694545536149    imul ebp,[ecx+0x45],dword 0x49615345
00006EA0  53                push ebx
00006EA1  325F45            xor bl,[edi+0x45]
00006EA4  45                inc ebp
00006EA5  3133              xor [ebx],esi
00006EA7  5F                pop edi
00006EA8  4D                dec ebp
00006EA9  5F                pop edi
00006EAA  696E736572745F    imul ebp,[esi+0x73],dword 0x5f747265
00006EB1  61                popa
00006EB2  7578              jnz 0x6f2c
00006EB4  45                inc ebp
00006EB5  4E                dec esi
00006EB6  395F5F            cmp [edi+0x5f],ebx
00006EB9  676E              a16 outsb
00006EBB  755F              jnz 0x6f1c
00006EBD  637878            arpl [eax+0x78],di
00006EC0  3137              xor [edi],esi
00006EC2  5F                pop edi
00006EC3  5F                pop edi
00006EC4  6E                outsb
00006EC5  6F                outsd
00006EC6  726D              jc 0x6f35
00006EC8  61                popa
00006EC9  6C                insb
00006ECA  5F                pop edi
00006ECB  6974657261746F72  imul esi,[ebp+0x72],dword 0x726f7461
00006ED3  49                dec ecx
00006ED4  50                push eax
00006ED5  53                push ebx
00006ED6  325F53            xor bl,[edi+0x53]
00006ED9  345F              xor al,0x5f
00006EDB  45                inc ebp
00006EDC  45                inc ebp
00006EDD  52                push edx
00006EDE  4B                dec ebx
00006EDF  53                push ebx
00006EE0  325F00            xor bl,[edi+0x0]
00006EE3  5F                pop edi
00006EE4  5A                pop edx
00006EE5  4E                dec esi
00006EE6  53                push ebx
00006EE7  7436              jz 0x6f1f
00006EE9  7665              jna 0x6f50
00006EEB  63746F72          arpl [edi+ebp*2+0x72],si
00006EEF  49                dec ecx
00006EF0  53                push ebx
00006EF1  7434              jz 0x6f27
00006EF3  7061              jo 0x6f56
00006EF5  6972496453305F    imul esi,[edx+0x49],dword 0x5f305364
00006EFC  49                dec ecx
00006EFD  69694545536149    imul ebp,[ecx+0x45],dword 0x49615345
00006F04  53                push ebx
00006F05  325F45            xor bl,[edi+0x45]
00006F08  45                inc ebp
00006F09  44                inc esp
00006F0A  324576            xor al,[ebp+0x76]
00006F0D  005F5A            add [edi+0x5a],bl
00006F10  53                push ebx
00006F11  746C              jz 0x6f7f
00006F13  7449              jz 0x6f5e
00006F15  6453              fs push ebx
00006F17  7434              jz 0x6f4d
00006F19  7061              jo 0x6f7c
00006F1B  69724969694545    imul esi,[edx+0x49],dword 0x45456969
00006F22  62524B            bound edx,[edx+0x4b]
00006F25  53                push ebx
00006F26  305F49            xor [edi+0x49],bl
00006F29  54                push esp
00006F2A  5F                pop edi
00006F2B  54                push esp
00006F2C  305F45            xor [edi+0x45],bl
00006F2F  53                push ebx
00006F30  365F              ss pop edi
00006F32  005F5F            add [edi+0x5f],bl
00006F35  627373            bound esi,[ebx+0x73]
00006F38  5F                pop edi
00006F39  7374              jnc 0x6faf
00006F3B  61                popa
00006F3C  7274              jc 0x6fb2
00006F3E  005F5A            add [edi+0x5a],bl
00006F41  4E                dec esi
00006F42  53                push ebx
00006F43  7431              jz 0x6f76
00006F45  325F56            xor bl,[edi+0x56]
00006F48  6563746F72        arpl [gs:edi+ebp*2+0x72],si
00006F4D  5F                pop edi
00006F4E  626173            bound esp,[ecx+0x73]
00006F51  6549              gs dec ecx
00006F53  53                push ebx
00006F54  7434              jz 0x6f8a
00006F56  7061              jo 0x6fb9
00006F58  6972496453305F    imul esi,[edx+0x49],dword 0x5f305364
00006F5F  49                dec ecx
00006F60  69694545536149    imul ebp,[ecx+0x45],dword 0x49615345
00006F67  53                push ebx
00006F68  325F45            xor bl,[edi+0x45]
00006F6B  45                inc ebp
00006F6C  3132              xor [edx],esi
00006F6E  5F                pop edi
00006F6F  56                push esi
00006F70  6563746F72        arpl [gs:edi+ebp*2+0x72],si
00006F75  5F                pop edi
00006F76  696D706C433245    imul ebp,[ebp+0x70],dword 0x4532436c
00006F7D  52                push edx
00006F7E  4B                dec ebx
00006F7F  53                push ebx
00006F80  335F00            xor ebx,[edi+0x0]
00006F83  5F                pop edi
00006F84  5A                pop edx
00006F85  53                push ebx
00006F86  7432              jz 0x6fba
00006F88  335F5F            xor ebx,[edi+0x5f]
00006F8B  636F70            arpl [edi+0x70],bp
00006F8E  795F              jns 0x6fef
00006F90  6D                insd
00006F91  6F                outsd
00006F92  7665              jna 0x6ff9
00006F94  5F                pop edi
00006F95  626163            bound esp,[ecx+0x63]
00006F98  6B776172          imul esi,[edi+0x61],byte +0x72
00006F9C  645F              fs pop edi
00006F9E  61                popa
00006F9F  32494C            xor cl,[ecx+0x4c]
00006FA2  6230              bound esi,[eax]
00006FA4  45                inc ebp
00006FA5  50                push eax
00006FA6  53                push ebx
00006FA7  7434              jz 0x6fdd
00006FA9  7061              jo 0x700c
00006FAB  6972496453305F    imul esi,[edx+0x49],dword 0x5f305364
00006FB2  49                dec ecx
00006FB3  6969454553335F    imul ebp,[ecx+0x45],dword 0x5f335345
00006FBA  45                inc ebp
00006FBB  54                push esp
00006FBC  315F54            xor [edi+0x54],ebx
00006FBF  305F53            xor [edi+0x53],bl
00006FC2  355F53345F        xor eax,0x5f34535f
00006FC7  005F5A            add [edi+0x5a],bl
00006FCA  53                push ebx
00006FCB  7432              jz 0x6fff
00006FCD  325F5F            xor bl,[edi+0x5f]
00006FD0  636F70            arpl [edi+0x70],bp
00006FD3  795F              jns 0x7034
00006FD5  6D                insd
00006FD6  6F                outsd
00006FD7  7665              jna 0x703e
00006FD9  5F                pop edi
00006FDA  626163            bound esp,[ecx+0x63]
00006FDD  6B776172          imul esi,[edi+0x61],byte +0x72
00006FE1  645F              fs pop edi
00006FE3  61                popa
00006FE4  49                dec ecx
00006FE5  4C                dec esp
00006FE6  6230              bound esi,[eax]
00006FE8  45                inc ebp
00006FE9  50                push eax
00006FEA  53                push ebx
00006FEB  7434              jz 0x7021
00006FED  7061              jo 0x7050
00006FEF  6972496453305F    imul esi,[edx+0x49],dword 0x5f305364
00006FF6  49                dec ecx
00006FF7  6969454553335F    imul ebp,[ecx+0x45],dword 0x5f335345
00006FFE  45                inc ebp
00006FFF  54                push esp
00007000  315F54            xor [edi+0x54],ebx
00007003  305F53            xor [edi+0x53],bl
00007006  355F53345F        xor eax,0x5f34535f
0000700B  005F5A            add [edi+0x5a],bl
0000700E  53                push ebx
0000700F  7433              jz 0x7044
00007011  6D                insd
00007012  61                popa
00007013  7849              js 0x705e
00007015  6A45              push byte +0x45
00007017  52                push edx
00007018  4B                dec ebx
00007019  54                push esp
0000701A  5F                pop edi
0000701B  53                push ebx
0000701C  325F53            xor bl,[edi+0x53]
0000701F  325F00            xor bl,[edi+0x0]
00007022  4E                dec esi
00007023  005F5A            add [edi+0x5a],bl
00007026  4E                dec esi
00007027  53                push ebx
00007028  61                popa
00007029  49                dec ecx
0000702A  53                push ebx
0000702B  7434              jz 0x7061
0000702D  7061              jo 0x7090
0000702F  69724964535F49    imul esi,[edx+0x49],dword 0x495f5364
00007036  69694545454332    imul ebp,[ecx+0x45],dword 0x32434545
0000703D  45                inc ebp
0000703E  7600              jna 0x7040
00007040  5F                pop edi
00007041  5A                pop edx
00007042  4E                dec esi
00007043  53                push ebx
00007044  61                popa
00007045  49                dec ecx
00007046  53                push ebx
00007047  7434              jz 0x707d
00007049  7061              jo 0x70ac
0000704B  69724964535F49    imul esi,[edx+0x49],dword 0x495f5364
00007052  69694545454431    imul ebp,[ecx+0x45],dword 0x31444545
00007059  45                inc ebp
0000705A  7600              jna 0x705c
0000705C  5F                pop edi
0000705D  5A                pop edx
0000705E  4E                dec esi
0000705F  4B                dec ebx
00007060  53                push ebx
00007061  7436              jz 0x7099
00007063  7665              jna 0x70ca
00007065  63746F72          arpl [edi+ebp*2+0x72],si
00007069  49                dec ecx
0000706A  53                push ebx
0000706B  7434              jz 0x70a1
0000706D  7061              jo 0x70d0
0000706F  6972496453305F    imul esi,[edx+0x49],dword 0x5f305364
00007076  49                dec ecx
00007077  69694545536149    imul ebp,[ecx+0x45],dword 0x49615345
0000707E  53                push ebx
0000707F  325F45            xor bl,[edi+0x45]
00007082  45                inc ebp
00007083  3473              xor al,0x73
00007085  697A654576005F    imul edi,[edx+0x65],dword 0x5f007645
0000708C  5A                pop edx
0000708D  4E                dec esi
0000708E  53                push ebx
0000708F  7431              jz 0x70c2
00007091  325F56            xor bl,[edi+0x56]
00007094  6563746F72        arpl [gs:edi+ebp*2+0x72],si
00007099  5F                pop edi
0000709A  626173            bound esp,[ecx+0x73]
0000709D  6549              gs dec ecx
0000709F  53                push ebx
000070A0  7434              jz 0x70d6
000070A2  7061              jo 0x7105
000070A4  6972496453305F    imul esi,[edx+0x49],dword 0x5f305364
000070AB  49                dec ecx
000070AC  69694545536149    imul ebp,[ecx+0x45],dword 0x49615345
000070B3  53                push ebx
000070B4  325F45            xor bl,[edi+0x45]
000070B7  45                inc ebp
000070B8  3132              xor [edx],esi
000070BA  5F                pop edi
000070BB  56                push esi
000070BC  6563746F72        arpl [gs:edi+ebp*2+0x72],si
000070C1  5F                pop edi
000070C2  696D706C443145    imul ebp,[ebp+0x70],dword 0x4531446c
000070C9  7600              jna 0x70cb
000070CB  5F                pop edi
000070CC  5A                pop edx
000070CD  53                push ebx
000070CE  7431              jz 0x7101
000070D0  335F5F            xor ebx,[edi+0x5f]
000070D3  61                popa
000070D4  646A75            fs push byte +0x75
000070D7  7374              jnc 0x714d
000070D9  5F                pop edi
000070DA  6865617049        push dword 0x49706165
000070DF  4E                dec esi
000070E0  395F5F            cmp [edi+0x5f],ebx
000070E3  676E              a16 outsb
000070E5  755F              jnz 0x7146
000070E7  637878            arpl [eax+0x78],di
000070EA  3137              xor [edi],esi
000070EC  5F                pop edi
000070ED  5F                pop edi
000070EE  6E                outsb
000070EF  6F                outsd
000070F0  726D              jc 0x715f
000070F2  61                popa
000070F3  6C                insb
000070F4  5F                pop edi
000070F5  6974657261746F72  imul esi,[ebp+0x72],dword 0x726f7461
000070FD  49                dec ecx
000070FE  50                push eax
000070FF  53                push ebx
00007100  7434              jz 0x7136
00007102  7061              jo 0x7165
00007104  6972496453325F    imul esi,[edx+0x49],dword 0x5f325364
0000710B  49                dec ecx
0000710C  69694545537436    imul ebp,[ecx+0x45],dword 0x36745345
00007113  7665              jna 0x717a
00007115  63746F72          arpl [edi+ebp*2+0x72],si
00007119  49                dec ecx
0000711A  53                push ebx
0000711B  345F              xor al,0x5f
0000711D  53                push ebx
0000711E  61                popa
0000711F  49                dec ecx
00007120  53                push ebx
00007121  345F              xor al,0x5f
00007123  45                inc ebp
00007124  45                inc ebp
00007125  45                inc ebp
00007126  45                inc ebp
00007127  6953345F537434    imul edx,[ebx+0x34],dword 0x3474535f
0000712E  6C                insb
0000712F  657373            gs jnc 0x71a5
00007132  49                dec ecx
00007133  53                push ebx
00007134  345F              xor al,0x5f
00007136  45                inc ebp
00007137  45                inc ebp
00007138  7654              jna 0x718e
0000713A  5F                pop edi
0000713B  54                push esp
0000713C  305F53            xor [edi+0x53],bl
0000713F  44                inc esp
00007140  5F                pop edi
00007141  54                push esp
00007142  315F54            xor [edi+0x54],ebx
00007145  325F00            xor bl,[edi+0x0]
00007148  5F                pop edi
00007149  5A                pop edx
0000714A  4E                dec esi
0000714B  53                push ebx
0000714C  7431              jz 0x717f
0000714E  325F56            xor bl,[edi+0x56]
00007151  6563746F72        arpl [gs:edi+ebp*2+0x72],si
00007156  5F                pop edi
00007157  626173            bound esp,[ecx+0x73]
0000715A  6549              gs dec ecx
0000715C  53                push ebx
0000715D  7434              jz 0x7193
0000715F  7061              jo 0x71c2
00007161  6972496453305F    imul esi,[edx+0x49],dword 0x5f305364
00007168  49                dec ecx
00007169  69694545536149    imul ebp,[ecx+0x45],dword 0x49615345
00007170  53                push ebx
00007171  325F45            xor bl,[edi+0x45]
00007174  45                inc ebp
00007175  3132              xor [edx],esi
00007177  5F                pop edi
00007178  56                push esi
00007179  6563746F72        arpl [gs:edi+ebp*2+0x72],si
0000717E  5F                pop edi
0000717F  696D706C433245    imul ebp,[ebp+0x70],dword 0x4532436c
00007186  7600              jna 0x7188
00007188  5F                pop edi
00007189  5A                pop edx
0000718A  53                push ebx
0000718B  7438              jz 0x71c5
0000718D  706F              jo 0x71fe
0000718F  705F              jo 0x71f0
00007191  6865617049        push dword 0x49706165
00007196  4E                dec esi
00007197  395F5F            cmp [edi+0x5f],ebx
0000719A  676E              a16 outsb
0000719C  755F              jnz 0x71fd
0000719E  637878            arpl [eax+0x78],di
000071A1  3137              xor [edi],esi
000071A3  5F                pop edi
000071A4  5F                pop edi
000071A5  6E                outsb
000071A6  6F                outsd
000071A7  726D              jc 0x7216
000071A9  61                popa
000071AA  6C                insb
000071AB  5F                pop edi
000071AC  6974657261746F72  imul esi,[ebp+0x72],dword 0x726f7461
000071B4  49                dec ecx
000071B5  50                push eax
000071B6  53                push ebx
000071B7  7434              jz 0x71ed
000071B9  7061              jo 0x721c
000071BB  6972496453325F    imul esi,[edx+0x49],dword 0x5f325364
000071C2  49                dec ecx
000071C3  69694545537436    imul ebp,[ecx+0x45],dword 0x36745345
000071CA  7665              jna 0x7231
000071CC  63746F72          arpl [edi+ebp*2+0x72],si
000071D0  49                dec ecx
000071D1  53                push ebx
000071D2  345F              xor al,0x5f
000071D4  53                push ebx
000071D5  61                popa
000071D6  49                dec ecx
000071D7  53                push ebx
000071D8  345F              xor al,0x5f
000071DA  45                inc ebp
000071DB  45                inc ebp
000071DC  45                inc ebp
000071DD  45                inc ebp
000071DE  53                push ebx
000071DF  7434              jz 0x7215
000071E1  6C                insb
000071E2  657373            gs jnc 0x7258
000071E5  49                dec ecx
000071E6  53                push ebx
000071E7  345F              xor al,0x5f
000071E9  45                inc ebp
000071EA  45                inc ebp
000071EB  7654              jna 0x7241
000071ED  5F                pop edi
000071EE  53                push ebx
000071EF  43                inc ebx
000071F0  5F                pop edi
000071F1  54                push esp
000071F2  305F00            xor [edi+0x0],bl
000071F5  5F                pop edi
000071F6  5A                pop edx
000071F7  4E                dec esi
000071F8  53                push ebx
000071F9  69727345526940    imul esi,[edx+0x73],dword 0x40695245
00007200  40                inc eax
00007201  47                inc edi
00007202  4C                dec esp
00007203  49                dec ecx
00007204  42                inc edx
00007205  43                inc ebx
00007206  58                pop eax
00007207  58                pop eax
00007208  5F                pop edi
00007209  332E              xor ebp,[esi]
0000720B  3400              xor al,0x0
0000720D  5F                pop edi
0000720E  5A                pop edx
0000720F  4E                dec esi
00007210  53                push ebx
00007211  7431              jz 0x7244
00007213  325F56            xor bl,[edi+0x56]
00007216  6563746F72        arpl [gs:edi+ebp*2+0x72],si
0000721B  5F                pop edi
0000721C  626173            bound esp,[ecx+0x73]
0000721F  6549              gs dec ecx
00007221  53                push ebx
00007222  7434              jz 0x7258
00007224  7061              jo 0x7287
00007226  6972496453305F    imul esi,[edx+0x49],dword 0x5f305364
0000722D  49                dec ecx
0000722E  69694545536149    imul ebp,[ecx+0x45],dword 0x49615345
00007235  53                push ebx
00007236  325F45            xor bl,[edi+0x45]
00007239  45                inc ebp
0000723A  3132              xor [edx],esi
0000723C  5F                pop edi
0000723D  56                push esi
0000723E  6563746F72        arpl [gs:edi+ebp*2+0x72],si
00007243  5F                pop edi
00007244  696D706C433145    imul ebp,[ebp+0x70],dword 0x4531436c
0000724B  52                push edx
0000724C  4B                dec ebx
0000724D  53                push ebx
0000724E  335F00            xor ebx,[edi+0x0]
00007251  636500            arpl [ebp+0x0],sp
00007254  5F                pop edi
00007255  5A                pop edx
00007256  4E                dec esi
00007257  395F5F            cmp [edi+0x5f],ebx
0000725A  676E              a16 outsb
0000725C  755F              jnz 0x72bd
0000725E  637878            arpl [eax+0x78],di
00007261  6E                outsb
00007262  6549              gs dec ecx
00007264  50                push eax
00007265  4B                dec ebx
00007266  53                push ebx
00007267  7434              jz 0x729d
00007269  7061              jo 0x72cc
0000726B  6972496453315F    imul esi,[edx+0x49],dword 0x5f315364
00007272  49                dec ecx
00007273  69694545537436    imul ebp,[ecx+0x45],dword 0x36745345
0000727A  7665              jna 0x72e1
0000727C  63746F72          arpl [edi+ebp*2+0x72],si
00007280  49                dec ecx
00007281  53                push ebx
00007282  335F53            xor ebx,[edi+0x53]
00007285  61                popa
00007286  49                dec ecx
00007287  53                push ebx
00007288  335F45            xor ebx,[edi+0x45]
0000728B  45                inc ebp
0000728C  45                inc ebp
0000728D  45                inc ebp
0000728E  62524B            bound edx,[edx+0x4b]
00007291  4E                dec esi
00007292  53                push ebx
00007293  5F                pop edi
00007294  3137              xor [edi],esi
00007296  5F                pop edi
00007297  5F                pop edi
00007298  6E                outsb
00007299  6F                outsd
0000729A  726D              jc 0x7309
0000729C  61                popa
0000729D  6C                insb
0000729E  5F                pop edi
0000729F  6974657261746F72  imul esi,[ebp+0x72],dword 0x726f7461
000072A7  49                dec ecx
000072A8  54                push esp
000072A9  5F                pop edi
000072AA  54                push esp
000072AB  305F45            xor [edi+0x45],bl
000072AE  45                inc ebp
000072AF  53                push ebx
000072B0  45                inc ebp
000072B1  5F                pop edi
000072B2  005F5A            add [edi+0x5a],bl
000072B5  4E                dec esi
000072B6  395F5F            cmp [edi+0x5f],ebx
000072B9  676E              a16 outsb
000072BB  755F              jnz 0x731c
000072BD  637878            arpl [eax+0x78],di
000072C0  31345F            xor [edi+ebx*2],esi
000072C3  5F                pop edi
000072C4  61                popa
000072C5  6C                insb
000072C6  6C                insb
000072C7  6F                outsd
000072C8  635F74            arpl [edi+0x74],bx
000072CB  7261              jc 0x732e
000072CD  6974734953614953  imul esi,[ebx+esi*2+0x49],dword 0x53496153
000072D5  7434              jz 0x730b
000072D7  7061              jo 0x733a
000072D9  6972496453315F    imul esi,[edx+0x49],dword 0x5f315364
000072E0  49                dec ecx
000072E1  69694545454539    imul ebp,[ecx+0x45],dword 0x39454545
000072E8  636F6E            arpl [edi+0x6e],bp
000072EB  7374              jnc 0x7361
000072ED  7275              jc 0x7364
000072EF  63744953          arpl [ecx+ecx*2+0x53],si
000072F3  335F45            xor ebx,[edi+0x45]
000072F6  45                inc ebp
000072F7  7652              jna 0x734b
000072F9  53                push ebx
000072FA  345F              xor al,0x5f
000072FC  50                push eax
000072FD  53                push ebx
000072FE  335F52            xor ebx,[edi+0x52]
00007301  4B                dec ebx
00007302  54                push esp
00007303  5F                pop edi
00007304  005F65            add [edi+0x65],bl
00007307  6E                outsb
00007308  64005F5A          add [fs:edi+0x5a],bl
0000730C  4E                dec esi
0000730D  53                push ebx
0000730E  7431              jz 0x7341
00007310  305F49            xor [edi+0x49],bl
00007313  7465              jz 0x737a
00007315  725F              jc 0x7376
00007317  626173            bound esp,[ecx+0x73]
0000731A  6549              gs dec ecx
0000731C  50                push eax
0000731D  53                push ebx
0000731E  7434              jz 0x7354
00007320  7061              jo 0x7383
00007322  6972496453305F    imul esi,[edx+0x49],dword 0x5f305364
00007329  49                dec ecx
0000732A  696945454C6230    imul ebp,[ecx+0x45],dword 0x30624c45
00007331  45                inc ebp
00007332  45                inc ebp
00007333  37                aaa
00007334  5F                pop edi
00007335  53                push ebx
00007336  5F                pop edi
00007337  626173            bound esp,[ecx+0x73]
0000733A  6545              gs inc ebp
0000733C  53                push ebx
0000733D  335F00            xor ebx,[edi+0x0]
00007340  5F                pop edi
00007341  5A                pop edx
00007342  4E                dec esi
00007343  53                push ebx
00007344  7432              jz 0x7378
00007346  305F5F            xor [edi+0x5f],bl
00007349  756E              jnz 0x73b9
0000734B  696E697469616C    imul ebp,[esi+0x69],dword 0x6c616974
00007352  697A65645F636F    imul edi,[edx+0x65],dword 0x6f635f64
00007359  7079              jo 0x73d4
0000735B  49                dec ecx
0000735C  4C                dec esp
0000735D  6230              bound esi,[eax]
0000735F  45                inc ebp
00007360  45                inc ebp
00007361  3133              xor [ebx],esi
00007363  5F                pop edi
00007364  5F                pop edi
00007365  756E              jnz 0x73d5
00007367  696E69745F636F    imul ebp,[esi+0x69],dword 0x6f635f74
0000736E  7079              jo 0x73e9
00007370  49                dec ecx
00007371  4E                dec esi
00007372  395F5F            cmp [edi+0x5f],ebx
00007375  676E              a16 outsb
00007377  755F              jnz 0x73d8
00007379  637878            arpl [eax+0x78],di
0000737C  3137              xor [edi],esi
0000737E  5F                pop edi
0000737F  5F                pop edi
00007380  6E                outsb
00007381  6F                outsd
00007382  726D              jc 0x73f1
00007384  61                popa
00007385  6C                insb
00007386  5F                pop edi
00007387  6974657261746F72  imul esi,[ebp+0x72],dword 0x726f7461
0000738F  49                dec ecx
00007390  50                push eax
00007391  4B                dec ebx
00007392  53                push ebx
00007393  7434              jz 0x73c9
00007395  7061              jo 0x73f8
00007397  6972496453345F    imul esi,[edx+0x49],dword 0x5f345364
0000739E  49                dec ecx
0000739F  69694545537436    imul ebp,[ecx+0x45],dword 0x36745345
000073A6  7665              jna 0x740d
000073A8  63746F72          arpl [edi+ebp*2+0x72],si
000073AC  49                dec ecx
000073AD  53                push ebx
000073AE  365F              ss pop edi
000073B0  53                push ebx
000073B1  61                popa
000073B2  49                dec ecx
000073B3  53                push ebx
000073B4  365F              ss pop edi
000073B6  45                inc ebp
000073B7  45                inc ebp
000073B8  45                inc ebp
000073B9  45                inc ebp
000073BA  50                push eax
000073BB  53                push ebx
000073BC  365F              ss pop edi
000073BE  45                inc ebp
000073BF  45                inc ebp
000073C0  54                push esp
000073C1  305F54            xor [edi+0x54],bl
000073C4  5F                pop edi
000073C5  53                push ebx
000073C6  46                inc esi
000073C7  5F                pop edi
000073C8  53                push ebx
000073C9  45                inc ebp
000073CA  5F                pop edi
000073CB  005F5A            add [edi+0x5a],bl
000073CE  4E                dec esi
000073CF  4B                dec ebx
000073D0  395F5F            cmp [edi+0x5f],ebx
000073D3  676E              a16 outsb
000073D5  755F              jnz 0x7436
000073D7  637878            arpl [eax+0x78],di
000073DA  3137              xor [edi],esi
000073DC  5F                pop edi
000073DD  5F                pop edi
000073DE  6E                outsb
000073DF  6F                outsd
000073E0  726D              jc 0x744f
000073E2  61                popa
000073E3  6C                insb
000073E4  5F                pop edi
000073E5  6974657261746F72  imul esi,[ebp+0x72],dword 0x726f7461
000073ED  49                dec ecx
000073EE  50                push eax
000073EF  4B                dec ebx
000073F0  53                push ebx
000073F1  7434              jz 0x7427
000073F3  7061              jo 0x7456
000073F5  6972496453315F    imul esi,[edx+0x49],dword 0x5f315364
000073FC  49                dec ecx
000073FD  69694545537436    imul ebp,[ecx+0x45],dword 0x36745345
00007404  7665              jna 0x746b
00007406  63746F72          arpl [edi+ebp*2+0x72],si
0000740A  49                dec ecx
0000740B  53                push ebx
0000740C  335F53            xor ebx,[edi+0x53]
0000740F  61                popa
00007410  49                dec ecx
00007411  53                push ebx
00007412  335F45            xor ebx,[edi+0x45]
00007415  45                inc ebp
00007416  45                inc ebp
00007417  646545            gs inc ebp
0000741A  7600              jna 0x741c
0000741C  5F                pop edi
0000741D  5F                pop edi
0000741E  637861            arpl [eax+0x61],di
00007421  5F                pop edi
00007422  656E              gs outsb
00007424  645F              fs pop edi
00007426  636174            arpl [ecx+0x74],sp
00007429  636840            arpl [eax+0x40],bp
0000742C  40                inc eax
0000742D  43                inc ebx
0000742E  58                pop eax
0000742F  58                pop eax
00007430  41                inc ecx
00007431  42                inc edx
00007432  49                dec ecx
00007433  5F                pop edi
00007434  312E              xor [esi],ebp
00007436  3300              xor eax,[eax]
00007438  5F                pop edi
00007439  5A                pop edx
0000743A  53                push ebx
0000743B  7431              jz 0x746e
0000743D  37                aaa
0000743E  5F                pop edi
0000743F  5F                pop edi
00007440  7468              jz 0x74aa
00007442  726F              jc 0x74b3
00007444  775F              ja 0x74a5
00007446  626164            bound esp,[ecx+0x64]
00007449  5F                pop edi
0000744A  61                popa
0000744B  6C                insb
0000744C  6C                insb
0000744D  6F                outsd
0000744E  637640            arpl [esi+0x40],si
00007451  40                inc eax
00007452  47                inc edi
00007453  4C                dec esp
00007454  49                dec ecx
00007455  42                inc edx
00007456  43                inc ebx
00007457  58                pop eax
00007458  58                pop eax
00007459  5F                pop edi
0000745A  332E              xor ebp,[esi]
0000745C  3400              xor al,0x0
0000745E  5F                pop edi
0000745F  5A                pop edx
00007460  53                push ebx
00007461  7431              jz 0x7494
00007463  325F5F            xor bl,[edi+0x5f]
00007466  6D                insd
00007467  697465725F626173  imul esi,[ebp+0x72],dword 0x7361625f
0000746F  6549              gs dec ecx
00007471  50                push eax
00007472  53                push ebx
00007473  7434              jz 0x74a9
00007475  7061              jo 0x74d8
00007477  6972496453305F    imul esi,[edx+0x49],dword 0x5f305364
0000747E  49                dec ecx
0000747F  69694545454E53    imul ebp,[ecx+0x45],dword 0x534e4545
00007486  7431              jz 0x74b9
00007488  315F4D            xor [edi+0x4d],ebx
0000748B  697465725F626173  imul esi,[ebp+0x72],dword 0x7361625f
00007493  6549              gs dec ecx
00007495  54                push esp
00007496  5F                pop edi
00007497  45                inc ebp
00007498  3133              xor [ebx],esi
0000749A  6974657261746F72  imul esi,[ebp+0x72],dword 0x726f7461
000074A2  5F                pop edi
000074A3  7479              jz 0x751e
000074A5  7065              jo 0x750c
000074A7  45                inc ebp
000074A8  53                push ebx
000074A9  355F006478        xor eax,0x7864005f
000074AE  005F5A            add [edi+0x5a],bl
000074B1  4E                dec esi
000074B2  53                push ebx
000074B3  61                popa
000074B4  49                dec ecx
000074B5  53                push ebx
000074B6  7434              jz 0x74ec
000074B8  7061              jo 0x751b
000074BA  69724964535F49    imul esi,[edx+0x49],dword 0x495f5364
000074C1  69694545454331    imul ebp,[ecx+0x45],dword 0x31434545
000074C8  45                inc ebp
000074C9  7600              jna 0x74cb
000074CB  5F                pop edi
000074CC  5A                pop edx
000074CD  4E                dec esi
000074CE  395F5F            cmp [edi+0x5f],ebx
000074D1  676E              a16 outsb
000074D3  755F              jnz 0x7534
000074D5  637878            arpl [eax+0x78],di
000074D8  31345F            xor [edi+ebx*2],esi
000074DB  5F                pop edi
000074DC  61                popa
000074DD  6C                insb
000074DE  6C                insb
000074DF  6F                outsd
000074E0  635F74            arpl [edi+0x74],bx
000074E3  7261              jc 0x7546
000074E5  6974734953614953  imul esi,[ebx+esi*2+0x49],dword 0x53496153
000074ED  7434              jz 0x7523
000074EF  7061              jo 0x7552
000074F1  6972496453315F    imul esi,[edx+0x49],dword 0x5f315364
000074F8  49                dec ecx
000074F9  69694545454538    imul ebp,[ecx+0x45],dword 0x38454545
00007500  6D                insd
00007501  61                popa
00007502  785F              js 0x7563
00007504  7369              jnc 0x756f
00007506  7A65              jpe 0x756d
00007508  45                inc ebp
00007509  52                push edx
0000750A  4B                dec ebx
0000750B  53                push ebx
0000750C  345F              xor al,0x5f
0000750E  005F5A            add [edi+0x5a],bl
00007511  53                push ebx
00007512  7439              jz 0x754d
00007514  6D                insd
00007515  61                popa
00007516  6B655F68          imul esp,[ebp+0x5f],byte +0x68
0000751A  6561              gs popa
0000751C  7049              jo 0x7567
0000751E  4E                dec esi
0000751F  395F5F            cmp [edi+0x5f],ebx
00007522  676E              a16 outsb
00007524  755F              jnz 0x7585
00007526  637878            arpl [eax+0x78],di
00007529  3137              xor [edi],esi
0000752B  5F                pop edi
0000752C  5F                pop edi
0000752D  6E                outsb
0000752E  6F                outsd
0000752F  726D              jc 0x759e
00007531  61                popa
00007532  6C                insb
00007533  5F                pop edi
00007534  6974657261746F72  imul esi,[ebp+0x72],dword 0x726f7461
0000753C  49                dec ecx
0000753D  50                push eax
0000753E  53                push ebx
0000753F  7434              jz 0x7575
00007541  7061              jo 0x75a4
00007543  6972496453325F    imul esi,[edx+0x49],dword 0x5f325364
0000754A  49                dec ecx
0000754B  69694545537436    imul ebp,[ecx+0x45],dword 0x36745345
00007552  7665              jna 0x75b9
00007554  63746F72          arpl [edi+ebp*2+0x72],si
00007558  49                dec ecx
00007559  53                push ebx
0000755A  345F              xor al,0x5f
0000755C  53                push ebx
0000755D  61                popa
0000755E  49                dec ecx
0000755F  53                push ebx
00007560  345F              xor al,0x5f
00007562  45                inc ebp
00007563  45                inc ebp
00007564  45                inc ebp
00007565  45                inc ebp
00007566  53                push ebx
00007567  7434              jz 0x759d
00007569  6C                insb
0000756A  657373            gs jnc 0x75e0
0000756D  49                dec ecx
0000756E  53                push ebx
0000756F  345F              xor al,0x5f
00007571  45                inc ebp
00007572  45                inc ebp
00007573  7654              jna 0x75c9
00007575  5F                pop edi
00007576  53                push ebx
00007577  43                inc ebx
00007578  5F                pop edi
00007579  54                push esp
0000757A  305F00            xor [edi+0x0],bl
0000757D  5F                pop edi
0000757E  5A                pop edx
0000757F  4E                dec esi
00007580  53                push ebx
00007581  7431              jz 0x75b4
00007583  325F56            xor bl,[edi+0x56]
00007586  6563746F72        arpl [gs:edi+ebp*2+0x72],si
0000758B  5F                pop edi
0000758C  626173            bound esp,[ecx+0x73]
0000758F  6549              gs dec ecx
00007591  53                push ebx
00007592  7434              jz 0x75c8
00007594  7061              jo 0x75f7
00007596  6972496453305F    imul esi,[edx+0x49],dword 0x5f305364
0000759D  49                dec ecx
0000759E  69694545536149    imul ebp,[ecx+0x45],dword 0x49615345
000075A5  53                push ebx
000075A6  325F45            xor bl,[edi+0x45]
000075A9  45                inc ebp
000075AA  43                inc ebx
000075AB  31456A            xor [ebp+0x6a],eax
000075AE  52                push edx
000075AF  4B                dec ebx
000075B0  53                push ebx
000075B1  335F00            xor ebx,[edi+0x0]
000075B4  64697374005F5F63  imul esi,[fs:ebx+0x74],dword 0x635f5f00
000075BC  7861              js 0x761f
000075BE  5F                pop edi
000075BF  626567            bound esp,[ebp+0x67]
000075C2  696E5F63617463    imul ebp,[esi+0x5f],dword 0x63746163
000075C9  6840404358        push dword 0x58434040
000075CE  58                pop eax
000075CF  41                inc ecx
000075D0  42                inc edx
000075D1  49                dec ecx
000075D2  5F                pop edi
000075D3  312E              xor [esi],ebp
000075D5  3300              xor eax,[eax]
000075D7  5F                pop edi
000075D8  5A                pop edx
000075D9  4E                dec esi
000075DA  53                push ebx
000075DB  7434              jz 0x7611
000075DD  7061              jo 0x7640
000075DF  69724964535F49    imul esi,[edx+0x49],dword 0x495f5364
000075E6  69694545433145    imul ebp,[ecx+0x45],dword 0x45314345
000075ED  52                push edx
000075EE  4B                dec ebx
000075EF  6452              fs push edx
000075F1  4B                dec ebx
000075F2  53                push ebx
000075F3  305F00            xor [edi+0x0],bl
000075F6  5F                pop edi
000075F7  5A                pop edx
000075F8  4E                dec esi
000075F9  395F5F            cmp [edi+0x5f],ebx
000075FC  676E              a16 outsb
000075FE  755F              jnz 0x765f
00007600  637878            arpl [eax+0x78],di
00007603  3133              xor [ebx],esi
00007605  6E                outsb
00007606  65775F            gs ja 0x7668
00007609  61                popa
0000760A  6C                insb
0000760B  6C                insb
0000760C  6F                outsd
0000760D  636174            arpl [ecx+0x74],sp
00007610  6F                outsd
00007611  7249              jc 0x765c
00007613  53                push ebx
00007614  7434              jz 0x764a
00007616  7061              jo 0x7679
00007618  6972496453315F    imul esi,[edx+0x49],dword 0x5f315364
0000761F  49                dec ecx
00007620  69694545454332    imul ebp,[ecx+0x45],dword 0x32434545
00007627  45                inc ebp
00007628  7600              jna 0x762a
0000762A  5F                pop edi
0000762B  5A                pop edx
0000762C  4E                dec esi
0000762D  53                push ebx
0000762E  7434              jz 0x7664
00007630  7061              jo 0x7693
00007632  69724969694543    imul esi,[edx+0x49],dword 0x43456969
00007639  324552            xor al,[ebp+0x52]
0000763C  4B                dec ebx
0000763D  6953325F005F5A    imul edx,[ebx+0x32],dword 0x5a5f005f
00007644  4E                dec esi
00007645  53                push ebx
00007646  7436              jz 0x767e
00007648  7665              jna 0x76af
0000764A  63746F72          arpl [edi+ebp*2+0x72],si
0000764E  49                dec ecx
0000764F  53                push ebx
00007650  7434              jz 0x7686
00007652  7061              jo 0x76b5
00007654  6972496453305F    imul esi,[edx+0x49],dword 0x5f305364
0000765B  49                dec ecx
0000765C  69694545536149    imul ebp,[ecx+0x45],dword 0x49615345
00007663  53                push ebx
00007664  325F45            xor bl,[edi+0x45]
00007667  45                inc ebp
00007668  397075            cmp [eax+0x75],esi
0000766B  7368              jnc 0x76d5
0000766D  5F                pop edi
0000766E  626163            bound esp,[ecx+0x63]
00007671  6B45524B          imul eax,[ebp+0x52],byte +0x4b
00007675  53                push ebx
00007676  325F00            xor bl,[edi+0x0]
00007679  5F                pop edi
0000767A  5A                pop edx
0000767B  4E                dec esi
0000767C  53                push ebx
0000767D  7431              jz 0x76b0
0000767F  325F56            xor bl,[edi+0x56]
00007682  6563746F72        arpl [gs:edi+ebp*2+0x72],si
00007687  5F                pop edi
00007688  626173            bound esp,[ecx+0x73]
0000768B  6549              gs dec ecx
0000768D  53                push ebx
0000768E  7434              jz 0x76c4
00007690  7061              jo 0x76f3
00007692  6972496453305F    imul esi,[edx+0x49],dword 0x5f305364
00007699  49                dec ecx
0000769A  69694545536149    imul ebp,[ecx+0x45],dword 0x49615345
000076A1  53                push ebx
000076A2  325F45            xor bl,[edi+0x45]
000076A5  45                inc ebp
000076A6  43                inc ebx
000076A7  32456A            xor al,[ebp+0x6a]
000076AA  52                push edx
000076AB  4B                dec ebx
000076AC  53                push ebx
000076AD  335F00            xor ebx,[edi+0x0]
000076B0  45                inc ebp
000076B1  50                push eax
000076B2  53                push ebx
000076B3  005F65            add [edi+0x65],bl
000076B6  6461              fs popa
000076B8  7461              jz 0x771b
000076BA  005F5A            add [edi+0x5a],bl
000076BD  4E                dec esi
000076BE  53                push ebx
000076BF  7434              jz 0x76f5
000076C1  7061              jo 0x7724
000076C3  69724964535F49    imul esi,[edx+0x49],dword 0x495f5364
000076CA  69694545433245    imul ebp,[ecx+0x45],dword 0x45324345
000076D1  52                push edx
000076D2  4B                dec ebx
000076D3  6452              fs push edx
000076D5  4B                dec ebx
000076D6  53                push ebx
000076D7  305F00            xor [edi+0x0],bl
000076DA  5F                pop edi
000076DB  5A                pop edx
000076DC  53                push ebx
000076DD  7439              jz 0x7718
000076DF  6D                insd
000076E0  61                popa
000076E1  6B655F70          imul esp,[ebp+0x5f],byte +0x70
000076E5  61                popa
000076E6  69724969694553    imul esi,[edx+0x49],dword 0x53456969
000076ED  7434              jz 0x7723
000076EF  7061              jo 0x7752
000076F1  697249545F5430    imul esi,[edx+0x49],dword 0x30545f54
000076F8  5F                pop edi
000076F9  45                inc ebp
000076FA  53                push ebx
000076FB  315F53            xor [edi+0x53],ebx
000076FE  325F00            xor bl,[edi+0x0]
00007701  5F                pop edi
00007702  5F                pop edi
00007703  677878            js 0x777e
00007706  5F                pop edi
00007707  7065              jo 0x776e
00007709  7273              jc 0x777e
0000770B  6F                outsd
0000770C  6E                outsb
0000770D  61                popa
0000770E  6C                insb
0000770F  6974795F76304040  imul esi,[ecx+edi*2+0x5f],dword 0x40403076
00007717  43                inc ebx
00007718  58                pop eax
00007719  58                pop eax
0000771A  41                inc ecx
0000771B  42                inc edx
0000771C  49                dec ecx
0000771D  5F                pop edi
0000771E  312E              xor [esi],ebp
00007720  3300              xor eax,[eax]
00007722  5F                pop edi
00007723  5A                pop edx
00007724  4E                dec esi
00007725  53                push ebx
00007726  61                popa
00007727  49                dec ecx
00007728  53                push ebx
00007729  7434              jz 0x775f
0000772B  7061              jo 0x778e
0000772D  69724964535F49    imul esi,[edx+0x49],dword 0x495f5364
00007734  69694545454332    imul ebp,[ecx+0x45],dword 0x32434545
0000773B  45                inc ebp
0000773C  52                push edx
0000773D  4B                dec ebx
0000773E  53                push ebx
0000773F  325F00            xor bl,[edi+0x0]
00007742  5F                pop edi
00007743  5A                pop edx
00007744  4E                dec esi
00007745  53                push ebx
00007746  7431              jz 0x7779
00007748  3470              xor al,0x70
0000774A  7269              jc 0x77b5
0000774C  6F                outsd
0000774D  7269              jc 0x77b8
0000774F  7479              jz 0x77ca
00007751  5F                pop edi
00007752  7175              jno 0x77c9
00007754  657565            gs jnz 0x77bc
00007757  49                dec ecx
00007758  53                push ebx
00007759  7434              jz 0x778f
0000775B  7061              jo 0x77be
0000775D  6972496453305F    imul esi,[edx+0x49],dword 0x5f305364
00007764  49                dec ecx
00007765  69694545537436    imul ebp,[ecx+0x45],dword 0x36745345
0000776C  7665              jna 0x77d3
0000776E  63746F72          arpl [edi+ebp*2+0x72],si
00007772  49                dec ecx
00007773  53                push ebx
00007774  325F53            xor bl,[edi+0x53]
00007777  61                popa
00007778  49                dec ecx
00007779  53                push ebx
0000777A  325F45            xor bl,[edi+0x45]
0000777D  45                inc ebp
0000777E  53                push ebx
0000777F  7434              jz 0x77b5
00007781  6C                insb
00007782  657373            gs jnc 0x77f8
00007785  49                dec ecx
00007786  53                push ebx
00007787  325F45            xor bl,[edi+0x45]
0000778A  45                inc ebp
0000778B  44                inc esp
0000778C  324576            xor al,[ebp+0x76]
0000778F  005F55            add [edi+0x55],bl
00007792  6E                outsb
00007793  7769              ja 0x77fe
00007795  6E                outsb
00007796  645F              fs pop edi
00007798  52                push edx
00007799  657375            gs jnc 0x7811
0000779C  6D                insd
0000779D  6540              gs inc eax
0000779F  40                inc eax
000077A0  47                inc edi
000077A1  43                inc ebx
000077A2  43                inc ebx
000077A3  5F                pop edi
000077A4  332E              xor ebp,[esi]
000077A6  3000              xor [eax],al
000077A8  5F                pop edi
000077A9  5A                pop edx
000077AA  4E                dec esi
000077AB  53                push ebx
000077AC  7431              jz 0x77df
000077AE  3470              xor al,0x70
000077B0  7269              jc 0x781b
000077B2  6F                outsd
000077B3  7269              jc 0x781e
000077B5  7479              jz 0x7830
000077B7  5F                pop edi
000077B8  7175              jno 0x782f
000077BA  657565            gs jnz 0x7822
000077BD  49                dec ecx
000077BE  53                push ebx
000077BF  7434              jz 0x77f5
000077C1  7061              jo 0x7824
000077C3  6972496453305F    imul esi,[edx+0x49],dword 0x5f305364
000077CA  49                dec ecx
000077CB  69694545537436    imul ebp,[ecx+0x45],dword 0x36745345
000077D2  7665              jna 0x7839
000077D4  63746F72          arpl [edi+ebp*2+0x72],si
000077D8  49                dec ecx
000077D9  53                push ebx
000077DA  325F53            xor bl,[edi+0x53]
000077DD  61                popa
000077DE  49                dec ecx
000077DF  53                push ebx
000077E0  325F45            xor bl,[edi+0x45]
000077E3  45                inc ebp
000077E4  53                push ebx
000077E5  7434              jz 0x781b
000077E7  6C                insb
000077E8  657373            gs jnc 0x785e
000077EB  49                dec ecx
000077EC  53                push ebx
000077ED  325F45            xor bl,[edi+0x45]
000077F0  45                inc ebp
000077F1  43                inc ebx
000077F2  324552            xor al,[ebp+0x52]
000077F5  4B                dec ebx
000077F6  53                push ebx
000077F7  37                aaa
000077F8  5F                pop edi
000077F9  52                push edx
000077FA  4B                dec ebx
000077FB  53                push ebx
000077FC  355F005F5A        xor eax,0x5a5f005f
00007801  4E                dec esi
00007802  53                push ebx
00007803  7431              jz 0x7836
00007805  325F56            xor bl,[edi+0x56]
00007808  6563746F72        arpl [gs:edi+ebp*2+0x72],si
0000780D  5F                pop edi
0000780E  626173            bound esp,[ecx+0x73]
00007811  6549              gs dec ecx
00007813  53                push ebx
00007814  7434              jz 0x784a
00007816  7061              jo 0x7879
00007818  6972496453305F    imul esi,[edx+0x49],dword 0x5f305364
0000781F  49                dec ecx
00007820  69694545536149    imul ebp,[ecx+0x45],dword 0x49615345
00007827  53                push ebx
00007828  325F45            xor bl,[edi+0x45]
0000782B  45                inc ebp
0000782C  3133              xor [ebx],esi
0000782E  5F                pop edi
0000782F  4D                dec ebp
00007830  5F                pop edi
00007831  646561            gs popa
00007834  6C                insb
00007835  6C                insb
00007836  6F                outsd
00007837  636174            arpl [ecx+0x74],sp
0000783A  6545              gs inc ebp
0000783C  50                push eax
0000783D  53                push ebx
0000783E  325F6A            xor bl,[edi+0x6a]
00007841  005F5A            add [edi+0x5a],bl
00007844  4E                dec esi
00007845  53                push ebx
00007846  7431              jz 0x7879
00007848  325F56            xor bl,[edi+0x56]
0000784B  6563746F72        arpl [gs:edi+ebp*2+0x72],si
00007850  5F                pop edi
00007851  626173            bound esp,[ecx+0x73]
00007854  6549              gs dec ecx
00007856  53                push ebx
00007857  7434              jz 0x788d
00007859  7061              jo 0x78bc
0000785B  6972496453305F    imul esi,[edx+0x49],dword 0x5f305364
00007862  49                dec ecx
00007863  69694545536149    imul ebp,[ecx+0x45],dword 0x49615345
0000786A  53                push ebx
0000786B  325F45            xor bl,[edi+0x45]
0000786E  45                inc ebp
0000786F  3137              xor [edi],esi
00007871  5F                pop edi
00007872  4D                dec ebp
00007873  5F                pop edi
00007874  637265            arpl [edx+0x65],si
00007877  61                popa
00007878  7465              jz 0x78df
0000787A  5F                pop edi
0000787B  7374              jnc 0x78f1
0000787D  6F                outsd
0000787E  7261              jc 0x78e1
00007880  676545            gs inc ebp
00007883  6A00              push byte +0x0
00007885  5F                pop edi
00007886  5A                pop edx
00007887  4E                dec esi
00007888  395F5F            cmp [edi+0x5f],ebx
0000788B  676E              a16 outsb
0000788D  755F              jnz 0x78ee
0000788F  637878            arpl [eax+0x78],di
00007892  6D                insd
00007893  69495053743470    imul ecx,[ecx+0x50],dword 0x70347453
0000789A  61                popa
0000789B  6972496453315F    imul esi,[edx+0x49],dword 0x5f315364
000078A2  49                dec ecx
000078A3  69694545537436    imul ebp,[ecx+0x45],dword 0x36745345
000078AA  7665              jna 0x7911
000078AC  63746F72          arpl [edi+ebp*2+0x72],si
000078B0  49                dec ecx
000078B1  53                push ebx
000078B2  335F53            xor ebx,[edi+0x53]
000078B5  61                popa
000078B6  49                dec ecx
000078B7  53                push ebx
000078B8  335F45            xor ebx,[edi+0x45]
000078BB  45                inc ebp
000078BC  45                inc ebp
000078BD  45                inc ebp
000078BE  4E                dec esi
000078BF  53                push ebx
000078C0  5F                pop edi
000078C1  3137              xor [edi],esi
000078C3  5F                pop edi
000078C4  5F                pop edi
000078C5  6E                outsb
000078C6  6F                outsd
000078C7  726D              jc 0x7936
000078C9  61                popa
000078CA  6C                insb
000078CB  5F                pop edi
000078CC  6974657261746F72  imul esi,[ebp+0x72],dword 0x726f7461
000078D4  49                dec ecx
000078D5  54                push esp
000078D6  5F                pop edi
000078D7  54                push esp
000078D8  305F45            xor [edi+0x45],bl
000078DB  313564696666      xor [dword 0x66666964],esi
000078E1  657265            gs jc 0x7949
000078E4  6E                outsb
000078E5  63655F            arpl [ebp+0x5f],sp
000078E8  7479              jz 0x7963
000078EA  7065              jo 0x7951
000078EC  45                inc ebp
000078ED  52                push edx
000078EE  4B                dec ebx
000078EF  53                push ebx
000078F0  42                inc edx
000078F1  5F                pop edi
000078F2  53                push ebx
000078F3  45                inc ebp
000078F4  5F                pop edi
000078F5  005F5A            add [edi+0x5a],bl
000078F8  4E                dec esi
000078F9  53                push ebx
000078FA  7436              jz 0x7932
000078FC  7665              jna 0x7963
000078FE  63746F72          arpl [edi+ebp*2+0x72],si
00007902  49                dec ecx
00007903  53                push ebx
00007904  7434              jz 0x793a
00007906  7061              jo 0x7969
00007908  6972496453305F    imul esi,[edx+0x49],dword 0x5f305364
0000790F  49                dec ecx
00007910  69694545536149    imul ebp,[ecx+0x45],dword 0x49615345
00007917  53                push ebx
00007918  325F45            xor bl,[edi+0x45]
0000791B  45                inc ebp
0000791C  3562656769        xor eax,0x69676562
00007921  6E                outsb
00007922  45                inc ebp
00007923  7600              jna 0x7925
00007925  5F                pop edi
00007926  5F                pop edi
00007927  693638362E67      imul esi,[esi],dword 0x672e3638
0000792D  65745F            gs jz 0x798f
00007930  7063              jo 0x7995
00007932  5F                pop edi
00007933  7468              jz 0x799d
00007935  756E              jnz 0x79a5
00007937  6B2E62            imul ebp,[esi],byte +0x62
0000793A  7800              js 0x793c
0000793C  6D                insd
0000793D  61                popa
0000793E  696E005F5A4E53    imul ebp,[esi+0x0],dword 0x534e5a5f
00007945  7431              jz 0x7978
00007947  325F56            xor bl,[edi+0x56]
0000794A  6563746F72        arpl [gs:edi+ebp*2+0x72],si
0000794F  5F                pop edi
00007950  626173            bound esp,[ecx+0x73]
00007953  6549              gs dec ecx
00007955  53                push ebx
00007956  7434              jz 0x798c
00007958  7061              jo 0x79bb
0000795A  6972496453305F    imul esi,[edx+0x49],dword 0x5f305364
00007961  49                dec ecx
00007962  69694545536149    imul ebp,[ecx+0x45],dword 0x49615345
00007969  53                push ebx
0000796A  325F45            xor bl,[edi+0x45]
0000796D  45                inc ebp
0000796E  3139              xor [ecx],edi
00007970  5F                pop edi
00007971  4D                dec ebp
00007972  5F                pop edi
00007973  6765745F          gs jz 0x79d6
00007977  54                push esp
00007978  705F              jo 0x79d9
0000797A  61                popa
0000797B  6C                insb
0000797C  6C                insb
0000797D  6F                outsd
0000797E  636174            arpl [ecx+0x74],sp
00007981  6F                outsd
00007982  7245              jc 0x79c9
00007984  7600              jna 0x7986
00007986  5F                pop edi
00007987  696E6974005F5A    imul ebp,[esi+0x69],dword 0x5a5f0074
0000798E  4E                dec esi
0000798F  395F5F            cmp [edi+0x5f],ebx
00007992  676E              a16 outsb
00007994  755F              jnz 0x79f5
00007996  637878            arpl [eax+0x78],di
00007999  31345F            xor [edi+ebx*2],esi
0000799C  5F                pop edi
0000799D  61                popa
0000799E  6C                insb
0000799F  6C                insb
000079A0  6F                outsd
000079A1  635F74            arpl [edi+0x74],bx
000079A4  7261              jc 0x7a07
000079A6  6974734953614953  imul esi,[ebx+esi*2+0x49],dword 0x53496153
000079AE  7434              jz 0x79e4
000079B0  7061              jo 0x7a13
000079B2  6972496453315F    imul esi,[edx+0x49],dword 0x5f315364
000079B9  49                dec ecx
000079BA  69694545454531    imul ebp,[ecx+0x45],dword 0x31454545
000079C1  37                aaa
000079C2  5F                pop edi
000079C3  53                push ebx
000079C4  5F                pop edi
000079C5  7365              jnc 0x7a2c
000079C7  6C                insb
000079C8  6563745F6F        arpl [gs:edi+ebx*2+0x6f],si
000079CD  6E                outsb
000079CE  5F                pop edi
000079CF  636F70            arpl [edi+0x70],bp
000079D2  7945              jns 0x7a19
000079D4  52                push edx
000079D5  4B                dec ebx
000079D6  53                push ebx
000079D7  345F              xor al,0x5f
000079D9  005F5A            add [edi+0x5a],bl
000079DC  4E                dec esi
000079DD  53                push ebx
000079DE  7436              jz 0x7a16
000079E0  7665              jna 0x7a47
000079E2  63746F72          arpl [edi+ebp*2+0x72],si
000079E6  49                dec ecx
000079E7  53                push ebx
000079E8  7434              jz 0x7a1e
000079EA  7061              jo 0x7a4d
000079EC  6972496453305F    imul esi,[edx+0x49],dword 0x5f305364
000079F3  49                dec ecx
000079F4  69694545536149    imul ebp,[ecx+0x45],dword 0x49615345
000079FB  53                push ebx
000079FC  325F45            xor bl,[edi+0x45]
000079FF  45                inc ebp
00007A00  43                inc ebx
00007A01  314576            xor [ebp+0x76],eax
00007A04  00                db 0x00
