00000000  7F45              jg 0x47
00000002  4C                dec esp
00000003  46                inc esi
00000004  0101              add [ecx],eax
00000006  0100              add [eax],eax
00000008  0000              add [eax],al
0000000A  0000              add [eax],al
0000000C  0000              add [eax],al
0000000E  0000              add [eax],al
00000010  0200              add al,[eax]
00000012  0300              add eax,[eax]
00000014  0100              add [eax],eax
00000016  0000              add [eax],al
00000018  008904083400      add [ecx+0x340804],cl
0000001E  0000              add [eax],al
00000020  E030              loopne 0x52
00000022  0000              add [eax],al
00000024  0000              add [eax],al
00000026  0000              add [eax],al
00000028  3400              xor al,0x0
0000002A  2000              and [eax],al
0000002C  0800              or [eax],al
0000002E  2800              sub [eax],al
00000030  260023            add [es:ebx],ah
00000033  0006              add [esi],al
00000035  0000              add [eax],al
00000037  003400            add [eax+eax],dh
0000003A  0000              add [eax],al
0000003C  3480              xor al,0x80
0000003E  0408              add al,0x8
00000040  3480              xor al,0x80
00000042  0408              add al,0x8
00000044  0001              add [ecx],al
00000046  0000              add [eax],al
00000048  0001              add [ecx],al
0000004A  0000              add [eax],al
0000004C  0500000004        add eax,0x4000000
00000051  0000              add [eax],al
00000053  0003              add [ebx],al
00000055  0000              add [eax],al
00000057  003401            add [ecx+eax],dh
0000005A  0000              add [eax],al
0000005C  3481              xor al,0x81
0000005E  0408              add al,0x8
00000060  3481              xor al,0x81
00000062  0408              add al,0x8
00000064  1300              adc eax,[eax]
00000066  0000              add [eax],al
00000068  1300              adc eax,[eax]
0000006A  0000              add [eax],al
0000006C  0400              add al,0x0
0000006E  0000              add [eax],al
00000070  0100              add [eax],eax
00000072  0000              add [eax],al
00000074  0100              add [eax],eax
00000076  0000              add [eax],al
00000078  0000              add [eax],al
0000007A  0000              add [eax],al
0000007C  008004080080      add [eax+0x80000804],al
00000082  0408              add al,0x8
00000084  3027              xor [edi],ah
00000086  0000              add [eax],al
00000088  3027              xor [edi],ah
0000008A  0000              add [eax],al
0000008C  0500000000        add eax,0x0
00000091  1000              adc [eax],al
00000093  0001              add [ecx],al
00000095  0000              add [eax],al
00000097  0030              add [eax],dh
00000099  27                daa
0000009A  0000              add [eax],al
0000009C  30B7040830B7      xor [edi+0xb7300804],dh
000000A2  0408              add al,0x8
000000A4  58                pop eax
000000A5  0100              add [eax],eax
000000A7  006001            add [eax+0x1],ah
000000AA  0000              add [eax],al
000000AC  06                push es
000000AD  0000              add [eax],al
000000AF  0000              add [eax],al
000000B1  1000              adc [eax],al
000000B3  0002              add [edx],al
000000B5  0000              add [eax],al
000000B7  00442700          add [edi+0x0],al
000000BB  0044B704          add [edi+esi*4+0x4],al
000000BF  0844B704          or [edi+esi*4+0x4],al
000000C3  08E0              or al,ah
000000C5  0000              add [eax],al
000000C7  00E0              add al,ah
000000C9  0000              add [eax],al
000000CB  0006              add [esi],al
000000CD  0000              add [eax],al
000000CF  000400            add [eax+eax],al
000000D2  0000              add [eax],al
000000D4  0400              add al,0x0
000000D6  0000              add [eax],al
000000D8  48                dec eax
000000D9  0100              add [eax],eax
000000DB  004881            add [eax-0x7f],cl
000000DE  0408              add al,0x8
000000E0  48                dec eax
000000E1  81040820000000    add dword [eax+ecx],0x20
000000E8  2000              and [eax],al
000000EA  0000              add [eax],al
000000EC  0400              add al,0x0
000000EE  0000              add [eax],al
000000F0  0400              add al,0x0
000000F2  0000              add [eax],al
000000F4  50                push eax
000000F5  E574              in eax,0x74
000000F7  6444              fs inc esp
000000F9  1D0000449D        sbb eax,0x9d440000
000000FE  0408              add al,0x8
00000100  44                inc esp
00000101  9D                popf
00000102  0408              add al,0x8
00000104  C401              les eax,[ecx]
00000106  0000              add [eax],al
00000108  C401              les eax,[ecx]
0000010A  0000              add [eax],al
0000010C  0400              add al,0x0
0000010E  0000              add [eax],al
00000110  0400              add al,0x0
00000112  0000              add [eax],al
00000114  51                push ecx
00000115  E574              in eax,0x74
00000117  640000            add [fs:eax],al
0000011A  0000              add [eax],al
0000011C  0000              add [eax],al
0000011E  0000              add [eax],al
00000120  0000              add [eax],al
00000122  0000              add [eax],al
00000124  0000              add [eax],al
00000126  0000              add [eax],al
00000128  0000              add [eax],al
0000012A  0000              add [eax],al
0000012C  06                push es
0000012D  0000              add [eax],al
0000012F  000400            add [eax+eax],al
00000132  0000              add [eax],al
00000134  2F                das
00000135  6C                insb
00000136  69622F6C642D6C    imul esp,[edx+0x2f],dword 0x6c2d646c
0000013D  696E75782E736F    imul ebp,[esi+0x75],dword 0x6f732e78
00000144  2E3200            xor al,[cs:eax]
00000147  000400            add [eax+eax],al
0000014A  0000              add [eax],al
0000014C  1000              adc [eax],al
0000014E  0000              add [eax],al
00000150  0100              add [eax],eax
00000152  0000              add [eax],al
00000154  47                inc edi
00000155  4E                dec esi
00000156  55                push ebp
00000157  0000              add [eax],al
00000159  0000              add [eax],al
0000015B  0002              add [edx],al
0000015D  0000              add [eax],al
0000015F  0000              add [eax],al
00000161  0000              add [eax],al
00000163  0000              add [eax],al
00000165  0000              add [eax],al
00000167  0011              add [ecx],dl
00000169  0000              add [eax],al
0000016B  0018              add [eax],bl
0000016D  0000              add [eax],al
0000016F  000C00            add [eax+eax],cl
00000172  0000              add [eax],al
00000174  0F0000            sldt [eax]
00000177  0010              add [eax],dl
00000179  0000              add [eax],al
0000017B  0013              add [ebx],dl
0000017D  0000              add [eax],al
0000017F  0016              add [esi],dl
00000181  0000              add [eax],al
00000183  0000              add [eax],al
00000185  0000              add [eax],al
00000187  0017              add [edi],dl
00000189  0000              add [eax],al
0000018B  000500000014      add [0x14000000],al
00000191  0000              add [eax],al
00000193  0000              add [eax],al
00000195  0000              add [eax],al
00000197  0000              add [eax],al
00000199  0000              add [eax],al
0000019B  0000              add [eax],al
0000019D  0000              add [eax],al
0000019F  0006              add [esi],al
000001A1  0000              add [eax],al
000001A3  0008              add [eax],cl
000001A5  0000              add [eax],al
000001A7  0000              add [eax],al
000001A9  0000              add [eax],al
000001AB  000B              add [ebx],cl
000001AD  0000              add [eax],al
000001AF  001500000000      add [0x0],dl
000001B5  0000              add [eax],al
000001B7  0000              add [eax],al
000001B9  0000              add [eax],al
000001BB  0000              add [eax],al
000001BD  0000              add [eax],al
000001BF  0000              add [eax],al
000001C1  0000              add [eax],al
000001C3  0000              add [eax],al
000001C5  0000              add [eax],al
000001C7  000400            add [eax+eax],al
000001CA  0000              add [eax],al
000001CC  0000              add [eax],al
000001CE  0000              add [eax],al
000001D0  0100              add [eax],eax
000001D2  0000              add [eax],al
000001D4  0000              add [eax],al
000001D6  0000              add [eax],al
000001D8  0300              add eax,[eax]
000001DA  0000              add [eax],al
000001DC  0000              add [eax],al
000001DE  0000              add [eax],al
000001E0  0200              add al,[eax]
000001E2  0000              add [eax],al
000001E4  0000              add [eax],al
000001E6  0000              add [eax],al
000001E8  0000              add [eax],al
000001EA  0000              add [eax],al
000001EC  0D00000000        or eax,0x0
000001F1  0000              add [eax],al
000001F3  0007              add [edi],al
000001F5  0000              add [eax],al
000001F7  0000              add [eax],al
000001F9  0000              add [eax],al
000001FB  000E              add [esi],cl
000001FD  0000              add [eax],al
000001FF  0009              add [ecx],cl
00000201  0000              add [eax],al
00000203  0012              add [edx],dl
00000205  0000              add [eax],al
00000207  000A              add [edx],cl
00000209  0000              add [eax],al
0000020B  0011              add [ecx],dl
0000020D  0000              add [eax],al
0000020F  0000              add [eax],al
00000211  0000              add [eax],al
00000213  0000              add [eax],al
00000215  0000              add [eax],al
00000217  0000              add [eax],al
00000219  0000              add [eax],al
0000021B  0000              add [eax],al
0000021D  0000              add [eax],al
0000021F  0000              add [eax],al
00000221  0000              add [eax],al
00000223  0011              add [ecx],dl
00000225  0200              add al,[eax]
00000227  0000              add [eax],al
00000229  0000              add [eax],al
0000022B  0000              add [eax],al
0000022D  0000              add [eax],al
0000022F  0012              add [edx],dl
00000231  0000              add [eax],al
00000233  00AA01000000      add [edx+0x1],ch
00000239  0000              add [eax],al
0000023B  0000              add [eax],al
0000023D  0000              add [eax],al
0000023F  0020              add [eax],ah
00000241  0000              add [eax],al
00000243  00D8              add al,bl
00000245  0100              add [eax],eax
00000247  0000              add [eax],al
00000249  0000              add [eax],al
0000024B  0000              add [eax],al
0000024D  0000              add [eax],al
0000024F  0020              add [eax],ah
00000251  0000              add [eax],al
00000253  005C0000          add [eax+eax+0x0],bl
00000257  0000              add [eax],al
00000259  0000              add [eax],al
0000025B  0000              add [eax],al
0000025D  0000              add [eax],al
0000025F  0012              add [edx],dl
00000261  0000              add [eax],al
00000263  007C0200          add [edx+eax+0x0],bh
00000267  0000              add [eax],al
00000269  0000              add [eax],al
0000026B  0000              add [eax],al
0000026D  0000              add [eax],al
0000026F  0012              add [edx],dl
00000271  0000              add [eax],al
00000273  006300            add [ebx+0x0],ah
00000276  0000              add [eax],al
00000278  0000              add [eax],al
0000027A  0000              add [eax],al
0000027C  0000              add [eax],al
0000027E  0000              add [eax],al
00000280  2000              and [eax],al
00000282  0000              add [eax],al
00000284  AE                scasb
00000285  0000              add [eax],al
00000287  0000              add [eax],al
00000289  0000              add [eax],al
0000028B  0000              add [eax],al
0000028D  0000              add [eax],al
0000028F  0012              add [edx],dl
00000291  0000              add [eax],al
00000293  006502            add [ebp+0x2],ah
00000296  0000              add [eax],al
00000298  289D04080400      sub [ebp+0x40804],bl
0000029E  0000              add [eax],al
000002A0  1100              adc [eax],eax
000002A2  0E                push cs
000002A3  00F7              add bh,dh
000002A5  0100              add [eax],eax
000002A7  0000              add [eax],al
000002A9  0000              add [eax],al
000002AB  0000              add [eax],al
000002AD  0000              add [eax],al
000002AF  0020              add [eax],ah
000002B1  0000              add [eax],al
000002B3  00E6              add dh,ah
000002B5  0000              add [eax],al
000002B7  0000              add [eax],al
000002B9  0000              add [eax],al
000002BB  0000              add [eax],al
000002BD  0000              add [eax],al
000002BF  0012              add [edx],dl
000002C1  0000              add [eax],al
000002C3  007F00            add [edi+0x0],bh
000002C6  0000              add [eax],al
000002C8  0000              add [eax],al
000002CA  0000              add [eax],al
000002CC  0000              add [eax],al
000002CE  0000              add [eax],al
000002D0  1200              adc al,[eax]
000002D2  0000              add [eax],al
000002D4  2001              and [ecx],al
000002D6  0000              add [eax],al
000002D8  0000              add [eax],al
000002DA  0000              add [eax],al
000002DC  0000              add [eax],al
000002DE  0000              add [eax],al
000002E0  1200              adc al,[eax]
000002E2  0000              add [eax],al
000002E4  EC                in al,dx
000002E5  0100              add [eax],eax
000002E7  0000              add [eax],al
000002E9  0000              add [eax],al
000002EB  0000              add [eax],al
000002ED  0000              add [eax],al
000002EF  0012              add [edx],dl
000002F1  0000              add [eax],al
000002F3  00740200          add [edx+eax+0x0],dh
000002F7  0000              add [eax],al
000002F9  0000              add [eax],al
000002FB  0000              add [eax],al
000002FD  0000              add [eax],al
000002FF  0012              add [edx],dl
00000301  0000              add [eax],al
00000303  006801            add [eax+0x1],ch
00000306  0000              add [eax],al
00000308  0000              add [eax],al
0000030A  0000              add [eax],al
0000030C  0000              add [eax],al
0000030E  0000              add [eax],al
00000310  1200              adc al,[eax]
00000312  0000              add [eax],al
00000314  B901000000        mov ecx,0x1
00000319  0000              add [eax],al
0000031B  0000              add [eax],al
0000031D  0000              add [eax],al
0000031F  0012              add [edx],dl
00000321  0000              add [eax],al
00000323  0010              add [eax],dl
00000325  0000              add [eax],al
00000327  0000              add [eax],al
00000329  0000              add [eax],al
0000032B  0000              add [eax],al
0000032D  0000              add [eax],al
0000032F  0012              add [edx],dl
00000331  0000              add [eax],al
00000333  0026              add [esi],ah
00000335  0100              add [eax],eax
00000337  0000              add [eax],al
00000339  0000              add [eax],al
0000033B  0000              add [eax],al
0000033D  0000              add [eax],al
0000033F  0012              add [edx],dl
00000341  0000              add [eax],al
00000343  001B              add [ebx],bl
00000345  0200              add al,[eax]
00000347  0000              add [eax],al
00000349  0000              add [eax],al
0000034B  0000              add [eax],al
0000034D  0000              add [eax],al
0000034F  0012              add [edx],dl
00000351  0000              add [eax],al
00000353  001501000000      add [0x1],dl
00000359  0000              add [eax],al
0000035B  0000              add [eax],al
0000035D  0000              add [eax],al
0000035F  0012              add [edx],dl
00000361  0000              add [eax],al
00000363  0021              add [ecx],ah
00000365  0000              add [eax],al
00000367  00D0              add al,dl
00000369  880408            mov [eax+ecx],al
0000036C  0000              add [eax],al
0000036E  0000              add [eax],al
00000370  1200              adc al,[eax]
00000372  0000              add [eax],al
00000374  C3                ret
00000375  0100              add [eax],eax
00000377  00E0              add al,ah
00000379  880408            mov [eax+ecx],al
0000037C  0000              add [eax],al
0000037E  0000              add [eax],al
00000380  1200              adc al,[eax]
00000382  0000              add [eax],al
00000384  4C                dec esp
00000385  0200              add al,[eax]
00000387  0000              add [eax],al
00000389  0000              add [eax],al
0000038B  0000              add [eax],al
0000038D  0000              add [eax],al
0000038F  0012              add [edx],dl
00000391  0000              add [eax],al
00000393  0000              add [eax],al
00000395  6C                insb
00000396  6962737464632B    imul esp,[edx+0x73],dword 0x2b636474
0000039D  2B2E              sub ebp,[esi]
0000039F  736F              jnc 0x410
000003A1  2E36005F5A        add [ss:edi+0x5a],bl
000003A6  4E                dec esi
000003A7  53                push ebx
000003A8  6F                outsd
000003A9  6C                insb
000003AA  7345              jnc 0x3f1
000003AC  50                push eax
000003AD  46                inc esi
000003AE  52                push edx
000003AF  53                push ebx
000003B0  6F                outsd
000003B1  53                push ebx
000003B2  5F                pop edi
000003B3  45                inc ebp
000003B4  005F5A            add [edi+0x5a],bl
000003B7  53                push ebx
000003B8  7434              jz 0x3ee
000003BA  656E              gs outsb
000003BC  646C              fs insb
000003BE  49                dec ecx
000003BF  635374            arpl [ebx+0x74],dx
000003C2  3131              xor [ecx],esi
000003C4  636861            arpl [eax+0x61],bp
000003C7  725F              jc 0x428
000003C9  7472              jz 0x43d
000003CB  61                popa
000003CC  6974734963454552  imul esi,[ebx+esi*2+0x49],dword 0x52454563
000003D4  53                push ebx
000003D5  7431              jz 0x408
000003D7  336261            xor esp,[edx+0x61]
000003DA  7369              jnc 0x445
000003DC  635F6F            arpl [edi+0x6f],bx
000003DF  7374              jnc 0x455
000003E1  7265              jc 0x448
000003E3  61                popa
000003E4  6D                insd
000003E5  49                dec ecx
000003E6  54                push esp
000003E7  5F                pop edi
000003E8  54                push esp
000003E9  305F45            xor [edi+0x45],bl
000003EC  53                push ebx
000003ED  365F              ss pop edi
000003EF  005F5A            add [edi+0x5a],bl
000003F2  646C              fs insb
000003F4  50                push eax
000003F5  7600              jna 0x3f7
000003F7  5F                pop edi
000003F8  49                dec ecx
000003F9  54                push esp
000003FA  4D                dec ebp
000003FB  5F                pop edi
000003FC  64657265          gs jc 0x465
00000400  676973746572544D  imul esi,[bp+di+0x74],dword 0x4d547265
00000408  43                inc ebx
00000409  6C                insb
0000040A  6F                outsd
0000040B  6E                outsb
0000040C  6554              gs push esp
0000040E  61                popa
0000040F  626C6500          bound ebp,[ebp+0x0]
00000413  5F                pop edi
00000414  5A                pop edx
00000415  4E                dec esi
00000416  53                push ebx
00000417  7431              jz 0x44a
00000419  3462              xor al,0x62
0000041B  61                popa
0000041C  7369              jnc 0x487
0000041E  635F6F            arpl [edi+0x6f],bx
00000421  667374            o16 jnc 0x498
00000424  7265              jc 0x48b
00000426  61                popa
00000427  6D                insd
00000428  49                dec ecx
00000429  635374            arpl [ebx+0x74],dx
0000042C  3131              xor [ecx],esi
0000042E  636861            arpl [eax+0x61],bp
00000431  725F              jc 0x492
00000433  7472              jz 0x4a7
00000435  61                popa
00000436  6974734963454544  imul esi,[ebx+esi*2+0x49],dword 0x44454563
0000043E  314576            xor [ebp+0x76],eax
00000441  005F5A            add [edi+0x5a],bl
00000444  53                push ebx
00000445  746C              jz 0x4b3
00000447  7349              jnc 0x492
00000449  53                push ebx
0000044A  7431              jz 0x47d
0000044C  316368            xor [ebx+0x68],esp
0000044F  61                popa
00000450  725F              jc 0x4b1
00000452  7472              jz 0x4c6
00000454  61                popa
00000455  6974734963454552  imul esi,[ebx+esi*2+0x49],dword 0x52454563
0000045D  53                push ebx
0000045E  7431              jz 0x491
00000460  336261            xor esp,[edx+0x61]
00000463  7369              jnc 0x4ce
00000465  635F6F            arpl [edi+0x6f],bx
00000468  7374              jnc 0x4de
0000046A  7265              jc 0x4d1
0000046C  61                popa
0000046D  6D                insd
0000046E  49                dec ecx
0000046F  63545F45          arpl [edi+ebx*2+0x45],dx
00000473  53                push ebx
00000474  355F504B63        xor eax,0x634b505f
00000479  005F5A            add [edi+0x5a],bl
0000047C  4E                dec esi
0000047D  53                push ebx
0000047E  7431              jz 0x4b1
00000480  3462              xor al,0x62
00000482  61                popa
00000483  7369              jnc 0x4ee
00000485  635F69            arpl [edi+0x69],bx
00000488  667374            o16 jnc 0x4ff
0000048B  7265              jc 0x4f2
0000048D  61                popa
0000048E  6D                insd
0000048F  49                dec ecx
00000490  635374            arpl [ebx+0x74],dx
00000493  3131              xor [ecx],esi
00000495  636861            arpl [eax+0x61],bp
00000498  725F              jc 0x4f9
0000049A  7472              jz 0x50e
0000049C  61                popa
0000049D  6974734963454544  imul esi,[ebx+esi*2+0x49],dword 0x44454563
000004A5  314576            xor [ebp+0x76],eax
000004A8  005F5A            add [edi+0x5a],bl
000004AB  4E                dec esi
000004AC  53                push ebx
000004AD  69727345527800    imul esi,[edx+0x73],dword 0x785245
000004B4  5F                pop edi
000004B5  5A                pop edx
000004B6  6E                outsb
000004B7  776A              ja 0x523
000004B9  005F5A            add [edi+0x5a],bl
000004BC  4E                dec esi
000004BD  53                push ebx
000004BE  7431              jz 0x4f1
000004C0  3462              xor al,0x62
000004C2  61                popa
000004C3  7369              jnc 0x52e
000004C5  635F6F            arpl [edi+0x6f],bx
000004C8  667374            o16 jnc 0x53f
000004CB  7265              jc 0x532
000004CD  61                popa
000004CE  6D                insd
000004CF  49                dec ecx
000004D0  635374            arpl [ebx+0x74],dx
000004D3  3131              xor [ecx],esi
000004D5  636861            arpl [eax+0x61],bp
000004D8  725F              jc 0x539
000004DA  7472              jz 0x54e
000004DC  61                popa
000004DD  6974734963454543  imul esi,[ebx+esi*2+0x49],dword 0x43454563
000004E5  314550            xor [ebp+0x50],eax
000004E8  4B                dec ebx
000004E9  635374            arpl [ebx+0x74],dx
000004EC  3133              xor [ebx],esi
000004EE  5F                pop edi
000004EF  49                dec ecx
000004F0  6F                outsd
000004F1  735F              jnc 0x552
000004F3  4F                dec edi
000004F4  7065              jo 0x55b
000004F6  6E                outsb
000004F7  6D                insd
000004F8  6F                outsd
000004F9  6465005F5A        add [gs:edi+0x5a],bl
000004FE  4E                dec esi
000004FF  53                push ebx
00000500  7431              jz 0x533
00000502  3462              xor al,0x62
00000504  61                popa
00000505  7369              jnc 0x570
00000507  635F69            arpl [edi+0x69],bx
0000050A  667374            o16 jnc 0x581
0000050D  7265              jc 0x574
0000050F  61                popa
00000510  6D                insd
00000511  49                dec ecx
00000512  635374            arpl [ebx+0x74],dx
00000515  3131              xor [ecx],esi
00000517  636861            arpl [eax+0x61],bp
0000051A  725F              jc 0x57b
0000051C  7472              jz 0x590
0000051E  61                popa
0000051F  6974734963454543  imul esi,[ebx+esi*2+0x49],dword 0x43454563
00000527  314550            xor [ebp+0x50],eax
0000052A  4B                dec ebx
0000052B  635374            arpl [ebx+0x74],dx
0000052E  3133              xor [ebx],esi
00000530  5F                pop edi
00000531  49                dec ecx
00000532  6F                outsd
00000533  735F              jnc 0x594
00000535  4F                dec edi
00000536  7065              jo 0x59d
00000538  6E                outsb
00000539  6D                insd
0000053A  6F                outsd
0000053B  6465005F5F        add [gs:edi+0x5f],bl
00000540  676D              a16 insd
00000542  6F                outsd
00000543  6E                outsb
00000544  5F                pop edi
00000545  7374              jnc 0x5bb
00000547  61                popa
00000548  7274              jc 0x5be
0000054A  5F                pop edi
0000054B  5F                pop edi
0000054C  005F5A            add [edi+0x5a],bl
0000054F  4E                dec esi
00000550  53                push ebx
00000551  6F                outsd
00000552  6C                insb
00000553  7345              jnc 0x59a
00000555  7800              js 0x557
00000557  5F                pop edi
00000558  5F                pop edi
00000559  677878            a16 js 0x5d4
0000055C  5F                pop edi
0000055D  7065              jo 0x5c4
0000055F  7273              jc 0x5d4
00000561  6F                outsd
00000562  6E                outsb
00000563  61                popa
00000564  6C                insb
00000565  6974795F7630005F  imul esi,[ecx+edi*2+0x5f],dword 0x5f003076
0000056D  4A                dec edx
0000056E  765F              jna 0x5cf
00000570  52                push edx
00000571  6567697374657243  imul esi,[gs:bp+di+0x74],dword 0x6c437265
         -6C
0000057A  61                popa
0000057B  7373              jnc 0x5f0
0000057D  657300            gs jnc 0x580
00000580  5F                pop edi
00000581  5A                pop edx
00000582  4E                dec esi
00000583  53                push ebx
00000584  69727345526900    imul esi,[edx+0x73],dword 0x695245
0000058B  5F                pop edi
0000058C  49                dec ecx
0000058D  54                push esp
0000058E  4D                dec ebp
0000058F  5F                pop edi
00000590  7265              jc 0x5f7
00000592  676973746572544D  imul esi,[bp+di+0x74],dword 0x4d547265
0000059A  43                inc ebx
0000059B  6C                insb
0000059C  6F                outsd
0000059D  6E                outsb
0000059E  6554              gs push esp
000005A0  61                popa
000005A1  626C6500          bound ebp,[ebp+0x0]
000005A5  5F                pop edi
000005A6  5A                pop edx
000005A7  4E                dec esi
000005A8  53                push ebx
000005A9  6F                outsd
000005AA  6C                insb
000005AB  7345              jnc 0x5f2
000005AD  69005F5A5374      imul eax,[eax],dword 0x74535a5f
000005B3  3137              xor [edi],esi
000005B5  5F                pop edi
000005B6  5F                pop edi
000005B7  7468              jz 0x621
000005B9  726F              jc 0x62a
000005BB  775F              ja 0x61c
000005BD  626164            bound esp,[ecx+0x64]
000005C0  5F                pop edi
000005C1  61                popa
000005C2  6C                insb
000005C3  6C                insb
000005C4  6F                outsd
000005C5  637600            arpl [esi+0x0],si
000005C8  6C                insb
000005C9  69626D2E736F2E    imul esp,[edx+0x6d],dword 0x2e6f732e
000005D0  36006C6962        add [ss:ecx+ebp*2+0x62],ch
000005D5  6763635F          arpl [bp+di+0x5f],sp
000005D9  732E              jnc 0x609
000005DB  736F              jnc 0x64c
000005DD  2E3100            xor [cs:eax],eax
000005E0  5F                pop edi
000005E1  55                push ebp
000005E2  6E                outsb
000005E3  7769              ja 0x64e
000005E5  6E                outsb
000005E6  645F              fs pop edi
000005E8  52                push edx
000005E9  657375            gs jnc 0x661
000005EC  6D                insd
000005ED  65006C6962        add [gs:ecx+ebp*2+0x62],ch
000005F2  632E              arpl [esi],bp
000005F4  736F              jnc 0x665
000005F6  2E36005F49        add [ss:edi+0x49],bl
000005FB  4F                dec edi
000005FC  5F                pop edi
000005FD  7374              jnc 0x673
000005FF  64696E5F75736564  imul ebp,[fs:esi+0x5f],dword 0x64657375
00000607  006D65            add [ebp+0x65],ch
0000060A  6D                insd
0000060B  6D                insd
0000060C  6F                outsd
0000060D  7665              jna 0x674
0000060F  005F5F            add [edi+0x5f],bl
00000612  6C                insb
00000613  6962635F737461    imul esp,[edx+0x63],dword 0x6174735f
0000061A  7274              jc 0x690
0000061C  5F                pop edi
0000061D  6D                insd
0000061E  61                popa
0000061F  696E004743435F    imul ebp,[esi+0x0],dword 0x5f434347
00000626  332E              xor ebp,[esi]
00000628  3000              xor [eax],al
0000062A  47                inc edi
0000062B  4C                dec esp
0000062C  49                dec ecx
0000062D  42                inc edx
0000062E  43                inc ebx
0000062F  5F                pop edi
00000630  322E              xor ch,[esi]
00000632  3000              xor [eax],al
00000634  43                inc ebx
00000635  58                pop eax
00000636  58                pop eax
00000637  41                inc ecx
00000638  42                inc edx
00000639  49                dec ecx
0000063A  5F                pop edi
0000063B  312E              xor [esi],ebp
0000063D  3300              xor eax,[eax]
0000063F  47                inc edi
00000640  4C                dec esp
00000641  49                dec ecx
00000642  42                inc edx
00000643  43                inc ebx
00000644  58                pop eax
00000645  58                pop eax
00000646  5F                pop edi
00000647  332E              xor ebp,[esi]
00000649  3400              xor al,0x0
0000064B  0000              add [eax],al
0000064D  0002              add [edx],al
0000064F  0000              add [eax],al
00000651  0000              add [eax],al
00000653  0002              add [edx],al
00000655  0003              add [ebx],al
00000657  0000              add [eax],al
00000659  0002              add [edx],al
0000065B  0001              add [ecx],al
0000065D  0000              add [eax],al
0000065F  0002              add [edx],al
00000661  0002              add [edx],al
00000663  0002              add [edx],al
00000665  0002              add [edx],al
00000667  0003              add [ebx],al
00000669  0002              add [edx],al
0000066B  0002              add [edx],al
0000066D  0002              add [edx],al
0000066F  0002              add [edx],al
00000671  0002              add [edx],al
00000673  0002              add [edx],al
00000675  0002              add [edx],al
00000677  000400            add [eax+eax],al
0000067A  0500010001        add eax,0x1000100
0000067F  003E              add [esi],bh
00000681  0200              add al,[eax]
00000683  0010              add [eax],dl
00000685  0000              add [eax],al
00000687  0020              add [eax],ah
00000689  0000              add [eax],al
0000068B  005026            add [eax+0x26],dl
0000068E  790B              jns 0x69b
00000690  0000              add [eax],al
00000692  05008E0200        add eax,0x28e00
00000697  0000              add [eax],al
00000699  0000              add [eax],al
0000069B  0001              add [ecx],al
0000069D  0001              add [ecx],al
0000069F  005B02            add [ebx+0x2],bl
000006A2  0000              add [eax],al
000006A4  1000              adc [eax],al
000006A6  0000              add [eax],al
000006A8  2000              and [eax],al
000006AA  0000              add [eax],al
000006AC  106969            adc [ecx+0x69],ch
000006AF  0D00000300        or eax,0x30000
000006B4  96                xchg eax,esi
000006B5  0200              add al,[eax]
000006B7  0000              add [eax],al
000006B9  0000              add [eax],al
000006BB  0001              add [ecx],al
000006BD  0002              add [edx],al
000006BF  0001              add [ecx],al
000006C1  0000              add [eax],al
000006C3  0010              add [eax],dl
000006C5  0000              add [eax],al
000006C7  0000              add [eax],al
000006C9  0000              add [eax],al
000006CB  00D3              add bl,dl
000006CD  AF                scasd
000006CE  6B0500000400A0    imul eax,[0x40000],byte -0x60
000006D5  0200              add al,[eax]
000006D7  0010              add [eax],dl
000006D9  0000              add [eax],al
000006DB  00742992          add [ecx+ebp-0x6e],dh
000006DF  0800              or [eax],al
000006E1  0002              add [edx],al
000006E3  00AB02000000      add [ebx+0x2],ch
000006E9  0000              add [eax],al
000006EB  0024B8            add [eax+edi*4],ah
000006EE  0408              add al,0x8
000006F0  06                push es
000006F1  0200              add al,[eax]
000006F3  0034B8            add [eax+edi*4],dh
000006F6  0408              add al,0x8
000006F8  07                pop es
000006F9  0100              add [eax],eax
000006FB  0038              add [eax],bh
000006FD  B804080702        mov eax,0x2070804
00000702  0000              add [eax],al
00000704  3CB8              cmp al,0xb8
00000706  0408              add al,0x8
00000708  07                pop es
00000709  0400              add al,0x0
0000070B  0040B8            add [eax-0x48],al
0000070E  0408              add al,0x8
00000710  07                pop es
00000711  05000044B8        add eax,0xb8440000
00000716  0408              add al,0x8
00000718  07                pop es
00000719  07                pop es
0000071A  0000              add [eax],al
0000071C  48                dec eax
0000071D  B80408070A        mov eax,0xa070804
00000722  0000              add [eax],al
00000724  4C                dec esp
00000725  B80408070B        mov eax,0xb070804
0000072A  0000              add [eax],al
0000072C  50                push eax
0000072D  B80408070C        mov eax,0xc070804
00000732  0000              add [eax],al
00000734  54                push esp
00000735  B80408070D        mov eax,0xd070804
0000073A  0000              add [eax],al
0000073C  58                pop eax
0000073D  B80408070E        mov eax,0xe070804
00000742  0000              add [eax],al
00000744  5C                pop esp
00000745  B80408070F        mov eax,0xf070804
0000074A  0000              add [eax],al
0000074C  60                pusha
0000074D  B804080710        mov eax,0x10070804
00000752  0000              add [eax],al
00000754  64B804080711      fs mov eax,0x11070804
0000075A  0000              add [eax],al
0000075C  68B8040807        push dword 0x70804b8
00000761  1200              adc al,[eax]
00000763  006CB804          add [eax+edi*4+0x4],ch
00000767  0807              or [edi],al
00000769  1300              adc eax,[eax]
0000076B  0070B8            add [eax-0x48],dh
0000076E  0408              add al,0x8
00000770  07                pop es
00000771  1400              adc al,0x0
00000773  0074B804          add [eax+edi*4+0x4],dh
00000777  0807              or [edi],al
00000779  15000078B8        adc eax,0xb8780000
0000077E  0408              add al,0x8
00000780  07                pop es
00000781  16                push ss
00000782  0000              add [eax],al
00000784  7CB8              jl 0x73e
00000786  0408              add al,0x8
00000788  07                pop es
00000789  17                pop ss
0000078A  0000              add [eax],al
0000078C  55                push ebp
0000078D  89E5              mov ebp,esp
0000078F  53                push ebx
00000790  83EC04            sub esp,byte +0x4
00000793  E800000000        call 0x798
00000798  5B                pop ebx
00000799  81C390300000      add ebx,0x3090
0000079F  8B93FCFFFFFF      mov edx,[ebx+0xfffffffc]
000007A5  85D2              test edx,edx
000007A7  7405              jz 0x7ae
000007A9  E832000000        call 0x7e0
000007AE  E83D020000        call 0x9f0
000007B3  E828150000        call 0x1ce0
000007B8  58                pop eax
000007B9  5B                pop ebx
000007BA  C9                leave
000007BB  C3                ret
000007BC  0000              add [eax],al
000007BE  0000              add [eax],al
000007C0  FF352CB80408      push dword [0x804b82c]
000007C6  FF2530B80408      jmp near [0x804b830]
000007CC  0000              add [eax],al
000007CE  0000              add [eax],al
000007D0  FF2534B80408      jmp near [0x804b834]
000007D6  6800000000        push dword 0x0
000007DB  E9E0FFFFFF        jmp 0x1000007c0
000007E0  FF2538B80408      jmp near [0x804b838]
000007E6  6808000000        push dword 0x8
000007EB  E9D0FFFFFF        jmp 0x1000007c0
000007F0  FF253CB80408      jmp near [0x804b83c]
000007F6  6810000000        push dword 0x10
000007FB  E9C0FFFFFF        jmp 0x1000007c0
00000800  FF2540B80408      jmp near [0x804b840]
00000806  6818000000        push dword 0x18
0000080B  E9B0FFFFFF        jmp 0x1000007c0
00000810  FF2544B80408      jmp near [0x804b844]
00000816  6820000000        push dword 0x20
0000081B  E9A0FFFFFF        jmp 0x1000007c0
00000820  FF2548B80408      jmp near [0x804b848]
00000826  6828000000        push dword 0x28
0000082B  E990FFFFFF        jmp 0x1000007c0
00000830  FF254CB80408      jmp near [0x804b84c]
00000836  6830000000        push dword 0x30
0000083B  E980FFFFFF        jmp 0x1000007c0
00000840  FF2550B80408      jmp near [0x804b850]
00000846  6838000000        push dword 0x38
0000084B  E970FFFFFF        jmp 0x1000007c0
00000850  FF2554B80408      jmp near [0x804b854]
00000856  6840000000        push dword 0x40
0000085B  E960FFFFFF        jmp 0x1000007c0
00000860  FF2558B80408      jmp near [0x804b858]
00000866  6848000000        push dword 0x48
0000086B  E950FFFFFF        jmp 0x1000007c0
00000870  FF255CB80408      jmp near [0x804b85c]
00000876  6850000000        push dword 0x50
0000087B  E940FFFFFF        jmp 0x1000007c0
00000880  FF2560B80408      jmp near [0x804b860]
00000886  6858000000        push dword 0x58
0000088B  E930FFFFFF        jmp 0x1000007c0
00000890  FF2564B80408      jmp near [0x804b864]
00000896  6860000000        push dword 0x60
0000089B  E920FFFFFF        jmp 0x1000007c0
000008A0  FF2568B80408      jmp near [0x804b868]
000008A6  6868000000        push dword 0x68
000008AB  E910FFFFFF        jmp 0x1000007c0
000008B0  FF256CB80408      jmp near [0x804b86c]
000008B6  6870000000        push dword 0x70
000008BB  E900FFFFFF        jmp 0x1000007c0
000008C0  FF2570B80408      jmp near [0x804b870]
000008C6  6878000000        push dword 0x78
000008CB  E9F0FEFFFF        jmp 0x1000007c0
000008D0  FF2574B80408      jmp near [0x804b874]
000008D6  6880000000        push dword 0x80
000008DB  E9E0FEFFFF        jmp 0x1000007c0
000008E0  FF2578B80408      jmp near [0x804b878]
000008E6  6888000000        push dword 0x88
000008EB  E9D0FEFFFF        jmp 0x1000007c0
000008F0  FF257CB80408      jmp near [0x804b87c]
000008F6  6890000000        push dword 0x90
000008FB  E9C0FEFFFF        jmp 0x1000007c0
00000900  31ED              xor ebp,ebp
00000902  5E                pop esi
00000903  89E1              mov ecx,esp
00000905  83E4F0            and esp,byte -0x10
00000908  50                push eax
00000909  54                push esp
0000090A  52                push edx
0000090B  68709C0408        push dword 0x8049c70
00000910  68809C0408        push dword 0x8049c80
00000915  51                push ecx
00000916  56                push esi
00000917  68208A0408        push dword 0x8048a20
0000091C  E8DFFEFFFF        call 0x100000800
00000921  F4                hlt
00000922  90                nop
00000923  90                nop
00000924  6690              o16 nop
00000926  6690              o16 nop
00000928  6690              o16 nop
0000092A  6690              o16 nop
0000092C  6690              o16 nop
0000092E  6690              o16 nop
00000930  B88BB80408        mov eax,0x804b88b
00000935  2D88B80408        sub eax,0x804b888
0000093A  83F806            cmp eax,byte +0x6
0000093D  7701              ja 0x940
0000093F  C3                ret
00000940  B800000000        mov eax,0x0
00000945  85C0              test eax,eax
00000947  74F6              jz 0x93f
00000949  55                push ebp
0000094A  89E5              mov ebp,esp
0000094C  83EC18            sub esp,byte +0x18
0000094F  C7042488B80408    mov dword [esp],0x804b888
00000956  FFD0              call eax
00000958  C9                leave
00000959  C3                ret
0000095A  8DB600000000      lea esi,[esi+0x0]
00000960  B888B80408        mov eax,0x804b888
00000965  2D88B80408        sub eax,0x804b888
0000096A  C1F802            sar eax,0x2
0000096D  89C2              mov edx,eax
0000096F  C1EA1F            shr edx,0x1f
00000972  01D0              add eax,edx
00000974  D1F8              sar eax,1
00000976  7501              jnz 0x979
00000978  C3                ret
00000979  BA00000000        mov edx,0x0
0000097E  85D2              test edx,edx
00000980  74F6              jz 0x978
00000982  55                push ebp
00000983  89E5              mov ebp,esp
00000985  83EC18            sub esp,byte +0x18
00000988  89442404          mov [esp+0x4],eax
0000098C  C7042488B80408    mov dword [esp],0x804b888
00000993  FFD2              call edx
00000995  C9                leave
00000996  C3                ret
00000997  89F6              mov esi,esi
00000999  8DBC2700000000    lea edi,[edi+0x0]
000009A0  803D88B8040800    cmp byte [0x804b888],0x0
000009A7  7544              jnz 0x9ed
000009A9  55                push ebp
000009AA  89E5              mov ebp,esp
000009AC  53                push ebx
000009AD  BB3CB70408        mov ebx,0x804b73c
000009B2  52                push edx
000009B3  81EB38B70408      sub ebx,0x804b738
000009B9  A18CB80408        mov eax,[0x804b88c]
000009BE  C1FB02            sar ebx,0x2
000009C1  4B                dec ebx
000009C2  39D8              cmp eax,ebx
000009C4  7318              jnc 0x9de
000009C6  6690              o16 nop
000009C8  40                inc eax
000009C9  A38CB80408        mov [0x804b88c],eax
000009CE  FF148538B70408    call near [eax*4+0x804b738]
000009D5  A18CB80408        mov eax,[0x804b88c]
000009DA  39D8              cmp eax,ebx
000009DC  72EA              jc 0x9c8
000009DE  E84DFFFFFF        call 0x100000930
000009E3  C60588B8040801    mov byte [0x804b888],0x1
000009EA  58                pop eax
000009EB  5B                pop ebx
000009EC  5D                pop ebp
000009ED  C3                ret
000009EE  6690              o16 nop
000009F0  8B0D40B70408      mov ecx,[0x804b740]
000009F6  85C9              test ecx,ecx
000009F8  741E              jz 0xa18
000009FA  B800000000        mov eax,0x0
000009FF  85C0              test eax,eax
00000A01  7415              jz 0xa18
00000A03  55                push ebp
00000A04  89E5              mov ebp,esp
00000A06  83EC18            sub esp,byte +0x18
00000A09  C7042440B70408    mov dword [esp],0x804b740
00000A10  FFD0              call eax
00000A12  C9                leave
00000A13  E948FFFFFF        jmp 0x100000960
00000A18  E943FFFFFF        jmp 0x100000960
00000A1D  6690              o16 nop
00000A1F  90                nop
00000A20  55                push ebp
00000A21  89E5              mov ebp,esp
00000A23  57                push edi
00000A24  56                push esi
00000A25  53                push ebx
00000A26  83E4F0            and esp,byte -0x10
00000A29  81EC50030000      sub esp,0x350
00000A2F  C744240808000000  mov dword [esp+0x8],0x8
00000A37  C74424042C9D0408  mov dword [esp+0x4],0x8049d2c
00000A3F  8D842450010000    lea eax,[esp+0x150]
00000A46  890424            mov [esp],eax
00000A49  E822FEFFFF        call 0x100000870
00000A4E  C744240420000000  mov dword [esp+0x4],0x20
00000A56  C7042410000000    mov dword [esp],0x10
00000A5D  E8470A0000        call 0x14a9
00000A62  89442408          mov [esp+0x8],eax
00000A66  C7442404319D0408  mov dword [esp+0x4],0x8049d31
00000A6E  8D44243C          lea eax,[esp+0x3c]
00000A72  890424            mov [esp],eax
00000A75  E826FEFFFF        call 0x1000008a0
00000A7A  8D8424D8020000    lea eax,[esp+0x2d8]
00000A81  89442404          mov [esp+0x4],eax
00000A85  8D842450010000    lea eax,[esp+0x150]
00000A8C  890424            mov [esp],eax
00000A8F  E8BCFDFFFF        call 0x100000850
00000A94  C784244C03000000  mov dword [esp+0x34c],0x0
         -000000
00000A9F  E9EE080000        jmp 0x1392
00000AA4  8D8424D0020000    lea eax,[esp+0x2d0]
00000AAB  89442404          mov [esp+0x4],eax
00000AAF  8D842450010000    lea eax,[esp+0x150]
00000AB6  890424            mov [esp],eax
00000AB9  E892FDFFFF        call 0x100000850
00000ABE  89C2              mov edx,eax
00000AC0  8D8424D4020000    lea eax,[esp+0x2d4]
00000AC7  89442404          mov [esp+0x4],eax
00000ACB  891424            mov [esp],edx
00000ACE  E87DFDFFFF        call 0x100000850
00000AD3  8D8424DF020000    lea eax,[esp+0x2df]
00000ADA  890424            mov [esp],eax
00000ADD  E8D4090000        call 0x14b6
00000AE2  C78424E002000000  mov dword [esp+0x2e0],0x0
         -000000
00000AED  C78424E402000000  mov dword [esp+0x2e4],0x0
         -000000
00000AF8  8B8424D4020000    mov eax,[esp+0x2d4]
00000AFF  89C2              mov edx,eax
00000B01  8D8424DF020000    lea eax,[esp+0x2df]
00000B08  8944240C          mov [esp+0xc],eax
00000B0C  8D8424E0020000    lea eax,[esp+0x2e0]
00000B13  89442408          mov [esp+0x8],eax
00000B17  89542404          mov [esp+0x4],edx
00000B1B  8D8424C4020000    lea eax,[esp+0x2c4]
00000B22  890424            mov [esp],eax
00000B25  E8B4090000        call 0x14de
00000B2A  8D8424DF020000    lea eax,[esp+0x2df]
00000B31  890424            mov [esp],eax
00000B34  E891090000        call 0x14ca
00000B39  8D8424EF020000    lea eax,[esp+0x2ef]
00000B40  890424            mov [esp],eax
00000B43  E86E090000        call 0x14b6
00000B48  C78424F002000000  mov dword [esp+0x2f0],0x0
         -000000
00000B53  C78424F402000000  mov dword [esp+0x2f4],0x0
         -000000
00000B5E  8B8424D4020000    mov eax,[esp+0x2d4]
00000B65  89C2              mov edx,eax
00000B67  8D8424EF020000    lea eax,[esp+0x2ef]
00000B6E  8944240C          mov [esp+0xc],eax
00000B72  8D8424F0020000    lea eax,[esp+0x2f0]
00000B79  89442408          mov [esp+0x8],eax
00000B7D  89542404          mov [esp+0x4],edx
00000B81  8D8424B8020000    lea eax,[esp+0x2b8]
00000B88  890424            mov [esp],eax
00000B8B  E84E090000        call 0x14de
00000B90  8D8424EF020000    lea eax,[esp+0x2ef]
00000B97  890424            mov [esp],eax
00000B9A  E82B090000        call 0x14ca
00000B9F  8D8424FF020000    lea eax,[esp+0x2ff]
00000BA6  890424            mov [esp],eax
00000BA9  E808090000        call 0x14b6
00000BAE  C784240003000000  mov dword [esp+0x300],0x0
         -000000
00000BB9  C784240403000000  mov dword [esp+0x304],0x0
         -000000
00000BC4  8B8424D0020000    mov eax,[esp+0x2d0]
00000BCB  89C2              mov edx,eax
00000BCD  8D8424FF020000    lea eax,[esp+0x2ff]
00000BD4  8944240C          mov [esp+0xc],eax
00000BD8  8D842400030000    lea eax,[esp+0x300]
00000BDF  89442408          mov [esp+0x8],eax
00000BE3  89542404          mov [esp+0x4],edx
00000BE7  8D8424AC020000    lea eax,[esp+0x2ac]
00000BEE  890424            mov [esp],eax
00000BF1  E8E8080000        call 0x14de
00000BF6  8D8424FF020000    lea eax,[esp+0x2ff]
00000BFD  890424            mov [esp],eax
00000C00  E8C5080000        call 0x14ca
00000C05  8D84240F030000    lea eax,[esp+0x30f]
00000C0C  890424            mov [esp],eax
00000C0F  E8A2080000        call 0x14b6
00000C14  C784241003000000  mov dword [esp+0x310],0x0
         -000000
00000C1F  C784241403000000  mov dword [esp+0x314],0x0
         -000000
00000C2A  8B8424D0020000    mov eax,[esp+0x2d0]
00000C31  89C2              mov edx,eax
00000C33  8D84240F030000    lea eax,[esp+0x30f]
00000C3A  8944240C          mov [esp+0xc],eax
00000C3E  8D842410030000    lea eax,[esp+0x310]
00000C45  89442408          mov [esp+0x8],eax
00000C49  89542404          mov [esp+0x4],edx
00000C4D  8D8424A0020000    lea eax,[esp+0x2a0]
00000C54  890424            mov [esp],eax
00000C57  E882080000        call 0x14de
00000C5C  8D84240F030000    lea eax,[esp+0x30f]
00000C63  890424            mov [esp],eax
00000C66  E85F080000        call 0x14ca
00000C6B  C784244803000000  mov dword [esp+0x348],0x0
         -000000
00000C76  EB5C              jmp short 0xcd4
00000C78  8B842448030000    mov eax,[esp+0x348]
00000C7F  89442404          mov [esp+0x4],eax
00000C83  8D8424A0020000    lea eax,[esp+0x2a0]
00000C8A  890424            mov [esp],eax
00000C8D  E8FC080000        call 0x158e
00000C92  89C3              mov ebx,eax
00000C94  8B842448030000    mov eax,[esp+0x348]
00000C9B  89442404          mov [esp+0x4],eax
00000C9F  8D8424AC020000    lea eax,[esp+0x2ac]
00000CA6  890424            mov [esp],eax
00000CA9  E8E0080000        call 0x158e
00000CAE  89442404          mov [esp+0x4],eax
00000CB2  8D842450010000    lea eax,[esp+0x150]
00000CB9  890424            mov [esp],eax
00000CBC  E8FFFBFFFF        call 0x1000008c0
00000CC1  895C2404          mov [esp+0x4],ebx
00000CC5  890424            mov [esp],eax
00000CC8  E8F3FBFFFF        call 0x1000008c0
00000CCD  FF842448030000    inc dword [esp+0x348]
00000CD4  8B8424D0020000    mov eax,[esp+0x2d0]
00000CDB  39842448030000    cmp [esp+0x348],eax
00000CE2  7C94              jl 0xc78
00000CE4  C784244403000000  mov dword [esp+0x344],0x0
         -000000
00000CEF  EB5C              jmp short 0xd4d
00000CF1  8B842444030000    mov eax,[esp+0x344]
00000CF8  89442404          mov [esp+0x4],eax
00000CFC  8D8424B8020000    lea eax,[esp+0x2b8]
00000D03  890424            mov [esp],eax
00000D06  E883080000        call 0x158e
00000D0B  89C3              mov ebx,eax
00000D0D  8B842444030000    mov eax,[esp+0x344]
00000D14  89442404          mov [esp+0x4],eax
00000D18  8D8424C4020000    lea eax,[esp+0x2c4]
00000D1F  890424            mov [esp],eax
00000D22  E867080000        call 0x158e
00000D27  89442404          mov [esp+0x4],eax
00000D2B  8D842450010000    lea eax,[esp+0x150]
00000D32  890424            mov [esp],eax
00000D35  E886FBFFFF        call 0x1000008c0
00000D3A  895C2404          mov [esp+0x4],ebx
00000D3E  890424            mov [esp],eax
00000D41  E87AFBFFFF        call 0x1000008c0
00000D46  FF842444030000    inc dword [esp+0x344]
00000D4D  8B8424D4020000    mov eax,[esp+0x2d4]
00000D54  39842444030000    cmp [esp+0x344],eax
00000D5B  7C94              jl 0xcf1
00000D5D  C784249802000000  mov dword [esp+0x298],0x0
         -000000
00000D68  C784249C02000000  mov dword [esp+0x29c],0x0
         -000000
00000D73  C784244003000000  mov dword [esp+0x340],0x0
         -000000
00000D7E  E950050000        jmp 0x12d3
00000D83  8B842440030000    mov eax,[esp+0x340]
00000D8A  8984243C030000    mov [esp+0x33c],eax
00000D91  E922050000        jmp 0x12b8
00000D96  8D8424C4020000    lea eax,[esp+0x2c4]
00000D9D  89442404          mov [esp+0x4],eax
00000DA1  8D84248C020000    lea eax,[esp+0x28c]
00000DA8  890424            mov [esp],eax
00000DAB  E8F0070000        call 0x15a0
00000DB0  C784248002000000  mov dword [esp+0x280],0x0
         -000000
00000DBB  C784248402000000  mov dword [esp+0x284],0x0
         -000000
00000DC6  C744240400000000  mov dword [esp+0x4],0x0
00000DCE  8D8424AC020000    lea eax,[esp+0x2ac]
00000DD5  890424            mov [esp],eax
00000DD8  E8B1070000        call 0x158e
00000DDD  8B5004            mov edx,[eax+0x4]
00000DE0  8B00              mov eax,[eax]
00000DE2  89842478020000    mov [esp+0x278],eax
00000DE9  8994247C020000    mov [esp+0x27c],edx
00000DF0  C784243803000000  mov dword [esp+0x338],0x0
         -000000
00000DFB  E935010000        jmp 0xf35
00000E00  8B842438030000    mov eax,[esp+0x338]
00000E07  89442404          mov [esp+0x4],eax
00000E0B  8D8424B8020000    lea eax,[esp+0x2b8]
00000E12  890424            mov [esp],eax
00000E15  E874070000        call 0x158e
00000E1A  8B18              mov ebx,[eax]
00000E1C  8B7004            mov esi,[eax+0x4]
00000E1F  C744240400000000  mov dword [esp+0x4],0x0
00000E27  8D8424A0020000    lea eax,[esp+0x2a0]
00000E2E  890424            mov [esp],eax
00000E31  E858070000        call 0x158e
00000E36  8B5004            mov edx,[eax+0x4]
00000E39  8B00              mov eax,[eax]
00000E3B  89DF              mov edi,ebx
00000E3D  31C7              xor edi,eax
00000E3F  897C2428          mov [esp+0x28],edi
00000E43  31D6              xor esi,edx
00000E45  8974242C          mov [esp+0x2c],esi
00000E49  8B742428          mov esi,[esp+0x28]
00000E4D  8B7C242C          mov edi,[esp+0x2c]
00000E51  89F0              mov eax,esi
00000E53  09F8              or eax,edi
00000E55  85C0              test eax,eax
00000E57  0F94C0            setz al
00000E5A  84C0              test al,al
00000E5C  0F84CC000000      jz near 0xf2e
00000E62  8B842438030000    mov eax,[esp+0x338]
00000E69  89442404          mov [esp+0x4],eax
00000E6D  8D84248C020000    lea eax,[esp+0x28c]
00000E74  890424            mov [esp],eax
00000E77  E812070000        call 0x158e
00000E7C  89442404          mov [esp+0x4],eax
00000E80  8D842478020000    lea eax,[esp+0x278]
00000E87  890424            mov [esp],eax
00000E8A  E8C8070000        call 0x1657
00000E8F  8B5004            mov edx,[eax+0x4]
00000E92  8B00              mov eax,[eax]
00000E94  89842428030000    mov [esp+0x328],eax
00000E9B  8994242C030000    mov [esp+0x32c],edx
00000EA2  8B8C2480020000    mov ecx,[esp+0x280]
00000EA9  8B9C2484020000    mov ebx,[esp+0x284]
00000EB0  8B842428030000    mov eax,[esp+0x328]
00000EB7  8B94242C030000    mov edx,[esp+0x32c]
00000EBE  01C8              add eax,ecx
00000EC0  11DA              adc edx,ebx
00000EC2  89842480020000    mov [esp+0x280],eax
00000EC9  89942484020000    mov [esp+0x284],edx
00000ED0  8B842478020000    mov eax,[esp+0x278]
00000ED7  8B94247C020000    mov edx,[esp+0x27c]
00000EDE  2B842428030000    sub eax,[esp+0x328]
00000EE5  1B94242C030000    sbb edx,[esp+0x32c]
00000EEC  89842478020000    mov [esp+0x278],eax
00000EF3  8994247C020000    mov [esp+0x27c],edx
00000EFA  8B842438030000    mov eax,[esp+0x338]
00000F01  89442404          mov [esp+0x4],eax
00000F05  8D84248C020000    lea eax,[esp+0x28c]
00000F0C  890424            mov [esp],eax
00000F0F  E87A060000        call 0x158e
00000F14  89C1              mov ecx,eax
00000F16  8B01              mov eax,[ecx]
00000F18  8B5104            mov edx,[ecx+0x4]
00000F1B  2B842428030000    sub eax,[esp+0x328]
00000F22  1B94242C030000    sbb edx,[esp+0x32c]
00000F29  8901              mov [ecx],eax
00000F2B  895104            mov [ecx+0x4],edx
00000F2E  FF842438030000    inc dword [esp+0x338]
00000F35  8B842438030000    mov eax,[esp+0x338]
00000F3C  3B842440030000    cmp eax,[esp+0x340]
00000F43  0F8EB7FEFFFF      jng near 0x100000e00
00000F49  8B8424D0020000    mov eax,[esp+0x2d0]
00000F50  83F801            cmp eax,byte +0x1
00000F53  0F8E86010000      jng near 0x10df
00000F59  C744240401000000  mov dword [esp+0x4],0x1
00000F61  8D8424AC020000    lea eax,[esp+0x2ac]
00000F68  890424            mov [esp],eax
00000F6B  E81E060000        call 0x158e
00000F70  8B5004            mov edx,[eax+0x4]
00000F73  8B00              mov eax,[eax]
00000F75  89842470020000    mov [esp+0x270],eax
00000F7C  89942474020000    mov [esp+0x274],edx
00000F83  8B842440030000    mov eax,[esp+0x340]
00000F8A  89842434030000    mov [esp+0x334],eax
00000F91  E935010000        jmp 0x10cb
00000F96  8B842434030000    mov eax,[esp+0x334]
00000F9D  89442404          mov [esp+0x4],eax
00000FA1  8D8424B8020000    lea eax,[esp+0x2b8]
00000FA8  890424            mov [esp],eax
00000FAB  E8DE050000        call 0x158e
00000FB0  8B18              mov ebx,[eax]
00000FB2  8B7004            mov esi,[eax+0x4]
00000FB5  C744240401000000  mov dword [esp+0x4],0x1
00000FBD  8D8424A0020000    lea eax,[esp+0x2a0]
00000FC4  890424            mov [esp],eax
00000FC7  E8C2050000        call 0x158e
00000FCC  8B5004            mov edx,[eax+0x4]
00000FCF  8B00              mov eax,[eax]
00000FD1  89DF              mov edi,ebx
00000FD3  31C7              xor edi,eax
00000FD5  897C2420          mov [esp+0x20],edi
00000FD9  31D6              xor esi,edx
00000FDB  89742424          mov [esp+0x24],esi
00000FDF  8B742420          mov esi,[esp+0x20]
00000FE3  8B7C2424          mov edi,[esp+0x24]
00000FE7  89F0              mov eax,esi
00000FE9  09F8              or eax,edi
00000FEB  85C0              test eax,eax
00000FED  0F94C0            setz al
00000FF0  84C0              test al,al
00000FF2  0F84CC000000      jz near 0x10c4
00000FF8  8B842434030000    mov eax,[esp+0x334]
00000FFF  89442404          mov [esp+0x4],eax
00001003  8D84248C020000    lea eax,[esp+0x28c]
0000100A  890424            mov [esp],eax
0000100D  E87C050000        call 0x158e
00001012  89442404          mov [esp+0x4],eax
00001016  8D842470020000    lea eax,[esp+0x270]
0000101D  890424            mov [esp],eax
00001020  E832060000        call 0x1657
00001025  8B5004            mov edx,[eax+0x4]
00001028  8B00              mov eax,[eax]
0000102A  89842420030000    mov [esp+0x320],eax
00001031  89942424030000    mov [esp+0x324],edx
00001038  8B8C2480020000    mov ecx,[esp+0x280]
0000103F  8B9C2484020000    mov ebx,[esp+0x284]
00001046  8B842420030000    mov eax,[esp+0x320]
0000104D  8B942424030000    mov edx,[esp+0x324]
00001054  01C8              add eax,ecx
00001056  11DA              adc edx,ebx
00001058  89842480020000    mov [esp+0x280],eax
0000105F  89942484020000    mov [esp+0x284],edx
00001066  8B842470020000    mov eax,[esp+0x270]
0000106D  8B942474020000    mov edx,[esp+0x274]
00001074  2B842420030000    sub eax,[esp+0x320]
0000107B  1B942424030000    sbb edx,[esp+0x324]
00001082  89842470020000    mov [esp+0x270],eax
00001089  89942474020000    mov [esp+0x274],edx
00001090  8B842434030000    mov eax,[esp+0x334]
00001097  89442404          mov [esp+0x4],eax
0000109B  8D84248C020000    lea eax,[esp+0x28c]
000010A2  890424            mov [esp],eax
000010A5  E8E4040000        call 0x158e
000010AA  89C1              mov ecx,eax
000010AC  8B01              mov eax,[ecx]
000010AE  8B5104            mov edx,[ecx+0x4]
000010B1  2B842420030000    sub eax,[esp+0x320]
000010B8  1B942424030000    sbb edx,[esp+0x324]
000010BF  8901              mov [ecx],eax
000010C1  895104            mov [ecx+0x4],edx
000010C4  FF842434030000    inc dword [esp+0x334]
000010CB  8B842434030000    mov eax,[esp+0x334]
000010D2  3B84243C030000    cmp eax,[esp+0x33c]
000010D9  0F8EB7FEFFFF      jng near 0x100000f96
000010DF  8B8424D0020000    mov eax,[esp+0x2d0]
000010E6  83F802            cmp eax,byte +0x2
000010E9  0F8E86010000      jng near 0x1275
000010EF  C744240402000000  mov dword [esp+0x4],0x2
000010F7  8D8424AC020000    lea eax,[esp+0x2ac]
000010FE  890424            mov [esp],eax
00001101  E888040000        call 0x158e
00001106  8B5004            mov edx,[eax+0x4]
00001109  8B00              mov eax,[eax]
0000110B  89842468020000    mov [esp+0x268],eax
00001112  8994246C020000    mov [esp+0x26c],edx
00001119  8B84243C030000    mov eax,[esp+0x33c]
00001120  89842430030000    mov [esp+0x330],eax
00001127  E935010000        jmp 0x1261
0000112C  8B842430030000    mov eax,[esp+0x330]
00001133  89442404          mov [esp+0x4],eax
00001137  8D8424B8020000    lea eax,[esp+0x2b8]
0000113E  890424            mov [esp],eax
00001141  E848040000        call 0x158e
00001146  8B18              mov ebx,[eax]
00001148  8B7004            mov esi,[eax+0x4]
0000114B  C744240402000000  mov dword [esp+0x4],0x2
00001153  8D8424A0020000    lea eax,[esp+0x2a0]
0000115A  890424            mov [esp],eax
0000115D  E82C040000        call 0x158e
00001162  8B5004            mov edx,[eax+0x4]
00001165  8B00              mov eax,[eax]
00001167  89D9              mov ecx,ebx
00001169  31C1              xor ecx,eax
0000116B  894C2418          mov [esp+0x18],ecx
0000116F  31D6              xor esi,edx
00001171  8974241C          mov [esp+0x1c],esi
00001175  8B742418          mov esi,[esp+0x18]
00001179  8B7C241C          mov edi,[esp+0x1c]
0000117D  89F0              mov eax,esi
0000117F  09F8              or eax,edi
00001181  85C0              test eax,eax
00001183  0F94C0            setz al
00001186  84C0              test al,al
00001188  0F84CC000000      jz near 0x125a
0000118E  8B842430030000    mov eax,[esp+0x330]
00001195  89442404          mov [esp+0x4],eax
00001199  8D84248C020000    lea eax,[esp+0x28c]
000011A0  890424            mov [esp],eax
000011A3  E8E6030000        call 0x158e
000011A8  89442404          mov [esp+0x4],eax
000011AC  8D842468020000    lea eax,[esp+0x268]
000011B3  890424            mov [esp],eax
000011B6  E89C040000        call 0x1657
000011BB  8B5004            mov edx,[eax+0x4]
000011BE  8B00              mov eax,[eax]
000011C0  89842418030000    mov [esp+0x318],eax
000011C7  8994241C030000    mov [esp+0x31c],edx
000011CE  8B8C2480020000    mov ecx,[esp+0x280]
000011D5  8B9C2484020000    mov ebx,[esp+0x284]
000011DC  8B842418030000    mov eax,[esp+0x318]
000011E3  8B94241C030000    mov edx,[esp+0x31c]
000011EA  01C8              add eax,ecx
000011EC  11DA              adc edx,ebx
000011EE  89842480020000    mov [esp+0x280],eax
000011F5  89942484020000    mov [esp+0x284],edx
000011FC  8B842468020000    mov eax,[esp+0x268]
00001203  8B94246C020000    mov edx,[esp+0x26c]
0000120A  2B842418030000    sub eax,[esp+0x318]
00001211  1B94241C030000    sbb edx,[esp+0x31c]
00001218  89842468020000    mov [esp+0x268],eax
0000121F  8994246C020000    mov [esp+0x26c],edx
00001226  8B842430030000    mov eax,[esp+0x330]
0000122D  89442404          mov [esp+0x4],eax
00001231  8D84248C020000    lea eax,[esp+0x28c]
00001238  890424            mov [esp],eax
0000123B  E84E030000        call 0x158e
00001240  89C1              mov ecx,eax
00001242  8B01              mov eax,[ecx]
00001244  8B5104            mov edx,[ecx+0x4]
00001247  2B842418030000    sub eax,[esp+0x318]
0000124E  1B94241C030000    sbb edx,[esp+0x31c]
00001255  8901              mov [ecx],eax
00001257  895104            mov [ecx+0x4],edx
0000125A  FF842430030000    inc dword [esp+0x330]
00001261  8B8424D4020000    mov eax,[esp+0x2d4]
00001268  39842430030000    cmp [esp+0x330],eax
0000126F  0F8CB7FEFFFF      jl near 0x10000112c
00001275  8D842480020000    lea eax,[esp+0x280]
0000127C  89442404          mov [esp+0x4],eax
00001280  8D842498020000    lea eax,[esp+0x298]
00001287  890424            mov [esp],eax
0000128A  E8F3030000        call 0x1682
0000128F  8B5004            mov edx,[eax+0x4]
00001292  8B00              mov eax,[eax]
00001294  89842498020000    mov [esp+0x298],eax
0000129B  8994249C020000    mov [esp+0x29c],edx
000012A2  8D84248C020000    lea eax,[esp+0x28c]
000012A9  890424            mov [esp],eax
000012AC  E885020000        call 0x1536
000012B1  FF84243C030000    inc dword [esp+0x33c]
000012B8  8B8424D4020000    mov eax,[esp+0x2d4]
000012BF  3984243C030000    cmp [esp+0x33c],eax
000012C6  0F8CCAFAFFFF      jl near 0x100000d96
000012CC  FF842440030000    inc dword [esp+0x340]
000012D3  8B8424D4020000    mov eax,[esp+0x2d4]
000012DA  39842440030000    cmp [esp+0x340],eax
000012E1  0F8C9CFAFFFF      jl near 0x100000d83
000012E7  8B9C2498020000    mov ebx,[esp+0x298]
000012EE  8BB4249C020000    mov esi,[esp+0x29c]
000012F5  8B84244C030000    mov eax,[esp+0x34c]
000012FC  8D7801            lea edi,[eax+0x1]
000012FF  C7442404379D0408  mov dword [esp+0x4],0x8049d37
00001307  8D44243C          lea eax,[esp+0x3c]
0000130B  890424            mov [esp],eax
0000130E  E8FDF4FFFF        call 0x100000810
00001313  897C2404          mov [esp+0x4],edi
00001317  890424            mov [esp],eax
0000131A  E8B1F4FFFF        call 0x1000007d0
0000131F  C74424043E9D0408  mov dword [esp+0x4],0x8049d3e
00001327  890424            mov [esp],eax
0000132A  E8E1F4FFFF        call 0x100000810
0000132F  895C2404          mov [esp+0x4],ebx
00001333  89742408          mov [esp+0x8],esi
00001337  890424            mov [esp],eax
0000133A  E841F5FFFF        call 0x100000880
0000133F  C7442404D0880408  mov dword [esp+0x4],0x80488d0
00001347  890424            mov [esp],eax
0000134A  E841F5FFFF        call 0x100000890
0000134F  8D8424A0020000    lea eax,[esp+0x2a0]
00001356  890424            mov [esp],eax
00001359  E8D8010000        call 0x1536
0000135E  8D8424AC020000    lea eax,[esp+0x2ac]
00001365  890424            mov [esp],eax
00001368  E8C9010000        call 0x1536
0000136D  8D8424B8020000    lea eax,[esp+0x2b8]
00001374  890424            mov [esp],eax
00001377  E8BA010000        call 0x1536
0000137C  8D8424C4020000    lea eax,[esp+0x2c4]
00001383  890424            mov [esp],eax
00001386  E8AB010000        call 0x1536
0000138B  FF84244C030000    inc dword [esp+0x34c]
00001392  8B8424D8020000    mov eax,[esp+0x2d8]
00001399  3984244C030000    cmp [esp+0x34c],eax
000013A0  0F8CFEF6FFFF      jl near 0x100000aa4
000013A6  BB00000000        mov ebx,0x0
000013AB  8D44243C          lea eax,[esp+0x3c]
000013AF  890424            mov [esp],eax
000013B2  E879F4FFFF        call 0x100000830
000013B7  8D842450010000    lea eax,[esp+0x150]
000013BE  890424            mov [esp],eax
000013C1  E85AF4FFFF        call 0x100000820
000013C6  89D8              mov eax,ebx
000013C8  E9D4000000        jmp 0x14a1
000013CD  89C3              mov ebx,eax
000013CF  8D8424DF020000    lea eax,[esp+0x2df]
000013D6  890424            mov [esp],eax
000013D9  E8EC000000        call 0x14ca
000013DE  89D8              mov eax,ebx
000013E0  E98B000000        jmp 0x1470
000013E5  89C3              mov ebx,eax
000013E7  8D8424EF020000    lea eax,[esp+0x2ef]
000013EE  890424            mov [esp],eax
000013F1  E8D4000000        call 0x14ca
000013F6  EB65              jmp short 0x145d
000013F8  89C3              mov ebx,eax
000013FA  8D8424FF020000    lea eax,[esp+0x2ff]
00001401  890424            mov [esp],eax
00001404  E8C1000000        call 0x14ca
00001409  EB3F              jmp short 0x144a
0000140B  89C3              mov ebx,eax
0000140D  8D84240F030000    lea eax,[esp+0x30f]
00001414  890424            mov [esp],eax
00001417  E8AE000000        call 0x14ca
0000141C  EB19              jmp short 0x1437
0000141E  89C3              mov ebx,eax
00001420  EB02              jmp short 0x1424
00001422  89C3              mov ebx,eax
00001424  8D8424A0020000    lea eax,[esp+0x2a0]
0000142B  890424            mov [esp],eax
0000142E  E803010000        call 0x1536
00001433  EB02              jmp short 0x1437
00001435  89C3              mov ebx,eax
00001437  8D8424AC020000    lea eax,[esp+0x2ac]
0000143E  890424            mov [esp],eax
00001441  E8F0000000        call 0x1536
00001446  EB02              jmp short 0x144a
00001448  89C3              mov ebx,eax
0000144A  8D8424B8020000    lea eax,[esp+0x2b8]
00001451  890424            mov [esp],eax
00001454  E8DD000000        call 0x1536
00001459  EB02              jmp short 0x145d
0000145B  89C3              mov ebx,eax
0000145D  8D8424C4020000    lea eax,[esp+0x2c4]
00001464  890424            mov [esp],eax
00001467  E8CA000000        call 0x1536
0000146C  89D8              mov eax,ebx
0000146E  EB00              jmp short 0x1470
00001470  89C3              mov ebx,eax
00001472  EB02              jmp short 0x1476
00001474  89C3              mov ebx,eax
00001476  8D44243C          lea eax,[esp+0x3c]
0000147A  890424            mov [esp],eax
0000147D  E8AEF3FFFF        call 0x100000830
00001482  EB02              jmp short 0x1486
00001484  89C3              mov ebx,eax
00001486  8D842450010000    lea eax,[esp+0x150]
0000148D  890424            mov [esp],eax
00001490  E88BF3FFFF        call 0x100000820
00001495  89D8              mov eax,ebx
00001497  EB00              jmp short 0x1499
00001499  890424            mov [esp],eax
0000149C  E84FF4FFFF        call 0x1000008f0
000014A1  8D65F4            lea esp,[ebp-0xc]
000014A4  5B                pop ebx
000014A5  5E                pop esi
000014A6  5F                pop edi
000014A7  5D                pop ebp
000014A8  C3                ret
000014A9  55                push ebp
000014AA  89E5              mov ebp,esp
000014AC  8B5508            mov edx,[ebp+0x8]
000014AF  8B450C            mov eax,[ebp+0xc]
000014B2  09D0              or eax,edx
000014B4  5D                pop ebp
000014B5  C3                ret
000014B6  55                push ebp
000014B7  89E5              mov ebp,esp
000014B9  83EC18            sub esp,byte +0x18
000014BC  8B4508            mov eax,[ebp+0x8]
000014BF  890424            mov [esp],eax
000014C2  E8E7010000        call 0x16ae
000014C7  C9                leave
000014C8  C3                ret
000014C9  90                nop
000014CA  55                push ebp
000014CB  89E5              mov ebp,esp
000014CD  83EC18            sub esp,byte +0x18
000014D0  8B4508            mov eax,[ebp+0x8]
000014D3  890424            mov [esp],eax
000014D6  E8D9010000        call 0x16b4
000014DB  C9                leave
000014DC  C3                ret
000014DD  90                nop
000014DE  55                push ebp
000014DF  89E5              mov ebp,esp
000014E1  53                push ebx
000014E2  83EC14            sub esp,byte +0x14
000014E5  8B4508            mov eax,[ebp+0x8]
000014E8  8B5514            mov edx,[ebp+0x14]
000014EB  89542408          mov [esp+0x8],edx
000014EF  8B550C            mov edx,[ebp+0xc]
000014F2  89542404          mov [esp+0x4],edx
000014F6  890424            mov [esp],eax
000014F9  E8D0010000        call 0x16ce
000014FE  8B4510            mov eax,[ebp+0x10]
00001501  89442408          mov [esp+0x8],eax
00001505  8B450C            mov eax,[ebp+0xc]
00001508  89442404          mov [esp+0x4],eax
0000150C  8B4508            mov eax,[ebp+0x8]
0000150F  890424            mov [esp],eax
00001512  E861020000        call 0x1778
00001517  EB17              jmp short 0x1530
00001519  89C3              mov ebx,eax
0000151B  8B4508            mov eax,[ebp+0x8]
0000151E  890424            mov [esp],eax
00001521  E8F2010000        call 0x1718
00001526  89D8              mov eax,ebx
00001528  890424            mov [esp],eax
0000152B  E8C0F3FFFF        call 0x1000008f0
00001530  83C414            add esp,byte +0x14
00001533  5B                pop ebx
00001534  5D                pop ebp
00001535  C3                ret
00001536  55                push ebp
00001537  89E5              mov ebp,esp
00001539  53                push ebx
0000153A  83EC14            sub esp,byte +0x14
0000153D  8B4508            mov eax,[ebp+0x8]
00001540  890424            mov [esp],eax
00001543  E86E020000        call 0x17b6
00001548  8B5508            mov edx,[ebp+0x8]
0000154B  8B4A04            mov ecx,[edx+0x4]
0000154E  8B5508            mov edx,[ebp+0x8]
00001551  8B12              mov edx,[edx]
00001553  89442408          mov [esp+0x8],eax
00001557  894C2404          mov [esp+0x4],ecx
0000155B  891424            mov [esp],edx
0000155E  E85B020000        call 0x17be
00001563  8B4508            mov eax,[ebp+0x8]
00001566  890424            mov [esp],eax
00001569  E8AA010000        call 0x1718
0000156E  EB17              jmp short 0x1587
00001570  89C3              mov ebx,eax
00001572  8B4508            mov eax,[ebp+0x8]
00001575  890424            mov [esp],eax
00001578  E89B010000        call 0x1718
0000157D  89D8              mov eax,ebx
0000157F  890424            mov [esp],eax
00001582  E869F3FFFF        call 0x1000008f0
00001587  83C414            add esp,byte +0x14
0000158A  5B                pop ebx
0000158B  5D                pop ebp
0000158C  C3                ret
0000158D  90                nop
0000158E  55                push ebp
0000158F  89E5              mov ebp,esp
00001591  8B4508            mov eax,[ebp+0x8]
00001594  8B00              mov eax,[eax]
00001596  8B550C            mov edx,[ebp+0xc]
00001599  C1E203            shl edx,0x3
0000159C  01D0              add eax,edx
0000159E  5D                pop ebp
0000159F  C3                ret
000015A0  55                push ebp
000015A1  89E5              mov ebp,esp
000015A3  56                push esi
000015A4  53                push ebx
000015A5  83EC20            sub esp,byte +0x20
000015A8  8B450C            mov eax,[ebp+0xc]
000015AB  890424            mov [esp],eax
000015AE  E847020000        call 0x17fa
000015B3  890424            mov [esp],eax
000015B6  E836020000        call 0x17f1
000015BB  89C3              mov ebx,eax
000015BD  8B450C            mov eax,[ebp+0xc]
000015C0  890424            mov [esp],eax
000015C3  E810020000        call 0x17d8
000015C8  8B5508            mov edx,[ebp+0x8]
000015CB  895C2408          mov [esp+0x8],ebx
000015CF  89442404          mov [esp+0x4],eax
000015D3  891424            mov [esp],edx
000015D6  E8F3000000        call 0x16ce
000015DB  8B4508            mov eax,[ebp+0x8]
000015DE  890424            mov [esp],eax
000015E1  E8D0010000        call 0x17b6
000015E6  89C3              mov ebx,eax
000015E8  8B4508            mov eax,[ebp+0x8]
000015EB  8B30              mov esi,[eax]
000015ED  8D45F0            lea eax,[ebp-0x10]
000015F0  8B550C            mov edx,[ebp+0xc]
000015F3  89542404          mov [esp+0x4],edx
000015F7  890424            mov [esp],eax
000015FA  E82B020000        call 0x182a
000015FF  83EC04            sub esp,byte +0x4
00001602  8D45F4            lea eax,[ebp-0xc]
00001605  8B550C            mov edx,[ebp+0xc]
00001608  89542404          mov [esp+0x4],edx
0000160C  890424            mov [esp],eax
0000160F  E8EE010000        call 0x1802
00001614  83EC04            sub esp,byte +0x4
00001617  895C240C          mov [esp+0xc],ebx
0000161B  89742408          mov [esp+0x8],esi
0000161F  8B45F0            mov eax,[ebp-0x10]
00001622  89442404          mov [esp+0x4],eax
00001626  8B45F4            mov eax,[ebp-0xc]
00001629  890424            mov [esp],eax
0000162C  E821020000        call 0x1852
00001631  8B5508            mov edx,[ebp+0x8]
00001634  894204            mov [edx+0x4],eax
00001637  EB17              jmp short 0x1650
00001639  89C3              mov ebx,eax
0000163B  8B4508            mov eax,[ebp+0x8]
0000163E  890424            mov [esp],eax
00001641  E8D2000000        call 0x1718
00001646  89D8              mov eax,ebx
00001648  890424            mov [esp],eax
0000164B  E8A0F2FFFF        call 0x1000008f0
00001650  8D65F8            lea esp,[ebp-0x8]
00001653  5B                pop ebx
00001654  5E                pop esi
00001655  5D                pop ebp
00001656  C3                ret
00001657  55                push ebp
00001658  89E5              mov ebp,esp
0000165A  53                push ebx
0000165B  8B450C            mov eax,[ebp+0xc]
0000165E  8B08              mov ecx,[eax]
00001660  8B5804            mov ebx,[eax+0x4]
00001663  8B4508            mov eax,[ebp+0x8]
00001666  8B5004            mov edx,[eax+0x4]
00001669  8B00              mov eax,[eax]
0000166B  39D3              cmp ebx,edx
0000166D  7F0D              jg 0x167c
0000166F  39D3              cmp ebx,edx
00001671  7C04              jl 0x1677
00001673  39C1              cmp ecx,eax
00001675  7305              jnc 0x167c
00001677  8B450C            mov eax,[ebp+0xc]
0000167A  EB03              jmp short 0x167f
0000167C  8B4508            mov eax,[ebp+0x8]
0000167F  5B                pop ebx
00001680  5D                pop ebp
00001681  C3                ret
00001682  55                push ebp
00001683  89E5              mov ebp,esp
00001685  53                push ebx
00001686  8B4508            mov eax,[ebp+0x8]
00001689  8B08              mov ecx,[eax]
0000168B  8B5804            mov ebx,[eax+0x4]
0000168E  8B450C            mov eax,[ebp+0xc]
00001691  8B5004            mov edx,[eax+0x4]
00001694  8B00              mov eax,[eax]
00001696  39D3              cmp ebx,edx
00001698  7F0D              jg 0x16a7
0000169A  39D3              cmp ebx,edx
0000169C  7C04              jl 0x16a2
0000169E  39C1              cmp ecx,eax
000016A0  7305              jnc 0x16a7
000016A2  8B450C            mov eax,[ebp+0xc]
000016A5  EB03              jmp short 0x16aa
000016A7  8B4508            mov eax,[ebp+0x8]
000016AA  5B                pop ebx
000016AB  5D                pop ebp
000016AC  C3                ret
000016AD  90                nop
000016AE  55                push ebp
000016AF  89E5              mov ebp,esp
000016B1  5D                pop ebp
000016B2  C3                ret
000016B3  90                nop
000016B4  55                push ebp
000016B5  89E5              mov ebp,esp
000016B7  5D                pop ebp
000016B8  C3                ret
000016B9  90                nop
000016BA  55                push ebp
000016BB  89E5              mov ebp,esp
000016BD  83EC18            sub esp,byte +0x18
000016C0  8B4508            mov eax,[ebp+0x8]
000016C3  890424            mov [esp],eax
000016C6  E8FFFDFFFF        call 0x1000014ca
000016CB  C9                leave
000016CC  C3                ret
000016CD  90                nop
000016CE  55                push ebp
000016CF  89E5              mov ebp,esp
000016D1  53                push ebx
000016D2  83EC14            sub esp,byte +0x14
000016D5  8B4508            mov eax,[ebp+0x8]
000016D8  8B5510            mov edx,[ebp+0x10]
000016DB  89542404          mov [esp+0x4],edx
000016DF  890424            mov [esp],eax
000016E2  E88D010000        call 0x1874
000016E7  8B450C            mov eax,[ebp+0xc]
000016EA  89442404          mov [esp+0x4],eax
000016EE  8B4508            mov eax,[ebp+0x8]
000016F1  890424            mov [esp],eax
000016F4  E8B3010000        call 0x18ac
000016F9  EB17              jmp short 0x1712
000016FB  89C3              mov ebx,eax
000016FD  8B4508            mov eax,[ebp+0x8]
00001700  890424            mov [esp],eax
00001703  E8B2FFFFFF        call 0x1000016ba
00001708  89D8              mov eax,ebx
0000170A  890424            mov [esp],eax
0000170D  E8DEF1FFFF        call 0x1000008f0
00001712  83C414            add esp,byte +0x14
00001715  5B                pop ebx
00001716  5D                pop ebp
00001717  C3                ret
00001718  55                push ebp
00001719  89E5              mov ebp,esp
0000171B  53                push ebx
0000171C  83EC14            sub esp,byte +0x14
0000171F  8B4508            mov eax,[ebp+0x8]
00001722  8B4008            mov eax,[eax+0x8]
00001725  89C2              mov edx,eax
00001727  8B4508            mov eax,[ebp+0x8]
0000172A  8B00              mov eax,[eax]
0000172C  29C2              sub edx,eax
0000172E  89D0              mov eax,edx
00001730  C1F803            sar eax,0x3
00001733  89C2              mov edx,eax
00001735  8B4508            mov eax,[ebp+0x8]
00001738  8B00              mov eax,[eax]
0000173A  89542408          mov [esp+0x8],edx
0000173E  89442404          mov [esp+0x4],eax
00001742  8B4508            mov eax,[ebp+0x8]
00001745  890424            mov [esp],eax
00001748  E89D010000        call 0x18ea
0000174D  8B4508            mov eax,[ebp+0x8]
00001750  890424            mov [esp],eax
00001753  E862FFFFFF        call 0x1000016ba
00001758  EB17              jmp short 0x1771
0000175A  89C3              mov ebx,eax
0000175C  8B4508            mov eax,[ebp+0x8]
0000175F  890424            mov [esp],eax
00001762  E853FFFFFF        call 0x1000016ba
00001767  89D8              mov eax,ebx
00001769  890424            mov [esp],eax
0000176C  E87FF1FFFF        call 0x1000008f0
00001771  83C414            add esp,byte +0x14
00001774  5B                pop ebx
00001775  5D                pop ebp
00001776  C3                ret
00001777  90                nop
00001778  55                push ebp
00001779  89E5              mov ebp,esp
0000177B  83EC18            sub esp,byte +0x18
0000177E  8B4508            mov eax,[ebp+0x8]
00001781  890424            mov [esp],eax
00001784  E82D000000        call 0x17b6
00001789  8B5508            mov edx,[ebp+0x8]
0000178C  8B12              mov edx,[edx]
0000178E  8944240C          mov [esp+0xc],eax
00001792  8B4510            mov eax,[ebp+0x10]
00001795  89442408          mov [esp+0x8],eax
00001799  8B450C            mov eax,[ebp+0xc]
0000179C  89442404          mov [esp+0x4],eax
000017A0  891424            mov [esp],edx
000017A3  E869010000        call 0x1911
000017A8  8B4508            mov eax,[ebp+0x8]
000017AB  8B5008            mov edx,[eax+0x8]
000017AE  8B4508            mov eax,[ebp+0x8]
000017B1  895004            mov [eax+0x4],edx
000017B4  C9                leave
000017B5  C3                ret
000017B6  55                push ebp
000017B7  89E5              mov ebp,esp
000017B9  8B4508            mov eax,[ebp+0x8]
000017BC  5D                pop ebp
000017BD  C3                ret
000017BE  55                push ebp
000017BF  89E5              mov ebp,esp
000017C1  83EC18            sub esp,byte +0x18
000017C4  8B450C            mov eax,[ebp+0xc]
000017C7  89442404          mov [esp+0x4],eax
000017CB  8B4508            mov eax,[ebp+0x8]
000017CE  890424            mov [esp],eax
000017D1  E85C010000        call 0x1932
000017D6  C9                leave
000017D7  C3                ret
000017D8  55                push ebp
000017D9  89E5              mov ebp,esp
000017DB  8B4508            mov eax,[ebp+0x8]
000017DE  8B4004            mov eax,[eax+0x4]
000017E1  89C2              mov edx,eax
000017E3  8B4508            mov eax,[ebp+0x8]
000017E6  8B00              mov eax,[eax]
000017E8  29C2              sub edx,eax
000017EA  89D0              mov eax,edx
000017EC  C1F803            sar eax,0x3
000017EF  5D                pop ebp
000017F0  C3                ret
000017F1  55                push ebp
000017F2  89E5              mov ebp,esp
000017F4  8B4508            mov eax,[ebp+0x8]
000017F7  5D                pop ebp
000017F8  C3                ret
000017F9  90                nop
000017FA  55                push ebp
000017FB  89E5              mov ebp,esp
000017FD  8B4508            mov eax,[ebp+0x8]
00001800  5D                pop ebp
00001801  C3                ret
00001802  55                push ebp
00001803  89E5              mov ebp,esp
00001805  83EC28            sub esp,byte +0x28
00001808  8B450C            mov eax,[ebp+0xc]
0000180B  8B00              mov eax,[eax]
0000180D  8945F4            mov [ebp-0xc],eax
00001810  8D45F4            lea eax,[ebp-0xc]
00001813  89442404          mov [esp+0x4],eax
00001817  8B4508            mov eax,[ebp+0x8]
0000181A  890424            mov [esp],eax
0000181D  E82A010000        call 0x194c
00001822  8B4508            mov eax,[ebp+0x8]
00001825  C9                leave
00001826  C20400            ret 0x4
00001829  90                nop
0000182A  55                push ebp
0000182B  89E5              mov ebp,esp
0000182D  83EC28            sub esp,byte +0x28
00001830  8B450C            mov eax,[ebp+0xc]
00001833  8B4004            mov eax,[eax+0x4]
00001836  8945F4            mov [ebp-0xc],eax
00001839  8D45F4            lea eax,[ebp-0xc]
0000183C  89442404          mov [esp+0x4],eax
00001840  8B4508            mov eax,[ebp+0x8]
00001843  890424            mov [esp],eax
00001846  E801010000        call 0x194c
0000184B  8B4508            mov eax,[ebp+0x8]
0000184E  C9                leave
0000184F  C20400            ret 0x4
00001852  55                push ebp
00001853  89E5              mov ebp,esp
00001855  83EC18            sub esp,byte +0x18
00001858  8B4510            mov eax,[ebp+0x10]
0000185B  89442408          mov [esp+0x8],eax
0000185F  8B450C            mov eax,[ebp+0xc]
00001862  89442404          mov [esp+0x4],eax
00001866  8B4508            mov eax,[ebp+0x8]
00001869  890424            mov [esp],eax
0000186C  E8EA000000        call 0x195b
00001871  C9                leave
00001872  C3                ret
00001873  90                nop
00001874  55                push ebp
00001875  89E5              mov ebp,esp
00001877  83EC18            sub esp,byte +0x18
0000187A  8B450C            mov eax,[ebp+0xc]
0000187D  89442404          mov [esp+0x4],eax
00001881  8B4508            mov eax,[ebp+0x8]
00001884  890424            mov [esp],eax
00001887  E8F0000000        call 0x197c
0000188C  8B4508            mov eax,[ebp+0x8]
0000188F  C70000000000      mov dword [eax],0x0
00001895  8B4508            mov eax,[ebp+0x8]
00001898  C7400400000000    mov dword [eax+0x4],0x0
0000189F  8B4508            mov eax,[ebp+0x8]
000018A2  C7400800000000    mov dword [eax+0x8],0x0
000018A9  C9                leave
000018AA  C3                ret
000018AB  90                nop
000018AC  55                push ebp
000018AD  89E5              mov ebp,esp
000018AF  83EC18            sub esp,byte +0x18
000018B2  8B450C            mov eax,[ebp+0xc]
000018B5  89442404          mov [esp+0x4],eax
000018B9  8B4508            mov eax,[ebp+0x8]
000018BC  890424            mov [esp],eax
000018BF  E8D2000000        call 0x1996
000018C4  8B5508            mov edx,[ebp+0x8]
000018C7  8902              mov [edx],eax
000018C9  8B4508            mov eax,[ebp+0x8]
000018CC  8B10              mov edx,[eax]
000018CE  8B4508            mov eax,[ebp+0x8]
000018D1  895004            mov [eax+0x4],edx
000018D4  8B4508            mov eax,[ebp+0x8]
000018D7  8B00              mov eax,[eax]
000018D9  8B550C            mov edx,[ebp+0xc]
000018DC  C1E203            shl edx,0x3
000018DF  01C2              add edx,eax
000018E1  8B4508            mov eax,[ebp+0x8]
000018E4  895008            mov [eax+0x8],edx
000018E7  C9                leave
000018E8  C3                ret
000018E9  90                nop
000018EA  55                push ebp
000018EB  89E5              mov ebp,esp
000018ED  83EC18            sub esp,byte +0x18
000018F0  837D0C00          cmp dword [ebp+0xc],byte +0x0
000018F4  7419              jz 0x190f
000018F6  8B4508            mov eax,[ebp+0x8]
000018F9  8B5510            mov edx,[ebp+0x10]
000018FC  89542408          mov [esp+0x8],edx
00001900  8B550C            mov edx,[ebp+0xc]
00001903  89542404          mov [esp+0x4],edx
00001907  890424            mov [esp],eax
0000190A  E8B7000000        call 0x19c6
0000190F  C9                leave
00001910  C3                ret
00001911  55                push ebp
00001912  89E5              mov ebp,esp
00001914  83EC18            sub esp,byte +0x18
00001917  8B4510            mov eax,[ebp+0x10]
0000191A  89442408          mov [esp+0x8],eax
0000191E  8B450C            mov eax,[ebp+0xc]
00001921  89442404          mov [esp+0x4],eax
00001925  8B4508            mov eax,[ebp+0x8]
00001928  890424            mov [esp],eax
0000192B  E8A9000000        call 0x19d9
00001930  C9                leave
00001931  C3                ret
00001932  55                push ebp
00001933  89E5              mov ebp,esp
00001935  83EC18            sub esp,byte +0x18
00001938  8B450C            mov eax,[ebp+0xc]
0000193B  89442404          mov [esp+0x4],eax
0000193F  8B4508            mov eax,[ebp+0x8]
00001942  890424            mov [esp],eax
00001945  E8B0000000        call 0x19fa
0000194A  C9                leave
0000194B  C3                ret
0000194C  55                push ebp
0000194D  89E5              mov ebp,esp
0000194F  8B450C            mov eax,[ebp+0xc]
00001952  8B10              mov edx,[eax]
00001954  8B4508            mov eax,[ebp+0x8]
00001957  8910              mov [eax],edx
00001959  5D                pop ebp
0000195A  C3                ret
0000195B  55                push ebp
0000195C  89E5              mov ebp,esp
0000195E  83EC18            sub esp,byte +0x18
00001961  8B4510            mov eax,[ebp+0x10]
00001964  89442408          mov [esp+0x8],eax
00001968  8B450C            mov eax,[ebp+0xc]
0000196B  89442404          mov [esp+0x4],eax
0000196F  8B4508            mov eax,[ebp+0x8]
00001972  890424            mov [esp],eax
00001975  E885000000        call 0x19ff
0000197A  C9                leave
0000197B  C3                ret
0000197C  55                push ebp
0000197D  89E5              mov ebp,esp
0000197F  83EC18            sub esp,byte +0x18
00001982  8B450C            mov eax,[ebp+0xc]
00001985  89442404          mov [esp+0x4],eax
00001989  8B4508            mov eax,[ebp+0x8]
0000198C  890424            mov [esp],eax
0000198F  E88C000000        call 0x1a20
00001994  C9                leave
00001995  C3                ret
00001996  55                push ebp
00001997  89E5              mov ebp,esp
00001999  83EC18            sub esp,byte +0x18
0000199C  837D0C00          cmp dword [ebp+0xc],byte +0x0
000019A0  741C              jz 0x19be
000019A2  8B4508            mov eax,[ebp+0x8]
000019A5  C744240800000000  mov dword [esp+0x8],0x0
000019AD  8B550C            mov edx,[ebp+0xc]
000019B0  89542404          mov [esp+0x4],edx
000019B4  890424            mov [esp],eax
000019B7  E86A000000        call 0x1a26
000019BC  EB05              jmp short 0x19c3
000019BE  B800000000        mov eax,0x0
000019C3  C9                leave
000019C4  C3                ret
000019C5  90                nop
000019C6  55                push ebp
000019C7  89E5              mov ebp,esp
000019C9  83EC18            sub esp,byte +0x18
000019CC  8B450C            mov eax,[ebp+0xc]
000019CF  890424            mov [esp],eax
000019D2  E819EEFFFF        call 0x1000007f0
000019D7  C9                leave
000019D8  C3                ret
000019D9  55                push ebp
000019DA  89E5              mov ebp,esp
000019DC  83EC18            sub esp,byte +0x18
000019DF  8B4510            mov eax,[ebp+0x10]
000019E2  89442408          mov [esp+0x8],eax
000019E6  8B450C            mov eax,[ebp+0xc]
000019E9  89442404          mov [esp+0x4],eax
000019ED  8B4508            mov eax,[ebp+0x8]
000019F0  890424            mov [esp],eax
000019F3  E85E000000        call 0x1a56
000019F8  C9                leave
000019F9  C3                ret
000019FA  55                push ebp
000019FB  89E5              mov ebp,esp
000019FD  5D                pop ebp
000019FE  C3                ret
000019FF  55                push ebp
00001A00  89E5              mov ebp,esp
00001A02  83EC18            sub esp,byte +0x18
00001A05  8B4510            mov eax,[ebp+0x10]
00001A08  89442408          mov [esp+0x8],eax
00001A0C  8B450C            mov eax,[ebp+0xc]
00001A0F  89442404          mov [esp+0x4],eax
00001A13  8B4508            mov eax,[ebp+0x8]
00001A16  890424            mov [esp],eax
00001A19  E859000000        call 0x1a77
00001A1E  C9                leave
00001A1F  C3                ret
00001A20  55                push ebp
00001A21  89E5              mov ebp,esp
00001A23  5D                pop ebp
00001A24  C3                ret
00001A25  90                nop
00001A26  55                push ebp
00001A27  89E5              mov ebp,esp
00001A29  83EC18            sub esp,byte +0x18
00001A2C  8B4508            mov eax,[ebp+0x8]
00001A2F  890424            mov [esp],eax
00001A32  E88B000000        call 0x1ac2
00001A37  3B450C            cmp eax,[ebp+0xc]
00001A3A  0F92C0            setc al
00001A3D  84C0              test al,al
00001A3F  7405              jz 0x1a46
00001A41  E86AEEFFFF        call 0x1000008b0
00001A46  8B450C            mov eax,[ebp+0xc]
00001A49  C1E003            shl eax,0x3
00001A4C  890424            mov [esp],eax
00001A4F  E8ECEDFFFF        call 0x100000840
00001A54  C9                leave
00001A55  C3                ret
00001A56  55                push ebp
00001A57  89E5              mov ebp,esp
00001A59  83EC18            sub esp,byte +0x18
00001A5C  8B4510            mov eax,[ebp+0x10]
00001A5F  89442408          mov [esp+0x8],eax
00001A63  8B450C            mov eax,[ebp+0xc]
00001A66  89442404          mov [esp+0x4],eax
00001A6A  8B4508            mov eax,[ebp+0x8]
00001A6D  890424            mov [esp],eax
00001A70  E857000000        call 0x1acc
00001A75  C9                leave
00001A76  C3                ret
00001A77  55                push ebp
00001A78  89E5              mov ebp,esp
00001A7A  83EC28            sub esp,byte +0x28
00001A7D  8D45F0            lea eax,[ebp-0x10]
00001A80  8B550C            mov edx,[ebp+0xc]
00001A83  89542404          mov [esp+0x4],edx
00001A87  890424            mov [esp],eax
00001A8A  E866000000        call 0x1af5
00001A8F  83EC04            sub esp,byte +0x4
00001A92  8D45F4            lea eax,[ebp-0xc]
00001A95  8B5508            mov edx,[ebp+0x8]
00001A98  89542404          mov [esp+0x4],edx
00001A9C  890424            mov [esp],eax
00001A9F  E851000000        call 0x1af5
00001AA4  83EC04            sub esp,byte +0x4
00001AA7  8B4510            mov eax,[ebp+0x10]
00001AAA  89442408          mov [esp+0x8],eax
00001AAE  8B45F0            mov eax,[ebp-0x10]
00001AB1  89442404          mov [esp+0x4],eax
00001AB5  8B45F4            mov eax,[ebp-0xc]
00001AB8  890424            mov [esp],eax
00001ABB  E857000000        call 0x1b17
00001AC0  C9                leave
00001AC1  C3                ret
00001AC2  55                push ebp
00001AC3  89E5              mov ebp,esp
00001AC5  B8FFFFFF1F        mov eax,0x1fffffff
00001ACA  5D                pop ebp
00001ACB  C3                ret
00001ACC  55                push ebp
00001ACD  89E5              mov ebp,esp
00001ACF  83EC18            sub esp,byte +0x18
00001AD2  8B4508            mov eax,[ebp+0x8]
00001AD5  890424            mov [esp],eax
00001AD8  E87E000000        call 0x1b5b
00001ADD  8B5510            mov edx,[ebp+0x10]
00001AE0  89542408          mov [esp+0x8],edx
00001AE4  8B550C            mov edx,[ebp+0xc]
00001AE7  89542404          mov [esp+0x4],edx
00001AEB  890424            mov [esp],eax
00001AEE  E87B000000        call 0x1b6e
00001AF3  C9                leave
00001AF4  C3                ret
00001AF5  55                push ebp
00001AF6  89E5              mov ebp,esp
00001AF8  83EC18            sub esp,byte +0x18
00001AFB  8B4508            mov eax,[ebp+0x8]
00001AFE  8B550C            mov edx,[ebp+0xc]
00001B01  89542404          mov [esp+0x4],edx
00001B05  890424            mov [esp],eax
00001B08  E89D000000        call 0x1baa
00001B0D  83EC04            sub esp,byte +0x4
00001B10  8B4508            mov eax,[ebp+0x8]
00001B13  C9                leave
00001B14  C20400            ret 0x4
00001B17  55                push ebp
00001B18  89E5              mov ebp,esp
00001B1A  56                push esi
00001B1B  53                push ebx
00001B1C  83EC10            sub esp,byte +0x10
00001B1F  8B4510            mov eax,[ebp+0x10]
00001B22  890424            mov [esp],eax
00001B25  E831000000        call 0x1b5b
00001B2A  89C6              mov esi,eax
00001B2C  8B450C            mov eax,[ebp+0xc]
00001B2F  890424            mov [esp],eax
00001B32  E885000000        call 0x1bbc
00001B37  89C3              mov ebx,eax
00001B39  8B4508            mov eax,[ebp+0x8]
00001B3C  890424            mov [esp],eax
00001B3F  E878000000        call 0x1bbc
00001B44  89742408          mov [esp+0x8],esi
00001B48  895C2404          mov [esp+0x4],ebx
00001B4C  890424            mov [esp],eax
00001B4F  E87B000000        call 0x1bcf
00001B54  83C410            add esp,byte +0x10
00001B57  5B                pop ebx
00001B58  5E                pop esi
00001B59  5D                pop ebp
00001B5A  C3                ret
00001B5B  55                push ebp
00001B5C  89E5              mov ebp,esp
00001B5E  83EC18            sub esp,byte +0x18
00001B61  8B4508            mov eax,[ebp+0x8]
00001B64  890424            mov [esp],eax
00001B67  E888000000        call 0x1bf4
00001B6C  C9                leave
00001B6D  C3                ret
00001B6E  55                push ebp
00001B6F  89E5              mov ebp,esp
00001B71  83EC10            sub esp,byte +0x10
00001B74  8B4510            mov eax,[ebp+0x10]
00001B77  8B5004            mov edx,[eax+0x4]
00001B7A  8B00              mov eax,[eax]
00001B7C  8945F0            mov [ebp-0x10],eax
00001B7F  8955F4            mov [ebp-0xc],edx
00001B82  8B450C            mov eax,[ebp+0xc]
00001B85  8945FC            mov [ebp-0x4],eax
00001B88  EB15              jmp short 0x1b9f
00001B8A  8B4D08            mov ecx,[ebp+0x8]
00001B8D  8B45F0            mov eax,[ebp-0x10]
00001B90  8B55F4            mov edx,[ebp-0xc]
00001B93  8901              mov [ecx],eax
00001B95  895104            mov [ecx+0x4],edx
00001B98  FF4DFC            dec dword [ebp-0x4]
00001B9B  83450808          add dword [ebp+0x8],byte +0x8
00001B9F  837DFC00          cmp dword [ebp-0x4],byte +0x0
00001BA3  75E5              jnz 0x1b8a
00001BA5  8B4508            mov eax,[ebp+0x8]
00001BA8  C9                leave
00001BA9  C3                ret
00001BAA  55                push ebp
00001BAB  89E5              mov ebp,esp
00001BAD  8B4508            mov eax,[ebp+0x8]
00001BB0  8B550C            mov edx,[ebp+0xc]
00001BB3  8910              mov [eax],edx
00001BB5  8B4508            mov eax,[ebp+0x8]
00001BB8  5D                pop ebp
00001BB9  C20400            ret 0x4
00001BBC  55                push ebp
00001BBD  89E5              mov ebp,esp
00001BBF  83EC18            sub esp,byte +0x18
00001BC2  8B4508            mov eax,[ebp+0x8]
00001BC5  890424            mov [esp],eax
00001BC8  E82F000000        call 0x1bfc
00001BCD  C9                leave
00001BCE  C3                ret
00001BCF  55                push ebp
00001BD0  89E5              mov ebp,esp
00001BD2  83EC28            sub esp,byte +0x28
00001BD5  C645F701          mov byte [ebp-0x9],0x1
00001BD9  8B4510            mov eax,[ebp+0x10]
00001BDC  89442408          mov [esp+0x8],eax
00001BE0  8B450C            mov eax,[ebp+0xc]
00001BE3  89442404          mov [esp+0x4],eax
00001BE7  8B4508            mov eax,[ebp+0x8]
00001BEA  890424            mov [esp],eax
00001BED  E81F000000        call 0x1c11
00001BF2  C9                leave
00001BF3  C3                ret
00001BF4  55                push ebp
00001BF5  89E5              mov ebp,esp
00001BF7  8B4508            mov eax,[ebp+0x8]
00001BFA  5D                pop ebp
00001BFB  C3                ret
00001BFC  55                push ebp
00001BFD  89E5              mov ebp,esp
00001BFF  83EC18            sub esp,byte +0x18
00001C02  8D4508            lea eax,[ebp+0x8]
00001C05  890424            mov [esp],eax
00001C08  E84D000000        call 0x1c5a
00001C0D  8B00              mov eax,[eax]
00001C0F  C9                leave
00001C10  C3                ret
00001C11  55                push ebp
00001C12  89E5              mov ebp,esp
00001C14  83EC28            sub esp,byte +0x28
00001C17  8B550C            mov edx,[ebp+0xc]
00001C1A  8B4508            mov eax,[ebp+0x8]
00001C1D  29C2              sub edx,eax
00001C1F  89D0              mov eax,edx
00001C21  C1F803            sar eax,0x3
00001C24  8945F4            mov [ebp-0xc],eax
00001C27  837DF400          cmp dword [ebp-0xc],byte +0x0
00001C2B  741C              jz 0x1c49
00001C2D  8B45F4            mov eax,[ebp-0xc]
00001C30  C1E003            shl eax,0x3
00001C33  89442408          mov [esp+0x8],eax
00001C37  8B4508            mov eax,[ebp+0x8]
00001C3A  89442404          mov [esp+0x4],eax
00001C3E  8B4510            mov eax,[ebp+0x10]
00001C41  890424            mov [esp],eax
00001C44  E817ECFFFF        call 0x100000860
00001C49  8B45F4            mov eax,[ebp-0xc]
00001C4C  8D14C500000000    lea edx,[eax*8+0x0]
00001C53  8B4510            mov eax,[ebp+0x10]
00001C56  01D0              add eax,edx
00001C58  C9                leave
00001C59  C3                ret
00001C5A  55                push ebp
00001C5B  89E5              mov ebp,esp
00001C5D  8B4508            mov eax,[ebp+0x8]
00001C60  5D                pop ebp
00001C61  C3                ret
00001C62  6690              o16 nop
00001C64  6690              o16 nop
00001C66  6690              o16 nop
00001C68  6690              o16 nop
00001C6A  6690              o16 nop
00001C6C  6690              o16 nop
00001C6E  6690              o16 nop
00001C70  55                push ebp
00001C71  89E5              mov ebp,esp
00001C73  5D                pop ebp
00001C74  C3                ret
00001C75  66                db 0x66
00001C76  66                db 0x66
00001C77  2E                db 0x2E
00001C78  0F                db 0x0F
00001C79  1F                pop ds
00001C7A  8400              test [eax],al
00001C7C  0000              add [eax],al
00001C7E  0000              add [eax],al
00001C80  55                push ebp
00001C81  89E5              mov ebp,esp
00001C83  57                push edi
00001C84  56                push esi
00001C85  53                push ebx
00001C86  E84F000000        call 0x1cda
00001C8B  81C39D1B0000      add ebx,0x1b9d
00001C91  83EC1C            sub esp,byte +0x1c
00001C94  E8F3EAFFFF        call 0x10000078c
00001C99  8DBB08FFFFFF      lea edi,[ebx+0xffffff08]
00001C9F  8D8308FFFFFF      lea eax,[ebx+0xffffff08]
00001CA5  29C7              sub edi,eax
00001CA7  C1FF02            sar edi,0x2
00001CAA  85FF              test edi,edi
00001CAC  7424              jz 0x1cd2
00001CAE  31F6              xor esi,esi
00001CB0  8B4510            mov eax,[ebp+0x10]
00001CB3  89442408          mov [esp+0x8],eax
00001CB7  8B450C            mov eax,[ebp+0xc]
00001CBA  89442404          mov [esp+0x4],eax
00001CBE  8B4508            mov eax,[ebp+0x8]
00001CC1  890424            mov [esp],eax
00001CC4  FF94B308FFFFFF    call near [ebx+esi*4+0xffffff08]
00001CCB  83C601            add esi,byte +0x1
00001CCE  39FE              cmp esi,edi
00001CD0  72DE              jc 0x1cb0
00001CD2  83C41C            add esp,byte +0x1c
00001CD5  5B                pop ebx
00001CD6  5E                pop esi
00001CD7  5F                pop edi
00001CD8  5D                pop ebp
00001CD9  C3                ret
00001CDA  8B1C24            mov ebx,[esp]
00001CDD  C3                ret
00001CDE  6690              o16 nop
00001CE0  55                push ebp
00001CE1  89E5              mov ebp,esp
00001CE3  53                push ebx
00001CE4  52                push edx
00001CE5  BB30B70408        mov ebx,0x804b730
00001CEA  A130B70408        mov eax,[0x804b730]
00001CEF  83F8FF            cmp eax,byte -0x1
00001CF2  7410              jz 0x1d04
00001CF4  8D742600          lea esi,[esi+0x0]
00001CF8  83EB04            sub ebx,byte +0x4
00001CFB  FFD0              call eax
00001CFD  8B03              mov eax,[ebx]
00001CFF  83F8FF            cmp eax,byte -0x1
00001D02  75F4              jnz 0x1cf8
00001D04  58                pop eax
00001D05  5B                pop ebx
00001D06  5D                pop ebp
00001D07  C3                ret
00001D08  55                push ebp
00001D09  89E5              mov ebp,esp
00001D0B  53                push ebx
00001D0C  83EC04            sub esp,byte +0x4
00001D0F  E800000000        call 0x1d14
00001D14  5B                pop ebx
00001D15  81C3141B0000      add ebx,0x1b14
00001D1B  E880ECFFFF        call 0x1000009a0
00001D20  59                pop ecx
00001D21  5B                pop ebx
00001D22  C9                leave
00001D23  C3                ret
00001D24  0300              add eax,[eax]
00001D26  0000              add [eax],al
00001D28  0100              add [eax],eax
00001D2A  0200              add al,[eax]
00001D2C  632E              arpl [esi],bp
00001D2E  696E00632E6F75    imul ebp,[esi+0x0],dword 0x756f2e63
00001D35  7400              jz 0x1d37
00001D37  43                inc ebx
00001D38  61                popa
00001D39  7365              jnc 0x1da0
00001D3B  2023              and [ebx],ah
00001D3D  003A              add [edx],bh
00001D3F  2000              and [eax],al
00001D41  0000              add [eax],al
00001D43  0001              add [ecx],al
00001D45  1B03              sbb eax,[ebx]
00001D47  3BC0              cmp eax,eax
00001D49  0100              add [eax],eax
00001D4B  0037              add [edi],dh
00001D4D  0000              add [eax],al
00001D4F  007CEAFF          add [edx+ebp*8-0x1],bh
00001D53  FF                db 0xFF
00001D54  DC01              fadd qword [ecx]
00001D56  0000              add [eax],al
00001D58  DCEC              fsub to st4
00001D5A  FF                db 0xFF
00001D5B  FF4002            inc dword [eax+0x2]
00001D5E  0000              add [eax],al
00001D60  65F7FF            gs idiv edi
00001D63  FF00              inc dword [eax]
00001D65  0200              add al,[eax]
00001D67  0072F7            add [edx-0x9],dh
00001D6A  FF                db 0xFF
00001D6B  FF740200          push dword [edx+eax+0x0]
00001D6F  0086F7FFFF94      add [esi+0x94fffff7],al
00001D75  0200              add al,[eax]
00001D77  009AF7FFFFB4      add [edx+0xb4fffff7],bl
00001D7D  0200              add al,[eax]
00001D7F  00F2              add dl,dh
00001D81  F7FF              idiv edi
00001D83  FF                db 0xFF
00001D84  DC02              fadd qword [edx]
00001D86  0000              add [eax],al
00001D88  4A                dec edx
00001D89  F8                clc
00001D8A  FF                db 0xFF
00001D8B  FF0403            inc dword [ebx+eax]
00001D8E  0000              add [eax],al
00001D90  5C                pop esp
00001D91  F8                clc
00001D92  FF                db 0xFF
00001D93  FF2403            jmp near [ebx+eax]
00001D96  0000              add [eax],al
00001D98  13F9              adc edi,ecx
00001D9A  FF                db 0xFF
00001D9B  FF5003            call near [eax+0x3]
00001D9E  0000              add [eax],al
00001DA0  3EF9              ds stc
00001DA2  FF                db 0xFF
00001DA3  FF740300          push dword [ebx+eax+0x0]
00001DA7  006AF9            add [edx-0x7],ch
00001DAA  FF                db 0xFF
00001DAB  FF9803000070      call far [eax+0x70000003]
00001DB1  F9                stc
00001DB2  FF                db 0xFF
00001DB3  FF                db 0xFF
00001DB4  B803000076        mov eax,0x76000003
00001DB9  F9                stc
00001DBA  FF                db 0xFF
00001DBB  FF                db 0xFF
00001DBC  D803              fadd dword [ebx]
00001DBE  0000              add [eax],al
00001DC0  8AF9              mov bh,cl
00001DC2  FF                db 0xFF
00001DC3  FF                db 0xFF
00001DC4  F8                clc
00001DC5  0300              add eax,[eax]
00001DC7  00D4              add ah,dl
00001DC9  F9                stc
00001DCA  FF                db 0xFF
00001DCB  FF20              jmp near [eax]
00001DCD  0400              add al,0x0
00001DCF  0034FA            add [edx+edi*8],dh
00001DD2  FF                db 0xFF
00001DD3  FF4804            dec dword [eax+0x4]
00001DD6  0000              add [eax],al
00001DD8  72FA              jc 0x1dd4
00001DDA  FF                db 0xFF
00001DDB  FF6804            jmp far [eax+0x4]
00001DDE  0000              add [eax],al
00001DE0  7AFA              jpe 0x1ddc
00001DE2  FF                db 0xFF
00001DE3  FF8804000094      dec dword [eax+0x94000004]
00001DE9  FA                cli
00001DEA  FF                db 0xFF
00001DEB  FFA8040000AD      jmp far [eax+0xad000004]
00001DF1  FA                cli
00001DF2  FF                db 0xFF
00001DF3  FFC8              dec eax
00001DF5  0400              add al,0x0
00001DF7  00B6FAFFFFE8      add [esi+0xe8fffffa],dh
00001DFD  0400              add al,0x0
00001DFF  00BEFAFFFF08      add [esi+0x8fffffa],bh
00001E05  050000E6FA        add eax,0xfae60000
00001E0A  FF                db 0xFF
00001E0B  FF28              jmp far [eax]
00001E0D  0500000EFB        add eax,0xfb0e0000
00001E12  FF                db 0xFF
00001E13  FF4805            dec dword [eax+0x5]
00001E16  0000              add [eax],al
00001E18  30FB              xor bl,bh
00001E1A  FF                db 0xFF
00001E1B  FF6805            jmp far [eax+0x5]
00001E1E  0000              add [eax],al
00001E20  68FBFFFF88        push dword 0x88fffffb
00001E25  050000A6FB        add eax,0xfba60000
00001E2A  FF                db 0xFF
00001E2B  FFA8050000CD      jmp far [eax+0xcd000005]
00001E31  FB                sti
00001E32  FF                db 0xFF
00001E33  FFC8              dec eax
00001E35  050000EEFB        add eax,0xfbee0000
00001E3A  FF                db 0xFF
00001E3B  FF                db 0xFF
00001E3C  E805000008        call 0x8001e46
00001E41  FC                cld
00001E42  FF                db 0xFF
00001E43  FF08              dec dword [eax]
00001E45  06                push es
00001E46  0000              add [eax],al
00001E48  17                pop ss
00001E49  FC                cld
00001E4A  FF                db 0xFF
00001E4B  FF28              jmp far [eax]
00001E4D  06                push es
00001E4E  0000              add [eax],al
00001E50  38FC              cmp ah,bh
00001E52  FF                db 0xFF
00001E53  FF4806            dec dword [eax+0x6]
00001E56  0000              add [eax],al
00001E58  52                push edx
00001E59  FC                cld
00001E5A  FF                db 0xFF
00001E5B  FF6806            jmp far [eax+0x6]
00001E5E  0000              add [eax],al
00001E60  82                db 0x82
00001E61  FC                cld
00001E62  FF                db 0xFF
00001E63  FF8806000095      dec dword [eax+0x95000006]
00001E69  FC                cld
00001E6A  FF                db 0xFF
00001E6B  FFA8060000B6      jmp far [eax+0xb6000006]
00001E71  FC                cld
00001E72  FF                db 0xFF
00001E73  FFC8              dec eax
00001E75  06                push es
00001E76  0000              add [eax],al
00001E78  BBFCFFFFE8        mov ebx,0xe8fffffc
00001E7D  06                push es
00001E7E  0000              add [eax],al
00001E80  DCFC              fdiv to st4
00001E82  FF                db 0xFF
00001E83  FF08              dec dword [eax]
00001E85  07                pop es
00001E86  0000              add [eax],al
00001E88  E2FC              loop 0x1e86
00001E8A  FF                db 0xFF
00001E8B  FF28              jmp far [eax]
00001E8D  07                pop es
00001E8E  0000              add [eax],al
00001E90  12FD              adc bh,ch
00001E92  FF                db 0xFF
00001E93  FF4807            dec dword [eax+0x7]
00001E96  0000              add [eax],al
00001E98  33FD              xor edi,ebp
00001E9A  FF                db 0xFF
00001E9B  FF6807            jmp far [eax+0x7]
00001E9E  0000              add [eax],al
00001EA0  7EFD              jng 0x1e9f
00001EA2  FF                db 0xFF
00001EA3  FF8807000088      dec dword [eax+0x88000007]
00001EA9  FD                std
00001EAA  FF                db 0xFF
00001EAB  FFA8070000B1      jmp far [eax+0xb1000007]
00001EB1  FD                std
00001EB2  FF                db 0xFF
00001EB3  FFC8              dec eax
00001EB5  07                pop es
00001EB6  0000              add [eax],al
00001EB8  D3FD              sar ebp,cl
00001EBA  FF                db 0xFF
00001EBB  FF                db 0xFF
00001EBC  E807000017        call 0x17001ec8
00001EC1  FE                db 0xFE
00001EC2  FF                db 0xFF
00001EC3  FF10              call near [eax]
00001EC5  0800              or [eax],al
00001EC7  002A              add [edx],ch
00001EC9  FE                db 0xFE
00001ECA  FF                db 0xFF
00001ECB  FF30              push dword [eax]
00001ECD  0800              or [eax],al
00001ECF  0066FE            add [esi-0x2],ah
00001ED2  FF                db 0xFF
00001ED3  FF5008            call near [eax+0x8]
00001ED6  0000              add [eax],al
00001ED8  78FE              js 0x1ed8
00001EDA  FF                db 0xFF
00001EDB  FF7008            push dword [eax+0x8]
00001EDE  0000              add [eax],al
00001EE0  8BFE              mov edi,esi
00001EE2  FF                db 0xFF
00001EE3  FF90080000B0      call near [eax+0xb0000008]
00001EE9  FE                db 0xFE
00001EEA  FF                db 0xFF
00001EEB  FFB0080000B8      push dword [eax+0xb8000008]
00001EF1  FE                db 0xFE
00001EF2  FF                db 0xFF
00001EF3  FFD0              call eax
00001EF5  0800              or [eax],al
00001EF7  00CD              add ch,cl
00001EF9  FE                db 0xFE
00001EFA  FF                db 0xFF
00001EFB  FFF0              push eax
00001EFD  0800              or [eax],al
00001EFF  0016              add [esi],dl
00001F01  FF                db 0xFF
00001F02  FF                db 0xFF
00001F03  FF10              call near [eax]
00001F05  0900              or [eax],eax
00001F07  001400            add [eax+eax],dl
00001F0A  0000              add [eax],al
00001F0C  0000              add [eax],al
00001F0E  0000              add [eax],al
00001F10  017A52            add [edx+0x52],edi
00001F13  0001              add [ecx],al
00001F15  7C08              jl 0x1f1f
00001F17  011B              add [ebx],ebx
00001F19  0C04              or al,0x4
00001F1B  0488              add al,0x88
00001F1D  0100              add [eax],eax
00001F1F  0020              add [eax],ah
00001F21  0000              add [eax],al
00001F23  001C00            add [eax+eax],bl
00001F26  0000              add [eax],al
00001F28  98                cwde
00001F29  E8FFFF4001        call 0x1411f2d
00001F2E  0000              add [eax],al
00001F30  000E              add [esi],cl
00001F32  08460E            or [esi+0xe],al
00001F35  0C4A              or al,0x4a
00001F37  0F0B              ud2
00001F39  7404              jz 0x1f3f
00001F3B  7800              js 0x1f3d
00001F3D  3F                aas
00001F3E  1A3B              sbb bh,[ebx]
00001F40  2A32              sub dh,[edx]
00001F42  2422              and al,0x22
00001F44  1C00              sbb al,0x0
00001F46  0000              add [eax],al
00001F48  40                inc eax
00001F49  0000              add [eax],al
00001F4B  005DF5            add [ebp-0xb],bl
00001F4E  FF                db 0xFF
00001F4F  FF0D00000000      dec dword [0x0]
00001F55  41                inc ecx
00001F56  0E                push cs
00001F57  088502420D05      or [ebp+0x50d4202],al
00001F5D  49                dec ecx
00001F5E  C50C04            lds ecx,[esp+eax]
00001F61  0400              add al,0x0
00001F63  001C00            add [eax+eax],bl
00001F66  0000              add [eax],al
00001F68  0000              add [eax],al
00001F6A  0000              add [eax],al
00001F6C  017A50            add [edx+0x50],edi
00001F6F  4C                dec esp
00001F70  52                push edx
00001F71  0001              add [ecx],al
00001F73  7C08              jl 0x1f7d
00001F75  07                pop es
00001F76  00E0              add al,ah
00001F78  880408            mov [eax+ecx],al
00001F7B  001B              add [ebx],bl
00001F7D  0C04              or al,0x4
00001F7F  0488              add al,0x88
00001F81  0100              add [eax],eax
00001F83  0030              add [eax],dh
00001F85  0000              add [eax],al
00001F87  002400            add [eax+eax],ah
00001F8A  0000              add [eax],al
00001F8C  94                xchg eax,esp
00001F8D  EAFFFF890A0000    jmp 0x0:0xa89ffff
00001F94  0478              add al,0x78
00001F96  A6                cmpsb
00001F97  0408              add al,0x8
00001F99  41                inc ecx
00001F9A  0E                push cs
00001F9B  088502420D05      or [ebp+0x50d4202],al
00001FA1  4C                dec esp
00001FA2  8703              xchg eax,[ebx]
00001FA4  860483            xchg al,[ebx+eax*4]
00001FA7  0503760AC3        add eax,0xc30a7603
00001FAC  41                inc ecx
00001FAD  C641C741          mov byte [ecx-0x39],0x41
00001FB1  C50C04            lds ecx,[esp+eax]
00001FB4  0400              add al,0x0
00001FB6  0000              add [eax],al
00001FB8  1C00              sbb al,0x0
00001FBA  0000              add [eax],al
00001FBC  B400              mov ah,0x0
00001FBE  0000              add [eax],al
00001FC0  F6F4              div ah
00001FC2  FF                db 0xFF
00001FC3  FF13              call near [ebx]
00001FC5  0000              add [eax],al
00001FC7  0000              add [eax],al
00001FC9  41                inc ecx
00001FCA  0E                push cs
00001FCB  088502420D05      or [ebp+0x50d4202],al
00001FD1  4F                dec edi
00001FD2  C50C04            lds ecx,[esp+eax]
00001FD5  0400              add al,0x0
00001FD7  001C00            add [eax+eax],bl
00001FDA  0000              add [eax],al
00001FDC  D400              aam 0x0
00001FDE  0000              add [eax],al
00001FE0  EAF4FFFF130000    jmp 0x0:0x13fffff4
00001FE7  0000              add [eax],al
00001FE9  41                inc ecx
00001FEA  0E                push cs
00001FEB  088502420D05      or [ebp+0x50d4202],al
00001FF1  4F                dec edi
00001FF2  C50C04            lds ecx,[esp+eax]
00001FF5  0400              add al,0x0
00001FF7  002400            add [eax+eax],ah
00001FFA  0000              add [eax],al
00001FFC  98                cwde
00001FFD  0000              add [eax],al
00001FFF  00DE              add dh,bl
00002001  F4                hlt
00002002  FF                db 0xFF
00002003  FF5800            call far [eax+0x0]
00002006  0000              add [eax],al
00002008  04E6              add al,0xe6
0000200A  A6                cmpsb
0000200B  0408              add al,0x8
0000200D  41                inc ecx
0000200E  0E                push cs
0000200F  088502420D05      or [ebp+0x50d4202],al
00002015  44                inc esp
00002016  830302            add dword [ebx],byte +0x2
00002019  4F                dec edi
0000201A  C3                ret
0000201B  41                inc ecx
0000201C  C50C04            lds ecx,[esp+eax]
0000201F  0424              add al,0x24
00002021  0000              add [eax],al
00002023  00C0              add al,al
00002025  0000              add [eax],al
00002027  000E              add [esi],cl
00002029  F5                cmc
0000202A  FF                db 0xFF
0000202B  FF5700            call near [edi+0x0]
0000202E  0000              add [eax],al
00002030  04F6              add al,0xf6
00002032  A6                cmpsb
00002033  0408              add al,0x8
00002035  41                inc ecx
00002036  0E                push cs
00002037  088502420D05      or [ebp+0x50d4202],al
0000203D  44                inc esp
0000203E  830302            add dword [ebx],byte +0x2
00002041  4E                dec esi
00002042  C3                ret
00002043  41                inc ecx
00002044  C50C04            lds ecx,[esp+eax]
00002047  041C              add al,0x1c
00002049  0000              add [eax],al
0000204B  00440100          add [ecx+eax+0x0],al
0000204F  003E              add [esi],bh
00002051  F5                cmc
00002052  FF                db 0xFF
00002053  FF12              call near [edx]
00002055  0000              add [eax],al
00002057  0000              add [eax],al
00002059  41                inc ecx
0000205A  0E                push cs
0000205B  088502420D05      or [ebp+0x50d4202],al
00002061  4E                dec esi
00002062  C50C04            lds ecx,[esp+eax]
00002065  0400              add al,0x0
00002067  0028              add [eax],ch
00002069  0000              add [eax],al
0000206B  0008              add [eax],cl
0000206D  0100              add [eax],eax
0000206F  0030              add [eax],dh
00002071  F5                cmc
00002072  FF                db 0xFF
00002073  FFB700000004      push dword [edi+0x4000000]
00002079  06                push es
0000207A  A7                cmpsd
0000207B  0408              add al,0x8
0000207D  41                inc ecx
0000207E  0E                push cs
0000207F  088502420D05      or [ebp+0x50d4202],al
00002085  45                inc ebp
00002086  8603              xchg al,[ebx]
00002088  830402AC          add dword [edx+eax],byte -0x54
0000208C  C3                ret
0000208D  41                inc ecx
0000208E  C641C50C          mov byte [ecx-0x3b],0xc
00002092  0404              add al,0x4
00002094  2000              and [eax],al
00002096  0000              add [eax],al
00002098  90                nop
00002099  0100              add [eax],eax
0000209B  00BBF5FFFF2B      add [ebx+0x2bfffff5],bh
000020A1  0000              add [eax],al
000020A3  0000              add [eax],al
000020A5  41                inc ecx
000020A6  0E                push cs
000020A7  088502420D05      or [ebp+0x50d4202],al
000020AD  41                inc ecx
000020AE  830365            add dword [ebx],byte +0x65
000020B1  C3                ret
000020B2  41                inc ecx
000020B3  C50C04            lds ecx,[esp+eax]
000020B6  0400              add al,0x0
000020B8  2000              and [eax],al
000020BA  0000              add [eax],al
000020BC  B401              mov ah,0x1
000020BE  0000              add [eax],al
000020C0  C2F5FF            ret 0xfff5
000020C3  FF2B              jmp far [ebx]
000020C5  0000              add [eax],al
000020C7  0000              add [eax],al
000020C9  41                inc ecx
000020CA  0E                push cs
000020CB  088502420D05      or [ebp+0x50d4202],al
000020D1  41                inc ecx
000020D2  830365            add dword [ebx],byte +0x65
000020D5  C3                ret
000020D6  41                inc ecx
000020D7  C50C04            lds ecx,[esp+eax]
000020DA  0400              add al,0x0
000020DC  1C00              sbb al,0x0
000020DE  0000              add [eax],al
000020E0  D801              fadd dword [ecx]
000020E2  0000              add [eax],al
000020E4  CAF5FF            retf 0xfff5
000020E7  FF0500000000      inc dword [0x0]
000020ED  41                inc ecx
000020EE  0E                push cs
000020EF  088502420D05      or [ebp+0x50d4202],al
000020F5  41                inc ecx
000020F6  C50C04            lds ecx,[esp+eax]
000020F9  0400              add al,0x0
000020FB  001C00            add [eax+eax],bl
000020FE  0000              add [eax],al
00002100  F8                clc
00002101  0100              add [eax],eax
00002103  00B0F5FFFF05      add [eax+0x5fffff5],dh
00002109  0000              add [eax],al
0000210B  0000              add [eax],al
0000210D  41                inc ecx
0000210E  0E                push cs
0000210F  088502420D05      or [ebp+0x50d4202],al
00002115  41                inc ecx
00002116  C50C04            lds ecx,[esp+eax]
00002119  0400              add al,0x0
0000211B  001C00            add [eax+eax],bl
0000211E  0000              add [eax],al
00002120  1802              sbb [edx],al
00002122  0000              add [eax],al
00002124  96                xchg eax,esi
00002125  F5                cmc
00002126  FF                db 0xFF
00002127  FF13              call near [ebx]
00002129  0000              add [eax],al
0000212B  0000              add [eax],al
0000212D  41                inc ecx
0000212E  0E                push cs
0000212F  088502420D05      or [ebp+0x50d4202],al
00002135  4F                dec edi
00002136  C50C04            lds ecx,[esp+eax]
00002139  0400              add al,0x0
0000213B  002400            add [eax+eax],ah
0000213E  0000              add [eax],al
00002140  DC01              fadd qword [ecx]
00002142  0000              add [eax],al
00002144  8AF5              mov dh,ch
00002146  FF                db 0xFF
00002147  FF4A00            dec dword [edx+0x0]
0000214A  0000              add [eax],al
0000214C  0418              add al,0x18
0000214E  A7                cmpsd
0000214F  0408              add al,0x8
00002151  41                inc ecx
00002152  0E                push cs
00002153  088502420D05      or [ebp+0x50d4202],al
00002159  44                inc esp
0000215A  830302            add dword [ebx],byte +0x2
0000215D  41                inc ecx
0000215E  C3                ret
0000215F  41                inc ecx
00002160  C50C04            lds ecx,[esp+eax]
00002163  0424              add al,0x24
00002165  0000              add [eax],al
00002167  000402            add [edx+eax],al
0000216A  0000              add [eax],al
0000216C  AC                lodsb
0000216D  F5                cmc
0000216E  FF                db 0xFF
0000216F  FF5F00            call far [edi+0x0]
00002172  0000              add [eax],al
00002174  0424              add al,0x24
00002176  A7                cmpsd
00002177  0408              add al,0x8
00002179  41                inc ecx
0000217A  0E                push cs
0000217B  088502420D05      or [ebp+0x50d4202],al
00002181  44                inc esp
00002182  830302            add dword [ebx],byte +0x2
00002185  56                push esi
00002186  C3                ret
00002187  41                inc ecx
00002188  C50C04            lds ecx,[esp+eax]
0000218B  041C              add al,0x1c
0000218D  0000              add [eax],al
0000218F  0088020000E4      add [eax+0xe4000002],cl
00002195  F5                cmc
00002196  FF                db 0xFF
00002197  FF                db 0xFF
00002198  3E0000            add [ds:eax],al
0000219B  0000              add [eax],al
0000219D  41                inc ecx
0000219E  0E                push cs
0000219F  088502420D05      or [ebp+0x50d4202],al
000021A5  7AC5              jpe 0x216c
000021A7  0C04              or al,0x4
000021A9  0400              add al,0x0
000021AB  001C00            add [eax+eax],bl
000021AE  0000              add [eax],al
000021B0  A802              test al,0x2
000021B2  0000              add [eax],al
000021B4  02F6              add dh,dh
000021B6  FF                db 0xFF
000021B7  FF08              dec dword [eax]
000021B9  0000              add [eax],al
000021BB  0000              add [eax],al
000021BD  41                inc ecx
000021BE  0E                push cs
000021BF  088502420D05      or [ebp+0x50d4202],al
000021C5  44                inc esp
000021C6  C50C04            lds ecx,[esp+eax]
000021C9  0400              add al,0x0
000021CB  001C00            add [eax+eax],bl
000021CE  0000              add [eax],al
000021D0  C8020000          enter 0x2,0x0
000021D4  EAF5FFFF1A0000    jmp 0x0:0x1afffff5
000021DB  0000              add [eax],al
000021DD  41                inc ecx
000021DE  0E                push cs
000021DF  088502420D05      or [ebp+0x50d4202],al
000021E5  56                push esi
000021E6  C50C04            lds ecx,[esp+eax]
000021E9  0400              add al,0x0
000021EB  001C00            add [eax+eax],bl
000021EE  0000              add [eax],al
000021F0  E8020000E4        call 0xe40021f7
000021F5  F5                cmc
000021F6  FF                db 0xFF
000021F7  FF19              call far [ecx]
000021F9  0000              add [eax],al
000021FB  0000              add [eax],al
000021FD  41                inc ecx
000021FE  0E                push cs
000021FF  088502420D05      or [ebp+0x50d4202],al
00002205  55                push ebp
00002206  C50C04            lds ecx,[esp+eax]
00002209  0400              add al,0x0
0000220B  001C00            add [eax+eax],bl
0000220E  0000              add [eax],al
00002210  0803              or [ebx],al
00002212  0000              add [eax],al
00002214  DD                db 0xDD
00002215  F5                cmc
00002216  FF                db 0xFF
00002217  FF08              dec dword [eax]
00002219  0000              add [eax],al
0000221B  0000              add [eax],al
0000221D  41                inc ecx
0000221E  0E                push cs
0000221F  088502420D05      or [ebp+0x50d4202],al
00002225  44                inc esp
00002226  C50C04            lds ecx,[esp+eax]
00002229  0400              add al,0x0
0000222B  001C00            add [eax+eax],bl
0000222E  0000              add [eax],al
00002230  2803              sub [ebx],al
00002232  0000              add [eax],al
00002234  C6                db 0xC6
00002235  F5                cmc
00002236  FF                db 0xFF
00002237  FF08              dec dword [eax]
00002239  0000              add [eax],al
0000223B  0000              add [eax],al
0000223D  41                inc ecx
0000223E  0E                push cs
0000223F  088502420D05      or [ebp+0x50d4202],al
00002245  44                inc esp
00002246  C50C04            lds ecx,[esp+eax]
00002249  0400              add al,0x0
0000224B  001C00            add [eax+eax],bl
0000224E  0000              add [eax],al
00002250  48                dec eax
00002251  0300              add eax,[eax]
00002253  00AEF5FFFF27      add [esi+0x27fffff5],ch
00002259  0000              add [eax],al
0000225B  0000              add [eax],al
0000225D  41                inc ecx
0000225E  0E                push cs
0000225F  088502420D05      or [ebp+0x50d4202],al
00002265  61                popa
00002266  C50C04            lds ecx,[esp+eax]
00002269  0400              add al,0x0
0000226B  001C00            add [eax+eax],bl
0000226E  0000              add [eax],al
00002270  68030000B6        push dword 0xb6000003
00002275  F5                cmc
00002276  FF                db 0xFF
00002277  FF28              jmp far [eax]
00002279  0000              add [eax],al
0000227B  0000              add [eax],al
0000227D  41                inc ecx
0000227E  0E                push cs
0000227F  088502420D05      or [ebp+0x50d4202],al
00002285  62                db 0x62
00002286  C50C04            lds ecx,[esp+eax]
00002289  0400              add al,0x0
0000228B  001C00            add [eax+eax],bl
0000228E  0000              add [eax],al
00002290  8803              mov [ebx],al
00002292  0000              add [eax],al
00002294  BEF5FFFF21        mov esi,0x21fffff5
00002299  0000              add [eax],al
0000229B  0000              add [eax],al
0000229D  41                inc ecx
0000229E  0E                push cs
0000229F  088502420D05      or [ebp+0x50d4202],al
000022A5  5D                pop ebp
000022A6  C50C04            lds ecx,[esp+eax]
000022A9  0400              add al,0x0
000022AB  001C00            add [eax+eax],bl
000022AE  0000              add [eax],al
000022B0  A803              test al,0x3
000022B2  0000              add [eax],al
000022B4  C0                db 0xC0
000022B5  F5                cmc
000022B6  FF                db 0xFF
000022B7  FF37              push dword [edi]
000022B9  0000              add [eax],al
000022BB  0000              add [eax],al
000022BD  41                inc ecx
000022BE  0E                push cs
000022BF  088502420D05      or [ebp+0x50d4202],al
000022C5  73C5              jnc 0x228c
000022C7  0C04              or al,0x4
000022C9  0400              add al,0x0
000022CB  001C00            add [eax+eax],bl
000022CE  0000              add [eax],al
000022D0  C8030000          enter 0x3,0x0
000022D4  D8F5              fdiv st5
000022D6  FF                db 0xFF
000022D7  FF                db 0xFF
000022D8  3D00000000        cmp eax,0x0
000022DD  41                inc ecx
000022DE  0E                push cs
000022DF  088502420D05      or [ebp+0x50d4202],al
000022E5  79C5              jns 0x22ac
000022E7  0C04              or al,0x4
000022E9  0400              add al,0x0
000022EB  001C00            add [eax+eax],bl
000022EE  0000              add [eax],al
000022F0  E8030000F6        call 0xf60022f8
000022F5  F5                cmc
000022F6  FF                db 0xFF
000022F7  FF27              jmp near [edi]
000022F9  0000              add [eax],al
000022FB  0000              add [eax],al
000022FD  41                inc ecx
000022FE  0E                push cs
000022FF  088502420D05      or [ebp+0x50d4202],al
00002305  63C5              arpl bp,ax
00002307  0C04              or al,0x4
00002309  0400              add al,0x0
0000230B  001C00            add [eax+eax],bl
0000230E  0000              add [eax],al
00002310  080400            or [eax+eax],al
00002313  00FD              add ch,bh
00002315  F5                cmc
00002316  FF                db 0xFF
00002317  FF21              jmp near [ecx]
00002319  0000              add [eax],al
0000231B  0000              add [eax],al
0000231D  41                inc ecx
0000231E  0E                push cs
0000231F  088502420D05      or [ebp+0x50d4202],al
00002325  5D                pop ebp
00002326  C50C04            lds ecx,[esp+eax]
00002329  0400              add al,0x0
0000232B  001C00            add [eax+eax],bl
0000232E  0000              add [eax],al
00002330  280400            sub [eax+eax],al
00002333  00FE              add dh,bh
00002335  F5                cmc
00002336  FF                db 0xFF
00002337  FF1A              call far [edx]
00002339  0000              add [eax],al
0000233B  0000              add [eax],al
0000233D  41                inc ecx
0000233E  0E                push cs
0000233F  088502420D05      or [ebp+0x50d4202],al
00002345  56                push esi
00002346  C50C04            lds ecx,[esp+eax]
00002349  0400              add al,0x0
0000234B  001C00            add [eax+eax],bl
0000234E  0000              add [eax],al
00002350  48                dec eax
00002351  0400              add al,0x0
00002353  00F8              add al,bh
00002355  F5                cmc
00002356  FF                db 0xFF
00002357  FF0F              dec dword [edi]
00002359  0000              add [eax],al
0000235B  0000              add [eax],al
0000235D  41                inc ecx
0000235E  0E                push cs
0000235F  088502420D05      or [ebp+0x50d4202],al
00002365  4B                dec ebx
00002366  C50C04            lds ecx,[esp+eax]
00002369  0400              add al,0x0
0000236B  001C00            add [eax+eax],bl
0000236E  0000              add [eax],al
00002370  68040000E7        push dword 0xe7000004
00002375  F5                cmc
00002376  FF                db 0xFF
00002377  FF21              jmp near [ecx]
00002379  0000              add [eax],al
0000237B  0000              add [eax],al
0000237D  41                inc ecx
0000237E  0E                push cs
0000237F  088502420D05      or [ebp+0x50d4202],al
00002385  5D                pop ebp
00002386  C50C04            lds ecx,[esp+eax]
00002389  0400              add al,0x0
0000238B  001C00            add [eax+eax],bl
0000238E  0000              add [eax],al
00002390  880400            mov [eax+eax],al
00002393  00E8              add al,ch
00002395  F5                cmc
00002396  FF                db 0xFF
00002397  FF1A              call far [edx]
00002399  0000              add [eax],al
0000239B  0000              add [eax],al
0000239D  41                inc ecx
0000239E  0E                push cs
0000239F  088502420D05      or [ebp+0x50d4202],al
000023A5  56                push esi
000023A6  C50C04            lds ecx,[esp+eax]
000023A9  0400              add al,0x0
000023AB  001C00            add [eax+eax],bl
000023AE  0000              add [eax],al
000023B0  A804              test al,0x4
000023B2  0000              add [eax],al
000023B4  E2F5              loop 0x23ab
000023B6  FF                db 0xFF
000023B7  FF2F              jmp far [edi]
000023B9  0000              add [eax],al
000023BB  0000              add [eax],al
000023BD  41                inc ecx
000023BE  0E                push cs
000023BF  088502420D05      or [ebp+0x50d4202],al
000023C5  6BC50C            imul eax,ebp,byte +0xc
000023C8  0404              add al,0x4
000023CA  0000              add [eax],al
000023CC  1C00              sbb al,0x0
000023CE  0000              add [eax],al
000023D0  C8040000          enter 0x4,0x0
000023D4  F2F5              repne cmc
000023D6  FF                db 0xFF
000023D7  FF13              call near [ebx]
000023D9  0000              add [eax],al
000023DB  0000              add [eax],al
000023DD  41                inc ecx
000023DE  0E                push cs
000023DF  088502420D05      or [ebp+0x50d4202],al
000023E5  4F                dec edi
000023E6  C50C04            lds ecx,[esp+eax]
000023E9  0400              add al,0x0
000023EB  001C00            add [eax+eax],bl
000023EE  0000              add [eax],al
000023F0  E8040000E5        call 0xe50023f9
000023F5  F5                cmc
000023F6  FF                db 0xFF
000023F7  FF21              jmp near [ecx]
000023F9  0000              add [eax],al
000023FB  0000              add [eax],al
000023FD  41                inc ecx
000023FE  0E                push cs
000023FF  088502420D05      or [ebp+0x50d4202],al
00002405  5D                pop ebp
00002406  C50C04            lds ecx,[esp+eax]
00002409  0400              add al,0x0
0000240B  001C00            add [eax+eax],bl
0000240E  0000              add [eax],al
00002410  08050000E6F5      or [0xf5e60000],al
00002416  FF                db 0xFF
00002417  FF0500000000      inc dword [0x0]
0000241D  41                inc ecx
0000241E  0E                push cs
0000241F  088502420D05      or [ebp+0x50d4202],al
00002425  41                inc ecx
00002426  C50C04            lds ecx,[esp+eax]
00002429  0400              add al,0x0
0000242B  001C00            add [eax+eax],bl
0000242E  0000              add [eax],al
00002430  28050000CBF5      sub [0xf5cb0000],al
00002436  FF                db 0xFF
00002437  FF21              jmp near [ecx]
00002439  0000              add [eax],al
0000243B  0000              add [eax],al
0000243D  41                inc ecx
0000243E  0E                push cs
0000243F  088502420D05      or [ebp+0x50d4202],al
00002445  5D                pop ebp
00002446  C50C04            lds ecx,[esp+eax]
00002449  0400              add al,0x0
0000244B  001C00            add [eax+eax],bl
0000244E  0000              add [eax],al
00002450  48                dec eax
00002451  050000CCF5        add eax,0xf5cc0000
00002456  FF                db 0xFF
00002457  FF0500000000      inc dword [0x0]
0000245D  41                inc ecx
0000245E  0E                push cs
0000245F  088502420D05      or [ebp+0x50d4202],al
00002465  41                inc ecx
00002466  C50C04            lds ecx,[esp+eax]
00002469  0400              add al,0x0
0000246B  001C00            add [eax+eax],bl
0000246E  0000              add [eax],al
00002470  68050000B2        push dword 0xb2000005
00002475  F5                cmc
00002476  FF                db 0xFF
00002477  FF30              push dword [eax]
00002479  0000              add [eax],al
0000247B  0000              add [eax],al
0000247D  41                inc ecx
0000247E  0E                push cs
0000247F  088502420D05      or [ebp+0x50d4202],al
00002485  6C                insb
00002486  C50C04            lds ecx,[esp+eax]
00002489  0400              add al,0x0
0000248B  001C00            add [eax+eax],bl
0000248E  0000              add [eax],al
00002490  88050000C2F5      mov [0xf5c20000],al
00002496  FF                db 0xFF
00002497  FF21              jmp near [ecx]
00002499  0000              add [eax],al
0000249B  0000              add [eax],al
0000249D  41                inc ecx
0000249E  0E                push cs
0000249F  088502420D05      or [ebp+0x50d4202],al
000024A5  5D                pop ebp
000024A6  C50C04            lds ecx,[esp+eax]
000024A9  0400              add al,0x0
000024AB  001C00            add [eax+eax],bl
000024AE  0000              add [eax],al
000024B0  A805              test al,0x5
000024B2  0000              add [eax],al
000024B4  C3                ret
000024B5  F5                cmc
000024B6  FF                db 0xFF
000024B7  FF4B00            dec dword [ebx+0x0]
000024BA  0000              add [eax],al
000024BC  00410E            add [ecx+0xe],al
000024BF  088502420D05      or [ebp+0x50d4202],al
000024C5  0247C5            add al,[edi-0x3b]
000024C8  0C04              or al,0x4
000024CA  0400              add al,0x0
000024CC  1C00              sbb al,0x0
000024CE  0000              add [eax],al
000024D0  C8050000          enter 0x5,0x0
000024D4  EE                out dx,al
000024D5  F5                cmc
000024D6  FF                db 0xFF
000024D7  FF0A              dec dword [edx]
000024D9  0000              add [eax],al
000024DB  0000              add [eax],al
000024DD  41                inc ecx
000024DE  0E                push cs
000024DF  088502420D05      or [ebp+0x50d4202],al
000024E5  46                inc esi
000024E6  C50C04            lds ecx,[esp+eax]
000024E9  0400              add al,0x0
000024EB  001C00            add [eax+eax],bl
000024EE  0000              add [eax],al
000024F0  E8050000D8        call 0xd80024fa
000024F5  F5                cmc
000024F6  FF                db 0xFF
000024F7  FF29              jmp far [ecx]
000024F9  0000              add [eax],al
000024FB  0000              add [eax],al
000024FD  41                inc ecx
000024FE  0E                push cs
000024FF  088502420D05      or [ebp+0x50d4202],al
00002505  65C50C04          lds ecx,[gs:esp+eax]
00002509  0400              add al,0x0
0000250B  001C00            add [eax+eax],bl
0000250E  0000              add [eax],al
00002510  0806              or [esi],al
00002512  0000              add [eax],al
00002514  E1F5              loope 0x250b
00002516  FF                db 0xFF
00002517  FF22              jmp near [edx]
00002519  0000              add [eax],al
0000251B  0000              add [eax],al
0000251D  41                inc ecx
0000251E  0E                push cs
0000251F  088502420D05      or [ebp+0x50d4202],al
00002525  5C                pop esp
00002526  C50C04            lds ecx,[esp+eax]
00002529  0400              add al,0x0
0000252B  002400            add [eax+eax],ah
0000252E  0000              add [eax],al
00002530  2806              sub [esi],al
00002532  0000              add [eax],al
00002534  E3F5              jecxz 0x252b
00002536  FF                db 0xFF
00002537  FF440000          inc dword [eax+eax+0x0]
0000253B  0000              add [eax],al
0000253D  41                inc ecx
0000253E  0E                push cs
0000253F  088502420D05      or [ebp+0x50d4202],al
00002545  45                inc ebp
00002546  8603              xchg al,[ebx]
00002548  830479C3          add dword [ecx+edi*2],byte -0x3d
0000254C  41                inc ecx
0000254D  C641C50C          mov byte [ecx-0x3b],0xc
00002551  0404              add al,0x4
00002553  001C00            add [eax+eax],bl
00002556  0000              add [eax],al
00002558  50                push eax
00002559  06                push es
0000255A  0000              add [eax],al
0000255C  FFF5              push ebp
0000255E  FF                db 0xFF
0000255F  FF13              call near [ebx]
00002561  0000              add [eax],al
00002563  0000              add [eax],al
00002565  41                inc ecx
00002566  0E                push cs
00002567  088502420D05      or [ebp+0x50d4202],al
0000256D  4F                dec edi
0000256E  C50C04            lds ecx,[esp+eax]
00002571  0400              add al,0x0
00002573  001C00            add [eax+eax],bl
00002576  0000              add [eax],al
00002578  7006              jo 0x2580
0000257A  0000              add [eax],al
0000257C  F2F5              repne cmc
0000257E  FF                db 0xFF
0000257F  FF                db 0xFF
00002580  3C00              cmp al,0x0
00002582  0000              add [eax],al
00002584  00410E            add [ecx+0xe],al
00002587  088502420D05      or [ebp+0x50d4202],al
0000258D  78C5              js 0x2554
0000258F  0C04              or al,0x4
00002591  0400              add al,0x0
00002593  001C00            add [eax+eax],bl
00002596  0000              add [eax],al
00002598  90                nop
00002599  06                push es
0000259A  0000              add [eax],al
0000259C  0E                push cs
0000259D  F6FF              idiv bh
0000259F  FF12              call near [edx]
000025A1  0000              add [eax],al
000025A3  0000              add [eax],al
000025A5  41                inc ecx
000025A6  0E                push cs
000025A7  088502420D05      or [ebp+0x50d4202],al
000025AD  4C                dec esp
000025AE  C50C04            lds ecx,[esp+eax]
000025B1  0400              add al,0x0
000025B3  001C00            add [eax+eax],bl
000025B6  0000              add [eax],al
000025B8  B006              mov al,0x6
000025BA  0000              add [eax],al
000025BC  00F6              add dh,dh
000025BE  FF                db 0xFF
000025BF  FF13              call near [ebx]
000025C1  0000              add [eax],al
000025C3  0000              add [eax],al
000025C5  41                inc ecx
000025C6  0E                push cs
000025C7  088502420D05      or [ebp+0x50d4202],al
000025CD  4F                dec edi
000025CE  C50C04            lds ecx,[esp+eax]
000025D1  0400              add al,0x0
000025D3  001C00            add [eax+eax],bl
000025D6  0000              add [eax],al
000025D8  D006              rol byte [esi],1
000025DA  0000              add [eax],al
000025DC  F3F5              rep cmc
000025DE  FF                db 0xFF
000025DF  FF2500000000      jmp near [0x0]
000025E5  41                inc ecx
000025E6  0E                push cs
000025E7  088502420D05      or [ebp+0x50d4202],al
000025ED  61                popa
000025EE  C50C04            lds ecx,[esp+eax]
000025F1  0400              add al,0x0
000025F3  001C00            add [eax+eax],bl
000025F6  0000              add [eax],al
000025F8  F006              lock push es
000025FA  0000              add [eax],al
000025FC  F8                clc
000025FD  F5                cmc
000025FE  FF                db 0xFF
000025FF  FF08              dec dword [eax]
00002601  0000              add [eax],al
00002603  0000              add [eax],al
00002605  41                inc ecx
00002606  0E                push cs
00002607  088502420D05      or [ebp+0x50d4202],al
0000260D  44                inc esp
0000260E  C50C04            lds ecx,[esp+eax]
00002611  0400              add al,0x0
00002613  001C00            add [eax+eax],bl
00002616  0000              add [eax],al
00002618  1007              adc [edi],al
0000261A  0000              add [eax],al
0000261C  E0F5              loopne 0x2613
0000261E  FF                db 0xFF
0000261F  FF1500000000      call near [0x0]
00002625  41                inc ecx
00002626  0E                push cs
00002627  088502420D05      or [ebp+0x50d4202],al
0000262D  51                push ecx
0000262E  C50C04            lds ecx,[esp+eax]
00002631  0400              add al,0x0
00002633  001C00            add [eax+eax],bl
00002636  0000              add [eax],al
00002638  3007              xor [edi],al
0000263A  0000              add [eax],al
0000263C  D5F5              aad 0xf5
0000263E  FF                db 0xFF
0000263F  FF4900            dec dword [ecx+0x0]
00002642  0000              add [eax],al
00002644  00410E            add [ecx+0xe],al
00002647  088502420D05      or [ebp+0x50d4202],al
0000264D  0245C5            add al,[ebp-0x3b]
00002650  0C04              or al,0x4
00002652  0400              add al,0x0
00002654  1C00              sbb al,0x0
00002656  0000              add [eax],al
00002658  50                push eax
00002659  07                pop es
0000265A  0000              add [eax],al
0000265C  FE                db 0xFE
0000265D  F5                cmc
0000265E  FF                db 0xFF
0000265F  FF08              dec dword [eax]
00002661  0000              add [eax],al
00002663  0000              add [eax],al
00002665  41                inc ecx
00002666  0E                push cs
00002667  088502420D05      or [ebp+0x50d4202],al
0000266D  44                inc esp
0000266E  C50C04            lds ecx,[esp+eax]
00002671  0400              add al,0x0
00002673  0000              add [eax],al
00002675  0000              add [eax],al
00002677  00FF              add bh,bh
00002679  FF01              inc dword [ecx]
0000267B  6A29              push byte +0x29
0000267D  05F9140055        add eax,0x550014f9
00002682  05E414006F        add eax,0x6f0014e4
00002687  05D4140099        add eax,0x990014d4
0000268C  011A              add [edx],ebx
0000268E  D01400            rcl byte [eax+eax],1
00002691  8502              test [edx],eax
00002693  05AD1300EB        add eax,0xeb0013ad
00002698  0205C51300D1      add al,[0xd10013c5]
0000269E  0305D81300B7      add eax,[0xb70013d8]
000026A4  0405              add al,0x5
000026A6  EB13              jmp short 0x26bb
000026A8  009C058A018214    add [ebp+eax+0x1482018a],bl
000026AF  008B07860AFE      add [ebx+0xfe0a8607],cl
000026B5  1300              adc eax,[eax]
000026B7  EE                out dx,al
000026B8  114182            adc [ecx-0x7e],eax
000026BB  1400              adc al,0x0
000026BD  B912059514        mov ecx,0x14950512
000026C2  00C8              add al,cl
000026C4  1205A81400D7      adc al,[0xd70014a8]
000026CA  1205BB1400E6      adc al,[0xe60014bb]
000026D0  1205D0140092      adc al,[0x920014d0]
000026D6  1305E41400A1      adc eax,[0xa10014e4]
000026DC  1305F91400FC      adc eax,[0xfc0014f9]
000026E2  1405              adc al,0x5
000026E4  0000              add [eax],al
000026E6  FF                db 0xFF
000026E7  FF01              inc dword [ecx]
000026E9  0C1B              or al,0x1b
000026EB  0500003405        add eax,0x5340000
000026F0  3B00              cmp eax,[eax]
000026F2  4D                dec ebp
000026F3  050000FFFF        add eax,0xffff0000
000026F8  010C28            add [eax+ebp],ecx
000026FB  053A003305        add eax,0x533003a
00002700  0000              add [eax],al
00002702  4C                dec esp
00002703  050000FFFF        add eax,0xffff0000
00002708  010E              add [esi],ecx
0000270A  360500005A37      ss add eax,0x375a0000
00002710  99                cdq
00002711  0100              add [eax],eax
00002713  AB                stosd
00002714  01050000FFFF      add [0xffff0000],eax
0000271A  0108              add [eax],ecx
0000271C  26052D003F05      es add eax,0x53f002d
00002722  0000              add [eax],al
00002724  FF                db 0xFF
00002725  FF01              inc dword [ecx]
00002727  0830              or [eax],dh
00002729  0542005405        add eax,0x5540042
0000272E  0000              add [eax],al
00002730  FF                db 0xFF
00002731  FF                db 0xFF
00002732  FF                db 0xFF
00002733  FF00              inc dword [eax]
00002735  0000              add [eax],al
00002737  00FF              add bh,bh
00002739  FF                db 0xFF
0000273A  FF                db 0xFF
0000273B  FF00              inc dword [eax]
0000273D  0000              add [eax],al
0000273F  0000              add [eax],al
00002741  0000              add [eax],al
00002743  0001              add [ecx],al
00002745  0000              add [eax],al
00002747  0001              add [ecx],al
00002749  0000              add [eax],al
0000274B  0001              add [ecx],al
0000274D  0000              add [eax],al
0000274F  003402            add [edx+eax],dh
00002752  0000              add [eax],al
00002754  0100              add [eax],eax
00002756  0000              add [eax],al
00002758  3E0200            add al,[ds:eax]
0000275B  0001              add [ecx],al
0000275D  0000              add [eax],al
0000275F  005B02            add [ebx+0x2],bl
00002762  0000              add [eax],al
00002764  0C00              or al,0x0
00002766  0000              add [eax],al
00002768  8C8704080D00      mov [edi+0xd0804],es
0000276E  0000              add [eax],al
00002770  089D04080400      or [ebp+0x40804],bl
00002776  0000              add [eax],al
00002778  6881040805        push dword 0x5080481
0000277D  0000              add [eax],al
0000277F  00948304080600    add [ebx+eax*4+0x60804],dl
00002786  0000              add [eax],al
00002788  1482              adc al,0x82
0000278A  0408              add al,0x8
0000278C  0A00              or al,[eax]
0000278E  0000              add [eax],al
00002790  B702              mov bh,0x2
00002792  0000              add [eax],al
00002794  0B00              or eax,[eax]
00002796  0000              add [eax],al
00002798  1000              adc [eax],al
0000279A  0000              add [eax],al
0000279C  1500000000        adc eax,0x0
000027A1  0000              add [eax],al
000027A3  0003              add [ebx],al
000027A5  0000              add [eax],al
000027A7  0028              add [eax],ch
000027A9  B804080200        mov eax,0x20804
000027AE  0000              add [eax],al
000027B0  98                cwde
000027B1  0000              add [eax],al
000027B3  001400            add [eax+eax],dl
000027B6  0000              add [eax],al
000027B8  1100              adc [eax],eax
000027BA  0000              add [eax],al
000027BC  17                pop ss
000027BD  0000              add [eax],al
000027BF  00F4              add ah,dh
000027C1  860408            xchg al,[eax+ecx]
000027C4  1100              adc [eax],eax
000027C6  0000              add [eax],al
000027C8  EC                in al,dx
000027C9  860408            xchg al,[eax+ecx]
000027CC  1200              adc al,[eax]
000027CE  0000              add [eax],al
000027D0  0800              or [eax],al
000027D2  0000              add [eax],al
000027D4  1300              adc eax,[eax]
000027D6  0000              add [eax],al
000027D8  0800              or [eax],al
000027DA  0000              add [eax],al
000027DC  FE                db 0xFE
000027DD  FF                db 0xFF
000027DE  FF6F7C            jmp far [edi+0x7c]
000027E1  860408            xchg al,[eax+ecx]
000027E4  FF                db 0xFF
000027E5  FF                db 0xFF
000027E6  FF6F03            jmp far [edi+0x3]
000027E9  0000              add [eax],al
000027EB  00F0              add al,dh
000027ED  FF                db 0xFF
000027EE  FF6F4C            jmp far [edi+0x4c]
000027F1  860408            xchg al,[eax+ecx]
000027F4  0000              add [eax],al
000027F6  0000              add [eax],al
000027F8  0000              add [eax],al
000027FA  0000              add [eax],al
000027FC  0000              add [eax],al
000027FE  0000              add [eax],al
00002800  0000              add [eax],al
00002802  0000              add [eax],al
00002804  0000              add [eax],al
00002806  0000              add [eax],al
00002808  0000              add [eax],al
0000280A  0000              add [eax],al
0000280C  0000              add [eax],al
0000280E  0000              add [eax],al
00002810  0000              add [eax],al
00002812  0000              add [eax],al
00002814  0000              add [eax],al
00002816  0000              add [eax],al
00002818  0000              add [eax],al
0000281A  0000              add [eax],al
0000281C  0000              add [eax],al
0000281E  0000              add [eax],al
00002820  0000              add [eax],al
00002822  0000              add [eax],al
00002824  0000              add [eax],al
00002826  0000              add [eax],al
00002828  44                inc esp
00002829  B704              mov bh,0x4
0000282B  0800              or [eax],al
0000282D  0000              add [eax],al
0000282F  0000              add [eax],al
00002831  0000              add [eax],al
00002833  00D6              add dh,dl
00002835  870408            xchg eax,[eax+ecx]
00002838  E687              out 0x87,al
0000283A  0408              add al,0x8
0000283C  F6870408068804    test byte [edi+0x88060804],0x4
00002843  0816              or [esi],dl
00002845  880408            mov [eax+ecx],al
00002848  26880408          mov [es:eax+ecx],al
0000284C  36880408          mov [ss:eax+ecx],al
00002850  46                inc esi
00002851  880408            mov [eax+ecx],al
00002854  56                push esi
00002855  880408            mov [eax+ecx],al
00002858  66880408          o16 mov [eax+ecx],al
0000285C  7688              jna 0x27e6
0000285E  0408              add al,0x8
00002860  868804089688      xchg cl,[eax+0x88960804]
00002866  0408              add al,0x8
00002868  A6                cmpsb
00002869  880408            mov [eax+ecx],al
0000286C  B688              mov dh,0x88
0000286E  0408              add al,0x8
00002870  C6                db 0xC6
00002871  880408            mov [eax+ecx],al
00002874  D6                salc
00002875  880408            mov [eax+ecx],al
00002878  E688              out 0x88,al
0000287A  0408              add al,0x8
0000287C  F6                db 0xF6
0000287D  880408            mov [eax+ecx],al
00002880  0000              add [eax],al
00002882  0000              add [eax],al
00002884  0000              add [eax],al
00002886  0000              add [eax],al
00002888  47                inc edi
00002889  43                inc ebx
0000288A  43                inc ebx
0000288B  3A20              cmp ah,[eax]
0000288D  285562            sub [ebp+0x62],dl
00002890  756E              jnz 0x2900
00002892  7475              jz 0x2909
00002894  20342E            and [esi+ebp],dh
00002897  342E              xor al,0x2e
00002899  332D34756275      xor ebp,[0x75627534]
0000289F  6E                outsb
000028A0  7475              jz 0x2917
000028A2  352920342E        xor eax,0x2e342029
000028A7  342E              xor al,0x2e
000028A9  3300              xor eax,[eax]
000028AB  47                inc edi
000028AC  43                inc ebx
000028AD  43                inc ebx
000028AE  3A20              cmp ah,[eax]
000028B0  28474E            sub [edi+0x4e],al
000028B3  55                push ebp
000028B4  2920              sub [eax],esp
000028B6  342E              xor al,0x2e
000028B8  382E              cmp [esi],ch
000028BA  3100              xor [eax],eax
000028BC  0000              add [eax],al
000028BE  0000              add [eax],al
000028C0  1C00              sbb al,0x0
000028C2  0000              add [eax],al
000028C4  0200              add al,[eax]
000028C6  0000              add [eax],al
000028C8  0000              add [eax],al
000028CA  0400              add al,0x0
000028CC  0000              add [eax],al
000028CE  0000              add [eax],al
000028D0  008904082200      add [ecx+0x220804],cl
000028D6  0000              add [eax],al
000028D8  0000              add [eax],al
000028DA  0000              add [eax],al
000028DC  0000              add [eax],al
000028DE  0000              add [eax],al
000028E0  1C00              sbb al,0x0
000028E2  0000              add [eax],al
000028E4  0200              add al,[eax]
000028E6  0E                push cs
000028E7  0100              add [eax],eax
000028E9  000400            add [eax+eax],al
000028EC  0000              add [eax],al
000028EE  0000              add [eax],al
000028F0  709C              jo 0x288e
000028F2  0408              add al,0x8
000028F4  6A00              push byte +0x0
000028F6  0000              add [eax],al
000028F8  0000              add [eax],al
000028FA  0000              add [eax],al
000028FC  0000              add [eax],al
000028FE  0000              add [eax],al
00002900  2100              and [eax],eax
00002902  0000              add [eax],al
00002904  0200              add al,[eax]
00002906  810000008D00      add dword [eax],0x8d0000
0000290C  0000              add [eax],al
0000290E  7500              jnz 0x2910
00002910  0000              add [eax],al
00002912  5F                pop edi
00002913  49                dec ecx
00002914  4F                dec edi
00002915  5F                pop edi
00002916  7374              jnc 0x298c
00002918  64696E5F75736564  imul ebp,[fs:esi+0x5f],dword 0x64657375
00002920  0000              add [eax],al
00002922  0000              add [eax],al
00002924  0036              add [esi],dh
00002926  0000              add [eax],al
00002928  0002              add [edx],al
0000292A  000E              add [esi],cl
0000292C  0100              add [eax],eax
0000292E  0013              add [ebx],dl
00002930  0100              add [eax],eax
00002932  003E              add [esi],bh
00002934  0000              add [eax],al
00002936  005F5F            add [edi+0x5f],bl
00002939  6C                insb
0000293A  6962635F637375    imul esp,[edx+0x63],dword 0x7573635f
00002941  5F                pop edi
00002942  66696E690053      imul bp,[esi+0x69],word 0x5300
00002948  0000              add [eax],al
0000294A  005F5F            add [edi+0x5f],bl
0000294D  6C                insb
0000294E  6962635F637375    imul esp,[edx+0x63],dword 0x7573635f
00002955  5F                pop edi
00002956  696E6974000000    imul ebp,[esi+0x69],dword 0x74
0000295D  0000              add [eax],al
0000295F  7D00              jnl 0x2961
00002961  0000              add [eax],al
00002963  0200              add al,[eax]
00002965  0000              add [eax],al
00002967  0000              add [eax],al
00002969  0401              add al,0x1
0000296B  0000              add [eax],al
0000296D  0000              add [eax],al
0000296F  008904082289      add [ecx+0x89220804],cl
00002975  0408              add al,0x8
00002977  2E2E2F            cs das
0000297A  7379              jnc 0x29f5
0000297C  7364              jnc 0x29e2
0000297E  657073            gs jo 0x29f4
00002981  2F                das
00002982  693338362F65      imul esi,[ebx],dword 0x652f3638
00002988  6C                insb
00002989  662F              o16 das
0000298B  7374              jnc 0x2a01
0000298D  61                popa
0000298E  7274              jc 0x2a04
00002990  2E53              cs push ebx
00002992  002F              add [edi],ch
00002994  686F6D652F        push dword 0x2f656d6f
00002999  7069              jo 0x2a04
0000299B  657272            gs jc 0x2a10
0000299E  652F              gs das
000029A0  42                inc edx
000029A1  7572              jnz 0x2a15
000029A3  6561              gs popa
000029A5  752F              jnz 0x29d6
000029A7  6865616465        push dword 0x65646165
000029AC  7273              jc 0x2a21
000029AE  2D676C6962        sub eax,0x62696c67
000029B3  632D666F722D      arpl [0x2d726f66],bp
000029B9  6C                insb
000029BA  696E75782F676C    imul ebp,[esi+0x75],dword 0x6c672f78
000029C1  6962632D322E31    imul esp,[edx+0x63],dword 0x312e322d
000029C8  322E              xor ch,[esi]
000029CA  322F              xor ch,[edi]
000029CC  637375            arpl [ebx+0x75],si
000029CF  00474E            add [edi+0x4e],al
000029D2  55                push ebp
000029D3  204153            and [ecx+0x53],al
000029D6  2032              and [edx],dh
000029D8  2E3230            xor dh,[cs:eax]
000029DB  2E3100            xor [cs:eax],eax
000029DE  018089000000      add [eax+0x89],eax
000029E4  0200              add al,[eax]
000029E6  1400              adc al,0x0
000029E8  0000              add [eax],al
000029EA  0401              add al,0x1
000029EC  8E00              mov es,[eax]
000029EE  0000              add [eax],al
000029F0  01CD              add ebp,ecx
000029F2  0000              add [eax],al
000029F4  004300            add [ebx+0x0],al
000029F7  0000              add [eax],al
000029F9  2489              and al,0x89
000029FB  0408              add al,0x8
000029FD  2489              and al,0x89
000029FF  0408              add al,0x8
00002A01  5B                pop ebx
00002A02  0000              add [eax],al
00002A04  0002              add [edx],al
00002A06  0108              add [eax],ecx
00002A08  800000            add byte [eax],0x0
00002A0B  0002              add [edx],al
00002A0D  0207              add al,[edi]
00002A0F  0000              add [eax],al
00002A11  0000              add [eax],al
00002A13  020407            add al,[edi+eax]
00002A16  360000            add [ss:eax],al
00002A19  0002              add [edx],al
00002A1B  0407              add al,0x7
00002A1D  3100              xor [eax],eax
00002A1F  0000              add [eax],al
00002A21  0201              add al,[ecx]
00002A23  06                push es
00002A24  82                db 0x82
00002A25  0000              add [eax],al
00002A27  0002              add [edx],al
00002A29  020513000000      add al,[0x13]
00002A2F  030405696E7400    add eax,[eax+0x746e69]
00002A36  0208              add cl,[eax]
00002A38  059A000000        add eax,0x9a
00002A3D  0208              add cl,[eax]
00002A3F  07                pop es
00002A40  2C00              sub al,0x0
00002A42  0000              add [eax],al
00002A44  0204059F000000    add al,[eax+0x9f]
00002A4B  0404              add al,0x4
00002A4D  07                pop es
00002A4E  0201              add al,[ecx]
00002A50  06                push es
00002A51  8900              mov [eax],eax
00002A53  0000              add [eax],al
00002A55  051D000000        add eax,0x1d
00002A5A  0119              add [ecx],ebx
00002A5C  8700              xchg eax,[eax]
00002A5E  0000              add [eax],al
00002A60  010503289D04      add [0x49d2803],eax
00002A66  0806              or [esi],al
00002A68  4F                dec edi
00002A69  0000              add [eax],al
00002A6B  0000              add [eax],al
00002A6D  0F0100            sgdt [eax]
00002A70  0002              add [edx],al
00002A72  005F00            add [edi+0x0],bl
00002A75  0000              add [eax],al
00002A77  0401              add al,0x1
00002A79  8E00              mov es,[eax]
00002A7B  0000              add [eax],al
00002A7D  01C9              add ecx,ecx
00002A7F  0000              add [eax],al
00002A81  004300            add [ebx+0x0],al
00002A84  0000              add [eax],al
00002A86  709C              jo 0x2a24
00002A88  0408              add al,0x8
00002A8A  DA9C0408820000    ficomp dword [esp+eax+0x8208]
00002A91  0002              add [edx],al
00002A93  0405              add al,0x5
00002A95  696E740003AD00    imul ebp,[esi+0x74],dword 0xad0300
00002A9C  0000              add [eax],al
00002A9E  02D3              add dl,bl
00002AA0  37                aaa
00002AA1  0000              add [eax],al
00002AA3  000404            add [esp+eax],al
00002AA6  07                pop es
00002AA7  360000            add [ss:eax],al
00002AAA  000501FD0000      add [0xfd01],al
00002AB0  0001              add [ecx],al
00002AB2  830170            add dword [ecx],byte +0x70
00002AB5  9C                pushf
00002AB6  0408              add al,0x8
00002AB8  759C              jnz 0x2a56
00002ABA  0408              add al,0x8
00002ABC  0000              add [eax],al
00002ABE  0000              add [eax],al
00002AC0  06                push es
00002AC1  01B900000001      add [ecx+0x1000000],edi
00002AC7  6901809C0408      imul eax,[ecx],dword 0x8049c80
00002ACD  DA9C04082C0000    ficomp dword [esp+eax+0x2c08]
00002AD4  00B900000007      add [ecx+0x7000000],bh
00002ADA  B400              mov ah,0x0
00002ADC  0000              add [eax],al
00002ADE  016925            add [ecx+0x25],ebp
00002AE1  0000              add [eax],al
00002AE3  0002              add [edx],al
00002AE5  91                xchg eax,ecx
00002AE6  0007              add [edi],al
00002AE8  0D01000001        or eax,0x1000001
00002AED  69B9000000029104  imul edi,[ecx+0x2000000],dword 0xa8070491
         -07A8
00002AF7  0000              add [eax],al
00002AF9  0001              add [ecx],al
00002AFB  69B9000000029108  imul edi,[ecx+0x2000000],dword 0xe7080891
         -08E7
00002B05  0000              add [eax],al
00002B07  0001              add [ecx],al
00002B09  7ACC              jpe 0x2ad7
00002B0B  0000              add [eax],al
00002B0D  0009              add [ecx],cl
00002B0F  99                cdq
00002B10  9C                pushf
00002B11  0408              add al,0x8
00002B13  D29C04080A6900    rcr byte [esp+eax+0x690a08],cl
00002B1A  017B2C            add [ebx+0x2c],edi
00002B1D  0000              add [eax],al
00002B1F  005800            add [eax+0x0],bl
00002B22  0000              add [eax],al
00002B24  0000              add [eax],al
00002B26  0B04BF            or eax,[edi+edi*4]
00002B29  0000              add [eax],al
00002B2B  000B              add [ebx],cl
00002B2D  04C5              add al,0xc5
00002B2F  0000              add [eax],al
00002B31  000401            add [ecx+eax],al
00002B34  06                push es
00002B35  8900              mov [eax],eax
00002B37  0000              add [eax],al
00002B39  0C2C              or al,0x2c
00002B3B  0000              add [eax],al
00002B3D  000DF2000000      add [0xf2],cl
00002B43  DC00              fadd qword [eax]
00002B45  0000              add [eax],al
00002B47  0E                push cs
00002B48  000F              add [edi],cl
00002B4A  01F2              add edx,esi
00002B4C  0000              add [eax],al
00002B4E  0010              add [eax],dl
00002B50  2500000010        and eax,0x10000000
00002B55  B900000010        mov ecx,0x10000000
00002B5A  B900000000        mov ecx,0x0
00002B5F  0B04DC            or eax,[esp+ebx*8]
00002B62  0000              add [eax],al
00002B64  0011              add [ecx],dl
00002B66  D400              aam 0x0
00002B68  0000              add [eax],al
00002B6A  013B              add [ebx],edi
00002B6C  D100              rol dword [eax],1
00002B6E  0000              add [eax],al
00002B70  0101              add [ecx],eax
00002B72  11EC              adc esp,ebp
00002B74  0000              add [eax],al
00002B76  0001              add [ecx],al
00002B78  3DD1000000        cmp eax,0xd1
00002B7D  0101              add [ecx],eax
00002B7F  0001              add [ecx],al
00002B81  1100              adc [eax],eax
00002B83  1006              adc [esi],al
00002B85  1101              adc [ecx],eax
00002B87  1201              adc al,[ecx]
00002B89  0308              add ecx,[eax]
00002B8B  1B08              sbb ecx,[eax]
00002B8D  2508130500        and eax,0x51308
00002B92  0000              add [eax],al
00002B94  0111              add [ecx],edx
00002B96  01250E130B03      add [0x30b130e],esp
00002B9C  0E                push cs
00002B9D  1B0E              sbb ecx,[esi]
00002B9F  1101              adc [ecx],eax
00002BA1  1201              adc al,[ecx]
00002BA3  1006              adc [esi],al
00002BA5  0000              add [eax],al
00002BA7  022400            add ah,[eax+eax]
00002BAA  0B0B              or ecx,[ebx]
00002BAC  3E0B03            or eax,[ds:ebx]
00002BAF  0E                push cs
00002BB0  0000              add [eax],al
00002BB2  032400            add esp,[eax+eax]
00002BB5  0B0B              or ecx,[ebx]
00002BB7  3E0B03            or eax,[ds:ebx]
00002BBA  0800              or [eax],al
00002BBC  000424            add [esp],al
00002BBF  000B              add [ebx],cl
00002BC1  0B3E              or edi,[esi]
00002BC3  0B00              or eax,[eax]
00002BC5  00053400030E      add [0xe030034],al
00002BCB  3A0B              cmp cl,[ebx]
00002BCD  3B0B              cmp ecx,[ebx]
00002BCF  49                dec ecx
00002BD0  133F              adc edi,[edi]
00002BD2  0C02              or al,0x2
00002BD4  0A00              or al,[eax]
00002BD6  0006              add [esi],al
00002BD8  26004913          add [es:ecx+0x13],cl
00002BDC  0000              add [eax],al
00002BDE  0001              add [ecx],al
00002BE0  1101              adc [ecx],eax
00002BE2  250E130B03        and eax,0x30b130e
00002BE7  0E                push cs
00002BE8  1B0E              sbb ecx,[esi]
00002BEA  1101              adc [ecx],eax
00002BEC  1201              adc al,[ecx]
00002BEE  1006              adc [esi],al
00002BF0  0000              add [eax],al
00002BF2  022400            add ah,[eax+eax]
00002BF5  0B0B              or ecx,[ebx]
00002BF7  3E0B03            or eax,[ds:ebx]
00002BFA  0800              or [eax],al
00002BFC  0003              add [ebx],al
00002BFE  16                push ss
00002BFF  0003              add [ebx],al
00002C01  0E                push cs
00002C02  3A0B              cmp cl,[ebx]
00002C04  3B0B              cmp ecx,[ebx]
00002C06  49                dec ecx
00002C07  1300              adc eax,[eax]
00002C09  000424            add [esp],al
00002C0C  000B              add [ebx],cl
00002C0E  0B3E              or edi,[esi]
00002C10  0B03              or eax,[ebx]
00002C12  0E                push cs
00002C13  0000              add [eax],al
00002C15  052E003F0C        add eax,0xc3f002e
00002C1A  030E              add ecx,[esi]
00002C1C  3A0B              cmp cl,[ebx]
00002C1E  3B0B              cmp ecx,[ebx]
00002C20  27                daa
00002C21  0C11              or al,0x11
00002C23  0112              add [edx],edx
00002C25  014006            add [eax+0x6],eax
00002C28  0000              add [eax],al
00002C2A  06                push es
00002C2B  2E013F            add [cs:edi],edi
00002C2E  0C03              or al,0x3
00002C30  0E                push cs
00002C31  3A0B              cmp cl,[ebx]
00002C33  3B0B              cmp ecx,[ebx]
00002C35  27                daa
00002C36  0C11              or al,0x11
00002C38  0112              add [edx],edx
00002C3A  014006            add [eax+0x6],eax
00002C3D  0113              add [ebx],edx
00002C3F  0000              add [eax],al
00002C41  07                pop es
00002C42  0500030E3A        add eax,0x3a0e0300
00002C47  0B3B              or edi,[ebx]
00002C49  0B4913            or ecx,[ecx+0x13]
00002C4C  020A              add cl,[edx]
00002C4E  0000              add [eax],al
00002C50  083400            or [eax+eax],dh
00002C53  030E              add ecx,[esi]
00002C55  3A0B              cmp cl,[ebx]
00002C57  3B0B              cmp ecx,[ebx]
00002C59  49                dec ecx
00002C5A  1300              adc eax,[eax]
00002C5C  0009              add [ecx],cl
00002C5E  0B01              or eax,[ecx]
00002C60  1101              adc [ecx],eax
00002C62  1201              adc al,[ecx]
00002C64  0000              add [eax],al
00002C66  0A3400            or dh,[eax+eax]
00002C69  0308              add ecx,[eax]
00002C6B  3A0B              cmp cl,[ebx]
00002C6D  3B0B              cmp ecx,[ebx]
00002C6F  49                dec ecx
00002C70  1302              adc eax,[edx]
00002C72  06                push es
00002C73  0000              add [eax],al
00002C75  0B0F              or ecx,[edi]
00002C77  000B              add [ebx],cl
00002C79  0B4913            or ecx,[ecx+0x13]
00002C7C  0000              add [eax],al
00002C7E  0C26              or al,0x26
00002C80  004913            add [ecx+0x13],cl
00002C83  0000              add [eax],al
00002C85  0D01014913        or eax,0x13490101
00002C8A  0113              add [ebx],edx
00002C8C  0000              add [eax],al
00002C8E  0E                push cs
00002C8F  2100              and [eax],eax
00002C91  0000              add [eax],al
00002C93  0F1501            unpckhps xmm0,[ecx]
00002C96  27                daa
00002C97  0C01              or al,0x1
00002C99  1300              adc eax,[eax]
00002C9B  0010              add [eax],dl
00002C9D  0500491300        add eax,0x134900
00002CA2  0011              add [ecx],dl
00002CA4  3400              xor al,0x0
00002CA6  030E              add ecx,[esi]
00002CA8  3A0B              cmp cl,[ebx]
00002CAA  3B0B              cmp ecx,[ebx]
00002CAC  49                dec ecx
00002CAD  133F              adc edi,[edi]
00002CAF  0C3C              or al,0x3c
00002CB1  0C00              or al,0x0
00002CB3  0000              add [eax],al
00002CB5  57                push edi
00002CB6  0000              add [eax],al
00002CB8  0002              add [edx],al
00002CBA  0032              add [edx],dh
00002CBC  0000              add [eax],al
00002CBE  0001              add [ecx],al
00002CC0  01FB              add ebx,edi
00002CC2  0E                push cs
00002CC3  0D00010101        or eax,0x1010100
00002CC8  0100              add [eax],eax
00002CCA  0000              add [eax],al
00002CCC  0100              add [eax],eax
00002CCE  0001              add [ecx],al
00002CD0  2E2E2F            cs das
00002CD3  7379              jnc 0x2d4e
00002CD5  7364              jnc 0x2d3b
00002CD7  657073            gs jo 0x2d4d
00002CDA  2F                das
00002CDB  693338362F65      imul esi,[ebx],dword 0x652f3638
00002CE1  6C                insb
00002CE2  660000            o16 add [eax],al
00002CE5  7374              jnc 0x2d5b
00002CE7  61                popa
00002CE8  7274              jc 0x2d5e
00002CEA  2E53              cs push ebx
00002CEC  0001              add [ecx],al
00002CEE  0000              add [eax],al
00002CF0  0000              add [eax],al
00002CF2  0502008904        add eax,0x4890002
00002CF7  0803              or [ebx],al
00002CF9  C00001            rol byte [eax],0x1
00002CFC  3321              xor esp,[ecx]
00002CFE  343D              xor al,0x3d
00002D00  2522031820        and eax,0x20180322
00002D05  59                pop ecx
00002D06  5A                pop edx
00002D07  2122              and [edx],esp
00002D09  5C                pop esp
00002D0A  5B                pop ebx
00002D0B  0201              add al,[ecx]
00002D0D  0001              add [ecx],al
00002D0F  0123              add [ebx],esp
00002D11  0000              add [eax],al
00002D13  0002              add [edx],al
00002D15  001D00000001      add [0x1000000],bl
00002D1B  01FB              add ebx,edi
00002D1D  0E                push cs
00002D1E  0D00010101        or eax,0x1010100
00002D23  0100              add [eax],eax
00002D25  0000              add [eax],al
00002D27  0100              add [eax],eax
00002D29  0001              add [ecx],al
00002D2B  00696E            add [ecx+0x6e],ch
00002D2E  69742E6300000000  imul esi,[esi+ebp+0x63],dword 0x0
00002D36  007B00            add [ebx+0x0],bh
00002D39  0000              add [eax],al
00002D3B  0200              add al,[eax]
00002D3D  57                push edi
00002D3E  0000              add [eax],al
00002D40  0001              add [ecx],al
00002D42  01FB              add ebx,edi
00002D44  0E                push cs
00002D45  0D00010101        or eax,0x1010100
00002D4A  0100              add [eax],eax
00002D4C  0000              add [eax],al
00002D4E  0100              add [eax],eax
00002D50  0001              add [ecx],al
00002D52  2F                das
00002D53  7573              jnz 0x2dc8
00002D55  722F              jc 0x2d86
00002D57  6C                insb
00002D58  69622F6763632F    imul esp,[edx+0x2f],dword 0x2f636367
00002D5F  693438362D6C69    imul esi,[eax+edi],dword 0x696c2d36
00002D66  6E                outsb
00002D67  7578              jnz 0x2de1
00002D69  2D676E752F        sub eax,0x2f756e67
00002D6E  342E              xor al,0x2e
00002D70  342E              xor al,0x2e
00002D72  332F              xor ebp,[edi]
00002D74  696E636C756465    imul ebp,[esi+0x63],dword 0x6564756c
00002D7B  0000              add [eax],al
00002D7D  656C              gs insb
00002D7F  662D696E          sub ax,0x6e69
00002D83  69742E6300000000  imul esi,[esi+ebp+0x63],dword 0x0
00002D8B  7374              jnc 0x2e01
00002D8D  646465662E680001  cs push word 0x100
00002D95  0000              add [eax],al
00002D97  0000              add [eax],al
00002D99  0502709C04        add eax,0x49c7002
00002D9E  0803              or [ebx],al
00002DA0  830101            add dword [ecx],byte +0x1
00002DA3  44                inc esp
00002DA4  035EC8            add ebx,[esi-0x38]
00002DA7  030E              add ecx,[esi]
00002DA9  083C5B            or [ebx+ebx*2],bh
00002DAC  086708            or [edi+0x8],ah
00002DAF  9D                popf
00002DB0  7602              jna 0x2db4
00002DB2  0800              or [eax],al
00002DB4  0101              add [ecx],eax
00002DB6  0000              add [eax],al
00002DB8  1000              adc [eax],al
00002DBA  0000              add [eax],al
00002DBC  FF                db 0xFF
00002DBD  FF                db 0xFF
00002DBE  FF                db 0xFF
00002DBF  FF01              inc dword [ecx]
00002DC1  0001              add [ecx],al
00002DC3  7C08              jl 0x2dcd
00002DC5  0C04              or al,0x4
00002DC7  0488              add al,0x88
00002DC9  0100              add [eax],eax
00002DCB  001400            add [eax+eax],dl
00002DCE  0000              add [eax],al
00002DD0  0000              add [eax],al
00002DD2  0000              add [eax],al
00002DD4  709C              jo 0x2d72
00002DD6  0408              add al,0x8
00002DD8  0500000041        add eax,0x41000000
00002DDD  0E                push cs
00002DDE  084285            or [edx-0x7b],al
00002DE1  020D051C0000      add cl,[0x1c05]
00002DE7  0000              add [eax],al
00002DE9  0000              add [eax],al
00002DEB  00809C04085A      add [eax+0x5a08049c],al
00002DF1  0000              add [eax],al
00002DF3  00410E            add [ecx+0xe],al
00002DF6  084285            or [edx-0x7b],al
00002DF9  020D054E8305      add cl,[0x5834e05]
00002DFF  860487            xchg al,[edi+eax*4]
00002E02  0300              add eax,[eax]
00002E04  7368              jnc 0x2e6e
00002E06  6F                outsd
00002E07  7274              jc 0x2e7d
00002E09  20756E            and [ebp+0x6e],dh
00002E0C  7369              jnc 0x2e77
00002E0E  676E              a16 outsb
00002E10  656420696E        and [fs:ecx+0x6e],ch
00002E15  7400              jz 0x2e17
00002E17  7368              jnc 0x2e81
00002E19  6F                outsd
00002E1A  7274              jc 0x2e90
00002E1C  20696E            and [ecx+0x6e],ch
00002E1F  7400              jz 0x2e21
00002E21  5F                pop edi
00002E22  49                dec ecx
00002E23  4F                dec edi
00002E24  5F                pop edi
00002E25  7374              jnc 0x2e9b
00002E27  64696E5F75736564  imul ebp,[fs:esi+0x5f],dword 0x64657375
00002E2F  006C6F6E          add [edi+ebp*2+0x6e],ch
00002E33  67206C6F          and [si+0x6f],ch
00002E37  6E                outsb
00002E38  6720756E          and [di+0x6e],dh
00002E3C  7369              jnc 0x2ea7
00002E3E  676E              a16 outsb
00002E40  656420696E        and [fs:ecx+0x6e],ch
00002E45  7400              jz 0x2e47
00002E47  2F                das
00002E48  686F6D652F        push dword 0x2f656d6f
00002E4D  7069              jo 0x2eb8
00002E4F  657272            gs jc 0x2ec4
00002E52  652F              gs das
00002E54  42                inc edx
00002E55  7572              jnz 0x2ec9
00002E57  6561              gs popa
00002E59  752F              jnz 0x2e8a
00002E5B  6865616465        push dword 0x65646165
00002E60  7273              jc 0x2ed5
00002E62  2D676C6962        sub eax,0x62696c67
00002E67  632D666F722D      arpl [0x2d726f66],bp
00002E6D  6C                insb
00002E6E  696E75782F676C    imul ebp,[esi+0x75],dword 0x6c672f78
00002E75  6962632D322E31    imul esp,[edx+0x63],dword 0x312e322d
00002E7C  322E              xor ch,[esi]
00002E7E  322F              xor ch,[edi]
00002E80  637375            arpl [ebx+0x75],si
00002E83  00756E            add [ebp+0x6e],dh
00002E86  7369              jnc 0x2ef1
00002E88  676E              a16 outsb
00002E8A  6564206368        and [fs:ebx+0x68],ah
00002E8F  61                popa
00002E90  7200              jc 0x2e92
00002E92  47                inc edi
00002E93  4E                dec esi
00002E94  55                push ebp
00002E95  204320            and [ebx+0x20],al
00002E98  342E              xor al,0x2e
00002E9A  342E              xor al,0x2e
00002E9C  3300              xor eax,[eax]
00002E9E  6C                insb
00002E9F  6F                outsd
00002EA0  6E                outsb
00002EA1  67206C6F          and [si+0x6f],ch
00002EA5  6E                outsb
00002EA6  6720696E          and [bx+di+0x6e],ch
00002EAA  7400              jz 0x2eac
00002EAC  656E              gs outsb
00002EAE  7670              jna 0x2f20
00002EB0  007369            add [ebx+0x69],dh
00002EB3  7A65              jpe 0x2f1a
00002EB5  5F                pop edi
00002EB6  7400              jz 0x2eb8
00002EB8  61                popa
00002EB9  7267              jc 0x2f22
00002EBB  6300              arpl [eax],ax
00002EBD  5F                pop edi
00002EBE  5F                pop edi
00002EBF  6C                insb
00002EC0  6962635F637375    imul esp,[edx+0x63],dword 0x7573635f
00002EC7  5F                pop edi
00002EC8  696E697400656C    imul ebp,[esi+0x69],dword 0x6c650074
00002ECF  662D696E          sub ax,0x6e69
00002ED3  69742E63005F5F69  imul esi,[esi+ebp+0x63],dword 0x695f5f00
00002EDB  6E                outsb
00002EDC  69745F6172726179  imul esi,[edi+ebx*2+0x61],dword 0x79617272
00002EE4  5F                pop edi
00002EE5  7374              jnc 0x2f5b
00002EE7  61                popa
00002EE8  7274              jc 0x2f5e
00002EEA  007369            add [ebx+0x69],dh
00002EED  7A65              jpe 0x2f54
00002EEF  005F5F            add [edi+0x5f],bl
00002EF2  696E69745F6172    imul ebp,[esi+0x69],dword 0x72615f74
00002EF9  7261              jc 0x2f5c
00002EFB  795F              jns 0x2f5c
00002EFD  656E              gs outsb
00002EFF  64005F5F          add [fs:edi+0x5f],bl
00002F03  6C                insb
00002F04  6962635F637375    imul esp,[edx+0x63],dword 0x7573635f
00002F0B  5F                pop edi
00002F0C  66696E690061      imul bp,[esi+0x69],word 0x6100
00002F12  7267              jc 0x2f7b
00002F14  7600              jna 0x2f16
00002F16  0000              add [eax],al
00002F18  0000              add [eax],al
00002F1A  0100              add [eax],eax
00002F1C  0000              add [eax],al
00002F1E  0200              add al,[eax]
00002F20  7404              jz 0x2f26
00002F22  0100              add [eax],eax
00002F24  0000              add [eax],al
00002F26  0300              add eax,[eax]
00002F28  0000              add [eax],al
00002F2A  0200              add al,[eax]
00002F2C  7408              jz 0x2f36
00002F2E  0300              add eax,[eax]
00002F30  0000              add [eax],al
00002F32  0500000002        add eax,0x2000000
00002F37  007508            add [ebp+0x8],dh
00002F3A  0000              add [eax],al
00002F3C  0000              add [eax],al
00002F3E  0000              add [eax],al
00002F40  0000              add [eax],al
00002F42  1000              adc [eax],al
00002F44  0000              add [eax],al
00002F46  1100              adc [eax],eax
00002F48  0000              add [eax],al
00002F4A  0200              add al,[eax]
00002F4C  7404              jz 0x2f52
00002F4E  1100              adc [eax],eax
00002F50  0000              add [eax],al
00002F52  1300              adc eax,[eax]
00002F54  0000              add [eax],al
00002F56  0200              add al,[eax]
00002F58  7408              jz 0x2f62
00002F5A  1300              adc eax,[eax]
00002F5C  0000              add [eax],al
00002F5E  6A00              push byte +0x0
00002F60  0000              add [eax],al
00002F62  0200              add al,[eax]
00002F64  7508              jnz 0x2f6e
00002F66  0000              add [eax],al
00002F68  0000              add [eax],al
00002F6A  0000              add [eax],al
00002F6C  0000              add [eax],al
00002F6E  40                inc eax
00002F6F  0000              add [eax],al
00002F71  006700            add [edi+0x0],ah
00002F74  0000              add [eax],al
00002F76  0100              add [eax],eax
00002F78  56                push esi
00002F79  0000              add [eax],al
00002F7B  0000              add [eax],al
00002F7D  0000              add [eax],al
00002F7F  0000              add [eax],al
00002F81  002E              add [esi],ch
00002F83  7379              jnc 0x2ffe
00002F85  6D                insd
00002F86  7461              jz 0x2fe9
00002F88  6200              bound eax,[eax]
00002F8A  2E7374            cs jnc 0x3001
00002F8D  7274              jc 0x3003
00002F8F  61                popa
00002F90  6200              bound eax,[eax]
00002F92  2E7368            cs jnc 0x2ffd
00002F95  7374              jnc 0x300b
00002F97  7274              jc 0x300d
00002F99  61                popa
00002F9A  6200              bound eax,[eax]
00002F9C  2E696E7465727000  imul ebp,[cs:esi+0x74],dword 0x707265
00002FA4  2E6E              cs outsb
00002FA6  6F                outsd
00002FA7  7465              jz 0x300e
00002FA9  2E41              cs inc ecx
00002FAB  42                inc edx
00002FAC  49                dec ecx
00002FAD  2D74616700        sub eax,0x676174
00002FB2  2E6861736800      cs push dword 0x687361
00002FB8  2E64796E          fs jns 0x302a
00002FBC  7379              jnc 0x3037
00002FBE  6D                insd
00002FBF  002E              add [esi],ch
00002FC1  64796E            fs jns 0x3032
00002FC4  7374              jnc 0x303a
00002FC6  7200              jc 0x2fc8
00002FC8  2E676E            cs a16 outsb
00002FCB  752E              jnz 0x2ffb
00002FCD  7665              jna 0x3034
00002FCF  7273              jc 0x3044
00002FD1  696F6E002E676E    imul ebp,[edi+0x6e],dword 0x6e672e00
00002FD8  752E              jnz 0x3008
00002FDA  7665              jna 0x3041
00002FDC  7273              jc 0x3051
00002FDE  696F6E5F72002E    imul ebp,[edi+0x6e],dword 0x2e00725f
00002FE5  7265              jc 0x304c
00002FE7  6C                insb
00002FE8  2E64796E          fs jns 0x305a
00002FEC  002E              add [esi],ch
00002FEE  7265              jc 0x3055
00002FF0  6C                insb
00002FF1  2E706C            cs jo 0x3060
00002FF4  7400              jz 0x2ff6
00002FF6  2E696E6974002E74  imul ebp,[cs:esi+0x69],dword 0x742e0074
00002FFE  657874            gs js 0x3075
00003001  002E              add [esi],ch
00003003  66696E69002E      imul bp,[esi+0x69],word 0x2e00
00003009  726F              jc 0x307a
0000300B  6461              fs popa
0000300D  7461              jz 0x3070
0000300F  002E              add [esi],ch
00003011  65685F667261      gs push dword 0x6172665f
00003017  6D                insd
00003018  655F              gs pop edi
0000301A  686472002E        push dword 0x2e007264
0000301F  65685F667261      gs push dword 0x6172665f
00003025  6D                insd
00003026  65002E            add [gs:esi],ch
00003029  6763635F          arpl [bp+di+0x5f],sp
0000302D  657863            gs js 0x3093
00003030  657074            gs jo 0x30a7
00003033  5F                pop edi
00003034  7461              jz 0x3097
00003036  626C6500          bound ebp,[ebp+0x0]
0000303A  2E63746F72        arpl [cs:edi+ebp*2+0x72],si
0000303F  7300              jnc 0x3041
00003041  2E64746F          fs jz 0x30b4
00003045  7273              jc 0x30ba
00003047  002E              add [esi],ch
00003049  6A63              push byte +0x63
0000304B  7200              jc 0x304d
0000304D  2E64796E          fs jns 0x30bf
00003051  61                popa
00003052  6D                insd
00003053  6963002E676F74    imul esp,[ebx+0x0],dword 0x746f672e
0000305A  002E              add [esi],ch
0000305C  676F              a16 outsd
0000305E  742E              jz 0x308e
00003060  706C              jo 0x30ce
00003062  7400              jz 0x3064
00003064  2E6461            fs popa
00003067  7461              jz 0x30ca
00003069  002E              add [esi],ch
0000306B  627373            bound esi,[ebx+0x73]
0000306E  002E              add [esi],ch
00003070  636F6D            arpl [edi+0x6d],bp
00003073  6D                insd
00003074  656E              gs outsb
00003076  7400              jz 0x3078
00003078  2E6465627567      bound esi,[gs:ebp+0x67]
0000307E  5F                pop edi
0000307F  61                popa
00003080  7261              jc 0x30e3
00003082  6E                outsb
00003083  67657300          gs a16 jnc 0x3087
00003087  2E6465627567      bound esi,[gs:ebp+0x67]
0000308D  5F                pop edi
0000308E  7075              jo 0x3105
00003090  626E61            bound ebp,[esi+0x61]
00003093  6D                insd
00003094  657300            gs jnc 0x3097
00003097  2E6465627567      bound esi,[gs:ebp+0x67]
0000309D  5F                pop edi
0000309E  696E666F002E64    imul ebp,[esi+0x66],dword 0x642e006f
000030A5  65627567          bound esi,[gs:ebp+0x67]
000030A9  5F                pop edi
000030AA  61                popa
000030AB  626272            bound esp,[edx+0x72]
000030AE  657600            gs jna 0x30b1
000030B1  2E6465627567      bound esi,[gs:ebp+0x67]
000030B7  5F                pop edi
000030B8  6C                insb
000030B9  696E65002E6465    imul ebp,[esi+0x65],dword 0x65642e00
000030C0  627567            bound esi,[ebp+0x67]
000030C3  5F                pop edi
000030C4  667261            o16 jc 0x3128
000030C7  6D                insd
000030C8  65002E            add [gs:esi],ch
000030CB  6465627567        bound esi,[gs:ebp+0x67]
000030D0  5F                pop edi
000030D1  7374              jnc 0x3147
000030D3  7200              jc 0x30d5
000030D5  2E6465627567      bound esi,[gs:ebp+0x67]
000030DB  5F                pop edi
000030DC  6C                insb
000030DD  6F                outsd
000030DE  6300              arpl [eax],ax
000030E0  0000              add [eax],al
000030E2  0000              add [eax],al
000030E4  0000              add [eax],al
000030E6  0000              add [eax],al
000030E8  0000              add [eax],al
000030EA  0000              add [eax],al
000030EC  0000              add [eax],al
000030EE  0000              add [eax],al
000030F0  0000              add [eax],al
000030F2  0000              add [eax],al
000030F4  0000              add [eax],al
000030F6  0000              add [eax],al
000030F8  0000              add [eax],al
000030FA  0000              add [eax],al
000030FC  0000              add [eax],al
000030FE  0000              add [eax],al
00003100  0000              add [eax],al
00003102  0000              add [eax],al
00003104  0000              add [eax],al
00003106  0000              add [eax],al
00003108  1B00              sbb eax,[eax]
0000310A  0000              add [eax],al
0000310C  0100              add [eax],eax
0000310E  0000              add [eax],al
00003110  0200              add al,[eax]
00003112  0000              add [eax],al
00003114  3481              xor al,0x81
00003116  0408              add al,0x8
00003118  3401              xor al,0x1
0000311A  0000              add [eax],al
0000311C  1300              adc eax,[eax]
0000311E  0000              add [eax],al
00003120  0000              add [eax],al
00003122  0000              add [eax],al
00003124  0000              add [eax],al
00003126  0000              add [eax],al
00003128  0100              add [eax],eax
0000312A  0000              add [eax],al
0000312C  0000              add [eax],al
0000312E  0000              add [eax],al
00003130  2300              and eax,[eax]
00003132  0000              add [eax],al
00003134  07                pop es
00003135  0000              add [eax],al
00003137  0002              add [edx],al
00003139  0000              add [eax],al
0000313B  004881            add [eax-0x7f],cl
0000313E  0408              add al,0x8
00003140  48                dec eax
00003141  0100              add [eax],eax
00003143  0020              add [eax],ah
00003145  0000              add [eax],al
00003147  0000              add [eax],al
00003149  0000              add [eax],al
0000314B  0000              add [eax],al
0000314D  0000              add [eax],al
0000314F  000400            add [eax+eax],al
00003152  0000              add [eax],al
00003154  0000              add [eax],al
00003156  0000              add [eax],al
00003158  3100              xor [eax],eax
0000315A  0000              add [eax],al
0000315C  0500000002        add eax,0x2000000
00003161  0000              add [eax],al
00003163  006881            add [eax-0x7f],ch
00003166  0408              add al,0x8
00003168  68010000AC        push dword 0xac000001
0000316D  0000              add [eax],al
0000316F  000400            add [eax+eax],al
00003172  0000              add [eax],al
00003174  0000              add [eax],al
00003176  0000              add [eax],al
00003178  0400              add al,0x0
0000317A  0000              add [eax],al
0000317C  0400              add al,0x0
0000317E  0000              add [eax],al
00003180  37                aaa
00003181  0000              add [eax],al
00003183  000B              add [ebx],cl
00003185  0000              add [eax],al
00003187  0002              add [edx],al
00003189  0000              add [eax],al
0000318B  001482            add [edx+eax*4],dl
0000318E  0408              add al,0x8
00003190  1402              adc al,0x2
00003192  0000              add [eax],al
00003194  800100            add byte [ecx],0x0
00003197  000500000001      add [0x1000000],al
0000319D  0000              add [eax],al
0000319F  000400            add [eax+eax],al
000031A2  0000              add [eax],al
000031A4  1000              adc [eax],al
000031A6  0000              add [eax],al
000031A8  3F                aas
000031A9  0000              add [eax],al
000031AB  0003              add [ebx],al
000031AD  0000              add [eax],al
000031AF  0002              add [edx],al
000031B1  0000              add [eax],al
000031B3  00948304089403    add [ebx+eax*4+0x3940804],dl
000031BA  0000              add [eax],al
000031BC  B702              mov bh,0x2
000031BE  0000              add [eax],al
000031C0  0000              add [eax],al
000031C2  0000              add [eax],al
000031C4  0000              add [eax],al
000031C6  0000              add [eax],al
000031C8  0100              add [eax],eax
000031CA  0000              add [eax],al
000031CC  0000              add [eax],al
000031CE  0000              add [eax],al
000031D0  47                inc edi
000031D1  0000              add [eax],al
000031D3  00FF              add bh,bh
000031D5  FF                db 0xFF
000031D6  FF6F02            jmp far [edi+0x2]
000031D9  0000              add [eax],al
000031DB  004C8604          add [esi+eax*4+0x4],cl
000031DF  084C0600          or [esi+eax+0x0],cl
000031E3  0030              add [eax],dh
000031E5  0000              add [eax],al
000031E7  000400            add [eax+eax],al
000031EA  0000              add [eax],al
000031EC  0000              add [eax],al
000031EE  0000              add [eax],al
000031F0  0200              add al,[eax]
000031F2  0000              add [eax],al
000031F4  0200              add al,[eax]
000031F6  0000              add [eax],al
000031F8  54                push esp
000031F9  0000              add [eax],al
000031FB  00FE              add dh,bh
000031FD  FF                db 0xFF
000031FE  FF6F02            jmp far [edi+0x2]
00003201  0000              add [eax],al
00003203  007C8604          add [esi+eax*4+0x4],bh
00003207  087C0600          or [esi+eax+0x0],bh
0000320B  007000            add [eax+0x0],dh
0000320E  0000              add [eax],al
00003210  0500000003        add eax,0x3000000
00003215  0000              add [eax],al
00003217  000400            add [eax+eax],al
0000321A  0000              add [eax],al
0000321C  0000              add [eax],al
0000321E  0000              add [eax],al
00003220  6300              arpl [eax],ax
00003222  0000              add [eax],al
00003224  0900              or [eax],eax
00003226  0000              add [eax],al
00003228  0200              add al,[eax]
0000322A  0000              add [eax],al
0000322C  EC                in al,dx
0000322D  860408            xchg al,[eax+ecx]
00003230  EC                in al,dx
00003231  06                push es
00003232  0000              add [eax],al
00003234  0800              or [eax],al
00003236  0000              add [eax],al
00003238  0400              add al,0x0
0000323A  0000              add [eax],al
0000323C  0000              add [eax],al
0000323E  0000              add [eax],al
00003240  0400              add al,0x0
00003242  0000              add [eax],al
00003244  0800              or [eax],al
00003246  0000              add [eax],al
00003248  6C                insb
00003249  0000              add [eax],al
0000324B  0009              add [ecx],cl
0000324D  0000              add [eax],al
0000324F  0002              add [edx],al
00003251  0000              add [eax],al
00003253  00F4              add ah,dh
00003255  860408            xchg al,[eax+ecx]
00003258  F4                hlt
00003259  06                push es
0000325A  0000              add [eax],al
0000325C  98                cwde
0000325D  0000              add [eax],al
0000325F  000400            add [eax+eax],al
00003262  0000              add [eax],al
00003264  0B00              or eax,[eax]
00003266  0000              add [eax],al
00003268  0400              add al,0x0
0000326A  0000              add [eax],al
0000326C  0800              or [eax],al
0000326E  0000              add [eax],al
00003270  7500              jnz 0x3272
00003272  0000              add [eax],al
00003274  0100              add [eax],eax
00003276  0000              add [eax],al
00003278  06                push es
00003279  0000              add [eax],al
0000327B  008C8704088C07    add [edi+eax*4+0x78c0804],cl
00003282  0000              add [eax],al
00003284  3000              xor [eax],al
00003286  0000              add [eax],al
00003288  0000              add [eax],al
0000328A  0000              add [eax],al
0000328C  0000              add [eax],al
0000328E  0000              add [eax],al
00003290  0400              add al,0x0
00003292  0000              add [eax],al
00003294  0000              add [eax],al
00003296  0000              add [eax],al
00003298  7000              jo 0x329a
0000329A  0000              add [eax],al
0000329C  0100              add [eax],eax
0000329E  0000              add [eax],al
000032A0  06                push es
000032A1  0000              add [eax],al
000032A3  00C0              add al,al
000032A5  870408            xchg eax,[eax+ecx]
000032A8  C00700            rol byte [edi],0x0
000032AB  004001            add [eax+0x1],al
000032AE  0000              add [eax],al
000032B0  0000              add [eax],al
000032B2  0000              add [eax],al
000032B4  0000              add [eax],al
000032B6  0000              add [eax],al
000032B8  1000              adc [eax],al
000032BA  0000              add [eax],al
000032BC  0400              add al,0x0
000032BE  0000              add [eax],al
000032C0  7B00              jpo 0x32c2
000032C2  0000              add [eax],al
000032C4  0100              add [eax],eax
000032C6  0000              add [eax],al
000032C8  06                push es
000032C9  0000              add [eax],al
000032CB  0000              add [eax],al
000032CD  890408            mov [eax+ecx],eax
000032D0  0009              add [ecx],cl
000032D2  0000              add [eax],al
000032D4  081400            or [eax+eax],dl
000032D7  0000              add [eax],al
000032D9  0000              add [eax],al
000032DB  0000              add [eax],al
000032DD  0000              add [eax],al
000032DF  0010              add [eax],dl
000032E1  0000              add [eax],al
000032E3  0000              add [eax],al
000032E5  0000              add [eax],al
000032E7  008100000001      add [ecx+0x1000000],al
000032ED  0000              add [eax],al
000032EF  0006              add [esi],al
000032F1  0000              add [eax],al
000032F3  0008              add [eax],cl
000032F5  9D                popf
000032F6  0408              add al,0x8
000032F8  081D00001C00      or [0x1c0000],bl
000032FE  0000              add [eax],al
00003300  0000              add [eax],al
00003302  0000              add [eax],al
00003304  0000              add [eax],al
00003306  0000              add [eax],al
00003308  0400              add al,0x0
0000330A  0000              add [eax],al
0000330C  0000              add [eax],al
0000330E  0000              add [eax],al
00003310  8700              xchg eax,[eax]
00003312  0000              add [eax],al
00003314  0100              add [eax],eax
00003316  0000              add [eax],al
00003318  0200              add al,[eax]
0000331A  0000              add [eax],al
0000331C  249D              and al,0x9d
0000331E  0408              add al,0x8
00003320  241D              and al,0x1d
00003322  0000              add [eax],al
00003324  1D00000000        sbb eax,0x0
00003329  0000              add [eax],al
0000332B  0000              add [eax],al
0000332D  0000              add [eax],al
0000332F  000400            add [eax+eax],al
00003332  0000              add [eax],al
00003334  0000              add [eax],al
00003336  0000              add [eax],al
00003338  8F00              pop dword [eax]
0000333A  0000              add [eax],al
0000333C  0100              add [eax],eax
0000333E  0000              add [eax],al
00003340  0200              add al,[eax]
00003342  0000              add [eax],al
00003344  44                inc esp
00003345  9D                popf
00003346  0408              add al,0x8
00003348  44                inc esp
00003349  1D0000C401        sbb eax,0x1c40000
0000334E  0000              add [eax],al
00003350  0000              add [eax],al
00003352  0000              add [eax],al
00003354  0000              add [eax],al
00003356  0000              add [eax],al
00003358  0400              add al,0x0
0000335A  0000              add [eax],al
0000335C  0000              add [eax],al
0000335E  0000              add [eax],al
00003360  9D                popf
00003361  0000              add [eax],al
00003363  0001              add [ecx],al
00003365  0000              add [eax],al
00003367  0002              add [edx],al
00003369  0000              add [eax],al
0000336B  0008              add [eax],cl
0000336D  9F                lahf
0000336E  0408              add al,0x8
00003370  081F              or [edi],bl
00003372  0000              add [eax],al
00003374  7007              jo 0x337d
00003376  0000              add [eax],al
00003378  0000              add [eax],al
0000337A  0000              add [eax],al
0000337C  0000              add [eax],al
0000337E  0000              add [eax],al
00003380  0400              add al,0x0
00003382  0000              add [eax],al
00003384  0000              add [eax],al
00003386  0000              add [eax],al
00003388  A7                cmpsd
00003389  0000              add [eax],al
0000338B  0001              add [ecx],al
0000338D  0000              add [eax],al
0000338F  0002              add [edx],al
00003391  0000              add [eax],al
00003393  0078A6            add [eax-0x5a],bh
00003396  0408              add al,0x8
00003398  7826              js 0x33c0
0000339A  0000              add [eax],al
0000339C  B800000000        mov eax,0x0
000033A1  0000              add [eax],al
000033A3  0000              add [eax],al
000033A5  0000              add [eax],al
000033A7  0001              add [ecx],al
000033A9  0000              add [eax],al
000033AB  0000              add [eax],al
000033AD  0000              add [eax],al
000033AF  00B900000001      add [ecx+0x1000000],bh
000033B5  0000              add [eax],al
000033B7  0003              add [ebx],al
000033B9  0000              add [eax],al
000033BB  0030              add [eax],dh
000033BD  B704              mov bh,0x4
000033BF  0830              or [eax],dh
000033C1  27                daa
000033C2  0000              add [eax],al
000033C4  0800              or [eax],al
000033C6  0000              add [eax],al
000033C8  0000              add [eax],al
000033CA  0000              add [eax],al
000033CC  0000              add [eax],al
000033CE  0000              add [eax],al
000033D0  0400              add al,0x0
000033D2  0000              add [eax],al
000033D4  0000              add [eax],al
000033D6  0000              add [eax],al
000033D8  C00000            rol byte [eax],0x0
000033DB  0001              add [ecx],al
000033DD  0000              add [eax],al
000033DF  0003              add [ebx],al
000033E1  0000              add [eax],al
000033E3  0038              add [eax],bh
000033E5  B704              mov bh,0x4
000033E7  0838              or [eax],bh
000033E9  27                daa
000033EA  0000              add [eax],al
000033EC  0800              or [eax],al
000033EE  0000              add [eax],al
000033F0  0000              add [eax],al
000033F2  0000              add [eax],al
000033F4  0000              add [eax],al
000033F6  0000              add [eax],al
000033F8  0400              add al,0x0
000033FA  0000              add [eax],al
000033FC  0000              add [eax],al
000033FE  0000              add [eax],al
00003400  C70000000100      mov dword [eax],0x10000
00003406  0000              add [eax],al
00003408  0300              add eax,[eax]
0000340A  0000              add [eax],al
0000340C  40                inc eax
0000340D  B704              mov bh,0x4
0000340F  084027            or [eax+0x27],al
00003412  0000              add [eax],al
00003414  0400              add al,0x0
00003416  0000              add [eax],al
00003418  0000              add [eax],al
0000341A  0000              add [eax],al
0000341C  0000              add [eax],al
0000341E  0000              add [eax],al
00003420  0400              add al,0x0
00003422  0000              add [eax],al
00003424  0000              add [eax],al
00003426  0000              add [eax],al
00003428  CC                int3
00003429  0000              add [eax],al
0000342B  0006              add [esi],al
0000342D  0000              add [eax],al
0000342F  0003              add [ebx],al
00003431  0000              add [eax],al
00003433  0044B704          add [edi+esi*4+0x4],al
00003437  08442700          or [edi+0x0],al
0000343B  00E0              add al,ah
0000343D  0000              add [eax],al
0000343F  000500000000      add [0x0],al
00003445  0000              add [eax],al
00003447  000400            add [eax+eax],al
0000344A  0000              add [eax],al
0000344C  0800              or [eax],al
0000344E  0000              add [eax],al
00003450  D500              aad 0x0
00003452  0000              add [eax],al
00003454  0100              add [eax],eax
00003456  0000              add [eax],al
00003458  0300              add eax,[eax]
0000345A  0000              add [eax],al
0000345C  24B8              and al,0xb8
0000345E  0408              add al,0x8
00003460  2428              and al,0x28
00003462  0000              add [eax],al
00003464  0400              add al,0x0
00003466  0000              add [eax],al
00003468  0000              add [eax],al
0000346A  0000              add [eax],al
0000346C  0000              add [eax],al
0000346E  0000              add [eax],al
00003470  0400              add al,0x0
00003472  0000              add [eax],al
00003474  0400              add al,0x0
00003476  0000              add [eax],al
00003478  DA00              fiadd dword [eax]
0000347A  0000              add [eax],al
0000347C  0100              add [eax],eax
0000347E  0000              add [eax],al
00003480  0300              add eax,[eax]
00003482  0000              add [eax],al
00003484  28B804082828      sub [eax+0x28280804],bh
0000348A  0000              add [eax],al
0000348C  58                pop eax
0000348D  0000              add [eax],al
0000348F  0000              add [eax],al
00003491  0000              add [eax],al
00003493  0000              add [eax],al
00003495  0000              add [eax],al
00003497  000400            add [eax+eax],al
0000349A  0000              add [eax],al
0000349C  0400              add al,0x0
0000349E  0000              add [eax],al
000034A0  E300              jecxz 0x34a2
000034A2  0000              add [eax],al
000034A4  0100              add [eax],eax
000034A6  0000              add [eax],al
000034A8  0300              add eax,[eax]
000034AA  0000              add [eax],al
000034AC  80B80408802800    cmp byte [eax+0x28800804],0x0
000034B3  0008              add [eax],cl
000034B5  0000              add [eax],al
000034B7  0000              add [eax],al
000034B9  0000              add [eax],al
000034BB  0000              add [eax],al
000034BD  0000              add [eax],al
000034BF  000400            add [eax+eax],al
000034C2  0000              add [eax],al
000034C4  0000              add [eax],al
000034C6  0000              add [eax],al
000034C8  E900000008        jmp 0x80034cd
000034CD  0000              add [eax],al
000034CF  0003              add [ebx],al
000034D1  0000              add [eax],al
000034D3  0088B8040888      add [eax+0x880804b8],cl
000034D9  2800              sub [eax],al
000034DB  0008              add [eax],cl
000034DD  0000              add [eax],al
000034DF  0000              add [eax],al
000034E1  0000              add [eax],al
000034E3  0000              add [eax],al
000034E5  0000              add [eax],al
000034E7  000400            add [eax+eax],al
000034EA  0000              add [eax],al
000034EC  0000              add [eax],al
000034EE  0000              add [eax],al
000034F0  EE                out dx,al
000034F1  0000              add [eax],al
000034F3  0001              add [ecx],al
000034F5  0000              add [eax],al
000034F7  0030              add [eax],dh
000034F9  0000              add [eax],al
000034FB  0000              add [eax],al
000034FD  0000              add [eax],al
000034FF  008828000034      add [eax+0x34000028],cl
00003505  0000              add [eax],al
00003507  0000              add [eax],al
00003509  0000              add [eax],al
0000350B  0000              add [eax],al
0000350D  0000              add [eax],al
0000350F  0001              add [ecx],al
00003511  0000              add [eax],al
00003513  0001              add [ecx],al
00003515  0000              add [eax],al
00003517  00F7              add bh,dh
00003519  0000              add [eax],al
0000351B  0001              add [ecx],al
0000351D  0000              add [eax],al
0000351F  0000              add [eax],al
00003521  0000              add [eax],al
00003523  0000              add [eax],al
00003525  0000              add [eax],al
00003527  00C0              add al,al
00003529  2800              sub [eax],al
0000352B  004000            add [eax+0x0],al
0000352E  0000              add [eax],al
00003530  0000              add [eax],al
00003532  0000              add [eax],al
00003534  0000              add [eax],al
00003536  0000              add [eax],al
00003538  0800              or [eax],al
0000353A  0000              add [eax],al
0000353C  0000              add [eax],al
0000353E  0000              add [eax],al
00003540  06                push es
00003541  0100              add [eax],eax
00003543  0001              add [ecx],al
00003545  0000              add [eax],al
00003547  0000              add [eax],al
00003549  0000              add [eax],al
0000354B  0000              add [eax],al
0000354D  0000              add [eax],al
0000354F  0000              add [eax],al
00003551  2900              sub [eax],eax
00003553  005F00            add [edi+0x0],bl
00003556  0000              add [eax],al
00003558  0000              add [eax],al
0000355A  0000              add [eax],al
0000355C  0000              add [eax],al
0000355E  0000              add [eax],al
00003560  0100              add [eax],eax
00003562  0000              add [eax],al
00003564  0000              add [eax],al
00003566  0000              add [eax],al
00003568  16                push ss
00003569  0100              add [eax],eax
0000356B  0001              add [ecx],al
0000356D  0000              add [eax],al
0000356F  0000              add [eax],al
00003571  0000              add [eax],al
00003573  0000              add [eax],al
00003575  0000              add [eax],al
00003577  005F29            add [edi+0x29],bl
0000357A  0000              add [eax],al
0000357C  2102              and [edx],eax
0000357E  0000              add [eax],al
00003580  0000              add [eax],al
00003582  0000              add [eax],al
00003584  0000              add [eax],al
00003586  0000              add [eax],al
00003588  0100              add [eax],eax
0000358A  0000              add [eax],al
0000358C  0000              add [eax],al
0000358E  0000              add [eax],al
00003590  2201              and al,[ecx]
00003592  0000              add [eax],al
00003594  0100              add [eax],eax
00003596  0000              add [eax],al
00003598  0000              add [eax],al
0000359A  0000              add [eax],al
0000359C  0000              add [eax],al
0000359E  0000              add [eax],al
000035A0  802B00            sub byte [ebx],0x0
000035A3  003501000000      add [0x1],dh
000035A9  0000              add [eax],al
000035AB  0000              add [eax],al
000035AD  0000              add [eax],al
000035AF  0001              add [ecx],al
000035B1  0000              add [eax],al
000035B3  0000              add [eax],al
000035B5  0000              add [eax],al
000035B7  0030              add [eax],dh
000035B9  0100              add [eax],eax
000035BB  0001              add [ecx],al
000035BD  0000              add [eax],al
000035BF  0000              add [eax],al
000035C1  0000              add [eax],al
000035C3  0000              add [eax],al
000035C5  0000              add [eax],al
000035C7  00B52C000001      add [ebp+0x100002c],dh
000035CD  0100              add [eax],eax
000035CF  0000              add [eax],al
000035D1  0000              add [eax],al
000035D3  0000              add [eax],al
000035D5  0000              add [eax],al
000035D7  0001              add [ecx],al
000035D9  0000              add [eax],al
000035DB  0000              add [eax],al
000035DD  0000              add [eax],al
000035DF  003C01            add [ecx+eax],bh
000035E2  0000              add [eax],al
000035E4  0100              add [eax],eax
000035E6  0000              add [eax],al
000035E8  0000              add [eax],al
000035EA  0000              add [eax],al
000035EC  0000              add [eax],al
000035EE  0000              add [eax],al
000035F0  B82D00004C        mov eax,0x4c00002d
000035F5  0000              add [eax],al
000035F7  0000              add [eax],al
000035F9  0000              add [eax],al
000035FB  0000              add [eax],al
000035FD  0000              add [eax],al
000035FF  000400            add [eax+eax],al
00003602  0000              add [eax],al
00003604  0000              add [eax],al
00003606  0000              add [eax],al
00003608  49                dec ecx
00003609  0100              add [eax],eax
0000360B  0001              add [ecx],al
0000360D  0000              add [eax],al
0000360F  0030              add [eax],dh
00003611  0000              add [eax],al
00003613  0000              add [eax],al
00003615  0000              add [eax],al
00003617  00042E            add [esi+ebp],al
0000361A  0000              add [eax],al
0000361C  1201              adc al,[ecx]
0000361E  0000              add [eax],al
00003620  0000              add [eax],al
00003622  0000              add [eax],al
00003624  0000              add [eax],al
00003626  0000              add [eax],al
00003628  0100              add [eax],eax
0000362A  0000              add [eax],al
0000362C  0100              add [eax],eax
0000362E  0000              add [eax],al
00003630  54                push esp
00003631  0100              add [eax],eax
00003633  0001              add [ecx],al
00003635  0000              add [eax],al
00003637  0000              add [eax],al
00003639  0000              add [eax],al
0000363B  0000              add [eax],al
0000363D  0000              add [eax],al
0000363F  0016              add [esi],dl
00003641  2F                das
00003642  0000              add [eax],al
00003644  6B0000            imul eax,[eax],byte +0x0
00003647  0000              add [eax],al
00003649  0000              add [eax],al
0000364B  0000              add [eax],al
0000364D  0000              add [eax],al
0000364F  0001              add [ecx],al
00003651  0000              add [eax],al
00003653  0000              add [eax],al
00003655  0000              add [eax],al
00003657  0011              add [ecx],dl
00003659  0000              add [eax],al
0000365B  0003              add [ebx],al
0000365D  0000              add [eax],al
0000365F  0000              add [eax],al
00003661  0000              add [eax],al
00003663  0000              add [eax],al
00003665  0000              add [eax],al
00003667  00812F00005F      add [ecx+0x5f00002f],al
0000366D  0100              add [eax],eax
0000366F  0000              add [eax],al
00003671  0000              add [eax],al
00003673  0000              add [eax],al
00003675  0000              add [eax],al
00003677  0001              add [ecx],al
00003679  0000              add [eax],al
0000367B  0000              add [eax],al
0000367D  0000              add [eax],al
0000367F  0001              add [ecx],al
00003681  0000              add [eax],al
00003683  0002              add [edx],al
00003685  0000              add [eax],al
00003687  0000              add [eax],al
00003689  0000              add [eax],al
0000368B  0000              add [eax],al
0000368D  0000              add [eax],al
0000368F  00D0              add al,dl
00003691  360000            add [ss:eax],al
00003694  60                pusha
00003695  0A00              or al,[eax]
00003697  00250000003C      add [0x3c000000],ah
0000369D  0000              add [eax],al
0000369F  000400            add [eax+eax],al
000036A2  0000              add [eax],al
000036A4  1000              adc [eax],al
000036A6  0000              add [eax],al
000036A8  0900              or [eax],eax
000036AA  0000              add [eax],al
000036AC  0300              add eax,[eax]
000036AE  0000              add [eax],al
000036B0  0000              add [eax],al
000036B2  0000              add [eax],al
000036B4  0000              add [eax],al
000036B6  0000              add [eax],al
000036B8  304100            xor [ecx+0x0],al
000036BB  00BD11000000      add [ebp+0x11],bh
000036C1  0000              add [eax],al
000036C3  0000              add [eax],al
000036C5  0000              add [eax],al
000036C7  0001              add [ecx],al
000036C9  0000              add [eax],al
000036CB  0000              add [eax],al
000036CD  0000              add [eax],al
000036CF  0000              add [eax],al
000036D1  0000              add [eax],al
000036D3  0000              add [eax],al
000036D5  0000              add [eax],al
000036D7  0000              add [eax],al
000036D9  0000              add [eax],al
000036DB  0000              add [eax],al
000036DD  0000              add [eax],al
000036DF  0000              add [eax],al
000036E1  0000              add [eax],al
000036E3  003481            add [ecx+eax*4],dh
000036E6  0408              add al,0x8
000036E8  0000              add [eax],al
000036EA  0000              add [eax],al
000036EC  0300              add eax,[eax]
000036EE  0100              add [eax],eax
000036F0  0000              add [eax],al
000036F2  0000              add [eax],al
000036F4  48                dec eax
000036F5  81040800000000    add dword [eax+ecx],0x0
000036FC  0300              add eax,[eax]
000036FE  0200              add al,[eax]
00003700  0000              add [eax],al
00003702  0000              add [eax],al
00003704  6881040800        push dword 0x80481
00003709  0000              add [eax],al
0000370B  0003              add [ebx],al
0000370D  0003              add [ebx],al
0000370F  0000              add [eax],al
00003711  0000              add [eax],al
00003713  001482            add [edx+eax*4],dl
00003716  0408              add al,0x8
00003718  0000              add [eax],al
0000371A  0000              add [eax],al
0000371C  0300              add eax,[eax]
0000371E  0400              add al,0x0
00003720  0000              add [eax],al
00003722  0000              add [eax],al
00003724  94                xchg eax,esp
00003725  83040800          add dword [eax+ecx],byte +0x0
00003729  0000              add [eax],al
0000372B  0003              add [ebx],al
0000372D  000500000000      add [0x0],al
00003733  004C8604          add [esi+eax*4+0x4],cl
00003737  0800              or [eax],al
00003739  0000              add [eax],al
0000373B  0003              add [ebx],al
0000373D  0006              add [esi],al
0000373F  0000              add [eax],al
00003741  0000              add [eax],al
00003743  007C8604          add [esi+eax*4+0x4],bh
00003747  0800              or [eax],al
00003749  0000              add [eax],al
0000374B  0003              add [ebx],al
0000374D  0007              add [edi],al
0000374F  0000              add [eax],al
00003751  0000              add [eax],al
00003753  00EC              add ah,ch
00003755  860408            xchg al,[eax+ecx]
00003758  0000              add [eax],al
0000375A  0000              add [eax],al
0000375C  0300              add eax,[eax]
0000375E  0800              or [eax],al
00003760  0000              add [eax],al
00003762  0000              add [eax],al
00003764  F4                hlt
00003765  860408            xchg al,[eax+ecx]
00003768  0000              add [eax],al
0000376A  0000              add [eax],al
0000376C  0300              add eax,[eax]
0000376E  0900              or [eax],eax
00003770  0000              add [eax],al
00003772  0000              add [eax],al
00003774  8C8704080000      mov [edi+0x804],es
0000377A  0000              add [eax],al
0000377C  0300              add eax,[eax]
0000377E  0A00              or al,[eax]
00003780  0000              add [eax],al
00003782  0000              add [eax],al
00003784  C0870408000000    rol byte [edi+0x804],0x0
0000378B  0003              add [ebx],al
0000378D  000B              add [ebx],cl
0000378F  0000              add [eax],al
00003791  0000              add [eax],al
00003793  0000              add [eax],al
00003795  890408            mov [eax+ecx],eax
00003798  0000              add [eax],al
0000379A  0000              add [eax],al
0000379C  0300              add eax,[eax]
0000379E  0C00              or al,0x0
000037A0  0000              add [eax],al
000037A2  0000              add [eax],al
000037A4  089D04080000      or [ebp+0x804],bl
000037AA  0000              add [eax],al
000037AC  0300              add eax,[eax]
000037AE  0D00000000        or eax,0x0
000037B3  00249D04080000    add [ebx*4+0x804],ah
000037BA  0000              add [eax],al
000037BC  0300              add eax,[eax]
000037BE  0E                push cs
000037BF  0000              add [eax],al
000037C1  0000              add [eax],al
000037C3  00449D04          add [ebp+ebx*4+0x4],al
000037C7  0800              or [eax],al
000037C9  0000              add [eax],al
000037CB  0003              add [ebx],al
000037CD  000F              add [edi],cl
000037CF  0000              add [eax],al
000037D1  0000              add [eax],al
000037D3  0008              add [eax],cl
000037D5  9F                lahf
000037D6  0408              add al,0x8
000037D8  0000              add [eax],al
000037DA  0000              add [eax],al
000037DC  0300              add eax,[eax]
000037DE  1000              adc [eax],al
000037E0  0000              add [eax],al
000037E2  0000              add [eax],al
000037E4  78A6              js 0x378c
000037E6  0408              add al,0x8
000037E8  0000              add [eax],al
000037EA  0000              add [eax],al
000037EC  0300              add eax,[eax]
000037EE  1100              adc [eax],eax
000037F0  0000              add [eax],al
000037F2  0000              add [eax],al
000037F4  30B704080000      xor [edi+0x804],dh
000037FA  0000              add [eax],al
000037FC  0300              add eax,[eax]
000037FE  1200              adc al,[eax]
00003800  0000              add [eax],al
00003802  0000              add [eax],al
00003804  38B704080000      cmp [edi+0x804],dh
0000380A  0000              add [eax],al
0000380C  0300              add eax,[eax]
0000380E  1300              adc eax,[eax]
00003810  0000              add [eax],al
00003812  0000              add [eax],al
00003814  40                inc eax
00003815  B704              mov bh,0x4
00003817  0800              or [eax],al
00003819  0000              add [eax],al
0000381B  0003              add [ebx],al
0000381D  001400            add [eax+eax],dl
00003820  0000              add [eax],al
00003822  0000              add [eax],al
00003824  44                inc esp
00003825  B704              mov bh,0x4
00003827  0800              or [eax],al
00003829  0000              add [eax],al
0000382B  0003              add [ebx],al
0000382D  001500000000      add [0x0],dl
00003833  0024B8            add [eax+edi*4],ah
00003836  0408              add al,0x8
00003838  0000              add [eax],al
0000383A  0000              add [eax],al
0000383C  0300              add eax,[eax]
0000383E  16                push ss
0000383F  0000              add [eax],al
00003841  0000              add [eax],al
00003843  0028              add [eax],ch
00003845  B804080000        mov eax,0x804
0000384A  0000              add [eax],al
0000384C  0300              add eax,[eax]
0000384E  17                pop ss
0000384F  0000              add [eax],al
00003851  0000              add [eax],al
00003853  0080B8040800      add [eax+0x804b8],al
00003859  0000              add [eax],al
0000385B  0003              add [ebx],al
0000385D  0018              add [eax],bl
0000385F  0000              add [eax],al
00003861  0000              add [eax],al
00003863  0088B8040800      add [eax+0x804b8],cl
00003869  0000              add [eax],al
0000386B  0003              add [ebx],al
0000386D  0019              add [ecx],bl
0000386F  0000              add [eax],al
00003871  0000              add [eax],al
00003873  0000              add [eax],al
00003875  0000              add [eax],al
00003877  0000              add [eax],al
00003879  0000              add [eax],al
0000387B  0003              add [ebx],al
0000387D  001A              add [edx],bl
0000387F  0000              add [eax],al
00003881  0000              add [eax],al
00003883  0000              add [eax],al
00003885  0000              add [eax],al
00003887  0000              add [eax],al
00003889  0000              add [eax],al
0000388B  0003              add [ebx],al
0000388D  001B              add [ebx],bl
0000388F  0000              add [eax],al
00003891  0000              add [eax],al
00003893  0000              add [eax],al
00003895  0000              add [eax],al
00003897  0000              add [eax],al
00003899  0000              add [eax],al
0000389B  0003              add [ebx],al
0000389D  001C00            add [eax+eax],bl
000038A0  0000              add [eax],al
000038A2  0000              add [eax],al
000038A4  0000              add [eax],al
000038A6  0000              add [eax],al
000038A8  0000              add [eax],al
000038AA  0000              add [eax],al
000038AC  0300              add eax,[eax]
000038AE  1D00000000        sbb eax,0x0
000038B3  0000              add [eax],al
000038B5  0000              add [eax],al
000038B7  0000              add [eax],al
000038B9  0000              add [eax],al
000038BB  0003              add [ebx],al
000038BD  001E              add [esi],bl
000038BF  0000              add [eax],al
000038C1  0000              add [eax],al
000038C3  0000              add [eax],al
000038C5  0000              add [eax],al
000038C7  0000              add [eax],al
000038C9  0000              add [eax],al
000038CB  0003              add [ebx],al
000038CD  001F              add [edi],bl
000038CF  0000              add [eax],al
000038D1  0000              add [eax],al
000038D3  0000              add [eax],al
000038D5  0000              add [eax],al
000038D7  0000              add [eax],al
000038D9  0000              add [eax],al
000038DB  0003              add [ebx],al
000038DD  0020              add [eax],ah
000038DF  0000              add [eax],al
000038E1  0000              add [eax],al
000038E3  0000              add [eax],al
000038E5  0000              add [eax],al
000038E7  0000              add [eax],al
000038E9  0000              add [eax],al
000038EB  0003              add [ebx],al
000038ED  0021              add [ecx],ah
000038EF  0000              add [eax],al
000038F1  0000              add [eax],al
000038F3  0000              add [eax],al
000038F5  0000              add [eax],al
000038F7  0000              add [eax],al
000038F9  0000              add [eax],al
000038FB  0003              add [ebx],al
000038FD  0022              add [edx],ah
000038FF  0001              add [ecx],al
00003901  0000              add [eax],al
00003903  0000              add [eax],al
00003905  0000              add [eax],al
00003907  0000              add [eax],al
00003909  0000              add [eax],al
0000390B  000400            add [eax+eax],al
0000390E  F1                int1
0000390F  FF08              dec dword [eax]
00003911  0000              add [eax],al
00003913  0000              add [eax],al
00003915  0000              add [eax],al
00003917  0000              add [eax],al
00003919  0000              add [eax],al
0000391B  000400            add [eax+eax],al
0000391E  F1                int1
0000391F  FF13              call near [ebx]
00003921  0000              add [eax],al
00003923  0000              add [eax],al
00003925  0000              add [eax],al
00003927  0000              add [eax],al
00003929  0000              add [eax],al
0000392B  000400            add [eax+eax],al
0000392E  F1                int1
0000392F  FF1E              call far [esi]
00003931  0000              add [eax],al
00003933  0030              add [eax],dh
00003935  B704              mov bh,0x4
00003937  0800              or [eax],al
00003939  0000              add [eax],al
0000393B  0001              add [ecx],al
0000393D  0012              add [edx],dl
0000393F  002C00            add [eax+eax],ch
00003942  0000              add [eax],al
00003944  38B704080000      cmp [edi+0x804],dh
0000394A  0000              add [eax],al
0000394C  0100              add [eax],eax
0000394E  1300              adc eax,[eax]
00003950  3A00              cmp al,[eax]
00003952  0000              add [eax],al
00003954  40                inc eax
00003955  B704              mov bh,0x4
00003957  0800              or [eax],al
00003959  0000              add [eax],al
0000395B  0001              add [ecx],al
0000395D  001400            add [eax+eax],dl
00003960  47                inc edi
00003961  0000              add [eax],al
00003963  0030              add [eax],dh
00003965  890408            mov [eax+ecx],eax
00003968  0000              add [eax],al
0000396A  0000              add [eax],al
0000396C  0200              add al,[eax]
0000396E  0C00              or al,0x0
00003970  5C                pop esp
00003971  0000              add [eax],al
00003973  006089            add [eax-0x77],ah
00003976  0408              add al,0x8
00003978  0000              add [eax],al
0000397A  0000              add [eax],al
0000397C  0200              add al,[eax]
0000397E  0C00              or al,0x0
00003980  6F                outsd
00003981  0000              add [eax],al
00003983  00A089040800      add [eax+0x80489],ah
00003989  0000              add [eax],al
0000398B  0002              add [edx],al
0000398D  000C00            add [eax+eax],cl
00003990  8500              test [eax],eax
00003992  0000              add [eax],al
00003994  88B804080100      mov [eax+0x10804],bh
0000399A  0000              add [eax],al
0000399C  0100              add [eax],eax
0000399E  1900              sbb [eax],eax
000039A0  94                xchg eax,esp
000039A1  0000              add [eax],al
000039A3  008CB804080400    add [eax+edi*4+0x40804],cl
000039AA  0000              add [eax],al
000039AC  0100              add [eax],eax
000039AE  1900              sbb [eax],eax
000039B0  A2000000F0        mov [0xf0000000],al
000039B5  890408            mov [eax+ecx],eax
000039B8  0000              add [eax],al
000039BA  0000              add [eax],al
000039BC  0200              add al,[eax]
000039BE  0C00              or al,0x0
000039C0  1300              adc eax,[eax]
000039C2  0000              add [eax],al
000039C4  0000              add [eax],al
000039C6  0000              add [eax],al
000039C8  0000              add [eax],al
000039CA  0000              add [eax],al
000039CC  0400              add al,0x0
000039CE  F1                int1
000039CF  FFAE00000034      jmp far [esi+0x34000000]
000039D5  B704              mov bh,0x4
000039D7  0800              or [eax],al
000039D9  0000              add [eax],al
000039DB  0001              add [ecx],al
000039DD  0012              add [edx],dl
000039DF  00BB00000074      add [ebx+0x74000000],bh
000039E5  A6                cmpsb
000039E6  0408              add al,0x8
000039E8  0000              add [eax],al
000039EA  0000              add [eax],al
000039EC  0100              add [eax],eax
000039EE  1000              adc [eax],al
000039F0  C9                leave
000039F1  0000              add [eax],al
000039F3  0040B7            add [eax-0x49],al
000039F6  0408              add al,0x8
000039F8  0000              add [eax],al
000039FA  0000              add [eax],al
000039FC  0100              add [eax],eax
000039FE  1400              adc al,0x0
00003A00  D500              aad 0x0
00003A02  0000              add [eax],al
00003A04  E09C              loopne 0x39a2
00003A06  0408              add al,0x8
00003A08  0000              add [eax],al
00003A0A  0000              add [eax],al
00003A0C  0200              add al,[eax]
00003A0E  0C00              or al,0x0
00003A10  0800              or [eax],al
00003A12  0000              add [eax],al
00003A14  0000              add [eax],al
00003A16  0000              add [eax],al
00003A18  0000              add [eax],al
00003A1A  0000              add [eax],al
00003A1C  0400              add al,0x0
00003A1E  F1                int1
00003A1F  FF                db 0xFF
00003A20  EB00              jmp short 0x3a22
00003A22  0000              add [eax],al
00003A24  0000              add [eax],al
00003A26  0000              add [eax],al
00003A28  0000              add [eax],al
00003A2A  0000              add [eax],al
00003A2C  0400              add al,0x0
00003A2E  F1                int1
00003A2F  FF0401            inc dword [ecx+eax]
00003A32  0000              add [eax],al
00003A34  0000              add [eax],al
00003A36  0000              add [eax],al
00003A38  0000              add [eax],al
00003A3A  0000              add [eax],al
00003A3C  0400              add al,0x0
00003A3E  F1                int1
00003A3F  FF00              inc dword [eax]
00003A41  0000              add [eax],al
00003A43  0000              add [eax],al
00003A45  0000              add [eax],al
00003A47  0000              add [eax],al
00003A49  0000              add [eax],al
00003A4B  000400            add [eax+eax],al
00003A4E  F1                int1
00003A4F  FF0F              dec dword [edi]
00003A51  0100              add [eax],eax
00003A53  0028              add [eax],ch
00003A55  B804080000        mov eax,0x804
00003A5A  0000              add [eax],al
00003A5C  0100              add [eax],eax
00003A5E  17                pop ss
00003A5F  002501000030      add [0x30000001],ah
00003A65  B704              mov bh,0x4
00003A67  0800              or [eax],al
00003A69  0000              add [eax],al
00003A6B  0000              add [eax],al
00003A6D  0012              add [edx],dl
00003A6F  0036              add [esi],dh
00003A71  0100              add [eax],eax
00003A73  0030              add [eax],dh
00003A75  B704              mov bh,0x4
00003A77  0800              or [eax],al
00003A79  0000              add [eax],al
00003A7B  0000              add [eax],al
00003A7D  0012              add [edx],dl
00003A7F  004901            add [ecx+0x1],cl
00003A82  0000              add [eax],al
00003A84  44                inc esp
00003A85  B704              mov bh,0x4
00003A87  0800              or [eax],al
00003A89  0000              add [eax],al
00003A8B  0001              add [ecx],al
00003A8D  001500520100      add [0x15200],dl
00003A93  0080B8040800      add [eax+0x804b8],al
00003A99  0000              add [eax],al
00003A9B  0020              add [eax],ah
00003A9D  0018              add [eax],bl
00003A9F  005D01            add [ebp+0x1],bl
00003AA2  0000              add [eax],al
00003AA4  329904081A00      xor bl,[ecx+0x1a0804]
00003AAA  0000              add [eax],al
00003AAC  2200              and al,[eax]
00003AAE  0C00              or al,0x0
00003AB0  7501              jnz 0x3ab3
00003AB2  0000              add [eax],al
00003AB4  82                db 0x82
00003AB5  96                xchg eax,esi
00003AB6  0408              add al,0x8
00003AB8  2B00              sub eax,[eax]
00003ABA  0000              add [eax],al
00003ABC  2200              and al,[eax]
00003ABE  0C00              or al,0x0
00003AC0  8B01              mov eax,[ecx]
00003AC2  0000              add [eax],al
00003AC4  FF9904082100      call far [ecx+0x210804]
00003ACA  0000              add [eax],al
00003ACC  2200              and al,[eax]
00003ACE  0C00              or al,0x0
00003AD0  0102              add [edx],eax
00003AD2  0000              add [eax],al
00003AD4  0000              add [eax],al
00003AD6  0000              add [eax],al
00003AD8  0000              add [eax],al
00003ADA  0000              add [eax],al
00003ADC  1200              adc al,[eax]
00003ADE  0000              add [eax],al
00003AE0  1802              sbb [edx],al
00003AE2  0000              add [eax],al
00003AE4  7498              jz 0x3a7e
00003AE6  0408              add al,0x8
00003AE8  37                aaa
00003AE9  0000              add [eax],al
00003AEB  0022              add [edx],ah
00003AED  000C00            add [eax+eax],cl
00003AF0  4A                dec edx
00003AF1  0200              add al,[eax]
00003AF3  00709C            add [eax-0x64],dh
00003AF6  0408              add al,0x8
00003AF8  0500000012        add eax,0x12000000
00003AFD  000C00            add [eax+eax],cl
00003B00  5A                pop edx
00003B01  0200              add al,[eax]
00003B03  00BA96040813      add [edx+0x13080496],bh
00003B09  0000              add [eax],al
00003B0B  0022              add [edx],ah
00003B0D  000C00            add [eax+eax],cl
00003B10  8802              mov [edx],al
00003B12  0000              add [eax],al
00003B14  FC                cld
00003B15  9B                wait
00003B16  0408              add al,0x8
00003B18  1500000022        adc eax,0x22000000
00003B1D  000C00            add [eax+eax],cl
00003B20  E102              loope 0x3b24
00003B22  0000              add [eax],al
00003B24  008904080000      add [ecx+0x804],cl
00003B2A  0000              add [eax],al
00003B2C  1200              adc al,[eax]
00003B2E  0C00              or al,0x0
00003B30  E8020000AC        call 0xac003b37
00003B35  98                cwde
00003B36  0408              add al,0x8
00003B38  3D00000022        cmp eax,0x22000000
00003B3D  000C00            add [eax+eax],cl
00003B40  1903              sbb [ebx],eax
00003B42  0000              add [eax],al
00003B44  F1                int1
00003B45  97                xchg eax,edi
00003B46  0408              add al,0x8
00003B48  0800              or [eax],al
00003B4A  0000              add [eax],al
00003B4C  2200              and al,[eax]
00003B4E  0C00              or al,0x0
00003B50  57                push edi
00003B51  0300              add eax,[eax]
00003B53  0018              add [eax],bl
00003B55  97                xchg eax,edi
00003B56  0408              add al,0x8
00003B58  5F                pop edi
00003B59  0000              add [eax],al
00003B5B  0022              add [edx],ah
00003B5D  000C00            add [eax+eax],cl
00003B60  7703              ja 0x3b65
00003B62  0000              add [eax],al
00003B64  A0950408B7        mov al,[0xb7080495]
00003B69  0000              add [eax],al
00003B6B  0022              add [edx],ah
00003B6D  000C00            add [eax+eax],cl
00003B70  94                xchg eax,esp
00003B71  0300              add eax,[eax]
00003B73  0000              add [eax],al
00003B75  0000              add [eax],al
00003B77  0000              add [eax],al
00003B79  0000              add [eax],al
00003B7B  0020              add [eax],ah
00003B7D  0000              add [eax],al
00003B7F  00A303000000      add [ebx+0x3],ah
00003B85  0000              add [eax],al
00003B87  0000              add [eax],al
00003B89  0000              add [eax],al
00003B8B  0020              add [eax],ah
00003B8D  0000              add [eax],al
00003B8F  00B7030000F4      add [edi+0xf4000003],dh
00003B95  9B                wait
00003B96  0408              add al,0x8
00003B98  0800              or [eax],al
00003B9A  0000              add [eax],al
00003B9C  2200              and al,[eax]
00003B9E  0C00              or al,0x0
00003BA0  DD03              fld qword [ebx]
00003BA2  0000              add [eax],al
00003BA4  249D              and al,0x9d
00003BA6  0408              add al,0x8
00003BA8  0400              add al,0x0
00003BAA  0000              add [eax],al
00003BAC  1100              adc [eax],eax
00003BAE  0E                push cs
00003BAF  00E4              add ah,ah
00003BB1  0300              add eax,[eax]
00003BB3  0000              add [eax],al
00003BB5  0000              add [eax],al
00003BB7  0000              add [eax],al
00003BB9  0000              add [eax],al
00003BBB  0012              add [edx],dl
00003BBD  0000              add [eax],al
00003BBF  00F8              add al,bh
00003BC1  0300              add eax,[eax]
00003BC3  0008              add [eax],cl
00003BC5  9D                popf
00003BC6  0408              add al,0x8
00003BC8  0000              add [eax],al
00003BCA  0000              add [eax],al
00003BCC  1200              adc al,[eax]
00003BCE  0D00FE0300        or eax,0x3fe00
00003BD3  00BE9704081A      add [esi+0x1a080497],bh
00003BD9  0000              add [eax],al
00003BDB  0022              add [edx],ah
00003BDD  000C00            add [eax+eax],cl
00003BE0  1F                pop ds
00003BE1  0400              add al,0x0
00003BE3  004C9904          add [ecx+ebx*4+0x4],cl
00003BE7  080F              or [edi],cl
00003BE9  0000              add [eax],al
00003BEB  0022              add [edx],ah
00003BED  000C00            add [eax+eax],cl
00003BF0  5E                pop esi
00003BF1  0400              add al,0x0
00003BF3  00AE96040805      add [esi+0x5080496],ch
00003BF9  0000              add [eax],al
00003BFB  0022              add [edx],ah
00003BFD  000C00            add [eax+eax],cl
00003C00  82                db 0x82
00003C01  0400              add al,0x0
00003C03  00A99404080D      add [ecx+0xd080494],ch
00003C09  0000              add [eax],al
00003C0B  0022              add [edx],ah
00003C0D  000C00            add [eax+eax],cl
00003C10  9C                pushf
00003C11  0400              add al,0x0
00003C13  005B9B            add [ebx-0x65],bl
00003C16  0408              add al,0x8
00003C18  1300              adc eax,[eax]
00003C1A  0000              add [eax],al
00003C1C  2200              and al,[eax]
00003C1E  0C00              or al,0x0
00003C20  DA0400            fiadd dword [eax+eax]
00003C23  00FA              add dl,bh
00003C25  99                cdq
00003C26  0408              add al,0x8
00003C28  0500000022        add eax,0x22000000
00003C2D  000C00            add [eax+eax],cl
00003C30  090500000000      or [0x0],eax
00003C36  0000              add [eax],al
00003C38  0000              add [eax],al
00003C3A  0000              add [eax],al
00003C3C  1200              adc al,[eax]
00003C3E  0000              add [eax],al
00003C40  26050000A095      es add eax,0x95a00000
00003C46  0408              add al,0x8
00003C48  B700              mov bh,0x0
00003C4A  0000              add [eax],al
00003C4C  2200              and al,[eax]
00003C4E  0C00              or al,0x0
00003C50  43                inc ebx
00003C51  050000CA94        add eax,0x94ca0000
00003C56  0408              add al,0x8
00003C58  1300              adc eax,[eax]
00003C5A  0000              add [eax],al
00003C5C  2200              and al,[eax]
00003C5E  0C00              or al,0x0
00003C60  50                push eax
00003C61  0500007C99        add eax,0x997c0000
00003C66  0408              add al,0x8
00003C68  1A00              sbb al,[eax]
00003C6A  0000              add [eax],al
00003C6C  2200              and al,[eax]
00003C6E  0C00              or al,0x0
00003C70  60                pusha
00003C71  050000B694        add eax,0x94b60000
00003C76  0408              add al,0x8
00003C78  1300              adc eax,[eax]
00003C7A  0000              add [eax],al
00003C7C  2200              and al,[eax]
00003C7E  0C00              or al,0x0
00003C80  6D                insd
00003C81  0500008E95        add eax,0x958e0000
00003C86  0408              add al,0x8
00003C88  1200              adc al,[eax]
00003C8A  0000              add [eax],al
00003C8C  2200              and al,[eax]
00003C8E  0C00              or al,0x0
00003C90  86050000DE94      xchg al,[0x94de0000]
00003C96  0408              add al,0x8
00003C98  58                pop eax
00003C99  0000              add [eax],al
00003C9B  0022              add [edx],ah
00003C9D  000C00            add [eax+eax],cl
00003CA0  A7                cmpsd
00003CA1  050000EA98        add eax,0x98ea0000
00003CA6  0408              add al,0x8
00003CA8  27                daa
00003CA9  0000              add [eax],al
00003CAB  0022              add [edx],ah
00003CAD  000C00            add [eax+eax],cl
00003CB0  D6                salc
00003CB1  0500000000        add eax,0x0
00003CB6  0000              add [eax],al
00003CB8  0000              add [eax],al
00003CBA  0000              add [eax],al
00003CBC  2000              and [eax],al
00003CBE  0000              add [eax],al
00003CC0  F20500000000      repne add eax,0x0
00003CC6  0000              add [eax],al
00003CC8  0000              add [eax],al
00003CCA  0000              add [eax],al
00003CCC  1200              adc al,[eax]
00003CCE  0000              add [eax],al
00003CD0  37                aaa
00003CD1  06                push es
00003CD2  0000              add [eax],al
00003CD4  5B                pop ebx
00003CD5  99                cdq
00003CD6  0408              add al,0x8
00003CD8  2100              and [eax],eax
00003CDA  0000              add [eax],al
00003CDC  2200              and al,[eax]
00003CDE  0C00              or al,0x0
00003CE0  94                xchg eax,esp
00003CE1  06                push es
00003CE2  0000              add [eax],al
00003CE4  289D04080400      sub [ebp+0x40804],bl
00003CEA  0000              add [eax],al
00003CEC  1100              adc [eax],eax
00003CEE  0E                push cs
00003CEF  00A3060000DE      add [ebx+0xde000006],ah
00003CF5  94                xchg eax,esp
00003CF6  0408              add al,0x8
00003CF8  58                pop eax
00003CF9  0000              add [eax],al
00003CFB  0022              add [edx],ah
00003CFD  000C00            add [eax+eax],cl
00003D00  C406              les eax,[esi]
00003D02  0000              add [eax],al
00003D04  FA                cli
00003D05  97                xchg eax,edi
00003D06  0408              add al,0x8
00003D08  0800              or [eax],al
00003D0A  0000              add [eax],al
00003D0C  2200              and al,[eax]
00003D0E  0C00              or al,0x0
00003D10  F8                clc
00003D11  06                push es
00003D12  0000              add [eax],al
00003D14  209A04080500      and [edx+0x50804],bl
00003D1A  0000              add [eax],al
00003D1C  2200              and al,[eax]
00003D1E  0C00              or al,0x0
00003D20  2007              and [edi],al
00003D22  0000              add [eax],al
00003D24  0000              add [eax],al
00003D26  0000              add [eax],al
00003D28  0000              add [eax],al
00003D2A  0000              add [eax],al
00003D2C  2000              and [eax],al
00003D2E  0000              add [eax],al
00003D30  3A07              cmp al,[edi]
00003D32  0000              add [eax],al
00003D34  80B80408000000    cmp byte [eax+0x804],0x0
00003D3B  0010              add [eax],dl
00003D3D  0018              add [eax],bl
00003D3F  004707            add [edi+0x7],al
00003D42  0000              add [eax],al
00003D44  B496              mov ah,0x96
00003D46  0408              add al,0x8
00003D48  0500000022        add eax,0x22000000
00003D4D  000C00            add [eax+eax],cl
00003D50  6B0700            imul eax,[edi],byte +0x0
00003D53  0011              add [ecx],dl
00003D55  99                cdq
00003D56  0408              add al,0x8
00003D58  2100              and [eax],eax
00003D5A  0000              add [eax],al
00003D5C  2200              and al,[eax]
00003D5E  0C00              or al,0x0
00003D60  A4                movsb
00003D61  07                pop es
00003D62  0000              add [eax],al
00003D64  029804082700      add bl,[eax+0x270804]
00003D6A  0000              add [eax],al
00003D6C  2200              and al,[eax]
00003D6E  0C00              or al,0x0
00003D70  C20700            ret 0x7
00003D73  00CA              add dl,cl
00003D75  94                xchg eax,esp
00003D76  0408              add al,0x8
00003D78  1300              adc eax,[eax]
00003D7A  0000              add [eax],al
00003D7C  2200              and al,[eax]
00003D7E  0C00              or al,0x0
00003D80  CF                iret
00003D81  07                pop es
00003D82  0000              add [eax],al
00003D84  269A040830000000  es call 0x0:0x300804
00003D8C  2200              and al,[eax]
00003D8E  0C00              or al,0x0
00003D90  FD                std
00003D91  07                pop es
00003D92  0000              add [eax],al
00003D94  BA96040813        mov edx,0x13080496
00003D99  0000              add [eax],al
00003D9B  0022              add [edx],ah
00003D9D  000C00            add [eax+eax],cl
00003DA0  2B08              sub ecx,[eax]
00003DA2  0000              add [eax],al
00003DA4  3695              ss xchg eax,ebp
00003DA6  0408              add al,0x8
00003DA8  57                push edi
00003DA9  0000              add [eax],al
00003DAB  0022              add [edx],ah
00003DAD  000C00            add [eax+eax],cl
00003DB0  44                inc esp
00003DB1  0800              or [eax],al
00003DB3  002A              add [edx],ch
00003DB5  98                cwde
00003DB6  0408              add al,0x8
00003DB8  2800              sub [eax],al
00003DBA  0000              add [eax],al
00003DBC  2200              and al,[eax]
00003DBE  0C00              or al,0x0
00003DC0  60                pusha
00003DC1  0800              or [eax],al
00003DC3  00CC              add ah,cl
00003DC5  9A040829000000    call 0x0:0x290804
00003DCC  2200              and al,[eax]
00003DCE  0C00              or al,0x0
00003DD0  7F08              jg 0x3dda
00003DD2  0000              add [eax],al
00003DD4  57                push edi
00003DD5  96                xchg eax,esi
00003DD6  0408              add al,0x8
00003DD8  2B00              sub eax,[eax]
00003DDA  0000              add [eax],al
00003DDC  2200              and al,[eax]
00003DDE  0C00              or al,0x0
00003DE0  95                xchg eax,ebp
00003DE1  0800              or [eax],al
00003DE3  00779A            add [edi-0x66],dh
00003DE6  0408              add al,0x8
00003DE8  4B                dec ebx
00003DE9  0000              add [eax],al
00003DEB  0022              add [edx],ah
00003DED  000C00            add [eax+eax],cl
00003DF0  E308              jecxz 0x3dfa
00003DF2  0000              add [eax],al
00003DF4  D89704081900      fcom dword [edi+0x190804]
00003DFA  0000              add [eax],al
00003DFC  2200              and al,[eax]
00003DFE  0C00              or al,0x0
00003E00  0009              add [ecx],cl
00003E02  0000              add [eax],al
00003E04  119C0408490000    adc [esp+eax+0x4908],ebx
00003E0B  0022              add [edx],ah
00003E0D  000C00            add [eax+eax],cl
00003E10  56                push esi
00003E11  0900              or [eax],eax
00003E13  0088B8040800      add [eax+0x804b8],cl
00003E19  0000              add [eax],al
00003E1B  0011              add [ecx],dl
00003E1D  0218              add bl,[eax]
00003E1F  006209            add [edx+0x9],ah
00003E22  0000              add [eax],al
00003E24  0000              add [eax],al
00003E26  0000              add [eax],al
00003E28  0000              add [eax],al
00003E2A  0000              add [eax],al
00003E2C  1200              adc al,[eax]
00003E2E  0000              add [eax],al
00003E30  9E                sahf
00003E31  0900              or [eax],eax
00003E33  0084B804080000    add [eax+edi*4+0x804],al
00003E3A  0000              add [eax],al
00003E3C  1102              adc [edx],eax
00003E3E  1800              sbb [eax],al
00003E40  AB                stosd
00003E41  0900              or [eax],eax
00003E43  0018              add [eax],bl
00003E45  97                xchg eax,edi
00003E46  0408              add al,0x8
00003E48  5F                pop edi
00003E49  0000              add [eax],al
00003E4B  0022              add [edx],ah
00003E4D  000C00            add [eax+eax],cl
00003E50  CB                retf
00003E51  0900              or [eax],eax
00003E53  00BC9B04081300    add [ebx+ebx*4+0x130804],bh
00003E5A  0000              add [eax],al
00003E5C  2200              and al,[eax]
00003E5E  0C00              or al,0x0
00003E60  3C0A              cmp al,0xa
00003E62  0000              add [eax],al
00003E64  3CB7              cmp al,0xb7
00003E66  0408              add al,0x8
00003E68  0000              add [eax],al
00003E6A  0000              add [eax],al
00003E6C  1102              adc [edx],eax
00003E6E  1300              adc eax,[eax]
00003E70  49                dec ecx
00003E71  0A00              or al,[eax]
00003E73  00809C04085A      add [eax+0x5a08049c],al
00003E79  0000              add [eax],al
00003E7B  0012              add [edx],dl
00003E7D  000C00            add [eax+eax],cl
00003E80  59                pop ecx
00003E81  0A00              or al,[eax]
00003E83  0000              add [eax],al
00003E85  0000              add [eax],al
00003E87  0000              add [eax],al
00003E89  0000              add [eax],al
00003E8B  0012              add [edx],dl
00003E8D  0000              add [eax],al
00003E8F  00950A000017      add [ebp+0x1700000a],dl
00003E95  9B                wait
00003E96  0408              add al,0x8
00003E98  44                inc esp
00003E99  0000              add [eax],al
00003E9B  0022              add [edx],ah
00003E9D  000C00            add [eax+eax],cl
00003EA0  F30A00            rep or al,[eax]
00003EA3  0000              add [eax],al
00003EA5  0000              add [eax],al
00003EA7  0000              add [eax],al
00003EA9  0000              add [eax],al
00003EAB  0012              add [edx],dl
00003EAD  0000              add [eax],al
00003EAF  0006              add [esi],al
00003EB1  0B00              or eax,[eax]
00003EB3  00749804          add [eax+ebx*4+0x4],dh
00003EB7  0837              or [edi],dh
00003EB9  0000              add [eax],al
00003EBB  0022              add [edx],ah
00003EBD  000C00            add [eax+eax],cl
00003EC0  380B              cmp [ebx],cl
00003EC2  0000              add [eax],al
00003EC4  96                xchg eax,esi
00003EC5  99                cdq
00003EC6  0408              add al,0x8
00003EC8  2F                das
00003EC9  0000              add [eax],al
00003ECB  0022              add [edx],ah
00003ECD  000C00            add [eax+eax],cl
00003ED0  630B              arpl [ebx],cx
00003ED2  0000              add [eax],al
00003ED4  52                push edx
00003ED5  98                cwde
00003ED6  0408              add al,0x8
00003ED8  2100              and [eax],eax
00003EDA  0000              add [eax],al
00003EDC  2200              and al,[eax]
00003EDE  0C00              or al,0x0
00003EE0  CD0B              int 0xb
00003EE2  0000              add [eax],al
00003EE4  7897              js 0x3e7d
00003EE6  0408              add al,0x8
00003EE8  3E0000            add [ds:eax],al
00003EEB  0022              add [edx],ah
00003EED  000C00            add [eax+eax],cl
00003EF0  FB                sti
00003EF1  0B00              or eax,[eax]
00003EF3  0088B8040800      add [eax+0x804b8],cl
00003EF9  0000              add [eax],al
00003EFB  0010              add [eax],dl
00003EFD  0019              add [ecx],bl
00003EFF  0007              add [edi],al
00003F01  0C00              or al,0x0
00003F03  006E9B            add [esi-0x65],ch
00003F06  0408              add al,0x8
00003F08  3C00              cmp al,0x0
00003F0A  0000              add [eax],al
00003F0C  2200              and al,[eax]
00003F0E  0C00              or al,0x0
00003F10  6D                insd
00003F11  0C00              or al,0x0
00003F13  00CE              add dh,cl
00003F15  96                xchg eax,esi
00003F16  0408              add al,0x8
00003F18  4A                dec edx
00003F19  0000              add [eax],al
00003F1B  0022              add [edx],ah
00003F1D  000C00            add [eax+eax],cl
00003F20  92                xchg eax,edx
00003F21  0C00              or al,0x0
00003F23  004C9904          add [ecx+ebx*4+0x4],cl
00003F27  080F              or [edi],cl
00003F29  0000              add [eax],al
00003F2B  0022              add [edx],ah
00003F2D  000C00            add [eax+eax],cl
00003F30  D10C00            ror dword [eax+eax],1
00003F33  00F5              add ch,dh
00003F35  9A040822000000    call 0x0:0x220804
00003F3C  2200              and al,[eax]
00003F3E  0C00              or al,0x0
00003F40  42                inc edx
00003F41  0D0000B697        or eax,0x97b60000
00003F46  0408              add al,0x8
00003F48  0800              or [eax],al
00003F4A  0000              add [eax],al
00003F4C  2200              and al,[eax]
00003F4E  0C00              or al,0x0
00003F50  750D              jnz 0x3f5f
00003F52  0000              add [eax],al
00003F54  0000              add [eax],al
00003F56  0000              add [eax],al
00003F58  0000              add [eax],al
00003F5A  0000              add [eax],al
00003F5C  1200              adc al,[eax]
00003F5E  0000              add [eax],al
00003F60  8D0D0000C29A      lea ecx,[0x9ac20000]
00003F66  0408              add al,0x8
00003F68  0A00              or al,[eax]
00003F6A  0000              add [eax],al
00003F6C  2200              and al,[eax]
00003F6E  0C00              or al,0x0
00003F70  B90D000000        mov ecx,0xd
00003F75  0000              add [eax],al
00003F77  0000              add [eax],al
00003F79  0000              add [eax],al
00003F7B  0012              add [edx],dl
00003F7D  0000              add [eax],al
00003F7F  00CC              add ah,cl
00003F81  0D00000000        or eax,0x0
00003F86  0000              add [eax],al
00003F88  0000              add [eax],al
00003F8A  0000              add [eax],al
00003F8C  1200              adc al,[eax]
00003F8E  0000              add [eax],al
00003F90  1B0E              sbb ecx,[esi]
00003F92  0000              add [eax],al
00003F94  B496              mov ah,0x96
00003F96  0408              add al,0x8
00003F98  0500000022        add eax,0x22000000
00003F9D  000C00            add [eax+eax],cl
00003FA0  3F                aas
00003FA1  0E                push cs
00003FA2  0000              add [eax],al
00003FA4  0000              add [eax],al
00003FA6  0000              add [eax],al
00003FA8  0000              add [eax],al
00003FAA  0000              add [eax],al
00003FAC  1200              adc al,[eax]
00003FAE  0000              add [eax],al
00003FB0  56                push esi
00003FB1  0E                push cs
00003FB2  0000              add [eax],al
00003FB4  90                nop
00003FB5  B804080000        mov eax,0x804
00003FBA  0000              add [eax],al
00003FBC  1000              adc [eax],al
00003FBE  1900              sbb [eax],eax
00003FC0  5B                pop ebx
00003FC1  0E                push cs
00003FC2  0000              add [eax],al
00003FC4  0000              add [eax],al
00003FC6  0000              add [eax],al
00003FC8  0000              add [eax],al
00003FCA  0000              add [eax],al
00003FCC  1200              adc al,[eax]
00003FCE  0000              add [eax],al
00003FD0  790E              jns 0x3fe0
00003FD2  0000              add [eax],al
00003FD4  3695              ss xchg eax,ebp
00003FD6  0408              add al,0x8
00003FD8  57                push edi
00003FD9  0000              add [eax],al
00003FDB  0022              add [edx],ah
00003FDD  000C00            add [eax+eax],cl
00003FE0  92                xchg eax,edx
00003FE1  0E                push cs
00003FE2  0000              add [eax],al
00003FE4  0000              add [eax],al
00003FE6  0000              add [eax],al
00003FE8  0000              add [eax],al
00003FEA  0000              add [eax],al
00003FEC  1200              adc al,[eax]
00003FEE  0000              add [eax],al
00003FF0  E10E              loope 0x4000
00003FF2  0000              add [eax],al
00003FF4  0000              add [eax],al
00003FF6  0000              add [eax],al
00003FF8  0000              add [eax],al
00003FFA  0000              add [eax],al
00003FFC  1200              adc al,[eax]
00003FFE  0000              add [eax],al
00004000  07                pop es
00004001  0F0000            sldt [eax]
00004004  AE                scasb
00004005  96                xchg eax,esi
00004006  0408              add al,0x8
00004008  0500000022        add eax,0x22000000
0000400D  000C00            add [eax+eax],cl
00004010  2B0F              sub ecx,[edi]
00004012  0000              add [eax],al
00004014  D99904082100      fstp dword [ecx+0x210804]
0000401A  0000              add [eax],al
0000401C  2200              and al,[eax]
0000401E  0C00              or al,0x0
00004020  57                push edi
00004021  0F0000            sldt [eax]
00004024  CE                into
00004025  96                xchg eax,esi
00004026  0408              add al,0x8
00004028  4A                dec edx
00004029  0000              add [eax],al
0000402B  0022              add [edx],ah
0000402D  000C00            add [eax+eax],cl
00004030  7C0F              jl 0x4041
00004032  0000              add [eax],al
00004034  0000              add [eax],al
00004036  0000              add [eax],al
00004038  0000              add [eax],al
0000403A  0000              add [eax],al
0000403C  1200              adc al,[eax]
0000403E  0000              add [eax],al
00004040  94                xchg eax,esp
00004041  0F0000            sldt [eax]
00004044  56                push esi
00004045  9A040821000000    call 0x0:0x210804
0000404C  2200              and al,[eax]
0000404E  0C00              or al,0x0
00004050  DB0F              fisttp word [edi]
00004052  0000              add [eax],al
00004054  D08804080000      ror byte [eax+0x804],1
0000405A  0000              add [eax],al
0000405C  1200              adc al,[eax]
0000405E  0000              add [eax],al
00004060  2310              and edx,[eax]
00004062  0000              add [eax],al
00004064  209A04080500      and [edx+0x50804],bl
0000406A  0000              add [eax],al
0000406C  2200              and al,[eax]
0000406E  0C00              or al,0x0
00004070  4B                dec ebx
00004071  1000              adc [eax],al
00004073  0088B8040800      add [eax+0x804b8],cl
00004079  0000              add [eax],al
0000407B  0010              add [eax],dl
0000407D  0018              add [eax],bl
0000407F  005210            add [edx+0x10],dl
00004082  0000              add [eax],al
00004084  E088              loopne 0x400e
00004086  0408              add al,0x8
00004088  0000              add [eax],al
0000408A  0000              add [eax],al
0000408C  1200              adc al,[eax]
0000408E  0000              add [eax],al
00004090  7310              jnc 0x40a2
00004092  0000              add [eax],al
00004094  B694              mov dh,0x94
00004096  0408              add al,0x8
00004098  1300              adc eax,[eax]
0000409A  0000              add [eax],al
0000409C  2200              and al,[eax]
0000409E  0C00              or al,0x0
000040A0  801000            adc byte [eax],0x0
000040A3  005A9C            add [edx-0x64],bl
000040A6  0408              add al,0x8
000040A8  0800              or [eax],al
000040AA  0000              add [eax],al
000040AC  2200              and al,[eax]
000040AE  0C00              or al,0x0
000040B0  BF10000000        mov edi,0x10
000040B5  0000              add [eax],al
000040B7  0000              add [eax],al
000040B9  0000              add [eax],al
000040BB  0012              add [edx],dl
000040BD  0000              add [eax],al
000040BF  00D7              add bh,dl
000040C1  1000              adc [eax],al
000040C3  00CF              add bh,cl
000040C5  9B                wait
000040C6  0408              add al,0x8
000040C8  2500000022        and eax,0x22000000
000040CD  000C00            add [eax+eax],cl
000040D0  0211              add dl,[ecx]
000040D2  0000              add [eax],al
000040D4  7C99              jl 0x406f
000040D6  0408              add al,0x8
000040D8  1A00              sbb al,[eax]
000040DA  0000              add [eax],al
000040DC  2200              and al,[eax]
000040DE  0C00              or al,0x0
000040E0  1211              adc dl,[ecx]
000040E2  0000              add [eax],al
000040E4  C6                db 0xC6
000040E5  99                cdq
000040E6  0408              add al,0x8
000040E8  1300              adc eax,[eax]
000040EA  0000              add [eax],al
000040EC  2200              and al,[eax]
000040EE  0C00              or al,0x0
000040F0  42                inc edx
000040F1  1100              adc [eax],eax
000040F3  00AA9B040812      add [edx+0x1208049b],ch
000040F9  0000              add [eax],al
000040FB  0022              add [edx],ah
000040FD  000C00            add [eax+eax],cl
00004100  9B                wait
00004101  1100              adc [eax],eax
00004103  00DA              add dl,bl
00004105  9C                pushf
00004106  0408              add al,0x8
00004108  0000              add [eax],al
0000410A  0000              add [eax],al
0000410C  1202              adc al,[edx]
0000410E  0C00              or al,0x0
00004110  B211              mov dl,0x11
00004112  0000              add [eax],al
00004114  208A0408890A      and [edx+0xa890804],cl
0000411A  0000              add [eax],al
0000411C  1200              adc al,[eax]
0000411E  0C00              or al,0x0
00004120  B711              mov bh,0x11
00004122  0000              add [eax],al
00004124  8C8704080000      mov [edi+0x804],es
0000412A  0000              add [eax],al
0000412C  1200              adc al,[eax]
0000412E  0A00              or al,[eax]
00004130  00696E            add [ecx+0x6e],ch
00004133  69742E6300696E69  imul esi,[esi+ebp+0x63],dword 0x696e6900
0000413B  7466              jz 0x41a3
0000413D  696E692E630063    imul ebp,[esi+0x69],dword 0x6300632e
00004144  7274              jc 0x41ba
00004146  7374              jnc 0x41bc
00004148  7566              jnz 0x41b0
0000414A  662E6300          o16 arpl [cs:eax],ax
0000414E  5F                pop edi
0000414F  5F                pop edi
00004150  43                inc ebx
00004151  54                push esp
00004152  4F                dec edi
00004153  52                push edx
00004154  5F                pop edi
00004155  4C                dec esp
00004156  49                dec ecx
00004157  53                push ebx
00004158  54                push esp
00004159  5F                pop edi
0000415A  5F                pop edi
0000415B  005F5F            add [edi+0x5f],bl
0000415E  44                inc esp
0000415F  54                push esp
00004160  4F                dec edi
00004161  52                push edx
00004162  5F                pop edi
00004163  4C                dec esp
00004164  49                dec ecx
00004165  53                push ebx
00004166  54                push esp
00004167  5F                pop edi
00004168  5F                pop edi
00004169  005F5F            add [edi+0x5f],bl
0000416C  4A                dec edx
0000416D  43                inc ebx
0000416E  52                push edx
0000416F  5F                pop edi
00004170  4C                dec esp
00004171  49                dec ecx
00004172  53                push ebx
00004173  54                push esp
00004174  5F                pop edi
00004175  5F                pop edi
00004176  00646572          add [ebp+0x72],ah
0000417A  656769737465725F  imul esi,[gs:bp+di+0x74],dword 0x745f7265
         -74
00004183  6D                insd
00004184  5F                pop edi
00004185  636C6F6E          arpl [edi+ebp*2+0x6e],bp
00004189  657300            gs jnc 0x418c
0000418C  7265              jc 0x41f3
0000418E  6769737465725F74  imul esi,[bp+di+0x74],dword 0x745f7265
00004196  6D                insd
00004197  5F                pop edi
00004198  636C6F6E          arpl [edi+ebp*2+0x6e],bp
0000419C  657300            gs jnc 0x419f
0000419F  5F                pop edi
000041A0  5F                pop edi
000041A1  646F              fs outsd
000041A3  5F                pop edi
000041A4  676C              a16 insb
000041A6  6F                outsd
000041A7  62616C            bound esp,[ecx+0x6c]
000041AA  5F                pop edi
000041AB  64746F            fs jz 0x421d
000041AE  7273              jc 0x4223
000041B0  5F                pop edi
000041B1  61                popa
000041B2  7578              jnz 0x422c
000041B4  00636F            add [ebx+0x6f],ah
000041B7  6D                insd
000041B8  706C              jo 0x4226
000041BA  657465            gs jz 0x4222
000041BD  642E3333          xor esi,[cs:ebx]
000041C1  3238              xor bh,[eax]
000041C3  0064746F          add [esp+esi*2+0x6f],ah
000041C7  725F              jc 0x4228
000041C9  6964782E33333330  imul esp,[eax+edi*2+0x2e],dword 0x30333333
000041D1  006672            add [esi+0x72],ah
000041D4  61                popa
000041D5  6D                insd
000041D6  655F              gs pop edi
000041D8  64756D            fs jnz 0x4248
000041DB  6D                insd
000041DC  7900              jns 0x41de
000041DE  5F                pop edi
000041DF  5F                pop edi
000041E0  43                inc ebx
000041E1  54                push esp
000041E2  4F                dec edi
000041E3  52                push edx
000041E4  5F                pop edi
000041E5  45                inc ebp
000041E6  4E                dec esi
000041E7  44                inc esp
000041E8  5F                pop edi
000041E9  5F                pop edi
000041EA  005F5F            add [edi+0x5f],bl
000041ED  46                inc esi
000041EE  52                push edx
000041EF  41                inc ecx
000041F0  4D                dec ebp
000041F1  45                inc ebp
000041F2  5F                pop edi
000041F3  45                inc ebp
000041F4  4E                dec esi
000041F5  44                inc esp
000041F6  5F                pop edi
000041F7  5F                pop edi
000041F8  005F5F            add [edi+0x5f],bl
000041FB  4A                dec edx
000041FC  43                inc ebx
000041FD  52                push edx
000041FE  5F                pop edi
000041FF  45                inc ebp
00004200  4E                dec esi
00004201  44                inc esp
00004202  5F                pop edi
00004203  5F                pop edi
00004204  005F5F            add [edi+0x5f],bl
00004207  646F              fs outsd
00004209  5F                pop edi
0000420A  676C              a16 insb
0000420C  6F                outsd
0000420D  62616C            bound esp,[ecx+0x6c]
00004210  5F                pop edi
00004211  63746F72          arpl [edi+ebp*2+0x72],si
00004215  735F              jnc 0x4276
00004217  61                popa
00004218  7578              jnz 0x4292
0000421A  0031              add [ecx],dh
0000421C  37                aaa
0000421D  3831              cmp [ecx],dh
0000421F  3438              xor al,0x38
00004221  385F31            cmp [edi+0x31],bl
00004224  3438              xor al,0x38
00004226  353439305F        xor eax,0x5f303934
0000422B  44                inc esp
0000422C  41                inc ecx
0000422D  6C                insb
0000422E  652E637070        arpl [cs:eax+0x70],si
00004233  00656C            add [ebp+0x6c],ah
00004236  662D696E          sub ax,0x6e69
0000423A  69742E63005F474C  imul esi,[esi+ebp+0x63],dword 0x4c475f00
00004242  4F                dec edi
00004243  42                inc edx
00004244  41                inc ecx
00004245  4C                dec esp
00004246  5F                pop edi
00004247  4F                dec edi
00004248  46                inc esi
00004249  46                inc esi
0000424A  53                push ebx
0000424B  45                inc ebp
0000424C  54                push esp
0000424D  5F                pop edi
0000424E  54                push esp
0000424F  41                inc ecx
00004250  42                inc edx
00004251  4C                dec esp
00004252  45                inc ebp
00004253  5F                pop edi
00004254  005F5F            add [edi+0x5f],bl
00004257  696E69745F6172    imul ebp,[esi+0x69],dword 0x72615f74
0000425E  7261              jc 0x42c1
00004260  795F              jns 0x42c1
00004262  656E              gs outsb
00004264  64005F5F          add [fs:edi+0x5f],bl
00004268  696E69745F6172    imul ebp,[esi+0x69],dword 0x72615f74
0000426F  7261              jc 0x42d2
00004271  795F              jns 0x42d2
00004273  7374              jnc 0x42e9
00004275  61                popa
00004276  7274              jc 0x42ec
00004278  005F44            add [edi+0x44],bl
0000427B  59                pop ecx
0000427C  4E                dec esi
0000427D  41                inc ecx
0000427E  4D                dec ebp
0000427F  49                dec ecx
00004280  43                inc ebx
00004281  00646174          add [ecx+0x74],ah
00004285  61                popa
00004286  5F                pop edi
00004287  7374              jnc 0x42fd
00004289  61                popa
0000428A  7274              jc 0x4300
0000428C  005F5A            add [edi+0x5a],bl
0000428F  53                push ebx
00004290  7438              jz 0x42ca
00004292  5F                pop edi
00004293  44                inc esp
00004294  657374            gs jnc 0x430b
00004297  726F              jc 0x4308
00004299  7949              jns 0x42e4
0000429B  50                push eax
0000429C  7845              js 0x42e3
0000429E  7654              jna 0x42f4
000042A0  5F                pop edi
000042A1  53                push ebx
000042A2  315F00            xor [edi+0x0],ebx
000042A5  5F                pop edi
000042A6  5A                pop edx
000042A7  53                push ebx
000042A8  7433              jz 0x42dd
000042AA  6D                insd
000042AB  61                popa
000042AC  7849              js 0x42f7
000042AE  7845              js 0x42f5
000042B0  52                push edx
000042B1  4B                dec ebx
000042B2  54                push esp
000042B3  5F                pop edi
000042B4  53                push ebx
000042B5  325F53            xor bl,[edi+0x53]
000042B8  325F00            xor bl,[edi+0x0]
000042BB  5F                pop edi
000042BC  5A                pop edx
000042BD  4E                dec esi
000042BE  53                push ebx
000042BF  7432              jz 0x42f3
000042C1  305F5F            xor [edi+0x5f],bl
000042C4  756E              jnz 0x4334
000042C6  696E697469616C    imul ebp,[esi+0x69],dword 0x6c616974
000042CD  697A65645F636F    imul edi,[edx+0x65],dword 0x6f635f64
000042D4  7079              jo 0x434f
000042D6  49                dec ecx
000042D7  4C                dec esp
000042D8  6231              bound esi,[ecx]
000042DA  45                inc ebp
000042DB  45                inc ebp
000042DC  3133              xor [ebx],esi
000042DE  5F                pop edi
000042DF  5F                pop edi
000042E0  756E              jnz 0x4350
000042E2  696E69745F636F    imul ebp,[esi+0x69],dword 0x6f635f74
000042E9  7079              jo 0x4364
000042EB  49                dec ecx
000042EC  4E                dec esi
000042ED  395F5F            cmp [edi+0x5f],ebx
000042F0  676E              a16 outsb
000042F2  755F              jnz 0x4353
000042F4  637878            arpl [eax+0x78],di
000042F7  3137              xor [edi],esi
000042F9  5F                pop edi
000042FA  5F                pop edi
000042FB  6E                outsb
000042FC  6F                outsd
000042FD  726D              jc 0x436c
000042FF  61                popa
00004300  6C                insb
00004301  5F                pop edi
00004302  6974657261746F72  imul esi,[ebp+0x72],dword 0x726f7461
0000430A  49                dec ecx
0000430B  50                push eax
0000430C  4B                dec ebx
0000430D  7853              js 0x4362
0000430F  7436              jz 0x4347
00004311  7665              jna 0x4378
00004313  63746F72          arpl [edi+ebp*2+0x72],si
00004317  49                dec ecx
00004318  7853              js 0x436d
0000431A  61                popa
0000431B  49                dec ecx
0000431C  7845              js 0x4363
0000431E  45                inc ebp
0000431F  45                inc ebp
00004320  45                inc ebp
00004321  50                push eax
00004322  7845              js 0x4369
00004324  45                inc ebp
00004325  54                push esp
00004326  305F54            xor [edi+0x54],bl
00004329  5F                pop edi
0000432A  53                push ebx
0000432B  43                inc ebx
0000432C  5F                pop edi
0000432D  53                push ebx
0000432E  42                inc edx
0000432F  5F                pop edi
00004330  005F5A            add [edi+0x5a],bl
00004333  4E                dec esi
00004334  53                push ebx
00004335  6F                outsd
00004336  6C                insb
00004337  7345              jnc 0x437e
00004339  694040474C4942    imul eax,[eax+0x40],dword 0x42494c47
00004340  43                inc ebx
00004341  58                pop eax
00004342  58                pop eax
00004343  5F                pop edi
00004344  332E              xor ebp,[esi]
00004346  3400              xor al,0x0
00004348  5F                pop edi
00004349  5A                pop edx
0000434A  4E                dec esi
0000434B  53                push ebx
0000434C  7431              jz 0x437f
0000434E  325F56            xor bl,[edi+0x56]
00004351  6563746F72        arpl [gs:edi+ebp*2+0x72],si
00004356  5F                pop edi
00004357  626173            bound esp,[ecx+0x73]
0000435A  6549              gs dec ecx
0000435C  7853              js 0x43b1
0000435E  61                popa
0000435F  49                dec ecx
00004360  7845              js 0x43a7
00004362  45                inc ebp
00004363  3132              xor [edx],esi
00004365  5F                pop edi
00004366  56                push esi
00004367  6563746F72        arpl [gs:edi+ebp*2+0x72],si
0000436C  5F                pop edi
0000436D  696D706C433145    imul ebp,[ebp+0x70],dword 0x4531436c
00004374  52                push edx
00004375  4B                dec ebx
00004376  53                push ebx
00004377  305F00            xor [edi+0x0],bl
0000437A  5F                pop edi
0000437B  5F                pop edi
0000437C  6C                insb
0000437D  6962635F637375    imul esp,[edx+0x63],dword 0x7573635f
00004384  5F                pop edi
00004385  66696E69005F      imul bp,[esi+0x69],word 0x5f00
0000438B  5A                pop edx
0000438C  4E                dec esi
0000438D  53                push ebx
0000438E  7431              jz 0x43c1
00004390  325F56            xor bl,[edi+0x56]
00004393  6563746F72        arpl [gs:edi+ebp*2+0x72],si
00004398  5F                pop edi
00004399  626173            bound esp,[ecx+0x73]
0000439C  6549              gs dec ecx
0000439E  7853              js 0x43f3
000043A0  61                popa
000043A1  49                dec ecx
000043A2  7845              js 0x43e9
000043A4  45                inc ebp
000043A5  3132              xor [edx],esi
000043A7  5F                pop edi
000043A8  56                push esi
000043A9  6563746F72        arpl [gs:edi+ebp*2+0x72],si
000043AE  5F                pop edi
000043AF  696D706C443245    imul ebp,[ebp+0x70],dword 0x4532446c
000043B6  7600              jna 0x43b8
000043B8  5F                pop edi
000043B9  5A                pop edx
000043BA  4E                dec esi
000043BB  53                push ebx
000043BC  7431              jz 0x43ef
000043BE  305F49            xor [edi+0x49],bl
000043C1  7465              jz 0x4428
000043C3  725F              jc 0x4424
000043C5  626173            bound esp,[ecx+0x73]
000043C8  6549              gs dec ecx
000043CA  4E                dec esi
000043CB  395F5F            cmp [edi+0x5f],ebx
000043CE  676E              a16 outsb
000043D0  755F              jnz 0x4431
000043D2  637878            arpl [eax+0x78],di
000043D5  3137              xor [edi],esi
000043D7  5F                pop edi
000043D8  5F                pop edi
000043D9  6E                outsb
000043DA  6F                outsd
000043DB  726D              jc 0x444a
000043DD  61                popa
000043DE  6C                insb
000043DF  5F                pop edi
000043E0  6974657261746F72  imul esi,[ebp+0x72],dword 0x726f7461
000043E8  49                dec ecx
000043E9  50                push eax
000043EA  4B                dec ebx
000043EB  7853              js 0x4440
000043ED  7436              jz 0x4425
000043EF  7665              jna 0x4456
000043F1  63746F72          arpl [edi+ebp*2+0x72],si
000043F5  49                dec ecx
000043F6  7853              js 0x444b
000043F8  61                popa
000043F9  49                dec ecx
000043FA  7845              js 0x4441
000043FC  45                inc ebp
000043FD  45                inc ebp
000043FE  45                inc ebp
000043FF  4C                dec esp
00004400  6231              bound esi,[ecx]
00004402  45                inc ebp
00004403  45                inc ebp
00004404  37                aaa
00004405  5F                pop edi
00004406  53                push ebx
00004407  5F                pop edi
00004408  626173            bound esp,[ecx+0x73]
0000440B  6545              gs inc ebp
0000440D  53                push ebx
0000440E  37                aaa
0000440F  5F                pop edi
00004410  005F73            add [edi+0x73],bl
00004413  7461              jz 0x4476
00004415  7274              jc 0x448b
00004417  005F5A            add [edi+0x5a],bl
0000441A  4E                dec esi
0000441B  53                push ebx
0000441C  7431              jz 0x444f
0000441E  325F56            xor bl,[edi+0x56]
00004421  6563746F72        arpl [gs:edi+ebp*2+0x72],si
00004426  5F                pop edi
00004427  626173            bound esp,[ecx+0x73]
0000442A  6549              gs dec ecx
0000442C  7853              js 0x4481
0000442E  61                popa
0000442F  49                dec ecx
00004430  7845              js 0x4477
00004432  45                inc ebp
00004433  3137              xor [edi],esi
00004435  5F                pop edi
00004436  4D                dec ebp
00004437  5F                pop edi
00004438  637265            arpl [edx+0x65],si
0000443B  61                popa
0000443C  7465              jz 0x44a3
0000443E  5F                pop edi
0000443F  7374              jnc 0x44b5
00004441  6F                outsd
00004442  7261              jc 0x44a5
00004444  676545            gs a16 inc ebp
00004447  6A00              push byte +0x0
00004449  5F                pop edi
0000444A  5A                pop edx
0000444B  4E                dec esi
0000444C  395F5F            cmp [edi+0x5f],ebx
0000444F  676E              a16 outsb
00004451  755F              jnz 0x44b2
00004453  637878            arpl [eax+0x78],di
00004456  31345F            xor [edi+ebx*2],esi
00004459  5F                pop edi
0000445A  61                popa
0000445B  6C                insb
0000445C  6C                insb
0000445D  6F                outsd
0000445E  635F74            arpl [edi+0x74],bx
00004461  7261              jc 0x44c4
00004463  6974734953614978  imul esi,[ebx+esi*2+0x49],dword 0x78496153
0000446B  45                inc ebp
0000446C  45                inc ebp
0000446D  3137              xor [edi],esi
0000446F  5F                pop edi
00004470  53                push ebx
00004471  5F                pop edi
00004472  7365              jnc 0x44d9
00004474  6C                insb
00004475  6563745F6F        arpl [gs:edi+ebx*2+0x6f],si
0000447A  6E                outsb
0000447B  5F                pop edi
0000447C  636F70            arpl [edi+0x70],bp
0000447F  7945              jns 0x44c6
00004481  52                push edx
00004482  4B                dec ebx
00004483  53                push ebx
00004484  315F00            xor [edi+0x0],ebx
00004487  5F                pop edi
00004488  5A                pop edx
00004489  4E                dec esi
0000448A  53                push ebx
0000448B  7431              jz 0x44be
0000448D  325F56            xor bl,[edi+0x56]
00004490  6563746F72        arpl [gs:edi+ebp*2+0x72],si
00004495  5F                pop edi
00004496  626173            bound esp,[ecx+0x73]
00004499  6549              gs dec ecx
0000449B  7853              js 0x44f0
0000449D  61                popa
0000449E  49                dec ecx
0000449F  7845              js 0x44e6
000044A1  45                inc ebp
000044A2  44                inc esp
000044A3  324576            xor al,[ebp+0x76]
000044A6  005F5A            add [edi+0x5a],bl
000044A9  4E                dec esi
000044AA  53                push ebx
000044AB  7436              jz 0x44e3
000044AD  7665              jna 0x4514
000044AF  63746F72          arpl [edi+ebp*2+0x72],si
000044B3  49                dec ecx
000044B4  7853              js 0x4509
000044B6  61                popa
000044B7  49                dec ecx
000044B8  7845              js 0x44ff
000044BA  45                inc ebp
000044BB  43                inc ebx
000044BC  314552            xor [ebp+0x52],eax
000044BF  4B                dec ebx
000044C0  53                push ebx
000044C1  315F00            xor [edi+0x0],ebx
000044C4  5F                pop edi
000044C5  5F                pop edi
000044C6  676D              a16 insd
000044C8  6F                outsd
000044C9  6E                outsb
000044CA  5F                pop edi
000044CB  7374              jnc 0x4541
000044CD  61                popa
000044CE  7274              jc 0x4544
000044D0  5F                pop edi
000044D1  5F                pop edi
000044D2  005F4A            add [edi+0x4a],bl
000044D5  765F              jna 0x4536
000044D7  52                push edx
000044D8  6567697374657243  imul esi,[gs:bp+di+0x74],dword 0x6c437265
         -6C
000044E1  61                popa
000044E2  7373              jnc 0x4557
000044E4  657300            gs jnc 0x44e7
000044E7  5F                pop edi
000044E8  5A                pop edx
000044E9  4E                dec esi
000044EA  53                push ebx
000044EB  7431              jz 0x451e
000044ED  305F49            xor [edi+0x49],bl
000044F0  7465              jz 0x4557
000044F2  725F              jc 0x4553
000044F4  626173            bound esp,[ecx+0x73]
000044F7  6549              gs dec ecx
000044F9  50                push eax
000044FA  784C              js 0x4548
000044FC  6230              bound esi,[eax]
000044FE  45                inc ebp
000044FF  45                inc ebp
00004500  37                aaa
00004501  5F                pop edi
00004502  53                push ebx
00004503  5F                pop edi
00004504  626173            bound esp,[ecx+0x73]
00004507  6545              gs inc ebp
00004509  53                push ebx
0000450A  305F00            xor [edi+0x0],bl
0000450D  5F                pop edi
0000450E  66705F            o16 jo 0x4570
00004511  6877005F5A        push dword 0x5a5f0077
00004516  646C              fs insb
00004518  50                push eax
00004519  7640              jna 0x455b
0000451B  40                inc eax
0000451C  47                inc edi
0000451D  4C                dec esp
0000451E  49                dec ecx
0000451F  42                inc edx
00004520  43                inc ebx
00004521  58                pop eax
00004522  58                pop eax
00004523  5F                pop edi
00004524  332E              xor ebp,[esi]
00004526  3400              xor al,0x0
00004528  5F                pop edi
00004529  66696E69005F      imul bp,[esi+0x69],word 0x5f00
0000452F  5A                pop edx
00004530  53                push ebx
00004531  7438              jz 0x456b
00004533  5F                pop edi
00004534  44                inc esp
00004535  657374            gs jnc 0x45ac
00004538  726F              jc 0x45a9
0000453A  7949              jns 0x4585
0000453C  50                push eax
0000453D  7878              js 0x45b7
0000453F  45                inc ebp
00004540  7654              jna 0x4596
00004542  5F                pop edi
00004543  53                push ebx
00004544  315F52            xor [edi+0x52],ebx
00004547  53                push ebx
00004548  61                popa
00004549  49                dec ecx
0000454A  54                push esp
0000454B  305F45            xor [edi+0x45],bl
0000454E  005F5A            add [edi+0x5a],bl
00004551  4E                dec esi
00004552  395F5F            cmp [edi+0x5f],ebx
00004555  676E              a16 outsb
00004557  755F              jnz 0x45b8
00004559  637878            arpl [eax+0x78],di
0000455C  3137              xor [edi],esi
0000455E  5F                pop edi
0000455F  5F                pop edi
00004560  6E                outsb
00004561  6F                outsd
00004562  726D              jc 0x45d1
00004564  61                popa
00004565  6C                insb
00004566  5F                pop edi
00004567  6974657261746F72  imul esi,[ebp+0x72],dword 0x726f7461
0000456F  49                dec ecx
00004570  50                push eax
00004571  4B                dec ebx
00004572  7853              js 0x45c7
00004574  7436              jz 0x45ac
00004576  7665              jna 0x45dd
00004578  63746F72          arpl [edi+ebp*2+0x72],si
0000457C  49                dec ecx
0000457D  7853              js 0x45d2
0000457F  61                popa
00004580  49                dec ecx
00004581  7845              js 0x45c8
00004583  45                inc ebp
00004584  45                inc ebp
00004585  43                inc ebx
00004586  324552            xor al,[ebp+0x52]
00004589  4B                dec ebx
0000458A  53                push ebx
0000458B  325F00            xor bl,[edi+0x0]
0000458E  5F                pop edi
0000458F  5A                pop edx
00004590  4E                dec esi
00004591  395F5F            cmp [edi+0x5f],ebx
00004594  676E              a16 outsb
00004596  755F              jnz 0x45f7
00004598  637878            arpl [eax+0x78],di
0000459B  3133              xor [ebx],esi
0000459D  6E                outsb
0000459E  65775F            gs ja 0x4600
000045A1  61                popa
000045A2  6C                insb
000045A3  6C                insb
000045A4  6F                outsd
000045A5  636174            arpl [ecx+0x74],sp
000045A8  6F                outsd
000045A9  7249              jc 0x45f4
000045AB  7845              js 0x45f2
000045AD  43                inc ebx
000045AE  314576            xor [ebp+0x76],eax
000045B1  005F5A            add [edi+0x5a],bl
000045B4  53                push ebx
000045B5  746F              jz 0x4626
000045B7  7253              jc 0x460c
000045B9  7431              jz 0x45ec
000045BB  335F49            xor ebx,[edi+0x49]
000045BE  6F                outsd
000045BF  735F              jnc 0x4620
000045C1  4F                dec edi
000045C2  7065              jo 0x4629
000045C4  6E                outsb
000045C5  6D                insd
000045C6  6F                outsd
000045C7  646553            gs push ebx
000045CA  5F                pop edi
000045CB  005F5A            add [edi+0x5a],bl
000045CE  53                push ebx
000045CF  7431              jz 0x4602
000045D1  325F5F            xor bl,[edi+0x5f]
000045D4  6E                outsb
000045D5  697465725F626173  imul esi,[ebp+0x72],dword 0x7361625f
000045DD  6549              gs dec ecx
000045DF  50                push eax
000045E0  7845              js 0x4627
000045E2  4E                dec esi
000045E3  53                push ebx
000045E4  7431              jz 0x4617
000045E6  315F4E            xor [edi+0x4e],ebx
000045E9  697465725F626173  imul esi,[ebp+0x72],dword 0x7361625f
000045F1  6549              gs dec ecx
000045F3  54                push esp
000045F4  5F                pop edi
000045F5  45                inc ebp
000045F6  3133              xor [ebx],esi
000045F8  6974657261746F72  imul esi,[ebp+0x72],dword 0x726f7461
00004600  5F                pop edi
00004601  7479              jz 0x467c
00004603  7065              jo 0x466a
00004605  45                inc ebp
00004606  53                push ebx
00004607  325F00            xor bl,[edi+0x0]
0000460A  5F                pop edi
0000460B  5A                pop edx
0000460C  4E                dec esi
0000460D  53                push ebx
0000460E  7431              jz 0x4641
00004610  325F44            xor bl,[edi+0x44]
00004613  657374            gs jnc 0x468a
00004616  726F              jc 0x4687
00004618  795F              jns 0x4679
0000461A  61                popa
0000461B  7578              jnz 0x4695
0000461D  49                dec ecx
0000461E  4C                dec esp
0000461F  6231              bound esi,[ecx]
00004621  45                inc ebp
00004622  45                inc ebp
00004623  395F5F            cmp [edi+0x5f],ebx
00004626  64657374          gs jnc 0x469e
0000462A  726F              jc 0x469b
0000462C  7949              jns 0x4677
0000462E  50                push eax
0000462F  7845              js 0x4676
00004631  45                inc ebp
00004632  7654              jna 0x4688
00004634  5F                pop edi
00004635  53                push ebx
00004636  335F00            xor ebx,[edi+0x0]
00004639  5F                pop edi
0000463A  5F                pop edi
0000463B  6C                insb
0000463C  6962635F737461    imul esp,[edx+0x63],dword 0x6174735f
00004643  7274              jc 0x46b9
00004645  5F                pop edi
00004646  6D                insd
00004647  61                popa
00004648  696E4040474C49    imul ebp,[esi+0x40],dword 0x494c4740
0000464F  42                inc edx
00004650  43                inc ebx
00004651  5F                pop edi
00004652  322E              xor ch,[esi]
00004654  3000              xor [eax],al
00004656  5F                pop edi
00004657  5A                pop edx
00004658  4E                dec esi
00004659  53                push ebx
0000465A  7436              jz 0x4692
0000465C  7665              jna 0x46c3
0000465E  63746F72          arpl [edi+ebp*2+0x72],si
00004662  49                dec ecx
00004663  7853              js 0x46b8
00004665  61                popa
00004666  49                dec ecx
00004667  7845              js 0x46ae
00004669  45                inc ebp
0000466A  43                inc ebx
0000466B  324552            xor al,[ebp+0x52]
0000466E  4B                dec ebx
0000466F  53                push ebx
00004670  315F00            xor [edi+0x0],ebx
00004673  5F                pop edi
00004674  5A                pop edx
00004675  4E                dec esi
00004676  53                push ebx
00004677  61                popa
00004678  49                dec ecx
00004679  7845              js 0x46c0
0000467B  44                inc esp
0000467C  314576            xor [ebp+0x76],eax
0000467F  005F5A            add [edi+0x5a],bl
00004682  4E                dec esi
00004683  53                push ebx
00004684  61                popa
00004685  49                dec ecx
00004686  7845              js 0x46cd
00004688  43                inc ebx
00004689  324552            xor al,[ebp+0x52]
0000468C  4B                dec ebx
0000468D  53                push ebx
0000468E  5F                pop edi
0000468F  005F5A            add [edi+0x5a],bl
00004692  4E                dec esi
00004693  53                push ebx
00004694  61                popa
00004695  49                dec ecx
00004696  7845              js 0x46dd
00004698  43                inc ebx
00004699  314576            xor [ebp+0x76],eax
0000469C  005F5A            add [edi+0x5a],bl
0000469F  4E                dec esi
000046A0  53                push ebx
000046A1  7436              jz 0x46d9
000046A3  7665              jna 0x470a
000046A5  63746F72          arpl [edi+ebp*2+0x72],si
000046A9  49                dec ecx
000046AA  7853              js 0x46ff
000046AC  61                popa
000046AD  49                dec ecx
000046AE  7845              js 0x46f5
000046B0  45                inc ebp
000046B1  6978456A005F5A    imul edi,[eax+0x45],dword 0x5a5f006a
000046B8  4E                dec esi
000046B9  53                push ebx
000046BA  7436              jz 0x46f2
000046BC  7665              jna 0x4723
000046BE  63746F72          arpl [edi+ebp*2+0x72],si
000046C2  49                dec ecx
000046C3  7853              js 0x4718
000046C5  61                popa
000046C6  49                dec ecx
000046C7  7845              js 0x470e
000046C9  45                inc ebp
000046CA  43                inc ebx
000046CB  31456A            xor [ebp+0x6a],eax
000046CE  52                push edx
000046CF  4B                dec ebx
000046D0  7852              js 0x4724
000046D2  4B                dec ebx
000046D3  53                push ebx
000046D4  305F00            xor [edi+0x0],bl
000046D7  5F                pop edi
000046D8  5A                pop edx
000046D9  4E                dec esi
000046DA  53                push ebx
000046DB  7431              jz 0x470e
000046DD  325F56            xor bl,[edi+0x56]
000046E0  6563746F72        arpl [gs:edi+ebp*2+0x72],si
000046E5  5F                pop edi
000046E6  626173            bound esp,[ecx+0x73]
000046E9  6549              gs dec ecx
000046EB  7853              js 0x4740
000046ED  61                popa
000046EE  49                dec ecx
000046EF  7845              js 0x4736
000046F1  45                inc ebp
000046F2  3133              xor [ebx],esi
000046F4  5F                pop edi
000046F5  4D                dec ebp
000046F6  5F                pop edi
000046F7  646561            gs popa
000046FA  6C                insb
000046FB  6C                insb
000046FC  6F                outsd
000046FD  636174            arpl [ecx+0x74],sp
00004700  6545              gs inc ebp
00004702  50                push eax
00004703  786A              js 0x476f
00004705  005F49            add [edi+0x49],bl
00004708  54                push esp
00004709  4D                dec ebp
0000470A  5F                pop edi
0000470B  64657265          gs jc 0x4774
0000470F  676973746572544D  imul esi,[bp+di+0x74],dword 0x4d547265
00004717  43                inc ebx
00004718  6C                insb
00004719  6F                outsd
0000471A  6E                outsb
0000471B  6554              gs push esp
0000471D  61                popa
0000471E  626C6500          bound ebp,[ebp+0x0]
00004722  5F                pop edi
00004723  5A                pop edx
00004724  53                push ebx
00004725  746C              jz 0x4793
00004727  7349              jnc 0x4772
00004729  53                push ebx
0000472A  7431              jz 0x475d
0000472C  316368            xor [ebx+0x68],esp
0000472F  61                popa
00004730  725F              jc 0x4791
00004732  7472              jz 0x47a6
00004734  61                popa
00004735  6974734963454552  imul esi,[ebx+esi*2+0x49],dword 0x52454563
0000473D  53                push ebx
0000473E  7431              jz 0x4771
00004740  336261            xor esp,[edx+0x61]
00004743  7369              jnc 0x47ae
00004745  635F6F            arpl [edi+0x6f],bx
00004748  7374              jnc 0x47be
0000474A  7265              jc 0x47b1
0000474C  61                popa
0000474D  6D                insd
0000474E  49                dec ecx
0000474F  63545F45          arpl [edi+ebx*2+0x45],dx
00004753  53                push ebx
00004754  355F504B63        xor eax,0x634b505f
00004759  40                inc eax
0000475A  40                inc eax
0000475B  47                inc edi
0000475C  4C                dec esp
0000475D  49                dec ecx
0000475E  42                inc edx
0000475F  43                inc ebx
00004760  58                pop eax
00004761  58                pop eax
00004762  5F                pop edi
00004763  332E              xor ebp,[esi]
00004765  3400              xor al,0x0
00004767  5F                pop edi
00004768  5A                pop edx
00004769  53                push ebx
0000476A  7431              jz 0x479d
0000476C  38756E            cmp [ebp+0x6e],dh
0000476F  696E697469616C    imul ebp,[esi+0x69],dword 0x6c616974
00004776  697A65645F636F    imul edi,[edx+0x65],dword 0x6f635f64
0000477D  7079              jo 0x47f8
0000477F  49                dec ecx
00004780  4E                dec esi
00004781  395F5F            cmp [edi+0x5f],ebx
00004784  676E              a16 outsb
00004786  755F              jnz 0x47e7
00004788  637878            arpl [eax+0x78],di
0000478B  3137              xor [edi],esi
0000478D  5F                pop edi
0000478E  5F                pop edi
0000478F  6E                outsb
00004790  6F                outsd
00004791  726D              jc 0x4800
00004793  61                popa
00004794  6C                insb
00004795  5F                pop edi
00004796  6974657261746F72  imul esi,[ebp+0x72],dword 0x726f7461
0000479E  49                dec ecx
0000479F  50                push eax
000047A0  4B                dec ebx
000047A1  7853              js 0x47f6
000047A3  7436              jz 0x47db
000047A5  7665              jna 0x480c
000047A7  63746F72          arpl [edi+ebp*2+0x72],si
000047AB  49                dec ecx
000047AC  7853              js 0x4801
000047AE  61                popa
000047AF  49                dec ecx
000047B0  7845              js 0x47f7
000047B2  45                inc ebp
000047B3  45                inc ebp
000047B4  45                inc ebp
000047B5  50                push eax
000047B6  7845              js 0x47fd
000047B8  54                push esp
000047B9  305F54            xor [edi+0x54],bl
000047BC  5F                pop edi
000047BD  53                push ebx
000047BE  41                inc ecx
000047BF  5F                pop edi
000047C0  53                push ebx
000047C1  395F00            cmp [edi+0x0],ebx
000047C4  5F                pop edi
000047C5  49                dec ecx
000047C6  4F                dec edi
000047C7  5F                pop edi
000047C8  7374              jnc 0x483e
000047CA  64696E5F75736564  imul ebp,[fs:esi+0x5f],dword 0x64657375
000047D2  005F5A            add [edi+0x5a],bl
000047D5  4E                dec esi
000047D6  53                push ebx
000047D7  7436              jz 0x480f
000047D9  7665              jna 0x4840
000047DB  63746F72          arpl [edi+ebp*2+0x72],si
000047DF  49                dec ecx
000047E0  7853              js 0x4835
000047E2  61                popa
000047E3  49                dec ecx
000047E4  7845              js 0x482b
000047E6  45                inc ebp
000047E7  43                inc ebx
000047E8  32456A            xor al,[ebp+0x6a]
000047EB  52                push edx
000047EC  4B                dec ebx
000047ED  7852              js 0x4841
000047EF  4B                dec ebx
000047F0  53                push ebx
000047F1  305F00            xor [edi+0x0],bl
000047F4  5F                pop edi
000047F5  5A                pop edx
000047F6  4E                dec esi
000047F7  4B                dec ebx
000047F8  53                push ebx
000047F9  7431              jz 0x482c
000047FB  325F56            xor bl,[edi+0x56]
000047FE  6563746F72        arpl [gs:edi+ebp*2+0x72],si
00004803  5F                pop edi
00004804  626173            bound esp,[ecx+0x73]
00004807  6549              gs dec ecx
00004809  7853              js 0x485e
0000480B  61                popa
0000480C  49                dec ecx
0000480D  7845              js 0x4854
0000480F  45                inc ebp
00004810  3139              xor [ecx],edi
00004812  5F                pop edi
00004813  4D                dec ebp
00004814  5F                pop edi
00004815  6765745F          gs a16 jz 0x4878
00004819  54                push esp
0000481A  705F              jo 0x487b
0000481C  61                popa
0000481D  6C                insb
0000481E  6C                insb
0000481F  6F                outsd
00004820  636174            arpl [ecx+0x74],sp
00004823  6F                outsd
00004824  7245              jc 0x486b
00004826  7600              jna 0x4828
00004828  5F                pop edi
00004829  5A                pop edx
0000482A  4E                dec esi
0000482B  395F5F            cmp [edi+0x5f],ebx
0000482E  676E              a16 outsb
00004830  755F              jnz 0x4891
00004832  637878            arpl [eax+0x78],di
00004835  3133              xor [ebx],esi
00004837  6E                outsb
00004838  65775F            gs ja 0x489a
0000483B  61                popa
0000483C  6C                insb
0000483D  6C                insb
0000483E  6F                outsd
0000483F  636174            arpl [ecx+0x74],sp
00004842  6F                outsd
00004843  7249              jc 0x488e
00004845  7845              js 0x488c
00004847  43                inc ebx
00004848  314552            xor [ebp+0x52],eax
0000484B  4B                dec ebx
0000484C  53                push ebx
0000484D  315F00            xor [edi+0x0],ebx
00004850  5F                pop edi
00004851  49                dec ecx
00004852  54                push esp
00004853  4D                dec ebp
00004854  5F                pop edi
00004855  7265              jc 0x48bc
00004857  676973746572544D  imul esi,[bp+di+0x74],dword 0x4d547265
0000485F  43                inc ebx
00004860  6C                insb
00004861  6F                outsd
00004862  6E                outsb
00004863  6554              gs push esp
00004865  61                popa
00004866  626C6500          bound ebp,[ebp+0x0]
0000486A  5F                pop edi
0000486B  5F                pop edi
0000486C  6461              fs popa
0000486E  7461              jz 0x48d1
00004870  5F                pop edi
00004871  7374              jnc 0x48e7
00004873  61                popa
00004874  7274              jc 0x48ea
00004876  005F5A            add [edi+0x5a],bl
00004879  4E                dec esi
0000487A  395F5F            cmp [edi+0x5f],ebx
0000487D  676E              a16 outsb
0000487F  755F              jnz 0x48e0
00004881  637878            arpl [eax+0x78],di
00004884  3133              xor [ebx],esi
00004886  6E                outsb
00004887  65775F            gs ja 0x48e9
0000488A  61                popa
0000488B  6C                insb
0000488C  6C                insb
0000488D  6F                outsd
0000488E  636174            arpl [ecx+0x74],sp
00004891  6F                outsd
00004892  7249              jc 0x48dd
00004894  7845              js 0x48db
00004896  44                inc esp
00004897  324576            xor al,[ebp+0x76]
0000489A  005F5A            add [edi+0x5a],bl
0000489D  53                push ebx
0000489E  7432              jz 0x48d2
000048A0  345F              xor al,0x5f
000048A2  5F                pop edi
000048A3  756E              jnz 0x4913
000048A5  696E697469616C    imul ebp,[esi+0x69],dword 0x6c616974
000048AC  697A65645F6669    imul edi,[edx+0x65],dword 0x69665f64
000048B3  6C                insb
000048B4  6C                insb
000048B5  5F                pop edi
000048B6  6E                outsb
000048B7  5F                pop edi
000048B8  61                popa
000048B9  49                dec ecx
000048BA  50                push eax
000048BB  786A              js 0x4927
000048BD  7878              js 0x4937
000048BF  45                inc ebp
000048C0  7654              jna 0x4916
000048C2  5F                pop edi
000048C3  54                push esp
000048C4  305F52            xor [edi+0x52],bl
000048C7  4B                dec ebx
000048C8  54                push esp
000048C9  315F52            xor [edi+0x52],ebx
000048CC  53                push ebx
000048CD  61                popa
000048CE  49                dec ecx
000048CF  54                push esp
000048D0  325F45            xor bl,[edi+0x45]
000048D3  005F5A            add [edi+0x5a],bl
000048D6  4E                dec esi
000048D7  4B                dec ebx
000048D8  53                push ebx
000048D9  7436              jz 0x4911
000048DB  7665              jna 0x4942
000048DD  63746F72          arpl [edi+ebp*2+0x72],si
000048E1  49                dec ecx
000048E2  7853              js 0x4937
000048E4  61                popa
000048E5  49                dec ecx
000048E6  7845              js 0x492d
000048E8  45                inc ebp
000048E9  3562656769        xor eax,0x69676562
000048EE  6E                outsb
000048EF  45                inc ebp
000048F0  7600              jna 0x48f2
000048F2  5F                pop edi
000048F3  5A                pop edx
000048F4  4E                dec esi
000048F5  53                push ebx
000048F6  61                popa
000048F7  49                dec ecx
000048F8  7845              js 0x493f
000048FA  44                inc esp
000048FB  324576            xor al,[ebp+0x76]
000048FE  005F5A            add [edi+0x5a],bl
00004901  4E                dec esi
00004902  395F5F            cmp [edi+0x5f],ebx
00004905  676E              a16 outsb
00004907  755F              jnz 0x4968
00004909  637878            arpl [eax+0x78],di
0000490C  3133              xor [ebx],esi
0000490E  6E                outsb
0000490F  65775F            gs ja 0x4971
00004912  61                popa
00004913  6C                insb
00004914  6C                insb
00004915  6F                outsd
00004916  636174            arpl [ecx+0x74],sp
00004919  6F                outsd
0000491A  7249              jc 0x4965
0000491C  7845              js 0x4963
0000491E  38616C            cmp [ecx+0x6c],ah
00004921  6C                insb
00004922  6F                outsd
00004923  636174            arpl [ecx+0x74],sp
00004926  6545              gs inc ebp
00004928  6A50              push byte +0x50
0000492A  4B                dec ebx
0000492B  7600              jna 0x492d
0000492D  5F                pop edi
0000492E  5A                pop edx
0000492F  4E                dec esi
00004930  53                push ebx
00004931  7431              jz 0x4964
00004933  325F56            xor bl,[edi+0x56]
00004936  6563746F72        arpl [gs:edi+ebp*2+0x72],si
0000493B  5F                pop edi
0000493C  626173            bound esp,[ecx+0x73]
0000493F  6549              gs dec ecx
00004941  7853              js 0x4996
00004943  61                popa
00004944  49                dec ecx
00004945  7845              js 0x498c
00004947  45                inc ebp
00004948  3132              xor [edx],esi
0000494A  5F                pop edi
0000494B  56                push esi
0000494C  6563746F72        arpl [gs:edi+ebp*2+0x72],si
00004951  5F                pop edi
00004952  696D706C443145    imul ebp,[ebp+0x70],dword 0x4531446c
00004959  7600              jna 0x495b
0000495B  5F                pop edi
0000495C  5A                pop edx
0000495D  4E                dec esi
0000495E  53                push ebx
0000495F  7436              jz 0x4997
00004961  7665              jna 0x49c8
00004963  63746F72          arpl [edi+ebp*2+0x72],si
00004967  49                dec ecx
00004968  7853              js 0x49bd
0000496A  61                popa
0000496B  49                dec ecx
0000496C  7845              js 0x49b3
0000496E  45                inc ebp
0000496F  44                inc esp
00004970  324576            xor al,[ebp+0x76]
00004973  005F5A            add [edi+0x5a],bl
00004976  4E                dec esi
00004977  4B                dec ebx
00004978  53                push ebx
00004979  7436              jz 0x49b1
0000497B  7665              jna 0x49e2
0000497D  63746F72          arpl [edi+ebp*2+0x72],si
00004981  49                dec ecx
00004982  7853              js 0x49d7
00004984  61                popa
00004985  49                dec ecx
00004986  7845              js 0x49cd
00004988  45                inc ebp
00004989  33656E            xor esp,[ebp+0x6e]
0000498C  6445              fs inc ebp
0000498E  7600              jna 0x4990
00004990  5F                pop edi
00004991  5A                pop edx
00004992  53                push ebx
00004993  7436              jz 0x49cb
00004995  66696C6C5F6E49    imul bp,[esp+ebp*2+0x5f],word 0x496e
0000499C  50                push eax
0000499D  786A              js 0x4a09
0000499F  7845              js 0x49e6
000049A1  54                push esp
000049A2  5F                pop edi
000049A3  53                push ebx
000049A4  315F54            xor [edi+0x54],ebx
000049A7  305F52            xor [edi+0x52],bl
000049AA  4B                dec ebx
000049AB  54                push esp
000049AC  315F00            xor [edi+0x0],ebx
000049AF  5F                pop edi
000049B0  5A                pop edx
000049B1  53                push ebx
000049B2  7433              jz 0x49e7
000049B4  6D                insd
000049B5  696E497845524B    imul ebp,[esi+0x49],dword 0x4b524578
000049BC  54                push esp
000049BD  5F                pop edi
000049BE  53                push ebx
000049BF  325F53            xor bl,[edi+0x53]
000049C2  325F00            xor bl,[edi+0x0]
000049C5  5F                pop edi
000049C6  5A                pop edx
000049C7  53                push ebx
000049C8  7434              jz 0x49fe
000049CA  636F70            arpl [edi+0x70],bp
000049CD  7949              jns 0x4a18
000049CF  4E                dec esi
000049D0  395F5F            cmp [edi+0x5f],ebx
000049D3  676E              a16 outsb
000049D5  755F              jnz 0x4a36
000049D7  637878            arpl [eax+0x78],di
000049DA  3137              xor [edi],esi
000049DC  5F                pop edi
000049DD  5F                pop edi
000049DE  6E                outsb
000049DF  6F                outsd
000049E0  726D              jc 0x4a4f
000049E2  61                popa
000049E3  6C                insb
000049E4  5F                pop edi
000049E5  6974657261746F72  imul esi,[ebp+0x72],dword 0x726f7461
000049ED  49                dec ecx
000049EE  50                push eax
000049EF  4B                dec ebx
000049F0  7853              js 0x4a45
000049F2  7436              jz 0x4a2a
000049F4  7665              jna 0x4a5b
000049F6  63746F72          arpl [edi+ebp*2+0x72],si
000049FA  49                dec ecx
000049FB  7853              js 0x4a50
000049FD  61                popa
000049FE  49                dec ecx
000049FF  7845              js 0x4a46
00004A01  45                inc ebp
00004A02  45                inc ebp
00004A03  45                inc ebp
00004A04  50                push eax
00004A05  7845              js 0x4a4c
00004A07  54                push esp
00004A08  305F54            xor [edi+0x54],bl
00004A0B  5F                pop edi
00004A0C  53                push ebx
00004A0D  41                inc ecx
00004A0E  5F                pop edi
00004A0F  53                push ebx
00004A10  395F00            cmp [edi+0x0],ebx
00004A13  5F                pop edi
00004A14  5A                pop edx
00004A15  4E                dec esi
00004A16  4B                dec ebx
00004A17  53                push ebx
00004A18  7436              jz 0x4a50
00004A1A  7665              jna 0x4a81
00004A1C  63746F72          arpl [edi+ebp*2+0x72],si
00004A20  49                dec ecx
00004A21  7853              js 0x4a76
00004A23  61                popa
00004A24  49                dec ecx
00004A25  7845              js 0x4a6c
00004A27  45                inc ebp
00004A28  3473              xor al,0x73
00004A2A  697A654576005F    imul edi,[edx+0x65],dword 0x5f007645
00004A31  5A                pop edx
00004A32  4E                dec esi
00004A33  53                push ebx
00004A34  7431              jz 0x4a67
00004A36  315F5F            xor [edi+0x5f],ebx
00004A39  636F70            arpl [edi+0x70],bp
00004A3C  795F              jns 0x4a9d
00004A3E  6D                insd
00004A3F  6F                outsd
00004A40  7665              jna 0x4aa7
00004A42  49                dec ecx
00004A43  4C                dec esp
00004A44  6230              bound esi,[eax]
00004A46  45                inc ebp
00004A47  4C                dec esp
00004A48  6231              bound esi,[ecx]
00004A4A  45                inc ebp
00004A4B  53                push ebx
00004A4C  7432              jz 0x4a80
00004A4E  367261            ss jc 0x4ab2
00004A51  6E                outsb
00004A52  646F              fs outsd
00004A54  6D                insd
00004A55  5F                pop edi
00004A56  61                popa
00004A57  636365            arpl [ebx+0x65],sp
00004A5A  7373              jnc 0x4acf
00004A5C  5F                pop edi
00004A5D  6974657261746F72  imul esi,[ebp+0x72],dword 0x726f7461
00004A65  5F                pop edi
00004A66  7461              jz 0x4ac9
00004A68  6745              a16 inc ebp
00004A6A  385F5F            cmp [edi+0x5f],bl
00004A6D  636F70            arpl [edi+0x70],bp
00004A70  795F              jns 0x4ad1
00004A72  6D                insd
00004A73  49                dec ecx
00004A74  7845              js 0x4abb
00004A76  45                inc ebp
00004A77  50                push eax
00004A78  54                push esp
00004A79  5F                pop edi
00004A7A  50                push eax
00004A7B  4B                dec ebx
00004A7C  53                push ebx
00004A7D  335F53            xor ebx,[edi+0x53]
00004A80  365F              ss pop edi
00004A82  53                push ebx
00004A83  345F              xor al,0x5f
00004A85  005F5F            add [edi+0x5f],bl
00004A88  54                push esp
00004A89  4D                dec ebp
00004A8A  43                inc ebx
00004A8B  5F                pop edi
00004A8C  45                inc ebp
00004A8D  4E                dec esi
00004A8E  44                inc esp
00004A8F  5F                pop edi
00004A90  5F                pop edi
00004A91  005F5A            add [edi+0x5a],bl
00004A94  4E                dec esi
00004A95  53                push ebx
00004A96  7431              jz 0x4ac9
00004A98  3462              xor al,0x62
00004A9A  61                popa
00004A9B  7369              jnc 0x4b06
00004A9D  635F69            arpl [edi+0x69],bx
00004AA0  667374            o16 jnc 0x4b17
00004AA3  7265              jc 0x4b0a
00004AA5  61                popa
00004AA6  6D                insd
00004AA7  49                dec ecx
00004AA8  635374            arpl [ebx+0x74],dx
00004AAB  3131              xor [ecx],esi
00004AAD  636861            arpl [eax+0x61],bp
00004AB0  725F              jc 0x4b11
00004AB2  7472              jz 0x4b26
00004AB4  61                popa
00004AB5  6974734963454544  imul esi,[ebx+esi*2+0x49],dword 0x44454563
00004ABD  314576            xor [ebp+0x76],eax
00004AC0  40                inc eax
00004AC1  40                inc eax
00004AC2  47                inc edi
00004AC3  4C                dec esp
00004AC4  49                dec ecx
00004AC5  42                inc edx
00004AC6  43                inc ebx
00004AC7  58                pop eax
00004AC8  58                pop eax
00004AC9  5F                pop edi
00004ACA  332E              xor ebp,[esi]
00004ACC  3400              xor al,0x0
00004ACE  5F                pop edi
00004ACF  5F                pop edi
00004AD0  64736F            fs jnc 0x4b42
00004AD3  5F                pop edi
00004AD4  68616E646C        push dword 0x6c646e61
00004AD9  65005F5A          add [gs:edi+0x5a],bl
00004ADD  4E                dec esi
00004ADE  53                push ebx
00004ADF  7431              jz 0x4b12
00004AE1  325F56            xor bl,[edi+0x56]
00004AE4  6563746F72        arpl [gs:edi+ebp*2+0x72],si
00004AE9  5F                pop edi
00004AEA  626173            bound esp,[ecx+0x73]
00004AED  6549              gs dec ecx
00004AEF  7853              js 0x4b44
00004AF1  61                popa
00004AF2  49                dec ecx
00004AF3  7845              js 0x4b3a
00004AF5  45                inc ebp
00004AF6  44                inc esp
00004AF7  314576            xor [ebp+0x76],eax
00004AFA  005F5A            add [edi+0x5a],bl
00004AFD  53                push ebx
00004AFE  7431              jz 0x4b31
00004B00  325F5F            xor bl,[edi+0x5f]
00004B03  6E                outsb
00004B04  697465725F626173  imul esi,[ebp+0x72],dword 0x7361625f
00004B0C  6549              gs dec ecx
00004B0E  4E                dec esi
00004B0F  395F5F            cmp [edi+0x5f],ebx
00004B12  676E              a16 outsb
00004B14  755F              jnz 0x4b75
00004B16  637878            arpl [eax+0x78],di
00004B19  3137              xor [edi],esi
00004B1B  5F                pop edi
00004B1C  5F                pop edi
00004B1D  6E                outsb
00004B1E  6F                outsd
00004B1F  726D              jc 0x4b8e
00004B21  61                popa
00004B22  6C                insb
00004B23  5F                pop edi
00004B24  6974657261746F72  imul esi,[ebp+0x72],dword 0x726f7461
00004B2C  49                dec ecx
00004B2D  50                push eax
00004B2E  4B                dec ebx
00004B2F  7853              js 0x4b84
00004B31  7436              jz 0x4b69
00004B33  7665              jna 0x4b9a
00004B35  63746F72          arpl [edi+ebp*2+0x72],si
00004B39  49                dec ecx
00004B3A  7853              js 0x4b8f
00004B3C  61                popa
00004B3D  49                dec ecx
00004B3E  7845              js 0x4b85
00004B40  45                inc ebp
00004B41  45                inc ebp
00004B42  45                inc ebp
00004B43  45                inc ebp
00004B44  4E                dec esi
00004B45  53                push ebx
00004B46  7431              jz 0x4b79
00004B48  315F4E            xor [edi+0x4e],ebx
00004B4B  697465725F626173  imul esi,[ebp+0x72],dword 0x7361625f
00004B53  6549              gs dec ecx
00004B55  54                push esp
00004B56  5F                pop edi
00004B57  45                inc ebp
00004B58  3133              xor [ebx],esi
00004B5A  6974657261746F72  imul esi,[ebp+0x72],dword 0x726f7461
00004B62  5F                pop edi
00004B63  7479              jz 0x4bde
00004B65  7065              jo 0x4bcc
00004B67  45                inc ebp
00004B68  53                push ebx
00004B69  395F00            cmp [edi+0x0],ebx
00004B6C  5F                pop edi
00004B6D  5F                pop edi
00004B6E  44                inc esp
00004B6F  54                push esp
00004B70  4F                dec edi
00004B71  52                push edx
00004B72  5F                pop edi
00004B73  45                inc ebp
00004B74  4E                dec esi
00004B75  44                inc esp
00004B76  5F                pop edi
00004B77  5F                pop edi
00004B78  005F5F            add [edi+0x5f],bl
00004B7B  6C                insb
00004B7C  6962635F637375    imul esp,[edx+0x63],dword 0x7573635f
00004B83  5F                pop edi
00004B84  696E6974005F5A    imul ebp,[esi+0x69],dword 0x5a5f0074
00004B8B  4E                dec esi
00004B8C  53                push ebx
00004B8D  7431              jz 0x4bc0
00004B8F  3462              xor al,0x62
00004B91  61                popa
00004B92  7369              jnc 0x4bfd
00004B94  635F6F            arpl [edi+0x6f],bx
00004B97  667374            o16 jnc 0x4c0e
00004B9A  7265              jc 0x4c01
00004B9C  61                popa
00004B9D  6D                insd
00004B9E  49                dec ecx
00004B9F  635374            arpl [ebx+0x74],dx
00004BA2  3131              xor [ecx],esi
00004BA4  636861            arpl [eax+0x61],bp
00004BA7  725F              jc 0x4c08
00004BA9  7472              jz 0x4c1d
00004BAB  61                popa
00004BAC  6974734963454544  imul esi,[ebx+esi*2+0x49],dword 0x44454563
00004BB4  314576            xor [ebp+0x76],eax
00004BB7  40                inc eax
00004BB8  40                inc eax
00004BB9  47                inc edi
00004BBA  4C                dec esp
00004BBB  49                dec ecx
00004BBC  42                inc edx
00004BBD  43                inc ebx
00004BBE  58                pop eax
00004BBF  58                pop eax
00004BC0  5F                pop edi
00004BC1  332E              xor ebp,[esi]
00004BC3  3400              xor al,0x0
00004BC5  5F                pop edi
00004BC6  5A                pop edx
00004BC7  53                push ebx
00004BC8  7431              jz 0x4bfb
00004BCA  345F              xor al,0x5f
00004BCC  5F                pop edi
00004BCD  636F70            arpl [edi+0x70],bp
00004BD0  795F              jns 0x4c31
00004BD2  6D                insd
00004BD3  6F                outsd
00004BD4  7665              jna 0x4c3b
00004BD6  5F                pop edi
00004BD7  61                popa
00004BD8  32494C            xor cl,[ecx+0x4c]
00004BDB  6230              bound esi,[eax]
00004BDD  45                inc ebp
00004BDE  4E                dec esi
00004BDF  395F5F            cmp [edi+0x5f],ebx
00004BE2  676E              a16 outsb
00004BE4  755F              jnz 0x4c45
00004BE6  637878            arpl [eax+0x78],di
00004BE9  3137              xor [edi],esi
00004BEB  5F                pop edi
00004BEC  5F                pop edi
00004BED  6E                outsb
00004BEE  6F                outsd
00004BEF  726D              jc 0x4c5e
00004BF1  61                popa
00004BF2  6C                insb
00004BF3  5F                pop edi
00004BF4  6974657261746F72  imul esi,[ebp+0x72],dword 0x726f7461
00004BFC  49                dec ecx
00004BFD  50                push eax
00004BFE  4B                dec ebx
00004BFF  7853              js 0x4c54
00004C01  7436              jz 0x4c39
00004C03  7665              jna 0x4c6a
00004C05  63746F72          arpl [edi+ebp*2+0x72],si
00004C09  49                dec ecx
00004C0A  7853              js 0x4c5f
00004C0C  61                popa
00004C0D  49                dec ecx
00004C0E  7845              js 0x4c55
00004C10  45                inc ebp
00004C11  45                inc ebp
00004C12  45                inc ebp
00004C13  50                push eax
00004C14  7845              js 0x4c5b
00004C16  54                push esp
00004C17  315F54            xor [edi+0x54],ebx
00004C1A  305F53            xor [edi+0x53],bl
00004C1D  41                inc ecx
00004C1E  5F                pop edi
00004C1F  53                push ebx
00004C20  395F00            cmp [edi+0x0],ebx
00004C23  5F                pop edi
00004C24  5A                pop edx
00004C25  6E                outsb
00004C26  776A              ja 0x4c92
00004C28  40                inc eax
00004C29  40                inc eax
00004C2A  47                inc edi
00004C2B  4C                dec esp
00004C2C  49                dec ecx
00004C2D  42                inc edx
00004C2E  43                inc ebx
00004C2F  58                pop eax
00004C30  58                pop eax
00004C31  5F                pop edi
00004C32  332E              xor ebp,[esi]
00004C34  3400              xor al,0x0
00004C36  5F                pop edi
00004C37  5A                pop edx
00004C38  4E                dec esi
00004C39  53                push ebx
00004C3A  7431              jz 0x4c6d
00004C3C  325F56            xor bl,[edi+0x56]
00004C3F  6563746F72        arpl [gs:edi+ebp*2+0x72],si
00004C44  5F                pop edi
00004C45  626173            bound esp,[ecx+0x73]
00004C48  6549              gs dec ecx
00004C4A  7853              js 0x4c9f
00004C4C  61                popa
00004C4D  49                dec ecx
00004C4E  7845              js 0x4c95
00004C50  45                inc ebp
00004C51  3132              xor [edx],esi
00004C53  5F                pop edi
00004C54  56                push esi
00004C55  6563746F72        arpl [gs:edi+ebp*2+0x72],si
00004C5A  5F                pop edi
00004C5B  696D706C433245    imul ebp,[ebp+0x70],dword 0x4532436c
00004C62  52                push edx
00004C63  4B                dec ebx
00004C64  53                push ebx
00004C65  305F00            xor [edi+0x0],bl
00004C68  5F                pop edi
00004C69  5A                pop edx
00004C6A  4E                dec esi
00004C6B  53                push ebx
00004C6C  7431              jz 0x4c9f
00004C6E  325F56            xor bl,[edi+0x56]
00004C71  6563746F72        arpl [gs:edi+ebp*2+0x72],si
00004C76  5F                pop edi
00004C77  626173            bound esp,[ecx+0x73]
00004C7A  6549              gs dec ecx
00004C7C  7853              js 0x4cd1
00004C7E  61                popa
00004C7F  49                dec ecx
00004C80  7845              js 0x4cc7
00004C82  45                inc ebp
00004C83  3131              xor [ecx],esi
00004C85  5F                pop edi
00004C86  4D                dec ebp
00004C87  5F                pop edi
00004C88  61                popa
00004C89  6C                insb
00004C8A  6C                insb
00004C8B  6F                outsd
00004C8C  636174            arpl [ecx+0x74],sp
00004C8F  6545              gs inc ebp
00004C91  6A00              push byte +0x0
00004C93  5F                pop edi
00004C94  5A                pop edx
00004C95  53                push ebx
00004C96  7432              jz 0x4cca
00004C98  325F5F            xor bl,[edi+0x5f]
00004C9B  756E              jnz 0x4d0b
00004C9D  696E697469616C    imul ebp,[esi+0x69],dword 0x6c616974
00004CA4  697A65645F636F    imul edi,[edx+0x65],dword 0x6f635f64
00004CAB  7079              jo 0x4d26
00004CAD  5F                pop edi
00004CAE  61                popa
00004CAF  49                dec ecx
00004CB0  4E                dec esi
00004CB1  395F5F            cmp [edi+0x5f],ebx
00004CB4  676E              a16 outsb
00004CB6  755F              jnz 0x4d17
00004CB8  637878            arpl [eax+0x78],di
00004CBB  3137              xor [edi],esi
00004CBD  5F                pop edi
00004CBE  5F                pop edi
00004CBF  6E                outsb
00004CC0  6F                outsd
00004CC1  726D              jc 0x4d30
00004CC3  61                popa
00004CC4  6C                insb
00004CC5  5F                pop edi
00004CC6  6974657261746F72  imul esi,[ebp+0x72],dword 0x726f7461
00004CCE  49                dec ecx
00004CCF  50                push eax
00004CD0  4B                dec ebx
00004CD1  7853              js 0x4d26
00004CD3  7436              jz 0x4d0b
00004CD5  7665              jna 0x4d3c
00004CD7  63746F72          arpl [edi+ebp*2+0x72],si
00004CDB  49                dec ecx
00004CDC  7853              js 0x4d31
00004CDE  61                popa
00004CDF  49                dec ecx
00004CE0  7845              js 0x4d27
00004CE2  45                inc ebp
00004CE3  45                inc ebp
00004CE4  45                inc ebp
00004CE5  50                push eax
00004CE6  7878              js 0x4d60
00004CE8  45                inc ebp
00004CE9  54                push esp
00004CEA  305F54            xor [edi+0x54],bl
00004CED  5F                pop edi
00004CEE  53                push ebx
00004CEF  41                inc ecx
00004CF0  5F                pop edi
00004CF1  53                push ebx
00004CF2  395F52            cmp [edi+0x52],ebx
00004CF5  53                push ebx
00004CF6  61                popa
00004CF7  49                dec ecx
00004CF8  54                push esp
00004CF9  315F45            xor [edi+0x45],ebx
00004CFC  005F5A            add [edi+0x5a],bl
00004CFF  4E                dec esi
00004D00  53                push ebx
00004D01  7436              jz 0x4d39
00004D03  7665              jna 0x4d6a
00004D05  63746F72          arpl [edi+ebp*2+0x72],si
00004D09  49                dec ecx
00004D0A  7853              js 0x4d5f
00004D0C  61                popa
00004D0D  49                dec ecx
00004D0E  7845              js 0x4d55
00004D10  45                inc ebp
00004D11  3138              xor [eax],edi
00004D13  5F                pop edi
00004D14  4D                dec ebp
00004D15  5F                pop edi
00004D16  66696C6C5F696E    imul bp,[esp+ebp*2+0x5f],word 0x6e69
00004D1D  697469616C697A65  imul esi,[ecx+ebp*2+0x61],dword 0x657a696c
00004D25  45                inc ebp
00004D26  6A52              push byte +0x52
00004D28  4B                dec ebx
00004D29  7800              js 0x4d2b
00004D2B  5F                pop edi
00004D2C  5F                pop edi
00004D2D  627373            bound esi,[ebx+0x73]
00004D30  5F                pop edi
00004D31  7374              jnc 0x4da7
00004D33  61                popa
00004D34  7274              jc 0x4daa
00004D36  005F5A            add [edi+0x5a],bl
00004D39  53                push ebx
00004D3A  7431              jz 0x4d6d
00004D3C  305F5F            xor [edi+0x5f],bl
00004D3F  66696C6C5F6E5F    imul bp,[esp+ebp*2+0x5f],word 0x5f6e
00004D46  61                popa
00004D47  49                dec ecx
00004D48  50                push eax
00004D49  786A              js 0x4db5
00004D4B  7845              js 0x4d92
00004D4D  4E                dec esi
00004D4E  395F5F            cmp [edi+0x5f],ebx
00004D51  676E              a16 outsb
00004D53  755F              jnz 0x4db4
00004D55  637878            arpl [eax+0x78],di
00004D58  3131              xor [ecx],esi
00004D5A  5F                pop edi
00004D5B  5F                pop edi
00004D5C  656E              gs outsb
00004D5E  61                popa
00004D5F  626C655F          bound ebp,[ebp+0x5f]
00004D63  69664958737253    imul esp,[esi+0x49],dword 0x53727358
00004D6A  7431              jz 0x4d9d
00004D6C  315F5F            xor [edi+0x5f],ebx
00004D6F  69735F7363616C    imul esi,[ebx+0x5f],dword 0x6c616373
00004D76  61                popa
00004D77  7249              jc 0x4dc2
00004D79  54                push esp
00004D7A  315F45            xor [edi+0x45],ebx
00004D7D  37                aaa
00004D7E  5F                pop edi
00004D7F  5F                pop edi
00004D80  7661              jna 0x4de3
00004D82  6C                insb
00004D83  7565              jnz 0x4dea
00004D85  45                inc ebp
00004D86  54                push esp
00004D87  5F                pop edi
00004D88  45                inc ebp
00004D89  365F              ss pop edi
00004D8B  5F                pop edi
00004D8C  7479              jz 0x4e07
00004D8E  7065              jo 0x4df5
00004D90  45                inc ebp
00004D91  53                push ebx
00004D92  365F              ss pop edi
00004D94  54                push esp
00004D95  305F52            xor [edi+0x52],bl
00004D98  4B                dec ebx
00004D99  53                push ebx
00004D9A  345F              xor al,0x5f
00004D9C  005F5A            add [edi+0x5a],bl
00004D9F  4E                dec esi
00004DA0  53                push ebx
00004DA1  7431              jz 0x4dd4
00004DA3  325F56            xor bl,[edi+0x56]
00004DA6  6563746F72        arpl [gs:edi+ebp*2+0x72],si
00004DAB  5F                pop edi
00004DAC  626173            bound esp,[ecx+0x73]
00004DAF  6549              gs dec ecx
00004DB1  7853              js 0x4e06
00004DB3  61                popa
00004DB4  49                dec ecx
00004DB5  7845              js 0x4dfc
00004DB7  45                inc ebp
00004DB8  43                inc ebx
00004DB9  32456A            xor al,[ebp+0x6a]
00004DBC  52                push edx
00004DBD  4B                dec ebx
00004DBE  53                push ebx
00004DBF  305F00            xor [edi+0x0],bl
00004DC2  5F                pop edi
00004DC3  5A                pop edx
00004DC4  4E                dec esi
00004DC5  395F5F            cmp [edi+0x5f],ebx
00004DC8  676E              a16 outsb
00004DCA  755F              jnz 0x4e2b
00004DCC  637878            arpl [eax+0x78],di
00004DCF  3137              xor [edi],esi
00004DD1  5F                pop edi
00004DD2  5F                pop edi
00004DD3  6E                outsb
00004DD4  6F                outsd
00004DD5  726D              jc 0x4e44
00004DD7  61                popa
00004DD8  6C                insb
00004DD9  5F                pop edi
00004DDA  6974657261746F72  imul esi,[ebp+0x72],dword 0x726f7461
00004DE2  49                dec ecx
00004DE3  50                push eax
00004DE4  4B                dec ebx
00004DE5  7853              js 0x4e3a
00004DE7  7436              jz 0x4e1f
00004DE9  7665              jna 0x4e50
00004DEB  63746F72          arpl [edi+ebp*2+0x72],si
00004DEF  49                dec ecx
00004DF0  7853              js 0x4e45
00004DF2  61                popa
00004DF3  49                dec ecx
00004DF4  7845              js 0x4e3b
00004DF6  45                inc ebp
00004DF7  45                inc ebp
00004DF8  43                inc ebx
00004DF9  314552            xor [ebp+0x52],eax
00004DFC  4B                dec ebx
00004DFD  53                push ebx
00004DFE  325F00            xor bl,[edi+0x0]
00004E01  5F                pop edi
00004E02  5A                pop edx
00004E03  53                push ebx
00004E04  7431              jz 0x4e37
00004E06  325F5F            xor bl,[edi+0x5f]
00004E09  6D                insd
00004E0A  697465725F626173  imul esi,[ebp+0x72],dword 0x7361625f
00004E12  6549              gs dec ecx
00004E14  4E                dec esi
00004E15  395F5F            cmp [edi+0x5f],ebx
00004E18  676E              a16 outsb
00004E1A  755F              jnz 0x4e7b
00004E1C  637878            arpl [eax+0x78],di
00004E1F  3137              xor [edi],esi
00004E21  5F                pop edi
00004E22  5F                pop edi
00004E23  6E                outsb
00004E24  6F                outsd
00004E25  726D              jc 0x4e94
00004E27  61                popa
00004E28  6C                insb
00004E29  5F                pop edi
00004E2A  6974657261746F72  imul esi,[ebp+0x72],dword 0x726f7461
00004E32  49                dec ecx
00004E33  50                push eax
00004E34  4B                dec ebx
00004E35  7853              js 0x4e8a
00004E37  7436              jz 0x4e6f
00004E39  7665              jna 0x4ea0
00004E3B  63746F72          arpl [edi+ebp*2+0x72],si
00004E3F  49                dec ecx
00004E40  7853              js 0x4e95
00004E42  61                popa
00004E43  49                dec ecx
00004E44  7845              js 0x4e8b
00004E46  45                inc ebp
00004E47  45                inc ebp
00004E48  45                inc ebp
00004E49  45                inc ebp
00004E4A  4E                dec esi
00004E4B  53                push ebx
00004E4C  7431              jz 0x4e7f
00004E4E  315F4D            xor [edi+0x4d],ebx
00004E51  697465725F626173  imul esi,[ebp+0x72],dword 0x7361625f
00004E59  6549              gs dec ecx
00004E5B  54                push esp
00004E5C  5F                pop edi
00004E5D  45                inc ebp
00004E5E  3133              xor [ebx],esi
00004E60  6974657261746F72  imul esi,[ebp+0x72],dword 0x726f7461
00004E68  5F                pop edi
00004E69  7479              jz 0x4ee4
00004E6B  7065              jo 0x4ed2
00004E6D  45                inc ebp
00004E6E  53                push ebx
00004E6F  395F00            cmp [edi+0x0],ebx
00004E72  5F                pop edi
00004E73  5A                pop edx
00004E74  4E                dec esi
00004E75  53                push ebx
00004E76  7431              jz 0x4ea9
00004E78  325F56            xor bl,[edi+0x56]
00004E7B  6563746F72        arpl [gs:edi+ebp*2+0x72],si
00004E80  5F                pop edi
00004E81  626173            bound esp,[ecx+0x73]
00004E84  6549              gs dec ecx
00004E86  7853              js 0x4edb
00004E88  61                popa
00004E89  49                dec ecx
00004E8A  7845              js 0x4ed1
00004E8C  45                inc ebp
00004E8D  3139              xor [ecx],edi
00004E8F  5F                pop edi
00004E90  4D                dec ebp
00004E91  5F                pop edi
00004E92  6765745F          gs a16 jz 0x4ef5
00004E96  54                push esp
00004E97  705F              jo 0x4ef8
00004E99  61                popa
00004E9A  6C                insb
00004E9B  6C                insb
00004E9C  6F                outsd
00004E9D  636174            arpl [ecx+0x74],sp
00004EA0  6F                outsd
00004EA1  7245              jc 0x4ee8
00004EA3  7600              jna 0x4ea5
00004EA5  5F                pop edi
00004EA6  5A                pop edx
00004EA7  4E                dec esi
00004EA8  53                push ebx
00004EA9  69727345526940    imul esi,[edx+0x73],dword 0x40695245
00004EB0  40                inc eax
00004EB1  47                inc edi
00004EB2  4C                dec esp
00004EB3  49                dec ecx
00004EB4  42                inc edx
00004EB5  43                inc ebx
00004EB6  58                pop eax
00004EB7  58                pop eax
00004EB8  5F                pop edi
00004EB9  332E              xor ebp,[esi]
00004EBB  3400              xor al,0x0
00004EBD  5F                pop edi
00004EBE  5A                pop edx
00004EBF  4E                dec esi
00004EC0  4B                dec ebx
00004EC1  395F5F            cmp [edi+0x5f],ebx
00004EC4  676E              a16 outsb
00004EC6  755F              jnz 0x4f27
00004EC8  637878            arpl [eax+0x78],di
00004ECB  3133              xor [ebx],esi
00004ECD  6E                outsb
00004ECE  65775F            gs ja 0x4f30
00004ED1  61                popa
00004ED2  6C                insb
00004ED3  6C                insb
00004ED4  6F                outsd
00004ED5  636174            arpl [ecx+0x74],sp
00004ED8  6F                outsd
00004ED9  7249              jc 0x4f24
00004EDB  7845              js 0x4f22
00004EDD  386D61            cmp [ebp+0x61],ch
00004EE0  785F              js 0x4f41
00004EE2  7369              jnc 0x4f4d
00004EE4  7A65              jpe 0x4f4b
00004EE6  45                inc ebp
00004EE7  7600              jna 0x4ee9
00004EE9  6D                insd
00004EEA  656D              gs insd
00004EEC  6D                insd
00004EED  6F                outsd
00004EEE  7665              jna 0x4f55
00004EF0  40                inc eax
00004EF1  40                inc eax
00004EF2  47                inc edi
00004EF3  4C                dec esp
00004EF4  49                dec ecx
00004EF5  42                inc edx
00004EF6  43                inc ebx
00004EF7  5F                pop edi
00004EF8  322E              xor ch,[esi]
00004EFA  3000              xor [eax],al
00004EFC  5F                pop edi
00004EFD  5A                pop edx
00004EFE  4E                dec esi
00004EFF  53                push ebx
00004F00  7431              jz 0x4f33
00004F02  3462              xor al,0x62
00004F04  61                popa
00004F05  7369              jnc 0x4f70
00004F07  635F69            arpl [edi+0x69],bx
00004F0A  667374            o16 jnc 0x4f81
00004F0D  7265              jc 0x4f74
00004F0F  61                popa
00004F10  6D                insd
00004F11  49                dec ecx
00004F12  635374            arpl [ebx+0x74],dx
00004F15  3131              xor [ecx],esi
00004F17  636861            arpl [eax+0x61],bp
00004F1A  725F              jc 0x4f7b
00004F1C  7472              jz 0x4f90
00004F1E  61                popa
00004F1F  6974734963454543  imul esi,[ebx+esi*2+0x49],dword 0x43454563
00004F27  314550            xor [ebp+0x50],eax
00004F2A  4B                dec ebx
00004F2B  635374            arpl [ebx+0x74],dx
00004F2E  3133              xor [ebx],esi
00004F30  5F                pop edi
00004F31  49                dec ecx
00004F32  6F                outsd
00004F33  735F              jnc 0x4f94
00004F35  4F                dec edi
00004F36  7065              jo 0x4f9d
00004F38  6E                outsb
00004F39  6D                insd
00004F3A  6F                outsd
00004F3B  646540            gs inc eax
00004F3E  40                inc eax
00004F3F  47                inc edi
00004F40  4C                dec esp
00004F41  49                dec ecx
00004F42  42                inc edx
00004F43  43                inc ebx
00004F44  58                pop eax
00004F45  58                pop eax
00004F46  5F                pop edi
00004F47  332E              xor ebp,[esi]
00004F49  3400              xor al,0x0
00004F4B  5F                pop edi
00004F4C  5A                pop edx
00004F4D  4E                dec esi
00004F4E  395F5F            cmp [edi+0x5f],ebx
00004F51  676E              a16 outsb
00004F53  755F              jnz 0x4fb4
00004F55  637878            arpl [eax+0x78],di
00004F58  3133              xor [ebx],esi
00004F5A  6E                outsb
00004F5B  65775F            gs ja 0x4fbd
00004F5E  61                popa
00004F5F  6C                insb
00004F60  6C                insb
00004F61  6F                outsd
00004F62  636174            arpl [ecx+0x74],sp
00004F65  6F                outsd
00004F66  7249              jc 0x4fb1
00004F68  7845              js 0x4faf
00004F6A  44                inc esp
00004F6B  314576            xor [ebp+0x76],eax
00004F6E  005F5A            add [edi+0x5a],bl
00004F71  4E                dec esi
00004F72  53                push ebx
00004F73  6F                outsd
00004F74  6C                insb
00004F75  7345              jnc 0x4fbc
00004F77  7840              js 0x4fb9
00004F79  40                inc eax
00004F7A  47                inc edi
00004F7B  4C                dec esp
00004F7C  49                dec ecx
00004F7D  42                inc edx
00004F7E  43                inc ebx
00004F7F  58                pop eax
00004F80  58                pop eax
00004F81  5F                pop edi
00004F82  332E              xor ebp,[esi]
00004F84  3400              xor al,0x0
00004F86  5F                pop edi
00004F87  656E              gs outsb
00004F89  64005F5A          add [fs:edi+0x5a],bl
00004F8D  4E                dec esi
00004F8E  53                push ebx
00004F8F  6F                outsd
00004F90  6C                insb
00004F91  7345              jnc 0x4fd8
00004F93  50                push eax
00004F94  46                inc esi
00004F95  52                push edx
00004F96  53                push ebx
00004F97  6F                outsd
00004F98  53                push ebx
00004F99  5F                pop edi
00004F9A  45                inc ebp
00004F9B  40                inc eax
00004F9C  40                inc eax
00004F9D  47                inc edi
00004F9E  4C                dec esp
00004F9F  49                dec ecx
00004FA0  42                inc edx
00004FA1  43                inc ebx
00004FA2  58                pop eax
00004FA3  58                pop eax
00004FA4  5F                pop edi
00004FA5  332E              xor ebp,[esi]
00004FA7  3400              xor al,0x0
00004FA9  5F                pop edi
00004FAA  5A                pop edx
00004FAB  4E                dec esi
00004FAC  53                push ebx
00004FAD  7436              jz 0x4fe5
00004FAF  7665              jna 0x5016
00004FB1  63746F72          arpl [edi+ebp*2+0x72],si
00004FB5  49                dec ecx
00004FB6  7853              js 0x500b
00004FB8  61                popa
00004FB9  49                dec ecx
00004FBA  7845              js 0x5001
00004FBC  45                inc ebp
00004FBD  44                inc esp
00004FBE  314576            xor [ebp+0x76],eax
00004FC1  005F5A            add [edi+0x5a],bl
00004FC4  4E                dec esi
00004FC5  53                push ebx
00004FC6  7431              jz 0x4ff9
00004FC8  3462              xor al,0x62
00004FCA  61                popa
00004FCB  7369              jnc 0x5036
00004FCD  635F6F            arpl [edi+0x6f],bx
00004FD0  667374            o16 jnc 0x5047
00004FD3  7265              jc 0x503a
00004FD5  61                popa
00004FD6  6D                insd
00004FD7  49                dec ecx
00004FD8  635374            arpl [ebx+0x74],dx
00004FDB  3131              xor [ecx],esi
00004FDD  636861            arpl [eax+0x61],bp
00004FE0  725F              jc 0x5041
00004FE2  7472              jz 0x5056
00004FE4  61                popa
00004FE5  6974734963454543  imul esi,[ebx+esi*2+0x49],dword 0x43454563
00004FED  314550            xor [ebp+0x50],eax
00004FF0  4B                dec ebx
00004FF1  635374            arpl [ebx+0x74],dx
00004FF4  3133              xor [ebx],esi
00004FF6  5F                pop edi
00004FF7  49                dec ecx
00004FF8  6F                outsd
00004FF9  735F              jnc 0x505a
00004FFB  4F                dec edi
00004FFC  7065              jo 0x5063
00004FFE  6E                outsb
00004FFF  6D                insd
00005000  6F                outsd
00005001  646540            gs inc eax
00005004  40                inc eax
00005005  47                inc edi
00005006  4C                dec esp
00005007  49                dec ecx
00005008  42                inc edx
00005009  43                inc ebx
0000500A  58                pop eax
0000500B  58                pop eax
0000500C  5F                pop edi
0000500D  332E              xor ebp,[esi]
0000500F  3400              xor al,0x0
00005011  5F                pop edi
00005012  5A                pop edx
00005013  53                push ebx
00005014  7431              jz 0x5047
00005016  37                aaa
00005017  5F                pop edi
00005018  5F                pop edi
00005019  7468              jz 0x5083
0000501B  726F              jc 0x508c
0000501D  775F              ja 0x507e
0000501F  626164            bound esp,[ecx+0x64]
00005022  5F                pop edi
00005023  61                popa
00005024  6C                insb
00005025  6C                insb
00005026  6F                outsd
00005027  637640            arpl [esi+0x40],si
0000502A  40                inc eax
0000502B  47                inc edi
0000502C  4C                dec esp
0000502D  49                dec ecx
0000502E  42                inc edx
0000502F  43                inc ebx
00005030  58                pop eax
00005031  58                pop eax
00005032  5F                pop edi
00005033  332E              xor ebp,[esi]
00005035  3400              xor al,0x0
00005037  5F                pop edi
00005038  5A                pop edx
00005039  4E                dec esi
0000503A  395F5F            cmp [edi+0x5f],ebx
0000503D  676E              a16 outsb
0000503F  755F              jnz 0x50a0
00005041  637878            arpl [eax+0x78],di
00005044  3133              xor [ebx],esi
00005046  6E                outsb
00005047  65775F            gs ja 0x50a9
0000504A  61                popa
0000504B  6C                insb
0000504C  6C                insb
0000504D  6F                outsd
0000504E  636174            arpl [ecx+0x74],sp
00005051  6F                outsd
00005052  7249              jc 0x509d
00005054  7845              js 0x509b
00005056  43                inc ebx
00005057  324576            xor al,[ebp+0x76]
0000505A  005F5A            add [edi+0x5a],bl
0000505D  53                push ebx
0000505E  7432              jz 0x5092
00005060  30756E            xor [ebp+0x6e],dh
00005063  696E697469616C    imul ebp,[esi+0x69],dword 0x6c616974
0000506A  697A65645F6669    imul edi,[edx+0x65],dword 0x69665f64
00005071  6C                insb
00005072  6C                insb
00005073  5F                pop edi
00005074  6E                outsb
00005075  49                dec ecx
00005076  50                push eax
00005077  786A              js 0x50e3
00005079  7845              js 0x50c0
0000507B  7654              jna 0x50d1
0000507D  5F                pop edi
0000507E  54                push esp
0000507F  305F52            xor [edi+0x52],bl
00005082  4B                dec ebx
00005083  54                push esp
00005084  315F00            xor [edi+0x0],ebx
00005087  5F                pop edi
00005088  5A                pop edx
00005089  4E                dec esi
0000508A  53                push ebx
0000508B  7431              jz 0x50be
0000508D  325F56            xor bl,[edi+0x56]
00005090  6563746F72        arpl [gs:edi+ebp*2+0x72],si
00005095  5F                pop edi
00005096  626173            bound esp,[ecx+0x73]
00005099  6549              gs dec ecx
0000509B  7853              js 0x50f0
0000509D  61                popa
0000509E  49                dec ecx
0000509F  7845              js 0x50e6
000050A1  45                inc ebp
000050A2  43                inc ebx
000050A3  31456A            xor [ebp+0x6a],eax
000050A6  52                push edx
000050A7  4B                dec ebx
000050A8  53                push ebx
000050A9  305F00            xor [edi+0x0],bl
000050AC  5F                pop edi
000050AD  5A                pop edx
000050AE  4E                dec esi
000050AF  53                push ebx
000050B0  69727345527840    imul esi,[edx+0x73],dword 0x40785245
000050B7  40                inc eax
000050B8  47                inc edi
000050B9  4C                dec esp
000050BA  49                dec ecx
000050BB  42                inc edx
000050BC  43                inc ebx
000050BD  58                pop eax
000050BE  58                pop eax
000050BF  5F                pop edi
000050C0  332E              xor ebp,[esi]
000050C2  3400              xor al,0x0
000050C4  5F                pop edi
000050C5  5A                pop edx
000050C6  4E                dec esi
000050C7  53                push ebx
000050C8  7432              jz 0x50fc
000050CA  325F5F            xor bl,[edi+0x5f]
000050CD  756E              jnz 0x513d
000050CF  696E697469616C    imul ebp,[esi+0x69],dword 0x6c616974
000050D6  697A65645F6669    imul edi,[edx+0x65],dword 0x69665f64
000050DD  6C                insb
000050DE  6C                insb
000050DF  5F                pop edi
000050E0  6E                outsb
000050E1  49                dec ecx
000050E2  4C                dec esp
000050E3  6231              bound esi,[ecx]
000050E5  45                inc ebp
000050E6  45                inc ebp
000050E7  31355F5F756E      xor [0x6e755f5f],esi
000050ED  696E69745F6669    imul ebp,[esi+0x69],dword 0x69665f74
000050F4  6C                insb
000050F5  6C                insb
000050F6  5F                pop edi
000050F7  6E                outsb
000050F8  49                dec ecx
000050F9  50                push eax
000050FA  786A              js 0x5166
000050FC  7845              js 0x5143
000050FE  45                inc ebp
000050FF  7654              jna 0x5155
00005101  5F                pop edi
00005102  54                push esp
00005103  305F52            xor [edi+0x52],bl
00005106  4B                dec ebx
00005107  54                push esp
00005108  315F00            xor [edi+0x0],ebx
0000510B  5F                pop edi
0000510C  5A                pop edx
0000510D  53                push ebx
0000510E  7434              jz 0x5144
00005110  656E              gs outsb
00005112  646C              fs insb
00005114  49                dec ecx
00005115  635374            arpl [ebx+0x74],dx
00005118  3131              xor [ecx],esi
0000511A  636861            arpl [eax+0x61],bp
0000511D  725F              jc 0x517e
0000511F  7472              jz 0x5193
00005121  61                popa
00005122  6974734963454552  imul esi,[ebx+esi*2+0x49],dword 0x52454563
0000512A  53                push ebx
0000512B  7431              jz 0x515e
0000512D  336261            xor esp,[edx+0x61]
00005130  7369              jnc 0x519b
00005132  635F6F            arpl [edi+0x6f],bx
00005135  7374              jnc 0x51ab
00005137  7265              jc 0x519e
00005139  61                popa
0000513A  6D                insd
0000513B  49                dec ecx
0000513C  54                push esp
0000513D  5F                pop edi
0000513E  54                push esp
0000513F  305F45            xor [edi+0x45],bl
00005142  53                push ebx
00005143  365F              ss pop edi
00005145  40                inc eax
00005146  40                inc eax
00005147  47                inc edi
00005148  4C                dec esp
00005149  49                dec ecx
0000514A  42                inc edx
0000514B  43                inc ebx
0000514C  58                pop eax
0000514D  58                pop eax
0000514E  5F                pop edi
0000514F  332E              xor ebp,[esi]
00005151  3400              xor al,0x0
00005153  5F                pop edi
00005154  5A                pop edx
00005155  4E                dec esi
00005156  395F5F            cmp [edi+0x5f],ebx
00005159  676E              a16 outsb
0000515B  755F              jnz 0x51bc
0000515D  637878            arpl [eax+0x78],di
00005160  3133              xor [ebx],esi
00005162  6E                outsb
00005163  65775F            gs ja 0x51c5
00005166  61                popa
00005167  6C                insb
00005168  6C                insb
00005169  6F                outsd
0000516A  636174            arpl [ecx+0x74],sp
0000516D  6F                outsd
0000516E  7249              jc 0x51b9
00005170  7845              js 0x51b7
00005172  43                inc ebx
00005173  324552            xor al,[ebp+0x52]
00005176  4B                dec ebx
00005177  53                push ebx
00005178  315F00            xor [edi+0x0],ebx
0000517B  5F                pop edi
0000517C  656461            fs popa
0000517F  7461              jz 0x51e2
00005181  005F5F            add [edi+0x5f],bl
00005184  677878            a16 js 0x51ff
00005187  5F                pop edi
00005188  7065              jo 0x51ef
0000518A  7273              jc 0x51ff
0000518C  6F                outsd
0000518D  6E                outsb
0000518E  61                popa
0000518F  6C                insb
00005190  6974795F76304040  imul esi,[ecx+edi*2+0x5f],dword 0x40403076
00005198  43                inc ebx
00005199  58                pop eax
0000519A  58                pop eax
0000519B  41                inc ecx
0000519C  42                inc edx
0000519D  49                dec ecx
0000519E  5F                pop edi
0000519F  312E              xor [esi],ebp
000051A1  3300              xor eax,[eax]
000051A3  5F                pop edi
000051A4  5A                pop edx
000051A5  4E                dec esi
000051A6  53                push ebx
000051A7  61                popa
000051A8  49                dec ecx
000051A9  7845              js 0x51f0
000051AB  43                inc ebx
000051AC  324576            xor al,[ebp+0x76]
000051AF  005F5A            add [edi+0x5a],bl
000051B2  4E                dec esi
000051B3  4B                dec ebx
000051B4  395F5F            cmp [edi+0x5f],ebx
000051B7  676E              a16 outsb
000051B9  755F              jnz 0x521a
000051BB  637878            arpl [eax+0x78],di
000051BE  3137              xor [edi],esi
000051C0  5F                pop edi
000051C1  5F                pop edi
000051C2  6E                outsb
000051C3  6F                outsd
000051C4  726D              jc 0x5233
000051C6  61                popa
000051C7  6C                insb
000051C8  5F                pop edi
000051C9  6974657261746F72  imul esi,[ebp+0x72],dword 0x726f7461
000051D1  49                dec ecx
000051D2  50                push eax
000051D3  4B                dec ebx
000051D4  7853              js 0x5229
000051D6  7436              jz 0x520e
000051D8  7665              jna 0x523f
000051DA  63746F72          arpl [edi+ebp*2+0x72],si
000051DE  49                dec ecx
000051DF  7853              js 0x5234
000051E1  61                popa
000051E2  49                dec ecx
000051E3  7845              js 0x522a
000051E5  45                inc ebp
000051E6  45                inc ebp
000051E7  3462              xor al,0x62
000051E9  61                popa
000051EA  7365              jnc 0x5251
000051EC  45                inc ebp
000051ED  7600              jna 0x51ef
000051EF  5F                pop edi
000051F0  55                push ebp
000051F1  6E                outsb
000051F2  7769              ja 0x525d
000051F4  6E                outsb
000051F5  645F              fs pop edi
000051F7  52                push edx
000051F8  657375            gs jnc 0x5270
000051FB  6D                insd
000051FC  6540              gs inc eax
000051FE  40                inc eax
000051FF  47                inc edi
00005200  43                inc ebx
00005201  43                inc ebx
00005202  5F                pop edi
00005203  332E              xor ebp,[esi]
00005205  3000              xor [eax],al
00005207  5F                pop edi
00005208  5A                pop edx
00005209  53                push ebx
0000520A  7431              jz 0x523d
0000520C  335F5F            xor ebx,[edi+0x5f]
0000520F  636F70            arpl [edi+0x70],bp
00005212  795F              jns 0x5273
00005214  6D                insd
00005215  6F                outsd
00005216  7665              jna 0x527d
00005218  5F                pop edi
00005219  61                popa
0000521A  49                dec ecx
0000521B  4C                dec esp
0000521C  6230              bound esi,[eax]
0000521E  45                inc ebp
0000521F  50                push eax
00005220  4B                dec ebx
00005221  7850              js 0x5273
00005223  7845              js 0x526a
00005225  54                push esp
00005226  315F54            xor [edi+0x54],ebx
00005229  305F53            xor [edi+0x53],bl
0000522C  345F              xor al,0x5f
0000522E  53                push ebx
0000522F  335F00            xor ebx,[edi+0x0]
00005232  5F                pop edi
00005233  5A                pop edx
00005234  4E                dec esi
00005235  53                push ebx
00005236  61                popa
00005237  49                dec ecx
00005238  7845              js 0x527f
0000523A  43                inc ebx
0000523B  314552            xor [ebp+0x52],eax
0000523E  4B                dec ebx
0000523F  53                push ebx
00005240  5F                pop edi
00005241  005F5A            add [edi+0x5a],bl
00005244  4E                dec esi
00005245  395F5F            cmp [edi+0x5f],ebx
00005248  676E              a16 outsb
0000524A  755F              jnz 0x52ab
0000524C  637878            arpl [eax+0x78],di
0000524F  3133              xor [ebx],esi
00005251  6E                outsb
00005252  65775F            gs ja 0x52b4
00005255  61                popa
00005256  6C                insb
00005257  6C                insb
00005258  6F                outsd
00005259  636174            arpl [ecx+0x74],sp
0000525C  6F                outsd
0000525D  7249              jc 0x52a8
0000525F  7845              js 0x52a6
00005261  3130              xor [eax],esi
00005263  646561            gs popa
00005266  6C                insb
00005267  6C                insb
00005268  6F                outsd
00005269  636174            arpl [ecx+0x74],sp
0000526C  6545              gs inc ebp
0000526E  50                push eax
0000526F  786A              js 0x52db
00005271  005F5A            add [edi+0x5a],bl
00005274  4E                dec esi
00005275  53                push ebx
00005276  7431              jz 0x52a9
00005278  305F49            xor [edi+0x49],bl
0000527B  7465              jz 0x52e2
0000527D  725F              jc 0x52de
0000527F  626173            bound esp,[ecx+0x73]
00005282  6549              gs dec ecx
00005284  4E                dec esi
00005285  395F5F            cmp [edi+0x5f],ebx
00005288  676E              a16 outsb
0000528A  755F              jnz 0x52eb
0000528C  637878            arpl [eax+0x78],di
0000528F  3137              xor [edi],esi
00005291  5F                pop edi
00005292  5F                pop edi
00005293  6E                outsb
00005294  6F                outsd
00005295  726D              jc 0x5304
00005297  61                popa
00005298  6C                insb
00005299  5F                pop edi
0000529A  6974657261746F72  imul esi,[ebp+0x72],dword 0x726f7461
000052A2  49                dec ecx
000052A3  50                push eax
000052A4  4B                dec ebx
000052A5  7853              js 0x52fa
000052A7  7436              jz 0x52df
000052A9  7665              jna 0x5310
000052AB  63746F72          arpl [edi+ebp*2+0x72],si
000052AF  49                dec ecx
000052B0  7853              js 0x5305
000052B2  61                popa
000052B3  49                dec ecx
000052B4  7845              js 0x52fb
000052B6  45                inc ebp
000052B7  45                inc ebp
000052B8  45                inc ebp
000052B9  4C                dec esp
000052BA  6230              bound esi,[eax]
000052BC  45                inc ebp
000052BD  45                inc ebp
000052BE  37                aaa
000052BF  5F                pop edi
000052C0  53                push ebx
000052C1  5F                pop edi
000052C2  626173            bound esp,[ecx+0x73]
000052C5  6545              gs inc ebp
000052C7  53                push ebx
000052C8  37                aaa
000052C9  5F                pop edi
000052CA  005F5F            add [edi+0x5f],bl
000052CD  693638362E67      imul esi,[esi],dword 0x672e3638
000052D3  65745F            gs jz 0x5335
000052D6  7063              jo 0x533b
000052D8  5F                pop edi
000052D9  7468              jz 0x5343
000052DB  756E              jnz 0x534b
000052DD  6B2E62            imul ebp,[esi],byte +0x62
000052E0  7800              js 0x52e2
000052E2  6D                insd
000052E3  61                popa
000052E4  696E005F696E69    imul ebp,[esi+0x0],dword 0x696e695f
000052EB  7400              jz 0x52ed
