00000000  7F45              jg 0x47
00000002  4C                dec esp
00000003  46                inc esi
00000004  0101              add [ecx],eax
00000006  0100              add [eax],eax
00000008  0000              add [eax],al
0000000A  0000              add [eax],al
0000000C  0000              add [eax],al
0000000E  0000              add [eax],al
00000010  0200              add al,[eax]
00000012  0300              add eax,[eax]
00000014  0100              add [eax],eax
00000016  0000              add [eax],al
00000018  308A04083400      xor [edx+0x340804],cl
0000001E  0000              add [eax],al
00000020  E029              loopne 0x4b
00000022  0000              add [eax],al
00000024  0000              add [eax],al
00000026  0000              add [eax],al
00000028  3400              xor al,0x0
0000002A  2000              and [eax],al
0000002C  0800              or [eax],al
0000002E  2800              sub [eax],al
00000030  260023            add [es:ebx],ah
00000033  0006              add [esi],al
00000035  0000              add [eax],al
00000037  003400            add [eax+eax],dh
0000003A  0000              add [eax],al
0000003C  3480              xor al,0x80
0000003E  0408              add al,0x8
00000040  3480              xor al,0x80
00000042  0408              add al,0x8
00000044  0001              add [ecx],al
00000046  0000              add [eax],al
00000048  0001              add [ecx],al
0000004A  0000              add [eax],al
0000004C  0500000004        add eax,0x4000000
00000051  0000              add [eax],al
00000053  0003              add [ebx],al
00000055  0000              add [eax],al
00000057  003401            add [ecx+eax],dh
0000005A  0000              add [eax],al
0000005C  3481              xor al,0x81
0000005E  0408              add al,0x8
00000060  3481              xor al,0x81
00000062  0408              add al,0x8
00000064  1300              adc eax,[eax]
00000066  0000              add [eax],al
00000068  1300              adc eax,[eax]
0000006A  0000              add [eax],al
0000006C  0400              add al,0x0
0000006E  0000              add [eax],al
00000070  0100              add [eax],eax
00000072  0000              add [eax],al
00000074  0100              add [eax],eax
00000076  0000              add [eax],al
00000078  0000              add [eax],al
0000007A  0000              add [eax],al
0000007C  008004080080      add [eax+0x80000804],al
00000082  0408              add al,0x8
00000084  2420              and al,0x20
00000086  0000              add [eax],al
00000088  2420              and al,0x20
0000008A  0000              add [eax],al
0000008C  0500000000        add eax,0x0
00000091  1000              adc [eax],al
00000093  0001              add [ecx],al
00000095  0000              add [eax],al
00000097  002420            add [eax],ah
0000009A  0000              add [eax],al
0000009C  24B0              and al,0xb0
0000009E  0408              add al,0x8
000000A0  24B0              and al,0xb0
000000A2  0408              add al,0x8
000000A4  640100            add [fs:eax],eax
000000A7  006C0100          add [ecx+eax+0x0],ch
000000AB  0006              add [esi],al
000000AD  0000              add [eax],al
000000AF  0000              add [eax],al
000000B1  1000              adc [eax],al
000000B3  0002              add [edx],al
000000B5  0000              add [eax],al
000000B7  0038              add [eax],bh
000000B9  2000              and [eax],al
000000BB  0038              add [eax],bh
000000BD  B004              mov al,0x4
000000BF  0838              or [eax],bh
000000C1  B004              mov al,0x4
000000C3  08E0              or al,ah
000000C5  0000              add [eax],al
000000C7  00E0              add al,ah
000000C9  0000              add [eax],al
000000CB  0006              add [esi],al
000000CD  0000              add [eax],al
000000CF  000400            add [eax+eax],al
000000D2  0000              add [eax],al
000000D4  0400              add al,0x0
000000D6  0000              add [eax],al
000000D8  48                dec eax
000000D9  0100              add [eax],eax
000000DB  004881            add [eax-0x7f],cl
000000DE  0408              add al,0x8
000000E0  48                dec eax
000000E1  81040820000000    add dword [eax+ecx],0x20
000000E8  2000              and [eax],al
000000EA  0000              add [eax],al
000000EC  0400              add al,0x0
000000EE  0000              add [eax],al
000000F0  0400              add al,0x0
000000F2  0000              add [eax],al
000000F4  50                push eax
000000F5  E574              in eax,0x74
000000F7  6458              fs pop eax
000000F9  1800              sbb [eax],al
000000FB  005898            add [eax-0x68],bl
000000FE  0408              add al,0x8
00000100  58                pop eax
00000101  98                cwde
00000102  0408              add al,0x8
00000104  640100            add [fs:eax],eax
00000107  00640100          add [ecx+eax+0x0],ah
0000010B  000400            add [eax+eax],al
0000010E  0000              add [eax],al
00000110  0400              add al,0x0
00000112  0000              add [eax],al
00000114  51                push ecx
00000115  E574              in eax,0x74
00000117  640000            add [fs:eax],al
0000011A  0000              add [eax],al
0000011C  0000              add [eax],al
0000011E  0000              add [eax],al
00000120  0000              add [eax],al
00000122  0000              add [eax],al
00000124  0000              add [eax],al
00000126  0000              add [eax],al
00000128  0000              add [eax],al
0000012A  0000              add [eax],al
0000012C  06                push es
0000012D  0000              add [eax],al
0000012F  000400            add [eax+eax],al
00000132  0000              add [eax],al
00000134  2F                das
00000135  6C                insb
00000136  69622F6C642D6C    imul esp,[edx+0x2f],dword 0x6c2d646c
0000013D  696E75782E736F    imul ebp,[esi+0x75],dword 0x6f732e78
00000144  2E3200            xor al,[cs:eax]
00000147  000400            add [eax+eax],al
0000014A  0000              add [eax],al
0000014C  1000              adc [eax],al
0000014E  0000              add [eax],al
00000150  0100              add [eax],eax
00000152  0000              add [eax],al
00000154  47                inc edi
00000155  4E                dec esi
00000156  55                push ebp
00000157  0000              add [eax],al
00000159  0000              add [eax],al
0000015B  0002              add [edx],al
0000015D  0000              add [eax],al
0000015F  0000              add [eax],al
00000161  0000              add [eax],al
00000163  0000              add [eax],al
00000165  0000              add [eax],al
00000167  0011              add [ecx],dl
00000169  0000              add [eax],al
0000016B  001B              add [ebx],bl
0000016D  0000              add [eax],al
0000016F  0011              add [ecx],dl
00000171  0000              add [eax],al
00000173  0013              add [ebx],dl
00000175  0000              add [eax],al
00000177  000B              add [ebx],cl
00000179  0000              add [eax],al
0000017B  0016              add [esi],dl
0000017D  0000              add [eax],al
0000017F  0018              add [eax],bl
00000181  0000              add [eax],al
00000183  0000              add [eax],al
00000185  0000              add [eax],al
00000187  0019              add [ecx],bl
00000189  0000              add [eax],al
0000018B  0009              add [ecx],cl
0000018D  0000              add [eax],al
0000018F  001500000004      add [0x4000000],dl
00000195  0000              add [eax],al
00000197  001A              add [edx],bl
00000199  0000              add [eax],al
0000019B  0000              add [eax],al
0000019D  0000              add [eax],al
0000019F  000A              add [edx],cl
000001A1  0000              add [eax],al
000001A3  000C00            add [eax+eax],cl
000001A6  0000              add [eax],al
000001A8  0800              or [eax],al
000001AA  0000              add [eax],al
000001AC  1000              adc [eax],al
000001AE  0000              add [eax],al
000001B0  17                pop ss
000001B1  0000              add [eax],al
000001B3  0000              add [eax],al
000001B5  0000              add [eax],al
000001B7  0000              add [eax],al
000001B9  0000              add [eax],al
000001BB  0000              add [eax],al
000001BD  0000              add [eax],al
000001BF  0000              add [eax],al
000001C1  0000              add [eax],al
000001C3  0000              add [eax],al
000001C5  0000              add [eax],al
000001C7  0000              add [eax],al
000001C9  0000              add [eax],al
000001CB  0003              add [ebx],al
000001CD  0000              add [eax],al
000001CF  0000              add [eax],al
000001D1  0000              add [eax],al
000001D3  0001              add [ecx],al
000001D5  0000              add [eax],al
000001D7  0007              add [edi],al
000001D9  0000              add [eax],al
000001DB  0000              add [eax],al
000001DD  0000              add [eax],al
000001DF  0002              add [edx],al
000001E1  0000              add [eax],al
000001E3  0000              add [eax],al
000001E5  0000              add [eax],al
000001E7  0006              add [esi],al
000001E9  0000              add [eax],al
000001EB  0000              add [eax],al
000001ED  0000              add [eax],al
000001EF  0000              add [eax],al
000001F1  0000              add [eax],al
000001F3  00050000000E      add [0xe000000],al
000001F9  0000              add [eax],al
000001FB  0000              add [eax],al
000001FD  0000              add [eax],al
000001FF  0000              add [eax],al
00000201  0000              add [eax],al
00000203  0000              add [eax],al
00000205  0000              add [eax],al
00000207  0012              add [edx],dl
00000209  0000              add [eax],al
0000020B  000D0000000F      add [0xf000000],cl
00000211  0000              add [eax],al
00000213  001400            add [eax+eax],dl
00000216  0000              add [eax],al
00000218  0000              add [eax],al
0000021A  0000              add [eax],al
0000021C  0000              add [eax],al
0000021E  0000              add [eax],al
00000220  0000              add [eax],al
00000222  0000              add [eax],al
00000224  0000              add [eax],al
00000226  0000              add [eax],al
00000228  0000              add [eax],al
0000022A  0000              add [eax],al
0000022C  0000              add [eax],al
0000022E  0000              add [eax],al
00000230  CC                int3
00000231  0100              add [eax],eax
00000233  0000              add [eax],al
00000235  0000              add [eax],al
00000237  0000              add [eax],al
00000239  0000              add [eax],al
0000023B  0012              add [edx],dl
0000023D  0000              add [eax],al
0000023F  009702000000      add [edi+0x2],dl
00000245  0000              add [eax],al
00000247  0000              add [eax],al
00000249  0000              add [eax],al
0000024B  0012              add [edx],dl
0000024D  0000              add [eax],al
0000024F  003D01000000      add [0x1],bh
00000255  0000              add [eax],al
00000257  0000              add [eax],al
00000259  0000              add [eax],al
0000025B  0012              add [edx],dl
0000025D  0000              add [eax],al
0000025F  00FA              add dl,bh
00000261  0100              add [eax],eax
00000263  0000              add [eax],al
00000265  0000              add [eax],al
00000267  0000              add [eax],al
00000269  0000              add [eax],al
0000026B  0012              add [edx],dl
0000026D  0000              add [eax],al
0000026F  00D6              add dh,dl
00000271  0100              add [eax],eax
00000273  0000              add [eax],al
00000275  0000              add [eax],al
00000277  0000              add [eax],al
00000279  0000              add [eax],al
0000027B  0020              add [eax],ah
0000027D  0000              add [eax],al
0000027F  004302            add [ebx+0x2],al
00000282  0000              add [eax],al
00000284  0000              add [eax],al
00000286  0000              add [eax],al
00000288  0000              add [eax],al
0000028A  0000              add [eax],al
0000028C  2000              and [eax],al
0000028E  0000              add [eax],al
00000290  7E00              jng 0x292
00000292  0000              add [eax],al
00000294  0000              add [eax],al
00000296  0000              add [eax],al
00000298  0000              add [eax],al
0000029A  0000              add [eax],al
0000029C  1200              adc al,[eax]
0000029E  0000              add [eax],al
000002A0  1000              adc [eax],al
000002A2  0000              add [eax],al
000002A4  0000              add [eax],al
000002A6  0000              add [eax],al
000002A8  0000              add [eax],al
000002AA  0000              add [eax],al
000002AC  1200              adc al,[eax]
000002AE  0000              add [eax],al
000002B0  FF02              inc dword [edx]
000002B2  0000              add [eax],al
000002B4  0000              add [eax],al
000002B6  0000              add [eax],al
000002B8  0000              add [eax],al
000002BA  0000              add [eax],al
000002BC  1200              adc al,[eax]
000002BE  0000              add [eax],al
000002C0  8500              test [eax],eax
000002C2  0000              add [eax],al
000002C4  0000              add [eax],al
000002C6  0000              add [eax],al
000002C8  0000              add [eax],al
000002CA  0000              add [eax],al
000002CC  2000              and [eax],al
000002CE  0000              add [eax],al
000002D0  D000              rol byte [eax],1
000002D2  0000              add [eax],al
000002D4  0000              add [eax],al
000002D6  0000              add [eax],al
000002D8  0000              add [eax],al
000002DA  0000              add [eax],al
000002DC  1200              adc al,[eax]
000002DE  0000              add [eax],al
000002E0  F00200            lock add al,[eax]
000002E3  002C98            add [eax+ebx*4],ch
000002E6  0408              add al,0x8
000002E8  0400              add al,0x0
000002EA  0000              add [eax],al
000002EC  1100              adc [eax],eax
000002EE  0E                push cs
000002EF  007D02            add [ebp+0x2],bh
000002F2  0000              add [eax],al
000002F4  0000              add [eax],al
000002F6  0000              add [eax],al
000002F8  0000              add [eax],al
000002FA  0000              add [eax],al
000002FC  2000              and [eax],al
000002FE  0000              add [eax],al
00000300  C402              les eax,[edx]
00000302  0000              add [eax],al
00000304  0000              add [eax],al
00000306  0000              add [eax],al
00000308  0000              add [eax],al
0000030A  0000              add [eax],al
0000030C  1200              adc al,[eax]
0000030E  0000              add [eax],al
00000310  0801              or [ecx],al
00000312  0000              add [eax],al
00000314  0000              add [eax],al
00000316  0000              add [eax],al
00000318  0000              add [eax],al
0000031A  0000              add [eax],al
0000031C  1200              adc al,[eax]
0000031E  0000              add [eax],al
00000320  A100000000        mov eax,[0x0]
00000325  0000              add [eax],al
00000327  0000              add [eax],al
00000329  0000              add [eax],al
0000032B  0012              add [edx],dl
0000032D  0000              add [eax],al
0000032F  0037              add [edi],dh
00000331  0100              add [eax],eax
00000333  0000              add [eax],al
00000335  0000              add [eax],al
00000337  0000              add [eax],al
00000339  0000              add [eax],al
0000033B  0012              add [edx],dl
0000033D  0000              add [eax],al
0000033F  007202            add [edx+0x2],dh
00000342  0000              add [eax],al
00000344  0000              add [eax],al
00000346  0000              add [eax],al
00000348  0000              add [eax],al
0000034A  0000              add [eax],al
0000034C  1200              adc al,[eax]
0000034E  0000              add [eax],al
00000350  8A01              mov al,[ecx]
00000352  0000              add [eax],al
00000354  0000              add [eax],al
00000356  0000              add [eax],al
00000358  0000              add [eax],al
0000035A  0000              add [eax],al
0000035C  1200              adc al,[eax]
0000035E  0000              add [eax],al
00000360  3200              xor al,[eax]
00000362  0000              add [eax],al
00000364  0000              add [eax],al
00000366  0000              add [eax],al
00000368  0000              add [eax],al
0000036A  0000              add [eax],al
0000036C  1200              adc al,[eax]
0000036E  0000              add [eax],al
00000370  48                dec eax
00000371  0100              add [eax],eax
00000373  0000              add [eax],al
00000375  0000              add [eax],al
00000377  0000              add [eax],al
00000379  0000              add [eax],al
0000037B  0012              add [edx],dl
0000037D  0000              add [eax],al
0000037F  00A102000000      add [ecx+0x2],ah
00000385  0000              add [eax],al
00000387  0000              add [eax],al
00000389  0000              add [eax],al
0000038B  0012              add [edx],dl
0000038D  0000              add [eax],al
0000038F  004300            add [ebx+0x0],al
00000392  0000              add [eax],al
00000394  F0890408          lock mov [eax+ecx],eax
00000398  0000              add [eax],al
0000039A  0000              add [eax],al
0000039C  1200              adc al,[eax]
0000039E  0000              add [eax],al
000003A0  E501              in eax,0x1
000003A2  0000              add [eax],al
000003A4  008A04080000      add [edx+0x804],cl
000003AA  0000              add [eax],al
000003AC  1200              adc al,[eax]
000003AE  0000              add [eax],al
000003B0  D7                xlatb
000003B1  0200              add al,[eax]
000003B3  0000              add [eax],al
000003B5  0000              add [eax],al
000003B7  0000              add [eax],al
000003B9  0000              add [eax],al
000003BB  0012              add [edx],dl
000003BD  0000              add [eax],al
000003BF  005702            add [edi+0x2],dl
000003C2  0000              add [eax],al
000003C4  0000              add [eax],al
000003C6  0000              add [eax],al
000003C8  0000              add [eax],al
000003CA  0000              add [eax],al
000003CC  1200              adc al,[eax]
000003CE  0000              add [eax],al
000003D0  006C6962          add [ecx+ebp*2+0x62],ch
000003D4  7374              jnc 0x44a
000003D6  64632B            arpl [fs:ebx],bp
000003D9  2B2E              sub ebp,[esi]
000003DB  736F              jnc 0x44c
000003DD  2E36005F5A        add [ss:edi+0x5a],bl
000003E2  4E                dec esi
000003E3  53                push ebx
000003E4  7438              jz 0x41e
000003E6  696F735F626173    imul ebp,[edi+0x73],dword 0x7361625f
000003ED  65313573796E63    xor [gs:0x636e7973],esi
000003F4  5F                pop edi
000003F5  7769              ja 0x460
000003F7  7468              jz 0x461
000003F9  5F                pop edi
000003FA  7374              jnc 0x470
000003FC  64696F4562005F5A  imul ebp,[fs:edi+0x45],dword 0x5a5f0062
00000404  4E                dec esi
00000405  53                push ebx
00000406  6F                outsd
00000407  6C                insb
00000408  7345              jnc 0x44f
0000040A  50                push eax
0000040B  46                inc esi
0000040C  52                push edx
0000040D  53                push ebx
0000040E  6F                outsd
0000040F  53                push ebx
00000410  5F                pop edi
00000411  45                inc ebp
00000412  005F5A            add [edi+0x5a],bl
00000415  53                push ebx
00000416  7434              jz 0x44c
00000418  656E              gs outsb
0000041A  646C              fs insb
0000041C  49                dec ecx
0000041D  635374            arpl [ebx+0x74],dx
00000420  3131              xor [ecx],esi
00000422  636861            arpl [eax+0x61],bp
00000425  725F              jc 0x486
00000427  7472              jz 0x49b
00000429  61                popa
0000042A  6974734963454552  imul esi,[ebx+esi*2+0x49],dword 0x52454563
00000432  53                push ebx
00000433  7431              jz 0x466
00000435  336261            xor esp,[edx+0x61]
00000438  7369              jnc 0x4a3
0000043A  635F6F            arpl [edi+0x6f],bx
0000043D  7374              jnc 0x4b3
0000043F  7265              jc 0x4a6
00000441  61                popa
00000442  6D                insd
00000443  49                dec ecx
00000444  54                push esp
00000445  5F                pop edi
00000446  54                push esp
00000447  305F45            xor [edi+0x45],bl
0000044A  53                push ebx
0000044B  365F              ss pop edi
0000044D  005F5A            add [edi+0x5a],bl
00000450  646C              fs insb
00000452  50                push eax
00000453  7600              jna 0x455
00000455  5F                pop edi
00000456  49                dec ecx
00000457  54                push esp
00000458  4D                dec ebp
00000459  5F                pop edi
0000045A  64657265          gs jc 0x4c3
0000045E  676973746572544D  imul esi,[bp+di+0x74],dword 0x4d547265
00000466  43                inc ebx
00000467  6C                insb
00000468  6F                outsd
00000469  6E                outsb
0000046A  6554              gs push esp
0000046C  61                popa
0000046D  626C6500          bound ebp,[ebp+0x0]
00000471  5F                pop edi
00000472  5A                pop edx
00000473  4E                dec esi
00000474  53                push ebx
00000475  7431              jz 0x4a8
00000477  3462              xor al,0x62
00000479  61                popa
0000047A  7369              jnc 0x4e5
0000047C  635F6F            arpl [edi+0x6f],bx
0000047F  667374            o16 jnc 0x4f6
00000482  7265              jc 0x4e9
00000484  61                popa
00000485  6D                insd
00000486  49                dec ecx
00000487  635374            arpl [ebx+0x74],dx
0000048A  3131              xor [ecx],esi
0000048C  636861            arpl [eax+0x61],bp
0000048F  725F              jc 0x4f0
00000491  7472              jz 0x505
00000493  61                popa
00000494  6974734963454544  imul esi,[ebx+esi*2+0x49],dword 0x44454563
0000049C  314576            xor [ebp+0x76],eax
0000049F  005F5A            add [edi+0x5a],bl
000004A2  53                push ebx
000004A3  746C              jz 0x511
000004A5  7349              jnc 0x4f0
000004A7  53                push ebx
000004A8  7431              jz 0x4db
000004AA  316368            xor [ebx+0x68],esp
000004AD  61                popa
000004AE  725F              jc 0x50f
000004B0  7472              jz 0x524
000004B2  61                popa
000004B3  6974734963454552  imul esi,[ebx+esi*2+0x49],dword 0x52454563
000004BB  53                push ebx
000004BC  7431              jz 0x4ef
000004BE  336261            xor esp,[edx+0x61]
000004C1  7369              jnc 0x52c
000004C3  635F6F            arpl [edi+0x6f],bx
000004C6  7374              jnc 0x53c
000004C8  7265              jc 0x52f
000004CA  61                popa
000004CB  6D                insd
000004CC  49                dec ecx
000004CD  63545F45          arpl [edi+ebx*2+0x45],dx
000004D1  53                push ebx
000004D2  355F504B63        xor eax,0x634b505f
000004D7  005F5A            add [edi+0x5a],bl
000004DA  4E                dec esi
000004DB  53                push ebx
000004DC  7431              jz 0x50f
000004DE  3462              xor al,0x62
000004E0  61                popa
000004E1  7369              jnc 0x54c
000004E3  635F69            arpl [edi+0x69],bx
000004E6  667374            o16 jnc 0x55d
000004E9  7265              jc 0x550
000004EB  61                popa
000004EC  6D                insd
000004ED  49                dec ecx
000004EE  635374            arpl [ebx+0x74],dx
000004F1  3131              xor [ecx],esi
000004F3  636861            arpl [eax+0x61],bp
000004F6  725F              jc 0x557
000004F8  7472              jz 0x56c
000004FA  61                popa
000004FB  6974734963454544  imul esi,[ebx+esi*2+0x49],dword 0x44454563
00000503  314576            xor [ebp+0x76],eax
00000506  005F5A            add [edi+0x5a],bl
00000509  6E                outsb
0000050A  776A              ja 0x576
0000050C  005F5A            add [edi+0x5a],bl
0000050F  4E                dec esi
00000510  53                push ebx
00000511  69727345526400    imul esi,[edx+0x73],dword 0x645245
00000518  5F                pop edi
00000519  5A                pop edx
0000051A  4E                dec esi
0000051B  53                push ebx
0000051C  7431              jz 0x54f
0000051E  3462              xor al,0x62
00000520  61                popa
00000521  7369              jnc 0x58c
00000523  635F6F            arpl [edi+0x6f],bx
00000526  667374            o16 jnc 0x59d
00000529  7265              jc 0x590
0000052B  61                popa
0000052C  6D                insd
0000052D  49                dec ecx
0000052E  635374            arpl [ebx+0x74],dx
00000531  3131              xor [ecx],esi
00000533  636861            arpl [eax+0x61],bp
00000536  725F              jc 0x597
00000538  7472              jz 0x5ac
0000053A  61                popa
0000053B  6974734963454543  imul esi,[ebx+esi*2+0x49],dword 0x43454563
00000543  314550            xor [ebp+0x50],eax
00000546  4B                dec ebx
00000547  635374            arpl [ebx+0x74],dx
0000054A  3133              xor [ebx],esi
0000054C  5F                pop edi
0000054D  49                dec ecx
0000054E  6F                outsd
0000054F  735F              jnc 0x5b0
00000551  4F                dec edi
00000552  7065              jo 0x5b9
00000554  6E                outsb
00000555  6D                insd
00000556  6F                outsd
00000557  6465005F5A        add [gs:edi+0x5a],bl
0000055C  4E                dec esi
0000055D  53                push ebx
0000055E  7431              jz 0x591
00000560  3462              xor al,0x62
00000562  61                popa
00000563  7369              jnc 0x5ce
00000565  635F69            arpl [edi+0x69],bx
00000568  667374            o16 jnc 0x5df
0000056B  7265              jc 0x5d2
0000056D  61                popa
0000056E  6D                insd
0000056F  49                dec ecx
00000570  635374            arpl [ebx+0x74],dx
00000573  3131              xor [ecx],esi
00000575  636861            arpl [eax+0x61],bp
00000578  725F              jc 0x5d9
0000057A  7472              jz 0x5ee
0000057C  61                popa
0000057D  6974734963454543  imul esi,[ebx+esi*2+0x49],dword 0x43454563
00000585  314550            xor [ebp+0x50],eax
00000588  4B                dec ebx
00000589  635374            arpl [ebx+0x74],dx
0000058C  3133              xor [ebx],esi
0000058E  5F                pop edi
0000058F  49                dec ecx
00000590  6F                outsd
00000591  735F              jnc 0x5f2
00000593  4F                dec edi
00000594  7065              jo 0x5fb
00000596  6E                outsb
00000597  6D                insd
00000598  6F                outsd
00000599  6465005F5A        add [gs:edi+0x5a],bl
0000059E  4E                dec esi
0000059F  53                push ebx
000005A0  6F                outsd
000005A1  6C                insb
000005A2  7345              jnc 0x5e9
000005A4  64005F5F          add [fs:edi+0x5f],bl
000005A8  676D              a16 insd
000005AA  6F                outsd
000005AB  6E                outsb
000005AC  5F                pop edi
000005AD  7374              jnc 0x623
000005AF  61                popa
000005B0  7274              jc 0x626
000005B2  5F                pop edi
000005B3  5F                pop edi
000005B4  005F5F            add [edi+0x5f],bl
000005B7  677878            a16 js 0x632
000005BA  5F                pop edi
000005BB  7065              jo 0x622
000005BD  7273              jc 0x632
000005BF  6F                outsd
000005C0  6E                outsb
000005C1  61                popa
000005C2  6C                insb
000005C3  6974795F7630005F  imul esi,[ecx+edi*2+0x5f],dword 0x5f003076
000005CB  5A                pop edx
000005CC  53                push ebx
000005CD  746C              jz 0x63b
000005CF  7349              jnc 0x61a
000005D1  635374            arpl [ebx+0x74],dx
000005D4  3131              xor [ecx],esi
000005D6  636861            arpl [eax+0x61],bp
000005D9  725F              jc 0x63a
000005DB  7472              jz 0x64f
000005DD  61                popa
000005DE  6974734963454552  imul esi,[ebx+esi*2+0x49],dword 0x52454563
000005E6  53                push ebx
000005E7  7431              jz 0x61a
000005E9  336261            xor esp,[edx+0x61]
000005EC  7369              jnc 0x657
000005EE  635F6F            arpl [edi+0x6f],bx
000005F1  7374              jnc 0x667
000005F3  7265              jc 0x65a
000005F5  61                popa
000005F6  6D                insd
000005F7  49                dec ecx
000005F8  54                push esp
000005F9  5F                pop edi
000005FA  54                push esp
000005FB  305F45            xor [edi+0x45],bl
000005FE  53                push ebx
000005FF  365F              ss pop edi
00000601  53                push ebx
00000602  7431              jz 0x635
00000604  335F53            xor ebx,[edi+0x53]
00000607  657470            gs jz 0x67a
0000060A  7265              jc 0x671
0000060C  636973            arpl [ecx+0x73],bp
0000060F  696F6E005F4A76    imul ebp,[edi+0x6e],dword 0x764a5f00
00000616  5F                pop edi
00000617  52                push edx
00000618  6567697374657243  imul esi,[gs:bp+di+0x74],dword 0x6c437265
         -6C
00000621  61                popa
00000622  7373              jnc 0x697
00000624  657300            gs jnc 0x627
00000627  5F                pop edi
00000628  5A                pop edx
00000629  4E                dec esi
0000062A  53                push ebx
0000062B  6F                outsd
0000062C  6C                insb
0000062D  7345              jnc 0x674
0000062F  50                push eax
00000630  46                inc esi
00000631  52                push edx
00000632  53                push ebx
00000633  7438              jz 0x66d
00000635  696F735F626173    imul ebp,[edi+0x73],dword 0x7361625f
0000063C  6553              gs push ebx
0000063E  305F45            xor [edi+0x45],bl
00000641  005F5A            add [edi+0x5a],bl
00000644  4E                dec esi
00000645  53                push ebx
00000646  69727345526900    imul esi,[edx+0x73],dword 0x695245
0000064D  5F                pop edi
0000064E  49                dec ecx
0000064F  54                push esp
00000650  4D                dec ebp
00000651  5F                pop edi
00000652  7265              jc 0x6b9
00000654  676973746572544D  imul esi,[bp+di+0x74],dword 0x4d547265
0000065C  43                inc ebx
0000065D  6C                insb
0000065E  6F                outsd
0000065F  6E                outsb
00000660  6554              gs push esp
00000662  61                popa
00000663  626C6500          bound ebp,[ebp+0x0]
00000667  5F                pop edi
00000668  5A                pop edx
00000669  4E                dec esi
0000066A  53                push ebx
0000066B  6F                outsd
0000066C  6C                insb
0000066D  7345              jnc 0x6b4
0000066F  69005F5A5374      imul eax,[eax],dword 0x74535a5f
00000675  3137              xor [edi],esi
00000677  5F                pop edi
00000678  5F                pop edi
00000679  7468              jz 0x6e3
0000067B  726F              jc 0x6ec
0000067D  775F              ja 0x6de
0000067F  626164            bound esp,[ecx+0x64]
00000682  5F                pop edi
00000683  61                popa
00000684  6C                insb
00000685  6C                insb
00000686  6F                outsd
00000687  637600            arpl [esi+0x0],si
0000068A  6C                insb
0000068B  69626D2E736F2E    imul esp,[edx+0x6d],dword 0x2e6f732e
00000692  36007371          add [ss:ebx+0x71],dh
00000696  7274              jc 0x70c
00000698  006C6962          add [ecx+ebp*2+0x62],ch
0000069C  6763635F          arpl [bp+di+0x5f],sp
000006A0  732E              jnc 0x6d0
000006A2  736F              jnc 0x713
000006A4  2E3100            xor [cs:eax],eax
000006A7  5F                pop edi
000006A8  55                push ebp
000006A9  6E                outsb
000006AA  7769              ja 0x715
000006AC  6E                outsb
000006AD  645F              fs pop edi
000006AF  52                push edx
000006B0  657375            gs jnc 0x728
000006B3  6D                insd
000006B4  65006C6962        add [gs:ecx+ebp*2+0x62],ch
000006B9  632E              arpl [esi],bp
000006BB  736F              jnc 0x72c
000006BD  2E36005F49        add [ss:edi+0x49],bl
000006C2  4F                dec edi
000006C3  5F                pop edi
000006C4  7374              jnc 0x73a
000006C6  64696E5F75736564  imul ebp,[fs:esi+0x5f],dword 0x64657375
000006CE  005F5F            add [edi+0x5f],bl
000006D1  6C                insb
000006D2  6962635F737461    imul esp,[edx+0x63],dword 0x6174735f
000006D9  7274              jc 0x74f
000006DB  5F                pop edi
000006DC  6D                insd
000006DD  61                popa
000006DE  696E004743435F    imul ebp,[esi+0x0],dword 0x5f434347
000006E5  332E              xor ebp,[esi]
000006E7  3000              xor [eax],al
000006E9  47                inc edi
000006EA  4C                dec esp
000006EB  49                dec ecx
000006EC  42                inc edx
000006ED  43                inc ebx
000006EE  5F                pop edi
000006EF  322E              xor ch,[esi]
000006F1  3000              xor [eax],al
000006F3  43                inc ebx
000006F4  58                pop eax
000006F5  58                pop eax
000006F6  41                inc ecx
000006F7  42                inc edx
000006F8  49                dec ecx
000006F9  5F                pop edi
000006FA  312E              xor [esi],ebp
000006FC  3300              xor eax,[eax]
000006FE  47                inc edi
000006FF  4C                dec esp
00000700  49                dec ecx
00000701  42                inc edx
00000702  43                inc ebx
00000703  58                pop eax
00000704  58                pop eax
00000705  5F                pop edi
00000706  332E              xor ebp,[esi]
00000708  3400              xor al,0x0
0000070A  0000              add [eax],al
0000070C  0200              add al,[eax]
0000070E  0200              add al,[eax]
00000710  0200              add al,[eax]
00000712  0200              add al,[eax]
00000714  0000              add [eax],al
00000716  0000              add [eax],al
00000718  0200              add al,[eax]
0000071A  0200              add al,[eax]
0000071C  0300              add eax,[eax]
0000071E  0000              add [eax],al
00000720  0200              add al,[eax]
00000722  0100              add [eax],eax
00000724  0000              add [eax],al
00000726  0400              add al,0x0
00000728  0200              add al,[eax]
0000072A  0200              add al,[eax]
0000072C  0200              add al,[eax]
0000072E  0200              add al,[eax]
00000730  0200              add al,[eax]
00000732  0200              add al,[eax]
00000734  0200              add al,[eax]
00000736  0200              add al,[eax]
00000738  0200              add al,[eax]
0000073A  0500060002        add eax,0x2000600
0000073F  0001              add [ecx],al
00000741  0001              add [ecx],al
00000743  00C9              add cl,cl
00000745  0200              add al,[eax]
00000747  0010              add [eax],dl
00000749  0000              add [eax],al
0000074B  0020              add [eax],ah
0000074D  0000              add [eax],al
0000074F  005026            add [eax+0x26],dl
00000752  790B              jns 0x75f
00000754  0000              add [eax],al
00000756  06                push es
00000757  0011              add [ecx],dl
00000759  0300              add eax,[eax]
0000075B  0000              add [eax],al
0000075D  0000              add [eax],al
0000075F  0001              add [ecx],al
00000761  0001              add [ecx],al
00000763  00BA02000010      add [edx+0x10000002],bh
00000769  0000              add [eax],al
0000076B  0020              add [eax],ah
0000076D  0000              add [eax],al
0000076F  0010              add [eax],dl
00000771  69690D00000400    imul ebp,[ecx+0xd],dword 0x40000
00000778  1903              sbb [ebx],eax
0000077A  0000              add [eax],al
0000077C  0000              add [eax],al
0000077E  0000              add [eax],al
00000780  0100              add [eax],eax
00000782  0100              add [eax],eax
00000784  E602              out 0x2,al
00000786  0000              add [eax],al
00000788  1000              adc [eax],al
0000078A  0000              add [eax],al
0000078C  2000              and [eax],al
0000078E  0000              add [eax],al
00000790  106969            adc [ecx+0x69],ch
00000793  0D00000300        or eax,0x30000
00000798  1903              sbb [ebx],eax
0000079A  0000              add [eax],al
0000079C  0000              add [eax],al
0000079E  0000              add [eax],al
000007A0  0100              add [eax],eax
000007A2  0200              add al,[eax]
000007A4  0100              add [eax],eax
000007A6  0000              add [eax],al
000007A8  1000              adc [eax],al
000007AA  0000              add [eax],al
000007AC  0000              add [eax],al
000007AE  0000              add [eax],al
000007B0  D3AF6B050000      shr dword [edi+0x56b],cl
000007B6  0500230300        add eax,0x32300
000007BB  0010              add [eax],dl
000007BD  0000              add [eax],al
000007BF  00742992          add [ecx+ebp-0x6e],dh
000007C3  0800              or [eax],al
000007C5  0002              add [edx],al
000007C7  002E              add [esi],ch
000007C9  0300              add eax,[eax]
000007CB  0000              add [eax],al
000007CD  0000              add [eax],al
000007CF  0018              add [eax],bl
000007D1  B104              mov cl,0x4
000007D3  0806              or [esi],al
000007D5  05000028B1        add eax,0xb1280000
000007DA  0408              add al,0x8
000007DC  07                pop es
000007DD  0100              add [eax],eax
000007DF  002CB1            add [ecx+esi*4],ch
000007E2  0408              add al,0x8
000007E4  07                pop es
000007E5  0200              add al,[eax]
000007E7  0030              add [eax],dh
000007E9  B104              mov cl,0x4
000007EB  0807              or [edi],al
000007ED  0300              add eax,[eax]
000007EF  0034B1            add [ecx+esi*4],dh
000007F2  0408              add al,0x8
000007F4  07                pop es
000007F5  0400              add al,0x0
000007F7  0038              add [eax],bh
000007F9  B104              mov cl,0x4
000007FB  0807              or [edi],al
000007FD  0500003CB1        add eax,0xb13c0000
00000802  0408              add al,0x8
00000804  07                pop es
00000805  07                pop es
00000806  0000              add [eax],al
00000808  40                inc eax
00000809  B104              mov cl,0x4
0000080B  0807              or [edi],al
0000080D  0800              or [eax],al
0000080F  0044B104          add [ecx+esi*4+0x4],al
00000813  0807              or [edi],al
00000815  0900              or [eax],eax
00000817  0048B1            add [eax-0x4f],cl
0000081A  0408              add al,0x8
0000081C  07                pop es
0000081D  0B00              or eax,[eax]
0000081F  004CB104          add [ecx+esi*4+0x4],cl
00000823  0807              or [edi],al
00000825  0E                push cs
00000826  0000              add [eax],al
00000828  50                push eax
00000829  B104              mov cl,0x4
0000082B  0807              or [edi],al
0000082D  0F0000            sldt [eax]
00000830  54                push esp
00000831  B104              mov cl,0x4
00000833  0807              or [edi],al
00000835  1000              adc [eax],al
00000837  0058B1            add [eax-0x4f],bl
0000083A  0408              add al,0x8
0000083C  07                pop es
0000083D  1100              adc [eax],eax
0000083F  005CB104          add [ecx+esi*4+0x4],bl
00000843  0807              or [edi],al
00000845  1200              adc al,[eax]
00000847  0060B1            add [eax-0x4f],ah
0000084A  0408              add al,0x8
0000084C  07                pop es
0000084D  1300              adc eax,[eax]
0000084F  0064B104          add [ecx+esi*4+0x4],ah
00000853  0807              or [edi],al
00000855  1400              adc al,0x0
00000857  0068B1            add [eax-0x4f],ch
0000085A  0408              add al,0x8
0000085C  07                pop es
0000085D  1500006CB1        adc eax,0xb16c0000
00000862  0408              add al,0x8
00000864  07                pop es
00000865  16                push ss
00000866  0000              add [eax],al
00000868  70B1              jo 0x81b
0000086A  0408              add al,0x8
0000086C  07                pop es
0000086D  17                pop ss
0000086E  0000              add [eax],al
00000870  74B1              jz 0x823
00000872  0408              add al,0x8
00000874  07                pop es
00000875  1800              sbb [eax],al
00000877  0078B1            add [eax-0x4f],bh
0000087A  0408              add al,0x8
0000087C  07                pop es
0000087D  1900              sbb [eax],eax
0000087F  007CB104          add [ecx+esi*4+0x4],bh
00000883  0807              or [edi],al
00000885  1A00              sbb al,[eax]
00000887  005589            add [ebp-0x77],dl
0000088A  E553              in eax,0x53
0000088C  83EC04            sub esp,byte +0x4
0000088F  E800000000        call 0x894
00000894  5B                pop ebx
00000895  81C388280000      add ebx,0x2888
0000089B  8B93FCFFFFFF      mov edx,[ebx+0xfffffffc]
000008A1  85D2              test edx,edx
000008A3  7405              jz 0x8aa
000008A5  E866000000        call 0x910
000008AA  E871020000        call 0xb20
000008AF  E82C0F0000        call 0x17e0
000008B4  58                pop eax
000008B5  5B                pop ebx
000008B6  C9                leave
000008B7  C3                ret
000008B8  0000              add [eax],al
000008BA  0000              add [eax],al
000008BC  0000              add [eax],al
000008BE  0000              add [eax],al
000008C0  FF3520B10408      push dword [0x804b120]
000008C6  FF2524B10408      jmp near [0x804b124]
000008CC  0000              add [eax],al
000008CE  0000              add [eax],al
000008D0  FF2528B10408      jmp near [0x804b128]
000008D6  6800000000        push dword 0x0
000008DB  E9E0FFFFFF        jmp 0x1000008c0
000008E0  FF252CB10408      jmp near [0x804b12c]
000008E6  6808000000        push dword 0x8
000008EB  E9D0FFFFFF        jmp 0x1000008c0
000008F0  FF2530B10408      jmp near [0x804b130]
000008F6  6810000000        push dword 0x10
000008FB  E9C0FFFFFF        jmp 0x1000008c0
00000900  FF2534B10408      jmp near [0x804b134]
00000906  6818000000        push dword 0x18
0000090B  E9B0FFFFFF        jmp 0x1000008c0
00000910  FF2538B10408      jmp near [0x804b138]
00000916  6820000000        push dword 0x20
0000091B  E9A0FFFFFF        jmp 0x1000008c0
00000920  FF253CB10408      jmp near [0x804b13c]
00000926  6828000000        push dword 0x28
0000092B  E990FFFFFF        jmp 0x1000008c0
00000930  FF2540B10408      jmp near [0x804b140]
00000936  6830000000        push dword 0x30
0000093B  E980FFFFFF        jmp 0x1000008c0
00000940  FF2544B10408      jmp near [0x804b144]
00000946  6838000000        push dword 0x38
0000094B  E970FFFFFF        jmp 0x1000008c0
00000950  FF2548B10408      jmp near [0x804b148]
00000956  6840000000        push dword 0x40
0000095B  E960FFFFFF        jmp 0x1000008c0
00000960  FF254CB10408      jmp near [0x804b14c]
00000966  6848000000        push dword 0x48
0000096B  E950FFFFFF        jmp 0x1000008c0
00000970  FF2550B10408      jmp near [0x804b150]
00000976  6850000000        push dword 0x50
0000097B  E940FFFFFF        jmp 0x1000008c0
00000980  FF2554B10408      jmp near [0x804b154]
00000986  6858000000        push dword 0x58
0000098B  E930FFFFFF        jmp 0x1000008c0
00000990  FF2558B10408      jmp near [0x804b158]
00000996  6860000000        push dword 0x60
0000099B  E920FFFFFF        jmp 0x1000008c0
000009A0  FF255CB10408      jmp near [0x804b15c]
000009A6  6868000000        push dword 0x68
000009AB  E910FFFFFF        jmp 0x1000008c0
000009B0  FF2560B10408      jmp near [0x804b160]
000009B6  6870000000        push dword 0x70
000009BB  E900FFFFFF        jmp 0x1000008c0
000009C0  FF2564B10408      jmp near [0x804b164]
000009C6  6878000000        push dword 0x78
000009CB  E9F0FEFFFF        jmp 0x1000008c0
000009D0  FF2568B10408      jmp near [0x804b168]
000009D6  6880000000        push dword 0x80
000009DB  E9E0FEFFFF        jmp 0x1000008c0
000009E0  FF256CB10408      jmp near [0x804b16c]
000009E6  6888000000        push dword 0x88
000009EB  E9D0FEFFFF        jmp 0x1000008c0
000009F0  FF2570B10408      jmp near [0x804b170]
000009F6  6890000000        push dword 0x90
000009FB  E9C0FEFFFF        jmp 0x1000008c0
00000A00  FF2574B10408      jmp near [0x804b174]
00000A06  6898000000        push dword 0x98
00000A0B  E9B0FEFFFF        jmp 0x1000008c0
00000A10  FF2578B10408      jmp near [0x804b178]
00000A16  68A0000000        push dword 0xa0
00000A1B  E9A0FEFFFF        jmp 0x1000008c0
00000A20  FF257CB10408      jmp near [0x804b17c]
00000A26  68A8000000        push dword 0xa8
00000A2B  E990FEFFFF        jmp 0x1000008c0
00000A30  31ED              xor ebp,ebp
00000A32  5E                pop esi
00000A33  89E1              mov ecx,esp
00000A35  83E4F0            and esp,byte -0x10
00000A38  50                push eax
00000A39  54                push esp
00000A3A  52                push edx
00000A3B  6870970408        push dword 0x8049770
00000A40  6880970408        push dword 0x8049780
00000A45  51                push ecx
00000A46  56                push esi
00000A47  68508B0408        push dword 0x8048b50
00000A4C  E8EFFEFFFF        call 0x100000940
00000A51  F4                hlt
00000A52  90                nop
00000A53  90                nop
00000A54  6690              o16 nop
00000A56  6690              o16 nop
00000A58  6690              o16 nop
00000A5A  6690              o16 nop
00000A5C  6690              o16 nop
00000A5E  6690              o16 nop
00000A60  B88BB10408        mov eax,0x804b18b
00000A65  2D88B10408        sub eax,0x804b188
00000A6A  83F806            cmp eax,byte +0x6
00000A6D  7701              ja 0xa70
00000A6F  C3                ret
00000A70  B800000000        mov eax,0x0
00000A75  85C0              test eax,eax
00000A77  74F6              jz 0xa6f
00000A79  55                push ebp
00000A7A  89E5              mov ebp,esp
00000A7C  83EC18            sub esp,byte +0x18
00000A7F  C7042488B10408    mov dword [esp],0x804b188
00000A86  FFD0              call eax
00000A88  C9                leave
00000A89  C3                ret
00000A8A  8DB600000000      lea esi,[esi+0x0]
00000A90  B888B10408        mov eax,0x804b188
00000A95  2D88B10408        sub eax,0x804b188
00000A9A  C1F802            sar eax,0x2
00000A9D  89C2              mov edx,eax
00000A9F  C1EA1F            shr edx,0x1f
00000AA2  01D0              add eax,edx
00000AA4  D1F8              sar eax,1
00000AA6  7501              jnz 0xaa9
00000AA8  C3                ret
00000AA9  BA00000000        mov edx,0x0
00000AAE  85D2              test edx,edx
00000AB0  74F6              jz 0xaa8
00000AB2  55                push ebp
00000AB3  89E5              mov ebp,esp
00000AB5  83EC18            sub esp,byte +0x18
00000AB8  89442404          mov [esp+0x4],eax
00000ABC  C7042488B10408    mov dword [esp],0x804b188
00000AC3  FFD2              call edx
00000AC5  C9                leave
00000AC6  C3                ret
00000AC7  89F6              mov esi,esi
00000AC9  8DBC2700000000    lea edi,[edi+0x0]
00000AD0  803D88B1040800    cmp byte [0x804b188],0x0
00000AD7  7544              jnz 0xb1d
00000AD9  55                push ebp
00000ADA  89E5              mov ebp,esp
00000ADC  53                push ebx
00000ADD  BB30B00408        mov ebx,0x804b030
00000AE2  52                push edx
00000AE3  81EB2CB00408      sub ebx,0x804b02c
00000AE9  A18CB10408        mov eax,[0x804b18c]
00000AEE  C1FB02            sar ebx,0x2
00000AF1  4B                dec ebx
00000AF2  39D8              cmp eax,ebx
00000AF4  7318              jnc 0xb0e
00000AF6  6690              o16 nop
00000AF8  40                inc eax
00000AF9  A38CB10408        mov [0x804b18c],eax
00000AFE  FF14852CB00408    call near [eax*4+0x804b02c]
00000B05  A18CB10408        mov eax,[0x804b18c]
00000B0A  39D8              cmp eax,ebx
00000B0C  72EA              jc 0xaf8
00000B0E  E84DFFFFFF        call 0x100000a60
00000B13  C60588B1040801    mov byte [0x804b188],0x1
00000B1A  58                pop eax
00000B1B  5B                pop ebx
00000B1C  5D                pop ebp
00000B1D  C3                ret
00000B1E  6690              o16 nop
00000B20  8B0D34B00408      mov ecx,[0x804b034]
00000B26  85C9              test ecx,ecx
00000B28  741E              jz 0xb48
00000B2A  B800000000        mov eax,0x0
00000B2F  85C0              test eax,eax
00000B31  7415              jz 0xb48
00000B33  55                push ebp
00000B34  89E5              mov ebp,esp
00000B36  83EC18            sub esp,byte +0x18
00000B39  C7042434B00408    mov dword [esp],0x804b034
00000B40  FFD0              call eax
00000B42  C9                leave
00000B43  E948FFFFFF        jmp 0x100000a90
00000B48  E943FFFFFF        jmp 0x100000a90
00000B4D  6690              o16 nop
00000B4F  90                nop
00000B50  8D4C2404          lea ecx,[esp+0x4]
00000B54  83E4F0            and esp,byte -0x10
00000B57  FF71FC            push dword [ecx-0x4]
00000B5A  55                push ebp
00000B5B  89E5              mov ebp,esp
00000B5D  56                push esi
00000B5E  53                push ebx
00000B5F  51                push ecx
00000B60  81EC0C030000      sub esp,0x30c
00000B66  C744240808000000  mov dword [esp+0x8],0x8
00000B6E  C744240430980408  mov dword [esp+0x4],0x8049830
00000B76  8D8538FEFFFF      lea eax,[ebp+0xfffffe38]
00000B7C  890424            mov [esp],eax
00000B7F  E82CFEFFFF        call 0x1000009b0
00000B84  C744240420000000  mov dword [esp+0x4],0x20
00000B8C  C7042410000000    mov dword [esp],0x10
00000B93  E8B7060000        call 0x124f
00000B98  89442408          mov [esp+0x8],eax
00000B9C  C744240435980408  mov dword [esp+0x4],0x8049835
00000BA4  8D8524FDFFFF      lea eax,[ebp+0xfffffd24]
00000BAA  890424            mov [esp],eax
00000BAD  E81EFEFFFF        call 0x1000009d0
00000BB2  8D4580            lea eax,[ebp-0x80]
00000BB5  89442404          mov [esp+0x4],eax
00000BB9  8D8538FEFFFF      lea eax,[ebp+0xfffffe38]
00000BBF  890424            mov [esp],eax
00000BC2  E8D9FDFFFF        call 0x1000009a0
00000BC7  C7042400000000    mov dword [esp],0x0
00000BCE  E85DFDFFFF        call 0x100000930
00000BD3  C745E400000000    mov dword [ebp-0x1c],0x0
00000BDA  E94C050000        jmp 0x112b
00000BDF  8D8578FFFFFF      lea eax,[ebp+0xffffff78]
00000BE5  89442404          mov [esp+0x4],eax
00000BE9  8D8538FEFFFF      lea eax,[ebp+0xfffffe38]
00000BEF  890424            mov [esp],eax
00000BF2  E8F9FCFFFF        call 0x1000008f0
00000BF7  8D9574FFFFFF      lea edx,[ebp+0xffffff74]
00000BFD  89542404          mov [esp+0x4],edx
00000C01  890424            mov [esp],eax
00000C04  E897FDFFFF        call 0x1000009a0
00000C09  8D9570FFFFFF      lea edx,[ebp+0xffffff70]
00000C0F  89542404          mov [esp+0x4],edx
00000C13  890424            mov [esp],eax
00000C16  E885FDFFFF        call 0x1000009a0
00000C1B  8D4587            lea eax,[ebp-0x79]
00000C1E  890424            mov [esp],eax
00000C21  E8F4060000        call 0x131a
00000C26  B800000000        mov eax,0x0
00000C2B  BA00000000        mov edx,0x0
00000C30  894588            mov [ebp-0x78],eax
00000C33  89558C            mov [ebp-0x74],edx
00000C36  8B8574FFFFFF      mov eax,[ebp+0xffffff74]
00000C3C  8D5587            lea edx,[ebp-0x79]
00000C3F  8954240C          mov [esp+0xc],edx
00000C43  8D5588            lea edx,[ebp-0x78]
00000C46  89542408          mov [esp+0x8],edx
00000C4A  89442404          mov [esp+0x4],eax
00000C4E  8D8564FFFFFF      lea eax,[ebp+0xffffff64]
00000C54  890424            mov [esp],eax
00000C57  E8E6060000        call 0x1342
00000C5C  8D4587            lea eax,[ebp-0x79]
00000C5F  890424            mov [esp],eax
00000C62  E8C7060000        call 0x132e
00000C67  8D4597            lea eax,[ebp-0x69]
00000C6A  890424            mov [esp],eax
00000C6D  E8A8060000        call 0x131a
00000C72  B800000000        mov eax,0x0
00000C77  BA00000000        mov edx,0x0
00000C7C  894598            mov [ebp-0x68],eax
00000C7F  89559C            mov [ebp-0x64],edx
00000C82  8B8574FFFFFF      mov eax,[ebp+0xffffff74]
00000C88  8D5597            lea edx,[ebp-0x69]
00000C8B  8954240C          mov [esp+0xc],edx
00000C8F  8D5598            lea edx,[ebp-0x68]
00000C92  89542408          mov [esp+0x8],edx
00000C96  89442404          mov [esp+0x4],eax
00000C9A  8D8558FFFFFF      lea eax,[ebp+0xffffff58]
00000CA0  890424            mov [esp],eax
00000CA3  E89A060000        call 0x1342
00000CA8  8D4597            lea eax,[ebp-0x69]
00000CAB  890424            mov [esp],eax
00000CAE  E87B060000        call 0x132e
00000CB3  C745E000000000    mov dword [ebp-0x20],0x0
00000CBA  EB4D              jmp short 0xd09
00000CBC  8B45E0            mov eax,[ebp-0x20]
00000CBF  89442404          mov [esp+0x4],eax
00000CC3  8D8558FFFFFF      lea eax,[ebp+0xffffff58]
00000CC9  890424            mov [esp],eax
00000CCC  E821070000        call 0x13f2
00000CD1  89C3              mov ebx,eax
00000CD3  8B45E0            mov eax,[ebp-0x20]
00000CD6  89442404          mov [esp+0x4],eax
00000CDA  8D8564FFFFFF      lea eax,[ebp+0xffffff64]
00000CE0  890424            mov [esp],eax
00000CE3  E80A070000        call 0x13f2
00000CE8  89442404          mov [esp+0x4],eax
00000CEC  8D8538FEFFFF      lea eax,[ebp+0xfffffe38]
00000CF2  890424            mov [esp],eax
00000CF5  E8F6FBFFFF        call 0x1000008f0
00000CFA  895C2404          mov [esp+0x4],ebx
00000CFE  890424            mov [esp],eax
00000D01  E8EAFBFFFF        call 0x1000008f0
00000D06  FF45E0            inc dword [ebp-0x20]
00000D09  8B8574FFFFFF      mov eax,[ebp+0xffffff74]
00000D0F  3945E0            cmp [ebp-0x20],eax
00000D12  7CA8              jl 0xcbc
00000D14  C745DC00000000    mov dword [ebp-0x24],0x0
00000D1B  EB3A              jmp short 0xd57
00000D1D  8B45DC            mov eax,[ebp-0x24]
00000D20  89442404          mov [esp+0x4],eax
00000D24  8D8558FFFFFF      lea eax,[ebp+0xffffff58]
00000D2A  890424            mov [esp],eax
00000D2D  E8C0060000        call 0x13f2
00000D32  DD00              fld qword [eax]
00000D34  DD8578FFFFFF      fld qword [ebp+0xffffff78]
00000D3A  DD0548980408      fld qword [0x8049848]
00000D40  DEE9              fsubp st1
00000D42  D9C9              fxch
00000D44  DAE9              fucompp
00000D46  DFE0              fnstsw ax
00000D48  F6C405            test ah,0x5
00000D4B  0F94C0            setz al
00000D4E  84C0              test al,al
00000D50  7402              jz 0xd54
00000D52  EB0E              jmp short 0xd62
00000D54  FF45DC            inc dword [ebp-0x24]
00000D57  8B8574FFFFFF      mov eax,[ebp+0xffffff74]
00000D5D  3945DC            cmp [ebp-0x24],eax
00000D60  7CBB              jl 0xd1d
00000D62  8B45DC            mov eax,[ebp-0x24]
00000D65  40                inc eax
00000D66  898574FFFFFF      mov [ebp+0xffffff74],eax
00000D6C  837DDC00          cmp dword [ebp-0x24],byte +0x0
00000D70  7564              jnz 0xdd6
00000D72  8B45DC            mov eax,[ebp-0x24]
00000D75  89442404          mov [esp+0x4],eax
00000D79  8D8558FFFFFF      lea eax,[ebp+0xffffff58]
00000D7F  890424            mov [esp],eax
00000D82  E86B060000        call 0x13f2
00000D87  DD00              fld qword [eax]
00000D89  DD8578FFFFFF      fld qword [ebp+0xffffff78]
00000D8F  DD0548980408      fld qword [0x8049848]
00000D95  DEC1              faddp st1
00000D97  D9C9              fxch
00000D99  DAE9              fucompp
00000D9B  DFE0              fnstsw ax
00000D9D  F6C445            test ah,0x45
00000DA0  0F94C0            setz al
00000DA3  84C0              test al,al
00000DA5  0F8454010000      jz near 0xeff
00000DAB  8B45DC            mov eax,[ebp-0x24]
00000DAE  89442404          mov [esp+0x4],eax
00000DB2  8D8564FFFFFF      lea eax,[ebp+0xffffff64]
00000DB8  890424            mov [esp],eax
00000DBB  E832060000        call 0x13f2
00000DC0  89C1              mov ecx,eax
00000DC2  B800000000        mov eax,0x0
00000DC7  BA00000000        mov edx,0x0
00000DCC  8901              mov [ecx],eax
00000DCE  895104            mov [ecx+0x4],edx
00000DD1  E929010000        jmp 0xeff
00000DD6  8B45DC            mov eax,[ebp-0x24]
00000DD9  48                dec eax
00000DDA  89442404          mov [esp+0x4],eax
00000DDE  8D8564FFFFFF      lea eax,[ebp+0xffffff64]
00000DE4  890424            mov [esp],eax
00000DE7  E806060000        call 0x13f2
00000DEC  DD00              fld qword [eax]
00000DEE  DD9D10FDFFFF      fstp qword [ebp+0xfffffd10]
00000DF4  8B45DC            mov eax,[ebp-0x24]
00000DF7  89442404          mov [esp+0x4],eax
00000DFB  8D8564FFFFFF      lea eax,[ebp+0xffffff64]
00000E01  890424            mov [esp],eax
00000E04  E8E9050000        call 0x13f2
00000E09  DD00              fld qword [eax]
00000E0B  DD9D08FDFFFF      fstp qword [ebp+0xfffffd08]
00000E11  8B45DC            mov eax,[ebp-0x24]
00000E14  48                dec eax
00000E15  89442404          mov [esp+0x4],eax
00000E19  8D8564FFFFFF      lea eax,[ebp+0xffffff64]
00000E1F  890424            mov [esp],eax
00000E22  E8CB050000        call 0x13f2
00000E27  DD00              fld qword [eax]
00000E29  DCAD08FDFFFF      fsubr qword [ebp+0xfffffd08]
00000E2F  DD9D08FDFFFF      fstp qword [ebp+0xfffffd08]
00000E35  DD8578FFFFFF      fld qword [ebp+0xffffff78]
00000E3B  DD9D00FDFFFF      fstp qword [ebp+0xfffffd00]
00000E41  8B45DC            mov eax,[ebp-0x24]
00000E44  48                dec eax
00000E45  89442404          mov [esp+0x4],eax
00000E49  8D8558FFFFFF      lea eax,[ebp+0xffffff58]
00000E4F  890424            mov [esp],eax
00000E52  E89B050000        call 0x13f2
00000E57  DD00              fld qword [eax]
00000E59  DCAD00FDFFFF      fsubr qword [ebp+0xfffffd00]
00000E5F  DC8D08FDFFFF      fmul qword [ebp+0xfffffd08]
00000E65  DD9D08FDFFFF      fstp qword [ebp+0xfffffd08]
00000E6B  8B45DC            mov eax,[ebp-0x24]
00000E6E  89442404          mov [esp+0x4],eax
00000E72  8D8558FFFFFF      lea eax,[ebp+0xffffff58]
00000E78  890424            mov [esp],eax
00000E7B  E872050000        call 0x13f2
00000E80  DD00              fld qword [eax]
00000E82  DD9D00FDFFFF      fstp qword [ebp+0xfffffd00]
00000E88  8B45DC            mov eax,[ebp-0x24]
00000E8B  48                dec eax
00000E8C  89442404          mov [esp+0x4],eax
00000E90  8D8558FFFFFF      lea eax,[ebp+0xffffff58]
00000E96  890424            mov [esp],eax
00000E99  E854050000        call 0x13f2
00000E9E  DD00              fld qword [eax]
00000EA0  DCAD00FDFFFF      fsubr qword [ebp+0xfffffd00]
00000EA6  DCBD08FDFFFF      fdivr qword [ebp+0xfffffd08]
00000EAC  DC8510FDFFFF      fadd qword [ebp+0xfffffd10]
00000EB2  DD5DB0            fstp qword [ebp-0x50]
00000EB5  8B45DC            mov eax,[ebp-0x24]
00000EB8  89442404          mov [esp+0x4],eax
00000EBC  8D8558FFFFFF      lea eax,[ebp+0xffffff58]
00000EC2  890424            mov [esp],eax
00000EC5  E828050000        call 0x13f2
00000ECA  89C1              mov ecx,eax
00000ECC  8B8578FFFFFF      mov eax,[ebp+0xffffff78]
00000ED2  8B957CFFFFFF      mov edx,[ebp+0xffffff7c]
00000ED8  8901              mov [ecx],eax
00000EDA  895104            mov [ecx+0x4],edx
00000EDD  8B45DC            mov eax,[ebp-0x24]
00000EE0  89442404          mov [esp+0x4],eax
00000EE4  8D8564FFFFFF      lea eax,[ebp+0xffffff64]
00000EEA  890424            mov [esp],eax
00000EED  E800050000        call 0x13f2
00000EF2  89C1              mov ecx,eax
00000EF4  8B45B0            mov eax,[ebp-0x50]
00000EF7  8B55B4            mov edx,[ebp-0x4c]
00000EFA  8901              mov [ecx],eax
00000EFC  895104            mov [ecx+0x4],edx
00000EFF  8B45E4            mov eax,[ebp-0x1c]
00000F02  8D5801            lea ebx,[eax+0x1]
00000F05  C74424043B980408  mov dword [esp+0x4],0x804983b
00000F0D  8D8524FDFFFF      lea eax,[ebp+0xfffffd24]
00000F13  890424            mov [esp],eax
00000F16  E835FAFFFF        call 0x100000950
00000F1B  895C2404          mov [esp+0x4],ebx
00000F1F  890424            mov [esp],eax
00000F22  E8B9F9FFFF        call 0x1000008e0
00000F27  C744240442980408  mov dword [esp+0x4],0x8049842
00000F2F  890424            mov [esp],eax
00000F32  E819FAFFFF        call 0x100000950
00000F37  C7442404F0890408  mov dword [esp+0x4],0x80489f0
00000F3F  890424            mov [esp],eax
00000F42  E879FAFFFF        call 0x1000009c0
00000F47  C745D800000000    mov dword [ebp-0x28],0x0
00000F4E  E9AA010000        jmp 0x10fd
00000F53  8D8550FFFFFF      lea eax,[ebp+0xffffff50]
00000F59  89442404          mov [esp+0x4],eax
00000F5D  8D8538FEFFFF      lea eax,[ebp+0xfffffe38]
00000F63  890424            mov [esp],eax
00000F66  E885F9FFFF        call 0x1000008f0
00000F6B  B800000000        mov eax,0x0
00000F70  BA00000000        mov edx,0x0
00000F75  8945D0            mov [ebp-0x30],eax
00000F78  8955D4            mov [ebp-0x2c],edx
00000F7B  B800000000        mov eax,0x0
00000F80  BA80842E41        mov edx,0x412e8480
00000F85  8945C8            mov [ebp-0x38],eax
00000F88  8955CC            mov [ebp-0x34],edx
00000F8B  C745C400000000    mov dword [ebp-0x3c],0x0
00000F92  E9C7000000        jmp 0x105e
00000F97  DD45D0            fld qword [ebp-0x30]
00000F9A  DC45C8            fadd qword [ebp-0x38]
00000F9D  DD0550980408      fld qword [0x8049850]
00000FA3  DEF9              fdivp st1,st0
00000FA5  DD5DA8            fstp qword [ebp-0x58]
00000FA8  C645C301          mov byte [ebp-0x3d],0x1
00000FAC  C745BC00000000    mov dword [ebp-0x44],0x0
00000FB3  EB77              jmp short 0x102c
00000FB5  8B45BC            mov eax,[ebp-0x44]
00000FB8  89442404          mov [esp+0x4],eax
00000FBC  8D8564FFFFFF      lea eax,[ebp+0xffffff64]
00000FC2  890424            mov [esp],eax
00000FC5  E828040000        call 0x13f2
00000FCA  DD00              fld qword [eax]
00000FCC  DD9D10FDFFFF      fstp qword [ebp+0xfffffd10]
00000FD2  8B9D50FFFFFF      mov ebx,[ebp+0xffffff50]
00000FD8  8BB554FFFFFF      mov esi,[ebp+0xffffff54]
00000FDE  8B45BC            mov eax,[ebp-0x44]
00000FE1  89442404          mov [esp+0x4],eax
00000FE5  8D8558FFFFFF      lea eax,[ebp+0xffffff58]
00000FEB  890424            mov [esp],eax
00000FEE  E8FF030000        call 0x13f2
00000FF3  8B5004            mov edx,[eax+0x4]
00000FF6  8B00              mov eax,[eax]
00000FF8  895C2408          mov [esp+0x8],ebx
00000FFC  8974240C          mov [esp+0xc],esi
00001000  890424            mov [esp],eax
00001003  89542404          mov [esp+0x4],edx
00001007  E8DD020000        call 0x12e9
0000100C  DC45A8            fadd qword [ebp-0x58]
0000100F  DD8510FDFFFF      fld qword [ebp+0xfffffd10]
00001015  DAE9              fucompp
00001017  DFE0              fnstsw ax
00001019  F6C445            test ah,0x45
0000101C  0F94C0            setz al
0000101F  84C0              test al,al
00001021  7406              jz 0x1029
00001023  C645C300          mov byte [ebp-0x3d],0x0
00001027  EB12              jmp short 0x103b
00001029  FF45BC            inc dword [ebp-0x44]
0000102C  8B8574FFFFFF      mov eax,[ebp+0xffffff74]
00001032  3945BC            cmp [ebp-0x44],eax
00001035  0F8C7AFFFFFF      jl near 0x100000fb5
0000103B  807DC300          cmp byte [ebp-0x3d],0x0
0000103F  740E              jz 0x104f
00001041  8B45A8            mov eax,[ebp-0x58]
00001044  8B55AC            mov edx,[ebp-0x54]
00001047  8945C8            mov [ebp-0x38],eax
0000104A  8955CC            mov [ebp-0x34],edx
0000104D  EB0C              jmp short 0x105b
0000104F  8B45A8            mov eax,[ebp-0x58]
00001052  8B55AC            mov edx,[ebp-0x54]
00001055  8945D0            mov [ebp-0x30],eax
00001058  8955D4            mov [ebp-0x2c],edx
0000105B  FF45C4            inc dword [ebp-0x3c]
0000105E  837DC463          cmp dword [ebp-0x3c],byte +0x63
00001062  0F8E2FFFFFFF      jng near 0x100000f97
00001068  8B8D50FFFFFF      mov ecx,[ebp+0xffffff50]
0000106E  8B9D54FFFFFF      mov ebx,[ebp+0xffffff54]
00001074  8B8578FFFFFF      mov eax,[ebp+0xffffff78]
0000107A  8B957CFFFFFF      mov edx,[ebp+0xffffff7c]
00001080  894C2408          mov [esp+0x8],ecx
00001084  895C240C          mov [esp+0xc],ebx
00001088  890424            mov [esp],eax
0000108B  89542404          mov [esp+0x4],edx
0000108F  E855020000        call 0x12e9
00001094  DC45D0            fadd qword [ebp-0x30]
00001097  DD9D10FDFFFF      fstp qword [ebp+0xfffffd10]
0000109D  8D45A4            lea eax,[ebp-0x5c]
000010A0  C74424040A000000  mov dword [esp+0x4],0xa
000010A8  890424            mov [esp],eax
000010AB  E827020000        call 0x12d7
000010B0  83EC04            sub esp,byte +0x4
000010B3  C7442404B1920408  mov dword [esp+0x4],0x80492b1
000010BB  8D8524FDFFFF      lea eax,[ebp+0xfffffd24]
000010C1  890424            mov [esp],eax
000010C4  E857F9FFFF        call 0x100000a20
000010C9  8B55A4            mov edx,[ebp-0x5c]
000010CC  89542404          mov [esp+0x4],edx
000010D0  890424            mov [esp],eax
000010D3  E828F8FFFF        call 0x100000900
000010D8  DD8510FDFFFF      fld qword [ebp+0xfffffd10]
000010DE  DD5C2404          fstp qword [esp+0x4]
000010E2  890424            mov [esp],eax
000010E5  E8E6F7FFFF        call 0x1000008d0
000010EA  C7442404F0890408  mov dword [esp+0x4],0x80489f0
000010F2  890424            mov [esp],eax
000010F5  E8C6F8FFFF        call 0x1000009c0
000010FA  FF45D8            inc dword [ebp-0x28]
000010FD  8B8570FFFFFF      mov eax,[ebp+0xffffff70]
00001103  3945D8            cmp [ebp-0x28],eax
00001106  0F8C47FEFFFF      jl near 0x100000f53
0000110C  8D8558FFFFFF      lea eax,[ebp+0xffffff58]
00001112  890424            mov [esp],eax
00001115  E880020000        call 0x139a
0000111A  8D8564FFFFFF      lea eax,[ebp+0xffffff64]
00001120  890424            mov [esp],eax
00001123  E872020000        call 0x139a
00001128  FF45E4            inc dword [ebp-0x1c]
0000112B  8B4580            mov eax,[ebp-0x80]
0000112E  3945E4            cmp [ebp-0x1c],eax
00001131  0F8CA8FAFFFF      jl near 0x100000bdf
00001137  BB00000000        mov ebx,0x0
0000113C  8D8524FDFFFF      lea eax,[ebp+0xfffffd24]
00001142  890424            mov [esp],eax
00001145  E836F8FFFF        call 0x100000980
0000114A  8D8538FEFFFF      lea eax,[ebp+0xfffffe38]
00001150  890424            mov [esp],eax
00001153  E818F8FFFF        call 0x100000970
00001158  89D8              mov eax,ebx
0000115A  EB7C              jmp short 0x11d8
0000115C  89C3              mov ebx,eax
0000115E  8D4587            lea eax,[ebp-0x79]
00001161  890424            mov [esp],eax
00001164  E8C5010000        call 0x132e
00001169  89D8              mov eax,ebx
0000116B  EB39              jmp short 0x11a6
0000116D  89C3              mov ebx,eax
0000116F  8D4597            lea eax,[ebp-0x69]
00001172  890424            mov [esp],eax
00001175  E8B4010000        call 0x132e
0000117A  EB18              jmp short 0x1194
0000117C  89C3              mov ebx,eax
0000117E  EB02              jmp short 0x1182
00001180  89C3              mov ebx,eax
00001182  8D8558FFFFFF      lea eax,[ebp+0xffffff58]
00001188  890424            mov [esp],eax
0000118B  E80A020000        call 0x139a
00001190  EB02              jmp short 0x1194
00001192  89C3              mov ebx,eax
00001194  8D8564FFFFFF      lea eax,[ebp+0xffffff64]
0000119A  890424            mov [esp],eax
0000119D  E8F8010000        call 0x139a
000011A2  89D8              mov eax,ebx
000011A4  EB00              jmp short 0x11a6
000011A6  89C3              mov ebx,eax
000011A8  EB02              jmp short 0x11ac
000011AA  89C3              mov ebx,eax
000011AC  8D8524FDFFFF      lea eax,[ebp+0xfffffd24]
000011B2  890424            mov [esp],eax
000011B5  E8C6F7FFFF        call 0x100000980
000011BA  EB02              jmp short 0x11be
000011BC  89C3              mov ebx,eax
000011BE  8D8538FEFFFF      lea eax,[ebp+0xfffffe38]
000011C4  890424            mov [esp],eax
000011C7  E8A4F7FFFF        call 0x100000970
000011CC  89D8              mov eax,ebx
000011CE  EB00              jmp short 0x11d0
000011D0  890424            mov [esp],eax
000011D3  E838F8FFFF        call 0x100000a10
000011D8  8D65F4            lea esp,[ebp-0xc]
000011DB  59                pop ecx
000011DC  5B                pop ebx
000011DD  5E                pop esi
000011DE  5D                pop ebp
000011DF  8D61FC            lea esp,[ecx-0x4]
000011E2  C3                ret
000011E3  55                push ebp
000011E4  89E5              mov ebp,esp
000011E6  8B5508            mov edx,[ebp+0x8]
000011E9  8B450C            mov eax,[ebp+0xc]
000011EC  21D0              and eax,edx
000011EE  5D                pop ebp
000011EF  C3                ret
000011F0  55                push ebp
000011F1  89E5              mov ebp,esp
000011F3  8B5508            mov edx,[ebp+0x8]
000011F6  8B450C            mov eax,[ebp+0xc]
000011F9  09D0              or eax,edx
000011FB  5D                pop ebp
000011FC  C3                ret
000011FD  55                push ebp
000011FE  89E5              mov ebp,esp
00001200  8B4508            mov eax,[ebp+0x8]
00001203  F7D0              not eax
00001205  5D                pop ebp
00001206  C3                ret
00001207  55                push ebp
00001208  89E5              mov ebp,esp
0000120A  83EC18            sub esp,byte +0x18
0000120D  8B4508            mov eax,[ebp+0x8]
00001210  8B00              mov eax,[eax]
00001212  8B550C            mov edx,[ebp+0xc]
00001215  89542404          mov [esp+0x4],edx
00001219  890424            mov [esp],eax
0000121C  E8CFFFFFFF        call 0x1000011f0
00001221  8B5508            mov edx,[ebp+0x8]
00001224  8902              mov [edx],eax
00001226  8B4508            mov eax,[ebp+0x8]
00001229  C9                leave
0000122A  C3                ret
0000122B  55                push ebp
0000122C  89E5              mov ebp,esp
0000122E  83EC18            sub esp,byte +0x18
00001231  8B4508            mov eax,[ebp+0x8]
00001234  8B00              mov eax,[eax]
00001236  8B550C            mov edx,[ebp+0xc]
00001239  89542404          mov [esp+0x4],edx
0000123D  890424            mov [esp],eax
00001240  E89EFFFFFF        call 0x1000011e3
00001245  8B5508            mov edx,[ebp+0x8]
00001248  8902              mov [edx],eax
0000124A  8B4508            mov eax,[ebp+0x8]
0000124D  C9                leave
0000124E  C3                ret
0000124F  55                push ebp
00001250  89E5              mov ebp,esp
00001252  8B5508            mov edx,[ebp+0x8]
00001255  8B450C            mov eax,[ebp+0xc]
00001258  09D0              or eax,edx
0000125A  5D                pop ebp
0000125B  C3                ret
0000125C  55                push ebp
0000125D  89E5              mov ebp,esp
0000125F  83EC28            sub esp,byte +0x28
00001262  8B4508            mov eax,[ebp+0x8]
00001265  8B400C            mov eax,[eax+0xc]
00001268  8945F4            mov [ebp-0xc],eax
0000126B  8B4510            mov eax,[ebp+0x10]
0000126E  890424            mov [esp],eax
00001271  E887FFFFFF        call 0x1000011fd
00001276  8B5508            mov edx,[ebp+0x8]
00001279  83C20C            add edx,byte +0xc
0000127C  89442404          mov [esp+0x4],eax
00001280  891424            mov [esp],edx
00001283  E8A3FFFFFF        call 0x10000122b
00001288  8B4510            mov eax,[ebp+0x10]
0000128B  89442404          mov [esp+0x4],eax
0000128F  8B450C            mov eax,[ebp+0xc]
00001292  890424            mov [esp],eax
00001295  E849FFFFFF        call 0x1000011e3
0000129A  8B5508            mov edx,[ebp+0x8]
0000129D  83C20C            add edx,byte +0xc
000012A0  89442404          mov [esp+0x4],eax
000012A4  891424            mov [esp],edx
000012A7  E85BFFFFFF        call 0x100001207
000012AC  8B45F4            mov eax,[ebp-0xc]
000012AF  C9                leave
000012B0  C3                ret
000012B1  55                push ebp
000012B2  89E5              mov ebp,esp
000012B4  83EC18            sub esp,byte +0x18
000012B7  C744240804010000  mov dword [esp+0x8],0x104
000012BF  C744240404000000  mov dword [esp+0x4],0x4
000012C7  8B4508            mov eax,[ebp+0x8]
000012CA  890424            mov [esp],eax
000012CD  E88AFFFFFF        call 0x10000125c
000012D2  8B4508            mov eax,[ebp+0x8]
000012D5  C9                leave
000012D6  C3                ret
000012D7  55                push ebp
000012D8  89E5              mov ebp,esp
000012DA  8B4508            mov eax,[ebp+0x8]
000012DD  8B550C            mov edx,[ebp+0xc]
000012E0  8910              mov [eax],edx
000012E2  8B4508            mov eax,[ebp+0x8]
000012E5  5D                pop ebp
000012E6  C20400            ret 0x4
000012E9  55                push ebp
000012EA  89E5              mov ebp,esp
000012EC  83EC28            sub esp,byte +0x28
000012EF  8B4508            mov eax,[ebp+0x8]
000012F2  8945F0            mov [ebp-0x10],eax
000012F5  8B450C            mov eax,[ebp+0xc]
000012F8  8945F4            mov [ebp-0xc],eax
000012FB  8B4510            mov eax,[ebp+0x10]
000012FE  8945E8            mov [ebp-0x18],eax
00001301  8B4514            mov eax,[ebp+0x14]
00001304  8945EC            mov [ebp-0x14],eax
00001307  DD45F0            fld qword [ebp-0x10]
0000130A  D8C0              fadd st0
0000130C  DC75E8            fdiv qword [ebp-0x18]
0000130F  DD1C24            fstp qword [esp]
00001312  E849F6FFFF        call 0x100000960
00001317  C9                leave
00001318  C3                ret
00001319  90                nop
0000131A  55                push ebp
0000131B  89E5              mov ebp,esp
0000131D  83EC18            sub esp,byte +0x18
00001320  8B4508            mov eax,[ebp+0x8]
00001323  890424            mov [esp],eax
00001326  E8D9000000        call 0x1404
0000132B  C9                leave
0000132C  C3                ret
0000132D  90                nop
0000132E  55                push ebp
0000132F  89E5              mov ebp,esp
00001331  83EC18            sub esp,byte +0x18
00001334  8B4508            mov eax,[ebp+0x8]
00001337  890424            mov [esp],eax
0000133A  E8CB000000        call 0x140a
0000133F  C9                leave
00001340  C3                ret
00001341  90                nop
00001342  55                push ebp
00001343  89E5              mov ebp,esp
00001345  53                push ebx
00001346  83EC14            sub esp,byte +0x14
00001349  8B4508            mov eax,[ebp+0x8]
0000134C  8B5514            mov edx,[ebp+0x14]
0000134F  89542408          mov [esp+0x8],edx
00001353  8B550C            mov edx,[ebp+0xc]
00001356  89542404          mov [esp+0x4],edx
0000135A  890424            mov [esp],eax
0000135D  E8C2000000        call 0x1424
00001362  8B4510            mov eax,[ebp+0x10]
00001365  89442408          mov [esp+0x8],eax
00001369  8B450C            mov eax,[ebp+0xc]
0000136C  89442404          mov [esp+0x4],eax
00001370  8B4508            mov eax,[ebp+0x8]
00001373  890424            mov [esp],eax
00001376  E853010000        call 0x14ce
0000137B  EB17              jmp short 0x1394
0000137D  89C3              mov ebx,eax
0000137F  8B4508            mov eax,[ebp+0x8]
00001382  890424            mov [esp],eax
00001385  E8E4000000        call 0x146e
0000138A  89D8              mov eax,ebx
0000138C  890424            mov [esp],eax
0000138F  E87CF6FFFF        call 0x100000a10
00001394  83C414            add esp,byte +0x14
00001397  5B                pop ebx
00001398  5D                pop ebp
00001399  C3                ret
0000139A  55                push ebp
0000139B  89E5              mov ebp,esp
0000139D  53                push ebx
0000139E  83EC14            sub esp,byte +0x14
000013A1  8B4508            mov eax,[ebp+0x8]
000013A4  890424            mov [esp],eax
000013A7  E860010000        call 0x150c
000013AC  8B5508            mov edx,[ebp+0x8]
000013AF  8B4A04            mov ecx,[edx+0x4]
000013B2  8B5508            mov edx,[ebp+0x8]
000013B5  8B12              mov edx,[edx]
000013B7  89442408          mov [esp+0x8],eax
000013BB  894C2404          mov [esp+0x4],ecx
000013BF  891424            mov [esp],edx
000013C2  E84D010000        call 0x1514
000013C7  8B4508            mov eax,[ebp+0x8]
000013CA  890424            mov [esp],eax
000013CD  E89C000000        call 0x146e
000013D2  EB17              jmp short 0x13eb
000013D4  89C3              mov ebx,eax
000013D6  8B4508            mov eax,[ebp+0x8]
000013D9  890424            mov [esp],eax
000013DC  E88D000000        call 0x146e
000013E1  89D8              mov eax,ebx
000013E3  890424            mov [esp],eax
000013E6  E825F6FFFF        call 0x100000a10
000013EB  83C414            add esp,byte +0x14
000013EE  5B                pop ebx
000013EF  5D                pop ebp
000013F0  C3                ret
000013F1  90                nop
000013F2  55                push ebp
000013F3  89E5              mov ebp,esp
000013F5  8B4508            mov eax,[ebp+0x8]
000013F8  8B00              mov eax,[eax]
000013FA  8B550C            mov edx,[ebp+0xc]
000013FD  C1E203            shl edx,0x3
00001400  01D0              add eax,edx
00001402  5D                pop ebp
00001403  C3                ret
00001404  55                push ebp
00001405  89E5              mov ebp,esp
00001407  5D                pop ebp
00001408  C3                ret
00001409  90                nop
0000140A  55                push ebp
0000140B  89E5              mov ebp,esp
0000140D  5D                pop ebp
0000140E  C3                ret
0000140F  90                nop
00001410  55                push ebp
00001411  89E5              mov ebp,esp
00001413  83EC18            sub esp,byte +0x18
00001416  8B4508            mov eax,[ebp+0x8]
00001419  890424            mov [esp],eax
0000141C  E80DFFFFFF        call 0x10000132e
00001421  C9                leave
00001422  C3                ret
00001423  90                nop
00001424  55                push ebp
00001425  89E5              mov ebp,esp
00001427  53                push ebx
00001428  83EC14            sub esp,byte +0x14
0000142B  8B4508            mov eax,[ebp+0x8]
0000142E  8B5510            mov edx,[ebp+0x10]
00001431  89542404          mov [esp+0x4],edx
00001435  890424            mov [esp],eax
00001438  E8F1000000        call 0x152e
0000143D  8B450C            mov eax,[ebp+0xc]
00001440  89442404          mov [esp+0x4],eax
00001444  8B4508            mov eax,[ebp+0x8]
00001447  890424            mov [esp],eax
0000144A  E817010000        call 0x1566
0000144F  EB17              jmp short 0x1468
00001451  89C3              mov ebx,eax
00001453  8B4508            mov eax,[ebp+0x8]
00001456  890424            mov [esp],eax
00001459  E8B2FFFFFF        call 0x100001410
0000145E  89D8              mov eax,ebx
00001460  890424            mov [esp],eax
00001463  E8A8F5FFFF        call 0x100000a10
00001468  83C414            add esp,byte +0x14
0000146B  5B                pop ebx
0000146C  5D                pop ebp
0000146D  C3                ret
0000146E  55                push ebp
0000146F  89E5              mov ebp,esp
00001471  53                push ebx
00001472  83EC14            sub esp,byte +0x14
00001475  8B4508            mov eax,[ebp+0x8]
00001478  8B4008            mov eax,[eax+0x8]
0000147B  89C2              mov edx,eax
0000147D  8B4508            mov eax,[ebp+0x8]
00001480  8B00              mov eax,[eax]
00001482  29C2              sub edx,eax
00001484  89D0              mov eax,edx
00001486  C1F803            sar eax,0x3
00001489  89C2              mov edx,eax
0000148B  8B4508            mov eax,[ebp+0x8]
0000148E  8B00              mov eax,[eax]
00001490  89542408          mov [esp+0x8],edx
00001494  89442404          mov [esp+0x4],eax
00001498  8B4508            mov eax,[ebp+0x8]
0000149B  890424            mov [esp],eax
0000149E  E801010000        call 0x15a4
000014A3  8B4508            mov eax,[ebp+0x8]
000014A6  890424            mov [esp],eax
000014A9  E862FFFFFF        call 0x100001410
000014AE  EB17              jmp short 0x14c7
000014B0  89C3              mov ebx,eax
000014B2  8B4508            mov eax,[ebp+0x8]
000014B5  890424            mov [esp],eax
000014B8  E853FFFFFF        call 0x100001410
000014BD  89D8              mov eax,ebx
000014BF  890424            mov [esp],eax
000014C2  E849F5FFFF        call 0x100000a10
000014C7  83C414            add esp,byte +0x14
000014CA  5B                pop ebx
000014CB  5D                pop ebp
000014CC  C3                ret
000014CD  90                nop
000014CE  55                push ebp
000014CF  89E5              mov ebp,esp
000014D1  83EC18            sub esp,byte +0x18
000014D4  8B4508            mov eax,[ebp+0x8]
000014D7  890424            mov [esp],eax
000014DA  E82D000000        call 0x150c
000014DF  8B5508            mov edx,[ebp+0x8]
000014E2  8B12              mov edx,[edx]
000014E4  8944240C          mov [esp+0xc],eax
000014E8  8B4510            mov eax,[ebp+0x10]
000014EB  89442408          mov [esp+0x8],eax
000014EF  8B450C            mov eax,[ebp+0xc]
000014F2  89442404          mov [esp+0x4],eax
000014F6  891424            mov [esp],edx
000014F9  E8CD000000        call 0x15cb
000014FE  8B4508            mov eax,[ebp+0x8]
00001501  8B5008            mov edx,[eax+0x8]
00001504  8B4508            mov eax,[ebp+0x8]
00001507  895004            mov [eax+0x4],edx
0000150A  C9                leave
0000150B  C3                ret
0000150C  55                push ebp
0000150D  89E5              mov ebp,esp
0000150F  8B4508            mov eax,[ebp+0x8]
00001512  5D                pop ebp
00001513  C3                ret
00001514  55                push ebp
00001515  89E5              mov ebp,esp
00001517  83EC18            sub esp,byte +0x18
0000151A  8B450C            mov eax,[ebp+0xc]
0000151D  89442404          mov [esp+0x4],eax
00001521  8B4508            mov eax,[ebp+0x8]
00001524  890424            mov [esp],eax
00001527  E8C0000000        call 0x15ec
0000152C  C9                leave
0000152D  C3                ret
0000152E  55                push ebp
0000152F  89E5              mov ebp,esp
00001531  83EC18            sub esp,byte +0x18
00001534  8B450C            mov eax,[ebp+0xc]
00001537  89442404          mov [esp+0x4],eax
0000153B  8B4508            mov eax,[ebp+0x8]
0000153E  890424            mov [esp],eax
00001541  E8C0000000        call 0x1606
00001546  8B4508            mov eax,[ebp+0x8]
00001549  C70000000000      mov dword [eax],0x0
0000154F  8B4508            mov eax,[ebp+0x8]
00001552  C7400400000000    mov dword [eax+0x4],0x0
00001559  8B4508            mov eax,[ebp+0x8]
0000155C  C7400800000000    mov dword [eax+0x8],0x0
00001563  C9                leave
00001564  C3                ret
00001565  90                nop
00001566  55                push ebp
00001567  89E5              mov ebp,esp
00001569  83EC18            sub esp,byte +0x18
0000156C  8B450C            mov eax,[ebp+0xc]
0000156F  89442404          mov [esp+0x4],eax
00001573  8B4508            mov eax,[ebp+0x8]
00001576  890424            mov [esp],eax
00001579  E8A2000000        call 0x1620
0000157E  8B5508            mov edx,[ebp+0x8]
00001581  8902              mov [edx],eax
00001583  8B4508            mov eax,[ebp+0x8]
00001586  8B10              mov edx,[eax]
00001588  8B4508            mov eax,[ebp+0x8]
0000158B  895004            mov [eax+0x4],edx
0000158E  8B4508            mov eax,[ebp+0x8]
00001591  8B00              mov eax,[eax]
00001593  8B550C            mov edx,[ebp+0xc]
00001596  C1E203            shl edx,0x3
00001599  01C2              add edx,eax
0000159B  8B4508            mov eax,[ebp+0x8]
0000159E  895008            mov [eax+0x8],edx
000015A1  C9                leave
000015A2  C3                ret
000015A3  90                nop
000015A4  55                push ebp
000015A5  89E5              mov ebp,esp
000015A7  83EC18            sub esp,byte +0x18
000015AA  837D0C00          cmp dword [ebp+0xc],byte +0x0
000015AE  7419              jz 0x15c9
000015B0  8B4508            mov eax,[ebp+0x8]
000015B3  8B5510            mov edx,[ebp+0x10]
000015B6  89542408          mov [esp+0x8],edx
000015BA  8B550C            mov edx,[ebp+0xc]
000015BD  89542404          mov [esp+0x4],edx
000015C1  890424            mov [esp],eax
000015C4  E887000000        call 0x1650
000015C9  C9                leave
000015CA  C3                ret
000015CB  55                push ebp
000015CC  89E5              mov ebp,esp
000015CE  83EC18            sub esp,byte +0x18
000015D1  8B4510            mov eax,[ebp+0x10]
000015D4  89442408          mov [esp+0x8],eax
000015D8  8B450C            mov eax,[ebp+0xc]
000015DB  89442404          mov [esp+0x4],eax
000015DF  8B4508            mov eax,[ebp+0x8]
000015E2  890424            mov [esp],eax
000015E5  E879000000        call 0x1663
000015EA  C9                leave
000015EB  C3                ret
000015EC  55                push ebp
000015ED  89E5              mov ebp,esp
000015EF  83EC18            sub esp,byte +0x18
000015F2  8B450C            mov eax,[ebp+0xc]
000015F5  89442404          mov [esp+0x4],eax
000015F9  8B4508            mov eax,[ebp+0x8]
000015FC  890424            mov [esp],eax
000015FF  E880000000        call 0x1684
00001604  C9                leave
00001605  C3                ret
00001606  55                push ebp
00001607  89E5              mov ebp,esp
00001609  83EC18            sub esp,byte +0x18
0000160C  8B450C            mov eax,[ebp+0xc]
0000160F  89442404          mov [esp+0x4],eax
00001613  8B4508            mov eax,[ebp+0x8]
00001616  890424            mov [esp],eax
00001619  E86C000000        call 0x168a
0000161E  C9                leave
0000161F  C3                ret
00001620  55                push ebp
00001621  89E5              mov ebp,esp
00001623  83EC18            sub esp,byte +0x18
00001626  837D0C00          cmp dword [ebp+0xc],byte +0x0
0000162A  741C              jz 0x1648
0000162C  8B4508            mov eax,[ebp+0x8]
0000162F  C744240800000000  mov dword [esp+0x8],0x0
00001637  8B550C            mov edx,[ebp+0xc]
0000163A  89542404          mov [esp+0x4],edx
0000163E  890424            mov [esp],eax
00001641  E84A000000        call 0x1690
00001646  EB05              jmp short 0x164d
00001648  B800000000        mov eax,0x0
0000164D  C9                leave
0000164E  C3                ret
0000164F  90                nop
00001650  55                push ebp
00001651  89E5              mov ebp,esp
00001653  83EC18            sub esp,byte +0x18
00001656  8B450C            mov eax,[ebp+0xc]
00001659  890424            mov [esp],eax
0000165C  E8BFF2FFFF        call 0x100000920
00001661  C9                leave
00001662  C3                ret
00001663  55                push ebp
00001664  89E5              mov ebp,esp
00001666  83EC18            sub esp,byte +0x18
00001669  8B4510            mov eax,[ebp+0x10]
0000166C  89442408          mov [esp+0x8],eax
00001670  8B450C            mov eax,[ebp+0xc]
00001673  89442404          mov [esp+0x4],eax
00001677  8B4508            mov eax,[ebp+0x8]
0000167A  890424            mov [esp],eax
0000167D  E83E000000        call 0x16c0
00001682  C9                leave
00001683  C3                ret
00001684  55                push ebp
00001685  89E5              mov ebp,esp
00001687  5D                pop ebp
00001688  C3                ret
00001689  90                nop
0000168A  55                push ebp
0000168B  89E5              mov ebp,esp
0000168D  5D                pop ebp
0000168E  C3                ret
0000168F  90                nop
00001690  55                push ebp
00001691  89E5              mov ebp,esp
00001693  83EC18            sub esp,byte +0x18
00001696  8B4508            mov eax,[ebp+0x8]
00001699  890424            mov [esp],eax
0000169C  E841000000        call 0x16e2
000016A1  3B450C            cmp eax,[ebp+0xc]
000016A4  0F92C0            setc al
000016A7  84C0              test al,al
000016A9  7405              jz 0x16b0
000016AB  E830F3FFFF        call 0x1000009e0
000016B0  8B450C            mov eax,[ebp+0xc]
000016B3  C1E003            shl eax,0x3
000016B6  890424            mov [esp],eax
000016B9  E8D2F2FFFF        call 0x100000990
000016BE  C9                leave
000016BF  C3                ret
000016C0  55                push ebp
000016C1  89E5              mov ebp,esp
000016C3  83EC18            sub esp,byte +0x18
000016C6  8B4510            mov eax,[ebp+0x10]
000016C9  89442408          mov [esp+0x8],eax
000016CD  8B450C            mov eax,[ebp+0xc]
000016D0  89442404          mov [esp+0x4],eax
000016D4  8B4508            mov eax,[ebp+0x8]
000016D7  890424            mov [esp],eax
000016DA  E80D000000        call 0x16ec
000016DF  C9                leave
000016E0  C3                ret
000016E1  90                nop
000016E2  55                push ebp
000016E3  89E5              mov ebp,esp
000016E5  B8FFFFFF1F        mov eax,0x1fffffff
000016EA  5D                pop ebp
000016EB  C3                ret
000016EC  55                push ebp
000016ED  89E5              mov ebp,esp
000016EF  83EC18            sub esp,byte +0x18
000016F2  8B4508            mov eax,[ebp+0x8]
000016F5  890424            mov [esp],eax
000016F8  E818000000        call 0x1715
000016FD  8B5510            mov edx,[ebp+0x10]
00001700  89542408          mov [esp+0x8],edx
00001704  8B550C            mov edx,[ebp+0xc]
00001707  89542404          mov [esp+0x4],edx
0000170B  890424            mov [esp],eax
0000170E  E815000000        call 0x1728
00001713  C9                leave
00001714  C3                ret
00001715  55                push ebp
00001716  89E5              mov ebp,esp
00001718  83EC18            sub esp,byte +0x18
0000171B  8B4508            mov eax,[ebp+0x8]
0000171E  890424            mov [esp],eax
00001721  E83E000000        call 0x1764
00001726  C9                leave
00001727  C3                ret
00001728  55                push ebp
00001729  89E5              mov ebp,esp
0000172B  83EC10            sub esp,byte +0x10
0000172E  8B4510            mov eax,[ebp+0x10]
00001731  8B5004            mov edx,[eax+0x4]
00001734  8B00              mov eax,[eax]
00001736  8945F0            mov [ebp-0x10],eax
00001739  8955F4            mov [ebp-0xc],edx
0000173C  8B450C            mov eax,[ebp+0xc]
0000173F  8945FC            mov [ebp-0x4],eax
00001742  EB15              jmp short 0x1759
00001744  8B4D08            mov ecx,[ebp+0x8]
00001747  8B45F0            mov eax,[ebp-0x10]
0000174A  8B55F4            mov edx,[ebp-0xc]
0000174D  8901              mov [ecx],eax
0000174F  895104            mov [ecx+0x4],edx
00001752  FF4DFC            dec dword [ebp-0x4]
00001755  83450808          add dword [ebp+0x8],byte +0x8
00001759  837DFC00          cmp dword [ebp-0x4],byte +0x0
0000175D  75E5              jnz 0x1744
0000175F  8B4508            mov eax,[ebp+0x8]
00001762  C9                leave
00001763  C3                ret
00001764  55                push ebp
00001765  89E5              mov ebp,esp
00001767  8B4508            mov eax,[ebp+0x8]
0000176A  5D                pop ebp
0000176B  C3                ret
0000176C  6690              o16 nop
0000176E  6690              o16 nop
00001770  55                push ebp
00001771  89E5              mov ebp,esp
00001773  5D                pop ebp
00001774  C3                ret
00001775  66                db 0x66
00001776  66                db 0x66
00001777  2E                db 0x2E
00001778  0F                db 0x0F
00001779  1F                pop ds
0000177A  8400              test [eax],al
0000177C  0000              add [eax],al
0000177E  0000              add [eax],al
00001780  55                push ebp
00001781  89E5              mov ebp,esp
00001783  57                push edi
00001784  56                push esi
00001785  53                push ebx
00001786  E84F000000        call 0x17da
0000178B  81C391190000      add ebx,0x1991
00001791  83EC1C            sub esp,byte +0x1c
00001794  E8EFF0FFFF        call 0x100000888
00001799  8DBB08FFFFFF      lea edi,[ebx+0xffffff08]
0000179F  8D8308FFFFFF      lea eax,[ebx+0xffffff08]
000017A5  29C7              sub edi,eax
000017A7  C1FF02            sar edi,0x2
000017AA  85FF              test edi,edi
000017AC  7424              jz 0x17d2
000017AE  31F6              xor esi,esi
000017B0  8B4510            mov eax,[ebp+0x10]
000017B3  89442408          mov [esp+0x8],eax
000017B7  8B450C            mov eax,[ebp+0xc]
000017BA  89442404          mov [esp+0x4],eax
000017BE  8B4508            mov eax,[ebp+0x8]
000017C1  890424            mov [esp],eax
000017C4  FF94B308FFFFFF    call near [ebx+esi*4+0xffffff08]
000017CB  83C601            add esi,byte +0x1
000017CE  39FE              cmp esi,edi
000017D0  72DE              jc 0x17b0
000017D2  83C41C            add esp,byte +0x1c
000017D5  5B                pop ebx
000017D6  5E                pop esi
000017D7  5F                pop edi
000017D8  5D                pop ebp
000017D9  C3                ret
000017DA  8B1C24            mov ebx,[esp]
000017DD  C3                ret
000017DE  6690              o16 nop
000017E0  55                push ebp
000017E1  89E5              mov ebp,esp
000017E3  53                push ebx
000017E4  52                push edx
000017E5  BB24B00408        mov ebx,0x804b024
000017EA  A124B00408        mov eax,[0x804b024]
000017EF  83F8FF            cmp eax,byte -0x1
000017F2  7410              jz 0x1804
000017F4  8D742600          lea esi,[esi+0x0]
000017F8  83EB04            sub ebx,byte +0x4
000017FB  FFD0              call eax
000017FD  8B03              mov eax,[ebx]
000017FF  83F8FF            cmp eax,byte -0x1
00001802  75F4              jnz 0x17f8
00001804  58                pop eax
00001805  5B                pop ebx
00001806  5D                pop ebp
00001807  C3                ret
00001808  55                push ebp
00001809  89E5              mov ebp,esp
0000180B  53                push ebx
0000180C  83EC04            sub esp,byte +0x4
0000180F  E800000000        call 0x1814
00001814  5B                pop ebx
00001815  81C308190000      add ebx,0x1908
0000181B  E8B0F2FFFF        call 0x100000ad0
00001820  59                pop ecx
00001821  5B                pop ebx
00001822  C9                leave
00001823  C3                ret
00001824  0000              add [eax],al
00001826  0000              add [eax],al
00001828  0300              add eax,[eax]
0000182A  0000              add [eax],al
0000182C  0100              add [eax],eax
0000182E  0200              add al,[eax]
00001830  622E              bound ebp,[esi]
00001832  696E00622E6F75    imul ebp,[esi+0x0],dword 0x756f2e62
00001839  7400              jz 0x183b
0000183B  43                inc ebx
0000183C  61                popa
0000183D  7365              jnc 0x18a4
0000183F  2023              and [ebx],ah
00001841  003A              add [edx],bh
00001843  2000              and [eax],al
00001845  0000              add [eax],al
00001847  0095D626E80B      add [ebp+0xbe826d6],dl
0000184D  2E113E            adc [cs:esi],edi
00001850  0000              add [eax],al
00001852  0000              add [eax],al
00001854  0000              add [eax],al
00001856  004001            add [eax+0x1],al
00001859  1B03              sbb eax,[ebx]
0000185B  3B6001            cmp esp,[eax+0x1]
0000185E  0000              add [eax],al
00001860  2B00              sub eax,[eax]
00001862  0000              add [eax],al
00001864  68F0FFFF7C        push dword 0x7cfffff0
00001869  0100              add [eax],eax
0000186B  00F8              add al,bh
0000186D  F2                db 0xF2
0000186E  FF                db 0xFF
0000186F  FF00              inc dword [eax]
00001871  0300              add eax,[eax]
00001873  008BF9FFFFA0      add [ebx+0xa0fffff9],cl
00001879  0100              add [eax],eax
0000187B  0098F9FFFFC0      add [eax+0xc0fffff9],bl
00001881  0100              add [eax],eax
00001883  00A5F9FFFFE0      add [ebp+0xe0fffff9],ah
00001889  0100              add [eax],eax
0000188B  00AFF9FFFF00      add [edi+0xfffff9],ch
00001891  0200              add al,[eax]
00001893  00D3              add bl,dl
00001895  F9                stc
00001896  FF                db 0xFF
00001897  FF20              jmp near [eax]
00001899  0200              add al,[eax]
0000189B  00F7              add bh,dh
0000189D  F9                stc
0000189E  FF                db 0xFF
0000189F  FF4002            inc dword [eax+0x2]
000018A2  0000              add [eax],al
000018A4  04FA              add al,0xfa
000018A6  FF                db 0xFF
000018A7  FF6002            jmp near [eax+0x2]
000018AA  0000              add [eax],al
000018AC  59                pop ecx
000018AD  FA                cli
000018AE  FF                db 0xFF
000018AF  FF800200007F      inc dword [eax+0x7f000002]
000018B5  FA                cli
000018B6  FF                db 0xFF
000018B7  FFA002000091      jmp near [eax+0x91000002]
000018BD  FA                cli
000018BE  FF                db 0xFF
000018BF  FFC0              inc eax
000018C1  0200              add al,[eax]
000018C3  00C2              add dl,al
000018C5  FA                cli
000018C6  FF                db 0xFF
000018C7  FF4003            inc dword [eax+0x3]
000018CA  0000              add [eax],al
000018CC  D6                salc
000018CD  FA                cli
000018CE  FF                db 0xFF
000018CF  FF6003            jmp near [eax+0x3]
000018D2  0000              add [eax],al
000018D4  EAFAFFFF800300    jmp 0x3:0x80fffffa
000018DB  0042FB            add [edx-0x5],al
000018DE  FF                db 0xFF
000018DF  FFA80300009A      jmp far [eax+0x9a000003]
000018E5  FB                sti
000018E6  FF                db 0xFF
000018E7  FFD0              call eax
000018E9  0300              add eax,[eax]
000018EB  00ACFBFFFFF003    add [ebx+edi*8+0x3f0ffff],ch
000018F2  0000              add [eax],al
000018F4  B2FB              mov dl,0xfb
000018F6  FF                db 0xFF
000018F7  FF10              call near [eax]
000018F9  0400              add al,0x0
000018FB  00B8FBFFFF30      add [eax+0x30fffffb],bh
00001901  0400              add al,0x0
00001903  00CC              add ah,cl
00001905  FB                sti
00001906  FF                db 0xFF
00001907  FF5004            call near [eax+0x4]
0000190A  0000              add [eax],al
0000190C  16                push ss
0000190D  FC                cld
0000190E  FF                db 0xFF
0000190F  FF                db 0xFF
00001910  7804              js 0x1916
00001912  0000              add [eax],al
00001914  76FC              jna 0x1912
00001916  FF                db 0xFF
00001917  FFA0040000B4      jmp near [eax+0xb4000004]
0000191D  FC                cld
0000191E  FF                db 0xFF
0000191F  FFC0              inc eax
00001921  0400              add al,0x0
00001923  00BCFCFFFFE004    add [esp+edi*8+0x4e0ffff],bh
0000192A  0000              add [eax],al
0000192C  D6                salc
0000192D  FC                cld
0000192E  FF                db 0xFF
0000192F  FF00              inc dword [eax]
00001931  0500000EFD        add eax,0xfd0e0000
00001936  FF                db 0xFF
00001937  FF20              jmp near [eax]
00001939  0500004CFD        add eax,0xfd4c0000
0000193E  FF                db 0xFF
0000193F  FF4005            inc dword [eax+0x5]
00001942  0000              add [eax],al
00001944  73FD              jnc 0x1943
00001946  FF                db 0xFF
00001947  FF6005            jmp near [eax+0x5]
0000194A  0000              add [eax],al
0000194C  94                xchg eax,esp
0000194D  FD                std
0000194E  FF                db 0xFF
0000194F  FF80050000AE      inc dword [eax+0xae000005]
00001955  FD                std
00001956  FF                db 0xFF
00001957  FFA0050000C8      jmp near [eax+0xc8000005]
0000195D  FD                std
0000195E  FF                db 0xFF
0000195F  FFC0              inc eax
00001961  050000F8FD        add eax,0xfdf80000
00001966  FF                db 0xFF
00001967  FFE0              jmp eax
00001969  0500000BFE        add eax,0xfe0b0000
0000196E  FF                db 0xFF
0000196F  FF00              inc dword [eax]
00001971  06                push es
00001972  0000              add [eax],al
00001974  2CFE              sub al,0xfe
00001976  FF                db 0xFF
00001977  FF20              jmp near [eax]
00001979  06                push es
0000197A  0000              add [eax],al
0000197C  32FE              xor bh,dh
0000197E  FF                db 0xFF
0000197F  FF4006            inc dword [eax+0x6]
00001982  0000              add [eax],al
00001984  38FE              cmp dh,bh
00001986  FF                db 0xFF
00001987  FF6006            jmp near [eax+0x6]
0000198A  0000              add [eax],al
0000198C  68FEFFFF80        push dword 0x80fffffe
00001991  06                push es
00001992  0000              add [eax],al
00001994  8AFE              mov bh,dh
00001996  FF                db 0xFF
00001997  FFA006000094      jmp near [eax+0x94000006]
0000199D  FE                db 0xFE
0000199E  FF                db 0xFF
0000199F  FFC0              inc eax
000019A1  06                push es
000019A2  0000              add [eax],al
000019A4  BDFEFFFFE0        mov ebp,0xe0fffffe
000019A9  06                push es
000019AA  0000              add [eax],al
000019AC  D0FE              sar dh,1
000019AE  FF                db 0xFF
000019AF  FF00              inc dword [eax]
000019B1  07                pop es
000019B2  0000              add [eax],al
000019B4  0CFF              or al,0xff
000019B6  FF                db 0xFF
000019B7  FF20              jmp near [eax]
000019B9  07                pop es
000019BA  0000              add [eax],al
000019BC  1400              adc al,0x0
000019BE  0000              add [eax],al
000019C0  0000              add [eax],al
000019C2  0000              add [eax],al
000019C4  017A52            add [edx+0x52],edi
000019C7  0001              add [ecx],al
000019C9  7C08              jl 0x19d3
000019CB  011B              add [ebx],ebx
000019CD  0C04              or al,0x4
000019CF  0488              add al,0x88
000019D1  0100              add [eax],eax
000019D3  0020              add [eax],ah
000019D5  0000              add [eax],al
000019D7  001C00            add [eax+eax],bl
000019DA  0000              add [eax],al
000019DC  E4EE              in al,0xee
000019DE  FF                db 0xFF
000019DF  FF7001            push dword [eax+0x1]
000019E2  0000              add [eax],al
000019E4  000E              add [esi],cl
000019E6  08460E            or [esi+0xe],al
000019E9  0C4A              or al,0x4a
000019EB  0F0B              ud2
000019ED  7404              jz 0x19f3
000019EF  7800              js 0x19f1
000019F1  3F                aas
000019F2  1A3B              sbb bh,[ebx]
000019F4  2A32              sub dh,[edx]
000019F6  2422              and al,0x22
000019F8  1C00              sbb al,0x0
000019FA  0000              add [eax],al
000019FC  40                inc eax
000019FD  0000              add [eax],al
000019FF  00E3              add bl,ah
00001A01  F7FF              idiv edi
00001A03  FF0D00000000      dec dword [0x0]
00001A09  41                inc ecx
00001A0A  0E                push cs
00001A0B  088502420D05      or [ebp+0x50d4202],al
00001A11  49                dec ecx
00001A12  C50C04            lds ecx,[esp+eax]
00001A15  0400              add al,0x0
00001A17  001C00            add [eax+eax],bl
00001A1A  0000              add [eax],al
00001A1C  60                pusha
00001A1D  0000              add [eax],al
00001A1F  00D0              add al,dl
00001A21  F7FF              idiv edi
00001A23  FF0D00000000      dec dword [0x0]
00001A29  41                inc ecx
00001A2A  0E                push cs
00001A2B  088502420D05      or [ebp+0x50d4202],al
00001A31  49                dec ecx
00001A32  C50C04            lds ecx,[esp+eax]
00001A35  0400              add al,0x0
00001A37  001C00            add [eax+eax],bl
00001A3A  0000              add [eax],al
00001A3C  800000            add byte [eax],0x0
00001A3F  00BDF7FFFF0A      add [ebp+0xafffff7],bh
00001A45  0000              add [eax],al
00001A47  0000              add [eax],al
00001A49  41                inc ecx
00001A4A  0E                push cs
00001A4B  088502420D05      or [ebp+0x50d4202],al
00001A51  46                inc esi
00001A52  C50C04            lds ecx,[esp+eax]
00001A55  0400              add al,0x0
00001A57  001C00            add [eax+eax],bl
00001A5A  0000              add [eax],al
00001A5C  A0000000A7        mov al,[0xa7000000]
00001A61  F7FF              idiv edi
00001A63  FF2400            jmp near [eax+eax]
00001A66  0000              add [eax],al
00001A68  00410E            add [ecx+0xe],al
00001A6B  088502420D05      or [ebp+0x50d4202],al
00001A71  60                pusha
00001A72  C50C04            lds ecx,[esp+eax]
00001A75  0400              add al,0x0
00001A77  001C00            add [eax+eax],bl
00001A7A  0000              add [eax],al
00001A7C  C00000            rol byte [eax],0x0
00001A7F  00ABF7FFFF24      add [ebx+0x24fffff7],ch
00001A85  0000              add [eax],al
00001A87  0000              add [eax],al
00001A89  41                inc ecx
00001A8A  0E                push cs
00001A8B  088502420D05      or [ebp+0x50d4202],al
00001A91  60                pusha
00001A92  C50C04            lds ecx,[esp+eax]
00001A95  0400              add al,0x0
00001A97  001C00            add [eax+eax],bl
00001A9A  0000              add [eax],al
00001A9C  E000              loopne 0x1a9e
00001A9E  0000              add [eax],al
00001AA0  AF                scasd
00001AA1  F7FF              idiv edi
00001AA3  FF0D00000000      dec dword [0x0]
00001AA9  41                inc ecx
00001AAA  0E                push cs
00001AAB  088502420D05      or [ebp+0x50d4202],al
00001AB1  49                dec ecx
00001AB2  C50C04            lds ecx,[esp+eax]
00001AB5  0400              add al,0x0
00001AB7  001C00            add [eax+eax],bl
00001ABA  0000              add [eax],al
00001ABC  0001              add [ecx],al
00001ABE  0000              add [eax],al
00001AC0  9C                pushf
00001AC1  F7FF              idiv edi
00001AC3  FF5500            call near [ebp+0x0]
00001AC6  0000              add [eax],al
00001AC8  00410E            add [ecx+0xe],al
00001ACB  088502420D05      or [ebp+0x50d4202],al
00001AD1  0251C5            add dl,[ecx-0x3b]
00001AD4  0C04              or al,0x4
00001AD6  0400              add al,0x0
00001AD8  1C00              sbb al,0x0
00001ADA  0000              add [eax],al
00001ADC  2001              and [ecx],al
00001ADE  0000              add [eax],al
00001AE0  D1                db 0xD1
00001AE1  F7FF              idiv edi
00001AE3  FF26              jmp near [esi]
00001AE5  0000              add [eax],al
00001AE7  0000              add [eax],al
00001AE9  41                inc ecx
00001AEA  0E                push cs
00001AEB  088502420D05      or [ebp+0x50d4202],al
00001AF1  62                db 0x62
00001AF2  C50C04            lds ecx,[esp+eax]
00001AF5  0400              add al,0x0
00001AF7  001C00            add [eax+eax],bl
00001AFA  0000              add [eax],al
00001AFC  40                inc eax
00001AFD  0100              add [eax],eax
00001AFF  00D7              add bh,dl
00001B01  F7FF              idiv edi
00001B03  FF12              call near [edx]
00001B05  0000              add [eax],al
00001B07  0000              add [eax],al
00001B09  41                inc ecx
00001B0A  0E                push cs
00001B0B  088502420D05      or [ebp+0x50d4202],al
00001B11  4C                dec esp
00001B12  C50C04            lds ecx,[esp+eax]
00001B15  0400              add al,0x0
00001B17  001C00            add [eax+eax],bl
00001B1A  0000              add [eax],al
00001B1C  60                pusha
00001B1D  0100              add [eax],eax
00001B1F  00C9              add cl,cl
00001B21  F7FF              idiv edi
00001B23  FF30              push dword [eax]
00001B25  0000              add [eax],al
00001B27  0000              add [eax],al
00001B29  41                inc ecx
00001B2A  0E                push cs
00001B2B  088502420D05      or [ebp+0x50d4202],al
00001B31  6C                insb
00001B32  C50C04            lds ecx,[esp+eax]
00001B35  0400              add al,0x0
00001B37  001C00            add [eax+eax],bl
00001B3A  0000              add [eax],al
00001B3C  0000              add [eax],al
00001B3E  0000              add [eax],al
00001B40  017A50            add [edx+0x50],edi
00001B43  4C                dec esp
00001B44  52                push edx
00001B45  0001              add [ecx],al
00001B47  7C08              jl 0x1b51
00001B49  07                pop es
00001B4A  0000              add [eax],al
00001B4C  8A0408            mov al,[eax+ecx]
00001B4F  001B              add [ebx],bl
00001B51  0C04              or al,0x4
00001B53  0488              add al,0x88
00001B55  0100              add [eax],eax
00001B57  003C00            add [eax+eax],bh
00001B5A  0000              add [eax],al
00001B5C  2400              and al,0x0
00001B5E  0000              add [eax],al
00001B60  F0EF              lock out dx,eax
00001B62  FF                db 0xFF
00001B63  FF9306000004      call near [ebx+0x4000006]
00001B69  9C                pushf
00001B6A  9F                lahf
00001B6B  0408              add al,0x8
00001B6D  44                inc esp
00001B6E  0C01              or al,0x1
00001B70  004710            add [edi+0x10],al
00001B73  0502750045        add eax,0x45007502
00001B78  0F037574          lsl esi,[ebp+0x74]
00001B7C  06                push es
00001B7D  1006              adc [esi],al
00001B7F  02757C            add dh,[ebp+0x7c]
00001B82  1003              adc [ebx],al
00001B84  027578            add dh,[ebp+0x78]
00001B87  037C06C1          add edi,[esi+eax-0x3f]
00001B8B  0C01              or al,0x1
00001B8D  0041C3            add [ecx-0x3d],al
00001B90  41                inc ecx
00001B91  C641C543          mov byte [ecx-0x3b],0x43
00001B95  0C04              or al,0x4
00001B97  041C              add al,0x1c
00001B99  0000              add [eax],al
00001B9B  00E0              add al,ah
00001B9D  0100              add [eax],eax
00001B9F  007AF7            add [edx-0x9],bh
00001BA2  FF                db 0xFF
00001BA3  FF13              call near [ebx]
00001BA5  0000              add [eax],al
00001BA7  0000              add [eax],al
00001BA9  41                inc ecx
00001BAA  0E                push cs
00001BAB  088502420D05      or [ebp+0x50d4202],al
00001BB1  4F                dec edi
00001BB2  C50C04            lds ecx,[esp+eax]
00001BB5  0400              add al,0x0
00001BB7  001C00            add [eax+eax],bl
00001BBA  0000              add [eax],al
00001BBC  0002              add [edx],al
00001BBE  0000              add [eax],al
00001BC0  6E                outsb
00001BC1  F7FF              idiv edi
00001BC3  FF13              call near [ebx]
00001BC5  0000              add [eax],al
00001BC7  0000              add [eax],al
00001BC9  41                inc ecx
00001BCA  0E                push cs
00001BCB  088502420D05      or [ebp+0x50d4202],al
00001BD1  4F                dec edi
00001BD2  C50C04            lds ecx,[esp+eax]
00001BD5  0400              add al,0x0
00001BD7  002400            add [eax+eax],ah
00001BDA  0000              add [eax],al
00001BDC  A4                movsb
00001BDD  0000              add [eax],al
00001BDF  0062F7            add [edx-0x9],ah
00001BE2  FF                db 0xFF
00001BE3  FF5800            call far [eax+0x0]
00001BE6  0000              add [eax],al
00001BE8  04EC              add al,0xec
00001BEA  9F                lahf
00001BEB  0408              add al,0x8
00001BED  41                inc ecx
00001BEE  0E                push cs
00001BEF  088502420D05      or [ebp+0x50d4202],al
00001BF5  44                inc esp
00001BF6  830302            add dword [ebx],byte +0x2
00001BF9  4F                dec edi
00001BFA  C3                ret
00001BFB  41                inc ecx
00001BFC  C50C04            lds ecx,[esp+eax]
00001BFF  0424              add al,0x24
00001C01  0000              add [eax],al
00001C03  00CC              add ah,cl
00001C05  0000              add [eax],al
00001C07  0092F7FFFF57      add [edx+0x57fffff7],dl
00001C0D  0000              add [eax],al
00001C0F  0004FC            add [esp+edi*8],al
00001C12  9F                lahf
00001C13  0408              add al,0x8
00001C15  41                inc ecx
00001C16  0E                push cs
00001C17  088502420D05      or [ebp+0x50d4202],al
00001C1D  44                inc esp
00001C1E  830302            add dword [ebx],byte +0x2
00001C21  4E                dec esi
00001C22  C3                ret
00001C23  41                inc ecx
00001C24  C50C04            lds ecx,[esp+eax]
00001C27  041C              add al,0x1c
00001C29  0000              add [eax],al
00001C2B  007002            add [eax+0x2],dh
00001C2E  0000              add [eax],al
00001C30  C2F7FF            ret 0xfff7
00001C33  FF12              call near [edx]
00001C35  0000              add [eax],al
00001C37  0000              add [eax],al
00001C39  41                inc ecx
00001C3A  0E                push cs
00001C3B  088502420D05      or [ebp+0x50d4202],al
00001C41  4E                dec esi
00001C42  C50C04            lds ecx,[esp+eax]
00001C45  0400              add al,0x0
00001C47  001C00            add [eax+eax],bl
00001C4A  0000              add [eax],al
00001C4C  90                nop
00001C4D  0200              add al,[eax]
00001C4F  00B4F7FFFF0500    add [edi+esi*8+0x5ffff],dh
00001C56  0000              add [eax],al
00001C58  00410E            add [ecx+0xe],al
00001C5B  088502420D05      or [ebp+0x50d4202],al
00001C61  41                inc ecx
00001C62  C50C04            lds ecx,[esp+eax]
00001C65  0400              add al,0x0
00001C67  001C00            add [eax+eax],bl
00001C6A  0000              add [eax],al
00001C6C  B002              mov al,0x2
00001C6E  0000              add [eax],al
00001C70  9AF7FFFF050000    call 0x0:0x5fffff7
00001C77  0000              add [eax],al
00001C79  41                inc ecx
00001C7A  0E                push cs
00001C7B  088502420D05      or [ebp+0x50d4202],al
00001C81  41                inc ecx
00001C82  C50C04            lds ecx,[esp+eax]
00001C85  0400              add al,0x0
00001C87  001C00            add [eax+eax],bl
00001C8A  0000              add [eax],al
00001C8C  D002              rol byte [edx],1
00001C8E  0000              add [eax],al
00001C90  80F7FF            xor bh,0xff
00001C93  FF13              call near [ebx]
00001C95  0000              add [eax],al
00001C97  0000              add [eax],al
00001C99  41                inc ecx
00001C9A  0E                push cs
00001C9B  088502420D05      or [ebp+0x50d4202],al
00001CA1  4F                dec edi
00001CA2  C50C04            lds ecx,[esp+eax]
00001CA5  0400              add al,0x0
00001CA7  002400            add [eax+eax],ah
00001CAA  0000              add [eax],al
00001CAC  7401              jz 0x1caf
00001CAE  0000              add [eax],al
00001CB0  74F7              jz 0x1ca9
00001CB2  FF                db 0xFF
00001CB3  FF4A00            dec dword [edx+0x0]
00001CB6  0000              add [eax],al
00001CB8  040C              add al,0xc
00001CBA  A00408410E        mov al,[0xe410804]
00001CBF  088502420D05      or [ebp+0x50d4202],al
00001CC5  44                inc esp
00001CC6  830302            add dword [ebx],byte +0x2
00001CC9  41                inc ecx
00001CCA  C3                ret
00001CCB  41                inc ecx
00001CCC  C50C04            lds ecx,[esp+eax]
00001CCF  0424              add al,0x24
00001CD1  0000              add [eax],al
00001CD3  009C01000096F7    add [ecx+eax+0xf7960000],bl
00001CDA  FF                db 0xFF
00001CDB  FF5F00            call far [edi+0x0]
00001CDE  0000              add [eax],al
00001CE0  0418              add al,0x18
00001CE2  A00408410E        mov al,[0xe410804]
00001CE7  088502420D05      or [ebp+0x50d4202],al
00001CED  44                inc esp
00001CEE  830302            add dword [ebx],byte +0x2
00001CF1  56                push esi
00001CF2  C3                ret
00001CF3  41                inc ecx
00001CF4  C50C04            lds ecx,[esp+eax]
00001CF7  041C              add al,0x1c
00001CF9  0000              add [eax],al
00001CFB  004003            add [eax+0x3],al
00001CFE  0000              add [eax],al
00001D00  CE                into
00001D01  F7FF              idiv edi
00001D03  FF                db 0xFF
00001D04  3E0000            add [ds:eax],al
00001D07  0000              add [eax],al
00001D09  41                inc ecx
00001D0A  0E                push cs
00001D0B  088502420D05      or [ebp+0x50d4202],al
00001D11  7AC5              jpe 0x1cd8
00001D13  0C04              or al,0x4
00001D15  0400              add al,0x0
00001D17  001C00            add [eax+eax],bl
00001D1A  0000              add [eax],al
00001D1C  60                pusha
00001D1D  0300              add eax,[eax]
00001D1F  00EC              add ah,ch
00001D21  F7FF              idiv edi
00001D23  FF08              dec dword [eax]
00001D25  0000              add [eax],al
00001D27  0000              add [eax],al
00001D29  41                inc ecx
00001D2A  0E                push cs
00001D2B  088502420D05      or [ebp+0x50d4202],al
00001D31  44                inc esp
00001D32  C50C04            lds ecx,[esp+eax]
00001D35  0400              add al,0x0
00001D37  001C00            add [eax+eax],bl
00001D3A  0000              add [eax],al
00001D3C  800300            add byte [ebx],0x0
00001D3F  00D4              add ah,dl
00001D41  F7FF              idiv edi
00001D43  FF1A              call far [edx]
00001D45  0000              add [eax],al
00001D47  0000              add [eax],al
00001D49  41                inc ecx
00001D4A  0E                push cs
00001D4B  088502420D05      or [ebp+0x50d4202],al
00001D51  56                push esi
00001D52  C50C04            lds ecx,[esp+eax]
00001D55  0400              add al,0x0
00001D57  001C00            add [eax+eax],bl
00001D5A  0000              add [eax],al
00001D5C  A0030000CE        mov al,[0xce000003]
00001D61  F7FF              idiv edi
00001D63  FF37              push dword [edi]
00001D65  0000              add [eax],al
00001D67  0000              add [eax],al
00001D69  41                inc ecx
00001D6A  0E                push cs
00001D6B  088502420D05      or [ebp+0x50d4202],al
00001D71  73C5              jnc 0x1d38
00001D73  0C04              or al,0x4
00001D75  0400              add al,0x0
00001D77  001C00            add [eax+eax],bl
00001D7A  0000              add [eax],al
00001D7C  C00300            rol byte [ebx],0x0
00001D7F  00E6              add dh,ah
00001D81  F7FF              idiv edi
00001D83  FF                db 0xFF
00001D84  3D00000000        cmp eax,0x0
00001D89  41                inc ecx
00001D8A  0E                push cs
00001D8B  088502420D05      or [ebp+0x50d4202],al
00001D91  79C5              jns 0x1d58
00001D93  0C04              or al,0x4
00001D95  0400              add al,0x0
00001D97  001C00            add [eax+eax],bl
00001D9A  0000              add [eax],al
00001D9C  E003              loopne 0x1da1
00001D9E  0000              add [eax],al
00001DA0  04F8              add al,0xf8
00001DA2  FF                db 0xFF
00001DA3  FF27              jmp near [edi]
00001DA5  0000              add [eax],al
00001DA7  0000              add [eax],al
00001DA9  41                inc ecx
00001DAA  0E                push cs
00001DAB  088502420D05      or [ebp+0x50d4202],al
00001DB1  63C5              arpl bp,ax
00001DB3  0C04              or al,0x4
00001DB5  0400              add al,0x0
00001DB7  001C00            add [eax+eax],bl
00001DBA  0000              add [eax],al
00001DBC  000400            add [eax+eax],al
00001DBF  000B              add [ebx],cl
00001DC1  F8                clc
00001DC2  FF                db 0xFF
00001DC3  FF21              jmp near [ecx]
00001DC5  0000              add [eax],al
00001DC7  0000              add [eax],al
00001DC9  41                inc ecx
00001DCA  0E                push cs
00001DCB  088502420D05      or [ebp+0x50d4202],al
00001DD1  5D                pop ebp
00001DD2  C50C04            lds ecx,[esp+eax]
00001DD5  0400              add al,0x0
00001DD7  001C00            add [eax+eax],bl
00001DDA  0000              add [eax],al
00001DDC  200400            and [eax+eax],al
00001DDF  000CF8            add [eax+edi*8],cl
00001DE2  FF                db 0xFF
00001DE3  FF1A              call far [edx]
00001DE5  0000              add [eax],al
00001DE7  0000              add [eax],al
00001DE9  41                inc ecx
00001DEA  0E                push cs
00001DEB  088502420D05      or [ebp+0x50d4202],al
00001DF1  56                push esi
00001DF2  C50C04            lds ecx,[esp+eax]
00001DF5  0400              add al,0x0
00001DF7  001C00            add [eax+eax],bl
00001DFA  0000              add [eax],al
00001DFC  40                inc eax
00001DFD  0400              add al,0x0
00001DFF  0006              add [esi],al
00001E01  F8                clc
00001E02  FF                db 0xFF
00001E03  FF1A              call far [edx]
00001E05  0000              add [eax],al
00001E07  0000              add [eax],al
00001E09  41                inc ecx
00001E0A  0E                push cs
00001E0B  088502420D05      or [ebp+0x50d4202],al
00001E11  56                push esi
00001E12  C50C04            lds ecx,[esp+eax]
00001E15  0400              add al,0x0
00001E17  001C00            add [eax+eax],bl
00001E1A  0000              add [eax],al
00001E1C  60                pusha
00001E1D  0400              add al,0x0
00001E1F  0000              add [eax],al
00001E21  F8                clc
00001E22  FF                db 0xFF
00001E23  FF2F              jmp far [edi]
00001E25  0000              add [eax],al
00001E27  0000              add [eax],al
00001E29  41                inc ecx
00001E2A  0E                push cs
00001E2B  088502420D05      or [ebp+0x50d4202],al
00001E31  6BC50C            imul eax,ebp,byte +0xc
00001E34  0404              add al,0x4
00001E36  0000              add [eax],al
00001E38  1C00              sbb al,0x0
00001E3A  0000              add [eax],al
00001E3C  80040000          add byte [eax+eax],0x0
00001E40  10F8              adc al,bh
00001E42  FF                db 0xFF
00001E43  FF13              call near [ebx]
00001E45  0000              add [eax],al
00001E47  0000              add [eax],al
00001E49  41                inc ecx
00001E4A  0E                push cs
00001E4B  088502420D05      or [ebp+0x50d4202],al
00001E51  4F                dec edi
00001E52  C50C04            lds ecx,[esp+eax]
00001E55  0400              add al,0x0
00001E57  001C00            add [eax+eax],bl
00001E5A  0000              add [eax],al
00001E5C  A004000003        mov al,[0x3000004]
00001E61  F8                clc
00001E62  FF                db 0xFF
00001E63  FF21              jmp near [ecx]
00001E65  0000              add [eax],al
00001E67  0000              add [eax],al
00001E69  41                inc ecx
00001E6A  0E                push cs
00001E6B  088502420D05      or [ebp+0x50d4202],al
00001E71  5D                pop ebp
00001E72  C50C04            lds ecx,[esp+eax]
00001E75  0400              add al,0x0
00001E77  001C00            add [eax+eax],bl
00001E7A  0000              add [eax],al
00001E7C  C0040000          rol byte [eax+eax],0x0
00001E80  04F8              add al,0xf8
00001E82  FF                db 0xFF
00001E83  FF0500000000      inc dword [0x0]
00001E89  41                inc ecx
00001E8A  0E                push cs
00001E8B  088502420D05      or [ebp+0x50d4202],al
00001E91  41                inc ecx
00001E92  C50C04            lds ecx,[esp+eax]
00001E95  0400              add al,0x0
00001E97  001C00            add [eax+eax],bl
00001E9A  0000              add [eax],al
00001E9C  E004              loopne 0x1ea2
00001E9E  0000              add [eax],al
00001EA0  EAF7FFFF050000    jmp 0x0:0x5fffff7
00001EA7  0000              add [eax],al
00001EA9  41                inc ecx
00001EAA  0E                push cs
00001EAB  088502420D05      or [ebp+0x50d4202],al
00001EB1  41                inc ecx
00001EB2  C50C04            lds ecx,[esp+eax]
00001EB5  0400              add al,0x0
00001EB7  001C00            add [eax+eax],bl
00001EBA  0000              add [eax],al
00001EBC  00050000D0F7      add [0xf7d00000],al
00001EC2  FF                db 0xFF
00001EC3  FF30              push dword [eax]
00001EC5  0000              add [eax],al
00001EC7  0000              add [eax],al
00001EC9  41                inc ecx
00001ECA  0E                push cs
00001ECB  088502420D05      or [ebp+0x50d4202],al
00001ED1  6C                insb
00001ED2  C50C04            lds ecx,[esp+eax]
00001ED5  0400              add al,0x0
00001ED7  001C00            add [eax+eax],bl
00001EDA  0000              add [eax],al
00001EDC  20050000E0F7      and [0xf7e00000],al
00001EE2  FF                db 0xFF
00001EE3  FF21              jmp near [ecx]
00001EE5  0000              add [eax],al
00001EE7  0000              add [eax],al
00001EE9  41                inc ecx
00001EEA  0E                push cs
00001EEB  088502420D05      or [ebp+0x50d4202],al
00001EF1  5D                pop ebp
00001EF2  C50C04            lds ecx,[esp+eax]
00001EF5  0400              add al,0x0
00001EF7  001C00            add [eax+eax],bl
00001EFA  0000              add [eax],al
00001EFC  40                inc eax
00001EFD  050000E2F7        add eax,0xf7e20000
00001F02  FF                db 0xFF
00001F03  FF0A              dec dword [edx]
00001F05  0000              add [eax],al
00001F07  0000              add [eax],al
00001F09  41                inc ecx
00001F0A  0E                push cs
00001F0B  088502420D05      or [ebp+0x50d4202],al
00001F11  46                inc esi
00001F12  C50C04            lds ecx,[esp+eax]
00001F15  0400              add al,0x0
00001F17  001C00            add [eax+eax],bl
00001F1A  0000              add [eax],al
00001F1C  60                pusha
00001F1D  050000CCF7        add eax,0xf7cc0000
00001F22  FF                db 0xFF
00001F23  FF29              jmp far [ecx]
00001F25  0000              add [eax],al
00001F27  0000              add [eax],al
00001F29  41                inc ecx
00001F2A  0E                push cs
00001F2B  088502420D05      or [ebp+0x50d4202],al
00001F31  65C50C04          lds ecx,[gs:esp+eax]
00001F35  0400              add al,0x0
00001F37  001C00            add [eax+eax],bl
00001F3A  0000              add [eax],al
00001F3C  80050000D5F7FF    add byte [0xf7d50000],0xff
00001F43  FF13              call near [ebx]
00001F45  0000              add [eax],al
00001F47  0000              add [eax],al
00001F49  41                inc ecx
00001F4A  0E                push cs
00001F4B  088502420D05      or [ebp+0x50d4202],al
00001F51  4F                dec edi
00001F52  C50C04            lds ecx,[esp+eax]
00001F55  0400              add al,0x0
00001F57  001C00            add [eax+eax],bl
00001F5A  0000              add [eax],al
00001F5C  A0050000C8        mov al,[0xc8000005]
00001F61  F7FF              idiv edi
00001F63  FF                db 0xFF
00001F64  3C00              cmp al,0x0
00001F66  0000              add [eax],al
00001F68  00410E            add [ecx+0xe],al
00001F6B  088502420D05      or [ebp+0x50d4202],al
00001F71  78C5              js 0x1f38
00001F73  0C04              or al,0x4
00001F75  0400              add al,0x0
00001F77  001C00            add [eax+eax],bl
00001F7A  0000              add [eax],al
00001F7C  C0050000E4F7FF    rol byte [0xf7e40000],0xff
00001F83  FF08              dec dword [eax]
00001F85  0000              add [eax],al
00001F87  0000              add [eax],al
00001F89  41                inc ecx
00001F8A  0E                push cs
00001F8B  088502420D05      or [ebp+0x50d4202],al
00001F91  44                inc esp
00001F92  C50C04            lds ecx,[esp+eax]
00001F95  0400              add al,0x0
00001F97  0000              add [eax],al
00001F99  0000              add [eax],al
00001F9B  00FF              add bh,bh
00001F9D  FF01              inc dword [ecx]
00001F9F  4C                dec esp
00001FA0  2F                das
00001FA1  05800D005D        add eax,0x5d000d80
00001FA6  05EC0C0072        add eax,0x72000cec
00001FAB  11DA              adc edx,ebx
00001FAD  0C00              or al,0x0
00001FAF  A20129D60C        mov [0xcd62901],al
00001FB4  008702058C0C      add [edi+0xc8c0502],al
00001FBA  00D3              add bl,dl
00001FBC  02059D0C00A5      add al,[0xa5000c9d]
00001FC2  03D2              add edx,edx
00001FC4  04B0              add al,0xb0
00001FC6  0C00              or al,0x0
00001FC8  96                xchg eax,esi
00001FC9  089403AC0C00C5    or [ebx+eax+0xc5000cac],dl
00001FD0  0B05C20C00D3      or eax,[0xd3000cc2]
00001FD6  0B05D60C00F5      or eax,[0xf5000cd6]
00001FDC  0B05EC0C0083      or eax,[0x83000cec]
00001FE2  0C05              or al,0x5
00001FE4  800D00830D0500    or byte [0x50d8300],0x0
00001FEB  00FF              add bh,bh
00001FED  FF01              inc dword [ecx]
00001FEF  0C1B              or al,0x1b
00001FF1  0500003405        add eax,0x5340000
00001FF6  3B00              cmp eax,[eax]
00001FF8  4D                dec ebp
00001FF9  050000FFFF        add eax,0xffff0000
00001FFE  010C28            add [eax+ebp],ecx
00002001  053A003305        add eax,0x533003a
00002006  0000              add [eax],al
00002008  4C                dec esp
00002009  050000FFFF        add eax,0xffff0000
0000200E  0108              add [eax],ecx
00002010  26052D003F05      es add eax,0x53f002d
00002016  0000              add [eax],al
00002018  FF                db 0xFF
00002019  FF01              inc dword [ecx]
0000201B  0830              or [eax],dh
0000201D  0542005405        add eax,0x5540042
00002022  0000              add [eax],al
00002024  FF                db 0xFF
00002025  FF                db 0xFF
00002026  FF                db 0xFF
00002027  FF00              inc dword [eax]
00002029  0000              add [eax],al
0000202B  00FF              add bh,bh
0000202D  FF                db 0xFF
0000202E  FF                db 0xFF
0000202F  FF00              inc dword [eax]
00002031  0000              add [eax],al
00002033  0000              add [eax],al
00002035  0000              add [eax],al
00002037  0001              add [ecx],al
00002039  0000              add [eax],al
0000203B  0001              add [ecx],al
0000203D  0000              add [eax],al
0000203F  0001              add [ecx],al
00002041  0000              add [eax],al
00002043  00BA02000001      add [edx+0x1000002],bh
00002049  0000              add [eax],al
0000204B  00C9              add cl,cl
0000204D  0200              add al,[eax]
0000204F  0001              add [ecx],al
00002051  0000              add [eax],al
00002053  00E6              add dh,ah
00002055  0200              add al,[eax]
00002057  000C00            add [eax+eax],cl
0000205A  0000              add [eax],al
0000205C  888804080D00      mov [eax+0xd0804],cl
00002062  0000              add [eax],al
00002064  089804080400      or [eax+0x40804],bl
0000206A  0000              add [eax],al
0000206C  6881040805        push dword 0x5080481
00002071  0000              add [eax],al
00002073  00D0              add al,dl
00002075  83040806          add dword [eax+ecx],byte +0x6
00002079  0000              add [eax],al
0000207B  0020              add [eax],ah
0000207D  82                db 0x82
0000207E  0408              add al,0x8
00002080  0A00              or al,[eax]
00002082  0000              add [eax],al
00002084  3A03              cmp al,[ebx]
00002086  0000              add [eax],al
00002088  0B00              or eax,[eax]
0000208A  0000              add [eax],al
0000208C  1000              adc [eax],al
0000208E  0000              add [eax],al
00002090  1500000000        adc eax,0x0
00002095  0000              add [eax],al
00002097  0003              add [ebx],al
00002099  0000              add [eax],al
0000209B  001CB1            add [ecx+esi*4],bl
0000209E  0408              add al,0x8
000020A0  0200              add al,[eax]
000020A2  0000              add [eax],al
000020A4  B000              mov al,0x0
000020A6  0000              add [eax],al
000020A8  1400              adc al,0x0
000020AA  0000              add [eax],al
000020AC  1100              adc [eax],eax
000020AE  0000              add [eax],al
000020B0  17                pop ss
000020B1  0000              add [eax],al
000020B3  00D8              add al,bl
000020B5  870408            xchg eax,[eax+ecx]
000020B8  1100              adc [eax],eax
000020BA  0000              add [eax],al
000020BC  D08704081200      rol byte [edi+0x120804],1
000020C2  0000              add [eax],al
000020C4  0800              or [eax],al
000020C6  0000              add [eax],al
000020C8  1300              adc eax,[eax]
000020CA  0000              add [eax],al
000020CC  0800              or [eax],al
000020CE  0000              add [eax],al
000020D0  FE                db 0xFE
000020D1  FF                db 0xFF
000020D2  FF6F40            jmp far [edi+0x40]
000020D5  870408            xchg eax,[eax+ecx]
000020D8  FF                db 0xFF
000020D9  FF                db 0xFF
000020DA  FF6F04            jmp far [edi+0x4]
000020DD  0000              add [eax],al
000020DF  00F0              add al,dh
000020E1  FF                db 0xFF
000020E2  FF6F0A            jmp far [edi+0xa]
000020E5  870408            xchg eax,[eax+ecx]
000020E8  0000              add [eax],al
000020EA  0000              add [eax],al
000020EC  0000              add [eax],al
000020EE  0000              add [eax],al
000020F0  0000              add [eax],al
000020F2  0000              add [eax],al
000020F4  0000              add [eax],al
000020F6  0000              add [eax],al
000020F8  0000              add [eax],al
000020FA  0000              add [eax],al
000020FC  0000              add [eax],al
000020FE  0000              add [eax],al
00002100  0000              add [eax],al
00002102  0000              add [eax],al
00002104  0000              add [eax],al
00002106  0000              add [eax],al
00002108  0000              add [eax],al
0000210A  0000              add [eax],al
0000210C  0000              add [eax],al
0000210E  0000              add [eax],al
00002110  0000              add [eax],al
00002112  0000              add [eax],al
00002114  0000              add [eax],al
00002116  0000              add [eax],al
00002118  0000              add [eax],al
0000211A  0000              add [eax],al
0000211C  38B004080000      cmp [eax+0x804],dh
00002122  0000              add [eax],al
00002124  0000              add [eax],al
00002126  0000              add [eax],al
00002128  D6                salc
00002129  880408            mov [eax+ecx],al
0000212C  E688              out 0x88,al
0000212E  0408              add al,0x8
00002130  F6                db 0xF6
00002131  880408            mov [eax+ecx],al
00002134  06                push es
00002135  890408            mov [eax+ecx],eax
00002138  16                push ss
00002139  890408            mov [eax+ecx],eax
0000213C  26890408          mov [es:eax+ecx],eax
00002140  36890408          mov [ss:eax+ecx],eax
00002144  46                inc esi
00002145  890408            mov [eax+ecx],eax
00002148  56                push esi
00002149  890408            mov [eax+ecx],eax
0000214C  66890408          mov [eax+ecx],ax
00002150  7689              jna 0x20db
00002152  0408              add al,0x8
00002154  868904089689      xchg cl,[ecx+0x89960804]
0000215A  0408              add al,0x8
0000215C  A6                cmpsb
0000215D  890408            mov [eax+ecx],eax
00002160  B689              mov dh,0x89
00002162  0408              add al,0x8
00002164  C6                db 0xC6
00002165  890408            mov [eax+ecx],eax
00002168  D6                salc
00002169  890408            mov [eax+ecx],eax
0000216C  E689              out 0x89,al
0000216E  0408              add al,0x8
00002170  F6                db 0xF6
00002171  890408            mov [eax+ecx],eax
00002174  06                push es
00002175  8A0408            mov al,[eax+ecx]
00002178  16                push ss
00002179  8A0408            mov al,[eax+ecx]
0000217C  268A0408          mov al,[es:eax+ecx]
00002180  0000              add [eax],al
00002182  0000              add [eax],al
00002184  0000              add [eax],al
00002186  0000              add [eax],al
00002188  47                inc edi
00002189  43                inc ebx
0000218A  43                inc ebx
0000218B  3A20              cmp ah,[eax]
0000218D  285562            sub [ebp+0x62],dl
00002190  756E              jnz 0x2200
00002192  7475              jz 0x2209
00002194  20342E            and [esi+ebp],dh
00002197  342E              xor al,0x2e
00002199  332D34756275      xor ebp,[0x75627534]
0000219F  6E                outsb
000021A0  7475              jz 0x2217
000021A2  352920342E        xor eax,0x2e342029
000021A7  342E              xor al,0x2e
000021A9  3300              xor eax,[eax]
000021AB  47                inc edi
000021AC  43                inc ebx
000021AD  43                inc ebx
000021AE  3A20              cmp ah,[eax]
000021B0  28474E            sub [edi+0x4e],al
000021B3  55                push ebp
000021B4  2920              sub [eax],esp
000021B6  342E              xor al,0x2e
000021B8  382E              cmp [esi],ch
000021BA  3100              xor [eax],eax
000021BC  0000              add [eax],al
000021BE  0000              add [eax],al
000021C0  1C00              sbb al,0x0
000021C2  0000              add [eax],al
000021C4  0200              add al,[eax]
000021C6  0000              add [eax],al
000021C8  0000              add [eax],al
000021CA  0400              add al,0x0
000021CC  0000              add [eax],al
000021CE  0000              add [eax],al
000021D0  308A04082200      xor [edx+0x220804],cl
000021D6  0000              add [eax],al
000021D8  0000              add [eax],al
000021DA  0000              add [eax],al
000021DC  0000              add [eax],al
000021DE  0000              add [eax],al
000021E0  1C00              sbb al,0x0
000021E2  0000              add [eax],al
000021E4  0200              add al,[eax]
000021E6  0E                push cs
000021E7  0100              add [eax],eax
000021E9  000400            add [eax+eax],al
000021EC  0000              add [eax],al
000021EE  0000              add [eax],al
000021F0  7097              jo 0x2189
000021F2  0408              add al,0x8
000021F4  6A00              push byte +0x0
000021F6  0000              add [eax],al
000021F8  0000              add [eax],al
000021FA  0000              add [eax],al
000021FC  0000              add [eax],al
000021FE  0000              add [eax],al
00002200  2100              and [eax],eax
00002202  0000              add [eax],al
00002204  0200              add al,[eax]
00002206  810000008D00      add dword [eax],0x8d0000
0000220C  0000              add [eax],al
0000220E  7500              jnz 0x2210
00002210  0000              add [eax],al
00002212  5F                pop edi
00002213  49                dec ecx
00002214  4F                dec edi
00002215  5F                pop edi
00002216  7374              jnc 0x228c
00002218  64696E5F75736564  imul ebp,[fs:esi+0x5f],dword 0x64657375
00002220  0000              add [eax],al
00002222  0000              add [eax],al
00002224  0036              add [esi],dh
00002226  0000              add [eax],al
00002228  0002              add [edx],al
0000222A  000E              add [esi],cl
0000222C  0100              add [eax],eax
0000222E  0013              add [ebx],dl
00002230  0100              add [eax],eax
00002232  003E              add [esi],bh
00002234  0000              add [eax],al
00002236  005F5F            add [edi+0x5f],bl
00002239  6C                insb
0000223A  6962635F637375    imul esp,[edx+0x63],dword 0x7573635f
00002241  5F                pop edi
00002242  66696E690053      imul bp,[esi+0x69],word 0x5300
00002248  0000              add [eax],al
0000224A  005F5F            add [edi+0x5f],bl
0000224D  6C                insb
0000224E  6962635F637375    imul esp,[edx+0x63],dword 0x7573635f
00002255  5F                pop edi
00002256  696E6974000000    imul ebp,[esi+0x69],dword 0x74
0000225D  0000              add [eax],al
0000225F  7D00              jnl 0x2261
00002261  0000              add [eax],al
00002263  0200              add al,[eax]
00002265  0000              add [eax],al
00002267  0000              add [eax],al
00002269  0401              add al,0x1
0000226B  0000              add [eax],al
0000226D  0000              add [eax],al
0000226F  308A0408528A      xor [edx+0x8a520804],cl
00002275  0408              add al,0x8
00002277  2E2E2F            cs das
0000227A  7379              jnc 0x22f5
0000227C  7364              jnc 0x22e2
0000227E  657073            gs jo 0x22f4
00002281  2F                das
00002282  693338362F65      imul esi,[ebx],dword 0x652f3638
00002288  6C                insb
00002289  662F              o16 das
0000228B  7374              jnc 0x2301
0000228D  61                popa
0000228E  7274              jc 0x2304
00002290  2E53              cs push ebx
00002292  002F              add [edi],ch
00002294  686F6D652F        push dword 0x2f656d6f
00002299  7069              jo 0x2304
0000229B  657272            gs jc 0x2310
0000229E  652F              gs das
000022A0  42                inc edx
000022A1  7572              jnz 0x2315
000022A3  6561              gs popa
000022A5  752F              jnz 0x22d6
000022A7  6865616465        push dword 0x65646165
000022AC  7273              jc 0x2321
000022AE  2D676C6962        sub eax,0x62696c67
000022B3  632D666F722D      arpl [0x2d726f66],bp
000022B9  6C                insb
000022BA  696E75782F676C    imul ebp,[esi+0x75],dword 0x6c672f78
000022C1  6962632D322E31    imul esp,[edx+0x63],dword 0x312e322d
000022C8  322E              xor ch,[esi]
000022CA  322F              xor ch,[edi]
000022CC  637375            arpl [ebx+0x75],si
000022CF  00474E            add [edi+0x4e],al
000022D2  55                push ebp
000022D3  204153            and [ecx+0x53],al
000022D6  2032              and [edx],dh
000022D8  2E3230            xor dh,[cs:eax]
000022DB  2E3100            xor [cs:eax],eax
000022DE  018089000000      add [eax+0x89],eax
000022E4  0200              add al,[eax]
000022E6  1400              adc al,0x0
000022E8  0000              add [eax],al
000022EA  0401              add al,0x1
000022EC  8E00              mov es,[eax]
000022EE  0000              add [eax],al
000022F0  01CD              add ebp,ecx
000022F2  0000              add [eax],al
000022F4  004300            add [ebx+0x0],al
000022F7  0000              add [eax],al
000022F9  54                push esp
000022FA  8A0408            mov al,[eax+ecx]
000022FD  54                push esp
000022FE  8A0408            mov al,[eax+ecx]
00002301  5B                pop ebx
00002302  0000              add [eax],al
00002304  0002              add [edx],al
00002306  0108              add [eax],ecx
00002308  800000            add byte [eax],0x0
0000230B  0002              add [edx],al
0000230D  0207              add al,[edi]
0000230F  0000              add [eax],al
00002311  0000              add [eax],al
00002313  020407            add al,[edi+eax]
00002316  360000            add [ss:eax],al
00002319  0002              add [edx],al
0000231B  0407              add al,0x7
0000231D  3100              xor [eax],eax
0000231F  0000              add [eax],al
00002321  0201              add al,[ecx]
00002323  06                push es
00002324  82                db 0x82
00002325  0000              add [eax],al
00002327  0002              add [edx],al
00002329  020513000000      add al,[0x13]
0000232F  030405696E7400    add eax,[eax+0x746e69]
00002336  0208              add cl,[eax]
00002338  059A000000        add eax,0x9a
0000233D  0208              add cl,[eax]
0000233F  07                pop es
00002340  2C00              sub al,0x0
00002342  0000              add [eax],al
00002344  0204059F000000    add al,[eax+0x9f]
0000234B  0404              add al,0x4
0000234D  07                pop es
0000234E  0201              add al,[ecx]
00002350  06                push es
00002351  8900              mov [eax],eax
00002353  0000              add [eax],al
00002355  051D000000        add eax,0x1d
0000235A  0119              add [ecx],ebx
0000235C  8700              xchg eax,[eax]
0000235E  0000              add [eax],al
00002360  0105032C9804      add [0x4982c03],eax
00002366  0806              or [esi],al
00002368  4F                dec edi
00002369  0000              add [eax],al
0000236B  0000              add [eax],al
0000236D  0F0100            sgdt [eax]
00002370  0002              add [edx],al
00002372  005F00            add [edi+0x0],bl
00002375  0000              add [eax],al
00002377  0401              add al,0x1
00002379  8E00              mov es,[eax]
0000237B  0000              add [eax],al
0000237D  01C9              add ecx,ecx
0000237F  0000              add [eax],al
00002381  004300            add [ebx+0x0],al
00002384  0000              add [eax],al
00002386  7097              jo 0x231f
00002388  0408              add al,0x8
0000238A  DA9704088200      ficom dword [edi+0x820804]
00002390  0000              add [eax],al
00002392  020405696E7400    add al,[eax+0x746e69]
00002399  03AD00000002      add ebp,[ebp+0x2000000]
0000239F  D3                db 0xD3
000023A0  37                aaa
000023A1  0000              add [eax],al
000023A3  000404            add [esp+eax],al
000023A6  07                pop es
000023A7  360000            add [ss:eax],al
000023AA  000501FD0000      add [0xfd01],al
000023B0  0001              add [ecx],al
000023B2  830170            add dword [ecx],byte +0x70
000023B5  97                xchg eax,edi
000023B6  0408              add al,0x8
000023B8  7597              jnz 0x2351
000023BA  0408              add al,0x8
000023BC  0000              add [eax],al
000023BE  0000              add [eax],al
000023C0  06                push es
000023C1  01B900000001      add [ecx+0x1000000],edi
000023C7  690180970408      imul eax,[ecx],dword 0x8049780
000023CD  DA9704082C00      ficom dword [edi+0x2c0804]
000023D3  0000              add [eax],al
000023D5  B900000007        mov ecx,0x7000000
000023DA  B400              mov ah,0x0
000023DC  0000              add [eax],al
000023DE  016925            add [ecx+0x25],ebp
000023E1  0000              add [eax],al
000023E3  0002              add [edx],al
000023E5  91                xchg eax,ecx
000023E6  0007              add [edi],al
000023E8  0D01000001        or eax,0x1000001
000023ED  69B9000000029104  imul edi,[ecx+0x2000000],dword 0xa8070491
         -07A8
000023F7  0000              add [eax],al
000023F9  0001              add [ecx],al
000023FB  69B9000000029108  imul edi,[ecx+0x2000000],dword 0xe7080891
         -08E7
00002405  0000              add [eax],al
00002407  0001              add [ecx],al
00002409  7ACC              jpe 0x23d7
0000240B  0000              add [eax],al
0000240D  0009              add [ecx],cl
0000240F  99                cdq
00002410  97                xchg eax,edi
00002411  0408              add al,0x8
00002413  D29704080A69      rcl byte [edi+0x690a0804],cl
00002419  0001              add [ecx],al
0000241B  7B2C              jpo 0x2449
0000241D  0000              add [eax],al
0000241F  005800            add [eax+0x0],bl
00002422  0000              add [eax],al
00002424  0000              add [eax],al
00002426  0B04BF            or eax,[edi+edi*4]
00002429  0000              add [eax],al
0000242B  000B              add [ebx],cl
0000242D  04C5              add al,0xc5
0000242F  0000              add [eax],al
00002431  000401            add [ecx+eax],al
00002434  06                push es
00002435  8900              mov [eax],eax
00002437  0000              add [eax],al
00002439  0C2C              or al,0x2c
0000243B  0000              add [eax],al
0000243D  000DF2000000      add [0xf2],cl
00002443  DC00              fadd qword [eax]
00002445  0000              add [eax],al
00002447  0E                push cs
00002448  000F              add [edi],cl
0000244A  01F2              add edx,esi
0000244C  0000              add [eax],al
0000244E  0010              add [eax],dl
00002450  2500000010        and eax,0x10000000
00002455  B900000010        mov ecx,0x10000000
0000245A  B900000000        mov ecx,0x0
0000245F  0B04DC            or eax,[esp+ebx*8]
00002462  0000              add [eax],al
00002464  0011              add [ecx],dl
00002466  D400              aam 0x0
00002468  0000              add [eax],al
0000246A  013B              add [ebx],edi
0000246C  D100              rol dword [eax],1
0000246E  0000              add [eax],al
00002470  0101              add [ecx],eax
00002472  11EC              adc esp,ebp
00002474  0000              add [eax],al
00002476  0001              add [ecx],al
00002478  3DD1000000        cmp eax,0xd1
0000247D  0101              add [ecx],eax
0000247F  0001              add [ecx],al
00002481  1100              adc [eax],eax
00002483  1006              adc [esi],al
00002485  1101              adc [ecx],eax
00002487  1201              adc al,[ecx]
00002489  0308              add ecx,[eax]
0000248B  1B08              sbb ecx,[eax]
0000248D  2508130500        and eax,0x51308
00002492  0000              add [eax],al
00002494  0111              add [ecx],edx
00002496  01250E130B03      add [0x30b130e],esp
0000249C  0E                push cs
0000249D  1B0E              sbb ecx,[esi]
0000249F  1101              adc [ecx],eax
000024A1  1201              adc al,[ecx]
000024A3  1006              adc [esi],al
000024A5  0000              add [eax],al
000024A7  022400            add ah,[eax+eax]
000024AA  0B0B              or ecx,[ebx]
000024AC  3E0B03            or eax,[ds:ebx]
000024AF  0E                push cs
000024B0  0000              add [eax],al
000024B2  032400            add esp,[eax+eax]
000024B5  0B0B              or ecx,[ebx]
000024B7  3E0B03            or eax,[ds:ebx]
000024BA  0800              or [eax],al
000024BC  000424            add [esp],al
000024BF  000B              add [ebx],cl
000024C1  0B3E              or edi,[esi]
000024C3  0B00              or eax,[eax]
000024C5  00053400030E      add [0xe030034],al
000024CB  3A0B              cmp cl,[ebx]
000024CD  3B0B              cmp ecx,[ebx]
000024CF  49                dec ecx
000024D0  133F              adc edi,[edi]
000024D2  0C02              or al,0x2
000024D4  0A00              or al,[eax]
000024D6  0006              add [esi],al
000024D8  26004913          add [es:ecx+0x13],cl
000024DC  0000              add [eax],al
000024DE  0001              add [ecx],al
000024E0  1101              adc [ecx],eax
000024E2  250E130B03        and eax,0x30b130e
000024E7  0E                push cs
000024E8  1B0E              sbb ecx,[esi]
000024EA  1101              adc [ecx],eax
000024EC  1201              adc al,[ecx]
000024EE  1006              adc [esi],al
000024F0  0000              add [eax],al
000024F2  022400            add ah,[eax+eax]
000024F5  0B0B              or ecx,[ebx]
000024F7  3E0B03            or eax,[ds:ebx]
000024FA  0800              or [eax],al
000024FC  0003              add [ebx],al
000024FE  16                push ss
000024FF  0003              add [ebx],al
00002501  0E                push cs
00002502  3A0B              cmp cl,[ebx]
00002504  3B0B              cmp ecx,[ebx]
00002506  49                dec ecx
00002507  1300              adc eax,[eax]
00002509  000424            add [esp],al
0000250C  000B              add [ebx],cl
0000250E  0B3E              or edi,[esi]
00002510  0B03              or eax,[ebx]
00002512  0E                push cs
00002513  0000              add [eax],al
00002515  052E003F0C        add eax,0xc3f002e
0000251A  030E              add ecx,[esi]
0000251C  3A0B              cmp cl,[ebx]
0000251E  3B0B              cmp ecx,[ebx]
00002520  27                daa
00002521  0C11              or al,0x11
00002523  0112              add [edx],edx
00002525  014006            add [eax+0x6],eax
00002528  0000              add [eax],al
0000252A  06                push es
0000252B  2E013F            add [cs:edi],edi
0000252E  0C03              or al,0x3
00002530  0E                push cs
00002531  3A0B              cmp cl,[ebx]
00002533  3B0B              cmp ecx,[ebx]
00002535  27                daa
00002536  0C11              or al,0x11
00002538  0112              add [edx],edx
0000253A  014006            add [eax+0x6],eax
0000253D  0113              add [ebx],edx
0000253F  0000              add [eax],al
00002541  07                pop es
00002542  0500030E3A        add eax,0x3a0e0300
00002547  0B3B              or edi,[ebx]
00002549  0B4913            or ecx,[ecx+0x13]
0000254C  020A              add cl,[edx]
0000254E  0000              add [eax],al
00002550  083400            or [eax+eax],dh
00002553  030E              add ecx,[esi]
00002555  3A0B              cmp cl,[ebx]
00002557  3B0B              cmp ecx,[ebx]
00002559  49                dec ecx
0000255A  1300              adc eax,[eax]
0000255C  0009              add [ecx],cl
0000255E  0B01              or eax,[ecx]
00002560  1101              adc [ecx],eax
00002562  1201              adc al,[ecx]
00002564  0000              add [eax],al
00002566  0A3400            or dh,[eax+eax]
00002569  0308              add ecx,[eax]
0000256B  3A0B              cmp cl,[ebx]
0000256D  3B0B              cmp ecx,[ebx]
0000256F  49                dec ecx
00002570  1302              adc eax,[edx]
00002572  06                push es
00002573  0000              add [eax],al
00002575  0B0F              or ecx,[edi]
00002577  000B              add [ebx],cl
00002579  0B4913            or ecx,[ecx+0x13]
0000257C  0000              add [eax],al
0000257E  0C26              or al,0x26
00002580  004913            add [ecx+0x13],cl
00002583  0000              add [eax],al
00002585  0D01014913        or eax,0x13490101
0000258A  0113              add [ebx],edx
0000258C  0000              add [eax],al
0000258E  0E                push cs
0000258F  2100              and [eax],eax
00002591  0000              add [eax],al
00002593  0F1501            unpckhps xmm0,[ecx]
00002596  27                daa
00002597  0C01              or al,0x1
00002599  1300              adc eax,[eax]
0000259B  0010              add [eax],dl
0000259D  0500491300        add eax,0x134900
000025A2  0011              add [ecx],dl
000025A4  3400              xor al,0x0
000025A6  030E              add ecx,[esi]
000025A8  3A0B              cmp cl,[ebx]
000025AA  3B0B              cmp ecx,[ebx]
000025AC  49                dec ecx
000025AD  133F              adc edi,[edi]
000025AF  0C3C              or al,0x3c
000025B1  0C00              or al,0x0
000025B3  0000              add [eax],al
000025B5  57                push edi
000025B6  0000              add [eax],al
000025B8  0002              add [edx],al
000025BA  0032              add [edx],dh
000025BC  0000              add [eax],al
000025BE  0001              add [ecx],al
000025C0  01FB              add ebx,edi
000025C2  0E                push cs
000025C3  0D00010101        or eax,0x1010100
000025C8  0100              add [eax],eax
000025CA  0000              add [eax],al
000025CC  0100              add [eax],eax
000025CE  0001              add [ecx],al
000025D0  2E2E2F            cs das
000025D3  7379              jnc 0x264e
000025D5  7364              jnc 0x263b
000025D7  657073            gs jo 0x264d
000025DA  2F                das
000025DB  693338362F65      imul esi,[ebx],dword 0x652f3638
000025E1  6C                insb
000025E2  660000            o16 add [eax],al
000025E5  7374              jnc 0x265b
000025E7  61                popa
000025E8  7274              jc 0x265e
000025EA  2E53              cs push ebx
000025EC  0001              add [ecx],al
000025EE  0000              add [eax],al
000025F0  0000              add [eax],al
000025F2  0502308A04        add eax,0x48a3002
000025F7  0803              or [ebx],al
000025F9  C00001            rol byte [eax],0x1
000025FC  3321              xor esp,[ecx]
000025FE  343D              xor al,0x3d
00002600  2522031820        and eax,0x20180322
00002605  59                pop ecx
00002606  5A                pop edx
00002607  2122              and [edx],esp
00002609  5C                pop esp
0000260A  5B                pop ebx
0000260B  0201              add al,[ecx]
0000260D  0001              add [ecx],al
0000260F  0123              add [ebx],esp
00002611  0000              add [eax],al
00002613  0002              add [edx],al
00002615  001D00000001      add [0x1000000],bl
0000261B  01FB              add ebx,edi
0000261D  0E                push cs
0000261E  0D00010101        or eax,0x1010100
00002623  0100              add [eax],eax
00002625  0000              add [eax],al
00002627  0100              add [eax],eax
00002629  0001              add [ecx],al
0000262B  00696E            add [ecx+0x6e],ch
0000262E  69742E6300000000  imul esi,[esi+ebp+0x63],dword 0x0
00002636  007B00            add [ebx+0x0],bh
00002639  0000              add [eax],al
0000263B  0200              add al,[eax]
0000263D  57                push edi
0000263E  0000              add [eax],al
00002640  0001              add [ecx],al
00002642  01FB              add ebx,edi
00002644  0E                push cs
00002645  0D00010101        or eax,0x1010100
0000264A  0100              add [eax],eax
0000264C  0000              add [eax],al
0000264E  0100              add [eax],eax
00002650  0001              add [ecx],al
00002652  2F                das
00002653  7573              jnz 0x26c8
00002655  722F              jc 0x2686
00002657  6C                insb
00002658  69622F6763632F    imul esp,[edx+0x2f],dword 0x2f636367
0000265F  693438362D6C69    imul esi,[eax+edi],dword 0x696c2d36
00002666  6E                outsb
00002667  7578              jnz 0x26e1
00002669  2D676E752F        sub eax,0x2f756e67
0000266E  342E              xor al,0x2e
00002670  342E              xor al,0x2e
00002672  332F              xor ebp,[edi]
00002674  696E636C756465    imul ebp,[esi+0x63],dword 0x6564756c
0000267B  0000              add [eax],al
0000267D  656C              gs insb
0000267F  662D696E          sub ax,0x6e69
00002683  69742E6300000000  imul esi,[esi+ebp+0x63],dword 0x0
0000268B  7374              jnc 0x2701
0000268D  646465662E680001  cs push word 0x100
00002695  0000              add [eax],al
00002697  0000              add [eax],al
00002699  0502709704        add eax,0x4977002
0000269E  0803              or [ebx],al
000026A0  830101            add dword [ecx],byte +0x1
000026A3  44                inc esp
000026A4  035EC8            add ebx,[esi-0x38]
000026A7  030E              add ecx,[esi]
000026A9  083C5B            or [ebx+ebx*2],bh
000026AC  086708            or [edi+0x8],ah
000026AF  9D                popf
000026B0  7602              jna 0x26b4
000026B2  0800              or [eax],al
000026B4  0101              add [ecx],eax
000026B6  0000              add [eax],al
000026B8  1000              adc [eax],al
000026BA  0000              add [eax],al
000026BC  FF                db 0xFF
000026BD  FF                db 0xFF
000026BE  FF                db 0xFF
000026BF  FF01              inc dword [ecx]
000026C1  0001              add [ecx],al
000026C3  7C08              jl 0x26cd
000026C5  0C04              or al,0x4
000026C7  0488              add al,0x88
000026C9  0100              add [eax],eax
000026CB  001400            add [eax+eax],dl
000026CE  0000              add [eax],al
000026D0  0000              add [eax],al
000026D2  0000              add [eax],al
000026D4  7097              jo 0x266d
000026D6  0408              add al,0x8
000026D8  0500000041        add eax,0x41000000
000026DD  0E                push cs
000026DE  084285            or [edx-0x7b],al
000026E1  020D051C0000      add cl,[0x1c05]
000026E7  0000              add [eax],al
000026E9  0000              add [eax],al
000026EB  00809704085A      add [eax+0x5a080497],al
000026F1  0000              add [eax],al
000026F3  00410E            add [ecx+0xe],al
000026F6  084285            or [edx-0x7b],al
000026F9  020D054E8305      add cl,[0x5834e05]
000026FF  860487            xchg al,[edi+eax*4]
00002702  0300              add eax,[eax]
00002704  7368              jnc 0x276e
00002706  6F                outsd
00002707  7274              jc 0x277d
00002709  20756E            and [ebp+0x6e],dh
0000270C  7369              jnc 0x2777
0000270E  676E              a16 outsb
00002710  656420696E        and [fs:ecx+0x6e],ch
00002715  7400              jz 0x2717
00002717  7368              jnc 0x2781
00002719  6F                outsd
0000271A  7274              jc 0x2790
0000271C  20696E            and [ecx+0x6e],ch
0000271F  7400              jz 0x2721
00002721  5F                pop edi
00002722  49                dec ecx
00002723  4F                dec edi
00002724  5F                pop edi
00002725  7374              jnc 0x279b
00002727  64696E5F75736564  imul ebp,[fs:esi+0x5f],dword 0x64657375
0000272F  006C6F6E          add [edi+ebp*2+0x6e],ch
00002733  67206C6F          and [si+0x6f],ch
00002737  6E                outsb
00002738  6720756E          and [di+0x6e],dh
0000273C  7369              jnc 0x27a7
0000273E  676E              a16 outsb
00002740  656420696E        and [fs:ecx+0x6e],ch
00002745  7400              jz 0x2747
00002747  2F                das
00002748  686F6D652F        push dword 0x2f656d6f
0000274D  7069              jo 0x27b8
0000274F  657272            gs jc 0x27c4
00002752  652F              gs das
00002754  42                inc edx
00002755  7572              jnz 0x27c9
00002757  6561              gs popa
00002759  752F              jnz 0x278a
0000275B  6865616465        push dword 0x65646165
00002760  7273              jc 0x27d5
00002762  2D676C6962        sub eax,0x62696c67
00002767  632D666F722D      arpl [0x2d726f66],bp
0000276D  6C                insb
0000276E  696E75782F676C    imul ebp,[esi+0x75],dword 0x6c672f78
00002775  6962632D322E31    imul esp,[edx+0x63],dword 0x312e322d
0000277C  322E              xor ch,[esi]
0000277E  322F              xor ch,[edi]
00002780  637375            arpl [ebx+0x75],si
00002783  00756E            add [ebp+0x6e],dh
00002786  7369              jnc 0x27f1
00002788  676E              a16 outsb
0000278A  6564206368        and [fs:ebx+0x68],ah
0000278F  61                popa
00002790  7200              jc 0x2792
00002792  47                inc edi
00002793  4E                dec esi
00002794  55                push ebp
00002795  204320            and [ebx+0x20],al
00002798  342E              xor al,0x2e
0000279A  342E              xor al,0x2e
0000279C  3300              xor eax,[eax]
0000279E  6C                insb
0000279F  6F                outsd
000027A0  6E                outsb
000027A1  67206C6F          and [si+0x6f],ch
000027A5  6E                outsb
000027A6  6720696E          and [bx+di+0x6e],ch
000027AA  7400              jz 0x27ac
000027AC  656E              gs outsb
000027AE  7670              jna 0x2820
000027B0  007369            add [ebx+0x69],dh
000027B3  7A65              jpe 0x281a
000027B5  5F                pop edi
000027B6  7400              jz 0x27b8
000027B8  61                popa
000027B9  7267              jc 0x2822
000027BB  6300              arpl [eax],ax
000027BD  5F                pop edi
000027BE  5F                pop edi
000027BF  6C                insb
000027C0  6962635F637375    imul esp,[edx+0x63],dword 0x7573635f
000027C7  5F                pop edi
000027C8  696E697400656C    imul ebp,[esi+0x69],dword 0x6c650074
000027CF  662D696E          sub ax,0x6e69
000027D3  69742E63005F5F69  imul esi,[esi+ebp+0x63],dword 0x695f5f00
000027DB  6E                outsb
000027DC  69745F6172726179  imul esi,[edi+ebx*2+0x61],dword 0x79617272
000027E4  5F                pop edi
000027E5  7374              jnc 0x285b
000027E7  61                popa
000027E8  7274              jc 0x285e
000027EA  007369            add [ebx+0x69],dh
000027ED  7A65              jpe 0x2854
000027EF  005F5F            add [edi+0x5f],bl
000027F2  696E69745F6172    imul ebp,[esi+0x69],dword 0x72615f74
000027F9  7261              jc 0x285c
000027FB  795F              jns 0x285c
000027FD  656E              gs outsb
000027FF  64005F5F          add [fs:edi+0x5f],bl
00002803  6C                insb
00002804  6962635F637375    imul esp,[edx+0x63],dword 0x7573635f
0000280B  5F                pop edi
0000280C  66696E690061      imul bp,[esi+0x69],word 0x6100
00002812  7267              jc 0x287b
00002814  7600              jna 0x2816
00002816  0000              add [eax],al
00002818  0000              add [eax],al
0000281A  0100              add [eax],eax
0000281C  0000              add [eax],al
0000281E  0200              add al,[eax]
00002820  7404              jz 0x2826
00002822  0100              add [eax],eax
00002824  0000              add [eax],al
00002826  0300              add eax,[eax]
00002828  0000              add [eax],al
0000282A  0200              add al,[eax]
0000282C  7408              jz 0x2836
0000282E  0300              add eax,[eax]
00002830  0000              add [eax],al
00002832  0500000002        add eax,0x2000000
00002837  007508            add [ebp+0x8],dh
0000283A  0000              add [eax],al
0000283C  0000              add [eax],al
0000283E  0000              add [eax],al
00002840  0000              add [eax],al
00002842  1000              adc [eax],al
00002844  0000              add [eax],al
00002846  1100              adc [eax],eax
00002848  0000              add [eax],al
0000284A  0200              add al,[eax]
0000284C  7404              jz 0x2852
0000284E  1100              adc [eax],eax
00002850  0000              add [eax],al
00002852  1300              adc eax,[eax]
00002854  0000              add [eax],al
00002856  0200              add al,[eax]
00002858  7408              jz 0x2862
0000285A  1300              adc eax,[eax]
0000285C  0000              add [eax],al
0000285E  6A00              push byte +0x0
00002860  0000              add [eax],al
00002862  0200              add al,[eax]
00002864  7508              jnz 0x286e
00002866  0000              add [eax],al
00002868  0000              add [eax],al
0000286A  0000              add [eax],al
0000286C  0000              add [eax],al
0000286E  40                inc eax
0000286F  0000              add [eax],al
00002871  006700            add [edi+0x0],ah
00002874  0000              add [eax],al
00002876  0100              add [eax],eax
00002878  56                push esi
00002879  0000              add [eax],al
0000287B  0000              add [eax],al
0000287D  0000              add [eax],al
0000287F  0000              add [eax],al
00002881  002E              add [esi],ch
00002883  7379              jnc 0x28fe
00002885  6D                insd
00002886  7461              jz 0x28e9
00002888  6200              bound eax,[eax]
0000288A  2E7374            cs jnc 0x2901
0000288D  7274              jc 0x2903
0000288F  61                popa
00002890  6200              bound eax,[eax]
00002892  2E7368            cs jnc 0x28fd
00002895  7374              jnc 0x290b
00002897  7274              jc 0x290d
00002899  61                popa
0000289A  6200              bound eax,[eax]
0000289C  2E696E7465727000  imul ebp,[cs:esi+0x74],dword 0x707265
000028A4  2E6E              cs outsb
000028A6  6F                outsd
000028A7  7465              jz 0x290e
000028A9  2E41              cs inc ecx
000028AB  42                inc edx
000028AC  49                dec ecx
000028AD  2D74616700        sub eax,0x676174
000028B2  2E6861736800      cs push dword 0x687361
000028B8  2E64796E          fs jns 0x292a
000028BC  7379              jnc 0x2937
000028BE  6D                insd
000028BF  002E              add [esi],ch
000028C1  64796E            fs jns 0x2932
000028C4  7374              jnc 0x293a
000028C6  7200              jc 0x28c8
000028C8  2E676E            cs a16 outsb
000028CB  752E              jnz 0x28fb
000028CD  7665              jna 0x2934
000028CF  7273              jc 0x2944
000028D1  696F6E002E676E    imul ebp,[edi+0x6e],dword 0x6e672e00
000028D8  752E              jnz 0x2908
000028DA  7665              jna 0x2941
000028DC  7273              jc 0x2951
000028DE  696F6E5F72002E    imul ebp,[edi+0x6e],dword 0x2e00725f
000028E5  7265              jc 0x294c
000028E7  6C                insb
000028E8  2E64796E          fs jns 0x295a
000028EC  002E              add [esi],ch
000028EE  7265              jc 0x2955
000028F0  6C                insb
000028F1  2E706C            cs jo 0x2960
000028F4  7400              jz 0x28f6
000028F6  2E696E6974002E74  imul ebp,[cs:esi+0x69],dword 0x742e0074
000028FE  657874            gs js 0x2975
00002901  002E              add [esi],ch
00002903  66696E69002E      imul bp,[esi+0x69],word 0x2e00
00002909  726F              jc 0x297a
0000290B  6461              fs popa
0000290D  7461              jz 0x2970
0000290F  002E              add [esi],ch
00002911  65685F667261      gs push dword 0x6172665f
00002917  6D                insd
00002918  655F              gs pop edi
0000291A  686472002E        push dword 0x2e007264
0000291F  65685F667261      gs push dword 0x6172665f
00002925  6D                insd
00002926  65002E            add [gs:esi],ch
00002929  6763635F          arpl [bp+di+0x5f],sp
0000292D  657863            gs js 0x2993
00002930  657074            gs jo 0x29a7
00002933  5F                pop edi
00002934  7461              jz 0x2997
00002936  626C6500          bound ebp,[ebp+0x0]
0000293A  2E63746F72        arpl [cs:edi+ebp*2+0x72],si
0000293F  7300              jnc 0x2941
00002941  2E64746F          fs jz 0x29b4
00002945  7273              jc 0x29ba
00002947  002E              add [esi],ch
00002949  6A63              push byte +0x63
0000294B  7200              jc 0x294d
0000294D  2E64796E          fs jns 0x29bf
00002951  61                popa
00002952  6D                insd
00002953  6963002E676F74    imul esp,[ebx+0x0],dword 0x746f672e
0000295A  002E              add [esi],ch
0000295C  676F              a16 outsd
0000295E  742E              jz 0x298e
00002960  706C              jo 0x29ce
00002962  7400              jz 0x2964
00002964  2E6461            fs popa
00002967  7461              jz 0x29ca
00002969  002E              add [esi],ch
0000296B  627373            bound esi,[ebx+0x73]
0000296E  002E              add [esi],ch
00002970  636F6D            arpl [edi+0x6d],bp
00002973  6D                insd
00002974  656E              gs outsb
00002976  7400              jz 0x2978
00002978  2E6465627567      bound esi,[gs:ebp+0x67]
0000297E  5F                pop edi
0000297F  61                popa
00002980  7261              jc 0x29e3
00002982  6E                outsb
00002983  67657300          gs a16 jnc 0x2987
00002987  2E6465627567      bound esi,[gs:ebp+0x67]
0000298D  5F                pop edi
0000298E  7075              jo 0x2a05
00002990  626E61            bound ebp,[esi+0x61]
00002993  6D                insd
00002994  657300            gs jnc 0x2997
00002997  2E6465627567      bound esi,[gs:ebp+0x67]
0000299D  5F                pop edi
0000299E  696E666F002E64    imul ebp,[esi+0x66],dword 0x642e006f
000029A5  65627567          bound esi,[gs:ebp+0x67]
000029A9  5F                pop edi
000029AA  61                popa
000029AB  626272            bound esp,[edx+0x72]
000029AE  657600            gs jna 0x29b1
000029B1  2E6465627567      bound esi,[gs:ebp+0x67]
000029B7  5F                pop edi
000029B8  6C                insb
000029B9  696E65002E6465    imul ebp,[esi+0x65],dword 0x65642e00
000029C0  627567            bound esi,[ebp+0x67]
000029C3  5F                pop edi
000029C4  667261            o16 jc 0x2a28
000029C7  6D                insd
000029C8  65002E            add [gs:esi],ch
000029CB  6465627567        bound esi,[gs:ebp+0x67]
000029D0  5F                pop edi
000029D1  7374              jnc 0x2a47
000029D3  7200              jc 0x29d5
000029D5  2E6465627567      bound esi,[gs:ebp+0x67]
000029DB  5F                pop edi
000029DC  6C                insb
000029DD  6F                outsd
000029DE  6300              arpl [eax],ax
000029E0  0000              add [eax],al
000029E2  0000              add [eax],al
000029E4  0000              add [eax],al
000029E6  0000              add [eax],al
000029E8  0000              add [eax],al
000029EA  0000              add [eax],al
000029EC  0000              add [eax],al
000029EE  0000              add [eax],al
000029F0  0000              add [eax],al
000029F2  0000              add [eax],al
000029F4  0000              add [eax],al
000029F6  0000              add [eax],al
000029F8  0000              add [eax],al
000029FA  0000              add [eax],al
000029FC  0000              add [eax],al
000029FE  0000              add [eax],al
00002A00  0000              add [eax],al
00002A02  0000              add [eax],al
00002A04  0000              add [eax],al
00002A06  0000              add [eax],al
00002A08  1B00              sbb eax,[eax]
00002A0A  0000              add [eax],al
00002A0C  0100              add [eax],eax
00002A0E  0000              add [eax],al
00002A10  0200              add al,[eax]
00002A12  0000              add [eax],al
00002A14  3481              xor al,0x81
00002A16  0408              add al,0x8
00002A18  3401              xor al,0x1
00002A1A  0000              add [eax],al
00002A1C  1300              adc eax,[eax]
00002A1E  0000              add [eax],al
00002A20  0000              add [eax],al
00002A22  0000              add [eax],al
00002A24  0000              add [eax],al
00002A26  0000              add [eax],al
00002A28  0100              add [eax],eax
00002A2A  0000              add [eax],al
00002A2C  0000              add [eax],al
00002A2E  0000              add [eax],al
00002A30  2300              and eax,[eax]
00002A32  0000              add [eax],al
00002A34  07                pop es
00002A35  0000              add [eax],al
00002A37  0002              add [edx],al
00002A39  0000              add [eax],al
00002A3B  004881            add [eax-0x7f],cl
00002A3E  0408              add al,0x8
00002A40  48                dec eax
00002A41  0100              add [eax],eax
00002A43  0020              add [eax],ah
00002A45  0000              add [eax],al
00002A47  0000              add [eax],al
00002A49  0000              add [eax],al
00002A4B  0000              add [eax],al
00002A4D  0000              add [eax],al
00002A4F  000400            add [eax+eax],al
00002A52  0000              add [eax],al
00002A54  0000              add [eax],al
00002A56  0000              add [eax],al
00002A58  3100              xor [eax],eax
00002A5A  0000              add [eax],al
00002A5C  0500000002        add eax,0x2000000
00002A61  0000              add [eax],al
00002A63  006881            add [eax-0x7f],ch
00002A66  0408              add al,0x8
00002A68  68010000B8        push dword 0xb8000001
00002A6D  0000              add [eax],al
00002A6F  000400            add [eax+eax],al
00002A72  0000              add [eax],al
00002A74  0000              add [eax],al
00002A76  0000              add [eax],al
00002A78  0400              add al,0x0
00002A7A  0000              add [eax],al
00002A7C  0400              add al,0x0
00002A7E  0000              add [eax],al
00002A80  37                aaa
00002A81  0000              add [eax],al
00002A83  000B              add [ebx],cl
00002A85  0000              add [eax],al
00002A87  0002              add [edx],al
00002A89  0000              add [eax],al
00002A8B  0020              add [eax],ah
00002A8D  82                db 0x82
00002A8E  0408              add al,0x8
00002A90  2002              and [edx],al
00002A92  0000              add [eax],al
00002A94  B001              mov al,0x1
00002A96  0000              add [eax],al
00002A98  0500000001        add eax,0x1000000
00002A9D  0000              add [eax],al
00002A9F  000400            add [eax+eax],al
00002AA2  0000              add [eax],al
00002AA4  1000              adc [eax],al
00002AA6  0000              add [eax],al
00002AA8  3F                aas
00002AA9  0000              add [eax],al
00002AAB  0003              add [ebx],al
00002AAD  0000              add [eax],al
00002AAF  0002              add [edx],al
00002AB1  0000              add [eax],al
00002AB3  00D0              add al,dl
00002AB5  830408D0          add dword [eax+ecx],byte -0x30
00002AB9  0300              add eax,[eax]
00002ABB  003A              add [edx],bh
00002ABD  0300              add eax,[eax]
00002ABF  0000              add [eax],al
00002AC1  0000              add [eax],al
00002AC3  0000              add [eax],al
00002AC5  0000              add [eax],al
00002AC7  0001              add [ecx],al
00002AC9  0000              add [eax],al
00002ACB  0000              add [eax],al
00002ACD  0000              add [eax],al
00002ACF  004700            add [edi+0x0],al
00002AD2  0000              add [eax],al
00002AD4  FF                db 0xFF
00002AD5  FF                db 0xFF
00002AD6  FF6F02            jmp far [edi+0x2]
00002AD9  0000              add [eax],al
00002ADB  000A              add [edx],cl
00002ADD  870408            xchg eax,[eax+ecx]
00002AE0  0A07              or al,[edi]
00002AE2  0000              add [eax],al
00002AE4  360000            add [ss:eax],al
00002AE7  000400            add [eax+eax],al
00002AEA  0000              add [eax],al
00002AEC  0000              add [eax],al
00002AEE  0000              add [eax],al
00002AF0  0200              add al,[eax]
00002AF2  0000              add [eax],al
00002AF4  0200              add al,[eax]
00002AF6  0000              add [eax],al
00002AF8  54                push esp
00002AF9  0000              add [eax],al
00002AFB  00FE              add dh,bh
00002AFD  FF                db 0xFF
00002AFE  FF6F02            jmp far [edi+0x2]
00002B01  0000              add [eax],al
00002B03  004087            add [eax-0x79],al
00002B06  0408              add al,0x8
00002B08  40                inc eax
00002B09  07                pop es
00002B0A  0000              add [eax],al
00002B0C  90                nop
00002B0D  0000              add [eax],al
00002B0F  000500000004      add [0x4000000],al
00002B15  0000              add [eax],al
00002B17  000400            add [eax+eax],al
00002B1A  0000              add [eax],al
00002B1C  0000              add [eax],al
00002B1E  0000              add [eax],al
00002B20  6300              arpl [eax],ax
00002B22  0000              add [eax],al
00002B24  0900              or [eax],eax
00002B26  0000              add [eax],al
00002B28  0200              add al,[eax]
00002B2A  0000              add [eax],al
00002B2C  D0870408D007      rol byte [edi+0x7d00804],1
00002B32  0000              add [eax],al
00002B34  0800              or [eax],al
00002B36  0000              add [eax],al
00002B38  0400              add al,0x0
00002B3A  0000              add [eax],al
00002B3C  0000              add [eax],al
00002B3E  0000              add [eax],al
00002B40  0400              add al,0x0
00002B42  0000              add [eax],al
00002B44  0800              or [eax],al
00002B46  0000              add [eax],al
00002B48  6C                insb
00002B49  0000              add [eax],al
00002B4B  0009              add [ecx],cl
00002B4D  0000              add [eax],al
00002B4F  0002              add [edx],al
00002B51  0000              add [eax],al
00002B53  00D8              add al,bl
00002B55  870408            xchg eax,[eax+ecx]
00002B58  D807              fadd dword [edi]
00002B5A  0000              add [eax],al
00002B5C  B000              mov al,0x0
00002B5E  0000              add [eax],al
00002B60  0400              add al,0x0
00002B62  0000              add [eax],al
00002B64  0B00              or eax,[eax]
00002B66  0000              add [eax],al
00002B68  0400              add al,0x0
00002B6A  0000              add [eax],al
00002B6C  0800              or [eax],al
00002B6E  0000              add [eax],al
00002B70  7500              jnz 0x2b72
00002B72  0000              add [eax],al
00002B74  0100              add [eax],eax
00002B76  0000              add [eax],al
00002B78  06                push es
00002B79  0000              add [eax],al
00002B7B  008888040888      add [eax+0x88080488],cl
00002B81  0800              or [eax],al
00002B83  0030              add [eax],dh
00002B85  0000              add [eax],al
00002B87  0000              add [eax],al
00002B89  0000              add [eax],al
00002B8B  0000              add [eax],al
00002B8D  0000              add [eax],al
00002B8F  000400            add [eax+eax],al
00002B92  0000              add [eax],al
00002B94  0000              add [eax],al
00002B96  0000              add [eax],al
00002B98  7000              jo 0x2b9a
00002B9A  0000              add [eax],al
00002B9C  0100              add [eax],eax
00002B9E  0000              add [eax],al
00002BA0  06                push es
00002BA1  0000              add [eax],al
00002BA3  00C0              add al,al
00002BA5  880408            mov [eax+ecx],al
00002BA8  C00800            ror byte [eax],0x0
00002BAB  007001            add [eax+0x1],dh
00002BAE  0000              add [eax],al
00002BB0  0000              add [eax],al
00002BB2  0000              add [eax],al
00002BB4  0000              add [eax],al
00002BB6  0000              add [eax],al
00002BB8  1000              adc [eax],al
00002BBA  0000              add [eax],al
00002BBC  0400              add al,0x0
00002BBE  0000              add [eax],al
00002BC0  7B00              jpo 0x2bc2
00002BC2  0000              add [eax],al
00002BC4  0100              add [eax],eax
00002BC6  0000              add [eax],al
00002BC8  06                push es
00002BC9  0000              add [eax],al
00002BCB  0030              add [eax],dh
00002BCD  8A0408            mov al,[eax+ecx]
00002BD0  300A              xor [edx],cl
00002BD2  0000              add [eax],al
00002BD4  D80D00000000      fmul dword [0x0]
00002BDA  0000              add [eax],al
00002BDC  0000              add [eax],al
00002BDE  0000              add [eax],al
00002BE0  1000              adc [eax],al
00002BE2  0000              add [eax],al
00002BE4  0000              add [eax],al
00002BE6  0000              add [eax],al
00002BE8  810000000100      add dword [eax],0x10000
00002BEE  0000              add [eax],al
00002BF0  06                push es
00002BF1  0000              add [eax],al
00002BF3  0008              add [eax],cl
00002BF5  98                cwde
00002BF6  0408              add al,0x8
00002BF8  0818              or [eax],bl
00002BFA  0000              add [eax],al
00002BFC  1C00              sbb al,0x0
00002BFE  0000              add [eax],al
00002C00  0000              add [eax],al
00002C02  0000              add [eax],al
00002C04  0000              add [eax],al
00002C06  0000              add [eax],al
00002C08  0400              add al,0x0
00002C0A  0000              add [eax],al
00002C0C  0000              add [eax],al
00002C0E  0000              add [eax],al
00002C10  8700              xchg eax,[eax]
00002C12  0000              add [eax],al
00002C14  0100              add [eax],eax
00002C16  0000              add [eax],al
00002C18  0200              add al,[eax]
00002C1A  0000              add [eax],al
00002C1C  289804082818      sub [eax+0x18280804],bl
00002C22  0000              add [eax],al
00002C24  3000              xor [eax],al
00002C26  0000              add [eax],al
00002C28  0000              add [eax],al
00002C2A  0000              add [eax],al
00002C2C  0000              add [eax],al
00002C2E  0000              add [eax],al
00002C30  0800              or [eax],al
00002C32  0000              add [eax],al
00002C34  0000              add [eax],al
00002C36  0000              add [eax],al
00002C38  8F00              pop dword [eax]
00002C3A  0000              add [eax],al
00002C3C  0100              add [eax],eax
00002C3E  0000              add [eax],al
00002C40  0200              add al,[eax]
00002C42  0000              add [eax],al
00002C44  58                pop eax
00002C45  98                cwde
00002C46  0408              add al,0x8
00002C48  58                pop eax
00002C49  1800              sbb [eax],al
00002C4B  00640100          add [ecx+eax+0x0],ah
00002C4F  0000              add [eax],al
00002C51  0000              add [eax],al
00002C53  0000              add [eax],al
00002C55  0000              add [eax],al
00002C57  000400            add [eax+eax],al
00002C5A  0000              add [eax],al
00002C5C  0000              add [eax],al
00002C5E  0000              add [eax],al
00002C60  9D                popf
00002C61  0000              add [eax],al
00002C63  0001              add [ecx],al
00002C65  0000              add [eax],al
00002C67  0002              add [edx],al
00002C69  0000              add [eax],al
00002C6B  00BC990408BC19    add [ecx+ebx*4+0x19bc0804],bh
00002C72  0000              add [eax],al
00002C74  E005              loopne 0x2c7b
00002C76  0000              add [eax],al
00002C78  0000              add [eax],al
00002C7A  0000              add [eax],al
00002C7C  0000              add [eax],al
00002C7E  0000              add [eax],al
00002C80  0400              add al,0x0
00002C82  0000              add [eax],al
00002C84  0000              add [eax],al
00002C86  0000              add [eax],al
00002C88  A7                cmpsd
00002C89  0000              add [eax],al
00002C8B  0001              add [ecx],al
00002C8D  0000              add [eax],al
00002C8F  0002              add [edx],al
00002C91  0000              add [eax],al
00002C93  009C9F04089C1F    add [edi+ebx*4+0x1f9c0804],bl
00002C9A  0000              add [eax],al
00002C9C  8800              mov [eax],al
00002C9E  0000              add [eax],al
00002CA0  0000              add [eax],al
00002CA2  0000              add [eax],al
00002CA4  0000              add [eax],al
00002CA6  0000              add [eax],al
00002CA8  0100              add [eax],eax
00002CAA  0000              add [eax],al
00002CAC  0000              add [eax],al
00002CAE  0000              add [eax],al
00002CB0  B900000001        mov ecx,0x1000000
00002CB5  0000              add [eax],al
00002CB7  0003              add [ebx],al
00002CB9  0000              add [eax],al
00002CBB  0024B0            add [eax+esi*4],ah
00002CBE  0408              add al,0x8
00002CC0  2420              and al,0x20
00002CC2  0000              add [eax],al
00002CC4  0800              or [eax],al
00002CC6  0000              add [eax],al
00002CC8  0000              add [eax],al
00002CCA  0000              add [eax],al
00002CCC  0000              add [eax],al
00002CCE  0000              add [eax],al
00002CD0  0400              add al,0x0
00002CD2  0000              add [eax],al
00002CD4  0000              add [eax],al
00002CD6  0000              add [eax],al
00002CD8  C00000            rol byte [eax],0x0
00002CDB  0001              add [ecx],al
00002CDD  0000              add [eax],al
00002CDF  0003              add [ebx],al
00002CE1  0000              add [eax],al
00002CE3  002CB0            add [eax+esi*4],ch
00002CE6  0408              add al,0x8
00002CE8  2C20              sub al,0x20
00002CEA  0000              add [eax],al
00002CEC  0800              or [eax],al
00002CEE  0000              add [eax],al
00002CF0  0000              add [eax],al
00002CF2  0000              add [eax],al
00002CF4  0000              add [eax],al
00002CF6  0000              add [eax],al
00002CF8  0400              add al,0x0
00002CFA  0000              add [eax],al
00002CFC  0000              add [eax],al
00002CFE  0000              add [eax],al
00002D00  C70000000100      mov dword [eax],0x10000
00002D06  0000              add [eax],al
00002D08  0300              add eax,[eax]
00002D0A  0000              add [eax],al
00002D0C  34B0              xor al,0xb0
00002D0E  0408              add al,0x8
00002D10  3420              xor al,0x20
00002D12  0000              add [eax],al
00002D14  0400              add al,0x0
00002D16  0000              add [eax],al
00002D18  0000              add [eax],al
00002D1A  0000              add [eax],al
00002D1C  0000              add [eax],al
00002D1E  0000              add [eax],al
00002D20  0400              add al,0x0
00002D22  0000              add [eax],al
00002D24  0000              add [eax],al
00002D26  0000              add [eax],al
00002D28  CC                int3
00002D29  0000              add [eax],al
00002D2B  0006              add [esi],al
00002D2D  0000              add [eax],al
00002D2F  0003              add [ebx],al
00002D31  0000              add [eax],al
00002D33  0038              add [eax],bh
00002D35  B004              mov al,0x4
00002D37  0838              or [eax],bh
00002D39  2000              and [eax],al
00002D3B  00E0              add al,ah
00002D3D  0000              add [eax],al
00002D3F  000500000000      add [0x0],al
00002D45  0000              add [eax],al
00002D47  000400            add [eax+eax],al
00002D4A  0000              add [eax],al
00002D4C  0800              or [eax],al
00002D4E  0000              add [eax],al
00002D50  D500              aad 0x0
00002D52  0000              add [eax],al
00002D54  0100              add [eax],eax
00002D56  0000              add [eax],al
00002D58  0300              add eax,[eax]
00002D5A  0000              add [eax],al
00002D5C  18B104081821      sbb [ecx+0x21180804],dh
00002D62  0000              add [eax],al
00002D64  0400              add al,0x0
00002D66  0000              add [eax],al
00002D68  0000              add [eax],al
00002D6A  0000              add [eax],al
00002D6C  0000              add [eax],al
00002D6E  0000              add [eax],al
00002D70  0400              add al,0x0
00002D72  0000              add [eax],al
00002D74  0400              add al,0x0
00002D76  0000              add [eax],al
00002D78  DA00              fiadd dword [eax]
00002D7A  0000              add [eax],al
00002D7C  0100              add [eax],eax
00002D7E  0000              add [eax],al
00002D80  0300              add eax,[eax]
00002D82  0000              add [eax],al
00002D84  1CB1              sbb al,0xb1
00002D86  0408              add al,0x8
00002D88  1C21              sbb al,0x21
00002D8A  0000              add [eax],al
00002D8C  640000            add [fs:eax],al
00002D8F  0000              add [eax],al
00002D91  0000              add [eax],al
00002D93  0000              add [eax],al
00002D95  0000              add [eax],al
00002D97  000400            add [eax+eax],al
00002D9A  0000              add [eax],al
00002D9C  0400              add al,0x0
00002D9E  0000              add [eax],al
00002DA0  E300              jecxz 0x2da2
00002DA2  0000              add [eax],al
00002DA4  0100              add [eax],eax
00002DA6  0000              add [eax],al
00002DA8  0300              add eax,[eax]
00002DAA  0000              add [eax],al
00002DAC  80B10408802100    xor byte [ecx+0x21800804],0x0
00002DB3  0008              add [eax],cl
00002DB5  0000              add [eax],al
00002DB7  0000              add [eax],al
00002DB9  0000              add [eax],al
00002DBB  0000              add [eax],al
00002DBD  0000              add [eax],al
00002DBF  000400            add [eax+eax],al
00002DC2  0000              add [eax],al
00002DC4  0000              add [eax],al
00002DC6  0000              add [eax],al
00002DC8  E900000008        jmp 0x8002dcd
00002DCD  0000              add [eax],al
00002DCF  0003              add [ebx],al
00002DD1  0000              add [eax],al
00002DD3  0088B1040888      add [eax+0x880804b1],cl
00002DD9  2100              and [eax],eax
00002DDB  0008              add [eax],cl
00002DDD  0000              add [eax],al
00002DDF  0000              add [eax],al
00002DE1  0000              add [eax],al
00002DE3  0000              add [eax],al
00002DE5  0000              add [eax],al
00002DE7  000400            add [eax+eax],al
00002DEA  0000              add [eax],al
00002DEC  0000              add [eax],al
00002DEE  0000              add [eax],al
00002DF0  EE                out dx,al
00002DF1  0000              add [eax],al
00002DF3  0001              add [ecx],al
00002DF5  0000              add [eax],al
00002DF7  0030              add [eax],dh
00002DF9  0000              add [eax],al
00002DFB  0000              add [eax],al
00002DFD  0000              add [eax],al
00002DFF  008821000034      add [eax+0x34000021],cl
00002E05  0000              add [eax],al
00002E07  0000              add [eax],al
00002E09  0000              add [eax],al
00002E0B  0000              add [eax],al
00002E0D  0000              add [eax],al
00002E0F  0001              add [ecx],al
00002E11  0000              add [eax],al
00002E13  0001              add [ecx],al
00002E15  0000              add [eax],al
00002E17  00F7              add bh,dh
00002E19  0000              add [eax],al
00002E1B  0001              add [ecx],al
00002E1D  0000              add [eax],al
00002E1F  0000              add [eax],al
00002E21  0000              add [eax],al
00002E23  0000              add [eax],al
00002E25  0000              add [eax],al
00002E27  00C0              add al,al
00002E29  2100              and [eax],eax
00002E2B  004000            add [eax+0x0],al
00002E2E  0000              add [eax],al
00002E30  0000              add [eax],al
00002E32  0000              add [eax],al
00002E34  0000              add [eax],al
00002E36  0000              add [eax],al
00002E38  0800              or [eax],al
00002E3A  0000              add [eax],al
00002E3C  0000              add [eax],al
00002E3E  0000              add [eax],al
00002E40  06                push es
00002E41  0100              add [eax],eax
00002E43  0001              add [ecx],al
00002E45  0000              add [eax],al
00002E47  0000              add [eax],al
00002E49  0000              add [eax],al
00002E4B  0000              add [eax],al
00002E4D  0000              add [eax],al
00002E4F  0000              add [eax],al
00002E51  2200              and al,[eax]
00002E53  005F00            add [edi+0x0],bl
00002E56  0000              add [eax],al
00002E58  0000              add [eax],al
00002E5A  0000              add [eax],al
00002E5C  0000              add [eax],al
00002E5E  0000              add [eax],al
00002E60  0100              add [eax],eax
00002E62  0000              add [eax],al
00002E64  0000              add [eax],al
00002E66  0000              add [eax],al
00002E68  16                push ss
00002E69  0100              add [eax],eax
00002E6B  0001              add [ecx],al
00002E6D  0000              add [eax],al
00002E6F  0000              add [eax],al
00002E71  0000              add [eax],al
00002E73  0000              add [eax],al
00002E75  0000              add [eax],al
00002E77  005F22            add [edi+0x22],bl
00002E7A  0000              add [eax],al
00002E7C  2102              and [edx],eax
00002E7E  0000              add [eax],al
00002E80  0000              add [eax],al
00002E82  0000              add [eax],al
00002E84  0000              add [eax],al
00002E86  0000              add [eax],al
00002E88  0100              add [eax],eax
00002E8A  0000              add [eax],al
00002E8C  0000              add [eax],al
00002E8E  0000              add [eax],al
00002E90  2201              and al,[ecx]
00002E92  0000              add [eax],al
00002E94  0100              add [eax],eax
00002E96  0000              add [eax],al
00002E98  0000              add [eax],al
00002E9A  0000              add [eax],al
00002E9C  0000              add [eax],al
00002E9E  0000              add [eax],al
00002EA0  80240000          and byte [eax+eax],0x0
00002EA4  3501000000        xor eax,0x1
00002EA9  0000              add [eax],al
00002EAB  0000              add [eax],al
00002EAD  0000              add [eax],al
00002EAF  0001              add [ecx],al
00002EB1  0000              add [eax],al
00002EB3  0000              add [eax],al
00002EB5  0000              add [eax],al
00002EB7  0030              add [eax],dh
00002EB9  0100              add [eax],eax
00002EBB  0001              add [ecx],al
00002EBD  0000              add [eax],al
00002EBF  0000              add [eax],al
00002EC1  0000              add [eax],al
00002EC3  0000              add [eax],al
00002EC5  0000              add [eax],al
00002EC7  00B525000001      add [ebp+0x1000025],dh
00002ECD  0100              add [eax],eax
00002ECF  0000              add [eax],al
00002ED1  0000              add [eax],al
00002ED3  0000              add [eax],al
00002ED5  0000              add [eax],al
00002ED7  0001              add [ecx],al
00002ED9  0000              add [eax],al
00002EDB  0000              add [eax],al
00002EDD  0000              add [eax],al
00002EDF  003C01            add [ecx+eax],bh
00002EE2  0000              add [eax],al
00002EE4  0100              add [eax],eax
00002EE6  0000              add [eax],al
00002EE8  0000              add [eax],al
00002EEA  0000              add [eax],al
00002EEC  0000              add [eax],al
00002EEE  0000              add [eax],al
00002EF0  B82600004C        mov eax,0x4c000026
00002EF5  0000              add [eax],al
00002EF7  0000              add [eax],al
00002EF9  0000              add [eax],al
00002EFB  0000              add [eax],al
00002EFD  0000              add [eax],al
00002EFF  000400            add [eax+eax],al
00002F02  0000              add [eax],al
00002F04  0000              add [eax],al
00002F06  0000              add [eax],al
00002F08  49                dec ecx
00002F09  0100              add [eax],eax
00002F0B  0001              add [ecx],al
00002F0D  0000              add [eax],al
00002F0F  0030              add [eax],dh
00002F11  0000              add [eax],al
00002F13  0000              add [eax],al
00002F15  0000              add [eax],al
00002F17  000427            add [edi],al
00002F1A  0000              add [eax],al
00002F1C  1201              adc al,[ecx]
00002F1E  0000              add [eax],al
00002F20  0000              add [eax],al
00002F22  0000              add [eax],al
00002F24  0000              add [eax],al
00002F26  0000              add [eax],al
00002F28  0100              add [eax],eax
00002F2A  0000              add [eax],al
00002F2C  0100              add [eax],eax
00002F2E  0000              add [eax],al
00002F30  54                push esp
00002F31  0100              add [eax],eax
00002F33  0001              add [ecx],al
00002F35  0000              add [eax],al
00002F37  0000              add [eax],al
00002F39  0000              add [eax],al
00002F3B  0000              add [eax],al
00002F3D  0000              add [eax],al
00002F3F  0016              add [esi],dl
00002F41  2800              sub [eax],al
00002F43  006B00            add [ebx+0x0],ch
00002F46  0000              add [eax],al
00002F48  0000              add [eax],al
00002F4A  0000              add [eax],al
00002F4C  0000              add [eax],al
00002F4E  0000              add [eax],al
00002F50  0100              add [eax],eax
00002F52  0000              add [eax],al
00002F54  0000              add [eax],al
00002F56  0000              add [eax],al
00002F58  1100              adc [eax],eax
00002F5A  0000              add [eax],al
00002F5C  0300              add eax,[eax]
00002F5E  0000              add [eax],al
00002F60  0000              add [eax],al
00002F62  0000              add [eax],al
00002F64  0000              add [eax],al
00002F66  0000              add [eax],al
00002F68  812800005F01      sub dword [eax],0x15f0000
00002F6E  0000              add [eax],al
00002F70  0000              add [eax],al
00002F72  0000              add [eax],al
00002F74  0000              add [eax],al
00002F76  0000              add [eax],al
00002F78  0100              add [eax],eax
00002F7A  0000              add [eax],al
00002F7C  0000              add [eax],al
00002F7E  0000              add [eax],al
00002F80  0100              add [eax],eax
00002F82  0000              add [eax],al
00002F84  0200              add al,[eax]
00002F86  0000              add [eax],al
00002F88  0000              add [eax],al
00002F8A  0000              add [eax],al
00002F8C  0000              add [eax],al
00002F8E  0000              add [eax],al
00002F90  D02F              shr byte [edi],1
00002F92  0000              add [eax],al
00002F94  B009              mov al,0x9
00002F96  0000              add [eax],al
00002F98  250000003C        and eax,0x3c000000
00002F9D  0000              add [eax],al
00002F9F  000400            add [eax+eax],al
00002FA2  0000              add [eax],al
00002FA4  1000              adc [eax],al
00002FA6  0000              add [eax],al
00002FA8  0900              or [eax],eax
00002FAA  0000              add [eax],al
00002FAC  0300              add eax,[eax]
00002FAE  0000              add [eax],al
00002FB0  0000              add [eax],al
00002FB2  0000              add [eax],al
00002FB4  0000              add [eax],al
00002FB6  0000              add [eax],al
00002FB8  803900            cmp byte [ecx],0x0
00002FBB  00620D            add [edx+0xd],ah
00002FBE  0000              add [eax],al
00002FC0  0000              add [eax],al
00002FC2  0000              add [eax],al
00002FC4  0000              add [eax],al
00002FC6  0000              add [eax],al
00002FC8  0100              add [eax],eax
00002FCA  0000              add [eax],al
00002FCC  0000              add [eax],al
00002FCE  0000              add [eax],al
00002FD0  0000              add [eax],al
00002FD2  0000              add [eax],al
00002FD4  0000              add [eax],al
00002FD6  0000              add [eax],al
00002FD8  0000              add [eax],al
00002FDA  0000              add [eax],al
00002FDC  0000              add [eax],al
00002FDE  0000              add [eax],al
00002FE0  0000              add [eax],al
00002FE2  0000              add [eax],al
00002FE4  3481              xor al,0x81
00002FE6  0408              add al,0x8
00002FE8  0000              add [eax],al
00002FEA  0000              add [eax],al
00002FEC  0300              add eax,[eax]
00002FEE  0100              add [eax],eax
00002FF0  0000              add [eax],al
00002FF2  0000              add [eax],al
00002FF4  48                dec eax
00002FF5  81040800000000    add dword [eax+ecx],0x0
00002FFC  0300              add eax,[eax]
00002FFE  0200              add al,[eax]
00003000  0000              add [eax],al
00003002  0000              add [eax],al
00003004  6881040800        push dword 0x80481
00003009  0000              add [eax],al
0000300B  0003              add [ebx],al
0000300D  0003              add [ebx],al
0000300F  0000              add [eax],al
00003011  0000              add [eax],al
00003013  0020              add [eax],ah
00003015  82                db 0x82
00003016  0408              add al,0x8
00003018  0000              add [eax],al
0000301A  0000              add [eax],al
0000301C  0300              add eax,[eax]
0000301E  0400              add al,0x0
00003020  0000              add [eax],al
00003022  0000              add [eax],al
00003024  D08304080000      rol byte [ebx+0x804],1
0000302A  0000              add [eax],al
0000302C  0300              add eax,[eax]
0000302E  0500000000        add eax,0x0
00003033  000A              add [edx],cl
00003035  870408            xchg eax,[eax+ecx]
00003038  0000              add [eax],al
0000303A  0000              add [eax],al
0000303C  0300              add eax,[eax]
0000303E  06                push es
0000303F  0000              add [eax],al
00003041  0000              add [eax],al
00003043  004087            add [eax-0x79],al
00003046  0408              add al,0x8
00003048  0000              add [eax],al
0000304A  0000              add [eax],al
0000304C  0300              add eax,[eax]
0000304E  07                pop es
0000304F  0000              add [eax],al
00003051  0000              add [eax],al
00003053  00D0              add al,dl
00003055  870408            xchg eax,[eax+ecx]
00003058  0000              add [eax],al
0000305A  0000              add [eax],al
0000305C  0300              add eax,[eax]
0000305E  0800              or [eax],al
00003060  0000              add [eax],al
00003062  0000              add [eax],al
00003064  D88704080000      fadd dword [edi+0x804]
0000306A  0000              add [eax],al
0000306C  0300              add eax,[eax]
0000306E  0900              or [eax],eax
00003070  0000              add [eax],al
00003072  0000              add [eax],al
00003074  888804080000      mov [eax+0x804],cl
0000307A  0000              add [eax],al
0000307C  0300              add eax,[eax]
0000307E  0A00              or al,[eax]
00003080  0000              add [eax],al
00003082  0000              add [eax],al
00003084  C0880408000000    ror byte [eax+0x804],0x0
0000308B  0003              add [ebx],al
0000308D  000B              add [ebx],cl
0000308F  0000              add [eax],al
00003091  0000              add [eax],al
00003093  0030              add [eax],dh
00003095  8A0408            mov al,[eax+ecx]
00003098  0000              add [eax],al
0000309A  0000              add [eax],al
0000309C  0300              add eax,[eax]
0000309E  0C00              or al,0x0
000030A0  0000              add [eax],al
000030A2  0000              add [eax],al
000030A4  089804080000      or [eax+0x804],bl
000030AA  0000              add [eax],al
000030AC  0300              add eax,[eax]
000030AE  0D00000000        or eax,0x0
000030B3  0028              add [eax],ch
000030B5  98                cwde
000030B6  0408              add al,0x8
000030B8  0000              add [eax],al
000030BA  0000              add [eax],al
000030BC  0300              add eax,[eax]
000030BE  0E                push cs
000030BF  0000              add [eax],al
000030C1  0000              add [eax],al
000030C3  005898            add [eax-0x68],bl
000030C6  0408              add al,0x8
000030C8  0000              add [eax],al
000030CA  0000              add [eax],al
000030CC  0300              add eax,[eax]
000030CE  0F0000            sldt [eax]
000030D1  0000              add [eax],al
000030D3  00BC9904080000    add [ecx+ebx*4+0x804],bh
000030DA  0000              add [eax],al
000030DC  0300              add eax,[eax]
000030DE  1000              adc [eax],al
000030E0  0000              add [eax],al
000030E2  0000              add [eax],al
000030E4  9C                pushf
000030E5  9F                lahf
000030E6  0408              add al,0x8
000030E8  0000              add [eax],al
000030EA  0000              add [eax],al
000030EC  0300              add eax,[eax]
000030EE  1100              adc [eax],eax
000030F0  0000              add [eax],al
000030F2  0000              add [eax],al
000030F4  24B0              and al,0xb0
000030F6  0408              add al,0x8
000030F8  0000              add [eax],al
000030FA  0000              add [eax],al
000030FC  0300              add eax,[eax]
000030FE  1200              adc al,[eax]
00003100  0000              add [eax],al
00003102  0000              add [eax],al
00003104  2CB0              sub al,0xb0
00003106  0408              add al,0x8
00003108  0000              add [eax],al
0000310A  0000              add [eax],al
0000310C  0300              add eax,[eax]
0000310E  1300              adc eax,[eax]
00003110  0000              add [eax],al
00003112  0000              add [eax],al
00003114  34B0              xor al,0xb0
00003116  0408              add al,0x8
00003118  0000              add [eax],al
0000311A  0000              add [eax],al
0000311C  0300              add eax,[eax]
0000311E  1400              adc al,0x0
00003120  0000              add [eax],al
00003122  0000              add [eax],al
00003124  38B004080000      cmp [eax+0x804],dh
0000312A  0000              add [eax],al
0000312C  0300              add eax,[eax]
0000312E  1500000000        adc eax,0x0
00003133  0018              add [eax],bl
00003135  B104              mov cl,0x4
00003137  0800              or [eax],al
00003139  0000              add [eax],al
0000313B  0003              add [ebx],al
0000313D  0016              add [esi],dl
0000313F  0000              add [eax],al
00003141  0000              add [eax],al
00003143  001CB1            add [ecx+esi*4],bl
00003146  0408              add al,0x8
00003148  0000              add [eax],al
0000314A  0000              add [eax],al
0000314C  0300              add eax,[eax]
0000314E  17                pop ss
0000314F  0000              add [eax],al
00003151  0000              add [eax],al
00003153  0080B1040800      add [eax+0x804b1],al
00003159  0000              add [eax],al
0000315B  0003              add [ebx],al
0000315D  0018              add [eax],bl
0000315F  0000              add [eax],al
00003161  0000              add [eax],al
00003163  0088B1040800      add [eax+0x804b1],cl
00003169  0000              add [eax],al
0000316B  0003              add [ebx],al
0000316D  0019              add [ecx],bl
0000316F  0000              add [eax],al
00003171  0000              add [eax],al
00003173  0000              add [eax],al
00003175  0000              add [eax],al
00003177  0000              add [eax],al
00003179  0000              add [eax],al
0000317B  0003              add [ebx],al
0000317D  001A              add [edx],bl
0000317F  0000              add [eax],al
00003181  0000              add [eax],al
00003183  0000              add [eax],al
00003185  0000              add [eax],al
00003187  0000              add [eax],al
00003189  0000              add [eax],al
0000318B  0003              add [ebx],al
0000318D  001B              add [ebx],bl
0000318F  0000              add [eax],al
00003191  0000              add [eax],al
00003193  0000              add [eax],al
00003195  0000              add [eax],al
00003197  0000              add [eax],al
00003199  0000              add [eax],al
0000319B  0003              add [ebx],al
0000319D  001C00            add [eax+eax],bl
000031A0  0000              add [eax],al
000031A2  0000              add [eax],al
000031A4  0000              add [eax],al
000031A6  0000              add [eax],al
000031A8  0000              add [eax],al
000031AA  0000              add [eax],al
000031AC  0300              add eax,[eax]
000031AE  1D00000000        sbb eax,0x0
000031B3  0000              add [eax],al
000031B5  0000              add [eax],al
000031B7  0000              add [eax],al
000031B9  0000              add [eax],al
000031BB  0003              add [ebx],al
000031BD  001E              add [esi],bl
000031BF  0000              add [eax],al
000031C1  0000              add [eax],al
000031C3  0000              add [eax],al
000031C5  0000              add [eax],al
000031C7  0000              add [eax],al
000031C9  0000              add [eax],al
000031CB  0003              add [ebx],al
000031CD  001F              add [edi],bl
000031CF  0000              add [eax],al
000031D1  0000              add [eax],al
000031D3  0000              add [eax],al
000031D5  0000              add [eax],al
000031D7  0000              add [eax],al
000031D9  0000              add [eax],al
000031DB  0003              add [ebx],al
000031DD  0020              add [eax],ah
000031DF  0000              add [eax],al
000031E1  0000              add [eax],al
000031E3  0000              add [eax],al
000031E5  0000              add [eax],al
000031E7  0000              add [eax],al
000031E9  0000              add [eax],al
000031EB  0003              add [ebx],al
000031ED  0021              add [ecx],ah
000031EF  0000              add [eax],al
000031F1  0000              add [eax],al
000031F3  0000              add [eax],al
000031F5  0000              add [eax],al
000031F7  0000              add [eax],al
000031F9  0000              add [eax],al
000031FB  0003              add [ebx],al
000031FD  0022              add [edx],ah
000031FF  0001              add [ecx],al
00003201  0000              add [eax],al
00003203  0000              add [eax],al
00003205  0000              add [eax],al
00003207  0000              add [eax],al
00003209  0000              add [eax],al
0000320B  000400            add [eax+eax],al
0000320E  F1                int1
0000320F  FF08              dec dword [eax]
00003211  0000              add [eax],al
00003213  0000              add [eax],al
00003215  0000              add [eax],al
00003217  0000              add [eax],al
00003219  0000              add [eax],al
0000321B  000400            add [eax+eax],al
0000321E  F1                int1
0000321F  FF13              call near [ebx]
00003221  0000              add [eax],al
00003223  0000              add [eax],al
00003225  0000              add [eax],al
00003227  0000              add [eax],al
00003229  0000              add [eax],al
0000322B  000400            add [eax+eax],al
0000322E  F1                int1
0000322F  FF1E              call far [esi]
00003231  0000              add [eax],al
00003233  0024B0            add [eax+esi*4],ah
00003236  0408              add al,0x8
00003238  0000              add [eax],al
0000323A  0000              add [eax],al
0000323C  0100              add [eax],eax
0000323E  1200              adc al,[eax]
00003240  2C00              sub al,0x0
00003242  0000              add [eax],al
00003244  2CB0              sub al,0xb0
00003246  0408              add al,0x8
00003248  0000              add [eax],al
0000324A  0000              add [eax],al
0000324C  0100              add [eax],eax
0000324E  1300              adc eax,[eax]
00003250  3A00              cmp al,[eax]
00003252  0000              add [eax],al
00003254  34B0              xor al,0xb0
00003256  0408              add al,0x8
00003258  0000              add [eax],al
0000325A  0000              add [eax],al
0000325C  0100              add [eax],eax
0000325E  1400              adc al,0x0
00003260  47                inc edi
00003261  0000              add [eax],al
00003263  00608A            add [eax-0x76],ah
00003266  0408              add al,0x8
00003268  0000              add [eax],al
0000326A  0000              add [eax],al
0000326C  0200              add al,[eax]
0000326E  0C00              or al,0x0
00003270  5C                pop esp
00003271  0000              add [eax],al
00003273  00908A040800      add [eax+0x8048a],dl
00003279  0000              add [eax],al
0000327B  0002              add [edx],al
0000327D  000C00            add [eax+eax],cl
00003280  6F                outsd
00003281  0000              add [eax],al
00003283  00D0              add al,dl
00003285  8A0408            mov al,[eax+ecx]
00003288  0000              add [eax],al
0000328A  0000              add [eax],al
0000328C  0200              add al,[eax]
0000328E  0C00              or al,0x0
00003290  8500              test [eax],eax
00003292  0000              add [eax],al
00003294  88B104080100      mov [ecx+0x10804],dh
0000329A  0000              add [eax],al
0000329C  0100              add [eax],eax
0000329E  1900              sbb [eax],eax
000032A0  94                xchg eax,esp
000032A1  0000              add [eax],al
000032A3  008CB104080400    add [ecx+esi*4+0x40804],cl
000032AA  0000              add [eax],al
000032AC  0100              add [eax],eax
000032AE  1900              sbb [eax],eax
000032B0  A200000020        mov [0x20000000],al
000032B5  8B0408            mov eax,[eax+ecx]
000032B8  0000              add [eax],al
000032BA  0000              add [eax],al
000032BC  0200              add al,[eax]
000032BE  0C00              or al,0x0
000032C0  1300              adc eax,[eax]
000032C2  0000              add [eax],al
000032C4  0000              add [eax],al
000032C6  0000              add [eax],al
000032C8  0000              add [eax],al
000032CA  0000              add [eax],al
000032CC  0400              add al,0x0
000032CE  F1                int1
000032CF  FFAE00000028      jmp far [esi+0x28000000]
000032D5  B004              mov al,0x4
000032D7  0800              or [eax],al
000032D9  0000              add [eax],al
000032DB  0001              add [ecx],al
000032DD  0012              add [edx],dl
000032DF  00BB00000098      add [ebx+0x98000000],bh
000032E5  9F                lahf
000032E6  0408              add al,0x8
000032E8  0000              add [eax],al
000032EA  0000              add [eax],al
000032EC  0100              add [eax],eax
000032EE  1000              adc [eax],al
000032F0  C9                leave
000032F1  0000              add [eax],al
000032F3  0034B0            add [eax+esi*4],dh
000032F6  0408              add al,0x8
000032F8  0000              add [eax],al
000032FA  0000              add [eax],al
000032FC  0100              add [eax],eax
000032FE  1400              adc al,0x0
00003300  D500              aad 0x0
00003302  0000              add [eax],al
00003304  E097              loopne 0x329d
00003306  0408              add al,0x8
00003308  0000              add [eax],al
0000330A  0000              add [eax],al
0000330C  0200              add al,[eax]
0000330E  0C00              or al,0x0
00003310  0800              or [eax],al
00003312  0000              add [eax],al
00003314  0000              add [eax],al
00003316  0000              add [eax],al
00003318  0000              add [eax],al
0000331A  0000              add [eax],al
0000331C  0400              add al,0x0
0000331E  F1                int1
0000331F  FF                db 0xFF
00003320  EB00              jmp short 0x3322
00003322  0000              add [eax],al
00003324  0000              add [eax],al
00003326  0000              add [eax],al
00003328  0000              add [eax],al
0000332A  0000              add [eax],al
0000332C  0400              add al,0x0
0000332E  F1                int1
0000332F  FF0401            inc dword [ecx+eax]
00003332  0000              add [eax],al
00003334  0000              add [eax],al
00003336  0000              add [eax],al
00003338  0000              add [eax],al
0000333A  0000              add [eax],al
0000333C  0400              add al,0x0
0000333E  F1                int1
0000333F  FF00              inc dword [eax]
00003341  0000              add [eax],al
00003343  0000              add [eax],al
00003345  0000              add [eax],al
00003347  0000              add [eax],al
00003349  0000              add [eax],al
0000334B  000400            add [eax+eax],al
0000334E  F1                int1
0000334F  FF0F              dec dword [edi]
00003351  0100              add [eax],eax
00003353  001CB1            add [ecx+esi*4],bl
00003356  0408              add al,0x8
00003358  0000              add [eax],al
0000335A  0000              add [eax],al
0000335C  0100              add [eax],eax
0000335E  17                pop ss
0000335F  002501000024      add [0x24000001],ah
00003365  B004              mov al,0x4
00003367  0800              or [eax],al
00003369  0000              add [eax],al
0000336B  0000              add [eax],al
0000336D  0012              add [edx],dl
0000336F  0036              add [esi],dh
00003371  0100              add [eax],eax
00003373  0024B0            add [eax+esi*4],ah
00003376  0408              add al,0x8
00003378  0000              add [eax],al
0000337A  0000              add [eax],al
0000337C  0000              add [eax],al
0000337E  1200              adc al,[eax]
00003380  49                dec ecx
00003381  0100              add [eax],eax
00003383  0038              add [eax],bh
00003385  B004              mov al,0x4
00003387  0800              or [eax],al
00003389  0000              add [eax],al
0000338B  0001              add [ecx],al
0000338D  001500520100      add [0x15200],dl
00003393  0080B1040800      add [eax+0x804b1],al
00003399  0000              add [eax],al
0000339B  0020              add [eax],ah
0000339D  0018              add [eax],bl
0000339F  005D01            add [ebp+0x1],bl
000033A2  0000              add [eax],al
000033A4  2E93              cs xchg eax,ebx
000033A6  0408              add al,0x8
000033A8  1300              adc eax,[eax]
000033AA  0000              add [eax],al
000033AC  2200              and al,[eax]
000033AE  0C00              or al,0x0
000033B0  6A01              push byte +0x1
000033B2  0000              add [eax],al
000033B4  1A9304081300      sbb dl,[ebx+0x130804]
000033BA  0000              add [eax],al
000033BC  2200              and al,[eax]
000033BE  0C00              or al,0x0
000033C0  7701              ja 0x33c3
000033C2  0000              add [eax],al
000033C4  5C                pop esp
000033C5  92                xchg eax,edx
000033C6  0408              add al,0x8
000033C8  55                push ebp
000033C9  0000              add [eax],al
000033CB  0022              add [edx],ah
000033CD  000C00            add [eax+eax],cl
000033D0  A00100002E        mov al,[0x2e000001]
000033D5  93                xchg eax,ebx
000033D6  0408              add al,0x8
000033D8  1300              adc eax,[eax]
000033DA  0000              add [eax],al
000033DC  2200              and al,[eax]
000033DE  0C00              or al,0x0
000033E0  AD                lodsd
000033E1  0100              add [eax],eax
000033E3  0000              add [eax],al
000033E5  0000              add [eax],al
000033E7  0000              add [eax],al
000033E9  0000              add [eax],al
000033EB  0012              add [edx],dl
000033ED  0000              add [eax],al
000033EF  00C4              add ah,al
000033F1  0100              add [eax],eax
000033F3  006E94            add [esi-0x6c],ch
000033F6  0408              add al,0x8
000033F8  5F                pop edi
000033F9  0000              add [eax],al
000033FB  0022              add [edx],ah
000033FD  000C00            add [eax+eax],cl
00003400  E401              in al,0x1
00003402  0000              add [eax],al
00003404  0000              add [eax],al
00003406  0000              add [eax],al
00003408  0000              add [eax],al
0000340A  0000              add [eax],al
0000340C  1200              adc al,[eax]
0000340E  0000              add [eax],al
00003410  FB                sti
00003411  0100              add [eax],eax
00003413  0000              add [eax],al
00003415  0000              add [eax],al
00003417  0000              add [eax],al
00003419  0000              add [eax],al
0000341B  0012              add [edx],dl
0000341D  0000              add [eax],al
0000341F  0013              add [ebx],dl
00003421  0200              add al,[eax]
00003423  007097            add [eax-0x69],dh
00003426  0408              add al,0x8
00003428  0500000012        add eax,0x12000000
0000342D  000C00            add [eax+eax],cl
00003430  2302              and eax,[edx]
00003432  0000              add [eax],al
00003434  308A04080000      xor [edx+0x804],cl
0000343A  0000              add [eax],al
0000343C  1200              adc al,[eax]
0000343E  0C00              or al,0x0
00003440  2A02              sub al,[edx]
00003442  0000              add [eax],al
00003444  90                nop
00003445  96                xchg eax,esi
00003446  0408              add al,0x8
00003448  3000              xor [eax],al
0000344A  0000              add [eax],al
0000344C  2200              and al,[eax]
0000344E  0C00              or al,0x0
00003450  58                pop eax
00003451  0200              add al,[eax]
00003453  00C0              add al,al
00003455  96                xchg eax,esi
00003456  0408              add al,0x8
00003458  2100              and [eax],eax
0000345A  0000              add [eax],al
0000345C  2200              and al,[eax]
0000345E  0C00              or al,0x0
00003460  9F                lahf
00003461  0200              add al,[eax]
00003463  00F0              add al,dh
00003465  91                xchg eax,ecx
00003466  0408              add al,0x8
00003468  0D00000022        or eax,0x22000000
0000346D  000C00            add [eax+eax],cl
00003470  B902000000        mov ecx,0x2
00003475  0000              add [eax],al
00003477  0000              add [eax],al
00003479  0000              add [eax],al
0000347B  0012              add [edx],dl
0000347D  0000              add [eax],al
0000347F  000F              add [edi],cl
00003481  0300              add eax,[eax]
00003483  0010              add [eax],dl
00003485  94                xchg eax,esp
00003486  0408              add al,0x8
00003488  1300              adc eax,[eax]
0000348A  0000              add [eax],al
0000348C  2200              and al,[eax]
0000348E  0C00              or al,0x0
00003490  3D0300008A        cmp eax,0x8a000003
00003495  96                xchg eax,esi
00003496  0408              add al,0x8
00003498  0500000022        add eax,0x22000000
0000349D  000C00            add [eax+eax],cl
000034A0  650300            add eax,[gs:eax]
000034A3  006695            add [esi-0x6b],ah
000034A6  0408              add al,0x8
000034A8  3D00000022        cmp eax,0x22000000
000034AD  000C00            add [eax+eax],cl
000034B0  96                xchg eax,esi
000034B1  0300              add eax,[eax]
000034B3  0000              add [eax],al
000034B5  0000              add [eax],al
000034B7  0000              add [eax],al
000034B9  0000              add [eax],al
000034BB  0020              add [eax],ah
000034BD  0000              add [eax],al
000034BF  00A503000000      add [ebp+0x3],ah
000034C5  0000              add [eax],al
000034C7  0000              add [eax],al
000034C9  0000              add [eax],al
000034CB  0020              add [eax],ah
000034CD  0000              add [eax],al
000034CF  00B903000028      add [ecx+0x28000003],bh
000034D5  98                cwde
000034D6  0408              add al,0x8
000034D8  0400              add al,0x0
000034DA  0000              add [eax],al
000034DC  1100              adc [eax],eax
000034DE  0E                push cs
000034DF  00C0              add al,al
000034E1  0300              add eax,[eax]
000034E3  0000              add [eax],al
000034E5  0000              add [eax],al
000034E7  0000              add [eax],al
000034E9  0000              add [eax],al
000034EB  0012              add [edx],dl
000034ED  0000              add [eax],al
000034EF  00D4              add ah,dl
000034F1  0300              add eax,[eax]
000034F3  0008              add [eax],cl
000034F5  98                cwde
000034F6  0408              add al,0x8
000034F8  0000              add [eax],al
000034FA  0000              add [eax],al
000034FC  1200              adc al,[eax]
000034FE  0D00DA0300        or eax,0x3da00
00003503  00149504081A00    add [edx*4+0x1a0804],dl
0000350A  0000              add [eax],al
0000350C  2200              and al,[eax]
0000350E  0C00              or al,0x0
00003510  FB                sti
00003511  0300              add eax,[eax]
00003513  001597040813      add [0x13080497],dl
00003519  0000              add [eax],al
0000351B  0022              add [edx],ah
0000351D  000C00            add [eax+eax],cl
00003520  390400            cmp [eax+eax],eax
00003523  0000              add [eax],al
00003525  0000              add [eax],al
00003527  0000              add [eax],al
00003529  0000              add [eax],al
0000352B  0012              add [edx],dl
0000352D  0000              add [eax],al
0000352F  006804            add [eax+0x4],ch
00003532  0000              add [eax],al
00003534  42                inc edx
00003535  93                xchg eax,ebx
00003536  0408              add al,0x8
00003538  58                pop eax
00003539  0000              add [eax],al
0000353B  0022              add [edx],ah
0000353D  000C00            add [eax+eax],cl
00003540  890400            mov [eax+eax],eax
00003543  004F92            add [edi-0x6e],cl
00003546  0408              add al,0x8
00003548  0D00000022        or eax,0x22000000
0000354D  000C00            add [eax+eax],cl
00003550  A3040000B1        mov [0xb1000004],eax
00003555  92                xchg eax,edx
00003556  0408              add al,0x8
00003558  260000            add [es:eax],al
0000355B  0022              add [edx],ah
0000355D  000C00            add [eax+eax],cl
00003560  BA040000CB        mov edx,0xcb000004
00003565  95                xchg eax,ebp
00003566  0408              add al,0x8
00003568  2100              and [eax],eax
0000356A  0000              add [eax],al
0000356C  2200              and al,[eax]
0000356E  0C00              or al,0x0
00003570  F30400            rep add al,0x0
00003573  009A93040857      add [edx+0x57080493],bl
00003579  0000              add [eax],al
0000357B  0022              add [edx],ah
0000357D  000C00            add [eax+eax],cl
00003580  0C05              or al,0x5
00003582  0000              add [eax],al
00003584  0000              add [eax],al
00003586  0000              add [eax],al
00003588  0000              add [eax],al
0000358A  0000              add [eax],al
0000358C  1200              adc al,[eax]
0000358E  0000              add [eax],al
00003590  290500000792      sub [0x92070000],eax
00003596  0408              add al,0x8
00003598  2400              and al,0x0
0000359A  0000              add [eax],al
0000359C  2200              and al,[eax]
0000359E  0C00              or al,0x0
000035A0  44                inc esp
000035A1  0500000696        add eax,0x96060000
000035A6  0408              add al,0x8
000035A8  1A00              sbb al,[eax]
000035AA  0000              add [eax],al
000035AC  2200              and al,[eax]
000035AE  0C00              or al,0x0
000035B0  54                push esp
000035B1  0500000000        add eax,0x0
000035B6  0000              add [eax],al
000035B8  0000              add [eax],al
000035BA  0000              add [eax],al
000035BC  2000              and [eax],al
000035BE  0000              add [eax],al
000035C0  7005              jo 0x35c7
000035C2  0000              add [eax],al
000035C4  0000              add [eax],al
000035C6  0000              add [eax],al
000035C8  0000              add [eax],al
000035CA  0000              add [eax],al
000035CC  1200              adc al,[eax]
000035CE  0000              add [eax],al
000035D0  B505              mov ch,0x5
000035D2  0000              add [eax],al
000035D4  2C98              sub al,0x98
000035D6  0408              add al,0x8
000035D8  0400              add al,0x0
000035DA  0000              add [eax],al
000035DC  1100              adc [eax],eax
000035DE  0E                push cs
000035DF  00C4              add ah,al
000035E1  0500000000        add eax,0x0
000035E6  0000              add [eax],al
000035E8  0000              add [eax],al
000035EA  0000              add [eax],al
000035EC  2000              and [eax],al
000035EE  0000              add [eax],al
000035F0  DE05000080B1      fiadd word [0xb1800000]
000035F6  0408              add al,0x8
000035F8  0000              add [eax],al
000035FA  0000              add [eax],al
000035FC  1000              adc [eax],al
000035FE  1800              sbb [eax],al
00003600  EB05              jmp short 0x3607
00003602  0000              add [eax],al
00003604  0000              add [eax],al
00003606  0000              add [eax],al
00003608  0000              add [eax],al
0000360A  0000              add [eax],al
0000360C  1200              adc al,[eax]
0000360E  0000              add [eax],al
00003610  FB                sti
00003611  050000F293        add eax,0x93f20000
00003616  0408              add al,0x8
00003618  1200              adc al,[eax]
0000361A  0000              add [eax],al
0000361C  2200              and al,[eax]
0000361E  0C00              or al,0x0
00003620  1406              adc al,0x6
00003622  0000              add [eax],al
00003624  6E                outsb
00003625  94                xchg eax,esp
00003626  0408              add al,0x8
00003628  5F                pop edi
00003629  0000              add [eax],al
0000362B  0022              add [edx],ah
0000362D  000C00            add [eax+eax],cl
00003630  3406              xor al,0x6
00003632  0000              add [eax],al
00003634  D7                xlatb
00003635  92                xchg eax,edx
00003636  0408              add al,0x8
00003638  1200              adc al,[eax]
0000363A  0000              add [eax],al
0000363C  2200              and al,[eax]
0000363E  0C00              or al,0x0
00003640  48                dec eax
00003641  06                push es
00003642  0000              add [eax],al
00003644  2E95              cs xchg eax,ebp
00003646  0408              add al,0x8
00003648  37                aaa
00003649  0000              add [eax],al
0000364B  0022              add [edx],ah
0000364D  000C00            add [eax+eax],cl
00003650  7A06              jpe 0x3658
00003652  0000              add [eax],al
00003654  FD                std
00003655  91                xchg eax,ecx
00003656  0408              add al,0x8
00003658  0A00              or al,[eax]
0000365A  0000              add [eax],al
0000365C  2200              and al,[eax]
0000365E  0C00              or al,0x0
00003660  92                xchg eax,edx
00003661  06                push es
00003662  0000              add [eax],al
00003664  2494              and al,0x94
00003666  0408              add al,0x8
00003668  4A                dec edx
00003669  0000              add [eax],al
0000366B  0022              add [edx],ah
0000366D  000C00            add [eax+eax],cl
00003670  B706              mov bh,0x6
00003672  0000              add [eax],al
00003674  E992040830        jmp 0x30083b0b
00003679  0000              add [eax],al
0000367B  0022              add [edx],ah
0000367D  000C00            add [eax+eax],cl
00003680  C60600            mov byte [esi],0x0
00003683  0006              add [esi],al
00003685  96                xchg eax,esi
00003686  0408              add al,0x8
00003688  1A00              sbb al,[eax]
0000368A  0000              add [eax],al
0000368C  2200              and al,[eax]
0000368E  0C00              or al,0x0
00003690  D6                salc
00003691  06                push es
00003692  0000              add [eax],al
00003694  2494              and al,0x94
00003696  0408              add al,0x8
00003698  4A                dec edx
00003699  0000              add [eax],al
0000369B  0022              add [edx],ah
0000369D  000C00            add [eax+eax],cl
000036A0  FB                sti
000036A1  06                push es
000036A2  0000              add [eax],al
000036A4  42                inc edx
000036A5  93                xchg eax,ebx
000036A6  0408              add al,0x8
000036A8  58                pop eax
000036A9  0000              add [eax],al
000036AB  0022              add [edx],ah
000036AD  000C00            add [eax+eax],cl
000036B0  1C07              sbb al,0x7
000036B2  0000              add [eax],al
000036B4  88B104080000      mov [ecx+0x804],dh
000036BA  0000              add [eax],al
000036BC  1102              adc [edx],eax
000036BE  1800              sbb [eax],al
000036C0  2807              sub [edi],al
000036C2  0000              add [eax],al
000036C4  0000              add [eax],al
000036C6  0000              add [eax],al
000036C8  0000              add [eax],al
000036CA  0000              add [eax],al
000036CC  1200              adc al,[eax]
000036CE  0000              add [eax],al
000036D0  6407              fs pop es
000036D2  0000              add [eax],al
000036D4  84B104080000      test [ecx+0x804],dh
000036DA  0000              add [eax],al
000036DC  1102              adc [edx],eax
000036DE  1800              sbb [eax],al
000036E0  7107              jno 0x36e9
000036E2  0000              add [eax],al
000036E4  2B9204082400      sub edx,[edx+0x240804]
000036EA  0000              add [eax],al
000036EC  2200              and al,[eax]
000036EE  0C00              or al,0x0
000036F0  8C07              mov [edi],es
000036F2  0000              add [eax],al
000036F4  30B004080000      xor [eax+0x804],dh
000036FA  0000              add [eax],al
000036FC  1102              adc [edx],eax
000036FE  1300              adc eax,[eax]
00003700  99                cdq
00003701  07                pop es
00003702  0000              add [eax],al
00003704  809704085A0000    adc byte [edi+0x5a0804],0x0
0000370B  0012              add [edx],dl
0000370D  000C00            add [eax+eax],cl
00003710  A907000063        test eax,0x63000007
00003715  96                xchg eax,esi
00003716  0408              add al,0x8
00003718  2100              and [eax],eax
0000371A  0000              add [eax],al
0000371C  2200              and al,[eax]
0000371E  0C00              or al,0x0
00003720  D507              aad 0x7
00003722  0000              add [eax],al
00003724  0000              add [eax],al
00003726  0000              add [eax],al
00003728  0000              add [eax],al
0000372A  0000              add [eax],al
0000372C  1200              adc al,[eax]
0000372E  0000              add [eax],al
00003730  1108              adc [eax],ecx
00003732  0000              add [eax],al
00003734  50                push eax
00003735  96                xchg eax,esi
00003736  0408              add al,0x8
00003738  1300              adc eax,[eax]
0000373A  0000              add [eax],al
0000373C  2200              and al,[eax]
0000373E  0C00              or al,0x0
00003740  41                inc ecx
00003741  0800              or [eax],al
00003743  000494            add [esp+edx*4],al
00003746  0408              add al,0x8
00003748  0500000022        add eax,0x22000000
0000374D  000C00            add [eax+eax],cl
00003750  650800            or [gs:eax],al
00003753  00EC              add ah,ch
00003755  95                xchg eax,ebp
00003756  0408              add al,0x8
00003758  1A00              sbb al,[eax]
0000375A  0000              add [eax],al
0000375C  2200              and al,[eax]
0000375E  0C00              or al,0x0
00003760  7D08              jnl 0x376a
00003762  0000              add [eax],al
00003764  0000              add [eax],al
00003766  0000              add [eax],al
00003768  0000              add [eax],al
0000376A  0000              add [eax],al
0000376C  1200              adc al,[eax]
0000376E  0000              add [eax],al
00003770  90                nop
00003771  0800              or [eax],al
00003773  001A              add [edx],bl
00003775  93                xchg eax,ebx
00003776  0408              add al,0x8
00003778  1300              adc eax,[eax]
0000377A  0000              add [eax],al
0000377C  2200              and al,[eax]
0000377E  0C00              or al,0x0
00003780  9D                popf
00003781  0800              or [eax],al
00003783  008A96040805      add [edx+0x5080496],cl
00003789  0000              add [eax],al
0000378B  0022              add [edx],ah
0000378D  000C00            add [eax+eax],cl
00003790  C508              lds ecx,[eax]
00003792  0000              add [eax],al
00003794  88B104080000      mov [ecx+0x804],dh
0000379A  0000              add [eax],al
0000379C  1000              adc [eax],al
0000379E  1900              sbb [eax],eax
000037A0  D108              ror dword [eax],1
000037A2  0000              add [eax],al
000037A4  0A940408050000    or dl,[esp+eax+0x508]
000037AB  0022              add [edx],ah
000037AD  000C00            add [eax+eax],cl
000037B0  F5                cmc
000037B1  0800              or [eax],al
000037B3  00649704          add [edi+edx*4+0x4],ah
000037B7  0808              or [eax],cl
000037B9  0000              add [eax],al
000037BB  0022              add [edx],ah
000037BD  000C00            add [eax+eax],cl
000037C0  1B09              sbb ecx,[ecx]
000037C2  0000              add [eax],al
000037C4  2E95              cs xchg eax,ebp
000037C6  0408              add al,0x8
000037C8  37                aaa
000037C9  0000              add [eax],al
000037CB  0022              add [edx],ah
000037CD  000C00            add [eax+eax],cl
000037D0  4D                dec ebp
000037D1  0900              or [eax],eax
000037D3  00A49504082700    add [ebp+edx*4+0x270804],ah
000037DA  0000              add [eax],al
000037DC  2200              and al,[eax]
000037DE  0C00              or al,0x0
000037E0  7C09              jl 0x37eb
000037E2  0000              add [eax],al
000037E4  10940408130000    adc [esp+eax+0x1308],dl
000037EB  0022              add [edx],ah
000037ED  000C00            add [eax+eax],cl
000037F0  AA                stosb
000037F1  0900              or [eax],eax
000037F3  0000              add [eax],al
000037F5  0000              add [eax],al
000037F7  0000              add [eax],al
000037F9  0000              add [eax],al
000037FB  0012              add [edx],dl
000037FD  0000              add [eax],al
000037FF  00C2              add dl,al
00003801  0900              or [eax],eax
00003803  0020              add [eax],ah
00003805  96                xchg eax,esi
00003806  0408              add al,0x8
00003808  2F                das
00003809  0000              add [eax],al
0000380B  0022              add [edx],ah
0000380D  000C00            add [eax+eax],cl
00003810  ED                in eax,dx
00003811  0900              or [eax],eax
00003813  009A93040857      add [edx+0x57080493],bl
00003819  0000              add [eax],al
0000381B  0022              add [edx],ah
0000381D  000C00            add [eax+eax],cl
00003820  06                push es
00003821  0A00              or al,[eax]
00003823  0000              add [eax],al
00003825  0000              add [eax],al
00003827  0000              add [eax],al
00003829  0000              add [eax],al
0000382B  0012              add [edx],dl
0000382D  0000              add [eax],al
0000382F  00550A            add [ebp+0xa],dl
00003832  0000              add [eax],al
00003834  E296              loop 0x37cc
00003836  0408              add al,0x8
00003838  0A00              or al,[eax]
0000383A  0000              add [eax],al
0000383C  2200              and al,[eax]
0000383E  0C00              or al,0x0
00003840  810A000090B1      or dword [edx],0xb1900000
00003846  0408              add al,0x8
00003848  0000              add [eax],al
0000384A  0000              add [eax],al
0000384C  1000              adc [eax],al
0000384E  1900              sbb [eax],eax
00003850  860A              xchg cl,[edx]
00003852  0000              add [eax],al
00003854  0000              add [eax],al
00003856  0000              add [eax],al
00003858  0000              add [eax],al
0000385A  0000              add [eax],al
0000385C  1200              adc al,[eax]
0000385E  0000              add [eax],al
00003860  A4                movsb
00003861  0A00              or al,[eax]
00003863  00EC              add ah,ch
00003865  96                xchg eax,esi
00003866  0408              add al,0x8
00003868  2900              sub [eax],eax
0000386A  0000              add [eax],al
0000386C  2200              and al,[eax]
0000386E  0C00              or al,0x0
00003870  C3                ret
00003871  0A00              or al,[eax]
00003873  0000              add [eax],al
00003875  0000              add [eax],al
00003877  0000              add [eax],al
00003879  0000              add [eax],al
0000387B  0012              add [edx],dl
0000387D  0000              add [eax],al
0000387F  0012              add [edx],dl
00003881  0B00              or eax,[eax]
00003883  0028              add [eax],ch
00003885  97                xchg eax,edi
00003886  0408              add al,0x8
00003888  3C00              cmp al,0x0
0000388A  0000              add [eax],al
0000388C  2200              and al,[eax]
0000388E  0C00              or al,0x0
00003890  780B              js 0x389d
00003892  0000              add [eax],al
00003894  0C95              or al,0x95
00003896  0408              add al,0x8
00003898  0800              or [eax],al
0000389A  0000              add [eax],al
0000389C  2200              and al,[eax]
0000389E  0C00              or al,0x0
000038A0  AB                stosd
000038A1  0B00              or eax,[eax]
000038A3  0000              add [eax],al
000038A5  0000              add [eax],al
000038A7  0000              add [eax],al
000038A9  0000              add [eax],al
000038AB  0012              add [edx],dl
000038AD  0000              add [eax],al
000038AF  00D1              add cl,dl
000038B1  0B00              or eax,[eax]
000038B3  00849604080500    add [esi+edx*4+0x50804],al
000038BA  0000              add [eax],al
000038BC  2200              and al,[eax]
000038BE  0C00              or al,0x0
000038C0  000C00            add [eax+eax],cl
000038C3  00F0              add al,dh
000038C5  890408            mov [eax+ecx],eax
000038C8  0000              add [eax],al
000038CA  0000              add [eax],al
000038CC  1200              adc al,[eax]
000038CE  0000              add [eax],al
000038D0  48                dec eax
000038D1  0C00              or al,0x0
000038D3  0088B1040800      add [eax+0x804b1],cl
000038D9  0000              add [eax],al
000038DB  0010              add [eax],dl
000038DD  0018              add [eax],bl
000038DF  004F0C            add [edi+0xc],cl
000038E2  0000              add [eax],al
000038E4  008A04080000      add [edx+0x804],cl
000038EA  0000              add [eax],al
000038EC  1200              adc al,[eax]
000038EE  0000              add [eax],al
000038F0  700C              jo 0x38fe
000038F2  0000              add [eax],al
000038F4  E391              jecxz 0x3887
000038F6  0408              add al,0x8
000038F8  0D00000022        or eax,0x22000000
000038FD  000C00            add [eax+eax],cl
00003900  8A0C00            mov cl,[eax+eax]
00003903  0000              add [eax],al
00003905  0000              add [eax],al
00003907  0000              add [eax],al
00003909  0000              add [eax],al
0000390B  0012              add [edx],dl
0000390D  0000              add [eax],al
0000390F  00A20C0000CE      add [edx+0xce00000c],ah
00003915  94                xchg eax,esp
00003916  0408              add al,0x8
00003918  3E0000            add [ds:eax],al
0000391B  0022              add [edx],ah
0000391D  000C00            add [eax+eax],cl
00003920  D00C00            ror byte [eax+eax],1
00003923  0000              add [eax],al
00003925  0000              add [eax],al
00003927  0000              add [eax],al
00003929  0000              add [eax],al
0000392B  0012              add [edx],dl
0000392D  0000              add [eax],al
0000392F  00F8              add al,bh
00003931  0C00              or al,0x0
00003933  000494            add [esp+edx*4],al
00003936  0408              add al,0x8
00003938  0500000022        add eax,0x22000000
0000393D  000C00            add [eax+eax],cl
00003940  1C0D              sbb al,0xd
00003942  0000              add [eax],al
00003944  0A940408050000    or dl,[esp+eax+0x508]
0000394B  0022              add [edx],ah
0000394D  000C00            add [eax+eax],cl
00003950  40                inc eax
00003951  0D0000DA97        or eax,0x97da0000
00003956  0408              add al,0x8
00003958  0000              add [eax],al
0000395A  0000              add [eax],al
0000395C  1202              adc al,[edx]
0000395E  0C00              or al,0x0
00003960  57                push edi
00003961  0D0000508B        or eax,0x8b500000
00003966  0408              add al,0x8
00003968  93                xchg eax,ebx
00003969  06                push es
0000396A  0000              add [eax],al
0000396C  1200              adc al,[eax]
0000396E  0C00              or al,0x0
00003970  5C                pop esp
00003971  0D00008888        or eax,0x88880000
00003976  0408              add al,0x8
00003978  0000              add [eax],al
0000397A  0000              add [eax],al
0000397C  1200              adc al,[eax]
0000397E  0A00              or al,[eax]
00003980  00696E            add [ecx+0x6e],ch
00003983  69742E6300696E69  imul esi,[esi+ebp+0x63],dword 0x696e6900
0000398B  7466              jz 0x39f3
0000398D  696E692E630063    imul ebp,[esi+0x69],dword 0x6300632e
00003994  7274              jc 0x3a0a
00003996  7374              jnc 0x3a0c
00003998  7566              jnz 0x3a00
0000399A  662E6300          o16 arpl [cs:eax],ax
0000399E  5F                pop edi
0000399F  5F                pop edi
000039A0  43                inc ebx
000039A1  54                push esp
000039A2  4F                dec edi
000039A3  52                push edx
000039A4  5F                pop edi
000039A5  4C                dec esp
000039A6  49                dec ecx
000039A7  53                push ebx
000039A8  54                push esp
000039A9  5F                pop edi
000039AA  5F                pop edi
000039AB  005F5F            add [edi+0x5f],bl
000039AE  44                inc esp
000039AF  54                push esp
000039B0  4F                dec edi
000039B1  52                push edx
000039B2  5F                pop edi
000039B3  4C                dec esp
000039B4  49                dec ecx
000039B5  53                push ebx
000039B6  54                push esp
000039B7  5F                pop edi
000039B8  5F                pop edi
000039B9  005F5F            add [edi+0x5f],bl
000039BC  4A                dec edx
000039BD  43                inc ebx
000039BE  52                push edx
000039BF  5F                pop edi
000039C0  4C                dec esp
000039C1  49                dec ecx
000039C2  53                push ebx
000039C3  54                push esp
000039C4  5F                pop edi
000039C5  5F                pop edi
000039C6  00646572          add [ebp+0x72],ah
000039CA  656769737465725F  imul esi,[gs:bp+di+0x74],dword 0x745f7265
         -74
000039D3  6D                insd
000039D4  5F                pop edi
000039D5  636C6F6E          arpl [edi+ebp*2+0x6e],bp
000039D9  657300            gs jnc 0x39dc
000039DC  7265              jc 0x3a43
000039DE  6769737465725F74  imul esi,[bp+di+0x74],dword 0x745f7265
000039E6  6D                insd
000039E7  5F                pop edi
000039E8  636C6F6E          arpl [edi+ebp*2+0x6e],bp
000039EC  657300            gs jnc 0x39ef
000039EF  5F                pop edi
000039F0  5F                pop edi
000039F1  646F              fs outsd
000039F3  5F                pop edi
000039F4  676C              a16 insb
000039F6  6F                outsd
000039F7  62616C            bound esp,[ecx+0x6c]
000039FA  5F                pop edi
000039FB  64746F            fs jz 0x3a6d
000039FE  7273              jc 0x3a73
00003A00  5F                pop edi
00003A01  61                popa
00003A02  7578              jnz 0x3a7c
00003A04  00636F            add [ebx+0x6f],ah
00003A07  6D                insd
00003A08  706C              jo 0x3a76
00003A0A  657465            gs jz 0x3a72
00003A0D  642E3333          xor esi,[cs:ebx]
00003A11  3238              xor bh,[eax]
00003A13  0064746F          add [esp+esi*2+0x6f],ah
00003A17  725F              jc 0x3a78
00003A19  6964782E33333330  imul esp,[eax+edi*2+0x2e],dword 0x30333333
00003A21  006672            add [esi+0x72],ah
00003A24  61                popa
00003A25  6D                insd
00003A26  655F              gs pop edi
00003A28  64756D            fs jnz 0x3a98
00003A2B  6D                insd
00003A2C  7900              jns 0x3a2e
00003A2E  5F                pop edi
00003A2F  5F                pop edi
00003A30  43                inc ebx
00003A31  54                push esp
00003A32  4F                dec edi
00003A33  52                push edx
00003A34  5F                pop edi
00003A35  45                inc ebp
00003A36  4E                dec esi
00003A37  44                inc esp
00003A38  5F                pop edi
00003A39  5F                pop edi
00003A3A  005F5F            add [edi+0x5f],bl
00003A3D  46                inc esi
00003A3E  52                push edx
00003A3F  41                inc ecx
00003A40  4D                dec ebp
00003A41  45                inc ebp
00003A42  5F                pop edi
00003A43  45                inc ebp
00003A44  4E                dec esi
00003A45  44                inc esp
00003A46  5F                pop edi
00003A47  5F                pop edi
00003A48  005F5F            add [edi+0x5f],bl
00003A4B  4A                dec edx
00003A4C  43                inc ebx
00003A4D  52                push edx
00003A4E  5F                pop edi
00003A4F  45                inc ebp
00003A50  4E                dec esi
00003A51  44                inc esp
00003A52  5F                pop edi
00003A53  5F                pop edi
00003A54  005F5F            add [edi+0x5f],bl
00003A57  646F              fs outsd
00003A59  5F                pop edi
00003A5A  676C              a16 insb
00003A5C  6F                outsd
00003A5D  62616C            bound esp,[ecx+0x6c]
00003A60  5F                pop edi
00003A61  63746F72          arpl [edi+ebp*2+0x72],si
00003A65  735F              jnc 0x3ac6
00003A67  61                popa
00003A68  7578              jnz 0x3ae2
00003A6A  0031              add [ecx],dh
00003A6C  37                aaa
00003A6D  3831              cmp [ecx],dh
00003A6F  3438              xor al,0x38
00003A71  385F31            cmp [edi+0x31],bl
00003A74  3438              xor al,0x38
00003A76  323439            xor dh,[ecx+edi]
00003A79  325F44            xor bl,[edi+0x44]
00003A7C  41                inc ecx
00003A7D  6C                insb
00003A7E  652E637070        arpl [cs:eax+0x70],si
00003A83  00656C            add [ebp+0x6c],ah
00003A86  662D696E          sub ax,0x6e69
00003A8A  69742E63005F474C  imul esi,[esi+ebp+0x63],dword 0x4c475f00
00003A92  4F                dec edi
00003A93  42                inc edx
00003A94  41                inc ecx
00003A95  4C                dec esp
00003A96  5F                pop edi
00003A97  4F                dec edi
00003A98  46                inc esi
00003A99  46                inc esi
00003A9A  53                push ebx
00003A9B  45                inc ebp
00003A9C  54                push esp
00003A9D  5F                pop edi
00003A9E  54                push esp
00003A9F  41                inc ecx
00003AA0  42                inc edx
00003AA1  4C                dec esp
00003AA2  45                inc ebp
00003AA3  5F                pop edi
00003AA4  005F5F            add [edi+0x5f],bl
00003AA7  696E69745F6172    imul ebp,[esi+0x69],dword 0x72615f74
00003AAE  7261              jc 0x3b11
00003AB0  795F              jns 0x3b11
00003AB2  656E              gs outsb
00003AB4  64005F5F          add [fs:edi+0x5f],bl
00003AB8  696E69745F6172    imul ebp,[esi+0x69],dword 0x72615f74
00003ABF  7261              jc 0x3b22
00003AC1  795F              jns 0x3b22
00003AC3  7374              jnc 0x3b39
00003AC5  61                popa
00003AC6  7274              jc 0x3b3c
00003AC8  005F44            add [edi+0x44],bl
00003ACB  59                pop ecx
00003ACC  4E                dec esi
00003ACD  41                inc ecx
00003ACE  4D                dec ebp
00003ACF  49                dec ecx
00003AD0  43                inc ebx
00003AD1  00646174          add [ecx+0x74],ah
00003AD5  61                popa
00003AD6  5F                pop edi
00003AD7  7374              jnc 0x3b4d
00003AD9  61                popa
00003ADA  7274              jc 0x3b50
00003ADC  005F5A            add [edi+0x5a],bl
00003ADF  4E                dec esi
00003AE0  53                push ebx
00003AE1  61                popa
00003AE2  49                dec ecx
00003AE3  6445              fs inc ebp
00003AE5  44                inc esp
00003AE6  324576            xor al,[ebp+0x76]
00003AE9  005F5A            add [edi+0x5a],bl
00003AEC  4E                dec esi
00003AED  53                push ebx
00003AEE  61                popa
00003AEF  49                dec ecx
00003AF0  6445              fs inc ebp
00003AF2  43                inc ebx
00003AF3  324576            xor al,[ebp+0x76]
00003AF6  005F5A            add [edi+0x5a],bl
00003AF9  4E                dec esi
00003AFA  53                push ebx
00003AFB  7438              jz 0x3b35
00003AFD  696F735F626173    imul ebp,[edi+0x73],dword 0x7361625f
00003B04  653473            gs xor al,0x73
00003B07  657466            gs jz 0x3b70
00003B0A  45                inc ebp
00003B0B  53                push ebx
00003B0C  7431              jz 0x3b3f
00003B0E  335F49            xor ebx,[edi+0x49]
00003B11  6F                outsd
00003B12  735F              jnc 0x3b73
00003B14  46                inc esi
00003B15  6D                insd
00003B16  7466              jz 0x3b7e
00003B18  6C                insb
00003B19  61                popa
00003B1A  677353            a16 jnc 0x3b70
00003B1D  305F00            xor [edi+0x0],bl
00003B20  5F                pop edi
00003B21  5A                pop edx
00003B22  4E                dec esi
00003B23  53                push ebx
00003B24  61                popa
00003B25  49                dec ecx
00003B26  6445              fs inc ebp
00003B28  44                inc esp
00003B29  314576            xor [ebp+0x76],eax
00003B2C  005F5A            add [edi+0x5a],bl
00003B2F  4E                dec esi
00003B30  53                push ebx
00003B31  6F                outsd
00003B32  6C                insb
00003B33  7345              jnc 0x3b7a
00003B35  6440              fs inc eax
00003B37  40                inc eax
00003B38  47                inc edi
00003B39  4C                dec esp
00003B3A  49                dec ecx
00003B3B  42                inc edx
00003B3C  43                inc ebx
00003B3D  58                pop eax
00003B3E  58                pop eax
00003B3F  5F                pop edi
00003B40  332E              xor ebp,[esi]
00003B42  3400              xor al,0x0
00003B44  5F                pop edi
00003B45  5A                pop edx
00003B46  4E                dec esi
00003B47  53                push ebx
00003B48  7431              jz 0x3b7b
00003B4A  325F56            xor bl,[edi+0x56]
00003B4D  6563746F72        arpl [gs:edi+ebp*2+0x72],si
00003B52  5F                pop edi
00003B53  626173            bound esp,[ecx+0x73]
00003B56  6549              gs dec ecx
00003B58  6453              fs push ebx
00003B5A  61                popa
00003B5B  49                dec ecx
00003B5C  6445              fs inc ebp
00003B5E  45                inc ebp
00003B5F  44                inc esp
00003B60  324576            xor al,[ebp+0x76]
00003B63  005F5A            add [edi+0x5a],bl
00003B66  4E                dec esi
00003B67  53                push ebx
00003B68  6F                outsd
00003B69  6C                insb
00003B6A  7345              jnc 0x3bb1
00003B6C  694040474C4942    imul eax,[eax+0x40],dword 0x42494c47
00003B73  43                inc ebx
00003B74  58                pop eax
00003B75  58                pop eax
00003B76  5F                pop edi
00003B77  332E              xor ebp,[esi]
00003B79  3400              xor al,0x0
00003B7B  5F                pop edi
00003B7C  5A                pop edx
00003B7D  4E                dec esi
00003B7E  53                push ebx
00003B7F  69727345526440    imul esi,[edx+0x73],dword 0x40645245
00003B86  40                inc eax
00003B87  47                inc edi
00003B88  4C                dec esp
00003B89  49                dec ecx
00003B8A  42                inc edx
00003B8B  43                inc ebx
00003B8C  58                pop eax
00003B8D  58                pop eax
00003B8E  5F                pop edi
00003B8F  332E              xor ebp,[esi]
00003B91  3400              xor al,0x0
00003B93  5F                pop edi
00003B94  5F                pop edi
00003B95  6C                insb
00003B96  6962635F637375    imul esp,[edx+0x63],dword 0x7573635f
00003B9D  5F                pop edi
00003B9E  66696E69005F      imul bp,[esi+0x69],word 0x5f00
00003BA4  7374              jnc 0x3c1a
00003BA6  61                popa
00003BA7  7274              jc 0x3c1d
00003BA9  005F5A            add [edi+0x5a],bl
00003BAC  4E                dec esi
00003BAD  395F5F            cmp [edi+0x5f],ebx
00003BB0  676E              a16 outsb
00003BB2  755F              jnz 0x3c13
00003BB4  637878            arpl [eax+0x78],di
00003BB7  3133              xor [ebx],esi
00003BB9  6E                outsb
00003BBA  65775F            gs ja 0x3c1c
00003BBD  61                popa
00003BBE  6C                insb
00003BBF  6C                insb
00003BC0  6F                outsd
00003BC1  636174            arpl [ecx+0x74],sp
00003BC4  6F                outsd
00003BC5  7249              jc 0x3c10
00003BC7  6445              fs inc ebp
00003BC9  38616C            cmp [ecx+0x6c],ah
00003BCC  6C                insb
00003BCD  6F                outsd
00003BCE  636174            arpl [ecx+0x74],sp
00003BD1  6545              gs inc ebp
00003BD3  6A50              push byte +0x50
00003BD5  4B                dec ebx
00003BD6  7600              jna 0x3bd8
00003BD8  5F                pop edi
00003BD9  5A                pop edx
00003BDA  4E                dec esi
00003BDB  53                push ebx
00003BDC  7432              jz 0x3c10
00003BDE  325F5F            xor bl,[edi+0x5f]
00003BE1  756E              jnz 0x3c51
00003BE3  696E697469616C    imul ebp,[esi+0x69],dword 0x6c616974
00003BEA  697A65645F6669    imul edi,[edx+0x65],dword 0x69665f64
00003BF1  6C                insb
00003BF2  6C                insb
00003BF3  5F                pop edi
00003BF4  6E                outsb
00003BF5  49                dec ecx
00003BF6  4C                dec esp
00003BF7  6231              bound esi,[ecx]
00003BF9  45                inc ebp
00003BFA  45                inc ebp
00003BFB  31355F5F756E      xor [0x6e755f5f],esi
00003C01  696E69745F6669    imul ebp,[esi+0x69],dword 0x69665f74
00003C08  6C                insb
00003C09  6C                insb
00003C0A  5F                pop edi
00003C0B  6E                outsb
00003C0C  49                dec ecx
00003C0D  50                push eax
00003C0E  646A64            fs push byte +0x64
00003C11  45                inc ebp
00003C12  45                inc ebp
00003C13  7654              jna 0x3c69
00003C15  5F                pop edi
00003C16  54                push esp
00003C17  305F52            xor [edi+0x52],bl
00003C1A  4B                dec ebx
00003C1B  54                push esp
00003C1C  315F00            xor [edi+0x0],ebx
00003C1F  5F                pop edi
00003C20  5A                pop edx
00003C21  53                push ebx
00003C22  746F              jz 0x3c93
00003C24  7253              jc 0x3c79
00003C26  7431              jz 0x3c59
00003C28  335F49            xor ebx,[edi+0x49]
00003C2B  6F                outsd
00003C2C  735F              jnc 0x3c8d
00003C2E  46                inc esi
00003C2F  6D                insd
00003C30  7466              jz 0x3c98
00003C32  6C                insb
00003C33  61                popa
00003C34  677353            a16 jnc 0x3c8a
00003C37  5F                pop edi
00003C38  005F5A            add [edi+0x5a],bl
00003C3B  53                push ebx
00003C3C  746C              jz 0x3caa
00003C3E  7349              jnc 0x3c89
00003C40  635374            arpl [ebx+0x74],dx
00003C43  3131              xor [ecx],esi
00003C45  636861            arpl [eax+0x61],bp
00003C48  725F              jc 0x3ca9
00003C4A  7472              jz 0x3cbe
00003C4C  61                popa
00003C4D  6974734963454552  imul esi,[ebx+esi*2+0x49],dword 0x52454563
00003C55  53                push ebx
00003C56  7431              jz 0x3c89
00003C58  336261            xor esp,[edx+0x61]
00003C5B  7369              jnc 0x3cc6
00003C5D  635F6F            arpl [edi+0x6f],bx
00003C60  7374              jnc 0x3cd6
00003C62  7265              jc 0x3cc9
00003C64  61                popa
00003C65  6D                insd
00003C66  49                dec ecx
00003C67  54                push esp
00003C68  5F                pop edi
00003C69  54                push esp
00003C6A  305F45            xor [edi+0x45],bl
00003C6D  53                push ebx
00003C6E  365F              ss pop edi
00003C70  53                push ebx
00003C71  7431              jz 0x3ca4
00003C73  335F53            xor ebx,[edi+0x53]
00003C76  657470            gs jz 0x3ce9
00003C79  7265              jc 0x3ce0
00003C7B  636973            arpl [ecx+0x73],bp
00003C7E  696F6E4040474C    imul ebp,[edi+0x6e],dword 0x4c474040
00003C85  49                dec ecx
00003C86  42                inc edx
00003C87  43                inc ebx
00003C88  58                pop eax
00003C89  58                pop eax
00003C8A  5F                pop edi
00003C8B  332E              xor ebp,[esi]
00003C8D  3400              xor al,0x0
00003C8F  5F                pop edi
00003C90  5A                pop edx
00003C91  4E                dec esi
00003C92  53                push ebx
00003C93  7431              jz 0x3cc6
00003C95  325F56            xor bl,[edi+0x56]
00003C98  6563746F72        arpl [gs:edi+ebp*2+0x72],si
00003C9D  5F                pop edi
00003C9E  626173            bound esp,[ecx+0x73]
00003CA1  6549              gs dec ecx
00003CA3  6453              fs push ebx
00003CA5  61                popa
00003CA6  49                dec ecx
00003CA7  6445              fs inc ebp
00003CA9  45                inc ebp
00003CAA  3132              xor [edx],esi
00003CAC  5F                pop edi
00003CAD  56                push esi
00003CAE  6563746F72        arpl [gs:edi+ebp*2+0x72],si
00003CB3  5F                pop edi
00003CB4  696D706C443245    imul ebp,[ebp+0x70],dword 0x4532446c
00003CBB  7600              jna 0x3cbd
00003CBD  5F                pop edi
00003CBE  5A                pop edx
00003CBF  4E                dec esi
00003CC0  395F5F            cmp [edi+0x5f],ebx
00003CC3  676E              a16 outsb
00003CC5  755F              jnz 0x3d26
00003CC7  637878            arpl [eax+0x78],di
00003CCA  3133              xor [ebx],esi
00003CCC  6E                outsb
00003CCD  65775F            gs ja 0x3d2f
00003CD0  61                popa
00003CD1  6C                insb
00003CD2  6C                insb
00003CD3  6F                outsd
00003CD4  636174            arpl [ecx+0x74],sp
00003CD7  6F                outsd
00003CD8  7249              jc 0x3d23
00003CDA  6445              fs inc ebp
00003CDC  43                inc ebx
00003CDD  324552            xor al,[ebp+0x52]
00003CE0  4B                dec ebx
00003CE1  53                push ebx
00003CE2  315F00            xor [edi+0x0],ebx
00003CE5  5F                pop edi
00003CE6  5A                pop edx
00003CE7  4E                dec esi
00003CE8  53                push ebx
00003CE9  7431              jz 0x3d1c
00003CEB  325F56            xor bl,[edi+0x56]
00003CEE  6563746F72        arpl [gs:edi+ebp*2+0x72],si
00003CF3  5F                pop edi
00003CF4  626173            bound esp,[ecx+0x73]
00003CF7  6549              gs dec ecx
00003CF9  6453              fs push ebx
00003CFB  61                popa
00003CFC  49                dec ecx
00003CFD  6445              fs inc ebp
00003CFF  45                inc ebp
00003D00  3137              xor [edi],esi
00003D02  5F                pop edi
00003D03  4D                dec ebp
00003D04  5F                pop edi
00003D05  637265            arpl [edx+0x65],si
00003D08  61                popa
00003D09  7465              jz 0x3d70
00003D0B  5F                pop edi
00003D0C  7374              jnc 0x3d82
00003D0E  6F                outsd
00003D0F  7261              jc 0x3d72
00003D11  676545            gs a16 inc ebp
00003D14  6A00              push byte +0x0
00003D16  5F                pop edi
00003D17  5F                pop edi
00003D18  676D              a16 insd
00003D1A  6F                outsd
00003D1B  6E                outsb
00003D1C  5F                pop edi
00003D1D  7374              jnc 0x3d93
00003D1F  61                popa
00003D20  7274              jc 0x3d96
00003D22  5F                pop edi
00003D23  5F                pop edi
00003D24  005F4A            add [edi+0x4a],bl
00003D27  765F              jna 0x3d88
00003D29  52                push edx
00003D2A  6567697374657243  imul esi,[gs:bp+di+0x74],dword 0x6c437265
         -6C
00003D33  61                popa
00003D34  7373              jnc 0x3da9
00003D36  657300            gs jnc 0x3d39
00003D39  5F                pop edi
00003D3A  66705F            o16 jo 0x3d9c
00003D3D  6877005F5A        push dword 0x5a5f0077
00003D42  646C              fs insb
00003D44  50                push eax
00003D45  7640              jna 0x3d87
00003D47  40                inc eax
00003D48  47                inc edi
00003D49  4C                dec esp
00003D4A  49                dec ecx
00003D4B  42                inc edx
00003D4C  43                inc ebx
00003D4D  58                pop eax
00003D4E  58                pop eax
00003D4F  5F                pop edi
00003D50  332E              xor ebp,[esi]
00003D52  3400              xor al,0x0
00003D54  5F                pop edi
00003D55  66696E69005F      imul bp,[esi+0x69],word 0x5f00
00003D5B  5A                pop edx
00003D5C  53                push ebx
00003D5D  7438              jz 0x3d97
00003D5F  5F                pop edi
00003D60  44                inc esp
00003D61  657374            gs jnc 0x3dd8
00003D64  726F              jc 0x3dd5
00003D66  7949              jns 0x3db1
00003D68  50                push eax
00003D69  646445            fs inc ebp
00003D6C  7654              jna 0x3dc2
00003D6E  5F                pop edi
00003D6F  53                push ebx
00003D70  315F52            xor [edi+0x52],ebx
00003D73  53                push ebx
00003D74  61                popa
00003D75  49                dec ecx
00003D76  54                push esp
00003D77  305F45            xor [edi+0x45],bl
00003D7A  005F5A            add [edi+0x5a],bl
00003D7D  53                push ebx
00003D7E  7431              jz 0x3db1
00003D80  325F5F            xor bl,[edi+0x5f]
00003D83  6E                outsb
00003D84  697465725F626173  imul esi,[ebp+0x72],dword 0x7361625f
00003D8C  6549              gs dec ecx
00003D8E  50                push eax
00003D8F  6445              fs inc ebp
00003D91  4E                dec esi
00003D92  53                push ebx
00003D93  7431              jz 0x3dc6
00003D95  315F4E            xor [edi+0x4e],ebx
00003D98  697465725F626173  imul esi,[ebp+0x72],dword 0x7361625f
00003DA0  6549              gs dec ecx
00003DA2  54                push esp
00003DA3  5F                pop edi
00003DA4  45                inc ebp
00003DA5  3133              xor [ebx],esi
00003DA7  6974657261746F72  imul esi,[ebp+0x72],dword 0x726f7461
00003DAF  5F                pop edi
00003DB0  7479              jz 0x3e2b
00003DB2  7065              jo 0x3e19
00003DB4  45                inc ebp
00003DB5  53                push ebx
00003DB6  325F00            xor bl,[edi+0x0]
00003DB9  5F                pop edi
00003DBA  5A                pop edx
00003DBB  4E                dec esi
00003DBC  53                push ebx
00003DBD  7438              jz 0x3df7
00003DBF  696F735F626173    imul ebp,[edi+0x73],dword 0x7361625f
00003DC6  65313573796E63    xor [gs:0x636e7973],esi
00003DCD  5F                pop edi
00003DCE  7769              ja 0x3e39
00003DD0  7468              jz 0x3e3a
00003DD2  5F                pop edi
00003DD3  7374              jnc 0x3e49
00003DD5  64696F4562404047  imul ebp,[fs:edi+0x45],dword 0x47404062
00003DDD  4C                dec esp
00003DDE  49                dec ecx
00003DDF  42                inc edx
00003DE0  43                inc ebx
00003DE1  58                pop eax
00003DE2  58                pop eax
00003DE3  5F                pop edi
00003DE4  332E              xor ebp,[esi]
00003DE6  3400              xor al,0x0
00003DE8  5F                pop edi
00003DE9  5A                pop edx
00003DEA  4E                dec esi
00003DEB  53                push ebx
00003DEC  7436              jz 0x3e24
00003DEE  7665              jna 0x3e55
00003DF0  63746F72          arpl [edi+ebp*2+0x72],si
00003DF4  49                dec ecx
00003DF5  6453              fs push ebx
00003DF7  61                popa
00003DF8  49                dec ecx
00003DF9  6445              fs inc ebp
00003DFB  45                inc ebp
00003DFC  43                inc ebx
00003DFD  32456A            xor al,[ebp+0x6a]
00003E00  52                push edx
00003E01  4B                dec ebx
00003E02  6452              fs push edx
00003E04  4B                dec ebx
00003E05  53                push ebx
00003E06  305F00            xor [edi+0x0],bl
00003E09  5F                pop edi
00003E0A  5A                pop edx
00003E0B  53                push ebx
00003E0C  746F              jz 0x3e7d
00003E0E  7253              jc 0x3e63
00003E10  7431              jz 0x3e43
00003E12  335F49            xor ebx,[edi+0x49]
00003E15  6F                outsd
00003E16  735F              jnc 0x3e77
00003E18  4F                dec edi
00003E19  7065              jo 0x3e80
00003E1B  6E                outsb
00003E1C  6D                insd
00003E1D  6F                outsd
00003E1E  646553            gs push ebx
00003E21  5F                pop edi
00003E22  005F5A            add [edi+0x5a],bl
00003E25  53                push ebx
00003E26  7435              jz 0x3e5d
00003E28  666978656452      imul di,[eax+0x65],word 0x5264
00003E2E  53                push ebx
00003E2F  7438              jz 0x3e69
00003E31  696F735F626173    imul ebp,[edi+0x73],dword 0x7361625f
00003E38  65005F5A          add [gs:edi+0x5a],bl
00003E3C  53                push ebx
00003E3D  7432              jz 0x3e71
00003E3F  345F              xor al,0x5f
00003E41  5F                pop edi
00003E42  756E              jnz 0x3eb2
00003E44  696E697469616C    imul ebp,[esi+0x69],dword 0x6c616974
00003E4B  697A65645F6669    imul edi,[edx+0x65],dword 0x69665f64
00003E52  6C                insb
00003E53  6C                insb
00003E54  5F                pop edi
00003E55  6E                outsb
00003E56  5F                pop edi
00003E57  61                popa
00003E58  49                dec ecx
00003E59  50                push eax
00003E5A  646A64            fs push byte +0x64
00003E5D  6445              fs inc ebp
00003E5F  7654              jna 0x3eb5
00003E61  5F                pop edi
00003E62  54                push esp
00003E63  305F52            xor [edi+0x52],bl
00003E66  4B                dec ebx
00003E67  54                push esp
00003E68  315F52            xor [edi+0x52],ebx
00003E6B  53                push ebx
00003E6C  61                popa
00003E6D  49                dec ecx
00003E6E  54                push esp
00003E6F  325F45            xor bl,[edi+0x45]
00003E72  005F5A            add [edi+0x5a],bl
00003E75  4E                dec esi
00003E76  53                push ebx
00003E77  7436              jz 0x3eaf
00003E79  7665              jna 0x3ee0
00003E7B  63746F72          arpl [edi+ebp*2+0x72],si
00003E7F  49                dec ecx
00003E80  6453              fs push ebx
00003E82  61                popa
00003E83  49                dec ecx
00003E84  6445              fs inc ebp
00003E86  45                inc ebp
00003E87  44                inc esp
00003E88  324576            xor al,[ebp+0x76]
00003E8B  005F5F            add [edi+0x5f],bl
00003E8E  6C                insb
00003E8F  6962635F737461    imul esp,[edx+0x63],dword 0x6174735f
00003E96  7274              jc 0x3f0c
00003E98  5F                pop edi
00003E99  6D                insd
00003E9A  61                popa
00003E9B  696E4040474C49    imul ebp,[esi+0x40],dword 0x494c4740
00003EA2  42                inc edx
00003EA3  43                inc ebx
00003EA4  5F                pop edi
00003EA5  322E              xor ch,[esi]
00003EA7  3000              xor [eax],al
00003EA9  5F                pop edi
00003EAA  5A                pop edx
00003EAB  53                push ebx
00003EAC  746F              jz 0x3f1d
00003EAE  52                push edx
00003EAF  52                push edx
00003EB0  53                push ebx
00003EB1  7431              jz 0x3ee4
00003EB3  335F49            xor ebx,[edi+0x49]
00003EB6  6F                outsd
00003EB7  735F              jnc 0x3f18
00003EB9  46                inc esi
00003EBA  6D                insd
00003EBB  7466              jz 0x3f23
00003EBD  6C                insb
00003EBE  61                popa
00003EBF  677353            a16 jnc 0x3f15
00003EC2  5F                pop edi
00003EC3  005F5A            add [edi+0x5a],bl
00003EC6  4E                dec esi
00003EC7  53                push ebx
00003EC8  61                popa
00003EC9  49                dec ecx
00003ECA  6445              fs inc ebp
00003ECC  43                inc ebx
00003ECD  324552            xor al,[ebp+0x52]
00003ED0  4B                dec ebx
00003ED1  53                push ebx
00003ED2  5F                pop edi
00003ED3  005F49            add [edi+0x49],bl
00003ED6  54                push esp
00003ED7  4D                dec ebp
00003ED8  5F                pop edi
00003ED9  64657265          gs jc 0x3f42
00003EDD  676973746572544D  imul esi,[bp+di+0x74],dword 0x4d547265
00003EE5  43                inc ebx
00003EE6  6C                insb
00003EE7  6F                outsd
00003EE8  6E                outsb
00003EE9  6554              gs push esp
00003EEB  61                popa
00003EEC  626C6500          bound ebp,[ebp+0x0]
00003EF0  5F                pop edi
00003EF1  5A                pop edx
00003EF2  53                push ebx
00003EF3  746C              jz 0x3f61
00003EF5  7349              jnc 0x3f40
00003EF7  53                push ebx
00003EF8  7431              jz 0x3f2b
00003EFA  316368            xor [ebx+0x68],esp
00003EFD  61                popa
00003EFE  725F              jc 0x3f5f
00003F00  7472              jz 0x3f74
00003F02  61                popa
00003F03  6974734963454552  imul esi,[ebx+esi*2+0x49],dword 0x52454563
00003F0B  53                push ebx
00003F0C  7431              jz 0x3f3f
00003F0E  336261            xor esp,[edx+0x61]
00003F11  7369              jnc 0x3f7c
00003F13  635F6F            arpl [edi+0x6f],bx
00003F16  7374              jnc 0x3f8c
00003F18  7265              jc 0x3f7f
00003F1A  61                popa
00003F1B  6D                insd
00003F1C  49                dec ecx
00003F1D  63545F45          arpl [edi+ebx*2+0x45],dx
00003F21  53                push ebx
00003F22  355F504B63        xor eax,0x634b505f
00003F27  40                inc eax
00003F28  40                inc eax
00003F29  47                inc edi
00003F2A  4C                dec esp
00003F2B  49                dec ecx
00003F2C  42                inc edx
00003F2D  43                inc ebx
00003F2E  58                pop eax
00003F2F  58                pop eax
00003F30  5F                pop edi
00003F31  332E              xor ebp,[esi]
00003F33  3400              xor al,0x0
00003F35  5F                pop edi
00003F36  49                dec ecx
00003F37  4F                dec edi
00003F38  5F                pop edi
00003F39  7374              jnc 0x3faf
00003F3B  64696E5F75736564  imul ebp,[fs:esi+0x5f],dword 0x64657375
00003F43  005F49            add [edi+0x49],bl
00003F46  54                push esp
00003F47  4D                dec ebp
00003F48  5F                pop edi
00003F49  7265              jc 0x3fb0
00003F4B  676973746572544D  imul esi,[bp+di+0x74],dword 0x4d547265
00003F53  43                inc ebx
00003F54  6C                insb
00003F55  6F                outsd
00003F56  6E                outsb
00003F57  6554              gs push esp
00003F59  61                popa
00003F5A  626C6500          bound ebp,[ebp+0x0]
00003F5E  5F                pop edi
00003F5F  5F                pop edi
00003F60  6461              fs popa
00003F62  7461              jz 0x3fc5
00003F64  5F                pop edi
00003F65  7374              jnc 0x3fdb
00003F67  61                popa
00003F68  7274              jc 0x3fde
00003F6A  007371            add [ebx+0x71],dh
00003F6D  7274              jc 0x3fe3
00003F6F  40                inc eax
00003F70  40                inc eax
00003F71  47                inc edi
00003F72  4C                dec esp
00003F73  49                dec ecx
00003F74  42                inc edx
00003F75  43                inc ebx
00003F76  5F                pop edi
00003F77  322E              xor ch,[esi]
00003F79  3000              xor [eax],al
00003F7B  5F                pop edi
00003F7C  5A                pop edx
00003F7D  4E                dec esi
00003F7E  53                push ebx
00003F7F  7436              jz 0x3fb7
00003F81  7665              jna 0x3fe8
00003F83  63746F72          arpl [edi+ebp*2+0x72],si
00003F87  49                dec ecx
00003F88  6453              fs push ebx
00003F8A  61                popa
00003F8B  49                dec ecx
00003F8C  6445              fs inc ebp
00003F8E  45                inc ebp
00003F8F  6978456A005F5A    imul edi,[eax+0x45],dword 0x5a5f006a
00003F96  4E                dec esi
00003F97  53                push ebx
00003F98  7431              jz 0x3fcb
00003F9A  325F56            xor bl,[edi+0x56]
00003F9D  6563746F72        arpl [gs:edi+ebp*2+0x72],si
00003FA2  5F                pop edi
00003FA3  626173            bound esp,[ecx+0x73]
00003FA6  6549              gs dec ecx
00003FA8  6453              fs push ebx
00003FAA  61                popa
00003FAB  49                dec ecx
00003FAC  6445              fs inc ebp
00003FAE  45                inc ebp
00003FAF  44                inc esp
00003FB0  314576            xor [ebp+0x76],eax
00003FB3  005F5A            add [edi+0x5a],bl
00003FB6  53                push ebx
00003FB7  7431              jz 0x3fea
00003FB9  327365            xor dh,[ebx+0x65]
00003FBC  7470              jz 0x402e
00003FBE  7265              jc 0x4025
00003FC0  636973            arpl [ecx+0x73],bp
00003FC3  696F6E69005F5A    imul ebp,[edi+0x6e],dword 0x5a5f0069
00003FCA  4E                dec esi
00003FCB  53                push ebx
00003FCC  7431              jz 0x3fff
00003FCE  325F56            xor bl,[edi+0x56]
00003FD1  6563746F72        arpl [gs:edi+ebp*2+0x72],si
00003FD6  5F                pop edi
00003FD7  626173            bound esp,[ecx+0x73]
00003FDA  6549              gs dec ecx
00003FDC  6453              fs push ebx
00003FDE  61                popa
00003FDF  49                dec ecx
00003FE0  6445              fs inc ebp
00003FE2  45                inc ebp
00003FE3  3132              xor [edx],esi
00003FE5  5F                pop edi
00003FE6  56                push esi
00003FE7  6563746F72        arpl [gs:edi+ebp*2+0x72],si
00003FEC  5F                pop edi
00003FED  696D706C433145    imul ebp,[ebp+0x70],dword 0x4531436c
00003FF4  52                push edx
00003FF5  4B                dec ebx
00003FF6  53                push ebx
00003FF7  305F00            xor [edi+0x0],bl
00003FFA  5F                pop edi
00003FFB  5A                pop edx
00003FFC  53                push ebx
00003FFD  7463              jz 0x4062
00003FFF  6F                outsd
00004000  53                push ebx
00004001  7431              jz 0x4034
00004003  335F49            xor ebx,[edi+0x49]
00004006  6F                outsd
00004007  735F              jnc 0x4068
00004009  46                inc esi
0000400A  6D                insd
0000400B  7466              jz 0x4073
0000400D  6C                insb
0000400E  61                popa
0000400F  677300            a16 jnc 0x4012
00004012  5F                pop edi
00004013  5A                pop edx
00004014  4E                dec esi
00004015  53                push ebx
00004016  7431              jz 0x4049
00004018  325F56            xor bl,[edi+0x56]
0000401B  6563746F72        arpl [gs:edi+ebp*2+0x72],si
00004020  5F                pop edi
00004021  626173            bound esp,[ecx+0x73]
00004024  6549              gs dec ecx
00004026  6453              fs push ebx
00004028  61                popa
00004029  49                dec ecx
0000402A  6445              fs inc ebp
0000402C  45                inc ebp
0000402D  43                inc ebx
0000402E  31456A            xor [ebp+0x6a],eax
00004031  52                push edx
00004032  4B                dec ebx
00004033  53                push ebx
00004034  305F00            xor [edi+0x0],bl
00004037  5F                pop edi
00004038  5A                pop edx
00004039  3974696D          cmp [ecx+ebp*2+0x6d],esi
0000403D  6566726F          gs o16 jc 0x40b0
00004041  6D                insd
00004042  7864              js 0x40a8
00004044  64005F5A          add [fs:edi+0x5a],bl
00004048  4E                dec esi
00004049  53                push ebx
0000404A  61                popa
0000404B  49                dec ecx
0000404C  6445              fs inc ebp
0000404E  43                inc ebx
0000404F  314552            xor [ebp+0x52],eax
00004052  4B                dec ebx
00004053  53                push ebx
00004054  5F                pop edi
00004055  005F5A            add [edi+0x5a],bl
00004058  4E                dec esi
00004059  53                push ebx
0000405A  7431              jz 0x408d
0000405C  325F56            xor bl,[edi+0x56]
0000405F  6563746F72        arpl [gs:edi+ebp*2+0x72],si
00004064  5F                pop edi
00004065  626173            bound esp,[ecx+0x73]
00004068  6549              gs dec ecx
0000406A  6453              fs push ebx
0000406C  61                popa
0000406D  49                dec ecx
0000406E  6445              fs inc ebp
00004070  45                inc ebp
00004071  43                inc ebx
00004072  32456A            xor al,[ebp+0x6a]
00004075  52                push edx
00004076  4B                dec ebx
00004077  53                push ebx
00004078  305F00            xor [edi+0x0],bl
0000407B  5F                pop edi
0000407C  5A                pop edx
0000407D  4E                dec esi
0000407E  53                push ebx
0000407F  7436              jz 0x40b7
00004081  7665              jna 0x40e8
00004083  63746F72          arpl [edi+ebp*2+0x72],si
00004087  49                dec ecx
00004088  6453              fs push ebx
0000408A  61                popa
0000408B  49                dec ecx
0000408C  6445              fs inc ebp
0000408E  45                inc ebp
0000408F  43                inc ebx
00004090  31456A            xor [ebp+0x6a],eax
00004093  52                push edx
00004094  4B                dec ebx
00004095  6452              fs push edx
00004097  4B                dec ebx
00004098  53                push ebx
00004099  305F00            xor [edi+0x0],bl
0000409C  5F                pop edi
0000409D  5F                pop edi
0000409E  54                push esp
0000409F  4D                dec ebp
000040A0  43                inc ebx
000040A1  5F                pop edi
000040A2  45                inc ebp
000040A3  4E                dec esi
000040A4  44                inc esp
000040A5  5F                pop edi
000040A6  5F                pop edi
000040A7  005F5A            add [edi+0x5a],bl
000040AA  4E                dec esi
000040AB  53                push ebx
000040AC  7431              jz 0x40df
000040AE  3462              xor al,0x62
000040B0  61                popa
000040B1  7369              jnc 0x411c
000040B3  635F69            arpl [edi+0x69],bx
000040B6  667374            o16 jnc 0x412d
000040B9  7265              jc 0x4120
000040BB  61                popa
000040BC  6D                insd
000040BD  49                dec ecx
000040BE  635374            arpl [ebx+0x74],dx
000040C1  3131              xor [ecx],esi
000040C3  636861            arpl [eax+0x61],bp
000040C6  725F              jc 0x4127
000040C8  7472              jz 0x413c
000040CA  61                popa
000040CB  6974734963454544  imul esi,[ebx+esi*2+0x49],dword 0x44454563
000040D3  314576            xor [ebp+0x76],eax
000040D6  40                inc eax
000040D7  40                inc eax
000040D8  47                inc edi
000040D9  4C                dec esp
000040DA  49                dec ecx
000040DB  42                inc edx
000040DC  43                inc ebx
000040DD  58                pop eax
000040DE  58                pop eax
000040DF  5F                pop edi
000040E0  332E              xor ebp,[esi]
000040E2  3400              xor al,0x0
000040E4  5F                pop edi
000040E5  5F                pop edi
000040E6  64736F            fs jnc 0x4158
000040E9  5F                pop edi
000040EA  68616E646C        push dword 0x6c646e61
000040EF  65005F5A          add [gs:edi+0x5a],bl
000040F3  53                push ebx
000040F4  7461              jz 0x4157
000040F6  4E                dec esi
000040F7  52                push edx
000040F8  53                push ebx
000040F9  7431              jz 0x412c
000040FB  335F49            xor ebx,[edi+0x49]
000040FE  6F                outsd
000040FF  735F              jnc 0x4160
00004101  46                inc esi
00004102  6D                insd
00004103  7466              jz 0x416b
00004105  6C                insb
00004106  61                popa
00004107  677353            a16 jnc 0x415d
0000410A  5F                pop edi
0000410B  005F5F            add [edi+0x5f],bl
0000410E  44                inc esp
0000410F  54                push esp
00004110  4F                dec edi
00004111  52                push edx
00004112  5F                pop edi
00004113  45                inc ebp
00004114  4E                dec esi
00004115  44                inc esp
00004116  5F                pop edi
00004117  5F                pop edi
00004118  005F5F            add [edi+0x5f],bl
0000411B  6C                insb
0000411C  6962635F637375    imul esp,[edx+0x63],dword 0x7573635f
00004123  5F                pop edi
00004124  696E6974005F5A    imul ebp,[esi+0x69],dword 0x5a5f0074
0000412B  53                push ebx
0000412C  7432              jz 0x4160
0000412E  30756E            xor [ebp+0x6e],dh
00004131  696E697469616C    imul ebp,[esi+0x69],dword 0x6c616974
00004138  697A65645F6669    imul edi,[edx+0x65],dword 0x69665f64
0000413F  6C                insb
00004140  6C                insb
00004141  5F                pop edi
00004142  6E                outsb
00004143  49                dec ecx
00004144  50                push eax
00004145  646A64            fs push byte +0x64
00004148  45                inc ebp
00004149  7654              jna 0x419f
0000414B  5F                pop edi
0000414C  54                push esp
0000414D  305F52            xor [edi+0x52],bl
00004150  4B                dec ebx
00004151  54                push esp
00004152  315F00            xor [edi+0x0],ebx
00004155  5F                pop edi
00004156  5A                pop edx
00004157  4E                dec esi
00004158  53                push ebx
00004159  7431              jz 0x418c
0000415B  3462              xor al,0x62
0000415D  61                popa
0000415E  7369              jnc 0x41c9
00004160  635F6F            arpl [edi+0x6f],bx
00004163  667374            o16 jnc 0x41da
00004166  7265              jc 0x41cd
00004168  61                popa
00004169  6D                insd
0000416A  49                dec ecx
0000416B  635374            arpl [ebx+0x74],dx
0000416E  3131              xor [ecx],esi
00004170  636861            arpl [eax+0x61],bp
00004173  725F              jc 0x41d4
00004175  7472              jz 0x41e9
00004177  61                popa
00004178  6974734963454544  imul esi,[ebx+esi*2+0x49],dword 0x44454563
00004180  314576            xor [ebp+0x76],eax
00004183  40                inc eax
00004184  40                inc eax
00004185  47                inc edi
00004186  4C                dec esp
00004187  49                dec ecx
00004188  42                inc edx
00004189  43                inc ebx
0000418A  58                pop eax
0000418B  58                pop eax
0000418C  5F                pop edi
0000418D  332E              xor ebp,[esi]
0000418F  3400              xor al,0x0
00004191  5F                pop edi
00004192  5A                pop edx
00004193  4E                dec esi
00004194  395F5F            cmp [edi+0x5f],ebx
00004197  676E              a16 outsb
00004199  755F              jnz 0x41fa
0000419B  637878            arpl [eax+0x78],di
0000419E  3133              xor [ebx],esi
000041A0  6E                outsb
000041A1  65775F            gs ja 0x4203
000041A4  61                popa
000041A5  6C                insb
000041A6  6C                insb
000041A7  6F                outsd
000041A8  636174            arpl [ecx+0x74],sp
000041AB  6F                outsd
000041AC  7249              jc 0x41f7
000041AE  6445              fs inc ebp
000041B0  3130              xor [eax],esi
000041B2  646561            gs popa
000041B5  6C                insb
000041B6  6C                insb
000041B7  6F                outsd
000041B8  636174            arpl [ecx+0x74],sp
000041BB  6545              gs inc ebp
000041BD  50                push eax
000041BE  646A00            fs push byte +0x0
000041C1  5F                pop edi
000041C2  5A                pop edx
000041C3  4E                dec esi
000041C4  395F5F            cmp [edi+0x5f],ebx
000041C7  676E              a16 outsb
000041C9  755F              jnz 0x422a
000041CB  637878            arpl [eax+0x78],di
000041CE  3133              xor [ebx],esi
000041D0  6E                outsb
000041D1  65775F            gs ja 0x4233
000041D4  61                popa
000041D5  6C                insb
000041D6  6C                insb
000041D7  6F                outsd
000041D8  636174            arpl [ecx+0x74],sp
000041DB  6F                outsd
000041DC  7249              jc 0x4227
000041DE  6445              fs inc ebp
000041E0  43                inc ebx
000041E1  324576            xor al,[ebp+0x76]
000041E4  005F5A            add [edi+0x5a],bl
000041E7  53                push ebx
000041E8  7438              jz 0x4222
000041EA  5F                pop edi
000041EB  44                inc esp
000041EC  657374            gs jnc 0x4263
000041EF  726F              jc 0x4260
000041F1  7949              jns 0x423c
000041F3  50                push eax
000041F4  6445              fs inc ebp
000041F6  7654              jna 0x424c
000041F8  5F                pop edi
000041F9  53                push ebx
000041FA  315F00            xor [edi+0x0],ebx
000041FD  5F                pop edi
000041FE  5A                pop edx
000041FF  6E                outsb
00004200  776A              ja 0x426c
00004202  40                inc eax
00004203  40                inc eax
00004204  47                inc edi
00004205  4C                dec esp
00004206  49                dec ecx
00004207  42                inc edx
00004208  43                inc ebx
00004209  58                pop eax
0000420A  58                pop eax
0000420B  5F                pop edi
0000420C  332E              xor ebp,[esi]
0000420E  3400              xor al,0x0
00004210  5F                pop edi
00004211  5A                pop edx
00004212  4E                dec esi
00004213  53                push ebx
00004214  61                popa
00004215  49                dec ecx
00004216  6445              fs inc ebp
00004218  43                inc ebx
00004219  314576            xor [ebp+0x76],eax
0000421C  005F5A            add [edi+0x5a],bl
0000421F  4E                dec esi
00004220  395F5F            cmp [edi+0x5f],ebx
00004223  676E              a16 outsb
00004225  755F              jnz 0x4286
00004227  637878            arpl [eax+0x78],di
0000422A  3133              xor [ebx],esi
0000422C  6E                outsb
0000422D  65775F            gs ja 0x428f
00004230  61                popa
00004231  6C                insb
00004232  6C                insb
00004233  6F                outsd
00004234  636174            arpl [ecx+0x74],sp
00004237  6F                outsd
00004238  7249              jc 0x4283
0000423A  6445              fs inc ebp
0000423C  43                inc ebx
0000423D  314552            xor [ebp+0x52],eax
00004240  4B                dec ebx
00004241  53                push ebx
00004242  315F00            xor [edi+0x0],ebx
00004245  5F                pop edi
00004246  5F                pop edi
00004247  627373            bound esi,[ebx+0x73]
0000424A  5F                pop edi
0000424B  7374              jnc 0x42c1
0000424D  61                popa
0000424E  7274              jc 0x42c4
00004250  005F5A            add [edi+0x5a],bl
00004253  4E                dec esi
00004254  395F5F            cmp [edi+0x5f],ebx
00004257  676E              a16 outsb
00004259  755F              jnz 0x42ba
0000425B  637878            arpl [eax+0x78],di
0000425E  3133              xor [ebx],esi
00004260  6E                outsb
00004261  65775F            gs ja 0x42c3
00004264  61                popa
00004265  6C                insb
00004266  6C                insb
00004267  6F                outsd
00004268  636174            arpl [ecx+0x74],sp
0000426B  6F                outsd
0000426C  7249              jc 0x42b7
0000426E  6445              fs inc ebp
00004270  44                inc esp
00004271  314576            xor [ebp+0x76],eax
00004274  005F5A            add [edi+0x5a],bl
00004277  4E                dec esi
00004278  53                push ebx
00004279  7431              jz 0x42ac
0000427B  305F49            xor [edi+0x49],bl
0000427E  7465              jz 0x42e5
00004280  725F              jc 0x42e1
00004282  626173            bound esp,[ecx+0x73]
00004285  6549              gs dec ecx
00004287  50                push eax
00004288  644C              fs dec esp
0000428A  6230              bound esi,[eax]
0000428C  45                inc ebp
0000428D  45                inc ebp
0000428E  37                aaa
0000428F  5F                pop edi
00004290  53                push ebx
00004291  5F                pop edi
00004292  626173            bound esp,[ecx+0x73]
00004295  6545              gs inc ebp
00004297  53                push ebx
00004298  305F00            xor [edi+0x0],bl
0000429B  5F                pop edi
0000429C  5A                pop edx
0000429D  4E                dec esi
0000429E  53                push ebx
0000429F  7431              jz 0x42d2
000042A1  325F56            xor bl,[edi+0x56]
000042A4  6563746F72        arpl [gs:edi+ebp*2+0x72],si
000042A9  5F                pop edi
000042AA  626173            bound esp,[ecx+0x73]
000042AD  6549              gs dec ecx
000042AF  6453              fs push ebx
000042B1  61                popa
000042B2  49                dec ecx
000042B3  6445              fs inc ebp
000042B5  45                inc ebp
000042B6  3132              xor [edx],esi
000042B8  5F                pop edi
000042B9  56                push esi
000042BA  6563746F72        arpl [gs:edi+ebp*2+0x72],si
000042BF  5F                pop edi
000042C0  696D706C433245    imul ebp,[ebp+0x70],dword 0x4532436c
000042C7  52                push edx
000042C8  4B                dec ebx
000042C9  53                push ebx
000042CA  305F00            xor [edi+0x0],bl
000042CD  5F                pop edi
000042CE  5A                pop edx
000042CF  4E                dec esi
000042D0  53                push ebx
000042D1  7431              jz 0x4304
000042D3  325F56            xor bl,[edi+0x56]
000042D6  6563746F72        arpl [gs:edi+ebp*2+0x72],si
000042DB  5F                pop edi
000042DC  626173            bound esp,[ecx+0x73]
000042DF  6549              gs dec ecx
000042E1  6453              fs push ebx
000042E3  61                popa
000042E4  49                dec ecx
000042E5  6445              fs inc ebp
000042E7  45                inc ebp
000042E8  3133              xor [ebx],esi
000042EA  5F                pop edi
000042EB  4D                dec ebp
000042EC  5F                pop edi
000042ED  646561            gs popa
000042F0  6C                insb
000042F1  6C                insb
000042F2  6F                outsd
000042F3  636174            arpl [ecx+0x74],sp
000042F6  6545              gs inc ebp
000042F8  50                push eax
000042F9  646A00            fs push byte +0x0
000042FC  5F                pop edi
000042FD  5A                pop edx
000042FE  4E                dec esi
000042FF  53                push ebx
00004300  7431              jz 0x4333
00004302  325F56            xor bl,[edi+0x56]
00004305  6563746F72        arpl [gs:edi+ebp*2+0x72],si
0000430A  5F                pop edi
0000430B  626173            bound esp,[ecx+0x73]
0000430E  6549              gs dec ecx
00004310  6453              fs push ebx
00004312  61                popa
00004313  49                dec ecx
00004314  6445              fs inc ebp
00004316  45                inc ebp
00004317  3132              xor [edx],esi
00004319  5F                pop edi
0000431A  56                push esi
0000431B  6563746F72        arpl [gs:edi+ebp*2+0x72],si
00004320  5F                pop edi
00004321  696D706C443145    imul ebp,[ebp+0x70],dword 0x4531446c
00004328  7600              jna 0x432a
0000432A  5F                pop edi
0000432B  5A                pop edx
0000432C  4E                dec esi
0000432D  53                push ebx
0000432E  69727345526940    imul esi,[edx+0x73],dword 0x40695245
00004335  40                inc eax
00004336  47                inc edi
00004337  4C                dec esp
00004338  49                dec ecx
00004339  42                inc edx
0000433A  43                inc ebx
0000433B  58                pop eax
0000433C  58                pop eax
0000433D  5F                pop edi
0000433E  332E              xor ebp,[esi]
00004340  3400              xor al,0x0
00004342  5F                pop edi
00004343  5A                pop edx
00004344  4E                dec esi
00004345  53                push ebx
00004346  7431              jz 0x4379
00004348  325F56            xor bl,[edi+0x56]
0000434B  6563746F72        arpl [gs:edi+ebp*2+0x72],si
00004350  5F                pop edi
00004351  626173            bound esp,[ecx+0x73]
00004354  6549              gs dec ecx
00004356  6453              fs push ebx
00004358  61                popa
00004359  49                dec ecx
0000435A  6445              fs inc ebp
0000435C  45                inc ebp
0000435D  3131              xor [ecx],esi
0000435F  5F                pop edi
00004360  4D                dec ebp
00004361  5F                pop edi
00004362  61                popa
00004363  6C                insb
00004364  6C                insb
00004365  6F                outsd
00004366  636174            arpl [ecx+0x74],sp
00004369  6545              gs inc ebp
0000436B  6A00              push byte +0x0
0000436D  5F                pop edi
0000436E  5A                pop edx
0000436F  4E                dec esi
00004370  53                push ebx
00004371  7436              jz 0x43a9
00004373  7665              jna 0x43da
00004375  63746F72          arpl [edi+ebp*2+0x72],si
00004379  49                dec ecx
0000437A  6453              fs push ebx
0000437C  61                popa
0000437D  49                dec ecx
0000437E  6445              fs inc ebp
00004380  45                inc ebp
00004381  44                inc esp
00004382  314576            xor [ebp+0x76],eax
00004385  005F5A            add [edi+0x5a],bl
00004388  4E                dec esi
00004389  53                push ebx
0000438A  7431              jz 0x43bd
0000438C  3462              xor al,0x62
0000438E  61                popa
0000438F  7369              jnc 0x43fa
00004391  635F69            arpl [edi+0x69],bx
00004394  667374            o16 jnc 0x440b
00004397  7265              jc 0x43fe
00004399  61                popa
0000439A  6D                insd
0000439B  49                dec ecx
0000439C  635374            arpl [ebx+0x74],dx
0000439F  3131              xor [ecx],esi
000043A1  636861            arpl [eax+0x61],bp
000043A4  725F              jc 0x4405
000043A6  7472              jz 0x441a
000043A8  61                popa
000043A9  6974734963454543  imul esi,[ebx+esi*2+0x49],dword 0x43454563
000043B1  314550            xor [ebp+0x50],eax
000043B4  4B                dec ebx
000043B5  635374            arpl [ebx+0x74],dx
000043B8  3133              xor [ebx],esi
000043BA  5F                pop edi
000043BB  49                dec ecx
000043BC  6F                outsd
000043BD  735F              jnc 0x441e
000043BF  4F                dec edi
000043C0  7065              jo 0x4427
000043C2  6E                outsb
000043C3  6D                insd
000043C4  6F                outsd
000043C5  646540            gs inc eax
000043C8  40                inc eax
000043C9  47                inc edi
000043CA  4C                dec esp
000043CB  49                dec ecx
000043CC  42                inc edx
000043CD  43                inc ebx
000043CE  58                pop eax
000043CF  58                pop eax
000043D0  5F                pop edi
000043D1  332E              xor ebp,[esi]
000043D3  3400              xor al,0x0
000043D5  5F                pop edi
000043D6  5A                pop edx
000043D7  4E                dec esi
000043D8  4B                dec ebx
000043D9  395F5F            cmp [edi+0x5f],ebx
000043DC  676E              a16 outsb
000043DE  755F              jnz 0x443f
000043E0  637878            arpl [eax+0x78],di
000043E3  3133              xor [ebx],esi
000043E5  6E                outsb
000043E6  65775F            gs ja 0x4448
000043E9  61                popa
000043EA  6C                insb
000043EB  6C                insb
000043EC  6F                outsd
000043ED  636174            arpl [ecx+0x74],sp
000043F0  6F                outsd
000043F1  7249              jc 0x443c
000043F3  6445              fs inc ebp
000043F5  386D61            cmp [ebp+0x61],ch
000043F8  785F              js 0x4459
000043FA  7369              jnc 0x4465
000043FC  7A65              jpe 0x4463
000043FE  45                inc ebp
000043FF  7600              jna 0x4401
00004401  5F                pop edi
00004402  656E              gs outsb
00004404  64005F5A          add [fs:edi+0x5a],bl
00004408  4E                dec esi
00004409  53                push ebx
0000440A  6F                outsd
0000440B  6C                insb
0000440C  7345              jnc 0x4453
0000440E  50                push eax
0000440F  46                inc esi
00004410  52                push edx
00004411  53                push ebx
00004412  6F                outsd
00004413  53                push ebx
00004414  5F                pop edi
00004415  45                inc ebp
00004416  40                inc eax
00004417  40                inc eax
00004418  47                inc edi
00004419  4C                dec esp
0000441A  49                dec ecx
0000441B  42                inc edx
0000441C  43                inc ebx
0000441D  58                pop eax
0000441E  58                pop eax
0000441F  5F                pop edi
00004420  332E              xor ebp,[esi]
00004422  3400              xor al,0x0
00004424  5F                pop edi
00004425  5A                pop edx
00004426  53                push ebx
00004427  7436              jz 0x445f
00004429  66696C6C5F6E49    imul bp,[esp+ebp*2+0x5f],word 0x496e
00004430  50                push eax
00004431  646A64            fs push byte +0x64
00004434  45                inc ebp
00004435  54                push esp
00004436  5F                pop edi
00004437  53                push ebx
00004438  315F54            xor [edi+0x54],ebx
0000443B  305F52            xor [edi+0x52],bl
0000443E  4B                dec ebx
0000443F  54                push esp
00004440  315F00            xor [edi+0x0],ebx
00004443  5F                pop edi
00004444  5A                pop edx
00004445  4E                dec esi
00004446  53                push ebx
00004447  7431              jz 0x447a
00004449  3462              xor al,0x62
0000444B  61                popa
0000444C  7369              jnc 0x44b7
0000444E  635F6F            arpl [edi+0x6f],bx
00004451  667374            o16 jnc 0x44c8
00004454  7265              jc 0x44bb
00004456  61                popa
00004457  6D                insd
00004458  49                dec ecx
00004459  635374            arpl [ebx+0x74],dx
0000445C  3131              xor [ecx],esi
0000445E  636861            arpl [eax+0x61],bp
00004461  725F              jc 0x44c2
00004463  7472              jz 0x44d7
00004465  61                popa
00004466  6974734963454543  imul esi,[ebx+esi*2+0x49],dword 0x43454563
0000446E  314550            xor [ebp+0x50],eax
00004471  4B                dec ebx
00004472  635374            arpl [ebx+0x74],dx
00004475  3133              xor [ebx],esi
00004477  5F                pop edi
00004478  49                dec ecx
00004479  6F                outsd
0000447A  735F              jnc 0x44db
0000447C  4F                dec edi
0000447D  7065              jo 0x44e4
0000447F  6E                outsb
00004480  6D                insd
00004481  6F                outsd
00004482  646540            gs inc eax
00004485  40                inc eax
00004486  47                inc edi
00004487  4C                dec esp
00004488  49                dec ecx
00004489  42                inc edx
0000448A  43                inc ebx
0000448B  58                pop eax
0000448C  58                pop eax
0000448D  5F                pop edi
0000448E  332E              xor ebp,[esi]
00004490  3400              xor al,0x0
00004492  5F                pop edi
00004493  5A                pop edx
00004494  53                push ebx
00004495  7431              jz 0x44c8
00004497  305F5F            xor [edi+0x5f],bl
0000449A  66696C6C5F6E5F    imul bp,[esp+ebp*2+0x5f],word 0x5f6e
000044A1  61                popa
000044A2  49                dec ecx
000044A3  50                push eax
000044A4  646A64            fs push byte +0x64
000044A7  45                inc ebp
000044A8  4E                dec esi
000044A9  395F5F            cmp [edi+0x5f],ebx
000044AC  676E              a16 outsb
000044AE  755F              jnz 0x450f
000044B0  637878            arpl [eax+0x78],di
000044B3  3131              xor [ecx],esi
000044B5  5F                pop edi
000044B6  5F                pop edi
000044B7  656E              gs outsb
000044B9  61                popa
000044BA  626C655F          bound ebp,[ebp+0x5f]
000044BE  69664958737253    imul esp,[esi+0x49],dword 0x53727358
000044C5  7431              jz 0x44f8
000044C7  315F5F            xor [edi+0x5f],ebx
000044CA  69735F7363616C    imul esi,[ebx+0x5f],dword 0x6c616373
000044D1  61                popa
000044D2  7249              jc 0x451d
000044D4  54                push esp
000044D5  315F45            xor [edi+0x45],ebx
000044D8  37                aaa
000044D9  5F                pop edi
000044DA  5F                pop edi
000044DB  7661              jna 0x453e
000044DD  6C                insb
000044DE  7565              jnz 0x4545
000044E0  45                inc ebp
000044E1  54                push esp
000044E2  5F                pop edi
000044E3  45                inc ebp
000044E4  365F              ss pop edi
000044E6  5F                pop edi
000044E7  7479              jz 0x4562
000044E9  7065              jo 0x4550
000044EB  45                inc ebp
000044EC  53                push ebx
000044ED  365F              ss pop edi
000044EF  54                push esp
000044F0  305F52            xor [edi+0x52],bl
000044F3  4B                dec ebx
000044F4  53                push ebx
000044F5  345F              xor al,0x5f
000044F7  005F5A            add [edi+0x5a],bl
000044FA  4E                dec esi
000044FB  53                push ebx
000044FC  7431              jz 0x452f
000044FE  325F56            xor bl,[edi+0x56]
00004501  6563746F72        arpl [gs:edi+ebp*2+0x72],si
00004506  5F                pop edi
00004507  626173            bound esp,[ecx+0x73]
0000450A  6549              gs dec ecx
0000450C  6453              fs push ebx
0000450E  61                popa
0000450F  49                dec ecx
00004510  6445              fs inc ebp
00004512  45                inc ebp
00004513  3139              xor [ecx],edi
00004515  5F                pop edi
00004516  4D                dec ebp
00004517  5F                pop edi
00004518  6765745F          gs a16 jz 0x457b
0000451C  54                push esp
0000451D  705F              jo 0x457e
0000451F  61                popa
00004520  6C                insb
00004521  6C                insb
00004522  6F                outsd
00004523  636174            arpl [ecx+0x74],sp
00004526  6F                outsd
00004527  7245              jc 0x456e
00004529  7600              jna 0x452b
0000452B  5F                pop edi
0000452C  5A                pop edx
0000452D  53                push ebx
0000452E  7431              jz 0x4561
00004530  37                aaa
00004531  5F                pop edi
00004532  5F                pop edi
00004533  7468              jz 0x459d
00004535  726F              jc 0x45a6
00004537  775F              ja 0x4598
00004539  626164            bound esp,[ecx+0x64]
0000453C  5F                pop edi
0000453D  61                popa
0000453E  6C                insb
0000453F  6C                insb
00004540  6F                outsd
00004541  637640            arpl [esi+0x40],si
00004544  40                inc eax
00004545  47                inc edi
00004546  4C                dec esp
00004547  49                dec ecx
00004548  42                inc edx
00004549  43                inc ebx
0000454A  58                pop eax
0000454B  58                pop eax
0000454C  5F                pop edi
0000454D  332E              xor ebp,[esi]
0000454F  3400              xor al,0x0
00004551  5F                pop edi
00004552  5A                pop edx
00004553  4E                dec esi
00004554  53                push ebx
00004555  7431              jz 0x4588
00004557  325F44            xor bl,[edi+0x44]
0000455A  657374            gs jnc 0x45d1
0000455D  726F              jc 0x45ce
0000455F  795F              jns 0x45c0
00004561  61                popa
00004562  7578              jnz 0x45dc
00004564  49                dec ecx
00004565  4C                dec esp
00004566  6231              bound esi,[ecx]
00004568  45                inc ebp
00004569  45                inc ebp
0000456A  395F5F            cmp [edi+0x5f],ebx
0000456D  64657374          gs jnc 0x45e5
00004571  726F              jc 0x45e2
00004573  7949              jns 0x45be
00004575  50                push eax
00004576  6445              fs inc ebp
00004578  45                inc ebp
00004579  7654              jna 0x45cf
0000457B  5F                pop edi
0000457C  53                push ebx
0000457D  335F00            xor ebx,[edi+0x0]
00004580  5F                pop edi
00004581  5A                pop edx
00004582  53                push ebx
00004583  7434              jz 0x45b9
00004585  656E              gs outsb
00004587  646C              fs insb
00004589  49                dec ecx
0000458A  635374            arpl [ebx+0x74],dx
0000458D  3131              xor [ecx],esi
0000458F  636861            arpl [eax+0x61],bp
00004592  725F              jc 0x45f3
00004594  7472              jz 0x4608
00004596  61                popa
00004597  6974734963454552  imul esi,[ebx+esi*2+0x49],dword 0x52454563
0000459F  53                push ebx
000045A0  7431              jz 0x45d3
000045A2  336261            xor esp,[edx+0x61]
000045A5  7369              jnc 0x4610
000045A7  635F6F            arpl [edi+0x6f],bx
000045AA  7374              jnc 0x4620
000045AC  7265              jc 0x4613
000045AE  61                popa
000045AF  6D                insd
000045B0  49                dec ecx
000045B1  54                push esp
000045B2  5F                pop edi
000045B3  54                push esp
000045B4  305F45            xor [edi+0x45],bl
000045B7  53                push ebx
000045B8  365F              ss pop edi
000045BA  40                inc eax
000045BB  40                inc eax
000045BC  47                inc edi
000045BD  4C                dec esp
000045BE  49                dec ecx
000045BF  42                inc edx
000045C0  43                inc ebx
000045C1  58                pop eax
000045C2  58                pop eax
000045C3  5F                pop edi
000045C4  332E              xor ebp,[esi]
000045C6  3400              xor al,0x0
000045C8  5F                pop edi
000045C9  656461            fs popa
000045CC  7461              jz 0x462f
000045CE  005F5F            add [edi+0x5f],bl
000045D1  677878            a16 js 0x464c
000045D4  5F                pop edi
000045D5  7065              jo 0x463c
000045D7  7273              jc 0x464c
000045D9  6F                outsd
000045DA  6E                outsb
000045DB  61                popa
000045DC  6C                insb
000045DD  6974795F76304040  imul esi,[ecx+edi*2+0x5f],dword 0x40403076
000045E5  43                inc ebx
000045E6  58                pop eax
000045E7  58                pop eax
000045E8  41                inc ecx
000045E9  42                inc edx
000045EA  49                dec ecx
000045EB  5F                pop edi
000045EC  312E              xor [esi],ebp
000045EE  3300              xor eax,[eax]
000045F0  5F                pop edi
000045F1  5A                pop edx
000045F2  53                push ebx
000045F3  7461              jz 0x4656
000045F5  6E                outsb
000045F6  53                push ebx
000045F7  7431              jz 0x462a
000045F9  335F49            xor ebx,[edi+0x49]
000045FC  6F                outsd
000045FD  735F              jnc 0x465e
000045FF  46                inc esi
00004600  6D                insd
00004601  7466              jz 0x4669
00004603  6C                insb
00004604  61                popa
00004605  677353            a16 jnc 0x465b
00004608  5F                pop edi
00004609  005F55            add [edi+0x55],bl
0000460C  6E                outsb
0000460D  7769              ja 0x4678
0000460F  6E                outsb
00004610  645F              fs pop edi
00004612  52                push edx
00004613  657375            gs jnc 0x468b
00004616  6D                insd
00004617  6540              gs inc eax
00004619  40                inc eax
0000461A  47                inc edi
0000461B  43                inc ebx
0000461C  43                inc ebx
0000461D  5F                pop edi
0000461E  332E              xor ebp,[esi]
00004620  3000              xor [eax],al
00004622  5F                pop edi
00004623  5A                pop edx
00004624  4E                dec esi
00004625  53                push ebx
00004626  7436              jz 0x465e
00004628  7665              jna 0x468f
0000462A  63746F72          arpl [edi+ebp*2+0x72],si
0000462E  49                dec ecx
0000462F  6453              fs push ebx
00004631  61                popa
00004632  49                dec ecx
00004633  6445              fs inc ebp
00004635  45                inc ebp
00004636  3138              xor [eax],edi
00004638  5F                pop edi
00004639  4D                dec ebp
0000463A  5F                pop edi
0000463B  66696C6C5F696E    imul bp,[esp+ebp*2+0x5f],word 0x6e69
00004642  697469616C697A65  imul esi,[ecx+ebp*2+0x61],dword 0x657a696c
0000464A  45                inc ebp
0000464B  6A52              push byte +0x52
0000464D  4B                dec ebx
0000464E  64005F5A          add [fs:edi+0x5a],bl
00004652  4E                dec esi
00004653  53                push ebx
00004654  6F                outsd
00004655  6C                insb
00004656  7345              jnc 0x469d
00004658  50                push eax
00004659  46                inc esi
0000465A  52                push edx
0000465B  53                push ebx
0000465C  7438              jz 0x4696
0000465E  696F735F626173    imul ebp,[edi+0x73],dword 0x7361625f
00004665  6553              gs push ebx
00004667  305F45            xor [edi+0x45],bl
0000466A  40                inc eax
0000466B  40                inc eax
0000466C  47                inc edi
0000466D  4C                dec esp
0000466E  49                dec ecx
0000466F  42                inc edx
00004670  43                inc ebx
00004671  58                pop eax
00004672  58                pop eax
00004673  5F                pop edi
00004674  332E              xor ebp,[esi]
00004676  3400              xor al,0x0
00004678  5F                pop edi
00004679  5A                pop edx
0000467A  4E                dec esi
0000467B  395F5F            cmp [edi+0x5f],ebx
0000467E  676E              a16 outsb
00004680  755F              jnz 0x46e1
00004682  637878            arpl [eax+0x78],di
00004685  3133              xor [ebx],esi
00004687  6E                outsb
00004688  65775F            gs ja 0x46ea
0000468B  61                popa
0000468C  6C                insb
0000468D  6C                insb
0000468E  6F                outsd
0000468F  636174            arpl [ecx+0x74],sp
00004692  6F                outsd
00004693  7249              jc 0x46de
00004695  6445              fs inc ebp
00004697  43                inc ebx
00004698  314576            xor [ebp+0x76],eax
0000469B  005F5A            add [edi+0x5a],bl
0000469E  4E                dec esi
0000469F  395F5F            cmp [edi+0x5f],ebx
000046A2  676E              a16 outsb
000046A4  755F              jnz 0x4705
000046A6  637878            arpl [eax+0x78],di
000046A9  3133              xor [ebx],esi
000046AB  6E                outsb
000046AC  65775F            gs ja 0x470e
000046AF  61                popa
000046B0  6C                insb
000046B1  6C                insb
000046B2  6F                outsd
000046B3  636174            arpl [ecx+0x74],sp
000046B6  6F                outsd
000046B7  7249              jc 0x4702
000046B9  6445              fs inc ebp
000046BB  44                inc esp
000046BC  324576            xor al,[ebp+0x76]
000046BF  005F5F            add [edi+0x5f],bl
000046C2  693638362E67      imul esi,[esi],dword 0x672e3638
000046C8  65745F            gs jz 0x472a
000046CB  7063              jo 0x4730
000046CD  5F                pop edi
000046CE  7468              jz 0x4738
000046D0  756E              jnz 0x4740
000046D2  6B2E62            imul ebp,[esi],byte +0x62
000046D5  7800              js 0x46d7
000046D7  6D                insd
000046D8  61                popa
000046D9  696E005F696E69    imul ebp,[esi+0x0],dword 0x696e695f
000046E0  7400              jz 0x46e2
