00000000  7F45              jg 0x47
00000002  4C                dec esp
00000003  46                inc esi
00000004  0101              add [ecx],eax
00000006  0100              add [eax],eax
00000008  0000              add [eax],al
0000000A  0000              add [eax],al
0000000C  0000              add [eax],al
0000000E  0000              add [eax],al
00000010  0200              add al,[eax]
00000012  0300              add eax,[eax]
00000014  0100              add [eax],eax
00000016  0000              add [eax],al
00000018  A08E040834        mov al,[0x3408048e]
0000001D  0000              add [eax],al
0000001F  00B855000000      add [eax+0x55],bh
00000025  0000              add [eax],al
00000027  003400            add [eax+eax],dh
0000002A  2000              and [eax],al
0000002C  0800              or [eax],al
0000002E  2800              sub [eax],al
00000030  260023            add [es:ebx],ah
00000033  0006              add [esi],al
00000035  0000              add [eax],al
00000037  003400            add [eax+eax],dh
0000003A  0000              add [eax],al
0000003C  3480              xor al,0x80
0000003E  0408              add al,0x8
00000040  3480              xor al,0x80
00000042  0408              add al,0x8
00000044  0001              add [ecx],al
00000046  0000              add [eax],al
00000048  0001              add [ecx],al
0000004A  0000              add [eax],al
0000004C  0500000004        add eax,0x4000000
00000051  0000              add [eax],al
00000053  0003              add [ebx],al
00000055  0000              add [eax],al
00000057  003401            add [ecx+eax],dh
0000005A  0000              add [eax],al
0000005C  3481              xor al,0x81
0000005E  0408              add al,0x8
00000060  3481              xor al,0x81
00000062  0408              add al,0x8
00000064  1300              adc eax,[eax]
00000066  0000              add [eax],al
00000068  1300              adc eax,[eax]
0000006A  0000              add [eax],al
0000006C  0400              add al,0x0
0000006E  0000              add [eax],al
00000070  0100              add [eax],eax
00000072  0000              add [eax],al
00000074  0100              add [eax],eax
00000076  0000              add [eax],al
00000078  0000              add [eax],al
0000007A  0000              add [eax],al
0000007C  008004080080      add [eax+0x80000804],al
00000082  0408              add al,0x8
00000084  C44B00            les ecx,[ebx+0x0]
00000087  00C4              add ah,al
00000089  4B                dec ebx
0000008A  0000              add [eax],al
0000008C  0500000000        add eax,0x0
00000091  1000              adc [eax],al
00000093  0001              add [ecx],al
00000095  0000              add [eax],al
00000097  00C4              add ah,al
00000099  4B                dec ebx
0000009A  0000              add [eax],al
0000009C  C4                db 0xC4
0000009D  DB0408            fild dword [eax+ecx]
000000A0  C4                db 0xC4
000000A1  DB0408            fild dword [eax+ecx]
000000A4  A0010000A8        mov al,[0xa8000001]
000000A9  0100              add [eax],eax
000000AB  0006              add [esi],al
000000AD  0000              add [eax],al
000000AF  0000              add [eax],al
000000B1  1000              adc [eax],al
000000B3  0002              add [edx],al
000000B5  0000              add [eax],al
000000B7  00D8              add al,bl
000000B9  4B                dec ebx
000000BA  0000              add [eax],al
000000BC  D8DB              fcomp st3
000000BE  0408              add al,0x8
000000C0  D8DB              fcomp st3
000000C2  0408              add al,0x8
000000C4  E000              loopne 0xc6
000000C6  0000              add [eax],al
000000C8  E000              loopne 0xca
000000CA  0000              add [eax],al
000000CC  06                push es
000000CD  0000              add [eax],al
000000CF  000400            add [eax+eax],al
000000D2  0000              add [eax],al
000000D4  0400              add al,0x0
000000D6  0000              add [eax],al
000000D8  48                dec eax
000000D9  0100              add [eax],eax
000000DB  004881            add [eax-0x7f],cl
000000DE  0408              add al,0x8
000000E0  48                dec eax
000000E1  81040820000000    add dword [eax+ecx],0x20
000000E8  2000              and [eax],al
000000EA  0000              add [eax],al
000000EC  0400              add al,0x0
000000EE  0000              add [eax],al
000000F0  0400              add al,0x0
000000F2  0000              add [eax],al
000000F4  50                push eax
000000F5  E574              in eax,0x74
000000F7  6498              fs cwde
000000F9  3300              xor eax,[eax]
000000FB  0098B3040898      add [eax+0x980804b3],bl
00000101  B304              mov bl,0x4
00000103  08440400          or [esp+eax+0x0],al
00000107  00440400          add [esp+eax+0x0],al
0000010B  000400            add [eax+eax],al
0000010E  0000              add [eax],al
00000110  0400              add al,0x0
00000112  0000              add [eax],al
00000114  51                push ecx
00000115  E574              in eax,0x74
00000117  640000            add [fs:eax],al
0000011A  0000              add [eax],al
0000011C  0000              add [eax],al
0000011E  0000              add [eax],al
00000120  0000              add [eax],al
00000122  0000              add [eax],al
00000124  0000              add [eax],al
00000126  0000              add [eax],al
00000128  0000              add [eax],al
0000012A  0000              add [eax],al
0000012C  06                push es
0000012D  0000              add [eax],al
0000012F  000400            add [eax+eax],al
00000132  0000              add [eax],al
00000134  2F                das
00000135  6C                insb
00000136  69622F6C642D6C    imul esp,[edx+0x2f],dword 0x6c2d646c
0000013D  696E75782E736F    imul ebp,[esi+0x75],dword 0x6f732e78
00000144  2E3200            xor al,[cs:eax]
00000147  000400            add [eax+eax],al
0000014A  0000              add [eax],al
0000014C  1000              adc [eax],al
0000014E  0000              add [eax],al
00000150  0100              add [eax],eax
00000152  0000              add [eax],al
00000154  47                inc edi
00000155  4E                dec esi
00000156  55                push ebp
00000157  0000              add [eax],al
00000159  0000              add [eax],al
0000015B  0002              add [edx],al
0000015D  0000              add [eax],al
0000015F  0000              add [eax],al
00000161  0000              add [eax],al
00000163  0000              add [eax],al
00000165  0000              add [eax],al
00000167  00250000002B      add [0x2b000000],ah
0000016D  0000              add [eax],al
0000016F  000C00            add [eax+eax],cl
00000172  0000              add [eax],al
00000174  0F0000            sldt [eax]
00000177  001F              add [edi],bl
00000179  0000              add [eax],al
0000017B  0000              add [eax],al
0000017D  0000              add [eax],al
0000017F  001400            add [eax+eax],dl
00000182  0000              add [eax],al
00000184  0000              add [eax],al
00000186  0000              add [eax],al
00000188  2800              sub [eax],al
0000018A  0000              add [eax],al
0000018C  0000              add [eax],al
0000018E  0000              add [eax],al
00000190  2A00              sub al,[eax]
00000192  0000              add [eax],al
00000194  0000              add [eax],al
00000196  0000              add [eax],al
00000198  0000              add [eax],al
0000019A  0000              add [eax],al
0000019C  2500000017        and eax,0x17000000
000001A1  0000              add [eax],al
000001A3  001E              add [esi],bl
000001A5  0000              add [eax],al
000001A7  0016              add [esi],dl
000001A9  0000              add [eax],al
000001AB  0000              add [eax],al
000001AD  0000              add [eax],al
000001AF  0002              add [edx],al
000001B1  0000              add [eax],al
000001B3  001D00000000      add [0x0],bl
000001B9  0000              add [eax],al
000001BB  0026              add [esi],ah
000001BD  0000              add [eax],al
000001BF  0029              add [ecx],ch
000001C1  0000              add [eax],al
000001C3  0010              add [eax],dl
000001C5  0000              add [eax],al
000001C7  0020              add [eax],ah
000001C9  0000              add [eax],al
000001CB  0000              add [eax],al
000001CD  0000              add [eax],al
000001CF  000A              add [edx],cl
000001D1  0000              add [eax],al
000001D3  001C00            add [eax+eax],bl
000001D6  0000              add [eax],al
000001D8  0000              add [eax],al
000001DA  0000              add [eax],al
000001DC  1300              adc eax,[eax]
000001DE  0000              add [eax],al
000001E0  1A00              sbb al,[eax]
000001E2  0000              add [eax],al
000001E4  0000              add [eax],al
000001E6  0000              add [eax],al
000001E8  27                daa
000001E9  0000              add [eax],al
000001EB  0000              add [eax],al
000001ED  0000              add [eax],al
000001EF  0000              add [eax],al
000001F1  0000              add [eax],al
000001F3  0000              add [eax],al
000001F5  0000              add [eax],al
000001F7  001500000023      add [0x23000000],dl
000001FD  0000              add [eax],al
000001FF  0022              add [edx],ah
00000201  0000              add [eax],al
00000203  0000              add [eax],al
00000205  0000              add [eax],al
00000207  0000              add [eax],al
00000209  0000              add [eax],al
0000020B  0000              add [eax],al
0000020D  0000              add [eax],al
0000020F  0000              add [eax],al
00000211  0000              add [eax],al
00000213  0000              add [eax],al
00000215  0000              add [eax],al
00000217  0000              add [eax],al
00000219  0000              add [eax],al
0000021B  0000              add [eax],al
0000021D  0000              add [eax],al
0000021F  0001              add [ecx],al
00000221  0000              add [eax],al
00000223  000500000000      add [0x0],al
00000229  0000              add [eax],al
0000022B  0000              add [eax],al
0000022D  0000              add [eax],al
0000022F  0009              add [ecx],cl
00000231  0000              add [eax],al
00000233  0000              add [eax],al
00000235  0000              add [eax],al
00000237  0003              add [ebx],al
00000239  0000              add [eax],al
0000023B  0000              add [eax],al
0000023D  0000              add [eax],al
0000023F  000400            add [eax+eax],al
00000242  0000              add [eax],al
00000244  0000              add [eax],al
00000246  0000              add [eax],al
00000248  0B00              or eax,[eax]
0000024A  0000              add [eax],al
0000024C  0000              add [eax],al
0000024E  0000              add [eax],al
00000250  0800              or [eax],al
00000252  0000              add [eax],al
00000254  0000              add [eax],al
00000256  0000              add [eax],al
00000258  06                push es
00000259  0000              add [eax],al
0000025B  0011              add [ecx],dl
0000025D  0000              add [eax],al
0000025F  0000              add [eax],al
00000261  0000              add [eax],al
00000263  0007              add [edi],al
00000265  0000              add [eax],al
00000267  000E              add [esi],cl
00000269  0000              add [eax],al
0000026B  0000              add [eax],al
0000026D  0000              add [eax],al
0000026F  0000              add [eax],al
00000271  0000              add [eax],al
00000273  0000              add [eax],al
00000275  0000              add [eax],al
00000277  0019              add [ecx],bl
00000279  0000              add [eax],al
0000027B  0000              add [eax],al
0000027D  0000              add [eax],al
0000027F  0000              add [eax],al
00000281  0000              add [eax],al
00000283  0000              add [eax],al
00000285  0000              add [eax],al
00000287  0000              add [eax],al
00000289  0000              add [eax],al
0000028B  0021              add [ecx],ah
0000028D  0000              add [eax],al
0000028F  0000              add [eax],al
00000291  0000              add [eax],al
00000293  0000              add [eax],al
00000295  0000              add [eax],al
00000297  002400            add [eax+eax],ah
0000029A  0000              add [eax],al
0000029C  1200              adc al,[eax]
0000029E  0000              add [eax],al
000002A0  1800              sbb [eax],al
000002A2  0000              add [eax],al
000002A4  1B00              sbb eax,[eax]
000002A6  0000              add [eax],al
000002A8  0000              add [eax],al
000002AA  0000              add [eax],al
000002AC  0D00000000        or eax,0x0
000002B1  0000              add [eax],al
000002B3  0000              add [eax],al
000002B5  0000              add [eax],al
000002B7  0000              add [eax],al
000002B9  0000              add [eax],al
000002BB  0000              add [eax],al
000002BD  0000              add [eax],al
000002BF  004C0300          add [ebx+eax+0x0],cl
000002C3  0000              add [eax],al
000002C5  0000              add [eax],al
000002C7  0000              add [eax],al
000002C9  0000              add [eax],al
000002CB  0012              add [edx],dl
000002CD  0000              add [eax],al
000002CF  00BF03000000      add [edi+0x3],bh
000002D5  0000              add [eax],al
000002D7  0000              add [eax],al
000002D9  0000              add [eax],al
000002DB  0012              add [edx],dl
000002DD  0000              add [eax],al
000002DF  0010              add [eax],dl
000002E1  0300              add eax,[eax]
000002E3  0000              add [eax],al
000002E5  0000              add [eax],al
000002E7  0000              add [eax],al
000002E9  0000              add [eax],al
000002EB  0020              add [eax],ah
000002ED  0000              add [eax],al
000002EF  007603            add [esi+0x3],dh
000002F2  0000              add [eax],al
000002F4  0000              add [eax],al
000002F6  0000              add [eax],al
000002F8  0000              add [eax],al
000002FA  0000              add [eax],al
000002FC  2000              and [eax],al
000002FE  0000              add [eax],al
00000300  EF                out dx,eax
00000301  0200              add al,[eax]
00000303  0000              add [eax],al
00000305  0000              add [eax],al
00000307  0000              add [eax],al
00000309  0000              add [eax],al
0000030B  0012              add [edx],dl
0000030D  0000              add [eax],al
0000030F  007100            add [ecx+0x0],dh
00000312  0000              add [eax],al
00000314  0000              add [eax],al
00000316  0000              add [eax],al
00000318  0000              add [eax],al
0000031A  0000              add [eax],al
0000031C  1200              adc al,[eax]
0000031E  0000              add [eax],al
00000320  F20100            repne add [eax],eax
00000323  0000              add [eax],al
00000325  0000              add [eax],al
00000327  0000              add [eax],al
00000329  0000              add [eax],al
0000032B  0012              add [edx],dl
0000032D  0000              add [eax],al
0000032F  006803            add [eax+0x3],ch
00000332  0000              add [eax],al
00000334  0000              add [eax],al
00000336  0000              add [eax],al
00000338  0000              add [eax],al
0000033A  0000              add [eax],al
0000033C  1200              adc al,[eax]
0000033E  0000              add [eax],al
00000340  2903              sub [ebx],eax
00000342  0000              add [eax],al
00000344  0000              add [eax],al
00000346  0000              add [eax],al
00000348  0000              add [eax],al
0000034A  0000              add [eax],al
0000034C  1200              adc al,[eax]
0000034E  0000              add [eax],al
00000350  94                xchg eax,esp
00000351  0000              add [eax],al
00000353  0000              add [eax],al
00000355  0000              add [eax],al
00000357  0000              add [eax],al
00000359  0000              add [eax],al
0000035B  0012              add [edx],dl
0000035D  0000              add [eax],al
0000035F  007104            add [ecx+0x4],dh
00000362  0000              add [eax],al
00000364  0000              add [eax],al
00000366  0000              add [eax],al
00000368  0000              add [eax],al
0000036A  0000              add [eax],al
0000036C  1200              adc al,[eax]
0000036E  0000              add [eax],al
00000370  51                push ecx
00000371  0200              add al,[eax]
00000373  0000              add [eax],al
00000375  0000              add [eax],al
00000377  0000              add [eax],al
00000379  0000              add [eax],al
0000037B  0012              add [edx],dl
0000037D  0000              add [eax],al
0000037F  000402            add [edx+eax],al
00000382  0000              add [eax],al
00000384  0000              add [eax],al
00000386  0000              add [eax],al
00000388  0000              add [eax],al
0000038A  0000              add [eax],al
0000038C  1200              adc al,[eax]
0000038E  0000              add [eax],al
00000390  7800              js 0x392
00000392  0000              add [eax],al
00000394  0000              add [eax],al
00000396  0000              add [eax],al
00000398  0000              add [eax],al
0000039A  0000              add [eax],al
0000039C  2000              and [eax],al
0000039E  0000              add [eax],al
000003A0  BA01000000        mov edx,0x1
000003A5  0000              add [eax],al
000003A7  0000              add [eax],al
000003A9  0000              add [eax],al
000003AB  0012              add [edx],dl
000003AD  0000              add [eax],al
000003AF  006204            add [edx+0x4],ah
000003B2  0000              add [eax],al
000003B4  28B304080400      sub [ebx+0x40804],dh
000003BA  0000              add [eax],al
000003BC  1100              adc [eax],eax
000003BE  0E                push cs
000003BF  003E              add [esi],bh
000003C1  0100              add [eax],eax
000003C3  0000              add [eax],al
000003C5  0000              add [eax],al
000003C7  0000              add [eax],al
000003C9  0000              add [eax],al
000003CB  0012              add [edx],dl
000003CD  0000              add [eax],al
000003CF  001F              add [edi],bl
000003D1  0300              add eax,[eax]
000003D3  0000              add [eax],al
000003D5  0000              add [eax],al
000003D7  0000              add [eax],al
000003D9  0000              add [eax],al
000003DB  0012              add [edx],dl
000003DD  0000              add [eax],al
000003DF  009503000000      add [ebp+0x3],dl
000003E5  0000              add [eax],al
000003E7  0000              add [eax],al
000003E9  0000              add [eax],al
000003EB  0020              add [eax],ah
000003ED  0000              add [eax],al
000003EF  00F4              add ah,dh
000003F1  0000              add [eax],al
000003F3  0000              add [eax],al
000003F5  0000              add [eax],al
000003F7  0000              add [eax],al
000003F9  0000              add [eax],al
000003FB  0012              add [edx],dl
000003FD  0000              add [eax],al
000003FF  00AF03000000      add [edi+0x3],ch
00000405  0000              add [eax],al
00000407  0000              add [eax],al
00000409  0000              add [eax],al
0000040B  0012              add [edx],dl
0000040D  0000              add [eax],al
0000040F  008901000000      add [ecx+0x1],cl
00000415  0000              add [eax],al
00000417  0000              add [eax],al
00000419  0000              add [eax],al
0000041B  0012              add [edx],dl
0000041D  0000              add [eax],al
0000041F  0011              add [ecx],dl
00000421  0200              add al,[eax]
00000423  0000              add [eax],al
00000425  0000              add [eax],al
00000427  0000              add [eax],al
00000429  0000              add [eax],al
0000042B  0012              add [edx],dl
0000042D  0000              add [eax],al
0000042F  000F              add [edi],cl
00000431  0100              add [eax],eax
00000433  0000              add [eax],al
00000435  0000              add [eax],al
00000437  0000              add [eax],al
00000439  0000              add [eax],al
0000043B  0012              add [edx],dl
0000043D  0000              add [eax],al
0000043F  0006              add [esi],al
00000441  0300              add eax,[eax]
00000443  0000              add [eax],al
00000445  0000              add [eax],al
00000447  0000              add [eax],al
00000449  0000              add [eax],al
0000044B  0012              add [edx],dl
0000044D  0000              add [eax],al
0000044F  006502            add [ebp+0x2],ah
00000452  0000              add [eax],al
00000454  0000              add [eax],al
00000456  0000              add [eax],al
00000458  0000              add [eax],al
0000045A  0000              add [eax],al
0000045C  1200              adc al,[eax]
0000045E  0000              add [eax],al
00000460  40                inc eax
00000461  0200              add al,[eax]
00000463  0000              add [eax],al
00000465  0000              add [eax],al
00000467  0000              add [eax],al
00000469  0000              add [eax],al
0000046B  0012              add [edx],dl
0000046D  0000              add [eax],al
0000046F  00C9              add cl,cl
00000471  0300              add eax,[eax]
00000473  0000              add [eax],al
00000475  0000              add [eax],al
00000477  0000              add [eax],al
00000479  0000              add [eax],al
0000047B  0012              add [edx],dl
0000047D  0000              add [eax],al
0000047F  002404            add [esp+eax],ah
00000482  0000              add [eax],al
00000484  0000              add [eax],al
00000486  0000              add [eax],al
00000488  0000              add [eax],al
0000048A  0000              add [eax],al
0000048C  1200              adc al,[eax]
0000048E  0000              add [eax],al
00000490  2100              and [eax],eax
00000492  0000              add [eax],al
00000494  0000              add [eax],al
00000496  0000              add [eax],al
00000498  0000              add [eax],al
0000049A  0000              add [eax],al
0000049C  2000              and [eax],al
0000049E  0000              add [eax],al
000004A0  8A03              mov al,[ebx]
000004A2  0000              add [eax],al
000004A4  0000              add [eax],al
000004A6  0000              add [eax],al
000004A8  0000              add [eax],al
000004AA  0000              add [eax],al
000004AC  1200              adc al,[eax]
000004AE  0000              add [eax],al
000004B0  AD                lodsd
000004B1  0200              add al,[eax]
000004B3  0000              add [eax],al
000004B5  0000              add [eax],al
000004B7  0000              add [eax],al
000004B9  0000              add [eax],al
000004BB  0012              add [edx],dl
000004BD  0000              add [eax],al
000004BF  0010              add [eax],dl
000004C1  0000              add [eax],al
000004C3  0000              add [eax],al
000004C5  0000              add [eax],al
000004C7  0000              add [eax],al
000004C9  0000              add [eax],al
000004CB  0012              add [edx],dl
000004CD  0000              add [eax],al
000004CF  006B02            add [ebx+0x2],ch
000004D2  0000              add [eax],al
000004D4  0000              add [eax],al
000004D6  0000              add [eax],al
000004D8  0000              add [eax],al
000004DA  0000              add [eax],al
000004DC  1200              adc al,[eax]
000004DE  0000              add [eax],al
000004E0  C400              les eax,[eax]
000004E2  0000              add [eax],al
000004E4  0000              add [eax],al
000004E6  0000              add [eax],al
000004E8  0000              add [eax],al
000004EA  0000              add [eax],al
000004EC  1200              adc al,[eax]
000004EE  0000              add [eax],al
000004F0  FF00              inc dword [eax]
000004F2  0000              add [eax],al
000004F4  0000              add [eax],al
000004F6  0000              add [eax],al
000004F8  0000              add [eax],al
000004FA  0000              add [eax],al
000004FC  1200              adc al,[eax]
000004FE  0000              add [eax],al
00000500  0B0400            or eax,[eax+eax]
00000503  0000              add [eax],al
00000505  0000              add [eax],al
00000507  0000              add [eax],al
00000509  0000              add [eax],al
0000050B  0012              add [edx],dl
0000050D  0000              add [eax],al
0000050F  0036              add [esi],dh
00000511  0000              add [eax],al
00000513  00508E            add [eax-0x72],dl
00000516  0408              add al,0x8
00000518  0000              add [eax],al
0000051A  0000              add [eax],al
0000051C  1200              adc al,[eax]
0000051E  0000              add [eax],al
00000520  56                push esi
00000521  0300              add eax,[eax]
00000523  0000              add [eax],al
00000525  0000              add [eax],al
00000527  0000              add [eax],al
00000529  0000              add [eax],al
0000052B  0012              add [edx],dl
0000052D  0000              add [eax],al
0000052F  00F9              add cl,bh
00000531  0200              add al,[eax]
00000533  0000              add [eax],al
00000535  0000              add [eax],al
00000537  0000              add [eax],al
00000539  0000              add [eax],al
0000053B  0012              add [edx],dl
0000053D  0000              add [eax],al
0000053F  0037              add [edi],dh
00000541  0300              add eax,[eax]
00000543  00808E040800      add [eax+0x8048e],al
00000549  0000              add [eax],al
0000054B  0012              add [edx],dl
0000054D  0000              add [eax],al
0000054F  004904            add [ecx+0x4],cl
00000552  0000              add [eax],al
00000554  0000              add [eax],al
00000556  0000              add [eax],al
00000558  0000              add [eax],al
0000055A  0000              add [eax],al
0000055C  1200              adc al,[eax]
0000055E  0000              add [eax],al
00000560  006C6962          add [ecx+ebp*2+0x62],ch
00000564  7374              jnc 0x5da
00000566  64632B            arpl [fs:ebx],bp
00000569  2B2E              sub ebp,[esi]
0000056B  736F              jnc 0x5dc
0000056D  2E36005F5A        add [ss:edi+0x5a],bl
00000572  4E                dec esi
00000573  53                push ebx
00000574  6F                outsd
00000575  6C                insb
00000576  7345              jnc 0x5bd
00000578  50                push eax
00000579  46                inc esi
0000057A  52                push edx
0000057B  53                push ebx
0000057C  6F                outsd
0000057D  53                push ebx
0000057E  5F                pop edi
0000057F  45                inc ebp
00000580  005F5F            add [edi+0x5f],bl
00000583  7074              jo 0x5f9
00000585  6872656164        push dword 0x64616572
0000058A  5F                pop edi
0000058B  6B65795F          imul esp,[ebp+0x79],byte +0x5f
0000058F  637265            arpl [edx+0x65],si
00000592  61                popa
00000593  7465              jz 0x5fa
00000595  005F5A            add [edi+0x5a],bl
00000598  53                push ebx
00000599  7434              jz 0x5cf
0000059B  656E              gs outsb
0000059D  646C              fs insb
0000059F  49                dec ecx
000005A0  635374            arpl [ebx+0x74],dx
000005A3  3131              xor [ecx],esi
000005A5  636861            arpl [eax+0x61],bp
000005A8  725F              jc 0x609
000005AA  7472              jz 0x61e
000005AC  61                popa
000005AD  6974734963454552  imul esi,[ebx+esi*2+0x49],dword 0x52454563
000005B5  53                push ebx
000005B6  7431              jz 0x5e9
000005B8  336261            xor esp,[edx+0x61]
000005BB  7369              jnc 0x626
000005BD  635F6F            arpl [edi+0x6f],bx
000005C0  7374              jnc 0x636
000005C2  7265              jc 0x629
000005C4  61                popa
000005C5  6D                insd
000005C6  49                dec ecx
000005C7  54                push esp
000005C8  5F                pop edi
000005C9  54                push esp
000005CA  305F45            xor [edi+0x45],bl
000005CD  53                push ebx
000005CE  365F              ss pop edi
000005D0  005F5A            add [edi+0x5a],bl
000005D3  646C              fs insb
000005D5  50                push eax
000005D6  7600              jna 0x5d8
000005D8  5F                pop edi
000005D9  49                dec ecx
000005DA  54                push esp
000005DB  4D                dec ebp
000005DC  5F                pop edi
000005DD  64657265          gs jc 0x646
000005E1  676973746572544D  imul esi,[bp+di+0x74],dword 0x4d547265
000005E9  43                inc ebx
000005EA  6C                insb
000005EB  6F                outsd
000005EC  6E                outsb
000005ED  6554              gs push esp
000005EF  61                popa
000005F0  626C6500          bound ebp,[ebp+0x0]
000005F4  5F                pop edi
000005F5  5A                pop edx
000005F6  53                push ebx
000005F7  7431              jz 0x62a
000005F9  385F52            cmp [edi+0x52],bl
000005FC  625F74            bound ebx,[edi+0x74]
000005FF  7265              jc 0x666
00000601  655F              gs pop edi
00000603  6465637265        arpl [gs:edx+0x65],si
00000608  6D                insd
00000609  656E              gs outsb
0000060B  7450              jz 0x65d
0000060D  53                push ebx
0000060E  7431              jz 0x641
00000610  385F52            cmp [edi+0x52],bl
00000613  625F74            bound ebx,[edi+0x74]
00000616  7265              jc 0x67d
00000618  655F              gs pop edi
0000061A  6E                outsb
0000061B  6F                outsd
0000061C  64655F            gs pop edi
0000061F  626173            bound esp,[ecx+0x73]
00000622  65005F5A          add [gs:edi+0x5a],bl
00000626  53                push ebx
00000627  7431              jz 0x65a
00000629  385F52            cmp [edi+0x52],bl
0000062C  625F74            bound ebx,[edi+0x74]
0000062F  7265              jc 0x696
00000631  655F              gs pop edi
00000633  696E6372656D65    imul ebp,[esi+0x63],dword 0x656d6572
0000063A  6E                outsb
0000063B  7450              jz 0x68d
0000063D  53                push ebx
0000063E  7431              jz 0x671
00000640  385F52            cmp [edi+0x52],bl
00000643  625F74            bound ebx,[edi+0x74]
00000646  7265              jc 0x6ad
00000648  655F              gs pop edi
0000064A  6E                outsb
0000064B  6F                outsd
0000064C  64655F            gs pop edi
0000064F  626173            bound esp,[ecx+0x73]
00000652  65005F5A          add [gs:edi+0x5a],bl
00000656  4E                dec esi
00000657  4B                dec ebx
00000658  53                push ebx
00000659  7369              jnc 0x6c4
0000065B  7845              js 0x6a2
0000065D  6A00              push byte +0x0
0000065F  5F                pop edi
00000660  5F                pop edi
00000661  637861            arpl [eax+0x61],di
00000664  5F                pop edi
00000665  656E              gs outsb
00000667  645F              fs pop edi
00000669  636174            arpl [ecx+0x74],sp
0000066C  636800            arpl [eax+0x0],bp
0000066F  5F                pop edi
00000670  5A                pop edx
00000671  4E                dec esi
00000672  53                push ebx
00000673  7431              jz 0x6a6
00000675  3462              xor al,0x62
00000677  61                popa
00000678  7369              jnc 0x6e3
0000067A  635F6F            arpl [edi+0x6f],bx
0000067D  667374            o16 jnc 0x6f4
00000680  7265              jc 0x6e7
00000682  61                popa
00000683  6D                insd
00000684  49                dec ecx
00000685  635374            arpl [ebx+0x74],dx
00000688  3131              xor [ecx],esi
0000068A  636861            arpl [eax+0x61],bp
0000068D  725F              jc 0x6ee
0000068F  7472              jz 0x703
00000691  61                popa
00000692  6974734963454544  imul esi,[ebx+esi*2+0x49],dword 0x44454563
0000069A  314576            xor [ebp+0x76],eax
0000069D  005F5A            add [edi+0x5a],bl
000006A0  53                push ebx
000006A1  7472              jz 0x715
000006A3  7349              jnc 0x6ee
000006A5  635374            arpl [ebx+0x74],dx
000006A8  3131              xor [ecx],esi
000006AA  636861            arpl [eax+0x61],bp
000006AD  725F              jc 0x70e
000006AF  7472              jz 0x723
000006B1  61                popa
000006B2  6974734963455361  imul esi,[ebx+esi*2+0x49],dword 0x61534563
000006BA  49                dec ecx
000006BB  634545            arpl [ebp+0x45],ax
000006BE  52                push edx
000006BF  53                push ebx
000006C0  7431              jz 0x6f3
000006C2  336261            xor esp,[edx+0x61]
000006C5  7369              jnc 0x730
000006C7  635F69            arpl [edi+0x69],bx
000006CA  7374              jnc 0x740
000006CC  7265              jc 0x733
000006CE  61                popa
000006CF  6D                insd
000006D0  49                dec ecx
000006D1  54                push esp
000006D2  5F                pop edi
000006D3  54                push esp
000006D4  305F45            xor [edi+0x45],bl
000006D7  53                push ebx
000006D8  37                aaa
000006D9  5F                pop edi
000006DA  52                push edx
000006DB  53                push ebx
000006DC  624953            bound ecx,[ecx+0x53]
000006DF  345F              xor al,0x5f
000006E1  53                push ebx
000006E2  355F54315F        xor eax,0x5f31545f
000006E7  45                inc ebp
000006E8  005F5A            add [edi+0x5a],bl
000006EB  53                push ebx
000006EC  7431              jz 0x71f
000006EE  385F52            cmp [edi+0x52],bl
000006F1  625F74            bound ebx,[edi+0x74]
000006F4  7265              jc 0x75b
000006F6  655F              gs pop edi
000006F8  696E6372656D65    imul ebp,[esi+0x63],dword 0x656d6572
000006FF  6E                outsb
00000700  7450              jz 0x752
00000702  4B                dec ebx
00000703  53                push ebx
00000704  7431              jz 0x737
00000706  385F52            cmp [edi+0x52],bl
00000709  625F74            bound ebx,[edi+0x74]
0000070C  7265              jc 0x773
0000070E  655F              gs pop edi
00000710  6E                outsb
00000711  6F                outsd
00000712  64655F            gs pop edi
00000715  626173            bound esp,[ecx+0x73]
00000718  65005F5A          add [gs:edi+0x5a],bl
0000071C  53                push ebx
0000071D  746C              jz 0x78b
0000071F  7349              jnc 0x76a
00000721  53                push ebx
00000722  7431              jz 0x755
00000724  316368            xor [ebx+0x68],esp
00000727  61                popa
00000728  725F              jc 0x789
0000072A  7472              jz 0x79e
0000072C  61                popa
0000072D  6974734963454552  imul esi,[ebx+esi*2+0x49],dword 0x52454563
00000735  53                push ebx
00000736  7431              jz 0x769
00000738  336261            xor esp,[edx+0x61]
0000073B  7369              jnc 0x7a6
0000073D  635F6F            arpl [edi+0x6f],bx
00000740  7374              jnc 0x7b6
00000742  7265              jc 0x7a9
00000744  61                popa
00000745  6D                insd
00000746  49                dec ecx
00000747  63545F45          arpl [edi+ebx*2+0x45],dx
0000074B  53                push ebx
0000074C  355F504B63        xor eax,0x634b505f
00000751  005F5A            add [edi+0x5a],bl
00000754  4E                dec esi
00000755  53                push ebx
00000756  7343              jnc 0x79b
00000758  31456A            xor [ebp+0x6a],eax
0000075B  63524B            arpl [edx+0x4b],dx
0000075E  53                push ebx
0000075F  61                popa
00000760  49                dec ecx
00000761  634500            arpl [ebp+0x0],ax
00000764  5F                pop edi
00000765  5A                pop edx
00000766  4E                dec esi
00000767  53                push ebx
00000768  7343              jnc 0x7ad
0000076A  314552            xor [ebp+0x52],eax
0000076D  4B                dec ebx
0000076E  53                push ebx
0000076F  7300              jnc 0x771
00000771  5F                pop edi
00000772  5A                pop edx
00000773  4E                dec esi
00000774  53                push ebx
00000775  7431              jz 0x7a8
00000777  3462              xor al,0x62
00000779  61                popa
0000077A  7369              jnc 0x7e5
0000077C  635F69            arpl [edi+0x69],bx
0000077F  667374            o16 jnc 0x7f6
00000782  7265              jc 0x7e9
00000784  61                popa
00000785  6D                insd
00000786  49                dec ecx
00000787  635374            arpl [ebx+0x74],dx
0000078A  3131              xor [ecx],esi
0000078C  636861            arpl [eax+0x61],bp
0000078F  725F              jc 0x7f0
00000791  7472              jz 0x805
00000793  61                popa
00000794  6974734963454544  imul esi,[ebx+esi*2+0x49],dword 0x44454563
0000079C  314576            xor [ebp+0x76],eax
0000079F  005F5A            add [edi+0x5a],bl
000007A2  4E                dec esi
000007A3  4B                dec ebx
000007A4  53                push ebx
000007A5  7336              jnc 0x7dd
000007A7  7375              jnc 0x81e
000007A9  627374            bound esi,[ebx+0x74]
000007AC  7245              jc 0x7f3
000007AE  6A6A              push byte +0x6a
000007B0  005F5A            add [edi+0x5a],bl
000007B3  4E                dec esi
000007B4  4B                dec ebx
000007B5  53                push ebx
000007B6  7337              jnc 0x7ef
000007B8  636F6D            arpl [edi+0x6d],bp
000007BB  7061              jo 0x81e
000007BD  7265              jc 0x824
000007BF  45                inc ebp
000007C0  52                push edx
000007C1  4B                dec ebx
000007C2  53                push ebx
000007C3  7300              jnc 0x7c5
000007C5  5F                pop edi
000007C6  5A                pop edx
000007C7  6E                outsb
000007C8  776A              ja 0x834
000007CA  005F5A            add [edi+0x5a],bl
000007CD  4E                dec esi
000007CE  53                push ebx
000007CF  7431              jz 0x802
000007D1  3462              xor al,0x62
000007D3  61                popa
000007D4  7369              jnc 0x83f
000007D6  635F6F            arpl [edi+0x6f],bx
000007D9  667374            o16 jnc 0x850
000007DC  7265              jc 0x843
000007DE  61                popa
000007DF  6D                insd
000007E0  49                dec ecx
000007E1  635374            arpl [ebx+0x74],dx
000007E4  3131              xor [ecx],esi
000007E6  636861            arpl [eax+0x61],bp
000007E9  725F              jc 0x84a
000007EB  7472              jz 0x85f
000007ED  61                popa
000007EE  6974734963454543  imul esi,[ebx+esi*2+0x49],dword 0x43454563
000007F6  314550            xor [ebp+0x50],eax
000007F9  4B                dec ebx
000007FA  635374            arpl [ebx+0x74],dx
000007FD  3133              xor [ebx],esi
000007FF  5F                pop edi
00000800  49                dec ecx
00000801  6F                outsd
00000802  735F              jnc 0x863
00000804  4F                dec edi
00000805  7065              jo 0x86c
00000807  6E                outsb
00000808  6D                insd
00000809  6F                outsd
0000080A  6465005F5A        add [gs:edi+0x5a],bl
0000080F  4E                dec esi
00000810  53                push ebx
00000811  7431              jz 0x844
00000813  3462              xor al,0x62
00000815  61                popa
00000816  7369              jnc 0x881
00000818  635F69            arpl [edi+0x69],bx
0000081B  667374            o16 jnc 0x892
0000081E  7265              jc 0x885
00000820  61                popa
00000821  6D                insd
00000822  49                dec ecx
00000823  635374            arpl [ebx+0x74],dx
00000826  3131              xor [ecx],esi
00000828  636861            arpl [eax+0x61],bp
0000082B  725F              jc 0x88c
0000082D  7472              jz 0x8a1
0000082F  61                popa
00000830  6974734963454543  imul esi,[ebx+esi*2+0x49],dword 0x43454563
00000838  314550            xor [ebp+0x50],eax
0000083B  4B                dec ebx
0000083C  635374            arpl [ebx+0x74],dx
0000083F  3133              xor [ebx],esi
00000841  5F                pop edi
00000842  49                dec ecx
00000843  6F                outsd
00000844  735F              jnc 0x8a5
00000846  4F                dec edi
00000847  7065              jo 0x8ae
00000849  6E                outsb
0000084A  6D                insd
0000084B  6F                outsd
0000084C  6465005F5A        add [gs:edi+0x5a],bl
00000851  4E                dec esi
00000852  53                push ebx
00000853  7369              jnc 0x8be
00000855  7845              js 0x89c
00000857  6A00              push byte +0x0
00000859  5F                pop edi
0000085A  5A                pop edx
0000085B  4E                dec esi
0000085C  53                push ebx
0000085D  61                popa
0000085E  49                dec ecx
0000085F  634543            arpl [ebp+0x43],ax
00000862  314576            xor [ebp+0x76],eax
00000865  005F5A            add [edi+0x5a],bl
00000868  4E                dec esi
00000869  53                push ebx
0000086A  6F                outsd
0000086B  6C                insb
0000086C  7345              jnc 0x8b3
0000086E  6A00              push byte +0x0
00000870  5F                pop edi
00000871  5F                pop edi
00000872  676D              a16 insd
00000874  6F                outsd
00000875  6E                outsb
00000876  5F                pop edi
00000877  7374              jnc 0x8ed
00000879  61                popa
0000087A  7274              jc 0x8f0
0000087C  5F                pop edi
0000087D  5F                pop edi
0000087E  005F5A            add [edi+0x5a],bl
00000881  4E                dec esi
00000882  53                push ebx
00000883  7344              jnc 0x8c9
00000885  314576            xor [ebp+0x76],eax
00000888  005F5A            add [edi+0x5a],bl
0000088B  4E                dec esi
0000088C  4B                dec ebx
0000088D  53                push ebx
0000088E  7334              jnc 0x8c4
00000890  7369              jnc 0x8fb
00000892  7A65              jpe 0x8f9
00000894  45                inc ebp
00000895  7600              jna 0x897
00000897  5F                pop edi
00000898  5F                pop edi
00000899  677878            a16 js 0x914
0000089C  5F                pop edi
0000089D  7065              jo 0x904
0000089F  7273              jc 0x914
000008A1  6F                outsd
000008A2  6E                outsb
000008A3  61                popa
000008A4  6C                insb
000008A5  6974795F7630005F  imul esi,[ecx+edi*2+0x5f],dword 0x5f003076
000008AD  5A                pop edx
000008AE  4E                dec esi
000008AF  53                push ebx
000008B0  7343              jnc 0x8f5
000008B2  314576            xor [ebp+0x76],eax
000008B5  005F5F            add [edi+0x5f],bl
000008B8  637861            arpl [eax+0x61],di
000008BB  5F                pop edi
000008BC  626567            bound esp,[ebp+0x67]
000008BF  696E5F63617463    imul ebp,[esi+0x5f],dword 0x63746163
000008C6  68005F5F63        push dword 0x635f5f00
000008CB  7861              js 0x92e
000008CD  5F                pop edi
000008CE  7265              jc 0x935
000008D0  7468              jz 0x93a
000008D2  726F              jc 0x943
000008D4  7700              ja 0x8d6
000008D6  5F                pop edi
000008D7  4A                dec edx
000008D8  765F              jna 0x939
000008DA  52                push edx
000008DB  6567697374657243  imul esi,[gs:bp+di+0x74],dword 0x6c437265
         -6C
000008E4  61                popa
000008E5  7373              jnc 0x95a
000008E7  657300            gs jnc 0x8ea
000008EA  5F                pop edi
000008EB  5A                pop edx
000008EC  4E                dec esi
000008ED  53                push ebx
000008EE  69727345526900    imul esi,[edx+0x73],dword 0x695245
000008F5  5F                pop edi
000008F6  49                dec ecx
000008F7  54                push esp
000008F8  4D                dec ebp
000008F9  5F                pop edi
000008FA  7265              jc 0x961
000008FC  676973746572544D  imul esi,[bp+di+0x74],dword 0x4d547265
00000904  43                inc ebx
00000905  6C                insb
00000906  6F                outsd
00000907  6E                outsb
00000908  6554              gs push esp
0000090A  61                popa
0000090B  626C6500          bound ebp,[ebp+0x0]
0000090F  5F                pop edi
00000910  5A                pop edx
00000911  4E                dec esi
00000912  53                push ebx
00000913  7336              jnc 0x94b
00000915  61                popa
00000916  7070              jo 0x988
00000918  656E              gs outsb
0000091A  6445              fs inc ebp
0000091C  6A63              push byte +0x63
0000091E  005F5A            add [edi+0x5a],bl
00000921  4E                dec esi
00000922  53                push ebx
00000923  6F                outsd
00000924  6C                insb
00000925  7345              jnc 0x96c
00000927  69005F5A5374      imul eax,[eax],dword 0x74535a5f
0000092D  3239              xor bh,[ecx]
0000092F  5F                pop edi
00000930  52                push edx
00000931  625F74            bound ebx,[edi+0x74]
00000934  7265              jc 0x99b
00000936  655F              gs pop edi
00000938  696E736572745F    imul ebp,[esi+0x73],dword 0x5f747265
0000093F  61                popa
00000940  6E                outsb
00000941  645F              fs pop edi
00000943  7265              jc 0x9aa
00000945  62616C            bound esp,[ecx+0x6c]
00000948  61                popa
00000949  6E                outsb
0000094A  636562            arpl [ebp+0x62],sp
0000094D  50                push eax
0000094E  53                push ebx
0000094F  7431              jz 0x982
00000951  385F52            cmp [edi+0x52],bl
00000954  625F74            bound ebx,[edi+0x74]
00000957  7265              jc 0x9be
00000959  655F              gs pop edi
0000095B  6E                outsb
0000095C  6F                outsd
0000095D  64655F            gs pop edi
00000960  626173            bound esp,[ecx+0x73]
00000963  6553              gs push ebx
00000965  305F52            xor [edi+0x52],bl
00000968  53                push ebx
00000969  5F                pop edi
0000096A  005F5A            add [edi+0x5a],bl
0000096D  53                push ebx
0000096E  7431              jz 0x9a1
00000970  37                aaa
00000971  5F                pop edi
00000972  5F                pop edi
00000973  7468              jz 0x9dd
00000975  726F              jc 0x9e6
00000977  775F              ja 0x9d8
00000979  626164            bound esp,[ecx+0x64]
0000097C  5F                pop edi
0000097D  61                popa
0000097E  6C                insb
0000097F  6C                insb
00000980  6F                outsd
00000981  637600            arpl [esi+0x0],si
00000984  5F                pop edi
00000985  5A                pop edx
00000986  4E                dec esi
00000987  53                push ebx
00000988  61                popa
00000989  49                dec ecx
0000098A  634544            arpl [ebp+0x44],ax
0000098D  314576            xor [ebp+0x76],eax
00000990  006C6962          add [ecx+ebp*2+0x62],ch
00000994  6D                insd
00000995  2E736F            cs jnc 0xa07
00000998  2E36006C6962      add [ss:ecx+ebp*2+0x62],ch
0000099E  6763635F          arpl [bp+di+0x5f],sp
000009A2  732E              jnc 0x9d2
000009A4  736F              jnc 0xa15
000009A6  2E3100            xor [cs:eax],eax
000009A9  5F                pop edi
000009AA  55                push ebp
000009AB  6E                outsb
000009AC  7769              ja 0xa17
000009AE  6E                outsb
000009AF  645F              fs pop edi
000009B1  52                push edx
000009B2  657375            gs jnc 0xa2a
000009B5  6D                insd
000009B6  65006C6962        add [gs:ecx+ebp*2+0x62],ch
000009BB  632E              arpl [esi],bp
000009BD  736F              jnc 0xa2e
000009BF  2E36005F49        add [ss:edi+0x49],bl
000009C4  4F                dec edi
000009C5  5F                pop edi
000009C6  7374              jnc 0xa3c
000009C8  64696E5F75736564  imul ebp,[fs:esi+0x5f],dword 0x64657375
000009D0  005F5F            add [edi+0x5f],bl
000009D3  6C                insb
000009D4  6962635F737461    imul esp,[edx+0x63],dword 0x6174735f
000009DB  7274              jc 0xa51
000009DD  5F                pop edi
000009DE  6D                insd
000009DF  61                popa
000009E0  696E004743435F    imul ebp,[esi+0x0],dword 0x5f434347
000009E7  332E              xor ebp,[esi]
000009E9  3000              xor [eax],al
000009EB  47                inc edi
000009EC  4C                dec esp
000009ED  49                dec ecx
000009EE  42                inc edx
000009EF  43                inc ebx
000009F0  5F                pop edi
000009F1  322E              xor ch,[esi]
000009F3  3000              xor [eax],al
000009F5  43                inc ebx
000009F6  58                pop eax
000009F7  58                pop eax
000009F8  41                inc ecx
000009F9  42                inc edx
000009FA  49                dec ecx
000009FB  5F                pop edi
000009FC  312E              xor [esi],ebp
000009FE  3300              xor eax,[eax]
00000A00  47                inc edi
00000A01  4C                dec esp
00000A02  49                dec ecx
00000A03  42                inc edx
00000A04  43                inc ebx
00000A05  58                pop eax
00000A06  58                pop eax
00000A07  5F                pop edi
00000A08  332E              xor ebp,[esi]
00000A0A  3400              xor al,0x0
00000A0C  0000              add [eax],al
00000A0E  0200              add al,[eax]
00000A10  0200              add al,[eax]
00000A12  0000              add [eax],al
00000A14  0000              add [eax],al
00000A16  0200              add al,[eax]
00000A18  0200              add al,[eax]
00000A1A  0200              add al,[eax]
00000A1C  0300              add eax,[eax]
00000A1E  0200              add al,[eax]
00000A20  0200              add al,[eax]
00000A22  0400              add al,0x0
00000A24  0200              add al,[eax]
00000A26  0200              add al,[eax]
00000A28  0000              add [eax],al
00000A2A  0200              add al,[eax]
00000A2C  0100              add [eax],eax
00000A2E  0200              add al,[eax]
00000A30  0200              add al,[eax]
00000A32  0000              add [eax],al
00000A34  0200              add al,[eax]
00000A36  0200              add al,[eax]
00000A38  0200              add al,[eax]
00000A3A  0200              add al,[eax]
00000A3C  0200              add al,[eax]
00000A3E  0200              add al,[eax]
00000A40  0200              add al,[eax]
00000A42  0200              add al,[eax]
00000A44  0200              add al,[eax]
00000A46  0200              add al,[eax]
00000A48  0000              add [eax],al
00000A4A  0200              add al,[eax]
00000A4C  0200              add al,[eax]
00000A4E  0200              add al,[eax]
00000A50  0200              add al,[eax]
00000A52  0200              add al,[eax]
00000A54  0300              add eax,[eax]
00000A56  0200              add al,[eax]
00000A58  0200              add al,[eax]
00000A5A  0300              add eax,[eax]
00000A5C  0200              add al,[eax]
00000A5E  0300              add eax,[eax]
00000A60  0500000001        add eax,0x1000000
00000A65  0001              add [ecx],al
00000A67  003B              add [ebx],bh
00000A69  0400              add al,0x0
00000A6B  0010              add [eax],dl
00000A6D  0000              add [eax],al
00000A6F  0020              add [eax],ah
00000A71  0000              add [eax],al
00000A73  005026            add [eax+0x26],dl
00000A76  790B              jns 0xa83
00000A78  0000              add [eax],al
00000A7A  0500830400        add eax,0x48300
00000A7F  0000              add [eax],al
00000A81  0000              add [eax],al
00000A83  0001              add [ecx],al
00000A85  0001              add [ecx],al
00000A87  005804            add [eax+0x4],bl
00000A8A  0000              add [eax],al
00000A8C  1000              adc [eax],al
00000A8E  0000              add [eax],al
00000A90  2000              and [eax],al
00000A92  0000              add [eax],al
00000A94  106969            adc [ecx+0x69],ch
00000A97  0D00000400        or eax,0x40000
00000A9C  8B0400            mov eax,[eax+eax]
00000A9F  0000              add [eax],al
00000AA1  0000              add [eax],al
00000AA3  0001              add [ecx],al
00000AA5  0002              add [edx],al
00000AA7  0001              add [ecx],al
00000AA9  0000              add [eax],al
00000AAB  0010              add [eax],dl
00000AAD  0000              add [eax],al
00000AAF  0000              add [eax],al
00000AB1  0000              add [eax],al
00000AB3  00D3              add bl,dl
00000AB5  AF                scasd
00000AB6  6B050000030095    imul eax,[0x30000],byte -0x6b
00000ABD  0400              add al,0x0
00000ABF  0010              add [eax],dl
00000AC1  0000              add [eax],al
00000AC3  00742992          add [ecx+ebp-0x6e],dh
00000AC7  0800              or [eax],al
00000AC9  0002              add [edx],al
00000ACB  00A004000000      add [eax+0x4],ah
00000AD1  0000              add [eax],al
00000AD3  00B8DC040806      add [eax+0x60804dc],bh
00000AD9  0300              add eax,[eax]
00000ADB  00C8              add al,cl
00000ADD  DC0408            fadd qword [eax+ecx]
00000AE0  07                pop es
00000AE1  0100              add [eax],eax
00000AE3  00CC              add ah,cl
00000AE5  DC0408            fadd qword [eax+ecx]
00000AE8  07                pop es
00000AE9  0200              add al,[eax]
00000AEB  00D0              add al,dl
00000AED  DC0408            fadd qword [eax+ecx]
00000AF0  07                pop es
00000AF1  0300              add eax,[eax]
00000AF3  00D4              add ah,dl
00000AF5  DC0408            fadd qword [eax+ecx]
00000AF8  07                pop es
00000AF9  050000D8DC        add eax,0xdcd80000
00000AFE  0408              add al,0x8
00000B00  07                pop es
00000B01  06                push es
00000B02  0000              add [eax],al
00000B04  DC                db 0xDC
00000B05  DC0408            fadd qword [eax+ecx]
00000B08  07                pop es
00000B09  07                pop es
00000B0A  0000              add [eax],al
00000B0C  E0DC              loopne 0xaea
00000B0E  0408              add al,0x8
00000B10  07                pop es
00000B11  0800              or [eax],al
00000B13  00E4              add ah,ah
00000B15  DC0408            fadd qword [eax+ecx]
00000B18  07                pop es
00000B19  0900              or [eax],eax
00000B1B  00E8              add al,ch
00000B1D  DC0408            fadd qword [eax+ecx]
00000B20  07                pop es
00000B21  0A00              or al,[eax]
00000B23  00EC              add ah,ch
00000B25  DC0408            fadd qword [eax+ecx]
00000B28  07                pop es
00000B29  0B00              or eax,[eax]
00000B2B  00F0              add al,dh
00000B2D  DC0408            fadd qword [eax+ecx]
00000B30  07                pop es
00000B31  0C00              or al,0x0
00000B33  00F4              add ah,dh
00000B35  DC0408            fadd qword [eax+ecx]
00000B38  07                pop es
00000B39  0D0000F8DC        or eax,0xdcf80000
00000B3E  0408              add al,0x8
00000B40  07                pop es
00000B41  0F0000            sldt [eax]
00000B44  FC                cld
00000B45  DC0408            fadd qword [eax+ecx]
00000B48  07                pop es
00000B49  1100              adc [eax],eax
00000B4B  0000              add [eax],al
00000B4D  DD0408            fld qword [eax+ecx]
00000B50  07                pop es
00000B51  1200              adc al,[eax]
00000B53  0004DD04080714    add [ebx*8+0x14070804],al
00000B5A  0000              add [eax],al
00000B5C  08DD              or ch,bl
00000B5E  0408              add al,0x8
00000B60  07                pop es
00000B61  1500000CDD        adc eax,0xdd0c0000
00000B66  0408              add al,0x8
00000B68  07                pop es
00000B69  16                push ss
00000B6A  0000              add [eax],al
00000B6C  10DD              adc ch,bl
00000B6E  0408              add al,0x8
00000B70  07                pop es
00000B71  17                pop ss
00000B72  0000              add [eax],al
00000B74  14DD              adc al,0xdd
00000B76  0408              add al,0x8
00000B78  07                pop es
00000B79  1800              sbb [eax],al
00000B7B  0018              add [eax],bl
00000B7D  DD0408            fld qword [eax+ecx]
00000B80  07                pop es
00000B81  1900              sbb [eax],eax
00000B83  001CDD0408071A    add [ebx*8+0x1a070804],bl
00000B8A  0000              add [eax],al
00000B8C  20DD              and ch,bl
00000B8E  0408              add al,0x8
00000B90  07                pop es
00000B91  1B00              sbb eax,[eax]
00000B93  0024DD0408071C    add [ebx*8+0x1c070804],ah
00000B9A  0000              add [eax],al
00000B9C  28DD              sub ch,bl
00000B9E  0408              add al,0x8
00000BA0  07                pop es
00000BA1  1D00002CDD        sbb eax,0xdd2c0000
00000BA6  0408              add al,0x8
00000BA8  07                pop es
00000BA9  1F                pop ds
00000BAA  0000              add [eax],al
00000BAC  30DD              xor ch,bl
00000BAE  0408              add al,0x8
00000BB0  07                pop es
00000BB1  2000              and [eax],al
00000BB3  0034DD04080721    add [ebx*8+0x21070804],dh
00000BBA  0000              add [eax],al
00000BBC  38DD              cmp ch,bl
00000BBE  0408              add al,0x8
00000BC0  07                pop es
00000BC1  2200              and al,[eax]
00000BC3  003CDD04080723    add [ebx*8+0x23070804],bh
00000BCA  0000              add [eax],al
00000BCC  40                inc eax
00000BCD  DD0408            fld qword [eax+ecx]
00000BD0  07                pop es
00000BD1  2400              and al,0x0
00000BD3  0044DD04          add [ebp+ebx*8+0x4],al
00000BD7  0807              or [edi],al
00000BD9  25000048DD        and eax,0xdd480000
00000BDE  0408              add al,0x8
00000BE0  07                pop es
00000BE1  260000            add [es:eax],al
00000BE4  4C                dec esp
00000BE5  DD0408            fld qword [eax+ecx]
00000BE8  07                pop es
00000BE9  27                daa
00000BEA  0000              add [eax],al
00000BEC  50                push eax
00000BED  DD0408            fld qword [eax+ecx]
00000BF0  07                pop es
00000BF1  2800              sub [eax],al
00000BF3  0054DD04          add [ebp+ebx*8+0x4],dl
00000BF7  0807              or [edi],al
00000BF9  2900              sub [eax],eax
00000BFB  0058DD            add [eax-0x23],bl
00000BFE  0408              add al,0x8
00000C00  07                pop es
00000C01  2A00              sub al,[eax]
00000C03  005589            add [ebp-0x77],dl
00000C06  E553              in eax,0x53
00000C08  83EC04            sub esp,byte +0x4
00000C0B  E800000000        call 0xc10
00000C10  5B                pop ebx
00000C11  81C3AC500000      add ebx,0x50ac
00000C17  8B93FCFFFFFF      mov edx,[ebx+0xfffffffc]
00000C1D  85D2              test edx,edx
00000C1F  7405              jz 0xc26
00000C21  E84A000000        call 0xc70
00000C26  E865030000        call 0xf90
00000C2B  E8B0260000        call 0x32e0
00000C30  58                pop eax
00000C31  5B                pop ebx
00000C32  C9                leave
00000C33  C3                ret
00000C34  0000              add [eax],al
00000C36  0000              add [eax],al
00000C38  0000              add [eax],al
00000C3A  0000              add [eax],al
00000C3C  0000              add [eax],al
00000C3E  0000              add [eax],al
00000C40  FF35C0DC0408      push dword [0x804dcc0]
00000C46  FF25C4DC0408      jmp near [0x804dcc4]
00000C4C  0000              add [eax],al
00000C4E  0000              add [eax],al
00000C50  FF25C8DC0408      jmp near [0x804dcc8]
00000C56  6800000000        push dword 0x0
00000C5B  E9E0FFFFFF        jmp 0x100000c40
00000C60  FF25CCDC0408      jmp near [0x804dccc]
00000C66  6808000000        push dword 0x8
00000C6B  E9D0FFFFFF        jmp 0x100000c40
00000C70  FF25D0DC0408      jmp near [0x804dcd0]
00000C76  6810000000        push dword 0x10
00000C7B  E9C0FFFFFF        jmp 0x100000c40
00000C80  FF25D4DC0408      jmp near [0x804dcd4]
00000C86  6818000000        push dword 0x18
00000C8B  E9B0FFFFFF        jmp 0x100000c40
00000C90  FF25D8DC0408      jmp near [0x804dcd8]
00000C96  6820000000        push dword 0x20
00000C9B  E9A0FFFFFF        jmp 0x100000c40
00000CA0  FF25DCDC0408      jmp near [0x804dcdc]
00000CA6  6828000000        push dword 0x28
00000CAB  E990FFFFFF        jmp 0x100000c40
00000CB0  FF25E0DC0408      jmp near [0x804dce0]
00000CB6  6830000000        push dword 0x30
00000CBB  E980FFFFFF        jmp 0x100000c40
00000CC0  FF25E4DC0408      jmp near [0x804dce4]
00000CC6  6838000000        push dword 0x38
00000CCB  E970FFFFFF        jmp 0x100000c40
00000CD0  FF25E8DC0408      jmp near [0x804dce8]
00000CD6  6840000000        push dword 0x40
00000CDB  E960FFFFFF        jmp 0x100000c40
00000CE0  FF25ECDC0408      jmp near [0x804dcec]
00000CE6  6848000000        push dword 0x48
00000CEB  E950FFFFFF        jmp 0x100000c40
00000CF0  FF25F0DC0408      jmp near [0x804dcf0]
00000CF6  6850000000        push dword 0x50
00000CFB  E940FFFFFF        jmp 0x100000c40
00000D00  FF25F4DC0408      jmp near [0x804dcf4]
00000D06  6858000000        push dword 0x58
00000D0B  E930FFFFFF        jmp 0x100000c40
00000D10  FF25F8DC0408      jmp near [0x804dcf8]
00000D16  6860000000        push dword 0x60
00000D1B  E920FFFFFF        jmp 0x100000c40
00000D20  FF25FCDC0408      jmp near [0x804dcfc]
00000D26  6868000000        push dword 0x68
00000D2B  E910FFFFFF        jmp 0x100000c40
00000D30  FF2500DD0408      jmp near [0x804dd00]
00000D36  6870000000        push dword 0x70
00000D3B  E900FFFFFF        jmp 0x100000c40
00000D40  FF2504DD0408      jmp near [0x804dd04]
00000D46  6878000000        push dword 0x78
00000D4B  E9F0FEFFFF        jmp 0x100000c40
00000D50  FF2508DD0408      jmp near [0x804dd08]
00000D56  6880000000        push dword 0x80
00000D5B  E9E0FEFFFF        jmp 0x100000c40
00000D60  FF250CDD0408      jmp near [0x804dd0c]
00000D66  6888000000        push dword 0x88
00000D6B  E9D0FEFFFF        jmp 0x100000c40
00000D70  FF2510DD0408      jmp near [0x804dd10]
00000D76  6890000000        push dword 0x90
00000D7B  E9C0FEFFFF        jmp 0x100000c40
00000D80  FF2514DD0408      jmp near [0x804dd14]
00000D86  6898000000        push dword 0x98
00000D8B  E9B0FEFFFF        jmp 0x100000c40
00000D90  FF2518DD0408      jmp near [0x804dd18]
00000D96  68A0000000        push dword 0xa0
00000D9B  E9A0FEFFFF        jmp 0x100000c40
00000DA0  FF251CDD0408      jmp near [0x804dd1c]
00000DA6  68A8000000        push dword 0xa8
00000DAB  E990FEFFFF        jmp 0x100000c40
00000DB0  FF2520DD0408      jmp near [0x804dd20]
00000DB6  68B0000000        push dword 0xb0
00000DBB  E980FEFFFF        jmp 0x100000c40
00000DC0  FF2524DD0408      jmp near [0x804dd24]
00000DC6  68B8000000        push dword 0xb8
00000DCB  E970FEFFFF        jmp 0x100000c40
00000DD0  FF2528DD0408      jmp near [0x804dd28]
00000DD6  68C0000000        push dword 0xc0
00000DDB  E960FEFFFF        jmp 0x100000c40
00000DE0  FF252CDD0408      jmp near [0x804dd2c]
00000DE6  68C8000000        push dword 0xc8
00000DEB  E950FEFFFF        jmp 0x100000c40
00000DF0  FF2530DD0408      jmp near [0x804dd30]
00000DF6  68D0000000        push dword 0xd0
00000DFB  E940FEFFFF        jmp 0x100000c40
00000E00  FF2534DD0408      jmp near [0x804dd34]
00000E06  68D8000000        push dword 0xd8
00000E0B  E930FEFFFF        jmp 0x100000c40
00000E10  FF2538DD0408      jmp near [0x804dd38]
00000E16  68E0000000        push dword 0xe0
00000E1B  E920FEFFFF        jmp 0x100000c40
00000E20  FF253CDD0408      jmp near [0x804dd3c]
00000E26  68E8000000        push dword 0xe8
00000E2B  E910FEFFFF        jmp 0x100000c40
00000E30  FF2540DD0408      jmp near [0x804dd40]
00000E36  68F0000000        push dword 0xf0
00000E3B  E900FEFFFF        jmp 0x100000c40
00000E40  FF2544DD0408      jmp near [0x804dd44]
00000E46  68F8000000        push dword 0xf8
00000E4B  E9F0FDFFFF        jmp 0x100000c40
00000E50  FF2548DD0408      jmp near [0x804dd48]
00000E56  6800010000        push dword 0x100
00000E5B  E9E0FDFFFF        jmp 0x100000c40
00000E60  FF254CDD0408      jmp near [0x804dd4c]
00000E66  6808010000        push dword 0x108
00000E6B  E9D0FDFFFF        jmp 0x100000c40
00000E70  FF2550DD0408      jmp near [0x804dd50]
00000E76  6810010000        push dword 0x110
00000E7B  E9C0FDFFFF        jmp 0x100000c40
00000E80  FF2554DD0408      jmp near [0x804dd54]
00000E86  6818010000        push dword 0x118
00000E8B  E9B0FDFFFF        jmp 0x100000c40
00000E90  FF2558DD0408      jmp near [0x804dd58]
00000E96  6820010000        push dword 0x120
00000E9B  E9A0FDFFFF        jmp 0x100000c40
00000EA0  31ED              xor ebp,ebp
00000EA2  5E                pop esi
00000EA3  89E1              mov ecx,esp
00000EA5  83E4F0            and esp,byte -0x10
00000EA8  50                push eax
00000EA9  54                push esp
00000EAA  52                push edx
00000EAB  6870B20408        push dword 0x804b270
00000EB0  6880B20408        push dword 0x804b280
00000EB5  51                push ecx
00000EB6  56                push esi
00000EB7  6806900408        push dword 0x8049006
00000EBC  E81FFEFFFF        call 0x100000ce0
00000EC1  F4                hlt
00000EC2  90                nop
00000EC3  90                nop
00000EC4  6690              o16 nop
00000EC6  6690              o16 nop
00000EC8  6690              o16 nop
00000ECA  6690              o16 nop
00000ECC  6690              o16 nop
00000ECE  6690              o16 nop
00000ED0  B867DD0408        mov eax,0x804dd67
00000ED5  2D64DD0408        sub eax,0x804dd64
00000EDA  83F806            cmp eax,byte +0x6
00000EDD  7701              ja 0xee0
00000EDF  C3                ret
00000EE0  B800000000        mov eax,0x0
00000EE5  85C0              test eax,eax
00000EE7  74F6              jz 0xedf
00000EE9  55                push ebp
00000EEA  89E5              mov ebp,esp
00000EEC  83EC18            sub esp,byte +0x18
00000EEF  C7042464DD0408    mov dword [esp],0x804dd64
00000EF6  FFD0              call eax
00000EF8  C9                leave
00000EF9  C3                ret
00000EFA  8DB600000000      lea esi,[esi+0x0]
00000F00  B864DD0408        mov eax,0x804dd64
00000F05  2D64DD0408        sub eax,0x804dd64
00000F0A  C1F802            sar eax,0x2
00000F0D  89C2              mov edx,eax
00000F0F  C1EA1F            shr edx,0x1f
00000F12  01D0              add eax,edx
00000F14  D1F8              sar eax,1
00000F16  7501              jnz 0xf19
00000F18  C3                ret
00000F19  BA00000000        mov edx,0x0
00000F1E  85D2              test edx,edx
00000F20  74F6              jz 0xf18
00000F22  55                push ebp
00000F23  89E5              mov ebp,esp
00000F25  83EC18            sub esp,byte +0x18
00000F28  89442404          mov [esp+0x4],eax
00000F2C  C7042464DD0408    mov dword [esp],0x804dd64
00000F33  FFD2              call edx
00000F35  C9                leave
00000F36  C3                ret
00000F37  89F6              mov esi,esi
00000F39  8DBC2700000000    lea edi,[edi+0x0]
00000F40  803D64DD040800    cmp byte [0x804dd64],0x0
00000F47  7544              jnz 0xf8d
00000F49  55                push ebp
00000F4A  89E5              mov ebp,esp
00000F4C  53                push ebx
00000F4D  BBD0DB0408        mov ebx,0x804dbd0
00000F52  52                push edx
00000F53  81EBCCDB0408      sub ebx,0x804dbcc
00000F59  A168DD0408        mov eax,[0x804dd68]
00000F5E  C1FB02            sar ebx,0x2
00000F61  4B                dec ebx
00000F62  39D8              cmp eax,ebx
00000F64  7318              jnc 0xf7e
00000F66  6690              o16 nop
00000F68  40                inc eax
00000F69  A368DD0408        mov [0x804dd68],eax
00000F6E  FF1485CCDB0408    call near [eax*4+0x804dbcc]
00000F75  A168DD0408        mov eax,[0x804dd68]
00000F7A  39D8              cmp eax,ebx
00000F7C  72EA              jc 0xf68
00000F7E  E84DFFFFFF        call 0x100000ed0
00000F83  C60564DD040801    mov byte [0x804dd64],0x1
00000F8A  58                pop eax
00000F8B  5B                pop ebx
00000F8C  5D                pop ebp
00000F8D  C3                ret
00000F8E  6690              o16 nop
00000F90  8B0DD4DB0408      mov ecx,[0x804dbd4]
00000F96  85C9              test ecx,ecx
00000F98  741E              jz 0xfb8
00000F9A  B800000000        mov eax,0x0
00000F9F  85C0              test eax,eax
00000FA1  7415              jz 0xfb8
00000FA3  55                push ebp
00000FA4  89E5              mov ebp,esp
00000FA6  83EC18            sub esp,byte +0x18
00000FA9  C70424D4DB0408    mov dword [esp],0x804dbd4
00000FB0  FFD0              call eax
00000FB2  C9                leave
00000FB3  E948FFFFFF        jmp 0x100000f00
00000FB8  E943FFFFFF        jmp 0x100000f00
00000FBD  6690              o16 nop
00000FBF  90                nop
00000FC0  55                push ebp
00000FC1  89E5              mov ebp,esp
00000FC3  83EC04            sub esp,byte +0x4
00000FC6  8B4508            mov eax,[ebp+0x8]
00000FC9  8845FC            mov [ebp-0x4],al
00000FCC  0FBE45FC          movsx eax,byte [ebp-0x4]
00000FD0  83E861            sub eax,byte +0x61
00000FD3  83F813            cmp eax,byte +0x13
00000FD6  7729              ja 0x1001
00000FD8  8B04852CB30408    mov eax,[eax*4+0x804b32c]
00000FDF  FFE0              jmp eax
00000FE1  B030              mov al,0x30
00000FE3  EB1F              jmp short 0x1004
00000FE5  B031              mov al,0x31
00000FE7  EB1B              jmp short 0x1004
00000FE9  B033              mov al,0x33
00000FEB  EB17              jmp short 0x1004
00000FED  B034              mov al,0x34
00000FEF  EB13              jmp short 0x1004
00000FF1  B035              mov al,0x35
00000FF3  EB0F              jmp short 0x1004
00000FF5  B037              mov al,0x37
00000FF7  EB0B              jmp short 0x1004
00000FF9  B038              mov al,0x38
00000FFB  EB07              jmp short 0x1004
00000FFD  B039              mov al,0x39
00000FFF  EB03              jmp short 0x1004
00001001  8A45FC            mov al,[ebp-0x4]
00001004  C9                leave
00001005  C3                ret
00001006  8D4C2404          lea ecx,[esp+0x4]
0000100A  83E4F0            and esp,byte -0x10
0000100D  FF71FC            push dword [ecx-0x4]
00001010  55                push ebp
00001011  89E5              mov ebp,esp
00001013  56                push esi
00001014  53                push ebx
00001015  51                push ecx
00001016  81EC2C030000      sub esp,0x32c
0000101C  C744240808000000  mov dword [esp+0x8],0x8
00001024  C74424047CB30408  mov dword [esp+0x4],0x804b37c
0000102C  8D85F8FDFFFF      lea eax,[ebp+0xfffffdf8]
00001032  890424            mov [esp],eax
00001035  E8B6FDFFFF        call 0x100000df0
0000103A  C744240420000000  mov dword [esp+0x4],0x20
00001042  C7042410000000    mov dword [esp],0x10
00001049  E810090000        call 0x195e
0000104E  89442408          mov [esp+0x8],eax
00001052  C744240481B30408  mov dword [esp+0x4],0x804b381
0000105A  8D85E4FCFFFF      lea eax,[ebp+0xfffffce4]
00001060  890424            mov [esp],eax
00001063  E8A8FDFFFF        call 0x100000e10
00001068  8D8578FFFFFF      lea eax,[ebp+0xffffff78]
0000106E  89442404          mov [esp+0x4],eax
00001072  8D85F8FDFFFF      lea eax,[ebp+0xfffffdf8]
00001078  890424            mov [esp],eax
0000107B  E860FDFFFF        call 0x100000de0
00001080  C745E400000000    mov dword [ebp-0x1c],0x0
00001087  E92C070000        jmp 0x17b8
0000108C  8D8574FFFFFF      lea eax,[ebp+0xffffff74]
00001092  89442404          mov [esp+0x4],eax
00001096  8D85F8FDFFFF      lea eax,[ebp+0xfffffdf8]
0000109C  890424            mov [esp],eax
0000109F  E83CFDFFFF        call 0x100000de0
000010A4  8D8570FFFFFF      lea eax,[ebp+0xffffff70]
000010AA  890424            mov [esp],eax
000010AD  E89EFBFFFF        call 0x100000c50
000010B2  8D8570FFFFFF      lea eax,[ebp+0xffffff70]
000010B8  89442404          mov [esp+0x4],eax
000010BC  8D85F8FDFFFF      lea eax,[ebp+0xfffffdf8]
000010C2  890424            mov [esp],eax
000010C5  E856FCFFFF        call 0x100000d20
000010CA  8D8558FFFFFF      lea eax,[ebp+0xffffff58]
000010D0  890424            mov [esp],eax
000010D3  E8BC080000        call 0x1994
000010D8  C745E000000000    mov dword [ebp-0x20],0x0
000010DF  E977030000        jmp 0x145b
000010E4  8B55E0            mov edx,[ebp-0x20]
000010E7  8D851CFFFFFF      lea eax,[ebp+0xffffff1c]
000010ED  C744240C02000000  mov dword [esp+0xc],0x2
000010F5  89542408          mov [esp+0x8],edx
000010F9  8D9570FFFFFF      lea edx,[ebp+0xffffff70]
000010FF  89542404          mov [esp+0x4],edx
00001103  890424            mov [esp],eax
00001106  E8A5FCFFFF        call 0x100000db0
0000110B  83EC04            sub esp,byte +0x4
0000110E  8D857CFFFFFF      lea eax,[ebp+0xffffff7c]
00001114  8D951CFFFFFF      lea edx,[ebp+0xffffff1c]
0000111A  89542408          mov [esp+0x8],edx
0000111E  8D9558FFFFFF      lea edx,[ebp+0xffffff58]
00001124  89542404          mov [esp+0x4],edx
00001128  890424            mov [esp],eax
0000112B  E8D8080000        call 0x1a08
00001130  83EC04            sub esp,byte +0x4
00001133  C744240401000000  mov dword [esp+0x4],0x1
0000113B  8D851CFFFFFF      lea eax,[ebp+0xffffff1c]
00001141  890424            mov [esp],eax
00001144  E837FBFFFF        call 0x100000c80
00001149  8A00              mov al,[eax]
0000114B  0FBED8            movsx ebx,al
0000114E  8D4597            lea eax,[ebp-0x69]
00001151  890424            mov [esp],eax
00001154  E817FDFFFF        call 0x100000e70
00001159  C744240400000000  mov dword [esp+0x4],0x0
00001161  8D851CFFFFFF      lea eax,[ebp+0xffffff1c]
00001167  890424            mov [esp],eax
0000116A  E811FBFFFF        call 0x100000c80
0000116F  8A00              mov al,[eax]
00001171  0FBEC0            movsx eax,al
00001174  890424            mov [esp],eax
00001177  E844FEFFFF        call 0x100000fc0
0000117C  0FBEC0            movsx eax,al
0000117F  8D5597            lea edx,[ebp-0x69]
00001182  8954240C          mov [esp+0xc],edx
00001186  89442408          mov [esp+0x8],eax
0000118A  C744240401000000  mov dword [esp+0x4],0x1
00001192  8D4590            lea eax,[ebp-0x70]
00001195  890424            mov [esp],eax
00001198  E803FBFFFF        call 0x100000ca0
0000119D  8D458C            lea eax,[ebp-0x74]
000011A0  895C2408          mov [esp+0x8],ebx
000011A4  8D5590            lea edx,[ebp-0x70]
000011A7  89542404          mov [esp+0x4],edx
000011AB  890424            mov [esp],eax
000011AE  E8B6080000        call 0x1a69
000011B3  83EC04            sub esp,byte +0x4
000011B6  8D4584            lea eax,[ebp-0x7c]
000011B9  8D558C            lea edx,[ebp-0x74]
000011BC  89542408          mov [esp+0x8],edx
000011C0  8D9558FFFFFF      lea edx,[ebp+0xffffff58]
000011C6  89542404          mov [esp+0x4],edx
000011CA  890424            mov [esp],eax
000011CD  E836080000        call 0x1a08
000011D2  83EC04            sub esp,byte +0x4
000011D5  8D458C            lea eax,[ebp-0x74]
000011D8  890424            mov [esp],eax
000011DB  E850FBFFFF        call 0x100000d30
000011E0  8D4590            lea eax,[ebp-0x70]
000011E3  890424            mov [esp],eax
000011E6  E845FBFFFF        call 0x100000d30
000011EB  8D4597            lea eax,[ebp-0x69]
000011EE  890424            mov [esp],eax
000011F1  E8DAFBFFFF        call 0x100000dd0
000011F6  C744240401000000  mov dword [esp+0x4],0x1
000011FE  8D851CFFFFFF      lea eax,[ebp+0xffffff1c]
00001204  890424            mov [esp],eax
00001207  E874FAFFFF        call 0x100000c80
0000120C  8A00              mov al,[eax]
0000120E  0FBEC0            movsx eax,al
00001211  890424            mov [esp],eax
00001214  E8A7FDFFFF        call 0x100000fc0
00001219  0FBED8            movsx ebx,al
0000121C  8D45AB            lea eax,[ebp-0x55]
0000121F  890424            mov [esp],eax
00001222  E849FCFFFF        call 0x100000e70
00001227  C744240400000000  mov dword [esp+0x4],0x0
0000122F  8D851CFFFFFF      lea eax,[ebp+0xffffff1c]
00001235  890424            mov [esp],eax
00001238  E843FAFFFF        call 0x100000c80
0000123D  8A00              mov al,[eax]
0000123F  0FBEC0            movsx eax,al
00001242  890424            mov [esp],eax
00001245  E876FDFFFF        call 0x100000fc0
0000124A  0FBEC0            movsx eax,al
0000124D  8D55AB            lea edx,[ebp-0x55]
00001250  8954240C          mov [esp+0xc],edx
00001254  89442408          mov [esp+0x8],eax
00001258  C744240401000000  mov dword [esp+0x4],0x1
00001260  8D45A4            lea eax,[ebp-0x5c]
00001263  890424            mov [esp],eax
00001266  E835FAFFFF        call 0x100000ca0
0000126B  8D45A0            lea eax,[ebp-0x60]
0000126E  895C2408          mov [esp+0x8],ebx
00001272  8D55A4            lea edx,[ebp-0x5c]
00001275  89542404          mov [esp+0x4],edx
00001279  890424            mov [esp],eax
0000127C  E8E8070000        call 0x1a69
00001281  83EC04            sub esp,byte +0x4
00001284  8D4598            lea eax,[ebp-0x68]
00001287  8D55A0            lea edx,[ebp-0x60]
0000128A  89542408          mov [esp+0x8],edx
0000128E  8D9558FFFFFF      lea edx,[ebp+0xffffff58]
00001294  89542404          mov [esp+0x4],edx
00001298  890424            mov [esp],eax
0000129B  E868070000        call 0x1a08
000012A0  83EC04            sub esp,byte +0x4
000012A3  8D45A0            lea eax,[ebp-0x60]
000012A6  890424            mov [esp],eax
000012A9  E882FAFFFF        call 0x100000d30
000012AE  8D45A4            lea eax,[ebp-0x5c]
000012B1  890424            mov [esp],eax
000012B4  E877FAFFFF        call 0x100000d30
000012B9  8D45AB            lea eax,[ebp-0x55]
000012BC  890424            mov [esp],eax
000012BF  E80CFBFFFF        call 0x100000dd0
000012C4  C744240401000000  mov dword [esp+0x4],0x1
000012CC  8D851CFFFFFF      lea eax,[ebp+0xffffff1c]
000012D2  890424            mov [esp],eax
000012D5  E8A6F9FFFF        call 0x100000c80
000012DA  8A00              mov al,[eax]
000012DC  0FBED8            movsx ebx,al
000012DF  8D45BF            lea eax,[ebp-0x41]
000012E2  890424            mov [esp],eax
000012E5  E886FBFFFF        call 0x100000e70
000012EA  C744240400000000  mov dword [esp+0x4],0x0
000012F2  8D851CFFFFFF      lea eax,[ebp+0xffffff1c]
000012F8  890424            mov [esp],eax
000012FB  E880F9FFFF        call 0x100000c80
00001300  8A00              mov al,[eax]
00001302  0FBEC0            movsx eax,al
00001305  890424            mov [esp],eax
00001308  E8B3FCFFFF        call 0x100000fc0
0000130D  0FBEC0            movsx eax,al
00001310  8D55BF            lea edx,[ebp-0x41]
00001313  8954240C          mov [esp+0xc],edx
00001317  89442408          mov [esp+0x8],eax
0000131B  C744240401000000  mov dword [esp+0x4],0x1
00001323  8D45B8            lea eax,[ebp-0x48]
00001326  890424            mov [esp],eax
00001329  E872F9FFFF        call 0x100000ca0
0000132E  8D45B4            lea eax,[ebp-0x4c]
00001331  895C2408          mov [esp+0x8],ebx
00001335  8D55B8            lea edx,[ebp-0x48]
00001338  89542404          mov [esp+0x4],edx
0000133C  890424            mov [esp],eax
0000133F  E825070000        call 0x1a69
00001344  83EC04            sub esp,byte +0x4
00001347  8D45AC            lea eax,[ebp-0x54]
0000134A  8D55B4            lea edx,[ebp-0x4c]
0000134D  89542408          mov [esp+0x8],edx
00001351  8D9558FFFFFF      lea edx,[ebp+0xffffff58]
00001357  89542404          mov [esp+0x4],edx
0000135B  890424            mov [esp],eax
0000135E  E8A5060000        call 0x1a08
00001363  83EC04            sub esp,byte +0x4
00001366  8D45B4            lea eax,[ebp-0x4c]
00001369  890424            mov [esp],eax
0000136C  E8BFF9FFFF        call 0x100000d30
00001371  8D45B8            lea eax,[ebp-0x48]
00001374  890424            mov [esp],eax
00001377  E8B4F9FFFF        call 0x100000d30
0000137C  8D45BF            lea eax,[ebp-0x41]
0000137F  890424            mov [esp],eax
00001382  E849FAFFFF        call 0x100000dd0
00001387  C744240401000000  mov dword [esp+0x4],0x1
0000138F  8D851CFFFFFF      lea eax,[ebp+0xffffff1c]
00001395  890424            mov [esp],eax
00001398  E8E3F8FFFF        call 0x100000c80
0000139D  8A00              mov al,[eax]
0000139F  0FBEC0            movsx eax,al
000013A2  890424            mov [esp],eax
000013A5  E816FCFFFF        call 0x100000fc0
000013AA  0FBED8            movsx ebx,al
000013AD  8D45D3            lea eax,[ebp-0x2d]
000013B0  890424            mov [esp],eax
000013B3  E8B8FAFFFF        call 0x100000e70
000013B8  C744240400000000  mov dword [esp+0x4],0x0
000013C0  8D851CFFFFFF      lea eax,[ebp+0xffffff1c]
000013C6  890424            mov [esp],eax
000013C9  E8B2F8FFFF        call 0x100000c80
000013CE  8A00              mov al,[eax]
000013D0  0FBEC0            movsx eax,al
000013D3  8D55D3            lea edx,[ebp-0x2d]
000013D6  8954240C          mov [esp+0xc],edx
000013DA  89442408          mov [esp+0x8],eax
000013DE  C744240401000000  mov dword [esp+0x4],0x1
000013E6  8D45CC            lea eax,[ebp-0x34]
000013E9  890424            mov [esp],eax
000013EC  E8AFF8FFFF        call 0x100000ca0
000013F1  8D45C8            lea eax,[ebp-0x38]
000013F4  895C2408          mov [esp+0x8],ebx
000013F8  8D55CC            lea edx,[ebp-0x34]
000013FB  89542404          mov [esp+0x4],edx
000013FF  890424            mov [esp],eax
00001402  E862060000        call 0x1a69
00001407  83EC04            sub esp,byte +0x4
0000140A  8D45C0            lea eax,[ebp-0x40]
0000140D  8D55C8            lea edx,[ebp-0x38]
00001410  89542408          mov [esp+0x8],edx
00001414  8D9558FFFFFF      lea edx,[ebp+0xffffff58]
0000141A  89542404          mov [esp+0x4],edx
0000141E  890424            mov [esp],eax
00001421  E8E2050000        call 0x1a08
00001426  83EC04            sub esp,byte +0x4
00001429  8D45C8            lea eax,[ebp-0x38]
0000142C  890424            mov [esp],eax
0000142F  E8FCF8FFFF        call 0x100000d30
00001434  8D45CC            lea eax,[ebp-0x34]
00001437  890424            mov [esp],eax
0000143A  E8F1F8FFFF        call 0x100000d30
0000143F  8D45D3            lea eax,[ebp-0x2d]
00001442  890424            mov [esp],eax
00001445  E886F9FFFF        call 0x100000dd0
0000144A  8D851CFFFFFF      lea eax,[ebp+0xffffff1c]
00001450  890424            mov [esp],eax
00001453  E8D8F8FFFF        call 0x100000d30
00001458  FF45E0            inc dword [ebp-0x20]
0000145B  8B45E0            mov eax,[ebp-0x20]
0000145E  40                inc eax
0000145F  89C3              mov ebx,eax
00001461  8D8570FFFFFF      lea eax,[ebp+0xffffff70]
00001467  890424            mov [esp],eax
0000146A  E851F8FFFF        call 0x100000cc0
0000146F  39C3              cmp ebx,eax
00001471  0F92C0            setc al
00001474  84C0              test al,al
00001476  0F8568FCFFFF      jnz near 0x1000010e4
0000147C  8D8540FFFFFF      lea eax,[ebp+0xffffff40]
00001482  890424            mov [esp],eax
00001485  E83E060000        call 0x1ac8
0000148A  8D8528FFFFFF      lea eax,[ebp+0xffffff28]
00001490  890424            mov [esp],eax
00001493  E830060000        call 0x1ac8
00001498  8D8518FFFFFF      lea eax,[ebp+0xffffff18]
0000149E  8D9558FFFFFF      lea edx,[ebp+0xffffff58]
000014A4  89542404          mov [esp+0x4],edx
000014A8  890424            mov [esp],eax
000014AB  E88C060000        call 0x1b3c
000014B0  83EC04            sub esp,byte +0x4
000014B3  EB78              jmp short 0x152d
000014B5  8D8518FFFFFF      lea eax,[ebp+0xffffff18]
000014BB  890424            mov [esp],eax
000014BE  E8EF060000        call 0x1bb2
000014C3  C744240400000000  mov dword [esp+0x4],0x0
000014CB  890424            mov [esp],eax
000014CE  E86DF8FFFF        call 0x100000d40
000014D3  89442404          mov [esp+0x4],eax
000014D7  8D8540FFFFFF      lea eax,[ebp+0xffffff40]
000014DD  890424            mov [esp],eax
000014E0  E8DB060000        call 0x1bc0
000014E5  8B10              mov edx,[eax]
000014E7  42                inc edx
000014E8  8910              mov [eax],edx
000014EA  8D8518FFFFFF      lea eax,[ebp+0xffffff18]
000014F0  890424            mov [esp],eax
000014F3  E8BA060000        call 0x1bb2
000014F8  C744240401000000  mov dword [esp+0x4],0x1
00001500  890424            mov [esp],eax
00001503  E838F8FFFF        call 0x100000d40
00001508  89442404          mov [esp+0x4],eax
0000150C  8D8528FFFFFF      lea eax,[ebp+0xffffff28]
00001512  890424            mov [esp],eax
00001515  E8A6060000        call 0x1bc0
0000151A  8B10              mov edx,[eax]
0000151C  42                inc edx
0000151D  8910              mov [eax],edx
0000151F  8D8518FFFFFF      lea eax,[ebp+0xffffff18]
00001525  890424            mov [esp],eax
00001528  E867060000        call 0x1b94
0000152D  8D45D4            lea eax,[ebp-0x2c]
00001530  8D9558FFFFFF      lea edx,[ebp+0xffffff58]
00001536  89542404          mov [esp+0x4],edx
0000153A  890424            mov [esp],eax
0000153D  E81C060000        call 0x1b5e
00001542  83EC04            sub esp,byte +0x4
00001545  8D45D4            lea eax,[ebp-0x2c]
00001548  89442404          mov [esp+0x4],eax
0000154C  8D8518FFFFFF      lea eax,[ebp+0xffffff18]
00001552  890424            mov [esp],eax
00001555  E826060000        call 0x1b80
0000155A  84C0              test al,al
0000155C  0F8553FFFFFF      jnz near 0x1000014b5
00001562  8D8514FFFFFF      lea eax,[ebp+0xffffff14]
00001568  8D9528FFFFFF      lea edx,[ebp+0xffffff28]
0000156E  89542404          mov [esp+0x4],edx
00001572  890424            mov [esp],eax
00001575  E864070000        call 0x1cde
0000157A  83EC04            sub esp,byte +0x4
0000157D  EB45              jmp short 0x15c4
0000157F  8D8514FFFFFF      lea eax,[ebp+0xffffff14]
00001585  890424            mov [esp],eax
00001588  E8C7070000        call 0x1d54
0000158D  8B5804            mov ebx,[eax+0x4]
00001590  8D8514FFFFFF      lea eax,[ebp+0xffffff14]
00001596  890424            mov [esp],eax
00001599  E8B6070000        call 0x1d54
0000159E  89442404          mov [esp+0x4],eax
000015A2  8D8540FFFFFF      lea eax,[ebp+0xffffff40]
000015A8  890424            mov [esp],eax
000015AB  E810060000        call 0x1bc0
000015B0  8B10              mov edx,[eax]
000015B2  29DA              sub edx,ebx
000015B4  8910              mov [eax],edx
000015B6  8D8514FFFFFF      lea eax,[ebp+0xffffff14]
000015BC  890424            mov [esp],eax
000015BF  E872070000        call 0x1d36
000015C4  8D45D8            lea eax,[ebp-0x28]
000015C7  8D9528FFFFFF      lea edx,[ebp+0xffffff28]
000015CD  89542404          mov [esp+0x4],edx
000015D1  890424            mov [esp],eax
000015D4  E827070000        call 0x1d00
000015D9  83EC04            sub esp,byte +0x4
000015DC  8D45D8            lea eax,[ebp-0x28]
000015DF  89442404          mov [esp+0x4],eax
000015E3  8D8514FFFFFF      lea eax,[ebp+0xffffff14]
000015E9  890424            mov [esp],eax
000015EC  E831070000        call 0x1d22
000015F1  84C0              test al,al
000015F3  758A              jnz 0x157f
000015F5  C78524FFFFFF0000  mov dword [ebp+0xffffff24],0x0
         -0000
000015FF  C78520FFFFFF0000  mov dword [ebp+0xffffff20],0x0
         -0000
00001609  8D8510FFFFFF      lea eax,[ebp+0xffffff10]
0000160F  8D9540FFFFFF      lea edx,[ebp+0xffffff40]
00001615  89542404          mov [esp+0x4],edx
00001619  890424            mov [esp],eax
0000161C  E8BD060000        call 0x1cde
00001621  83EC04            sub esp,byte +0x4
00001624  EB71              jmp short 0x1697
00001626  8D8510FFFFFF      lea eax,[ebp+0xffffff10]
0000162C  890424            mov [esp],eax
0000162F  E820070000        call 0x1d54
00001634  8B4004            mov eax,[eax+0x4]
00001637  85C0              test eax,eax
00001639  0F9FC0            setg al
0000163C  84C0              test al,al
0000163E  7421              jz 0x1661
00001640  8D8510FFFFFF      lea eax,[ebp+0xffffff10]
00001646  890424            mov [esp],eax
00001649  E806070000        call 0x1d54
0000164E  8B4004            mov eax,[eax+0x4]
00001651  8B9524FFFFFF      mov edx,[ebp+0xffffff24]
00001657  01D0              add eax,edx
00001659  898524FFFFFF      mov [ebp+0xffffff24],eax
0000165F  EB28              jmp short 0x1689
00001661  8D8510FFFFFF      lea eax,[ebp+0xffffff10]
00001667  890424            mov [esp],eax
0000166A  E8E5060000        call 0x1d54
0000166F  8B4004            mov eax,[eax+0x4]
00001672  89C2              mov edx,eax
00001674  C1FA1F            sar edx,0x1f
00001677  31D0              xor eax,edx
00001679  29D0              sub eax,edx
0000167B  8B9520FFFFFF      mov edx,[ebp+0xffffff20]
00001681  01D0              add eax,edx
00001683  898520FFFFFF      mov [ebp+0xffffff20],eax
00001689  8D8510FFFFFF      lea eax,[ebp+0xffffff10]
0000168F  890424            mov [esp],eax
00001692  E89F060000        call 0x1d36
00001697  8D45DC            lea eax,[ebp-0x24]
0000169A  8D9540FFFFFF      lea edx,[ebp+0xffffff40]
000016A0  89542404          mov [esp+0x4],edx
000016A4  890424            mov [esp],eax
000016A7  E854060000        call 0x1d00
000016AC  83EC04            sub esp,byte +0x4
000016AF  8D45DC            lea eax,[ebp-0x24]
000016B2  89442404          mov [esp+0x4],eax
000016B6  8D8510FFFFFF      lea eax,[ebp+0xffffff10]
000016BC  890424            mov [esp],eax
000016BF  E85E060000        call 0x1d22
000016C4  84C0              test al,al
000016C6  0F855AFFFFFF      jnz near 0x100001626
000016CC  8B8524FFFFFF      mov eax,[ebp+0xffffff24]
000016D2  85C0              test eax,eax
000016D4  7E0D              jng 0x16e3
000016D6  8B8524FFFFFF      mov eax,[ebp+0xffffff24]
000016DC  48                dec eax
000016DD  898524FFFFFF      mov [ebp+0xffffff24],eax
000016E3  8B8520FFFFFF      mov eax,[ebp+0xffffff20]
000016E9  85C0              test eax,eax
000016EB  7E0D              jng 0x16fa
000016ED  8B8520FFFFFF      mov eax,[ebp+0xffffff20]
000016F3  48                dec eax
000016F4  898520FFFFFF      mov [ebp+0xffffff20],eax
000016FA  8D8558FFFFFF      lea eax,[ebp+0xffffff58]
00001700  890424            mov [esp],eax
00001703  E864060000        call 0x1d6c
00001708  89C3              mov ebx,eax
0000170A  8D8520FFFFFF      lea eax,[ebp+0xffffff20]
00001710  89442404          mov [esp+0x4],eax
00001714  8D8524FFFFFF      lea eax,[ebp+0xffffff24]
0000171A  890424            mov [esp],eax
0000171D  E85D060000        call 0x1d7f
00001722  8B00              mov eax,[eax]
00001724  01D8              add eax,ebx
00001726  8D5801            lea ebx,[eax+0x1]
00001729  8B45E4            mov eax,[ebp-0x1c]
0000172C  8D7001            lea esi,[eax+0x1]
0000172F  C744240487B30408  mov dword [esp+0x4],0x804b387
00001737  8D85E4FCFFFF      lea eax,[ebp+0xfffffce4]
0000173D  890424            mov [esp],eax
00001740  E8CBF5FFFF        call 0x100000d10
00001745  89742404          mov [esp+0x4],esi
00001749  890424            mov [esp],eax
0000174C  E80FF5FFFF        call 0x100000c60
00001751  C74424048EB30408  mov dword [esp+0x4],0x804b38e
00001759  890424            mov [esp],eax
0000175C  E8AFF5FFFF        call 0x100000d10
00001761  895C2404          mov [esp+0x4],ebx
00001765  890424            mov [esp],eax
00001768  E823F6FFFF        call 0x100000d90
0000176D  C7442404508E0408  mov dword [esp+0x4],0x8048e50
00001775  890424            mov [esp],eax
00001778  E883F6FFFF        call 0x100000e00
0000177D  8D8528FFFFFF      lea eax,[ebp+0xffffff28]
00001783  890424            mov [esp],eax
00001786  E8F5010000        call 0x1980
0000178B  8D8540FFFFFF      lea eax,[ebp+0xffffff40]
00001791  890424            mov [esp],eax
00001794  E8E7010000        call 0x1980
00001799  8D8558FFFFFF      lea eax,[ebp+0xffffff58]
0000179F  890424            mov [esp],eax
000017A2  E8C5010000        call 0x196c
000017A7  8D8570FFFFFF      lea eax,[ebp+0xffffff70]
000017AD  890424            mov [esp],eax
000017B0  E87BF5FFFF        call 0x100000d30
000017B5  FF45E4            inc dword [ebp-0x1c]
000017B8  8B8578FFFFFF      mov eax,[ebp+0xffffff78]
000017BE  3945E4            cmp [ebp-0x1c],eax
000017C1  0F8CC5F8FFFF      jl near 0x10000108c
000017C7  BB00000000        mov ebx,0x0
000017CC  8D85E4FCFFFF      lea eax,[ebp+0xfffffce4]
000017D2  890424            mov [esp],eax
000017D5  E8A6F5FFFF        call 0x100000d80
000017DA  8D85F8FDFFFF      lea eax,[ebp+0xfffffdf8]
000017E0  890424            mov [esp],eax
000017E3  E888F5FFFF        call 0x100000d70
000017E8  89D8              mov eax,ebx
000017EA  E957010000        jmp 0x1946
000017EF  89C3              mov ebx,eax
000017F1  8D458C            lea eax,[ebp-0x74]
000017F4  890424            mov [esp],eax
000017F7  E834F5FFFF        call 0x100000d30
000017FC  EB02              jmp short 0x1800
000017FE  89C3              mov ebx,eax
00001800  8D4590            lea eax,[ebp-0x70]
00001803  890424            mov [esp],eax
00001806  E825F5FFFF        call 0x100000d30
0000180B  EB02              jmp short 0x180f
0000180D  89C3              mov ebx,eax
0000180F  8D4597            lea eax,[ebp-0x69]
00001812  890424            mov [esp],eax
00001815  E8B6F5FFFF        call 0x100000dd0
0000181A  E989000000        jmp 0x18a8
0000181F  89C3              mov ebx,eax
00001821  8D45A0            lea eax,[ebp-0x60]
00001824  890424            mov [esp],eax
00001827  E804F5FFFF        call 0x100000d30
0000182C  EB02              jmp short 0x1830
0000182E  89C3              mov ebx,eax
00001830  8D45A4            lea eax,[ebp-0x5c]
00001833  890424            mov [esp],eax
00001836  E8F5F4FFFF        call 0x100000d30
0000183B  EB02              jmp short 0x183f
0000183D  89C3              mov ebx,eax
0000183F  8D45AB            lea eax,[ebp-0x55]
00001842  890424            mov [esp],eax
00001845  E886F5FFFF        call 0x100000dd0
0000184A  EB5C              jmp short 0x18a8
0000184C  89C3              mov ebx,eax
0000184E  8D45B4            lea eax,[ebp-0x4c]
00001851  890424            mov [esp],eax
00001854  E8D7F4FFFF        call 0x100000d30
00001859  EB02              jmp short 0x185d
0000185B  89C3              mov ebx,eax
0000185D  8D45B8            lea eax,[ebp-0x48]
00001860  890424            mov [esp],eax
00001863  E8C8F4FFFF        call 0x100000d30
00001868  EB02              jmp short 0x186c
0000186A  89C3              mov ebx,eax
0000186C  8D45BF            lea eax,[ebp-0x41]
0000186F  890424            mov [esp],eax
00001872  E859F5FFFF        call 0x100000dd0
00001877  EB2F              jmp short 0x18a8
00001879  89C3              mov ebx,eax
0000187B  8D45C8            lea eax,[ebp-0x38]
0000187E  890424            mov [esp],eax
00001881  E8AAF4FFFF        call 0x100000d30
00001886  EB02              jmp short 0x188a
00001888  89C3              mov ebx,eax
0000188A  8D45CC            lea eax,[ebp-0x34]
0000188D  890424            mov [esp],eax
00001890  E89BF4FFFF        call 0x100000d30
00001895  EB02              jmp short 0x1899
00001897  89C3              mov ebx,eax
00001899  8D45D3            lea eax,[ebp-0x2d]
0000189C  890424            mov [esp],eax
0000189F  E82CF5FFFF        call 0x100000dd0
000018A4  EB02              jmp short 0x18a8
000018A6  89C3              mov ebx,eax
000018A8  8D851CFFFFFF      lea eax,[ebp+0xffffff1c]
000018AE  890424            mov [esp],eax
000018B1  E87AF4FFFF        call 0x100000d30
000018B6  89D8              mov eax,ebx
000018B8  EB00              jmp short 0x18ba
000018BA  89C3              mov ebx,eax
000018BC  EB32              jmp short 0x18f0
000018BE  89C3              mov ebx,eax
000018C0  EB0A              jmp short 0x18cc
000018C2  89C3              mov ebx,eax
000018C4  EB06              jmp short 0x18cc
000018C6  89C3              mov ebx,eax
000018C8  EB02              jmp short 0x18cc
000018CA  89C3              mov ebx,eax
000018CC  8D8528FFFFFF      lea eax,[ebp+0xffffff28]
000018D2  890424            mov [esp],eax
000018D5  E8A6000000        call 0x1980
000018DA  EB02              jmp short 0x18de
000018DC  89C3              mov ebx,eax
000018DE  8D8540FFFFFF      lea eax,[ebp+0xffffff40]
000018E4  890424            mov [esp],eax
000018E7  E894000000        call 0x1980
000018EC  EB02              jmp short 0x18f0
000018EE  89C3              mov ebx,eax
000018F0  8D8558FFFFFF      lea eax,[ebp+0xffffff58]
000018F6  890424            mov [esp],eax
000018F9  E86E000000        call 0x196c
000018FE  EB02              jmp short 0x1902
00001900  89C3              mov ebx,eax
00001902  8D8570FFFFFF      lea eax,[ebp+0xffffff70]
00001908  890424            mov [esp],eax
0000190B  E820F4FFFF        call 0x100000d30
00001910  89D8              mov eax,ebx
00001912  EB00              jmp short 0x1914
00001914  89C3              mov ebx,eax
00001916  EB02              jmp short 0x191a
00001918  89C3              mov ebx,eax
0000191A  8D85E4FCFFFF      lea eax,[ebp+0xfffffce4]
00001920  890424            mov [esp],eax
00001923  E858F4FFFF        call 0x100000d80
00001928  EB02              jmp short 0x192c
0000192A  89C3              mov ebx,eax
0000192C  8D85F8FDFFFF      lea eax,[ebp+0xfffffdf8]
00001932  890424            mov [esp],eax
00001935  E836F4FFFF        call 0x100000d70
0000193A  89D8              mov eax,ebx
0000193C  EB00              jmp short 0x193e
0000193E  890424            mov [esp],eax
00001941  E84AF5FFFF        call 0x100000e90
00001946  8D65F4            lea esp,[ebp-0xc]
00001949  59                pop ecx
0000194A  5B                pop ebx
0000194B  5E                pop esi
0000194C  5D                pop ebp
0000194D  8D61FC            lea esp,[ecx-0x4]
00001950  C3                ret
00001951  55                push ebp
00001952  89E5              mov ebp,esp
00001954  8B450C            mov eax,[ebp+0xc]
00001957  5D                pop ebp
00001958  C3                ret
00001959  55                push ebp
0000195A  89E5              mov ebp,esp
0000195C  5D                pop ebp
0000195D  C3                ret
0000195E  55                push ebp
0000195F  89E5              mov ebp,esp
00001961  8B5508            mov edx,[ebp+0x8]
00001964  8B450C            mov eax,[ebp+0xc]
00001967  09D0              or eax,edx
00001969  5D                pop ebp
0000196A  C3                ret
0000196B  90                nop
0000196C  55                push ebp
0000196D  89E5              mov ebp,esp
0000196F  83EC18            sub esp,byte +0x18
00001972  8B4508            mov eax,[ebp+0x8]
00001975  890424            mov [esp],eax
00001978  E83F000000        call 0x19bc
0000197D  C9                leave
0000197E  C3                ret
0000197F  90                nop
00001980  55                push ebp
00001981  89E5              mov ebp,esp
00001983  83EC18            sub esp,byte +0x18
00001986  8B4508            mov eax,[ebp+0x8]
00001989  890424            mov [esp],eax
0000198C  E85F010000        call 0x1af0
00001991  C9                leave
00001992  C3                ret
00001993  90                nop
00001994  55                push ebp
00001995  89E5              mov ebp,esp
00001997  83EC18            sub esp,byte +0x18
0000199A  8B4508            mov eax,[ebp+0x8]
0000199D  890424            mov [esp],eax
000019A0  E8F5030000        call 0x1d9a
000019A5  C9                leave
000019A6  C3                ret
000019A7  90                nop
000019A8  55                push ebp
000019A9  89E5              mov ebp,esp
000019AB  83EC18            sub esp,byte +0x18
000019AE  8B4508            mov eax,[ebp+0x8]
000019B1  890424            mov [esp],eax
000019B4  E8F5030000        call 0x1dae
000019B9  C9                leave
000019BA  C3                ret
000019BB  90                nop
000019BC  55                push ebp
000019BD  89E5              mov ebp,esp
000019BF  53                push ebx
000019C0  83EC14            sub esp,byte +0x14
000019C3  8B4508            mov eax,[ebp+0x8]
000019C6  890424            mov [esp],eax
000019C9  E844040000        call 0x1e12
000019CE  89442404          mov [esp+0x4],eax
000019D2  8B4508            mov eax,[ebp+0x8]
000019D5  890424            mov [esp],eax
000019D8  E8E5030000        call 0x1dc2
000019DD  8B4508            mov eax,[ebp+0x8]
000019E0  890424            mov [esp],eax
000019E3  E8C0FFFFFF        call 0x1000019a8
000019E8  EB17              jmp short 0x1a01
000019EA  89C3              mov ebx,eax
000019EC  8B4508            mov eax,[ebp+0x8]
000019EF  890424            mov [esp],eax
000019F2  E8B1FFFFFF        call 0x1000019a8
000019F7  89D8              mov eax,ebx
000019F9  890424            mov [esp],eax
000019FC  E88FF4FFFF        call 0x100000e90
00001A01  83C414            add esp,byte +0x14
00001A04  5B                pop ebx
00001A05  5D                pop ebp
00001A06  C3                ret
00001A07  90                nop
00001A08  55                push ebp
00001A09  89E5              mov ebp,esp
00001A0B  83EC28            sub esp,byte +0x28
00001A0E  8B550C            mov edx,[ebp+0xc]
00001A11  8D45EC            lea eax,[ebp-0x14]
00001A14  8B4D10            mov ecx,[ebp+0x10]
00001A17  894C2408          mov [esp+0x8],ecx
00001A1B  89542404          mov [esp+0x4],edx
00001A1F  890424            mov [esp],eax
00001A22  E8F7030000        call 0x1e1e
00001A27  83EC04            sub esp,byte +0x4
00001A2A  8D45EC            lea eax,[ebp-0x14]
00001A2D  89442404          mov [esp+0x4],eax
00001A31  8D45F4            lea eax,[ebp-0xc]
00001A34  890424            mov [esp],eax
00001A37  E8AA040000        call 0x1ee6
00001A3C  8D45EC            lea eax,[ebp-0x14]
00001A3F  83C004            add eax,byte +0x4
00001A42  89442408          mov [esp+0x8],eax
00001A46  8D45F4            lea eax,[ebp-0xc]
00001A49  89442404          mov [esp+0x4],eax
00001A4D  8B4508            mov eax,[ebp+0x8]
00001A50  890424            mov [esp],eax
00001A53  E89E040000        call 0x1ef6
00001A58  EB08              jmp short 0x1a62
00001A5A  890424            mov [esp],eax
00001A5D  E82EF4FFFF        call 0x100000e90
00001A62  8B4508            mov eax,[ebp+0x8]
00001A65  C9                leave
00001A66  C20400            ret 0x4
00001A69  55                push ebp
00001A6A  89E5              mov ebp,esp
00001A6C  53                push ebx
00001A6D  83EC14            sub esp,byte +0x14
00001A70  8B4510            mov eax,[ebp+0x10]
00001A73  8845F4            mov [ebp-0xc],al
00001A76  8B450C            mov eax,[ebp+0xc]
00001A79  89442404          mov [esp+0x4],eax
00001A7D  8B4508            mov eax,[ebp+0x8]
00001A80  890424            mov [esp],eax
00001A83  E878F2FFFF        call 0x100000d00
00001A88  0FBE45F4          movsx eax,byte [ebp-0xc]
00001A8C  89442408          mov [esp+0x8],eax
00001A90  C744240401000000  mov dword [esp+0x4],0x1
00001A98  8B4508            mov eax,[ebp+0x8]
00001A9B  890424            mov [esp],eax
00001A9E  E8ADF2FFFF        call 0x100000d50
00001AA3  EB17              jmp short 0x1abc
00001AA5  89C3              mov ebx,eax
00001AA7  8B4508            mov eax,[ebp+0x8]
00001AAA  890424            mov [esp],eax
00001AAD  E87EF2FFFF        call 0x100000d30
00001AB2  89D8              mov eax,ebx
00001AB4  890424            mov [esp],eax
00001AB7  E8D4F3FFFF        call 0x100000e90
00001ABC  8B4508            mov eax,[ebp+0x8]
00001ABF  83C414            add esp,byte +0x14
00001AC2  5B                pop ebx
00001AC3  5D                pop ebp
00001AC4  C20400            ret 0x4
00001AC7  90                nop
00001AC8  55                push ebp
00001AC9  89E5              mov ebp,esp
00001ACB  83EC18            sub esp,byte +0x18
00001ACE  8B4508            mov eax,[ebp+0x8]
00001AD1  890424            mov [esp],eax
00001AD4  E837040000        call 0x1f10
00001AD9  C9                leave
00001ADA  C3                ret
00001ADB  90                nop
00001ADC  55                push ebp
00001ADD  89E5              mov ebp,esp
00001ADF  83EC18            sub esp,byte +0x18
00001AE2  8B4508            mov eax,[ebp+0x8]
00001AE5  890424            mov [esp],eax
00001AE8  E837040000        call 0x1f24
00001AED  C9                leave
00001AEE  C3                ret
00001AEF  90                nop
00001AF0  55                push ebp
00001AF1  89E5              mov ebp,esp
00001AF3  53                push ebx
00001AF4  83EC14            sub esp,byte +0x14
00001AF7  8B4508            mov eax,[ebp+0x8]
00001AFA  890424            mov [esp],eax
00001AFD  E886040000        call 0x1f88
00001B02  89442404          mov [esp+0x4],eax
00001B06  8B4508            mov eax,[ebp+0x8]
00001B09  890424            mov [esp],eax
00001B0C  E827040000        call 0x1f38
00001B11  8B4508            mov eax,[ebp+0x8]
00001B14  890424            mov [esp],eax
00001B17  E8C0FFFFFF        call 0x100001adc
00001B1C  EB17              jmp short 0x1b35
00001B1E  89C3              mov ebx,eax
00001B20  8B4508            mov eax,[ebp+0x8]
00001B23  890424            mov [esp],eax
00001B26  E8B1FFFFFF        call 0x100001adc
00001B2B  89D8              mov eax,ebx
00001B2D  890424            mov [esp],eax
00001B30  E85BF3FFFF        call 0x100000e90
00001B35  83C414            add esp,byte +0x14
00001B38  5B                pop ebx
00001B39  5D                pop ebp
00001B3A  C3                ret
00001B3B  90                nop
00001B3C  55                push ebp
00001B3D  89E5              mov ebp,esp
00001B3F  83EC18            sub esp,byte +0x18
00001B42  8B550C            mov edx,[ebp+0xc]
00001B45  8B4508            mov eax,[ebp+0x8]
00001B48  89542404          mov [esp+0x4],edx
00001B4C  890424            mov [esp],eax
00001B4F  E840040000        call 0x1f94
00001B54  83EC04            sub esp,byte +0x4
00001B57  8B4508            mov eax,[ebp+0x8]
00001B5A  C9                leave
00001B5B  C20400            ret 0x4
00001B5E  55                push ebp
00001B5F  89E5              mov ebp,esp
00001B61  83EC18            sub esp,byte +0x18
00001B64  8B550C            mov edx,[ebp+0xc]
00001B67  8B4508            mov eax,[ebp+0x8]
00001B6A  89542404          mov [esp+0x4],edx
00001B6E  890424            mov [esp],eax
00001B71  E840040000        call 0x1fb6
00001B76  83EC04            sub esp,byte +0x4
00001B79  8B4508            mov eax,[ebp+0x8]
00001B7C  C9                leave
00001B7D  C20400            ret 0x4
00001B80  55                push ebp
00001B81  89E5              mov ebp,esp
00001B83  8B4508            mov eax,[ebp+0x8]
00001B86  8B10              mov edx,[eax]
00001B88  8B450C            mov eax,[ebp+0xc]
00001B8B  8B00              mov eax,[eax]
00001B8D  39C2              cmp edx,eax
00001B8F  0F95C0            setnz al
00001B92  5D                pop ebp
00001B93  C3                ret
00001B94  55                push ebp
00001B95  89E5              mov ebp,esp
00001B97  83EC18            sub esp,byte +0x18
00001B9A  8B4508            mov eax,[ebp+0x8]
00001B9D  8B00              mov eax,[eax]
00001B9F  890424            mov [esp],eax
00001BA2  E8B9F1FFFF        call 0x100000d60
00001BA7  8B5508            mov edx,[ebp+0x8]
00001BAA  8902              mov [edx],eax
00001BAC  8B4508            mov eax,[ebp+0x8]
00001BAF  C9                leave
00001BB0  C3                ret
00001BB1  90                nop
00001BB2  55                push ebp
00001BB3  89E5              mov ebp,esp
00001BB5  8B4508            mov eax,[ebp+0x8]
00001BB8  8B00              mov eax,[eax]
00001BBA  83C010            add eax,byte +0x10
00001BBD  5D                pop ebp
00001BBE  C3                ret
00001BBF  90                nop
00001BC0  55                push ebp
00001BC1  89E5              mov ebp,esp
00001BC3  57                push edi
00001BC4  56                push esi
00001BC5  53                push ebx
00001BC6  83EC4C            sub esp,byte +0x4c
00001BC9  8D45D0            lea eax,[ebp-0x30]
00001BCC  8B550C            mov edx,[ebp+0xc]
00001BCF  89542408          mov [esp+0x8],edx
00001BD3  8B5508            mov edx,[ebp+0x8]
00001BD6  89542404          mov [esp+0x4],edx
00001BDA  890424            mov [esp],eax
00001BDD  E8F6030000        call 0x1fd8
00001BE2  83EC04            sub esp,byte +0x4
00001BE5  B300              mov bl,0x0
00001BE7  BE00000000        mov esi,0x0
00001BEC  8D45D4            lea eax,[ebp-0x2c]
00001BEF  8B5508            mov edx,[ebp+0x8]
00001BF2  89542404          mov [esp+0x4],edx
00001BF6  890424            mov [esp],eax
00001BF9  E802010000        call 0x1d00
00001BFE  83EC04            sub esp,byte +0x4
00001C01  B301              mov bl,0x1
00001C03  8D45D4            lea eax,[ebp-0x2c]
00001C06  89442404          mov [esp+0x4],eax
00001C0A  8D45D0            lea eax,[ebp-0x30]
00001C0D  890424            mov [esp],eax
00001C10  E831040000        call 0x2046
00001C15  84C0              test al,al
00001C17  7541              jnz 0x1c5a
00001C19  8D45D0            lea eax,[ebp-0x30]
00001C1C  890424            mov [esp],eax
00001C1F  E800040000        call 0x2024
00001C24  89C7              mov edi,eax
00001C26  8D45C7            lea eax,[ebp-0x39]
00001C29  8B5508            mov edx,[ebp+0x8]
00001C2C  89542404          mov [esp+0x4],edx
00001C30  890424            mov [esp],eax
00001C33  E8CA030000        call 0x2002
00001C38  83EC04            sub esp,byte +0x4
00001C3B  BE01000000        mov esi,0x1
00001C40  897C2408          mov [esp+0x8],edi
00001C44  8B450C            mov eax,[ebp+0xc]
00001C47  89442404          mov [esp+0x4],eax
00001C4B  8D45DB            lea eax,[ebp-0x25]
00001C4E  890424            mov [esp],eax
00001C51  E8DC030000        call 0x2032
00001C56  84C0              test al,al
00001C58  7404              jz 0x1c5e
00001C5A  B001              mov al,0x1
00001C5C  EB02              jmp short 0x1c60
00001C5E  B000              mov al,0x0
00001C60  89F1              mov ecx,esi
00001C62  84C9              test cl,cl
00001C64  84DB              test bl,bl
00001C66  84C0              test al,al
00001C68  7449              jz 0x1cb3
00001C6A  C745E400000000    mov dword [ebp-0x1c],0x0
00001C71  8D45E4            lea eax,[ebp-0x1c]
00001C74  89442408          mov [esp+0x8],eax
00001C78  8B450C            mov eax,[ebp+0xc]
00001C7B  89442404          mov [esp+0x4],eax
00001C7F  8D45DC            lea eax,[ebp-0x24]
00001C82  890424            mov [esp],eax
00001C85  E8D0030000        call 0x205a
00001C8A  8D45C0            lea eax,[ebp-0x40]
00001C8D  8D55DC            lea edx,[ebp-0x24]
00001C90  8954240C          mov [esp+0xc],edx
00001C94  8B55D0            mov edx,[ebp-0x30]
00001C97  89542408          mov [esp+0x8],edx
00001C9B  8B5508            mov edx,[ebp+0x8]
00001C9E  89542404          mov [esp+0x4],edx
00001CA2  890424            mov [esp],eax
00001CA5  E8CA030000        call 0x2074
00001CAA  83EC04            sub esp,byte +0x4
00001CAD  8B45C0            mov eax,[ebp-0x40]
00001CB0  8945D0            mov [ebp-0x30],eax
00001CB3  8D45D0            lea eax,[ebp-0x30]
00001CB6  890424            mov [esp],eax
00001CB9  E866030000        call 0x2024
00001CBE  83C004            add eax,byte +0x4
00001CC1  EB13              jmp short 0x1cd6
00001CC3  89F1              mov ecx,esi
00001CC5  84C9              test cl,cl
00001CC7  84DB              test bl,bl
00001CC9  90                nop
00001CCA  EB02              jmp short 0x1cce
00001CCC  EB00              jmp short 0x1cce
00001CCE  890424            mov [esp],eax
00001CD1  E8BAF1FFFF        call 0x100000e90
00001CD6  8D65F4            lea esp,[ebp-0xc]
00001CD9  5B                pop ebx
00001CDA  5E                pop esi
00001CDB  5F                pop edi
00001CDC  5D                pop ebp
00001CDD  C3                ret
00001CDE  55                push ebp
00001CDF  89E5              mov ebp,esp
00001CE1  83EC18            sub esp,byte +0x18
00001CE4  8B550C            mov edx,[ebp+0xc]
00001CE7  8B4508            mov eax,[ebp+0x8]
00001CEA  89542404          mov [esp+0x4],edx
00001CEE  890424            mov [esp],eax
00001CF1  E8CA030000        call 0x20c0
00001CF6  83EC04            sub esp,byte +0x4
00001CF9  8B4508            mov eax,[ebp+0x8]
00001CFC  C9                leave
00001CFD  C20400            ret 0x4
00001D00  55                push ebp
00001D01  89E5              mov ebp,esp
00001D03  83EC18            sub esp,byte +0x18
00001D06  8B550C            mov edx,[ebp+0xc]
00001D09  8B4508            mov eax,[ebp+0x8]
00001D0C  89542404          mov [esp+0x4],edx
00001D10  890424            mov [esp],eax
00001D13  E8CA030000        call 0x20e2
00001D18  83EC04            sub esp,byte +0x4
00001D1B  8B4508            mov eax,[ebp+0x8]
00001D1E  C9                leave
00001D1F  C20400            ret 0x4
00001D22  55                push ebp
00001D23  89E5              mov ebp,esp
00001D25  8B4508            mov eax,[ebp+0x8]
00001D28  8B10              mov edx,[eax]
00001D2A  8B450C            mov eax,[ebp+0xc]
00001D2D  8B00              mov eax,[eax]
00001D2F  39C2              cmp edx,eax
00001D31  0F95C0            setnz al
00001D34  5D                pop ebp
00001D35  C3                ret
00001D36  55                push ebp
00001D37  89E5              mov ebp,esp
00001D39  83EC18            sub esp,byte +0x18
00001D3C  8B4508            mov eax,[ebp+0x8]
00001D3F  8B00              mov eax,[eax]
00001D41  890424            mov [esp],eax
00001D44  E8D7F0FFFF        call 0x100000e20
00001D49  8B5508            mov edx,[ebp+0x8]
00001D4C  8902              mov [edx],eax
00001D4E  8B4508            mov eax,[ebp+0x8]
00001D51  C9                leave
00001D52  C3                ret
00001D53  90                nop
00001D54  55                push ebp
00001D55  89E5              mov ebp,esp
00001D57  83EC18            sub esp,byte +0x18
00001D5A  8B4508            mov eax,[ebp+0x8]
00001D5D  8B00              mov eax,[eax]
00001D5F  83C010            add eax,byte +0x10
00001D62  890424            mov [esp],eax
00001D65  E89A030000        call 0x2104
00001D6A  C9                leave
00001D6B  C3                ret
00001D6C  55                push ebp
00001D6D  89E5              mov ebp,esp
00001D6F  83EC18            sub esp,byte +0x18
00001D72  8B4508            mov eax,[ebp+0x8]
00001D75  890424            mov [esp],eax
00001D78  E88F030000        call 0x210c
00001D7D  C9                leave
00001D7E  C3                ret
00001D7F  55                push ebp
00001D80  89E5              mov ebp,esp
00001D82  8B4508            mov eax,[ebp+0x8]
00001D85  8B10              mov edx,[eax]
00001D87  8B450C            mov eax,[ebp+0xc]
00001D8A  8B00              mov eax,[eax]
00001D8C  39C2              cmp edx,eax
00001D8E  7D05              jnl 0x1d95
00001D90  8B450C            mov eax,[ebp+0xc]
00001D93  EB03              jmp short 0x1d98
00001D95  8B4508            mov eax,[ebp+0x8]
00001D98  5D                pop ebp
00001D99  C3                ret
00001D9A  55                push ebp
00001D9B  89E5              mov ebp,esp
00001D9D  83EC18            sub esp,byte +0x18
00001DA0  8B4508            mov eax,[ebp+0x8]
00001DA3  890424            mov [esp],eax
00001DA6  E86D030000        call 0x2118
00001DAB  C9                leave
00001DAC  C3                ret
00001DAD  90                nop
00001DAE  55                push ebp
00001DAF  89E5              mov ebp,esp
00001DB1  83EC18            sub esp,byte +0x18
00001DB4  8B4508            mov eax,[ebp+0x8]
00001DB7  890424            mov [esp],eax
00001DBA  E8A9030000        call 0x2168
00001DBF  C9                leave
00001DC0  C3                ret
00001DC1  90                nop
00001DC2  55                push ebp
00001DC3  89E5              mov ebp,esp
00001DC5  83EC28            sub esp,byte +0x28
00001DC8  EB40              jmp short 0x1e0a
00001DCA  8B450C            mov eax,[ebp+0xc]
00001DCD  890424            mov [esp],eax
00001DD0  E898030000        call 0x216d
00001DD5  89442404          mov [esp+0x4],eax
00001DD9  8B4508            mov eax,[ebp+0x8]
00001DDC  890424            mov [esp],eax
00001DDF  E8DEFFFFFF        call 0x100001dc2
00001DE4  8B450C            mov eax,[ebp+0xc]
00001DE7  890424            mov [esp],eax
00001DEA  E889030000        call 0x2178
00001DEF  8945F4            mov [ebp-0xc],eax
00001DF2  8B450C            mov eax,[ebp+0xc]
00001DF5  89442404          mov [esp+0x4],eax
00001DF9  8B4508            mov eax,[ebp+0x8]
00001DFC  890424            mov [esp],eax
00001DFF  E880030000        call 0x2184
00001E04  8B45F4            mov eax,[ebp-0xc]
00001E07  89450C            mov [ebp+0xc],eax
00001E0A  837D0C00          cmp dword [ebp+0xc],byte +0x0
00001E0E  75BA              jnz 0x1dca
00001E10  C9                leave
00001E11  C3                ret
00001E12  55                push ebp
00001E13  89E5              mov ebp,esp
00001E15  8B4508            mov eax,[ebp+0x8]
00001E18  8B4008            mov eax,[eax+0x8]
00001E1B  5D                pop ebp
00001E1C  C3                ret
00001E1D  90                nop
00001E1E  55                push ebp
00001E1F  89E5              mov ebp,esp
00001E21  53                push ebx
00001E22  83EC44            sub esp,byte +0x44
00001E25  8B4510            mov eax,[ebp+0x10]
00001E28  89442404          mov [esp+0x4],eax
00001E2C  8D45EA            lea eax,[ebp-0x16]
00001E2F  890424            mov [esp],eax
00001E32  E831050000        call 0x2368
00001E37  8D55E0            lea edx,[ebp-0x20]
00001E3A  89442408          mov [esp+0x8],eax
00001E3E  8B450C            mov eax,[ebp+0xc]
00001E41  89442404          mov [esp+0x4],eax
00001E45  891424            mov [esp],edx
00001E48  E8AD030000        call 0x21fa
00001E4D  83EC04            sub esp,byte +0x4
00001E50  8B45E4            mov eax,[ebp-0x1c]
00001E53  85C0              test eax,eax
00001E55  7449              jz 0x1ea0
00001E57  C645EB01          mov byte [ebp-0x15],0x1
00001E5B  8B4DE4            mov ecx,[ebp-0x1c]
00001E5E  8B55E0            mov edx,[ebp-0x20]
00001E61  8D45EC            lea eax,[ebp-0x14]
00001E64  8B5D10            mov ebx,[ebp+0x10]
00001E67  895C2410          mov [esp+0x10],ebx
00001E6B  894C240C          mov [esp+0xc],ecx
00001E6F  89542408          mov [esp+0x8],edx
00001E73  8B550C            mov edx,[ebp+0xc]
00001E76  89542404          mov [esp+0x4],edx
00001E7A  890424            mov [esp],eax
00001E7D  E8EE040000        call 0x2370
00001E82  83EC04            sub esp,byte +0x4
00001E85  8D45EB            lea eax,[ebp-0x15]
00001E88  89442408          mov [esp+0x8],eax
00001E8C  8D45EC            lea eax,[ebp-0x14]
00001E8F  89442404          mov [esp+0x4],eax
00001E93  8B4508            mov eax,[ebp+0x8]
00001E96  890424            mov [esp],eax
00001E99  E8AE050000        call 0x244c
00001E9E  EB3B              jmp short 0x1edb
00001EA0  C645F300          mov byte [ebp-0xd],0x0
00001EA4  8B45E0            mov eax,[ebp-0x20]
00001EA7  89442404          mov [esp+0x4],eax
00001EAB  8D45F4            lea eax,[ebp-0xc]
00001EAE  890424            mov [esp],eax
00001EB1  E8B0050000        call 0x2466
00001EB6  8D45F3            lea eax,[ebp-0xd]
00001EB9  89442408          mov [esp+0x8],eax
00001EBD  8D45F4            lea eax,[ebp-0xc]
00001EC0  89442404          mov [esp+0x4],eax
00001EC4  8B4508            mov eax,[ebp+0x8]
00001EC7  890424            mov [esp],eax
00001ECA  E87D050000        call 0x244c
00001ECF  EB0A              jmp short 0x1edb
00001ED1  EB00              jmp short 0x1ed3
00001ED3  890424            mov [esp],eax
00001ED6  E8B5EFFFFF        call 0x100000e90
00001EDB  8B4508            mov eax,[ebp+0x8]
00001EDE  8B5DFC            mov ebx,[ebp-0x4]
00001EE1  C9                leave
00001EE2  C20400            ret 0x4
00001EE5  90                nop
00001EE6  55                push ebp
00001EE7  89E5              mov ebp,esp
00001EE9  8B450C            mov eax,[ebp+0xc]
00001EEC  8B10              mov edx,[eax]
00001EEE  8B4508            mov eax,[ebp+0x8]
00001EF1  8910              mov [eax],edx
00001EF3  5D                pop ebp
00001EF4  C3                ret
00001EF5  90                nop
00001EF6  55                push ebp
00001EF7  89E5              mov ebp,esp
00001EF9  8B4508            mov eax,[ebp+0x8]
00001EFC  8B550C            mov edx,[ebp+0xc]
00001EFF  8B12              mov edx,[edx]
00001F01  8910              mov [eax],edx
00001F03  8B4510            mov eax,[ebp+0x10]
00001F06  8A10              mov dl,[eax]
00001F08  8B4508            mov eax,[ebp+0x8]
00001F0B  885004            mov [eax+0x4],dl
00001F0E  5D                pop ebp
00001F0F  C3                ret
00001F10  55                push ebp
00001F11  89E5              mov ebp,esp
00001F13  83EC18            sub esp,byte +0x18
00001F16  8B4508            mov eax,[ebp+0x8]
00001F19  890424            mov [esp],eax
00001F1C  E853050000        call 0x2474
00001F21  C9                leave
00001F22  C3                ret
00001F23  90                nop
00001F24  55                push ebp
00001F25  89E5              mov ebp,esp
00001F27  83EC18            sub esp,byte +0x18
00001F2A  8B4508            mov eax,[ebp+0x8]
00001F2D  890424            mov [esp],eax
00001F30  E88F050000        call 0x24c4
00001F35  C9                leave
00001F36  C3                ret
00001F37  90                nop
00001F38  55                push ebp
00001F39  89E5              mov ebp,esp
00001F3B  83EC28            sub esp,byte +0x28
00001F3E  EB40              jmp short 0x1f80
00001F40  8B450C            mov eax,[ebp+0xc]
00001F43  890424            mov [esp],eax
00001F46  E87E050000        call 0x24c9
00001F4B  89442404          mov [esp+0x4],eax
00001F4F  8B4508            mov eax,[ebp+0x8]
00001F52  890424            mov [esp],eax
00001F55  E8DEFFFFFF        call 0x100001f38
00001F5A  8B450C            mov eax,[ebp+0xc]
00001F5D  890424            mov [esp],eax
00001F60  E86F050000        call 0x24d4
00001F65  8945F4            mov [ebp-0xc],eax
00001F68  8B450C            mov eax,[ebp+0xc]
00001F6B  89442404          mov [esp+0x4],eax
00001F6F  8B4508            mov eax,[ebp+0x8]
00001F72  890424            mov [esp],eax
00001F75  E866050000        call 0x24e0
00001F7A  8B45F4            mov eax,[ebp-0xc]
00001F7D  89450C            mov [ebp+0xc],eax
00001F80  837D0C00          cmp dword [ebp+0xc],byte +0x0
00001F84  75BA              jnz 0x1f40
00001F86  C9                leave
00001F87  C3                ret
00001F88  55                push ebp
00001F89  89E5              mov ebp,esp
00001F8B  8B4508            mov eax,[ebp+0x8]
00001F8E  8B4008            mov eax,[eax+0x8]
00001F91  5D                pop ebp
00001F92  C3                ret
00001F93  90                nop
00001F94  55                push ebp
00001F95  89E5              mov ebp,esp
00001F97  83EC18            sub esp,byte +0x18
00001F9A  8B450C            mov eax,[ebp+0xc]
00001F9D  8B400C            mov eax,[eax+0xc]
00001FA0  89442404          mov [esp+0x4],eax
00001FA4  8B4508            mov eax,[ebp+0x8]
00001FA7  890424            mov [esp],eax
00001FAA  E88F050000        call 0x253e
00001FAF  8B4508            mov eax,[ebp+0x8]
00001FB2  C9                leave
00001FB3  C20400            ret 0x4
00001FB6  55                push ebp
00001FB7  89E5              mov ebp,esp
00001FB9  83EC18            sub esp,byte +0x18
00001FBC  8B450C            mov eax,[ebp+0xc]
00001FBF  83C004            add eax,byte +0x4
00001FC2  89442404          mov [esp+0x4],eax
00001FC6  8B4508            mov eax,[ebp+0x8]
00001FC9  890424            mov [esp],eax
00001FCC  E86D050000        call 0x253e
00001FD1  8B4508            mov eax,[ebp+0x8]
00001FD4  C9                leave
00001FD5  C20400            ret 0x4
00001FD8  55                push ebp
00001FD9  89E5              mov ebp,esp
00001FDB  83EC18            sub esp,byte +0x18
00001FDE  8B550C            mov edx,[ebp+0xc]
00001FE1  8B4508            mov eax,[ebp+0x8]
00001FE4  8B4D10            mov ecx,[ebp+0x10]
00001FE7  894C2408          mov [esp+0x8],ecx
00001FEB  89542404          mov [esp+0x4],edx
00001FEF  890424            mov [esp],eax
00001FF2  E855050000        call 0x254c
00001FF7  83EC04            sub esp,byte +0x4
00001FFA  8B4508            mov eax,[ebp+0x8]
00001FFD  C9                leave
00001FFE  C20400            ret 0x4
00002001  90                nop
00002002  55                push ebp
00002003  89E5              mov ebp,esp
00002005  83EC18            sub esp,byte +0x18
00002008  8B550C            mov edx,[ebp+0xc]
0000200B  8B4508            mov eax,[ebp+0x8]
0000200E  89542404          mov [esp+0x4],edx
00002012  890424            mov [esp],eax
00002015  E880050000        call 0x259a
0000201A  83EC04            sub esp,byte +0x4
0000201D  8B4508            mov eax,[ebp+0x8]
00002020  C9                leave
00002021  C20400            ret 0x4
00002024  55                push ebp
00002025  89E5              mov ebp,esp
00002027  8B4508            mov eax,[ebp+0x8]
0000202A  8B00              mov eax,[eax]
0000202C  83C010            add eax,byte +0x10
0000202F  5D                pop ebp
00002030  C3                ret
00002031  90                nop
00002032  55                push ebp
00002033  89E5              mov ebp,esp
00002035  8B450C            mov eax,[ebp+0xc]
00002038  8A10              mov dl,[eax]
0000203A  8B4510            mov eax,[ebp+0x10]
0000203D  8A00              mov al,[eax]
0000203F  38C2              cmp dl,al
00002041  0F9CC0            setl al
00002044  5D                pop ebp
00002045  C3                ret
00002046  55                push ebp
00002047  89E5              mov ebp,esp
00002049  8B4508            mov eax,[ebp+0x8]
0000204C  8B10              mov edx,[eax]
0000204E  8B450C            mov eax,[ebp+0xc]
00002051  8B00              mov eax,[eax]
00002053  39C2              cmp edx,eax
00002055  0F94C0            setz al
00002058  5D                pop ebp
00002059  C3                ret
0000205A  55                push ebp
0000205B  89E5              mov ebp,esp
0000205D  8B450C            mov eax,[ebp+0xc]
00002060  8A10              mov dl,[eax]
00002062  8B4508            mov eax,[ebp+0x8]
00002065  8810              mov [eax],dl
00002067  8B4510            mov eax,[ebp+0x10]
0000206A  8B10              mov edx,[eax]
0000206C  8B4508            mov eax,[ebp+0x8]
0000206F  895004            mov [eax+0x4],edx
00002072  5D                pop ebp
00002073  C3                ret
00002074  55                push ebp
00002075  89E5              mov ebp,esp
00002077  83EC28            sub esp,byte +0x28
0000207A  8D4510            lea eax,[ebp+0x10]
0000207D  89442404          mov [esp+0x4],eax
00002081  8D45F4            lea eax,[ebp-0xc]
00002084  890424            mov [esp],eax
00002087  E81A050000        call 0x25a6
0000208C  8B550C            mov edx,[ebp+0xc]
0000208F  8B4508            mov eax,[ebp+0x8]
00002092  8B4D14            mov ecx,[ebp+0x14]
00002095  894C240C          mov [esp+0xc],ecx
00002099  8B4DF4            mov ecx,[ebp-0xc]
0000209C  894C2408          mov [esp+0x8],ecx
000020A0  89542404          mov [esp+0x4],edx
000020A4  890424            mov [esp],eax
000020A7  E80A050000        call 0x25b6
000020AC  83EC04            sub esp,byte +0x4
000020AF  EB08              jmp short 0x20b9
000020B1  890424            mov [esp],eax
000020B4  E8D7EDFFFF        call 0x100000e90
000020B9  8B4508            mov eax,[ebp+0x8]
000020BC  C9                leave
000020BD  C20400            ret 0x4
000020C0  55                push ebp
000020C1  89E5              mov ebp,esp
000020C3  83EC18            sub esp,byte +0x18
000020C6  8B450C            mov eax,[ebp+0xc]
000020C9  8B400C            mov eax,[eax+0xc]
000020CC  89442404          mov [esp+0x4],eax
000020D0  8B4508            mov eax,[ebp+0x8]
000020D3  890424            mov [esp],eax
000020D6  E86F050000        call 0x264a
000020DB  8B4508            mov eax,[ebp+0x8]
000020DE  C9                leave
000020DF  C20400            ret 0x4
000020E2  55                push ebp
000020E3  89E5              mov ebp,esp
000020E5  83EC18            sub esp,byte +0x18
000020E8  8B450C            mov eax,[ebp+0xc]
000020EB  83C004            add eax,byte +0x4
000020EE  89442404          mov [esp+0x4],eax
000020F2  8B4508            mov eax,[ebp+0x8]
000020F5  890424            mov [esp],eax
000020F8  E84D050000        call 0x264a
000020FD  8B4508            mov eax,[ebp+0x8]
00002100  C9                leave
00002101  C20400            ret 0x4
00002104  55                push ebp
00002105  89E5              mov ebp,esp
00002107  8B4508            mov eax,[ebp+0x8]
0000210A  5D                pop ebp
0000210B  C3                ret
0000210C  55                push ebp
0000210D  89E5              mov ebp,esp
0000210F  8B4508            mov eax,[ebp+0x8]
00002112  8B4014            mov eax,[eax+0x14]
00002115  5D                pop ebp
00002116  C3                ret
00002117  90                nop
00002118  55                push ebp
00002119  89E5              mov ebp,esp
0000211B  83EC18            sub esp,byte +0x18
0000211E  8B4508            mov eax,[ebp+0x8]
00002121  890424            mov [esp],eax
00002124  E82F050000        call 0x2658
00002129  8B4508            mov eax,[ebp+0x8]
0000212C  C7400400000000    mov dword [eax+0x4],0x0
00002133  8B4508            mov eax,[ebp+0x8]
00002136  C7400800000000    mov dword [eax+0x8],0x0
0000213D  8B4508            mov eax,[ebp+0x8]
00002140  C7400C00000000    mov dword [eax+0xc],0x0
00002147  8B4508            mov eax,[ebp+0x8]
0000214A  C7401000000000    mov dword [eax+0x10],0x0
00002151  8B4508            mov eax,[ebp+0x8]
00002154  C7401400000000    mov dword [eax+0x14],0x0
0000215B  8B4508            mov eax,[ebp+0x8]
0000215E  890424            mov [esp],eax
00002161  E806050000        call 0x266c
00002166  C9                leave
00002167  C3                ret
00002168  55                push ebp
00002169  89E5              mov ebp,esp
0000216B  5D                pop ebp
0000216C  C3                ret
0000216D  55                push ebp
0000216E  89E5              mov ebp,esp
00002170  8B4508            mov eax,[ebp+0x8]
00002173  8B400C            mov eax,[eax+0xc]
00002176  5D                pop ebp
00002177  C3                ret
00002178  55                push ebp
00002179  89E5              mov ebp,esp
0000217B  8B4508            mov eax,[ebp+0x8]
0000217E  8B4008            mov eax,[eax+0x8]
00002181  5D                pop ebp
00002182  C3                ret
00002183  90                nop
00002184  55                push ebp
00002185  89E5              mov ebp,esp
00002187  53                push ebx
00002188  83EC24            sub esp,byte +0x24
0000218B  8B450C            mov eax,[ebp+0xc]
0000218E  83C010            add eax,byte +0x10
00002191  890424            mov [esp],eax
00002194  E840050000        call 0x26d9
00002199  89C3              mov ebx,eax
0000219B  8D45F7            lea eax,[ebp-0x9]
0000219E  8B5508            mov edx,[ebp+0x8]
000021A1  89542404          mov [esp+0x4],edx
000021A5  890424            mov [esp],eax
000021A8  E8F1040000        call 0x269e
000021AD  83EC04            sub esp,byte +0x4
000021B0  895C2404          mov [esp+0x4],ebx
000021B4  8D45F7            lea eax,[ebp-0x9]
000021B7  890424            mov [esp],eax
000021BA  E823050000        call 0x26e2
000021BF  8D45F7            lea eax,[ebp-0x9]
000021C2  890424            mov [esp],eax
000021C5  E8FC040000        call 0x26c6
000021CA  8B450C            mov eax,[ebp+0xc]
000021CD  89442404          mov [esp+0x4],eax
000021D1  8B4508            mov eax,[ebp+0x8]
000021D4  890424            mov [esp],eax
000021D7  E81A050000        call 0x26f6
000021DC  EB17              jmp short 0x21f5
000021DE  89C3              mov ebx,eax
000021E0  8D45F7            lea eax,[ebp-0x9]
000021E3  890424            mov [esp],eax
000021E6  E8DB040000        call 0x26c6
000021EB  89D8              mov eax,ebx
000021ED  890424            mov [esp],eax
000021F0  E89BECFFFF        call 0x100000e90
000021F5  8B5DFC            mov ebx,[ebp-0x4]
000021F8  C9                leave
000021F9  C3                ret
000021FA  55                push ebp
000021FB  89E5              mov ebp,esp
000021FD  83EC48            sub esp,byte +0x48
00002200  8B450C            mov eax,[ebp+0xc]
00002203  890424            mov [esp],eax
00002206  E807FCFFFF        call 0x100001e12
0000220B  8945F4            mov [ebp-0xc],eax
0000220E  8B450C            mov eax,[ebp+0xc]
00002211  890424            mov [esp],eax
00002214  E8FF040000        call 0x2718
00002219  8945F0            mov [ebp-0x10],eax
0000221C  C645EF01          mov byte [ebp-0x11],0x1
00002220  EB4B              jmp short 0x226d
00002222  8B45F4            mov eax,[ebp-0xc]
00002225  8945F0            mov [ebp-0x10],eax
00002228  8B45F4            mov eax,[ebp-0xc]
0000222B  890424            mov [esp],eax
0000222E  E8F0040000        call 0x2723
00002233  8B550C            mov edx,[ebp+0xc]
00002236  89442408          mov [esp+0x8],eax
0000223A  8B4510            mov eax,[ebp+0x10]
0000223D  89442404          mov [esp+0x4],eax
00002241  891424            mov [esp],edx
00002244  E8FD040000        call 0x2746
00002249  8845EF            mov [ebp-0x11],al
0000224C  807DEF00          cmp byte [ebp-0x11],0x0
00002250  740D              jz 0x225f
00002252  8B45F4            mov eax,[ebp-0xc]
00002255  890424            mov [esp],eax
00002258  E81BFFFFFF        call 0x100002178
0000225D  EB0B              jmp short 0x226a
0000225F  8B45F4            mov eax,[ebp-0xc]
00002262  890424            mov [esp],eax
00002265  E803FFFFFF        call 0x10000216d
0000226A  8945F4            mov [ebp-0xc],eax
0000226D  837DF400          cmp dword [ebp-0xc],byte +0x0
00002271  75AF              jnz 0x2222
00002273  8B45F0            mov eax,[ebp-0x10]
00002276  89442404          mov [esp+0x4],eax
0000227A  8D45D0            lea eax,[ebp-0x30]
0000227D  890424            mov [esp],eax
00002280  E8E1010000        call 0x2466
00002285  807DEF00          cmp byte [ebp-0x11],0x0
00002289  7460              jz 0x22eb
0000228B  8D45D4            lea eax,[ebp-0x2c]
0000228E  8B550C            mov edx,[ebp+0xc]
00002291  89542404          mov [esp+0x4],edx
00002295  890424            mov [esp],eax
00002298  E8C3040000        call 0x2760
0000229D  83EC04            sub esp,byte +0x4
000022A0  8D45D4            lea eax,[ebp-0x2c]
000022A3  89442404          mov [esp+0x4],eax
000022A7  8D45D0            lea eax,[ebp-0x30]
000022AA  890424            mov [esp],eax
000022AD  E8D0040000        call 0x2782
000022B2  84C0              test al,al
000022B4  742A              jz 0x22e0
000022B6  8B45F0            mov eax,[ebp-0x10]
000022B9  8945D8            mov [ebp-0x28],eax
000022BC  8B45F4            mov eax,[ebp-0xc]
000022BF  8945DC            mov [ebp-0x24],eax
000022C2  8D45D8            lea eax,[ebp-0x28]
000022C5  89442408          mov [esp+0x8],eax
000022C9  8D45DC            lea eax,[ebp-0x24]
000022CC  89442404          mov [esp+0x4],eax
000022D0  8B4508            mov eax,[ebp+0x8]
000022D3  890424            mov [esp],eax
000022D6  E8BB040000        call 0x2796
000022DB  E981000000        jmp 0x2361
000022E0  8D45D0            lea eax,[ebp-0x30]
000022E3  890424            mov [esp],eax
000022E6  E8C5040000        call 0x27b0
000022EB  8B45D0            mov eax,[ebp-0x30]
000022EE  890424            mov [esp],eax
000022F1  E8D7040000        call 0x27cd
000022F6  8B550C            mov edx,[ebp+0xc]
000022F9  8B4D10            mov ecx,[ebp+0x10]
000022FC  894C2408          mov [esp+0x8],ecx
00002300  89442404          mov [esp+0x4],eax
00002304  891424            mov [esp],edx
00002307  E83A040000        call 0x2746
0000230C  84C0              test al,al
0000230E  7427              jz 0x2337
00002310  8B45F0            mov eax,[ebp-0x10]
00002313  8945E0            mov [ebp-0x20],eax
00002316  8B45F4            mov eax,[ebp-0xc]
00002319  8945E4            mov [ebp-0x1c],eax
0000231C  8D45E0            lea eax,[ebp-0x20]
0000231F  89442408          mov [esp+0x8],eax
00002323  8D45E4            lea eax,[ebp-0x1c]
00002326  89442404          mov [esp+0x4],eax
0000232A  8B4508            mov eax,[ebp+0x8]
0000232D  890424            mov [esp],eax
00002330  E861040000        call 0x2796
00002335  EB2A              jmp short 0x2361
00002337  C745E800000000    mov dword [ebp-0x18],0x0
0000233E  8D45E8            lea eax,[ebp-0x18]
00002341  89442408          mov [esp+0x8],eax
00002345  8D45D0            lea eax,[ebp-0x30]
00002348  89442404          mov [esp+0x4],eax
0000234C  8B4508            mov eax,[ebp+0x8]
0000234F  890424            mov [esp],eax
00002352  E83F040000        call 0x2796
00002357  EB08              jmp short 0x2361
00002359  890424            mov [esp],eax
0000235C  E82FEBFFFF        call 0x100000e90
00002361  8B4508            mov eax,[ebp+0x8]
00002364  C9                leave
00002365  C20400            ret 0x4
00002368  55                push ebp
00002369  89E5              mov ebp,esp
0000236B  8B450C            mov eax,[ebp+0xc]
0000236E  5D                pop ebp
0000236F  C3                ret
00002370  55                push ebp
00002371  89E5              mov ebp,esp
00002373  56                push esi
00002374  53                push ebx
00002375  83EC20            sub esp,byte +0x20
00002378  B300              mov bl,0x0
0000237A  837D1000          cmp dword [ebp+0x10],byte +0x0
0000237E  7548              jnz 0x23c8
00002380  8B450C            mov eax,[ebp+0xc]
00002383  890424            mov [esp],eax
00002386  E88D030000        call 0x2718
0000238B  3B4514            cmp eax,[ebp+0x14]
0000238E  7438              jz 0x23c8
00002390  8B4514            mov eax,[ebp+0x14]
00002393  890424            mov [esp],eax
00002396  E832040000        call 0x27cd
0000239B  89C6              mov esi,eax
0000239D  B301              mov bl,0x1
0000239F  8B4518            mov eax,[ebp+0x18]
000023A2  89442404          mov [esp+0x4],eax
000023A6  8D45EF            lea eax,[ebp-0x11]
000023A9  890424            mov [esp],eax
000023AC  E8B7FFFFFF        call 0x100002368
000023B1  8B550C            mov edx,[ebp+0xc]
000023B4  89742408          mov [esp+0x8],esi
000023B8  89442404          mov [esp+0x4],eax
000023BC  891424            mov [esp],edx
000023BF  E882030000        call 0x2746
000023C4  84C0              test al,al
000023C6  7404              jz 0x23cc
000023C8  B001              mov al,0x1
000023CA  EB02              jmp short 0x23ce
000023CC  B000              mov al,0x0
000023CE  8845F7            mov [ebp-0x9],al
000023D1  84DB              test bl,bl
000023D3  90                nop
000023D4  8B4518            mov eax,[ebp+0x18]
000023D7  89442404          mov [esp+0x4],eax
000023DB  8B450C            mov eax,[ebp+0xc]
000023DE  890424            mov [esp],eax
000023E1  E80A040000        call 0x27f0
000023E6  8945F0            mov [ebp-0x10],eax
000023E9  8B450C            mov eax,[ebp+0xc]
000023EC  8D5004            lea edx,[eax+0x4]
000023EF  8A45F7            mov al,[ebp-0x9]
000023F2  25FF000000        and eax,0xff
000023F7  8954240C          mov [esp+0xc],edx
000023FB  8B5514            mov edx,[ebp+0x14]
000023FE  89542408          mov [esp+0x8],edx
00002402  8B55F0            mov edx,[ebp-0x10]
00002405  89542404          mov [esp+0x4],edx
00002409  890424            mov [esp],eax
0000240C  E8AFE9FFFF        call 0x100000dc0
00002411  8B450C            mov eax,[ebp+0xc]
00002414  8B4014            mov eax,[eax+0x14]
00002417  8D5001            lea edx,[eax+0x1]
0000241A  8B450C            mov eax,[ebp+0xc]
0000241D  895014            mov [eax+0x14],edx
00002420  8B45F0            mov eax,[ebp-0x10]
00002423  89442404          mov [esp+0x4],eax
00002427  8B4508            mov eax,[ebp+0x8]
0000242A  890424            mov [esp],eax
0000242D  E834000000        call 0x2466
00002432  EB0B              jmp short 0x243f
00002434  84DB              test bl,bl
00002436  90                nop
00002437  890424            mov [esp],eax
0000243A  E851EAFFFF        call 0x100000e90
0000243F  8B4508            mov eax,[ebp+0x8]
00002442  83C420            add esp,byte +0x20
00002445  5B                pop ebx
00002446  5E                pop esi
00002447  5D                pop ebp
00002448  C20400            ret 0x4
0000244B  90                nop
0000244C  55                push ebp
0000244D  89E5              mov ebp,esp
0000244F  8B4508            mov eax,[ebp+0x8]
00002452  8B550C            mov edx,[ebp+0xc]
00002455  8B12              mov edx,[edx]
00002457  8910              mov [eax],edx
00002459  8B4510            mov eax,[ebp+0x10]
0000245C  8A10              mov dl,[eax]
0000245E  8B4508            mov eax,[ebp+0x8]
00002461  885004            mov [eax+0x4],dl
00002464  5D                pop ebp
00002465  C3                ret
00002466  55                push ebp
00002467  89E5              mov ebp,esp
00002469  8B4508            mov eax,[ebp+0x8]
0000246C  8B550C            mov edx,[ebp+0xc]
0000246F  8910              mov [eax],edx
00002471  5D                pop ebp
00002472  C3                ret
00002473  90                nop
00002474  55                push ebp
00002475  89E5              mov ebp,esp
00002477  83EC18            sub esp,byte +0x18
0000247A  8B4508            mov eax,[ebp+0x8]
0000247D  890424            mov [esp],eax
00002480  E80F040000        call 0x2894
00002485  8B4508            mov eax,[ebp+0x8]
00002488  C7400400000000    mov dword [eax+0x4],0x0
0000248F  8B4508            mov eax,[ebp+0x8]
00002492  C7400800000000    mov dword [eax+0x8],0x0
00002499  8B4508            mov eax,[ebp+0x8]
0000249C  C7400C00000000    mov dword [eax+0xc],0x0
000024A3  8B4508            mov eax,[ebp+0x8]
000024A6  C7401000000000    mov dword [eax+0x10],0x0
000024AD  8B4508            mov eax,[ebp+0x8]
000024B0  C7401400000000    mov dword [eax+0x14],0x0
000024B7  8B4508            mov eax,[ebp+0x8]
000024BA  890424            mov [esp],eax
000024BD  E8E6030000        call 0x28a8
000024C2  C9                leave
000024C3  C3                ret
000024C4  55                push ebp
000024C5  89E5              mov ebp,esp
000024C7  5D                pop ebp
000024C8  C3                ret
000024C9  55                push ebp
000024CA  89E5              mov ebp,esp
000024CC  8B4508            mov eax,[ebp+0x8]
000024CF  8B400C            mov eax,[eax+0xc]
000024D2  5D                pop ebp
000024D3  C3                ret
000024D4  55                push ebp
000024D5  89E5              mov ebp,esp
000024D7  8B4508            mov eax,[ebp+0x8]
000024DA  8B4008            mov eax,[eax+0x8]
000024DD  5D                pop ebp
000024DE  C3                ret
000024DF  90                nop
000024E0  55                push ebp
000024E1  89E5              mov ebp,esp
000024E3  53                push ebx
000024E4  83EC24            sub esp,byte +0x24
000024E7  8B450C            mov eax,[ebp+0xc]
000024EA  83C010            add eax,byte +0x10
000024ED  890424            mov [esp],eax
000024F0  E80FFCFFFF        call 0x100002104
000024F5  89C3              mov ebx,eax
000024F7  8D45F7            lea eax,[ebp-0x9]
000024FA  8B5508            mov edx,[ebp+0x8]
000024FD  89542404          mov [esp+0x4],edx
00002501  890424            mov [esp],eax
00002504  E8D1030000        call 0x28da
00002509  83EC04            sub esp,byte +0x4
0000250C  895C2404          mov [esp+0x4],ebx
00002510  8D45F7            lea eax,[ebp-0x9]
00002513  890424            mov [esp],eax
00002516  E8FB030000        call 0x2916
0000251B  8D45F7            lea eax,[ebp-0x9]
0000251E  890424            mov [esp],eax
00002521  E8DC030000        call 0x2902
00002526  8B450C            mov eax,[ebp+0xc]
00002529  89442404          mov [esp+0x4],eax
0000252D  8B4508            mov eax,[ebp+0x8]
00002530  890424            mov [esp],eax
00002533  E8E4030000        call 0x291c
00002538  8B5DFC            mov ebx,[ebp-0x4]
0000253B  C9                leave
0000253C  C3                ret
0000253D  90                nop
0000253E  55                push ebp
0000253F  89E5              mov ebp,esp
00002541  8B4508            mov eax,[ebp+0x8]
00002544  8B550C            mov edx,[ebp+0xc]
00002547  8910              mov [eax],edx
00002549  5D                pop ebp
0000254A  C3                ret
0000254B  90                nop
0000254C  55                push ebp
0000254D  89E5              mov ebp,esp
0000254F  53                push ebx
00002550  83EC24            sub esp,byte +0x24
00002553  8B450C            mov eax,[ebp+0xc]
00002556  890424            mov [esp],eax
00002559  E8E0030000        call 0x293e
0000255E  89C3              mov ebx,eax
00002560  8B450C            mov eax,[ebp+0xc]
00002563  890424            mov [esp],eax
00002566  E81DFAFFFF        call 0x100001f88
0000256B  8B5508            mov edx,[ebp+0x8]
0000256E  8B4D10            mov ecx,[ebp+0x10]
00002571  894C2410          mov [esp+0x10],ecx
00002575  895C240C          mov [esp+0xc],ebx
00002579  89442408          mov [esp+0x8],eax
0000257D  8B450C            mov eax,[ebp+0xc]
00002580  89442404          mov [esp+0x4],eax
00002584  891424            mov [esp],edx
00002587  E8BE030000        call 0x294a
0000258C  83EC04            sub esp,byte +0x4
0000258F  8B4508            mov eax,[ebp+0x8]
00002592  8B5DFC            mov ebx,[ebp-0x4]
00002595  C9                leave
00002596  C20400            ret 0x4
00002599  90                nop
0000259A  55                push ebp
0000259B  89E5              mov ebp,esp
0000259D  90                nop
0000259E  8B4508            mov eax,[ebp+0x8]
000025A1  5D                pop ebp
000025A2  C20400            ret 0x4
000025A5  90                nop
000025A6  55                push ebp
000025A7  89E5              mov ebp,esp
000025A9  8B450C            mov eax,[ebp+0xc]
000025AC  8B10              mov edx,[eax]
000025AE  8B4508            mov eax,[ebp+0x8]
000025B1  8910              mov [eax],edx
000025B3  5D                pop ebp
000025B4  C3                ret
000025B5  90                nop
000025B6  55                push ebp
000025B7  89E5              mov ebp,esp
000025B9  53                push ebx
000025BA  83EC34            sub esp,byte +0x34
000025BD  8B4514            mov eax,[ebp+0x14]
000025C0  89442404          mov [esp+0x4],eax
000025C4  8D45F7            lea eax,[ebp-0x9]
000025C7  890424            mov [esp],eax
000025CA  E827070000        call 0x2cf6
000025CF  8D55EC            lea edx,[ebp-0x14]
000025D2  8944240C          mov [esp+0xc],eax
000025D6  8B4510            mov eax,[ebp+0x10]
000025D9  89442408          mov [esp+0x8],eax
000025DD  8B450C            mov eax,[ebp+0xc]
000025E0  89442404          mov [esp+0x4],eax
000025E4  891424            mov [esp],edx
000025E7  E8D2030000        call 0x29be
000025EC  83EC04            sub esp,byte +0x4
000025EF  8B45F0            mov eax,[ebp-0x10]
000025F2  85C0              test eax,eax
000025F4  742C              jz 0x2622
000025F6  8B4DF0            mov ecx,[ebp-0x10]
000025F9  8B55EC            mov edx,[ebp-0x14]
000025FC  8B4508            mov eax,[ebp+0x8]
000025FF  8B5D14            mov ebx,[ebp+0x14]
00002602  895C2410          mov [esp+0x10],ebx
00002606  894C240C          mov [esp+0xc],ecx
0000260A  89542408          mov [esp+0x8],edx
0000260E  8B550C            mov edx,[ebp+0xc]
00002611  89542404          mov [esp+0x4],edx
00002615  890424            mov [esp],eax
00002618  E8E1060000        call 0x2cfe
0000261D  83EC04            sub esp,byte +0x4
00002620  EB1E              jmp short 0x2640
00002622  8B45EC            mov eax,[ebp-0x14]
00002625  89442404          mov [esp+0x4],eax
00002629  8B4508            mov eax,[ebp+0x8]
0000262C  890424            mov [esp],eax
0000262F  E816000000        call 0x264a
00002634  EB0A              jmp short 0x2640
00002636  EB00              jmp short 0x2638
00002638  890424            mov [esp],eax
0000263B  E850E8FFFF        call 0x100000e90
00002640  8B4508            mov eax,[ebp+0x8]
00002643  8B5DFC            mov ebx,[ebp-0x4]
00002646  C9                leave
00002647  C20400            ret 0x4
0000264A  55                push ebp
0000264B  89E5              mov ebp,esp
0000264D  8B4508            mov eax,[ebp+0x8]
00002650  8B550C            mov edx,[ebp+0xc]
00002653  8910              mov [eax],edx
00002655  5D                pop ebp
00002656  C3                ret
00002657  90                nop
00002658  55                push ebp
00002659  89E5              mov ebp,esp
0000265B  83EC18            sub esp,byte +0x18
0000265E  8B4508            mov eax,[ebp+0x8]
00002661  890424            mov [esp],eax
00002664  E871070000        call 0x2dda
00002669  C9                leave
0000266A  C3                ret
0000266B  90                nop
0000266C  55                push ebp
0000266D  89E5              mov ebp,esp
0000266F  8B4508            mov eax,[ebp+0x8]
00002672  C7400400000000    mov dword [eax+0x4],0x0
00002679  8B4508            mov eax,[ebp+0x8]
0000267C  C7400800000000    mov dword [eax+0x8],0x0
00002683  8B4508            mov eax,[ebp+0x8]
00002686  8D5004            lea edx,[eax+0x4]
00002689  8B4508            mov eax,[ebp+0x8]
0000268C  89500C            mov [eax+0xc],edx
0000268F  8B4508            mov eax,[ebp+0x8]
00002692  8D5004            lea edx,[eax+0x4]
00002695  8B4508            mov eax,[ebp+0x8]
00002698  895010            mov [eax+0x10],edx
0000269B  5D                pop ebp
0000269C  C3                ret
0000269D  90                nop
0000269E  55                push ebp
0000269F  89E5              mov ebp,esp
000026A1  83EC18            sub esp,byte +0x18
000026A4  8B450C            mov eax,[ebp+0xc]
000026A7  890424            mov [esp],eax
000026AA  E831070000        call 0x2de0
000026AF  89442404          mov [esp+0x4],eax
000026B3  8B4508            mov eax,[ebp+0x8]
000026B6  890424            mov [esp],eax
000026B9  E82A070000        call 0x2de8
000026BE  8B4508            mov eax,[ebp+0x8]
000026C1  C9                leave
000026C2  C20400            ret 0x4
000026C5  90                nop
000026C6  55                push ebp
000026C7  89E5              mov ebp,esp
000026C9  83EC18            sub esp,byte +0x18
000026CC  8B4508            mov eax,[ebp+0x8]
000026CF  890424            mov [esp],eax
000026D2  E825070000        call 0x2dfc
000026D7  C9                leave
000026D8  C3                ret
000026D9  55                push ebp
000026DA  89E5              mov ebp,esp
000026DC  8B4508            mov eax,[ebp+0x8]
000026DF  5D                pop ebp
000026E0  C3                ret
000026E1  90                nop
000026E2  55                push ebp
000026E3  89E5              mov ebp,esp
000026E5  83EC18            sub esp,byte +0x18
000026E8  8B450C            mov eax,[ebp+0xc]
000026EB  890424            mov [esp],eax
000026EE  E83DE6FFFF        call 0x100000d30
000026F3  C9                leave
000026F4  C3                ret
000026F5  90                nop
000026F6  55                push ebp
000026F7  89E5              mov ebp,esp
000026F9  83EC18            sub esp,byte +0x18
000026FC  8B4508            mov eax,[ebp+0x8]
000026FF  C744240801000000  mov dword [esp+0x8],0x1
00002707  8B550C            mov edx,[ebp+0xc]
0000270A  89542404          mov [esp+0x4],edx
0000270E  890424            mov [esp],eax
00002711  E8EC060000        call 0x2e02
00002716  C9                leave
00002717  C3                ret
00002718  55                push ebp
00002719  89E5              mov ebp,esp
0000271B  8B4508            mov eax,[ebp+0x8]
0000271E  83C004            add eax,byte +0x4
00002721  5D                pop ebp
00002722  C3                ret
00002723  55                push ebp
00002724  89E5              mov ebp,esp
00002726  83EC28            sub esp,byte +0x28
00002729  8B4508            mov eax,[ebp+0x8]
0000272C  890424            mov [esp],eax
0000272F  E8E1060000        call 0x2e15
00002734  89442404          mov [esp+0x4],eax
00002738  8D45F7            lea eax,[ebp-0x9]
0000273B  890424            mov [esp],eax
0000273E  E825FCFFFF        call 0x100002368
00002743  C9                leave
00002744  C3                ret
00002745  90                nop
00002746  55                push ebp
00002747  89E5              mov ebp,esp
00002749  83EC18            sub esp,byte +0x18
0000274C  8B4510            mov eax,[ebp+0x10]
0000274F  89442404          mov [esp+0x4],eax
00002753  8B450C            mov eax,[ebp+0xc]
00002756  890424            mov [esp],eax
00002759  E8C2060000        call 0x2e20
0000275E  C9                leave
0000275F  C3                ret
00002760  55                push ebp
00002761  89E5              mov ebp,esp
00002763  83EC18            sub esp,byte +0x18
00002766  8B450C            mov eax,[ebp+0xc]
00002769  8B400C            mov eax,[eax+0xc]
0000276C  89442404          mov [esp+0x4],eax
00002770  8B4508            mov eax,[ebp+0x8]
00002773  890424            mov [esp],eax
00002776  E8EBFCFFFF        call 0x100002466
0000277B  8B4508            mov eax,[ebp+0x8]
0000277E  C9                leave
0000277F  C20400            ret 0x4
00002782  55                push ebp
00002783  89E5              mov ebp,esp
00002785  8B4508            mov eax,[ebp+0x8]
00002788  8B10              mov edx,[eax]
0000278A  8B450C            mov eax,[ebp+0xc]
0000278D  8B00              mov eax,[eax]
0000278F  39C2              cmp edx,eax
00002791  0F94C0            setz al
00002794  5D                pop ebp
00002795  C3                ret
00002796  55                push ebp
00002797  89E5              mov ebp,esp
00002799  8B450C            mov eax,[ebp+0xc]
0000279C  8B10              mov edx,[eax]
0000279E  8B4508            mov eax,[ebp+0x8]
000027A1  8910              mov [eax],edx
000027A3  8B4510            mov eax,[ebp+0x10]
000027A6  8B10              mov edx,[eax]
000027A8  8B4508            mov eax,[ebp+0x8]
000027AB  895004            mov [eax+0x4],edx
000027AE  5D                pop ebp
000027AF  C3                ret
000027B0  55                push ebp
000027B1  89E5              mov ebp,esp
000027B3  83EC18            sub esp,byte +0x18
000027B6  8B4508            mov eax,[ebp+0x8]
000027B9  8B00              mov eax,[eax]
000027BB  890424            mov [esp],eax
000027BE  E80DE5FFFF        call 0x100000cd0
000027C3  8B5508            mov edx,[ebp+0x8]
000027C6  8902              mov [edx],eax
000027C8  8B4508            mov eax,[ebp+0x8]
000027CB  C9                leave
000027CC  C3                ret
000027CD  55                push ebp
000027CE  89E5              mov ebp,esp
000027D0  83EC28            sub esp,byte +0x28
000027D3  8B4508            mov eax,[ebp+0x8]
000027D6  890424            mov [esp],eax
000027D9  E85F060000        call 0x2e3d
000027DE  89442404          mov [esp+0x4],eax
000027E2  8D45F7            lea eax,[ebp-0x9]
000027E5  890424            mov [esp],eax
000027E8  E87BFBFFFF        call 0x100002368
000027ED  C9                leave
000027EE  C3                ret
000027EF  90                nop
000027F0  55                push ebp
000027F1  89E5              mov ebp,esp
000027F3  53                push ebx
000027F4  83EC24            sub esp,byte +0x24
000027F7  8B4508            mov eax,[ebp+0x8]
000027FA  890424            mov [esp],eax
000027FD  E846060000        call 0x2e48
00002802  8945F4            mov [ebp-0xc],eax
00002805  8B45F4            mov eax,[ebp-0xc]
00002808  83C010            add eax,byte +0x10
0000280B  890424            mov [esp],eax
0000280E  E8C6FEFFFF        call 0x1000026d9
00002813  89C3              mov ebx,eax
00002815  8D45F3            lea eax,[ebp-0xd]
00002818  8B5508            mov edx,[ebp+0x8]
0000281B  89542404          mov [esp+0x4],edx
0000281F  890424            mov [esp],eax
00002822  E877FEFFFF        call 0x10000269e
00002827  83EC04            sub esp,byte +0x4
0000282A  8B450C            mov eax,[ebp+0xc]
0000282D  89442408          mov [esp+0x8],eax
00002831  895C2404          mov [esp+0x4],ebx
00002835  8D45F3            lea eax,[ebp-0xd]
00002838  890424            mov [esp],eax
0000283B  E82C060000        call 0x2e6c
00002840  8D45F3            lea eax,[ebp-0xd]
00002843  890424            mov [esp],eax
00002846  E87BFEFFFF        call 0x1000026c6
0000284B  8B45F4            mov eax,[ebp-0xc]
0000284E  EB3F              jmp short 0x288f
00002850  89C3              mov ebx,eax
00002852  8D45F3            lea eax,[ebp-0xd]
00002855  890424            mov [esp],eax
00002858  E869FEFFFF        call 0x1000026c6
0000285D  89D8              mov eax,ebx
0000285F  890424            mov [esp],eax
00002862  E8F9E5FFFF        call 0x100000e60
00002867  8B45F4            mov eax,[ebp-0xc]
0000286A  89442404          mov [esp+0x4],eax
0000286E  8B4508            mov eax,[ebp+0x8]
00002871  890424            mov [esp],eax
00002874  E87DFEFFFF        call 0x1000026f6
00002879  E832E4FFFF        call 0x100000cb0
0000287E  89C3              mov ebx,eax
00002880  E8ABE5FFFF        call 0x100000e30
00002885  89D8              mov eax,ebx
00002887  890424            mov [esp],eax
0000288A  E801E6FFFF        call 0x100000e90
0000288F  8B5DFC            mov ebx,[ebp-0x4]
00002892  C9                leave
00002893  C3                ret
00002894  55                push ebp
00002895  89E5              mov ebp,esp
00002897  83EC18            sub esp,byte +0x18
0000289A  8B4508            mov eax,[ebp+0x8]
0000289D  890424            mov [esp],eax
000028A0  E81D060000        call 0x2ec2
000028A5  C9                leave
000028A6  C3                ret
000028A7  90                nop
000028A8  55                push ebp
000028A9  89E5              mov ebp,esp
000028AB  8B4508            mov eax,[ebp+0x8]
000028AE  C7400400000000    mov dword [eax+0x4],0x0
000028B5  8B4508            mov eax,[ebp+0x8]
000028B8  C7400800000000    mov dword [eax+0x8],0x0
000028BF  8B4508            mov eax,[ebp+0x8]
000028C2  8D5004            lea edx,[eax+0x4]
000028C5  8B4508            mov eax,[ebp+0x8]
000028C8  89500C            mov [eax+0xc],edx
000028CB  8B4508            mov eax,[ebp+0x8]
000028CE  8D5004            lea edx,[eax+0x4]
000028D1  8B4508            mov eax,[ebp+0x8]
000028D4  895010            mov [eax+0x10],edx
000028D7  5D                pop ebp
000028D8  C3                ret
000028D9  90                nop
000028DA  55                push ebp
000028DB  89E5              mov ebp,esp
000028DD  83EC18            sub esp,byte +0x18
000028E0  8B450C            mov eax,[ebp+0xc]
000028E3  890424            mov [esp],eax
000028E6  E8DD050000        call 0x2ec8
000028EB  89442404          mov [esp+0x4],eax
000028EF  8B4508            mov eax,[ebp+0x8]
000028F2  890424            mov [esp],eax
000028F5  E8D6050000        call 0x2ed0
000028FA  8B4508            mov eax,[ebp+0x8]
000028FD  C9                leave
000028FE  C20400            ret 0x4
00002901  90                nop
00002902  55                push ebp
00002903  89E5              mov ebp,esp
00002905  83EC18            sub esp,byte +0x18
00002908  8B4508            mov eax,[ebp+0x8]
0000290B  890424            mov [esp],eax
0000290E  E8D1050000        call 0x2ee4
00002913  C9                leave
00002914  C3                ret
00002915  90                nop
00002916  55                push ebp
00002917  89E5              mov ebp,esp
00002919  5D                pop ebp
0000291A  C3                ret
0000291B  90                nop
0000291C  55                push ebp
0000291D  89E5              mov ebp,esp
0000291F  83EC18            sub esp,byte +0x18
00002922  8B4508            mov eax,[ebp+0x8]
00002925  C744240801000000  mov dword [esp+0x8],0x1
0000292D  8B550C            mov edx,[ebp+0xc]
00002930  89542404          mov [esp+0x4],edx
00002934  890424            mov [esp],eax
00002937  E8AE050000        call 0x2eea
0000293C  C9                leave
0000293D  C3                ret
0000293E  55                push ebp
0000293F  89E5              mov ebp,esp
00002941  8B4508            mov eax,[ebp+0x8]
00002944  83C004            add eax,byte +0x4
00002947  5D                pop ebp
00002948  C3                ret
00002949  90                nop
0000294A  55                push ebp
0000294B  89E5              mov ebp,esp
0000294D  83EC18            sub esp,byte +0x18
00002950  EB4C              jmp short 0x299e
00002952  8B4510            mov eax,[ebp+0x10]
00002955  890424            mov [esp],eax
00002958  E8A0050000        call 0x2efd
0000295D  8B550C            mov edx,[ebp+0xc]
00002960  8B4D18            mov ecx,[ebp+0x18]
00002963  894C2408          mov [esp+0x8],ecx
00002967  89442404          mov [esp+0x4],eax
0000296B  891424            mov [esp],edx
0000296E  E8BFF6FFFF        call 0x100002032
00002973  83F001            xor eax,byte +0x1
00002976  84C0              test al,al
00002978  7416              jz 0x2990
0000297A  8B4510            mov eax,[ebp+0x10]
0000297D  894514            mov [ebp+0x14],eax
00002980  8B4510            mov eax,[ebp+0x10]
00002983  890424            mov [esp],eax
00002986  E849FBFFFF        call 0x1000024d4
0000298B  894510            mov [ebp+0x10],eax
0000298E  EB0E              jmp short 0x299e
00002990  8B4510            mov eax,[ebp+0x10]
00002993  890424            mov [esp],eax
00002996  E82EFBFFFF        call 0x1000024c9
0000299B  894510            mov [ebp+0x10],eax
0000299E  837D1000          cmp dword [ebp+0x10],byte +0x0
000029A2  75AE              jnz 0x2952
000029A4  8B4514            mov eax,[ebp+0x14]
000029A7  89442404          mov [esp+0x4],eax
000029AB  8B4508            mov eax,[ebp+0x8]
000029AE  890424            mov [esp],eax
000029B1  E894FCFFFF        call 0x10000264a
000029B6  8B4508            mov eax,[ebp+0x8]
000029B9  C9                leave
000029BA  C20400            ret 0x4
000029BD  90                nop
000029BE  55                push ebp
000029BF  89E5              mov ebp,esp
000029C1  53                push ebx
000029C2  83EC34            sub esp,byte +0x34
000029C5  8D45E0            lea eax,[ebp-0x20]
000029C8  8D5510            lea edx,[ebp+0x10]
000029CB  89542404          mov [esp+0x4],edx
000029CF  890424            mov [esp],eax
000029D2  E849050000        call 0x2f20
000029D7  83EC04            sub esp,byte +0x4
000029DA  8B5DE0            mov ebx,[ebp-0x20]
000029DD  8B450C            mov eax,[ebp+0xc]
000029E0  890424            mov [esp],eax
000029E3  E856FFFFFF        call 0x10000293e
000029E8  39C3              cmp ebx,eax
000029EA  0F94C0            setz al
000029ED  84C0              test al,al
000029EF  0F8496000000      jz near 0x2a8b
000029F5  8B450C            mov eax,[ebp+0xc]
000029F8  890424            mov [esp],eax
000029FB  E870050000        call 0x2f70
00002A00  85C0              test eax,eax
00002A02  7433              jz 0x2a37
00002A04  8B450C            mov eax,[ebp+0xc]
00002A07  890424            mov [esp],eax
00002A0A  E833050000        call 0x2f42
00002A0F  8B00              mov eax,[eax]
00002A11  890424            mov [esp],eax
00002A14  E834050000        call 0x2f4d
00002A19  8B550C            mov edx,[ebp+0xc]
00002A1C  8B4D14            mov ecx,[ebp+0x14]
00002A1F  894C2408          mov [esp+0x8],ecx
00002A23  89442404          mov [esp+0x4],eax
00002A27  891424            mov [esp],edx
00002A2A  E803F6FFFF        call 0x100002032
00002A2F  84C0              test al,al
00002A31  7404              jz 0x2a37
00002A33  B001              mov al,0x1
00002A35  EB02              jmp short 0x2a39
00002A37  B000              mov al,0x0
00002A39  84C0              test al,al
00002A3B  742D              jz 0x2a6a
00002A3D  8B450C            mov eax,[ebp+0xc]
00002A40  890424            mov [esp],eax
00002A43  E8FA040000        call 0x2f42
00002A48  C745E400000000    mov dword [ebp-0x1c],0x0
00002A4F  89442408          mov [esp+0x8],eax
00002A53  8D45E4            lea eax,[ebp-0x1c]
00002A56  89442404          mov [esp+0x4],eax
00002A5A  8B4508            mov eax,[ebp+0x8]
00002A5D  890424            mov [esp],eax
00002A60  E831FDFFFF        call 0x100002796
00002A65  E981020000        jmp 0x2ceb
00002A6A  8B4508            mov eax,[ebp+0x8]
00002A6D  8B5514            mov edx,[ebp+0x14]
00002A70  89542408          mov [esp+0x8],edx
00002A74  8B550C            mov edx,[ebp+0xc]
00002A77  89542404          mov [esp+0x4],edx
00002A7B  890424            mov [esp],eax
00002A7E  E8F9040000        call 0x2f7c
00002A83  83EC04            sub esp,byte +0x4
00002A86  E960020000        jmp 0x2ceb
00002A8B  8B45E0            mov eax,[ebp-0x20]
00002A8E  890424            mov [esp],eax
00002A91  E8B7040000        call 0x2f4d
00002A96  8B550C            mov edx,[ebp+0xc]
00002A99  89442408          mov [esp+0x8],eax
00002A9D  8B4514            mov eax,[ebp+0x14]
00002AA0  89442404          mov [esp+0x4],eax
00002AA4  891424            mov [esp],edx
00002AA7  E886F5FFFF        call 0x100002032
00002AAC  84C0              test al,al
00002AAE  0F84F6000000      jz near 0x2baa
00002AB4  8B45E0            mov eax,[ebp-0x20]
00002AB7  8945DC            mov [ebp-0x24],eax
00002ABA  8B5DE0            mov ebx,[ebp-0x20]
00002ABD  8B450C            mov eax,[ebp+0xc]
00002AC0  890424            mov [esp],eax
00002AC3  E816060000        call 0x30de
00002AC8  8B00              mov eax,[eax]
00002ACA  39C3              cmp ebx,eax
00002ACC  0F94C0            setz al
00002ACF  84C0              test al,al
00002AD1  7430              jz 0x2b03
00002AD3  8B450C            mov eax,[ebp+0xc]
00002AD6  890424            mov [esp],eax
00002AD9  E800060000        call 0x30de
00002ADE  89C3              mov ebx,eax
00002AE0  8B450C            mov eax,[ebp+0xc]
00002AE3  890424            mov [esp],eax
00002AE6  E8F3050000        call 0x30de
00002AEB  895C2408          mov [esp+0x8],ebx
00002AEF  89442404          mov [esp+0x4],eax
00002AF3  8B4508            mov eax,[ebp+0x8]
00002AF6  890424            mov [esp],eax
00002AF9  E898FCFFFF        call 0x100002796
00002AFE  E9E8010000        jmp 0x2ceb
00002B03  8D45DC            lea eax,[ebp-0x24]
00002B06  890424            mov [esp],eax
00002B09  E8DC050000        call 0x30ea
00002B0E  8B00              mov eax,[eax]
00002B10  890424            mov [esp],eax
00002B13  E835040000        call 0x2f4d
00002B18  8B550C            mov edx,[ebp+0xc]
00002B1B  8B4D14            mov ecx,[ebp+0x14]
00002B1E  894C2408          mov [esp+0x8],ecx
00002B22  89442404          mov [esp+0x4],eax
00002B26  891424            mov [esp],edx
00002B29  E804F5FFFF        call 0x100002032
00002B2E  84C0              test al,al
00002B30  7457              jz 0x2b89
00002B32  8B45DC            mov eax,[ebp-0x24]
00002B35  890424            mov [esp],eax
00002B38  E88CF9FFFF        call 0x1000024c9
00002B3D  85C0              test eax,eax
00002B3F  0F94C0            setz al
00002B42  84C0              test al,al
00002B44  7425              jz 0x2b6b
00002B46  C745E800000000    mov dword [ebp-0x18],0x0
00002B4D  8D45DC            lea eax,[ebp-0x24]
00002B50  89442408          mov [esp+0x8],eax
00002B54  8D45E8            lea eax,[ebp-0x18]
00002B57  89442404          mov [esp+0x4],eax
00002B5B  8B4508            mov eax,[ebp+0x8]
00002B5E  890424            mov [esp],eax
00002B61  E830FCFFFF        call 0x100002796
00002B66  E980010000        jmp 0x2ceb
00002B6B  8D45E0            lea eax,[ebp-0x20]
00002B6E  89442408          mov [esp+0x8],eax
00002B72  8D45E0            lea eax,[ebp-0x20]
00002B75  89442404          mov [esp+0x4],eax
00002B79  8B4508            mov eax,[ebp+0x8]
00002B7C  890424            mov [esp],eax
00002B7F  E812FCFFFF        call 0x100002796
00002B84  E962010000        jmp 0x2ceb
00002B89  8B4508            mov eax,[ebp+0x8]
00002B8C  8B5514            mov edx,[ebp+0x14]
00002B8F  89542408          mov [esp+0x8],edx
00002B93  8B550C            mov edx,[ebp+0xc]
00002B96  89542404          mov [esp+0x4],edx
00002B9A  890424            mov [esp],eax
00002B9D  E8DA030000        call 0x2f7c
00002BA2  83EC04            sub esp,byte +0x4
00002BA5  E941010000        jmp 0x2ceb
00002BAA  8B45E0            mov eax,[ebp-0x20]
00002BAD  890424            mov [esp],eax
00002BB0  E898030000        call 0x2f4d
00002BB5  8B550C            mov edx,[ebp+0xc]
00002BB8  8B4D14            mov ecx,[ebp+0x14]
00002BBB  894C2408          mov [esp+0x8],ecx
00002BBF  89442404          mov [esp+0x4],eax
00002BC3  891424            mov [esp],edx
00002BC6  E867F4FFFF        call 0x100002032
00002BCB  84C0              test al,al
00002BCD  0F84EA000000      jz near 0x2cbd
00002BD3  8B45E0            mov eax,[ebp-0x20]
00002BD6  8945D8            mov [ebp-0x28],eax
00002BD9  8B5DE0            mov ebx,[ebp-0x20]
00002BDC  8B450C            mov eax,[ebp+0xc]
00002BDF  890424            mov [esp],eax
00002BE2  E85B030000        call 0x2f42
00002BE7  8B00              mov eax,[eax]
00002BE9  39C3              cmp ebx,eax
00002BEB  0F94C0            setz al
00002BEE  84C0              test al,al
00002BF0  742D              jz 0x2c1f
00002BF2  8B450C            mov eax,[ebp+0xc]
00002BF5  890424            mov [esp],eax
00002BF8  E845030000        call 0x2f42
00002BFD  C745EC00000000    mov dword [ebp-0x14],0x0
00002C04  89442408          mov [esp+0x8],eax
00002C08  8D45EC            lea eax,[ebp-0x14]
00002C0B  89442404          mov [esp+0x4],eax
00002C0F  8B4508            mov eax,[ebp+0x8]
00002C12  890424            mov [esp],eax
00002C15  E87CFBFFFF        call 0x100002796
00002C1A  E9CC000000        jmp 0x2ceb
00002C1F  8D45D8            lea eax,[ebp-0x28]
00002C22  890424            mov [esp],eax
00002C25  E80CF1FFFF        call 0x100001d36
00002C2A  8B00              mov eax,[eax]
00002C2C  890424            mov [esp],eax
00002C2F  E819030000        call 0x2f4d
00002C34  8B550C            mov edx,[ebp+0xc]
00002C37  89442408          mov [esp+0x8],eax
00002C3B  8B4514            mov eax,[ebp+0x14]
00002C3E  89442404          mov [esp+0x4],eax
00002C42  891424            mov [esp],edx
00002C45  E8E8F3FFFF        call 0x100002032
00002C4A  84C0              test al,al
00002C4C  7451              jz 0x2c9f
00002C4E  8B45E0            mov eax,[ebp-0x20]
00002C51  890424            mov [esp],eax
00002C54  E870F8FFFF        call 0x1000024c9
00002C59  85C0              test eax,eax
00002C5B  0F94C0            setz al
00002C5E  84C0              test al,al
00002C60  7422              jz 0x2c84
00002C62  C745F000000000    mov dword [ebp-0x10],0x0
00002C69  8D45E0            lea eax,[ebp-0x20]
00002C6C  89442408          mov [esp+0x8],eax
00002C70  8D45F0            lea eax,[ebp-0x10]
00002C73  89442404          mov [esp+0x4],eax
00002C77  8B4508            mov eax,[ebp+0x8]
00002C7A  890424            mov [esp],eax
00002C7D  E814FBFFFF        call 0x100002796
00002C82  EB67              jmp short 0x2ceb
00002C84  8D45D8            lea eax,[ebp-0x28]
00002C87  89442408          mov [esp+0x8],eax
00002C8B  8D45D8            lea eax,[ebp-0x28]
00002C8E  89442404          mov [esp+0x4],eax
00002C92  8B4508            mov eax,[ebp+0x8]
00002C95  890424            mov [esp],eax
00002C98  E8F9FAFFFF        call 0x100002796
00002C9D  EB4C              jmp short 0x2ceb
00002C9F  8B4508            mov eax,[ebp+0x8]
00002CA2  8B5514            mov edx,[ebp+0x14]
00002CA5  89542408          mov [esp+0x8],edx
00002CA9  8B550C            mov edx,[ebp+0xc]
00002CAC  89542404          mov [esp+0x4],edx
00002CB0  890424            mov [esp],eax
00002CB3  E8C4020000        call 0x2f7c
00002CB8  83EC04            sub esp,byte +0x4
00002CBB  EB2E              jmp short 0x2ceb
00002CBD  C745F400000000    mov dword [ebp-0xc],0x0
00002CC4  8D45F4            lea eax,[ebp-0xc]
00002CC7  89442408          mov [esp+0x8],eax
00002CCB  8D45E0            lea eax,[ebp-0x20]
00002CCE  89442404          mov [esp+0x4],eax
00002CD2  8B4508            mov eax,[ebp+0x8]
00002CD5  890424            mov [esp],eax
00002CD8  E8B9FAFFFF        call 0x100002796
00002CDD  EB0C              jmp short 0x2ceb
00002CDF  EB02              jmp short 0x2ce3
00002CE1  EB00              jmp short 0x2ce3
00002CE3  890424            mov [esp],eax
00002CE6  E8A5E1FFFF        call 0x100000e90
00002CEB  8B4508            mov eax,[ebp+0x8]
00002CEE  8B5DFC            mov ebx,[ebp-0x4]
00002CF1  C9                leave
00002CF2  C20400            ret 0x4
00002CF5  90                nop
00002CF6  55                push ebp
00002CF7  89E5              mov ebp,esp
00002CF9  8B450C            mov eax,[ebp+0xc]
00002CFC  5D                pop ebp
00002CFD  C3                ret
00002CFE  55                push ebp
00002CFF  89E5              mov ebp,esp
00002D01  56                push esi
00002D02  53                push ebx
00002D03  83EC20            sub esp,byte +0x20
00002D06  B300              mov bl,0x0
00002D08  837D1000          cmp dword [ebp+0x10],byte +0x0
00002D0C  7548              jnz 0x2d56
00002D0E  8B450C            mov eax,[ebp+0xc]
00002D11  890424            mov [esp],eax
00002D14  E825FCFFFF        call 0x10000293e
00002D19  3B4514            cmp eax,[ebp+0x14]
00002D1C  7438              jz 0x2d56
00002D1E  8B4514            mov eax,[ebp+0x14]
00002D21  890424            mov [esp],eax
00002D24  E824020000        call 0x2f4d
00002D29  89C6              mov esi,eax
00002D2B  B301              mov bl,0x1
00002D2D  8B4518            mov eax,[ebp+0x18]
00002D30  89442404          mov [esp+0x4],eax
00002D34  8D45EF            lea eax,[ebp-0x11]
00002D37  890424            mov [esp],eax
00002D3A  E8B7FFFFFF        call 0x100002cf6
00002D3F  8B550C            mov edx,[ebp+0xc]
00002D42  89742408          mov [esp+0x8],esi
00002D46  89442404          mov [esp+0x4],eax
00002D4A  891424            mov [esp],edx
00002D4D  E8E0F2FFFF        call 0x100002032
00002D52  84C0              test al,al
00002D54  7404              jz 0x2d5a
00002D56  B001              mov al,0x1
00002D58  EB02              jmp short 0x2d5c
00002D5A  B000              mov al,0x0
00002D5C  8845F7            mov [ebp-0x9],al
00002D5F  84DB              test bl,bl
00002D61  90                nop
00002D62  8B4518            mov eax,[ebp+0x18]
00002D65  89442404          mov [esp+0x4],eax
00002D69  8B450C            mov eax,[ebp+0xc]
00002D6C  890424            mov [esp],eax
00002D6F  E894030000        call 0x3108
00002D74  8945F0            mov [ebp-0x10],eax
00002D77  8B450C            mov eax,[ebp+0xc]
00002D7A  8D5004            lea edx,[eax+0x4]
00002D7D  8A45F7            mov al,[ebp-0x9]
00002D80  25FF000000        and eax,0xff
00002D85  8954240C          mov [esp+0xc],edx
00002D89  8B5514            mov edx,[ebp+0x14]
00002D8C  89542408          mov [esp+0x8],edx
00002D90  8B55F0            mov edx,[ebp-0x10]
00002D93  89542404          mov [esp+0x4],edx
00002D97  890424            mov [esp],eax
00002D9A  E821E0FFFF        call 0x100000dc0
00002D9F  8B450C            mov eax,[ebp+0xc]
00002DA2  8B4014            mov eax,[eax+0x14]
00002DA5  8D5001            lea edx,[eax+0x1]
00002DA8  8B450C            mov eax,[ebp+0xc]
00002DAB  895014            mov [eax+0x14],edx
00002DAE  8B45F0            mov eax,[ebp-0x10]
00002DB1  89442404          mov [esp+0x4],eax
00002DB5  8B4508            mov eax,[ebp+0x8]
00002DB8  890424            mov [esp],eax
00002DBB  E88AF8FFFF        call 0x10000264a
00002DC0  EB0B              jmp short 0x2dcd
00002DC2  84DB              test bl,bl
00002DC4  90                nop
00002DC5  890424            mov [esp],eax
00002DC8  E8C3E0FFFF        call 0x100000e90
00002DCD  8B4508            mov eax,[ebp+0x8]
00002DD0  83C420            add esp,byte +0x20
00002DD3  5B                pop ebx
00002DD4  5E                pop esi
00002DD5  5D                pop ebp
00002DD6  C20400            ret 0x4
00002DD9  90                nop
00002DDA  55                push ebp
00002DDB  89E5              mov ebp,esp
00002DDD  5D                pop ebp
00002DDE  C3                ret
00002DDF  90                nop
00002DE0  55                push ebp
00002DE1  89E5              mov ebp,esp
00002DE3  8B4508            mov eax,[ebp+0x8]
00002DE6  5D                pop ebp
00002DE7  C3                ret
00002DE8  55                push ebp
00002DE9  89E5              mov ebp,esp
00002DEB  83EC18            sub esp,byte +0x18
00002DEE  8B4508            mov eax,[ebp+0x8]
00002DF1  890424            mov [esp],eax
00002DF4  E873030000        call 0x316c
00002DF9  C9                leave
00002DFA  C3                ret
00002DFB  90                nop
00002DFC  55                push ebp
00002DFD  89E5              mov ebp,esp
00002DFF  5D                pop ebp
00002E00  C3                ret
00002E01  90                nop
00002E02  55                push ebp
00002E03  89E5              mov ebp,esp
00002E05  83EC18            sub esp,byte +0x18
00002E08  8B450C            mov eax,[ebp+0xc]
00002E0B  890424            mov [esp],eax
00002E0E  E87DDEFFFF        call 0x100000c90
00002E13  C9                leave
00002E14  C3                ret
00002E15  55                push ebp
00002E16  89E5              mov ebp,esp
00002E18  8B4508            mov eax,[ebp+0x8]
00002E1B  83C010            add eax,byte +0x10
00002E1E  5D                pop ebp
00002E1F  C3                ret
00002E20  55                push ebp
00002E21  89E5              mov ebp,esp
00002E23  83EC18            sub esp,byte +0x18
00002E26  8B450C            mov eax,[ebp+0xc]
00002E29  89442404          mov [esp+0x4],eax
00002E2D  8B4508            mov eax,[ebp+0x8]
00002E30  890424            mov [esp],eax
00002E33  E8B8DEFFFF        call 0x100000cf0
00002E38  C1E81F            shr eax,0x1f
00002E3B  C9                leave
00002E3C  C3                ret
00002E3D  55                push ebp
00002E3E  89E5              mov ebp,esp
00002E40  8B4508            mov eax,[ebp+0x8]
00002E43  83C010            add eax,byte +0x10
00002E46  5D                pop ebp
00002E47  C3                ret
00002E48  55                push ebp
00002E49  89E5              mov ebp,esp
00002E4B  83EC18            sub esp,byte +0x18
00002E4E  8B4508            mov eax,[ebp+0x8]
00002E51  C744240800000000  mov dword [esp+0x8],0x0
00002E59  C744240401000000  mov dword [esp+0x4],0x1
00002E61  890424            mov [esp],eax
00002E64  E809030000        call 0x3172
00002E69  C9                leave
00002E6A  C3                ret
00002E6B  90                nop
00002E6C  55                push ebp
00002E6D  89E5              mov ebp,esp
00002E6F  57                push edi
00002E70  56                push esi
00002E71  53                push ebx
00002E72  83EC1C            sub esp,byte +0x1c
00002E75  8B750C            mov esi,[ebp+0xc]
00002E78  89742404          mov [esp+0x4],esi
00002E7C  C7042404000000    mov dword [esp],0x4
00002E83  E8C9EAFFFF        call 0x100001951
00002E88  89C3              mov ebx,eax
00002E8A  85DB              test ebx,ebx
00002E8C  7411              jz 0x2e9f
00002E8E  8B4510            mov eax,[ebp+0x10]
00002E91  89442404          mov [esp+0x4],eax
00002E95  891C24            mov [esp],ebx
00002E98  E863DEFFFF        call 0x100000d00
00002E9D  EB1A              jmp short 0x2eb9
00002E9F  EB18              jmp short 0x2eb9
00002EA1  89C7              mov edi,eax
00002EA3  89742404          mov [esp+0x4],esi
00002EA7  891C24            mov [esp],ebx
00002EAA  E8AAEAFFFF        call 0x100001959
00002EAF  89F8              mov eax,edi
00002EB1  890424            mov [esp],eax
00002EB4  E8D7DFFFFF        call 0x100000e90
00002EB9  83C41C            add esp,byte +0x1c
00002EBC  5B                pop ebx
00002EBD  5E                pop esi
00002EBE  5F                pop edi
00002EBF  5D                pop ebp
00002EC0  C3                ret
00002EC1  90                nop
00002EC2  55                push ebp
00002EC3  89E5              mov ebp,esp
00002EC5  5D                pop ebp
00002EC6  C3                ret
00002EC7  90                nop
00002EC8  55                push ebp
00002EC9  89E5              mov ebp,esp
00002ECB  8B4508            mov eax,[ebp+0x8]
00002ECE  5D                pop ebp
00002ECF  C3                ret
00002ED0  55                push ebp
00002ED1  89E5              mov ebp,esp
00002ED3  83EC18            sub esp,byte +0x18
00002ED6  8B4508            mov eax,[ebp+0x8]
00002ED9  890424            mov [esp],eax
00002EDC  E8C9020000        call 0x31aa
00002EE1  C9                leave
00002EE2  C3                ret
00002EE3  90                nop
00002EE4  55                push ebp
00002EE5  89E5              mov ebp,esp
00002EE7  5D                pop ebp
00002EE8  C3                ret
00002EE9  90                nop
00002EEA  55                push ebp
00002EEB  89E5              mov ebp,esp
00002EED  83EC18            sub esp,byte +0x18
00002EF0  8B450C            mov eax,[ebp+0xc]
00002EF3  890424            mov [esp],eax
00002EF6  E895DDFFFF        call 0x100000c90
00002EFB  C9                leave
00002EFC  C3                ret
00002EFD  55                push ebp
00002EFE  89E5              mov ebp,esp
00002F00  83EC28            sub esp,byte +0x28
00002F03  8B4508            mov eax,[ebp+0x8]
00002F06  890424            mov [esp],eax
00002F09  E8A1020000        call 0x31af
00002F0E  89442404          mov [esp+0x4],eax
00002F12  8D45F7            lea eax,[ebp-0x9]
00002F15  890424            mov [esp],eax
00002F18  E8D9FDFFFF        call 0x100002cf6
00002F1D  C9                leave
00002F1E  C3                ret
00002F1F  90                nop
00002F20  55                push ebp
00002F21  89E5              mov ebp,esp
00002F23  83EC18            sub esp,byte +0x18
00002F26  8B450C            mov eax,[ebp+0xc]
00002F29  8B00              mov eax,[eax]
00002F2B  89442404          mov [esp+0x4],eax
00002F2F  8B4508            mov eax,[ebp+0x8]
00002F32  890424            mov [esp],eax
00002F35  E810F7FFFF        call 0x10000264a
00002F3A  8B4508            mov eax,[ebp+0x8]
00002F3D  C9                leave
00002F3E  C20400            ret 0x4
00002F41  90                nop
00002F42  55                push ebp
00002F43  89E5              mov ebp,esp
00002F45  8B4508            mov eax,[ebp+0x8]
00002F48  83C010            add eax,byte +0x10
00002F4B  5D                pop ebp
00002F4C  C3                ret
00002F4D  55                push ebp
00002F4E  89E5              mov ebp,esp
00002F50  83EC28            sub esp,byte +0x28
00002F53  8B4508            mov eax,[ebp+0x8]
00002F56  890424            mov [esp],eax
00002F59  E85C020000        call 0x31ba
00002F5E  89442404          mov [esp+0x4],eax
00002F62  8D45F7            lea eax,[ebp-0x9]
00002F65  890424            mov [esp],eax
00002F68  E889FDFFFF        call 0x100002cf6
00002F6D  C9                leave
00002F6E  C3                ret
00002F6F  90                nop
00002F70  55                push ebp
00002F71  89E5              mov ebp,esp
00002F73  8B4508            mov eax,[ebp+0x8]
00002F76  8B4014            mov eax,[eax+0x14]
00002F79  5D                pop ebp
00002F7A  C3                ret
00002F7B  90                nop
00002F7C  55                push ebp
00002F7D  89E5              mov ebp,esp
00002F7F  83EC48            sub esp,byte +0x48
00002F82  8B450C            mov eax,[ebp+0xc]
00002F85  890424            mov [esp],eax
00002F88  E8FBEFFFFF        call 0x100001f88
00002F8D  8945F4            mov [ebp-0xc],eax
00002F90  8B450C            mov eax,[ebp+0xc]
00002F93  890424            mov [esp],eax
00002F96  E8A3F9FFFF        call 0x10000293e
00002F9B  8945F0            mov [ebp-0x10],eax
00002F9E  C645EF01          mov byte [ebp-0x11],0x1
00002FA2  EB4B              jmp short 0x2fef
00002FA4  8B45F4            mov eax,[ebp-0xc]
00002FA7  8945F0            mov [ebp-0x10],eax
00002FAA  8B45F4            mov eax,[ebp-0xc]
00002FAD  890424            mov [esp],eax
00002FB0  E848FFFFFF        call 0x100002efd
00002FB5  8B550C            mov edx,[ebp+0xc]
00002FB8  89442408          mov [esp+0x8],eax
00002FBC  8B4510            mov eax,[ebp+0x10]
00002FBF  89442404          mov [esp+0x4],eax
00002FC3  891424            mov [esp],edx
00002FC6  E867F0FFFF        call 0x100002032
00002FCB  8845EF            mov [ebp-0x11],al
00002FCE  807DEF00          cmp byte [ebp-0x11],0x0
00002FD2  740D              jz 0x2fe1
00002FD4  8B45F4            mov eax,[ebp-0xc]
00002FD7  890424            mov [esp],eax
00002FDA  E8F5F4FFFF        call 0x1000024d4
00002FDF  EB0B              jmp short 0x2fec
00002FE1  8B45F4            mov eax,[ebp-0xc]
00002FE4  890424            mov [esp],eax
00002FE7  E8DDF4FFFF        call 0x1000024c9
00002FEC  8945F4            mov [ebp-0xc],eax
00002FEF  837DF400          cmp dword [ebp-0xc],byte +0x0
00002FF3  75AF              jnz 0x2fa4
00002FF5  8B45F0            mov eax,[ebp-0x10]
00002FF8  89442404          mov [esp+0x4],eax
00002FFC  8D45D0            lea eax,[ebp-0x30]
00002FFF  890424            mov [esp],eax
00003002  E843F6FFFF        call 0x10000264a
00003007  807DEF00          cmp byte [ebp-0x11],0x0
0000300B  745D              jz 0x306a
0000300D  8D45D4            lea eax,[ebp-0x2c]
00003010  8B550C            mov edx,[ebp+0xc]
00003013  89542404          mov [esp+0x4],edx
00003017  890424            mov [esp],eax
0000301A  E8A1F0FFFF        call 0x1000020c0
0000301F  83EC04            sub esp,byte +0x4
00003022  8D45D4            lea eax,[ebp-0x2c]
00003025  89442404          mov [esp+0x4],eax
00003029  8D45D0            lea eax,[ebp-0x30]
0000302C  890424            mov [esp],eax
0000302F  E812F0FFFF        call 0x100002046
00003034  84C0              test al,al
00003036  7427              jz 0x305f
00003038  8B45F0            mov eax,[ebp-0x10]
0000303B  8945D8            mov [ebp-0x28],eax
0000303E  8B45F4            mov eax,[ebp-0xc]
00003041  8945DC            mov [ebp-0x24],eax
00003044  8D45D8            lea eax,[ebp-0x28]
00003047  89442408          mov [esp+0x8],eax
0000304B  8D45DC            lea eax,[ebp-0x24]
0000304E  89442404          mov [esp+0x4],eax
00003052  8B4508            mov eax,[ebp+0x8]
00003055  890424            mov [esp],eax
00003058  E839F7FFFF        call 0x100002796
0000305D  EB77              jmp short 0x30d6
0000305F  8D45D0            lea eax,[ebp-0x30]
00003062  890424            mov [esp],eax
00003065  E880000000        call 0x30ea
0000306A  8B45D0            mov eax,[ebp-0x30]
0000306D  890424            mov [esp],eax
00003070  E8D8FEFFFF        call 0x100002f4d
00003075  8B550C            mov edx,[ebp+0xc]
00003078  8B4D10            mov ecx,[ebp+0x10]
0000307B  894C2408          mov [esp+0x8],ecx
0000307F  89442404          mov [esp+0x4],eax
00003083  891424            mov [esp],edx
00003086  E8A7EFFFFF        call 0x100002032
0000308B  84C0              test al,al
0000308D  7427              jz 0x30b6
0000308F  8B45F0            mov eax,[ebp-0x10]
00003092  8945E0            mov [ebp-0x20],eax
00003095  8B45F4            mov eax,[ebp-0xc]
00003098  8945E4            mov [ebp-0x1c],eax
0000309B  8D45E0            lea eax,[ebp-0x20]
0000309E  89442408          mov [esp+0x8],eax
000030A2  8D45E4            lea eax,[ebp-0x1c]
000030A5  89442404          mov [esp+0x4],eax
000030A9  8B4508            mov eax,[ebp+0x8]
000030AC  890424            mov [esp],eax
000030AF  E8E2F6FFFF        call 0x100002796
000030B4  EB20              jmp short 0x30d6
000030B6  C745E800000000    mov dword [ebp-0x18],0x0
000030BD  8D45E8            lea eax,[ebp-0x18]
000030C0  89442408          mov [esp+0x8],eax
000030C4  8D45D0            lea eax,[ebp-0x30]
000030C7  89442404          mov [esp+0x4],eax
000030CB  8B4508            mov eax,[ebp+0x8]
000030CE  890424            mov [esp],eax
000030D1  E8C0F6FFFF        call 0x100002796
000030D6  8B4508            mov eax,[ebp+0x8]
000030D9  C9                leave
000030DA  C20400            ret 0x4
000030DD  90                nop
000030DE  55                push ebp
000030DF  89E5              mov ebp,esp
000030E1  8B4508            mov eax,[ebp+0x8]
000030E4  83C00C            add eax,byte +0xc
000030E7  5D                pop ebp
000030E8  C3                ret
000030E9  90                nop
000030EA  55                push ebp
000030EB  89E5              mov ebp,esp
000030ED  83EC18            sub esp,byte +0x18
000030F0  8B4508            mov eax,[ebp+0x8]
000030F3  8B00              mov eax,[eax]
000030F5  890424            mov [esp],eax
000030F8  E8D3DBFFFF        call 0x100000cd0
000030FD  8B5508            mov edx,[ebp+0x8]
00003100  8902              mov [edx],eax
00003102  8B4508            mov eax,[ebp+0x8]
00003105  C9                leave
00003106  C3                ret
00003107  90                nop
00003108  55                push ebp
00003109  89E5              mov ebp,esp
0000310B  53                push ebx
0000310C  83EC24            sub esp,byte +0x24
0000310F  8B4508            mov eax,[ebp+0x8]
00003112  890424            mov [esp],eax
00003115  E8AC000000        call 0x31c6
0000311A  8945F4            mov [ebp-0xc],eax
0000311D  8B45F4            mov eax,[ebp-0xc]
00003120  83C010            add eax,byte +0x10
00003123  890424            mov [esp],eax
00003126  E8D9EFFFFF        call 0x100002104
0000312B  89C3              mov ebx,eax
0000312D  8D45F3            lea eax,[ebp-0xd]
00003130  8B5508            mov edx,[ebp+0x8]
00003133  89542404          mov [esp+0x4],edx
00003137  890424            mov [esp],eax
0000313A  E89BF7FFFF        call 0x1000028da
0000313F  83EC04            sub esp,byte +0x4
00003142  8B450C            mov eax,[ebp+0xc]
00003145  89442408          mov [esp+0x8],eax
00003149  895C2404          mov [esp+0x4],ebx
0000314D  8D45F3            lea eax,[ebp-0xd]
00003150  890424            mov [esp],eax
00003153  E892000000        call 0x31ea
00003158  8D45F3            lea eax,[ebp-0xd]
0000315B  890424            mov [esp],eax
0000315E  E89FF7FFFF        call 0x100002902
00003163  8B45F4            mov eax,[ebp-0xc]
00003166  8B5DFC            mov ebx,[ebp-0x4]
00003169  C9                leave
0000316A  C3                ret
0000316B  90                nop
0000316C  55                push ebp
0000316D  89E5              mov ebp,esp
0000316F  5D                pop ebp
00003170  C3                ret
00003171  90                nop
00003172  55                push ebp
00003173  89E5              mov ebp,esp
00003175  83EC18            sub esp,byte +0x18
00003178  8B4508            mov eax,[ebp+0x8]
0000317B  890424            mov [esp],eax
0000317E  E895000000        call 0x3218
00003183  3B450C            cmp eax,[ebp+0xc]
00003186  0F92C0            setc al
00003189  84C0              test al,al
0000318B  7405              jz 0x3192
0000318D  E8AEDCFFFF        call 0x100000e40
00003192  8B550C            mov edx,[ebp+0xc]
00003195  89D0              mov eax,edx
00003197  C1E002            shl eax,0x2
0000319A  01D0              add eax,edx
0000319C  C1E002            shl eax,0x2
0000319F  890424            mov [esp],eax
000031A2  E8F9DBFFFF        call 0x100000da0
000031A7  C9                leave
000031A8  C3                ret
000031A9  90                nop
000031AA  55                push ebp
000031AB  89E5              mov ebp,esp
000031AD  5D                pop ebp
000031AE  C3                ret
000031AF  55                push ebp
000031B0  89E5              mov ebp,esp
000031B2  8B4508            mov eax,[ebp+0x8]
000031B5  83C010            add eax,byte +0x10
000031B8  5D                pop ebp
000031B9  C3                ret
000031BA  55                push ebp
000031BB  89E5              mov ebp,esp
000031BD  8B4508            mov eax,[ebp+0x8]
000031C0  83C010            add eax,byte +0x10
000031C3  5D                pop ebp
000031C4  C3                ret
000031C5  90                nop
000031C6  55                push ebp
000031C7  89E5              mov ebp,esp
000031C9  83EC18            sub esp,byte +0x18
000031CC  8B4508            mov eax,[ebp+0x8]
000031CF  C744240800000000  mov dword [esp+0x8],0x0
000031D7  C744240401000000  mov dword [esp+0x4],0x1
000031DF  890424            mov [esp],eax
000031E2  E83B000000        call 0x3222
000031E7  C9                leave
000031E8  C3                ret
000031E9  90                nop
000031EA  55                push ebp
000031EB  89E5              mov ebp,esp
000031ED  83EC18            sub esp,byte +0x18
000031F0  8B450C            mov eax,[ebp+0xc]
000031F3  89442404          mov [esp+0x4],eax
000031F7  C7042408000000    mov dword [esp],0x8
000031FE  E84EE7FFFF        call 0x100001951
00003203  89C1              mov ecx,eax
00003205  85C9              test ecx,ecx
00003207  740D              jz 0x3216
00003209  8B4510            mov eax,[ebp+0x10]
0000320C  8B5004            mov edx,[eax+0x4]
0000320F  8B00              mov eax,[eax]
00003211  8901              mov [ecx],eax
00003213  895104            mov [ecx+0x4],edx
00003216  C9                leave
00003217  C3                ret
00003218  55                push ebp
00003219  89E5              mov ebp,esp
0000321B  B8CCCCCC0C        mov eax,0xccccccc
00003220  5D                pop ebp
00003221  C3                ret
00003222  55                push ebp
00003223  89E5              mov ebp,esp
00003225  83EC18            sub esp,byte +0x18
00003228  8B4508            mov eax,[ebp+0x8]
0000322B  890424            mov [esp],eax
0000322E  E825000000        call 0x3258
00003233  3B450C            cmp eax,[ebp+0xc]
00003236  0F92C0            setc al
00003239  84C0              test al,al
0000323B  7405              jz 0x3242
0000323D  E8FEDBFFFF        call 0x100000e40
00003242  8B550C            mov edx,[ebp+0xc]
00003245  89D0              mov eax,edx
00003247  01C0              add eax,eax
00003249  01D0              add eax,edx
0000324B  C1E003            shl eax,0x3
0000324E  890424            mov [esp],eax
00003251  E84ADBFFFF        call 0x100000da0
00003256  C9                leave
00003257  C3                ret
00003258  55                push ebp
00003259  89E5              mov ebp,esp
0000325B  B8AAAAAA0A        mov eax,0xaaaaaaa
00003260  5D                pop ebp
00003261  C3                ret
00003262  6690              o16 nop
00003264  6690              o16 nop
00003266  6690              o16 nop
00003268  6690              o16 nop
0000326A  6690              o16 nop
0000326C  6690              o16 nop
0000326E  6690              o16 nop
00003270  55                push ebp
00003271  89E5              mov ebp,esp
00003273  5D                pop ebp
00003274  C3                ret
00003275  66                db 0x66
00003276  66                db 0x66
00003277  2E                db 0x2E
00003278  0F                db 0x0F
00003279  1F                pop ds
0000327A  8400              test [eax],al
0000327C  0000              add [eax],al
0000327E  0000              add [eax],al
00003280  55                push ebp
00003281  89E5              mov ebp,esp
00003283  57                push edi
00003284  56                push esi
00003285  53                push ebx
00003286  E84F000000        call 0x32da
0000328B  81C3312A0000      add ebx,0x2a31
00003291  83EC1C            sub esp,byte +0x1c
00003294  E86BD9FFFF        call 0x100000c04
00003299  8DBB08FFFFFF      lea edi,[ebx+0xffffff08]
0000329F  8D8308FFFFFF      lea eax,[ebx+0xffffff08]
000032A5  29C7              sub edi,eax
000032A7  C1FF02            sar edi,0x2
000032AA  85FF              test edi,edi
000032AC  7424              jz 0x32d2
000032AE  31F6              xor esi,esi
000032B0  8B4510            mov eax,[ebp+0x10]
000032B3  89442408          mov [esp+0x8],eax
000032B7  8B450C            mov eax,[ebp+0xc]
000032BA  89442404          mov [esp+0x4],eax
000032BE  8B4508            mov eax,[ebp+0x8]
000032C1  890424            mov [esp],eax
000032C4  FF94B308FFFFFF    call near [ebx+esi*4+0xffffff08]
000032CB  83C601            add esi,byte +0x1
000032CE  39FE              cmp esi,edi
000032D0  72DE              jc 0x32b0
000032D2  83C41C            add esp,byte +0x1c
000032D5  5B                pop ebx
000032D6  5E                pop esi
000032D7  5F                pop edi
000032D8  5D                pop ebp
000032D9  C3                ret
000032DA  8B1C24            mov ebx,[esp]
000032DD  C3                ret
000032DE  6690              o16 nop
000032E0  55                push ebp
000032E1  89E5              mov ebp,esp
000032E3  53                push ebx
000032E4  52                push edx
000032E5  BBC4DB0408        mov ebx,0x804dbc4
000032EA  A1C4DB0408        mov eax,[0x804dbc4]
000032EF  83F8FF            cmp eax,byte -0x1
000032F2  7410              jz 0x3304
000032F4  8D742600          lea esi,[esi+0x0]
000032F8  83EB04            sub ebx,byte +0x4
000032FB  FFD0              call eax
000032FD  8B03              mov eax,[ebx]
000032FF  83F8FF            cmp eax,byte -0x1
00003302  75F4              jnz 0x32f8
00003304  58                pop eax
00003305  5B                pop ebx
00003306  5D                pop ebp
00003307  C3                ret
00003308  55                push ebp
00003309  89E5              mov ebp,esp
0000330B  53                push ebx
0000330C  83EC04            sub esp,byte +0x4
0000330F  E800000000        call 0x3314
00003314  5B                pop ebx
00003315  81C3A8290000      add ebx,0x29a8
0000331B  E820DCFFFF        call 0x100000f40
00003320  59                pop ecx
00003321  5B                pop ebx
00003322  C9                leave
00003323  C3                ret
00003324  0300              add eax,[eax]
00003326  0000              add [eax],al
00003328  0100              add [eax],eax
0000332A  0200              add al,[eax]
0000332C  ED                in eax,dx
0000332D  8F0408            pop dword [eax+ecx]
00003330  F9                stc
00003331  8F0408            pop dword [eax+ecx]
00003334  019004080190      add [eax+0x90010804],edx
0000333A  0408              add al,0x8
0000333C  E98F040801        jmp 0x10837d0
00003341  90                nop
00003342  0408              add al,0x8
00003344  FD                std
00003345  8F0408            pop dword [eax+ecx]
00003348  01900408E58F      add [eax+0x8fe50804],edx
0000334E  0408              add al,0x8
00003350  019004080190      add [eax+0x90010804],edx
00003356  0408              add al,0x8
00003358  019004080190      add [eax+0x90010804],edx
0000335E  0408              add al,0x8
00003360  01900408E18F      add [eax+0x8fe10804],edx
00003366  0408              add al,0x8
00003368  019004080190      add [eax+0x90010804],edx
0000336E  0408              add al,0x8
00003370  01900408F18F      add [eax+0x8ff10804],edx
00003376  0408              add al,0x8
00003378  F5                cmc
00003379  8F0408            pop dword [eax+ecx]
0000337C  642E696E00642E6F  imul ebp,[cs:esi+0x0],dword 0x756f2e64
         -75
00003385  7400              jz 0x3387
00003387  43                inc ebx
00003388  61                popa
00003389  7365              jnc 0x33f0
0000338B  2023              and [ebx],ah
0000338D  003A              add [edx],bh
0000338F  2000              and [eax],al
00003391  0000              add [eax],al
00003393  0000              add [eax],al
00003395  0000              add [eax],al
00003397  0001              add [ecx],al
00003399  1B03              sbb eax,[ebx]
0000339B  3B4004            cmp eax,[eax+0x4]
0000339E  0000              add [eax],al
000033A0  8700              xchg eax,[eax]
000033A2  0000              add [eax],al
000033A4  A8D8              test al,0xd8
000033A6  FF                db 0xFF
000033A7  FF5C0400          call far [esp+eax+0x0]
000033AB  0028              add [eax],ch
000033AD  DCFF              fdiv to st7
000033AF  FFE0              jmp eax
000033B1  0400              add al,0x0
000033B3  006EDC            add [esi-0x24],ch
000033B6  FF                db 0xFF
000033B7  FF6005            jmp near [eax+0x5]
000033BA  0000              add [eax],al
000033BC  B9E5FFFF80        mov ecx,0x80ffffe5
000033C1  0400              add al,0x0
000033C3  00C1              add cl,al
000033C5  E5FF              in eax,0xff
000033C7  FFA0040000C6      jmp near [eax+0xc6000004]
000033CD  E5FF              in eax,0xff
000033CF  FFC0              inc eax
000033D1  0400              add al,0x0
000033D3  00D4              add ah,dl
000033D5  E5FF              in eax,0xff
000033D7  FF00              inc dword [eax]
000033D9  050000E8E5        add eax,0xe5e80000
000033DE  FF                db 0xFF
000033DF  FF20              jmp near [eax]
000033E1  050000FCE5        add eax,0xe5fc0000
000033E6  FF                db 0xFF
000033E7  FFA005000010      jmp near [eax+0x10000005]
000033ED  E6FF              out 0xff,al
000033EF  FFC0              inc eax
000033F1  05000024E6        add eax,0xe6240000
000033F6  FF                db 0xFF
000033F7  FFE0              jmp eax
000033F9  05000070E6        add eax,0xe6700000
000033FE  FF                db 0xFF
000033FF  FF08              dec dword [eax]
00003401  06                push es
00003402  0000              add [eax],al
00003404  D1E6              shl esi,1
00003406  FF                db 0xFF
00003407  FF2C06            jmp far [esi+eax]
0000340A  0000              add [eax],al
0000340C  30E7              xor bh,ah
0000340E  FF                db 0xFF
0000340F  FF540600          call near [esi+eax+0x0]
00003413  0044E7FF          add [edi-0x1],al
00003417  FF740600          push dword [esi+eax+0x0]
0000341B  0058E7            add [eax-0x19],bl
0000341E  FF                db 0xFF
0000341F  FF94060000A4E7    call near [esi+eax+0xe7a40000]
00003426  FF                db 0xFF
00003427  FF                db 0xFF
00003428  BC060000C6        mov esp,0xc6000006
0000342D  E7FF              out 0xff,eax
0000342F  FF                db 0xFF
00003430  DC06              fadd qword [esi]
00003432  0000              add [eax],al
00003434  E8E7FFFFFC        call 0xfd003420
00003439  06                push es
0000343A  0000              add [eax],al
0000343C  FC                cld
0000343D  E7FF              out 0xff,eax
0000343F  FF1C07            call far [edi+eax]
00003442  0000              add [eax],al
00003444  1AE8              sbb ch,al
00003446  FF                db 0xFF
00003447  FF                db 0xFF
00003448  3C07              cmp al,0x7
0000344A  0000              add [eax],al
0000344C  28E8              sub al,ch
0000344E  FF                db 0xFF
0000344F  FF5C0700          call far [edi+eax+0x0]
00003453  0046E9            add [esi-0x17],al
00003456  FF                db 0xFF
00003457  FF9007000068      call near [eax+0x68000007]
0000345D  E9FFFFB007        jmp 0x7b13461
00003462  0000              add [eax],al
00003464  8AE9              mov ch,cl
00003466  FF                db 0xFF
00003467  FFD0              call eax
00003469  07                pop es
0000346A  0000              add [eax],al
0000346C  9E                sahf
0000346D  E9FFFFF007        jmp 0x7f13471
00003472  0000              add [eax],al
00003474  BCE9FFFF10        mov esp,0x10ffffe9
00003479  0800              or [eax],al
0000347B  00D4              add ah,dl
0000347D  E9FFFF3008        jmp 0x8313481
00003482  0000              add [eax],al
00003484  E7E9              out 0xe9,eax
00003486  FF                db 0xFF
00003487  FF5008            call near [eax+0x8]
0000348A  0000              add [eax],al
0000348C  02EA              add ch,dl
0000348E  FF                db 0xFF
0000348F  FF7008            push dword [eax+0x8]
00003492  0000              add [eax],al
00003494  16                push ss
00003495  EAFFFF90080000    jmp 0x0:0x890ffff
0000349C  2AEA              sub ch,dl
0000349E  FF                db 0xFF
0000349F  FFB00800007A      push dword [eax+0x7a000008]
000034A5  EAFFFFD0080000    jmp 0x0:0x8d0ffff
000034AC  86EA              xchg ch,dl
000034AE  FF                db 0xFF
000034AF  FFF0              push eax
000034B1  0800              or [eax],al
000034B3  004EEB            add [esi-0x15],cl
000034B6  FF                db 0xFF
000034B7  FF18              call far [eax]
000034B9  0900              or [eax],eax
000034BB  005EEB            add [esi-0x15],bl
000034BE  FF                db 0xFF
000034BF  FF                db 0xFF
000034C0  3809              cmp [ecx],cl
000034C2  0000              add [eax],al
000034C4  78EB              js 0x34b1
000034C6  FF                db 0xFF
000034C7  FF5809            call far [eax+0x9]
000034CA  0000              add [eax],al
000034CC  8CEB              mov ebx,gs
000034CE  FF                db 0xFF
000034CF  FF                db 0xFF
000034D0  7809              js 0x34db
000034D2  0000              add [eax],al
000034D4  A0EBFFFF98        mov al,[0x98ffffeb]
000034D9  0900              or [eax],eax
000034DB  00F0              add al,dh
000034DD  EBFF              jmp short 0x34de
000034DF  FF                db 0xFF
000034E0  B8090000FC        mov eax,0xfc000009
000034E5  EBFF              jmp short 0x34e6
000034E7  FF                db 0xFF
000034E8  D809              fmul dword [ecx]
000034EA  0000              add [eax],al
000034EC  1E                push ds
000034ED  EC                in al,dx
000034EE  FF                db 0xFF
000034EF  FF                db 0xFF
000034F0  F8                clc
000034F1  0900              or [eax],eax
000034F3  0040EC            add [eax-0x14],al
000034F6  FF                db 0xFF
000034F7  FF18              call far [eax]
000034F9  0A00              or al,[eax]
000034FB  006AEC            add [edx-0x14],ch
000034FE  FF                db 0xFF
000034FF  FF                db 0xFF
00003500  380A              cmp [edx],cl
00003502  0000              add [eax],al
00003504  8CEC              mov esp,gs
00003506  FF                db 0xFF
00003507  FF580A            call far [eax+0xa]
0000350A  0000              add [eax],al
0000350C  9AECFFFF780A00    call 0xa:0x78ffffec
00003513  00AEECFFFF98      add [esi+0x98ffffec],ch
00003519  0A00              or al,[eax]
0000351B  00C2              add dl,al
0000351D  EC                in al,dx
0000351E  FF                db 0xFF
0000351F  FF                db 0xFF
00003520  B80A0000DC        mov eax,0xdc00000a
00003525  EC                in al,dx
00003526  FF                db 0xFF
00003527  FF                db 0xFF
00003528  D80A              fmul dword [edx]
0000352A  0000              add [eax],al
0000352C  28ED              sub ch,ch
0000352E  FF                db 0xFF
0000352F  FF                db 0xFF
00003530  FC                cld
00003531  0A00              or al,[eax]
00003533  004AED            add [edx-0x13],cl
00003536  FF                db 0xFF
00003537  FF1C0B            call far [ebx+ecx]
0000353A  0000              add [eax],al
0000353C  6C                insb
0000353D  ED                in eax,dx
0000353E  FF                db 0xFF
0000353F  FF                db 0xFF
00003540  3C0B              cmp al,0xb
00003542  0000              add [eax],al
00003544  74ED              jz 0x3533
00003546  FF                db 0xFF
00003547  FF5C0B00          call far [ebx+ecx+0x0]
0000354B  0080EDFFFF7C      add [eax+0x7cffffed],al
00003551  0B00              or eax,[eax]
00003553  00D0              add al,dl
00003555  ED                in eax,dx
00003556  FF                db 0xFF
00003557  FF9C0B0000D5ED    call far [ebx+ecx+0xedd50000]
0000355E  FF                db 0xFF
0000355F  FF                db 0xFF
00003560  BC0B0000E0        mov esp,0xe000000b
00003565  ED                in eax,dx
00003566  FF                db 0xFF
00003567  FF                db 0xFF
00003568  DC0B              fmul qword [ebx]
0000356A  0000              add [eax],al
0000356C  EC                in al,dx
0000356D  ED                in eax,dx
0000356E  FF                db 0xFF
0000356F  FF                db 0xFF
00003570  FC                cld
00003571  0B00              or eax,[eax]
00003573  0062EE            add [edx-0x12],ah
00003576  FF                db 0xFF
00003577  FF240C            jmp near [esp+ecx]
0000357A  0000              add [eax],al
0000357C  D0EF              shr bh,1
0000357E  FF                db 0xFF
0000357F  FF480C            dec dword [eax+0xc]
00003582  0000              add [eax],al
00003584  D8EF              fsubr st7
00003586  FF                db 0xFF
00003587  FF680C            jmp far [eax+0xc]
0000358A  0000              add [eax],al
0000358C  B4F0              mov ah,0xf0
0000358E  FF                db 0xFF
0000358F  FF940C0000CEF0    call near [esp+ecx+0xf0ce0000]
00003596  FF                db 0xFF
00003597  FFB40C0000DCF0    push dword [esp+ecx+0xf0dc0000]
0000359E  FF                db 0xFF
0000359F  FFD4              call esp
000035A1  0C00              or al,0x0
000035A3  002CF1            add [ecx+esi*8],ch
000035A6  FF                db 0xFF
000035A7  FFF4              push esp
000035A9  0C00              or al,0x0
000035AB  0031              add [ecx],dh
000035AD  F1                int1
000035AE  FF                db 0xFF
000035AF  FF140D00003CF1    call near [ecx+0xf13c0000]
000035B6  FF                db 0xFF
000035B7  FF340D000048F1    push dword [ecx+0xf1480000]
000035BE  FF                db 0xFF
000035BF  FF540D00          call near [ebp+ecx+0x0]
000035C3  00A6F1FFFF78      add [esi+0x78fffff1],ah
000035C9  0D0000B4F1        or eax,0xf1b40000
000035CE  FF                db 0xFF
000035CF  FF980D000002      call far [eax+0x200000d]
000035D5  F2                db 0xF2
000035D6  FF                db 0xFF
000035D7  FF                db 0xFF
000035D8  BC0D00000E        mov esp,0xe00000d
000035DD  F2                db 0xF2
000035DE  FF                db 0xFF
000035DF  FF                db 0xFF
000035E0  DC0D00001EF2      fmul qword [0xf21e0000]
000035E6  FF                db 0xFF
000035E7  FF                db 0xFF
000035E8  FC                cld
000035E9  0D0000B2F2        or eax,0xf2b20000
000035EE  FF                db 0xFF
000035EF  FF240E            jmp near [esi+ecx]
000035F2  0000              add [eax],al
000035F4  C0                db 0xC0
000035F5  F2                db 0xF2
000035F6  FF                db 0xFF
000035F7  FF440E00          inc dword [esi+ecx+0x0]
000035FB  00D4              add ah,dl
000035FD  F2                db 0xF2
000035FE  FF                db 0xFF
000035FF  FF640E00          jmp near [esi+ecx+0x0]
00003603  0006              add [esi],al
00003605  F3                db 0xF3
00003606  FF                db 0xFF
00003607  FF840E00002EF3    inc dword [esi+ecx+0xf32e0000]
0000360E  FF                db 0xFF
0000360F  FFA40E000041F3    jmp near [esi+ecx+0xf3410000]
00003616  FF                db 0xFF
00003617  FFC4              inc esp
00003619  0E                push cs
0000361A  0000              add [eax],al
0000361C  4A                dec edx
0000361D  F3                db 0xF3
0000361E  FF                db 0xFF
0000361F  FFE4              jmp esp
00003621  0E                push cs
00003622  0000              add [eax],al
00003624  5E                pop esi
00003625  F3                db 0xF3
00003626  FF                db 0xFF
00003627  FF040F            inc dword [edi+ecx]
0000362A  0000              add [eax],al
0000362C  80F3FF            xor bl,0xff
0000362F  FF240F            jmp near [edi+ecx]
00003632  0000              add [eax],al
00003634  8BF3              mov esi,ebx
00003636  FF                db 0xFF
00003637  FF440F00          inc dword [edi+ecx+0x0]
0000363B  00AEF3FFFF64      add [esi+0x64fffff3],ch
00003641  0F0000            sldt [eax]
00003644  C8F3FFFF          enter 0xfff3,0xff
00003648  840F              test [edi],cl
0000364A  0000              add [eax],al
0000364C  EAF3FFFFA40F00    jmp 0xf:0xa4fffff3
00003653  00FE              add dh,bh
00003655  F3                db 0xF3
00003656  FF                db 0xFF
00003657  FFC4              inc esp
00003659  0F0000            sldt [eax]
0000365C  18F4              sbb ah,dh
0000365E  FF                db 0xFF
0000365F  FFE4              jmp esp
00003661  0F0000            sldt [eax]
00003664  35F4FFFF04        xor eax,0x4fffff4
00003669  1000              adc [eax],al
0000366B  0058F4            add [eax-0xc],bl
0000366E  FF                db 0xFF
0000366F  FF2410            jmp near [eax+edx]
00003672  0000              add [eax],al
00003674  FC                cld
00003675  F4                hlt
00003676  FF                db 0xFF
00003677  FF4C1000          dec dword [eax+edx+0x0]
0000367B  0010              add [eax],dl
0000367D  F5                cmc
0000367E  FF                db 0xFF
0000367F  FF6C1000          jmp far [eax+edx+0x0]
00003683  0042F5            add [edx-0xb],al
00003686  FF                db 0xFF
00003687  FF8C1000006AF5    dec dword [eax+edx+0xf56a0000]
0000368E  FF                db 0xFF
0000368F  FFAC1000007EF5    jmp far [eax+edx+0xf57e0000]
00003696  FF                db 0xFF
00003697  FFCC              dec esp
00003699  1000              adc [eax],al
0000369B  0084F5FFFFEC10    add [ebp+esi*8+0x10ecffff],al
000036A2  0000              add [eax],al
000036A4  A6                cmpsb
000036A5  F5                cmc
000036A6  FF                db 0xFF
000036A7  FF0C11            dec dword [ecx+edx]
000036AA  0000              add [eax],al
000036AC  B2F5              mov dl,0xf5
000036AE  FF                db 0xFF
000036AF  FF2C11            jmp far [ecx+edx]
000036B2  0000              add [eax],al
000036B4  26F6FF            es idiv bh
000036B7  FF4C1100          dec dword [ecx+edx+0x0]
000036BB  005EF9            add [esi-0x7],bl
000036BE  FF                db 0xFF
000036BF  FF741100          push dword [ecx+edx+0x0]
000036C3  0066F9            add [esi-0x7],ah
000036C6  FF                db 0xFF
000036C7  FF9411000042FA    call near [ecx+edx+0xfa420000]
000036CE  FF                db 0xFF
000036CF  FFC0              inc eax
000036D1  1100              adc [eax],eax
000036D3  0048FA            add [eax-0x6],cl
000036D6  FF                db 0xFF
000036D7  FFE0              jmp eax
000036D9  1100              adc [eax],eax
000036DB  0050FA            add [eax-0x6],dl
000036DE  FF                db 0xFF
000036DF  FF00              inc dword [eax]
000036E1  1200              adc al,[eax]
000036E3  0064FAFF          add [edx+edi*8-0x1],ah
000036E7  FF20              jmp near [eax]
000036E9  1200              adc al,[eax]
000036EB  006AFA            add [edx-0x6],ch
000036EE  FF                db 0xFF
000036EF  FF4012            inc dword [eax+0x12]
000036F2  0000              add [eax],al
000036F4  7DFA              jnl 0x36f0
000036F6  FF                db 0xFF
000036F7  FF6012            jmp near [eax+0x12]
000036FA  0000              add [eax],al
000036FC  88FA              mov dl,bh
000036FE  FF                db 0xFF
000036FF  FF80120000A5      inc dword [eax+0xa5000012]
00003705  FA                cli
00003706  FF                db 0xFF
00003707  FFA0120000B0      jmp near [eax+0xb0000012]
0000370D  FA                cli
0000370E  FF                db 0xFF
0000370F  FFC0              inc eax
00003711  1200              adc al,[eax]
00003713  00D4              add ah,dl
00003715  FA                cli
00003716  FF                db 0xFF
00003717  FFE0              jmp eax
00003719  1200              adc al,[eax]
0000371B  002A              add [edx],ch
0000371D  FB                sti
0000371E  FF                db 0xFF
0000371F  FF10              call near [eax]
00003721  1300              adc eax,[eax]
00003723  0030              add [eax],dh
00003725  FB                sti
00003726  FF                db 0xFF
00003727  FF30              push dword [eax]
00003729  1300              adc eax,[eax]
0000372B  0038              add [eax],bh
0000372D  FB                sti
0000372E  FF                db 0xFF
0000372F  FF5013            call near [eax+0x13]
00003732  0000              add [eax],al
00003734  4C                dec esp
00003735  FB                sti
00003736  FF                db 0xFF
00003737  FF7013            push dword [eax+0x13]
0000373A  0000              add [eax],al
0000373C  52                push edx
0000373D  FB                sti
0000373E  FF                db 0xFF
0000373F  FF9013000065      call near [eax+0x65000013]
00003745  FB                sti
00003746  FF                db 0xFF
00003747  FFB013000088      push dword [eax+0x88000013]
0000374D  FB                sti
0000374E  FF                db 0xFF
0000374F  FFD0              call eax
00003751  1300              adc eax,[eax]
00003753  00AAFBFFFFF0      add [edx+0xf0fffffb],ch
00003759  1300              adc eax,[eax]
0000375B  00B5FBFFFF10      add [ebp+0x10fffffb],dh
00003761  1400              adc al,0x0
00003763  00D8              add al,bl
00003765  FB                sti
00003766  FF                db 0xFF
00003767  FF30              push dword [eax]
00003769  1400              adc al,0x0
0000376B  00E4              add ah,ah
0000376D  FB                sti
0000376E  FF                db 0xFF
0000376F  FF5014            call near [eax+0x14]
00003772  0000              add [eax],al
00003774  46                inc esi
00003775  FD                std
00003776  FF                db 0xFF
00003777  FF7014            push dword [eax+0x14]
0000377A  0000              add [eax],al
0000377C  52                push edx
0000377D  FD                std
0000377E  FF                db 0xFF
0000377F  FF9014000070      call near [eax+0x70000014]
00003785  FD                std
00003786  FF                db 0xFF
00003787  FFB0140000D4      push dword [eax+0xd4000014]
0000378D  FD                std
0000378E  FF                db 0xFF
0000378F  FFD4              call esp
00003791  1400              adc al,0x0
00003793  00DA              add dl,bl
00003795  FD                std
00003796  FF                db 0xFF
00003797  FFF4              push esp
00003799  1400              adc al,0x0
0000379B  0012              add [edx],dl
0000379D  FE                db 0xFE
0000379E  FF                db 0xFF
0000379F  FF1415000017FE    call near [edx+0xfe170000]
000037A6  FF                db 0xFF
000037A7  FF3415000022FE    push dword [edx+0xfe220000]
000037AE  FF                db 0xFF
000037AF  FF541500          call near [ebp+edx+0x0]
000037B3  002E              add [esi],ch
000037B5  FE                db 0xFE
000037B6  FF                db 0xFF
000037B7  FF741500          push dword [ebp+edx+0x0]
000037BB  0052FE            add [edx-0x2],dl
000037BE  FF                db 0xFF
000037BF  FF9415000080FE    call near [ebp+edx+0xfe800000]
000037C6  FF                db 0xFF
000037C7  FFB41500008AFE    push dword [ebp+edx+0xfe8a0000]
000037CE  FF                db 0xFF
000037CF  FFD4              call esp
000037D1  150000C0FE        adc eax,0xfec00000
000037D6  FF                db 0xFF
000037D7  FFF4              push esp
000037D9  1500001400        adc eax,0x140000
000037DE  0000              add [eax],al
000037E0  0000              add [eax],al
000037E2  0000              add [eax],al
000037E4  017A52            add [edx+0x52],edi
000037E7  0001              add [ecx],al
000037E9  7C08              jl 0x37f3
000037EB  011B              add [ebx],ebx
000037ED  0C04              or al,0x4
000037EF  0488              add al,0x88
000037F1  0100              add [eax],eax
000037F3  0020              add [eax],ah
000037F5  0000              add [eax],al
000037F7  001C00            add [eax+eax],bl
000037FA  0000              add [eax],al
000037FC  44                inc esp
000037FD  D4FF              aam 0xff
000037FF  FF6002            jmp near [eax+0x2]
00003802  0000              add [eax],al
00003804  000E              add [esi],cl
00003806  08460E            or [esi+0xe],al
00003809  0C4A              or al,0x4a
0000380B  0F0B              ud2
0000380D  7404              jz 0x3813
0000380F  7800              js 0x3811
00003811  3F                aas
00003812  1A3B              sbb bh,[ebx]
00003814  2A32              sub dh,[edx]
00003816  2422              and al,0x22
00003818  1C00              sbb al,0x0
0000381A  0000              add [eax],al
0000381C  40                inc eax
0000381D  0000              add [eax],al
0000381F  0031              add [ecx],dh
00003821  E1FF              loope 0x3822
00003823  FF08              dec dword [eax]
00003825  0000              add [eax],al
00003827  0000              add [eax],al
00003829  41                inc ecx
0000382A  0E                push cs
0000382B  088502420D05      or [ebp+0x50d4202],al
00003831  44                inc esp
00003832  C50C04            lds ecx,[esp+eax]
00003835  0400              add al,0x0
00003837  001C00            add [eax+eax],bl
0000383A  0000              add [eax],al
0000383C  60                pusha
0000383D  0000              add [eax],al
0000383F  0019              add [ecx],bl
00003841  E1FF              loope 0x3842
00003843  FF0500000000      inc dword [0x0]
00003849  41                inc ecx
0000384A  0E                push cs
0000384B  088502420D05      or [ebp+0x50d4202],al
00003851  41                inc ecx
00003852  C50C04            lds ecx,[esp+eax]
00003855  0400              add al,0x0
00003857  001C00            add [eax+eax],bl
0000385A  0000              add [eax],al
0000385C  800000            add byte [eax],0x0
0000385F  00FE              add dh,bh
00003861  E0FF              loopne 0x3862
00003863  FF0D00000000      dec dword [0x0]
00003869  41                inc ecx
0000386A  0E                push cs
0000386B  088502420D05      or [ebp+0x50d4202],al
00003871  49                dec ecx
00003872  C50C04            lds ecx,[esp+eax]
00003875  0400              add al,0x0
00003877  001C00            add [eax+eax],bl
0000387A  0000              add [eax],al
0000387C  A000000040        mov al,[0x40000000]
00003881  D7                xlatb
00003882  FF                db 0xFF
00003883  FF4600            inc dword [esi+0x0]
00003886  0000              add [eax],al
00003888  00410E            add [ecx+0xe],al
0000388B  088502420D05      or [ebp+0x50d4202],al
00003891  0242C5            add al,[edx-0x3b]
00003894  0C04              or al,0x4
00003896  0400              add al,0x0
00003898  1C00              sbb al,0x0
0000389A  0000              add [eax],al
0000389C  C00000            rol byte [eax],0x0
0000389F  00CC              add ah,cl
000038A1  E0FF              loopne 0x38a2
000038A3  FF13              call near [ebx]
000038A5  0000              add [eax],al
000038A7  0000              add [eax],al
000038A9  41                inc ecx
000038AA  0E                push cs
000038AB  088502420D05      or [ebp+0x50d4202],al
000038B1  4F                dec edi
000038B2  C50C04            lds ecx,[esp+eax]
000038B5  0400              add al,0x0
000038B7  001C00            add [eax+eax],bl
000038BA  0000              add [eax],al
000038BC  E000              loopne 0x38be
000038BE  0000              add [eax],al
000038C0  C0E0FF            shl al,0xff
000038C3  FF13              call near [ebx]
000038C5  0000              add [eax],al
000038C7  0000              add [eax],al
000038C9  41                inc ecx
000038CA  0E                push cs
000038CB  088502420D05      or [ebp+0x50d4202],al
000038D1  4F                dec edi
000038D2  C50C04            lds ecx,[esp+eax]
000038D5  0400              add al,0x0
000038D7  001C00            add [eax+eax],bl
000038DA  0000              add [eax],al
000038DC  0000              add [eax],al
000038DE  0000              add [eax],al
000038E0  017A50            add [edx+0x50],edi
000038E3  4C                dec esp
000038E4  52                push edx
000038E5  0001              add [ecx],al
000038E7  7C08              jl 0x38f1
000038E9  07                pop es
000038EA  00808E040800      add [eax+0x8048e],al
000038F0  1B0C04            sbb ecx,[esp+eax]
000038F3  0488              add al,0x88
000038F5  0100              add [eax],eax
000038F7  003C00            add [eax+eax],bh
000038FA  0000              add [eax],al
000038FC  2400              and al,0x0
000038FE  0000              add [eax],al
00003900  06                push es
00003901  D7                xlatb
00003902  FF                db 0xFF
00003903  FF4B09            dec dword [ebx+0x9]
00003906  0000              add [eax],al
00003908  04B0              add al,0xb0
0000390A  C9                leave
0000390B  0408              add al,0x8
0000390D  44                inc esp
0000390E  0C01              or al,0x1
00003910  004710            add [edi+0x10],al
00003913  0502750045        add eax,0x45007502
00003918  0F037574          lsl esi,[ebp+0x74]
0000391C  06                push es
0000391D  1006              adc [esi],al
0000391F  02757C            add dh,[ebp+0x7c]
00003922  1003              adc [ebx],al
00003924  027578            add dh,[ebp+0x78]
00003927  033409            add esi,[ecx+ecx]
0000392A  C10C0100          ror dword [ecx+eax],0x0
0000392E  41                inc ecx
0000392F  C3                ret
00003930  41                inc ecx
00003931  C641C543          mov byte [ecx-0x3b],0x43
00003935  0C04              or al,0x4
00003937  041C              add al,0x1c
00003939  0000              add [eax],al
0000393B  006001            add [eax+0x1],ah
0000393E  0000              add [eax],al
00003940  54                push esp
00003941  E0FF              loopne 0x3942
00003943  FF13              call near [ebx]
00003945  0000              add [eax],al
00003947  0000              add [eax],al
00003949  41                inc ecx
0000394A  0E                push cs
0000394B  088502420D05      or [ebp+0x50d4202],al
00003951  4F                dec edi
00003952  C50C04            lds ecx,[esp+eax]
00003955  0400              add al,0x0
00003957  001C00            add [eax+eax],bl
0000395A  0000              add [eax],al
0000395C  800100            add byte [ecx],0x0
0000395F  0048E0            add [eax-0x20],cl
00003962  FF                db 0xFF
00003963  FF13              call near [ebx]
00003965  0000              add [eax],al
00003967  0000              add [eax],al
00003969  41                inc ecx
0000396A  0E                push cs
0000396B  088502420D05      or [ebp+0x50d4202],al
00003971  4F                dec edi
00003972  C50C04            lds ecx,[esp+eax]
00003975  0400              add al,0x0
00003977  002400            add [eax+eax],ah
0000397A  0000              add [eax],al
0000397C  A4                movsb
0000397D  0000              add [eax],al
0000397F  003CE0            add [eax],bh
00003982  FF                db 0xFF
00003983  FF4B00            dec dword [ebx+0x0]
00003986  0000              add [eax],al
00003988  04BB              add al,0xbb
0000398A  CA0408            retf 0x804
0000398D  41                inc ecx
0000398E  0E                push cs
0000398F  088502420D05      or [ebp+0x50d4202],al
00003995  44                inc esp
00003996  830302            add dword [ebx],byte +0x2
00003999  42                inc edx
0000399A  C3                ret
0000399B  41                inc ecx
0000399C  C50C04            lds ecx,[esp+eax]
0000399F  0420              add al,0x20
000039A1  0000              add [eax],al
000039A3  00CC              add ah,cl
000039A5  0000              add [eax],al
000039A7  0060E0            add [eax-0x20],ah
000039AA  FF                db 0xFF
000039AB  FF6100            jmp near [ecx+0x0]
000039AE  0000              add [eax],al
000039B0  04C7              add al,0xc7
000039B2  CA0408            retf 0x804
000039B5  41                inc ecx
000039B6  0E                push cs
000039B7  088502420D05      or [ebp+0x50d4202],al
000039BD  025BC5            add bl,[ebx-0x3b]
000039C0  0C04              or al,0x4
000039C2  0400              add al,0x0
000039C4  2400              and al,0x0
000039C6  0000              add [eax],al
000039C8  F00000            lock add [eax],al
000039CB  009DE0FFFF5E      add [ebp+0x5effffe0],bl
000039D1  0000              add [eax],al
000039D3  0004D3            add [ebx+edx*8],al
000039D6  CA0408            retf 0x804
000039D9  41                inc ecx
000039DA  0E                push cs
000039DB  088502420D05      or [ebp+0x50d4202],al
000039E1  44                inc esp
000039E2  830302            add dword [ebx],byte +0x2
000039E5  53                push ebx
000039E6  C3                ret
000039E7  41                inc ecx
000039E8  C50C04            lds ecx,[esp+eax]
000039EB  041C              add al,0x1c
000039ED  0000              add [eax],al
000039EF  001402            add [edx+eax],dl
000039F2  0000              add [eax],al
000039F4  D4E0              aam 0xe0
000039F6  FF                db 0xFF
000039F7  FF13              call near [ebx]
000039F9  0000              add [eax],al
000039FB  0000              add [eax],al
000039FD  41                inc ecx
000039FE  0E                push cs
000039FF  088502420D05      or [ebp+0x50d4202],al
00003A05  4F                dec edi
00003A06  C50C04            lds ecx,[esp+eax]
00003A09  0400              add al,0x0
00003A0B  001C00            add [eax+eax],bl
00003A0E  0000              add [eax],al
00003A10  3402              xor al,0x2
00003A12  0000              add [eax],al
00003A14  C8E0FFFF          enter 0xffe0,0xff
00003A18  1300              adc eax,[eax]
00003A1A  0000              add [eax],al
00003A1C  00410E            add [ecx+0xe],al
00003A1F  088502420D05      or [ebp+0x50d4202],al
00003A25  4F                dec edi
00003A26  C50C04            lds ecx,[esp+eax]
00003A29  0400              add al,0x0
00003A2B  002400            add [eax+eax],ah
00003A2E  0000              add [eax],al
00003A30  58                pop eax
00003A31  0100              add [eax],eax
00003A33  00BCE0FFFF4B00    add [eax+0x4bffff],bh
00003A3A  0000              add [eax],al
00003A3C  04E3              add al,0xe3
00003A3E  CA0408            retf 0x804
00003A41  41                inc ecx
00003A42  0E                push cs
00003A43  088502420D05      or [ebp+0x50d4202],al
00003A49  44                inc esp
00003A4A  830302            add dword [ebx],byte +0x2
00003A4D  42                inc edx
00003A4E  C3                ret
00003A4F  41                inc ecx
00003A50  C50C04            lds ecx,[esp+eax]
00003A53  041C              add al,0x1c
00003A55  0000              add [eax],al
00003A57  007C0200          add [edx+eax+0x0],bh
00003A5B  00E0              add al,ah
00003A5D  E0FF              loopne 0x3a5e
00003A5F  FF22              jmp near [edx]
00003A61  0000              add [eax],al
00003A63  0000              add [eax],al
00003A65  41                inc ecx
00003A66  0E                push cs
00003A67  088502420D05      or [ebp+0x50d4202],al
00003A6D  5C                pop esp
00003A6E  C50C04            lds ecx,[esp+eax]
00003A71  0400              add al,0x0
00003A73  001C00            add [eax+eax],bl
00003A76  0000              add [eax],al
00003A78  9C                pushf
00003A79  0200              add al,[eax]
00003A7B  00E2              add dl,ah
00003A7D  E0FF              loopne 0x3a7e
00003A7F  FF22              jmp near [edx]
00003A81  0000              add [eax],al
00003A83  0000              add [eax],al
00003A85  41                inc ecx
00003A86  0E                push cs
00003A87  088502420D05      or [ebp+0x50d4202],al
00003A8D  5C                pop esp
00003A8E  C50C04            lds ecx,[esp+eax]
00003A91  0400              add al,0x0
00003A93  001C00            add [eax+eax],bl
00003A96  0000              add [eax],al
00003A98  BC020000E4        mov esp,0xe4000002
00003A9D  E0FF              loopne 0x3a9e
00003A9F  FF1400            call near [eax+eax]
00003AA2  0000              add [eax],al
00003AA4  00410E            add [ecx+0xe],al
00003AA7  088502420D05      or [ebp+0x50d4202],al
00003AAD  50                push eax
00003AAE  C50C04            lds ecx,[esp+eax]
00003AB1  0400              add al,0x0
00003AB3  001C00            add [eax+eax],bl
00003AB6  0000              add [eax],al
00003AB8  DC02              fadd qword [edx]
00003ABA  0000              add [eax],al
00003ABC  D8E0              fsub st0
00003ABE  FF                db 0xFF
00003ABF  FF1D00000000      call far [0x0]
00003AC5  41                inc ecx
00003AC6  0E                push cs
00003AC7  088502420D05      or [ebp+0x50d4202],al
00003ACD  59                pop ecx
00003ACE  C50C04            lds ecx,[esp+eax]
00003AD1  0400              add al,0x0
00003AD3  001C00            add [eax+eax],bl
00003AD6  0000              add [eax],al
00003AD8  FC                cld
00003AD9  0200              add al,[eax]
00003ADB  00D6              add dh,dl
00003ADD  E0FF              loopne 0x3ade
00003ADF  FF0D00000000      dec dword [0x0]
00003AE5  41                inc ecx
00003AE6  0E                push cs
00003AE7  088502420D05      or [ebp+0x50d4202],al
00003AED  49                dec ecx
00003AEE  C50C04            lds ecx,[esp+eax]
00003AF1  0400              add al,0x0
00003AF3  0030              add [eax],dh
00003AF5  0000              add [eax],al
00003AF7  0020              add [eax],ah
00003AF9  0200              add al,[eax]
00003AFB  00C4              add ah,al
00003AFD  E0FF              loopne 0x3afe
00003AFF  FF1E              call far [esi]
00003B01  0100              add [eax],eax
00003B03  0004EF            add [edi+ebp*8],al
00003B06  CA0408            retf 0x804
00003B09  41                inc ecx
00003B0A  0E                push cs
00003B0B  088502420D05      or [ebp+0x50d4202],al
00003B11  46                inc esi
00003B12  8703              xchg eax,[ebx]
00003B14  860483            xchg al,[ebx+eax*4]
00003B17  05031101C3        add eax,0xc3011103
00003B1C  41                inc ecx
00003B1D  C641C741          mov byte [ecx-0x39],0x41
00003B21  C50C04            lds ecx,[esp+eax]
00003B24  0400              add al,0x0
00003B26  0000              add [eax],al
00003B28  1C00              sbb al,0x0
00003B2A  0000              add [eax],al
00003B2C  50                push eax
00003B2D  0300              add eax,[eax]
00003B2F  00AEE1FFFF22      add [esi+0x22ffffe1],ch
00003B35  0000              add [eax],al
00003B37  0000              add [eax],al
00003B39  41                inc ecx
00003B3A  0E                push cs
00003B3B  088502420D05      or [ebp+0x50d4202],al
00003B41  5C                pop esp
00003B42  C50C04            lds ecx,[esp+eax]
00003B45  0400              add al,0x0
00003B47  001C00            add [eax+eax],bl
00003B4A  0000              add [eax],al
00003B4C  7003              jo 0x3b51
00003B4E  0000              add [eax],al
00003B50  B0E1              mov al,0xe1
00003B52  FF                db 0xFF
00003B53  FF22              jmp near [edx]
00003B55  0000              add [eax],al
00003B57  0000              add [eax],al
00003B59  41                inc ecx
00003B5A  0E                push cs
00003B5B  088502420D05      or [ebp+0x50d4202],al
00003B61  5C                pop esp
00003B62  C50C04            lds ecx,[esp+eax]
00003B65  0400              add al,0x0
00003B67  001C00            add [eax+eax],bl
00003B6A  0000              add [eax],al
00003B6C  90                nop
00003B6D  0300              add eax,[eax]
00003B6F  00B2E1FFFF14      add [edx+0x14ffffe1],dh
00003B75  0000              add [eax],al
00003B77  0000              add [eax],al
00003B79  41                inc ecx
00003B7A  0E                push cs
00003B7B  088502420D05      or [ebp+0x50d4202],al
00003B81  50                push eax
00003B82  C50C04            lds ecx,[esp+eax]
00003B85  0400              add al,0x0
00003B87  001C00            add [eax+eax],bl
00003B8A  0000              add [eax],al
00003B8C  B003              mov al,0x3
00003B8E  0000              add [eax],al
00003B90  A6                cmpsb
00003B91  E1FF              loope 0x3b92
00003B93  FF1D00000000      call far [0x0]
00003B99  41                inc ecx
00003B9A  0E                push cs
00003B9B  088502420D05      or [ebp+0x50d4202],al
00003BA1  59                pop ecx
00003BA2  C50C04            lds ecx,[esp+eax]
00003BA5  0400              add al,0x0
00003BA7  001C00            add [eax+eax],bl
00003BAA  0000              add [eax],al
00003BAC  D003              rol byte [ebx],1
00003BAE  0000              add [eax],al
00003BB0  A4                movsb
00003BB1  E1FF              loope 0x3bb2
00003BB3  FF18              call far [eax]
00003BB5  0000              add [eax],al
00003BB7  0000              add [eax],al
00003BB9  41                inc ecx
00003BBA  0E                push cs
00003BBB  088502420D05      or [ebp+0x50d4202],al
00003BC1  54                push esp
00003BC2  C50C04            lds ecx,[esp+eax]
00003BC5  0400              add al,0x0
00003BC7  001C00            add [eax+eax],bl
00003BCA  0000              add [eax],al
00003BCC  F00300            lock add eax,[eax]
00003BCF  009CE1FFFF1300    add [ecx+0x13ffff],bl
00003BD6  0000              add [eax],al
00003BD8  00410E            add [ecx+0xe],al
00003BDB  088502420D05      or [ebp+0x50d4202],al
00003BE1  4F                dec edi
00003BE2  C50C04            lds ecx,[esp+eax]
00003BE5  0400              add al,0x0
00003BE7  001C00            add [eax+eax],bl
00003BEA  0000              add [eax],al
00003BEC  100400            adc [eax+eax],al
00003BEF  008FE1FFFF1B      add [edi+0x1bffffe1],cl
00003BF5  0000              add [eax],al
00003BF7  0000              add [eax],al
00003BF9  41                inc ecx
00003BFA  0E                push cs
00003BFB  088502420D05      or [ebp+0x50d4202],al
00003C01  57                push edi
00003C02  C50C04            lds ecx,[esp+eax]
00003C05  0400              add al,0x0
00003C07  001C00            add [eax+eax],bl
00003C0A  0000              add [eax],al
00003C0C  300400            xor [eax+eax],al
00003C0F  008AE1FFFF13      add [edx+0x13ffffe1],cl
00003C15  0000              add [eax],al
00003C17  0000              add [eax],al
00003C19  41                inc ecx
00003C1A  0E                push cs
00003C1B  088502420D05      or [ebp+0x50d4202],al
00003C21  4F                dec edi
00003C22  C50C04            lds ecx,[esp+eax]
00003C25  0400              add al,0x0
00003C27  001C00            add [eax+eax],bl
00003C2A  0000              add [eax],al
00003C2C  50                push eax
00003C2D  0400              add al,0x0
00003C2F  007EE1            add [esi-0x1f],bh
00003C32  FF                db 0xFF
00003C33  FF13              call near [ebx]
00003C35  0000              add [eax],al
00003C37  0000              add [eax],al
00003C39  41                inc ecx
00003C3A  0E                push cs
00003C3B  088502420D05      or [ebp+0x50d4202],al
00003C41  4F                dec edi
00003C42  C50C04            lds ecx,[esp+eax]
00003C45  0400              add al,0x0
00003C47  001C00            add [eax+eax],bl
00003C4A  0000              add [eax],al
00003C4C  7004              jo 0x3c52
00003C4E  0000              add [eax],al
00003C50  72E1              jc 0x3c33
00003C52  FF                db 0xFF
00003C53  FF5000            call near [eax+0x0]
00003C56  0000              add [eax],al
00003C58  00410E            add [ecx+0xe],al
00003C5B  088502420D05      or [ebp+0x50d4202],al
00003C61  024CC50C          add cl,[ebp+eax*8+0xc]
00003C65  0404              add al,0x4
00003C67  001C00            add [eax+eax],bl
00003C6A  0000              add [eax],al
00003C6C  90                nop
00003C6D  0400              add al,0x0
00003C6F  00A2E1FFFF0B      add [edx+0xbffffe1],ah
00003C75  0000              add [eax],al
00003C77  0000              add [eax],al
00003C79  41                inc ecx
00003C7A  0E                push cs
00003C7B  088502420D05      or [ebp+0x50d4202],al
00003C81  47                inc edi
00003C82  C50C04            lds ecx,[esp+eax]
00003C85  0400              add al,0x0
00003C87  002400            add [eax+eax],ah
00003C8A  0000              add [eax],al
00003C8C  B403              mov ah,0x3
00003C8E  0000              add [eax],al
00003C90  8EE1              mov fs,cx
00003C92  FF                db 0xFF
00003C93  FFC7              inc edi
00003C95  0000              add [eax],al
00003C97  000408            add [eax+ecx],al
00003C9A  CB                retf
00003C9B  0408              add al,0x8
00003C9D  41                inc ecx
00003C9E  0E                push cs
00003C9F  088502420D05      or [ebp+0x50d4202],al
00003CA5  44                inc esp
00003CA6  830302            add dword [ebx],byte +0x2
00003CA9  BDC5C30C04        mov ebp,0x40cc3c5
00003CAE  0400              add al,0x0
00003CB0  1C00              sbb al,0x0
00003CB2  0000              add [eax],al
00003CB4  D80400            fadd dword [eax+eax]
00003CB7  002E              add [esi],ch
00003CB9  E2FF              loop 0x3cba
00003CBB  FF0F              dec dword [edi]
00003CBD  0000              add [eax],al
00003CBF  0000              add [eax],al
00003CC1  41                inc ecx
00003CC2  0E                push cs
00003CC3  088502420D05      or [ebp+0x50d4202],al
00003CC9  4B                dec ebx
00003CCA  C50C04            lds ecx,[esp+eax]
00003CCD  0400              add al,0x0
00003CCF  001C00            add [eax+eax],bl
00003CD2  0000              add [eax],al
00003CD4  F8                clc
00003CD5  0400              add al,0x0
00003CD7  001E              add [esi],bl
00003CD9  E2FF              loop 0x3cda
00003CDB  FF1A              call far [edx]
00003CDD  0000              add [eax],al
00003CDF  0000              add [eax],al
00003CE1  41                inc ecx
00003CE2  0E                push cs
00003CE3  088502420D05      or [ebp+0x50d4202],al
00003CE9  56                push esi
00003CEA  C50C04            lds ecx,[esp+eax]
00003CED  0400              add al,0x0
00003CEF  001C00            add [eax+eax],bl
00003CF2  0000              add [eax],al
00003CF4  1805000018E2      sbb [0xe2180000],al
00003CFA  FF                db 0xFF
00003CFB  FF13              call near [ebx]
00003CFD  0000              add [eax],al
00003CFF  0000              add [eax],al
00003D01  41                inc ecx
00003D02  0E                push cs
00003D03  088502420D05      or [ebp+0x50d4202],al
00003D09  4F                dec edi
00003D0A  C50C04            lds ecx,[esp+eax]
00003D0D  0400              add al,0x0
00003D0F  001C00            add [eax+eax],bl
00003D12  0000              add [eax],al
00003D14  380500000CE2      cmp [0xe20c0000],al
00003D1A  FF                db 0xFF
00003D1B  FF13              call near [ebx]
00003D1D  0000              add [eax],al
00003D1F  0000              add [eax],al
00003D21  41                inc ecx
00003D22  0E                push cs
00003D23  088502420D05      or [ebp+0x50d4202],al
00003D29  4F                dec edi
00003D2A  C50C04            lds ecx,[esp+eax]
00003D2D  0400              add al,0x0
00003D2F  001C00            add [eax+eax],bl
00003D32  0000              add [eax],al
00003D34  58                pop eax
00003D35  05000000E2        add eax,0xe2000000
00003D3A  FF                db 0xFF
00003D3B  FF5000            call near [eax+0x0]
00003D3E  0000              add [eax],al
00003D40  00410E            add [ecx+0xe],al
00003D43  088502420D05      or [ebp+0x50d4202],al
00003D49  024CC50C          add cl,[ebp+eax*8+0xc]
00003D4D  0404              add al,0x4
00003D4F  001C00            add [eax+eax],bl
00003D52  0000              add [eax],al
00003D54  7805              js 0x3d5b
00003D56  0000              add [eax],al
00003D58  30E2              xor dl,ah
00003D5A  FF                db 0xFF
00003D5B  FF0B              dec dword [ebx]
00003D5D  0000              add [eax],al
00003D5F  0000              add [eax],al
00003D61  41                inc ecx
00003D62  0E                push cs
00003D63  088502420D05      or [ebp+0x50d4202],al
00003D69  47                inc edi
00003D6A  C50C04            lds ecx,[esp+eax]
00003D6D  0400              add al,0x0
00003D6F  001C00            add [eax+eax],bl
00003D72  0000              add [eax],al
00003D74  98                cwde
00003D75  0500001CE2        add eax,0xe21c0000
00003D7A  FF                db 0xFF
00003D7B  FF22              jmp near [edx]
00003D7D  0000              add [eax],al
00003D7F  0000              add [eax],al
00003D81  41                inc ecx
00003D82  0E                push cs
00003D83  088502420D05      or [ebp+0x50d4202],al
00003D89  5C                pop esp
00003D8A  C50C04            lds ecx,[esp+eax]
00003D8D  0400              add al,0x0
00003D8F  001C00            add [eax+eax],bl
00003D92  0000              add [eax],al
00003D94  B80500001E        mov eax,0x1e000005
00003D99  E2FF              loop 0x3d9a
00003D9B  FF22              jmp near [edx]
00003D9D  0000              add [eax],al
00003D9F  0000              add [eax],al
00003DA1  41                inc ecx
00003DA2  0E                push cs
00003DA3  088502420D05      or [ebp+0x50d4202],al
00003DA9  5C                pop esp
00003DAA  C50C04            lds ecx,[esp+eax]
00003DAD  0400              add al,0x0
00003DAF  001C00            add [eax+eax],bl
00003DB2  0000              add [eax],al
00003DB4  D805000020E2      fadd dword [0xe2200000]
00003DBA  FF                db 0xFF
00003DBB  FF29              jmp far [ecx]
00003DBD  0000              add [eax],al
00003DBF  0000              add [eax],al
00003DC1  41                inc ecx
00003DC2  0E                push cs
00003DC3  088502420D05      or [ebp+0x50d4202],al
00003DC9  63C5              arpl bp,ax
00003DCB  0C04              or al,0x4
00003DCD  0400              add al,0x0
00003DCF  001C00            add [eax+eax],bl
00003DD2  0000              add [eax],al
00003DD4  F8                clc
00003DD5  0500002AE2        add eax,0xe22a0000
00003DDA  FF                db 0xFF
00003DDB  FF22              jmp near [edx]
00003DDD  0000              add [eax],al
00003DDF  0000              add [eax],al
00003DE1  41                inc ecx
00003DE2  0E                push cs
00003DE3  088502420D05      or [ebp+0x50d4202],al
00003DE9  5C                pop esp
00003DEA  C50C04            lds ecx,[esp+eax]
00003DED  0400              add al,0x0
00003DEF  001C00            add [eax+eax],bl
00003DF2  0000              add [eax],al
00003DF4  1806              sbb [esi],al
00003DF6  0000              add [eax],al
00003DF8  2CE2              sub al,0xe2
00003DFA  FF                db 0xFF
00003DFB  FF0D00000000      dec dword [0x0]
00003E01  41                inc ecx
00003E02  0E                push cs
00003E03  088502420D05      or [ebp+0x50d4202],al
00003E09  49                dec ecx
00003E0A  C50C04            lds ecx,[esp+eax]
00003E0D  0400              add al,0x0
00003E0F  001C00            add [eax+eax],bl
00003E12  0000              add [eax],al
00003E14  3806              cmp [esi],al
00003E16  0000              add [eax],al
00003E18  1AE2              sbb ah,dl
00003E1A  FF                db 0xFF
00003E1B  FF1400            call near [eax+eax]
00003E1E  0000              add [eax],al
00003E20  00410E            add [ecx+0xe],al
00003E23  088502420D05      or [ebp+0x50d4202],al
00003E29  50                push eax
00003E2A  C50C04            lds ecx,[esp+eax]
00003E2D  0400              add al,0x0
00003E2F  001C00            add [eax+eax],bl
00003E32  0000              add [eax],al
00003E34  58                pop eax
00003E35  06                push es
00003E36  0000              add [eax],al
00003E38  0E                push cs
00003E39  E2FF              loop 0x3e3a
00003E3B  FF1400            call near [eax+eax]
00003E3E  0000              add [eax],al
00003E40  00410E            add [ecx+0xe],al
00003E43  088502420D05      or [ebp+0x50d4202],al
00003E49  50                push eax
00003E4A  C50C04            lds ecx,[esp+eax]
00003E4D  0400              add al,0x0
00003E4F  001C00            add [eax+eax],bl
00003E52  0000              add [eax],al
00003E54  7806              js 0x3e5c
00003E56  0000              add [eax],al
00003E58  02E2              add ah,dl
00003E5A  FF                db 0xFF
00003E5B  FF1A              call far [edx]
00003E5D  0000              add [eax],al
00003E5F  0000              add [eax],al
00003E61  41                inc ecx
00003E62  0E                push cs
00003E63  088502420D05      or [ebp+0x50d4202],al
00003E69  56                push esi
00003E6A  C50C04            lds ecx,[esp+eax]
00003E6D  0400              add al,0x0
00003E6F  0020              add [eax],ah
00003E71  0000              add [eax],al
00003E73  009C050000FCE1    add [ebp+eax+0xe1fc0000],bl
00003E7A  FF                db 0xFF
00003E7B  FF4C0000          dec dword [eax+eax+0x0]
00003E7F  00041B            add [ebx+ebx],al
00003E82  CB                retf
00003E83  0408              add al,0x8
00003E85  41                inc ecx
00003E86  0E                push cs
00003E87  088502420D05      or [ebp+0x50d4202],al
00003E8D  0246C5            add al,[esi-0x3b]
00003E90  0C04              or al,0x4
00003E92  0400              add al,0x0
00003E94  1C00              sbb al,0x0
00003E96  0000              add [eax],al
00003E98  BC06000024        mov esp,0x24000006
00003E9D  E2FF              loop 0x3e9e
00003E9F  FF22              jmp near [edx]
00003EA1  0000              add [eax],al
00003EA3  0000              add [eax],al
00003EA5  41                inc ecx
00003EA6  0E                push cs
00003EA7  088502420D05      or [ebp+0x50d4202],al
00003EAD  5C                pop esp
00003EAE  C50C04            lds ecx,[esp+eax]
00003EB1  0400              add al,0x0
00003EB3  001C00            add [eax+eax],bl
00003EB6  0000              add [eax],al
00003EB8  DC06              fadd qword [esi]
00003EBA  0000              add [eax],al
00003EBC  26E2FF            es loop 0x3ebe
00003EBF  FF22              jmp near [edx]
00003EC1  0000              add [eax],al
00003EC3  0000              add [eax],al
00003EC5  41                inc ecx
00003EC6  0E                push cs
00003EC7  088502420D05      or [ebp+0x50d4202],al
00003ECD  5C                pop esp
00003ECE  C50C04            lds ecx,[esp+eax]
00003ED1  0400              add al,0x0
00003ED3  001C00            add [eax+eax],bl
00003ED6  0000              add [eax],al
00003ED8  FC                cld
00003ED9  06                push es
00003EDA  0000              add [eax],al
00003EDC  28E2              sub dl,ah
00003EDE  FF                db 0xFF
00003EDF  FF08              dec dword [eax]
00003EE1  0000              add [eax],al
00003EE3  0000              add [eax],al
00003EE5  41                inc ecx
00003EE6  0E                push cs
00003EE7  088502420D05      or [ebp+0x50d4202],al
00003EED  44                inc esp
00003EEE  C50C04            lds ecx,[esp+eax]
00003EF1  0400              add al,0x0
00003EF3  001C00            add [eax+eax],bl
00003EF6  0000              add [eax],al
00003EF8  1C07              sbb al,0x7
00003EFA  0000              add [eax],al
00003EFC  10E2              adc dl,ah
00003EFE  FF                db 0xFF
00003EFF  FF0B              dec dword [ebx]
00003F01  0000              add [eax],al
00003F03  0000              add [eax],al
00003F05  41                inc ecx
00003F06  0E                push cs
00003F07  088502420D05      or [ebp+0x50d4202],al
00003F0D  47                inc edi
00003F0E  C50C04            lds ecx,[esp+eax]
00003F11  0400              add al,0x0
00003F13  001C00            add [eax+eax],bl
00003F16  0000              add [eax],al
00003F18  3C07              cmp al,0x7
00003F1A  0000              add [eax],al
00003F1C  FC                cld
00003F1D  E1FF              loope 0x3f1e
00003F1F  FF5000            call near [eax+0x0]
00003F22  0000              add [eax],al
00003F24  00410E            add [ecx+0xe],al
00003F27  088502420D05      or [ebp+0x50d4202],al
00003F2D  024CC50C          add cl,[ebp+eax*8+0xc]
00003F31  0404              add al,0x4
00003F33  001C00            add [eax+eax],bl
00003F36  0000              add [eax],al
00003F38  5C                pop esp
00003F39  07                pop es
00003F3A  0000              add [eax],al
00003F3C  2CE2              sub al,0xe2
00003F3E  FF                db 0xFF
00003F3F  FF0500000000      inc dword [0x0]
00003F45  41                inc ecx
00003F46  0E                push cs
00003F47  088502420D05      or [ebp+0x50d4202],al
00003F4D  41                inc ecx
00003F4E  C50C04            lds ecx,[esp+eax]
00003F51  0400              add al,0x0
00003F53  001C00            add [eax+eax],bl
00003F56  0000              add [eax],al
00003F58  7C07              jl 0x3f61
00003F5A  0000              add [eax],al
00003F5C  11E2              adc edx,esp
00003F5E  FF                db 0xFF
00003F5F  FF0B              dec dword [ebx]
00003F61  0000              add [eax],al
00003F63  0000              add [eax],al
00003F65  41                inc ecx
00003F66  0E                push cs
00003F67  088502420D05      or [ebp+0x50d4202],al
00003F6D  47                inc edi
00003F6E  C50C04            lds ecx,[esp+eax]
00003F71  0400              add al,0x0
00003F73  001C00            add [eax+eax],bl
00003F76  0000              add [eax],al
00003F78  9C                pushf
00003F79  07                pop es
00003F7A  0000              add [eax],al
00003F7C  FC                cld
00003F7D  E1FF              loope 0x3f7e
00003F7F  FF0B              dec dword [ebx]
00003F81  0000              add [eax],al
00003F83  0000              add [eax],al
00003F85  41                inc ecx
00003F86  0E                push cs
00003F87  088502420D05      or [ebp+0x50d4202],al
00003F8D  47                inc edi
00003F8E  C50C04            lds ecx,[esp+eax]
00003F91  0400              add al,0x0
00003F93  002400            add [eax+eax],ah
00003F96  0000              add [eax],al
00003F98  C00600            rol byte [esi],0x0
00003F9B  00E8              add al,ch
00003F9D  E1FF              loope 0x3f9e
00003F9F  FF7600            push dword [esi+0x0]
00003FA2  0000              add [eax],al
00003FA4  0427              add al,0x27
00003FA6  CB                retf
00003FA7  0408              add al,0x8
00003FA9  41                inc ecx
00003FAA  0E                push cs
00003FAB  088502420D05      or [ebp+0x50d4202],al
00003FB1  44                inc esp
00003FB2  830302            add dword [ebx],byte +0x2
00003FB5  6E                outsb
00003FB6  C5                db 0xC5
00003FB7  C3                ret
00003FB8  0C04              or al,0x4
00003FBA  0400              add al,0x0
00003FBC  2000              and [eax],al
00003FBE  0000              add [eax],al
00003FC0  E806000036        call 0x36003fcb
00003FC5  E2FF              loop 0x3fc6
00003FC7  FF6E01            jmp far [esi+0x1]
00003FCA  0000              add [eax],al
00003FCC  0437              add al,0x37
00003FCE  CB                retf
00003FCF  0408              add al,0x8
00003FD1  41                inc ecx
00003FD2  0E                push cs
00003FD3  088502420D05      or [ebp+0x50d4202],al
00003FD9  036801            add ebp,[eax+0x1]
00003FDC  C50C04            lds ecx,[esp+eax]
00003FDF  041C              add al,0x1c
00003FE1  0000              add [eax],al
00003FE3  0008              add [eax],cl
00003FE5  0800              or [eax],al
00003FE7  0080E3FFFF08      add [eax+0x8ffffe3],al
00003FED  0000              add [eax],al
00003FEF  0000              add [eax],al
00003FF1  41                inc ecx
00003FF2  0E                push cs
00003FF3  088502420D05      or [ebp+0x50d4202],al
00003FF9  44                inc esp
00003FFA  C50C04            lds ecx,[esp+eax]
00003FFD  0400              add al,0x0
00003FFF  0028              add [eax],ch
00004001  0000              add [eax],al
00004003  002C07            add [edi+eax],ch
00004006  0000              add [eax],al
00004008  68E3FFFFDB        push dword 0xdbffffe3
0000400D  0000              add [eax],al
0000400F  000446            add [esi+eax*2],al
00004012  CB                retf
00004013  0408              add al,0x8
00004015  41                inc ecx
00004016  0E                push cs
00004017  088502420D05      or [ebp+0x50d4202],al
0000401D  45                inc ebp
0000401E  8603              xchg al,[ebx]
00004020  830402CE          add dword [edx+eax],byte -0x32
00004024  C3                ret
00004025  41                inc ecx
00004026  C641C50C          mov byte [ecx-0x3b],0xc
0000402A  0404              add al,0x4
0000402C  1C00              sbb al,0x0
0000402E  0000              add [eax],al
00004030  54                push esp
00004031  0800              or [eax],al
00004033  0018              add [eax],bl
00004035  E4FF              in al,0xff
00004037  FF1A              call far [edx]
00004039  0000              add [eax],al
0000403B  0000              add [eax],al
0000403D  41                inc ecx
0000403E  0E                push cs
0000403F  088502420D05      or [ebp+0x50d4202],al
00004045  56                push esi
00004046  C50C04            lds ecx,[esp+eax]
00004049  0400              add al,0x0
0000404B  001C00            add [eax+eax],bl
0000404E  0000              add [eax],al
00004050  7408              jz 0x405a
00004052  0000              add [eax],al
00004054  12E4              adc ah,ah
00004056  FF                db 0xFF
00004057  FF0D00000000      dec dword [0x0]
0000405D  41                inc ecx
0000405E  0E                push cs
0000405F  088502420D05      or [ebp+0x50d4202],al
00004065  49                dec ecx
00004066  C50C04            lds ecx,[esp+eax]
00004069  0400              add al,0x0
0000406B  001C00            add [eax+eax],bl
0000406E  0000              add [eax],al
00004070  94                xchg eax,esp
00004071  0800              or [eax],al
00004073  0000              add [eax],al
00004075  E4FF              in al,0xff
00004077  FF5000            call near [eax+0x0]
0000407A  0000              add [eax],al
0000407C  00410E            add [ecx+0xe],al
0000407F  088502420D05      or [ebp+0x50d4202],al
00004085  024CC50C          add cl,[ebp+eax*8+0xc]
00004089  0404              add al,0x4
0000408B  001C00            add [eax+eax],bl
0000408E  0000              add [eax],al
00004090  B408              mov ah,0x8
00004092  0000              add [eax],al
00004094  30E4              xor ah,ah
00004096  FF                db 0xFF
00004097  FF0500000000      inc dword [0x0]
0000409D  41                inc ecx
0000409E  0E                push cs
0000409F  088502420D05      or [ebp+0x50d4202],al
000040A5  41                inc ecx
000040A6  C50C04            lds ecx,[esp+eax]
000040A9  0400              add al,0x0
000040AB  001C00            add [eax+eax],bl
000040AE  0000              add [eax],al
000040B0  D408              aam 0x8
000040B2  0000              add [eax],al
000040B4  15E4FFFF0B        adc eax,0xbffffe4
000040B9  0000              add [eax],al
000040BB  0000              add [eax],al
000040BD  41                inc ecx
000040BE  0E                push cs
000040BF  088502420D05      or [ebp+0x50d4202],al
000040C5  47                inc edi
000040C6  C50C04            lds ecx,[esp+eax]
000040C9  0400              add al,0x0
000040CB  001C00            add [eax+eax],bl
000040CE  0000              add [eax],al
000040D0  F4                hlt
000040D1  0800              or [eax],al
000040D3  0000              add [eax],al
000040D5  E4FF              in al,0xff
000040D7  FF0B              dec dword [ebx]
000040D9  0000              add [eax],al
000040DB  0000              add [eax],al
000040DD  41                inc ecx
000040DE  0E                push cs
000040DF  088502420D05      or [ebp+0x50d4202],al
000040E5  47                inc edi
000040E6  C50C04            lds ecx,[esp+eax]
000040E9  0400              add al,0x0
000040EB  0020              add [eax],ah
000040ED  0000              add [eax],al
000040EF  001409            add [ecx+ecx],dl
000040F2  0000              add [eax],al
000040F4  EC                in al,dx
000040F5  E3FF              jecxz 0x40f6
000040F7  FF5D00            call far [ebp+0x0]
000040FA  0000              add [eax],al
000040FC  00410E            add [ecx+0xe],al
000040FF  088502420D05      or [ebp+0x50d4202],al
00004105  44                inc esp
00004106  830302            add dword [ebx],byte +0x2
00004109  55                push ebp
0000410A  C5                db 0xC5
0000410B  C3                ret
0000410C  0C04              or al,0x4
0000410E  0400              add al,0x0
00004110  1C00              sbb al,0x0
00004112  0000              add [eax],al
00004114  3809              cmp [ecx],cl
00004116  0000              add [eax],al
00004118  26E4FF            es in al,0xff
0000411B  FF0D00000000      dec dword [0x0]
00004121  41                inc ecx
00004122  0E                push cs
00004123  088502420D05      or [ebp+0x50d4202],al
00004129  49                dec ecx
0000412A  C50C04            lds ecx,[esp+eax]
0000412D  0400              add al,0x0
0000412F  0020              add [eax],ah
00004131  0000              add [eax],al
00004133  005809            add [eax+0x9],bl
00004136  0000              add [eax],al
00004138  14E4              adc al,0xe4
0000413A  FF                db 0xFF
0000413B  FF4D00            dec dword [ebp+0x0]
0000413E  0000              add [eax],al
00004140  00410E            add [ecx+0xe],al
00004143  088502420D05      or [ebp+0x50d4202],al
00004149  44                inc esp
0000414A  830302            add dword [ebx],byte +0x2
0000414D  43                inc ebx
0000414E  C5                db 0xC5
0000414F  C3                ret
00004150  0C04              or al,0x4
00004152  0400              add al,0x0
00004154  1C00              sbb al,0x0
00004156  0000              add [eax],al
00004158  7C09              jl 0x4163
0000415A  0000              add [eax],al
0000415C  3EE4FF            ds in al,0xff
0000415F  FF0B              dec dword [ebx]
00004161  0000              add [eax],al
00004163  0000              add [eax],al
00004165  41                inc ecx
00004166  0E                push cs
00004167  088502420D05      or [ebp+0x50d4202],al
0000416D  45                inc ebp
0000416E  C50C04            lds ecx,[esp+eax]
00004171  0400              add al,0x0
00004173  001C00            add [eax+eax],bl
00004176  0000              add [eax],al
00004178  9C                pushf
00004179  0900              or [eax],eax
0000417B  002A              add [edx],ch
0000417D  E4FF              in al,0xff
0000417F  FF0F              dec dword [edi]
00004181  0000              add [eax],al
00004183  0000              add [eax],al
00004185  41                inc ecx
00004186  0E                push cs
00004187  088502420D05      or [ebp+0x50d4202],al
0000418D  4B                dec ebx
0000418E  C50C04            lds ecx,[esp+eax]
00004191  0400              add al,0x0
00004193  002400            add [eax+eax],ah
00004196  0000              add [eax],al
00004198  C00800            ror byte [eax],0x0
0000419B  001A              add [edx],bl
0000419D  E4FF              in al,0xff
0000419F  FF940000000453    call near [eax+eax+0x53040000]
000041A6  CB                retf
000041A7  0408              add al,0x8
000041A9  41                inc ecx
000041AA  0E                push cs
000041AB  088502420D05      or [ebp+0x50d4202],al
000041B1  44                inc esp
000041B2  830302            add dword [ebx],byte +0x2
000041B5  8AC5              mov al,ch
000041B7  C3                ret
000041B8  0C04              or al,0x4
000041BA  0400              add al,0x0
000041BC  1C00              sbb al,0x0
000041BE  0000              add [eax],al
000041C0  E409              in al,0x9
000041C2  0000              add [eax],al
000041C4  86E4              xchg ah,ah
000041C6  FF                db 0xFF
000041C7  FF0D00000000      dec dword [0x0]
000041CD  41                inc ecx
000041CE  0E                push cs
000041CF  088502420D05      or [ebp+0x50d4202],al
000041D5  49                dec ecx
000041D6  C50C04            lds ecx,[esp+eax]
000041D9  0400              add al,0x0
000041DB  001C00            add [eax+eax],bl
000041DE  0000              add [eax],al
000041E0  040A              add al,0xa
000041E2  0000              add [eax],al
000041E4  74E4              jz 0x41ca
000041E6  FF                db 0xFF
000041E7  FF13              call near [ebx]
000041E9  0000              add [eax],al
000041EB  0000              add [eax],al
000041ED  41                inc ecx
000041EE  0E                push cs
000041EF  088502420D05      or [ebp+0x50d4202],al
000041F5  4F                dec edi
000041F6  C50C04            lds ecx,[esp+eax]
000041F9  0400              add al,0x0
000041FB  001C00            add [eax+eax],bl
000041FE  0000              add [eax],al
00004200  240A              and al,0xa
00004202  0000              add [eax],al
00004204  68E4FFFF31        push dword 0x31ffffe4
00004209  0000              add [eax],al
0000420B  0000              add [eax],al
0000420D  41                inc ecx
0000420E  0E                push cs
0000420F  088502420D05      or [ebp+0x50d4202],al
00004215  6D                insd
00004216  C50C04            lds ecx,[esp+eax]
00004219  0400              add al,0x0
0000421B  001C00            add [eax+eax],bl
0000421E  0000              add [eax],al
00004220  44                inc esp
00004221  0A00              or al,[eax]
00004223  007AE4            add [edx-0x1c],bh
00004226  FF                db 0xFF
00004227  FF27              jmp near [edi]
00004229  0000              add [eax],al
0000422B  0000              add [eax],al
0000422D  41                inc ecx
0000422E  0E                push cs
0000422F  088502420D05      or [ebp+0x50d4202],al
00004235  61                popa
00004236  C50C04            lds ecx,[esp+eax]
00004239  0400              add al,0x0
0000423B  001C00            add [eax+eax],bl
0000423E  0000              add [eax],al
00004240  640A00            or al,[fs:eax]
00004243  0082E4FFFF13      add [edx+0x13ffffe4],al
00004249  0000              add [eax],al
0000424B  0000              add [eax],al
0000424D  41                inc ecx
0000424E  0E                push cs
0000424F  088502420D05      or [ebp+0x50d4202],al
00004255  4F                dec edi
00004256  C50C04            lds ecx,[esp+eax]
00004259  0400              add al,0x0
0000425B  001C00            add [eax+eax],bl
0000425E  0000              add [eax],al
00004260  840A              test [edx],cl
00004262  0000              add [eax],al
00004264  75E4              jnz 0x424a
00004266  FF                db 0xFF
00004267  FF08              dec dword [eax]
00004269  0000              add [eax],al
0000426B  0000              add [eax],al
0000426D  41                inc ecx
0000426E  0E                push cs
0000426F  088502420D05      or [ebp+0x50d4202],al
00004275  44                inc esp
00004276  C50C04            lds ecx,[esp+eax]
00004279  0400              add al,0x0
0000427B  001C00            add [eax+eax],bl
0000427E  0000              add [eax],al
00004280  A4                movsb
00004281  0A00              or al,[eax]
00004283  005EE4            add [esi-0x1c],bl
00004286  FF                db 0xFF
00004287  FF13              call near [ebx]
00004289  0000              add [eax],al
0000428B  0000              add [eax],al
0000428D  41                inc ecx
0000428E  0E                push cs
0000428F  088502420D05      or [ebp+0x50d4202],al
00004295  4F                dec edi
00004296  C50C04            lds ecx,[esp+eax]
00004299  0400              add al,0x0
0000429B  001C00            add [eax+eax],bl
0000429E  0000              add [eax],al
000042A0  C40A              les ecx,[edx]
000042A2  0000              add [eax],al
000042A4  52                push edx
000042A5  E4FF              in al,0xff
000042A7  FF22              jmp near [edx]
000042A9  0000              add [eax],al
000042AB  0000              add [eax],al
000042AD  41                inc ecx
000042AE  0E                push cs
000042AF  088502420D05      or [ebp+0x50d4202],al
000042B5  5E                pop esi
000042B6  C50C04            lds ecx,[esp+eax]
000042B9  0400              add al,0x0
000042BB  001C00            add [eax+eax],bl
000042BE  0000              add [eax],al
000042C0  E40A              in al,0xa
000042C2  0000              add [eax],al
000042C4  54                push esp
000042C5  E4FF              in al,0xff
000042C7  FF0B              dec dword [ebx]
000042C9  0000              add [eax],al
000042CB  0000              add [eax],al
000042CD  41                inc ecx
000042CE  0E                push cs
000042CF  088502420D05      or [ebp+0x50d4202],al
000042D5  47                inc edi
000042D6  C50C04            lds ecx,[esp+eax]
000042D9  0400              add al,0x0
000042DB  001C00            add [eax+eax],bl
000042DE  0000              add [eax],al
000042E0  040B              add al,0xb
000042E2  0000              add [eax],al
000042E4  3F                aas
000042E5  E4FF              in al,0xff
000042E7  FF22              jmp near [edx]
000042E9  0000              add [eax],al
000042EB  0000              add [eax],al
000042ED  41                inc ecx
000042EE  0E                push cs
000042EF  088502420D05      or [ebp+0x50d4202],al
000042F5  5E                pop esi
000042F6  C50C04            lds ecx,[esp+eax]
000042F9  0400              add al,0x0
000042FB  001C00            add [eax+eax],bl
000042FE  0000              add [eax],al
00004300  240B              and al,0xb
00004302  0000              add [eax],al
00004304  42                inc edx
00004305  E4FF              in al,0xff
00004307  FF1A              call far [edx]
00004309  0000              add [eax],al
0000430B  0000              add [eax],al
0000430D  41                inc ecx
0000430E  0E                push cs
0000430F  088502420D05      or [ebp+0x50d4202],al
00004315  56                push esi
00004316  C50C04            lds ecx,[esp+eax]
00004319  0400              add al,0x0
0000431B  001C00            add [eax+eax],bl
0000431E  0000              add [eax],al
00004320  44                inc esp
00004321  0B00              or eax,[eax]
00004323  003CE4            add [esp],bh
00004326  FF                db 0xFF
00004327  FF22              jmp near [edx]
00004329  0000              add [eax],al
0000432B  0000              add [eax],al
0000432D  41                inc ecx
0000432E  0E                push cs
0000432F  088502420D05      or [ebp+0x50d4202],al
00004335  5C                pop esp
00004336  C50C04            lds ecx,[esp+eax]
00004339  0400              add al,0x0
0000433B  001C00            add [eax+eax],bl
0000433E  0000              add [eax],al
00004340  640B00            or eax,[fs:eax]
00004343  003E              add [esi],bh
00004345  E4FF              in al,0xff
00004347  FF1400            call near [eax+eax]
0000434A  0000              add [eax],al
0000434C  00410E            add [ecx+0xe],al
0000434F  088502420D05      or [ebp+0x50d4202],al
00004355  50                push eax
00004356  C50C04            lds ecx,[esp+eax]
00004359  0400              add al,0x0
0000435B  001C00            add [eax+eax],bl
0000435E  0000              add [eax],al
00004360  840B              test [ebx],cl
00004362  0000              add [eax],al
00004364  32E4              xor ah,ah
00004366  FF                db 0xFF
00004367  FF1A              call far [edx]
00004369  0000              add [eax],al
0000436B  0000              add [eax],al
0000436D  41                inc ecx
0000436E  0E                push cs
0000436F  088502420D05      or [ebp+0x50d4202],al
00004375  56                push esi
00004376  C50C04            lds ecx,[esp+eax]
00004379  0400              add al,0x0
0000437B  001C00            add [eax+eax],bl
0000437E  0000              add [eax],al
00004380  A4                movsb
00004381  0B00              or eax,[eax]
00004383  002CE4            add [esp],ch
00004386  FF                db 0xFF
00004387  FF1D00000000      call far [0x0]
0000438D  41                inc ecx
0000438E  0E                push cs
0000438F  088502420D05      or [ebp+0x50d4202],al
00004395  59                pop ecx
00004396  C50C04            lds ecx,[esp+eax]
00004399  0400              add al,0x0
0000439B  001C00            add [eax+eax],bl
0000439E  0000              add [eax],al
000043A0  C40B              les ecx,[ebx]
000043A2  0000              add [eax],al
000043A4  29E4              sub esp,esp
000043A6  FF                db 0xFF
000043A7  FF22              jmp near [edx]
000043A9  0000              add [eax],al
000043AB  0000              add [eax],al
000043AD  41                inc ecx
000043AE  0E                push cs
000043AF  088502420D05      or [ebp+0x50d4202],al
000043B5  5E                pop esi
000043B6  C50C04            lds ecx,[esp+eax]
000043B9  0400              add al,0x0
000043BB  002400            add [eax+eax],ah
000043BE  0000              add [eax],al
000043C0  E80A00002C        call 0x2c0043cf
000043C5  E4FF              in al,0xff
000043C7  FFA40000000468    jmp near [eax+eax+0x68040000]
000043CE  CB                retf
000043CF  0408              add al,0x8
000043D1  41                inc ecx
000043D2  0E                push cs
000043D3  088502420D05      or [ebp+0x50d4202],al
000043D9  44                inc esp
000043DA  830302            add dword [ebx],byte +0x2
000043DD  9C                pushf
000043DE  C5                db 0xC5
000043DF  C3                ret
000043E0  0C04              or al,0x4
000043E2  0400              add al,0x0
000043E4  1C00              sbb al,0x0
000043E6  0000              add [eax],al
000043E8  0C0C              or al,0xc
000043EA  0000              add [eax],al
000043EC  A8E4              test al,0xe4
000043EE  FF                db 0xFF
000043EF  FF13              call near [ebx]
000043F1  0000              add [eax],al
000043F3  0000              add [eax],al
000043F5  41                inc ecx
000043F6  0E                push cs
000043F7  088502420D05      or [ebp+0x50d4202],al
000043FD  4F                dec edi
000043FE  C50C04            lds ecx,[esp+eax]
00004401  0400              add al,0x0
00004403  001C00            add [eax+eax],bl
00004406  0000              add [eax],al
00004408  2C0C              sub al,0xc
0000440A  0000              add [eax],al
0000440C  9C                pushf
0000440D  E4FF              in al,0xff
0000440F  FF31              push dword [ecx]
00004411  0000              add [eax],al
00004413  0000              add [eax],al
00004415  41                inc ecx
00004416  0E                push cs
00004417  088502420D05      or [ebp+0x50d4202],al
0000441D  6D                insd
0000441E  C50C04            lds ecx,[esp+eax]
00004421  0400              add al,0x0
00004423  001C00            add [eax+eax],bl
00004426  0000              add [eax],al
00004428  4C                dec esp
00004429  0C00              or al,0x0
0000442B  00AEE4FFFF27      add [esi+0x27ffffe4],ch
00004431  0000              add [eax],al
00004433  0000              add [eax],al
00004435  41                inc ecx
00004436  0E                push cs
00004437  088502420D05      or [ebp+0x50d4202],al
0000443D  61                popa
0000443E  C50C04            lds ecx,[esp+eax]
00004441  0400              add al,0x0
00004443  001C00            add [eax+eax],bl
00004446  0000              add [eax],al
00004448  6C                insb
00004449  0C00              or al,0x0
0000444B  00B6E4FFFF13      add [esi+0x13ffffe4],dh
00004451  0000              add [eax],al
00004453  0000              add [eax],al
00004455  41                inc ecx
00004456  0E                push cs
00004457  088502420D05      or [ebp+0x50d4202],al
0000445D  4F                dec edi
0000445E  C50C04            lds ecx,[esp+eax]
00004461  0400              add al,0x0
00004463  001C00            add [eax+eax],bl
00004466  0000              add [eax],al
00004468  8C0C00            mov [eax+eax],cs
0000446B  00AAE4FFFF05      add [edx+0x5ffffe4],ch
00004471  0000              add [eax],al
00004473  0000              add [eax],al
00004475  41                inc ecx
00004476  0E                push cs
00004477  088502420D05      or [ebp+0x50d4202],al
0000447D  41                inc ecx
0000447E  C50C04            lds ecx,[esp+eax]
00004481  0400              add al,0x0
00004483  001C00            add [eax+eax],bl
00004486  0000              add [eax],al
00004488  AC                lodsb
00004489  0C00              or al,0x0
0000448B  0090E4FFFF22      add [eax+0x22ffffe4],dl
00004491  0000              add [eax],al
00004493  0000              add [eax],al
00004495  41                inc ecx
00004496  0E                push cs
00004497  088502420D05      or [ebp+0x50d4202],al
0000449D  5E                pop esi
0000449E  C50C04            lds ecx,[esp+eax]
000044A1  0400              add al,0x0
000044A3  001C00            add [eax+eax],bl
000044A6  0000              add [eax],al
000044A8  CC                int3
000044A9  0C00              or al,0x0
000044AB  0092E4FFFF0B      add [edx+0xbffffe4],dl
000044B1  0000              add [eax],al
000044B3  0000              add [eax],al
000044B5  41                inc ecx
000044B6  0E                push cs
000044B7  088502420D05      or [ebp+0x50d4202],al
000044BD  47                inc edi
000044BE  C50C04            lds ecx,[esp+eax]
000044C1  0400              add al,0x0
000044C3  001C00            add [eax+eax],bl
000044C6  0000              add [eax],al
000044C8  EC                in al,dx
000044C9  0C00              or al,0x0
000044CB  007EE4            add [esi-0x1c],bh
000044CE  FF                db 0xFF
000044CF  FF7300            push dword [ebx+0x0]
000044D2  0000              add [eax],al
000044D4  00410E            add [ecx+0xe],al
000044D7  088502420D05      or [ebp+0x50d4202],al
000044DD  026DC5            add ch,[ebp-0x3b]
000044E0  0C04              or al,0x4
000044E2  0400              add al,0x0
000044E4  2400              and al,0x0
000044E6  0000              add [eax],al
000044E8  100C00            adc [eax+eax],cl
000044EB  00D2              add dl,dl
000044ED  E4FF              in al,0xff
000044EF  FF37              push dword [edi]
000044F1  0300              add eax,[eax]
000044F3  000488            add [eax+ecx*4],al
000044F6  CB                retf
000044F7  0408              add al,0x8
000044F9  41                inc ecx
000044FA  0E                push cs
000044FB  088502420D05      or [ebp+0x50d4202],al
00004501  44                inc esp
00004502  830303            add dword [ebx],byte +0x3
00004505  2D03C5C30C        sub eax,0xcc3c503
0000450A  0404              add al,0x4
0000450C  1C00              sbb al,0x0
0000450E  0000              add [eax],al
00004510  340D              xor al,0xd
00004512  0000              add [eax],al
00004514  E2E7              loop 0x44fd
00004516  FF                db 0xFF
00004517  FF08              dec dword [eax]
00004519  0000              add [eax],al
0000451B  0000              add [eax],al
0000451D  41                inc ecx
0000451E  0E                push cs
0000451F  088502420D05      or [ebp+0x50d4202],al
00004525  44                inc esp
00004526  C50C04            lds ecx,[esp+eax]
00004529  0400              add al,0x0
0000452B  0028              add [eax],ch
0000452D  0000              add [eax],al
0000452F  00580C            add [eax+0xc],bl
00004532  0000              add [eax],al
00004534  CAE7FF            retf 0xffe7
00004537  FF                db 0xFF
00004538  DB00              fild dword [eax]
0000453A  0000              add [eax],al
0000453C  04AB              add al,0xab
0000453E  CB                retf
0000453F  0408              add al,0x8
00004541  41                inc ecx
00004542  0E                push cs
00004543  088502420D05      or [ebp+0x50d4202],al
00004549  45                inc ebp
0000454A  8603              xchg al,[ebx]
0000454C  830402CE          add dword [edx+eax],byte -0x32
00004550  C3                ret
00004551  41                inc ecx
00004552  C641C50C          mov byte [ecx-0x3b],0xc
00004556  0404              add al,0x4
00004558  1C00              sbb al,0x0
0000455A  0000              add [eax],al
0000455C  800D00007AE8FF    or byte [0xe87a0000],0xff
00004563  FF0500000000      inc dword [0x0]
00004569  41                inc ecx
0000456A  0E                push cs
0000456B  088502420D05      or [ebp+0x50d4202],al
00004571  41                inc ecx
00004572  C50C04            lds ecx,[esp+eax]
00004575  0400              add al,0x0
00004577  001C00            add [eax+eax],bl
0000457A  0000              add [eax],al
0000457C  A00D000060        mov al,[0x6000000d]
00004581  E8FFFF0800        call 0x94585
00004586  0000              add [eax],al
00004588  00410E            add [ecx+0xe],al
0000458B  088502420D05      or [ebp+0x50d4202],al
00004591  44                inc esp
00004592  C50C04            lds ecx,[esp+eax]
00004595  0400              add al,0x0
00004597  001C00            add [eax+eax],bl
0000459A  0000              add [eax],al
0000459C  C00D000048E8FF    ror byte [0xe8480000],0xff
000045A3  FF13              call near [ebx]
000045A5  0000              add [eax],al
000045A7  0000              add [eax],al
000045A9  41                inc ecx
000045AA  0E                push cs
000045AB  088502420D05      or [ebp+0x50d4202],al
000045B1  4F                dec edi
000045B2  C50C04            lds ecx,[esp+eax]
000045B5  0400              add al,0x0
000045B7  001C00            add [eax+eax],bl
000045BA  0000              add [eax],al
000045BC  E00D              loopne 0x45cb
000045BE  0000              add [eax],al
000045C0  3CE8              cmp al,0xe8
000045C2  FF                db 0xFF
000045C3  FF0500000000      inc dword [0x0]
000045C9  41                inc ecx
000045CA  0E                push cs
000045CB  088502420D05      or [ebp+0x50d4202],al
000045D1  41                inc ecx
000045D2  C50C04            lds ecx,[esp+eax]
000045D5  0400              add al,0x0
000045D7  001C00            add [eax+eax],bl
000045DA  0000              add [eax],al
000045DC  000E              add [esi],cl
000045DE  0000              add [eax],al
000045E0  22E8              and ch,al
000045E2  FF                db 0xFF
000045E3  FF13              call near [ebx]
000045E5  0000              add [eax],al
000045E7  0000              add [eax],al
000045E9  41                inc ecx
000045EA  0E                push cs
000045EB  088502420D05      or [ebp+0x50d4202],al
000045F1  4F                dec edi
000045F2  C50C04            lds ecx,[esp+eax]
000045F5  0400              add al,0x0
000045F7  001C00            add [eax+eax],bl
000045FA  0000              add [eax],al
000045FC  200E              and [esi],cl
000045FE  0000              add [eax],al
00004600  15E8FFFF0B        adc eax,0xbffffe8
00004605  0000              add [eax],al
00004607  0000              add [eax],al
00004609  41                inc ecx
0000460A  0E                push cs
0000460B  088502420D05      or [ebp+0x50d4202],al
00004611  47                inc edi
00004612  C50C04            lds ecx,[esp+eax]
00004615  0400              add al,0x0
00004617  001C00            add [eax+eax],bl
0000461A  0000              add [eax],al
0000461C  40                inc eax
0000461D  0E                push cs
0000461E  0000              add [eax],al
00004620  00E8              add al,ch
00004622  FF                db 0xFF
00004623  FF1D00000000      call far [0x0]
00004629  41                inc ecx
0000462A  0E                push cs
0000462B  088502420D05      or [ebp+0x50d4202],al
00004631  59                pop ecx
00004632  C50C04            lds ecx,[esp+eax]
00004635  0400              add al,0x0
00004637  001C00            add [eax+eax],bl
0000463A  0000              add [eax],al
0000463C  60                pusha
0000463D  0E                push cs
0000463E  0000              add [eax],al
00004640  FD                std
00004641  E7FF              out 0xff,eax
00004643  FF0B              dec dword [ebx]
00004645  0000              add [eax],al
00004647  0000              add [eax],al
00004649  41                inc ecx
0000464A  0E                push cs
0000464B  088502420D05      or [ebp+0x50d4202],al
00004651  47                inc edi
00004652  C50C04            lds ecx,[esp+eax]
00004655  0400              add al,0x0
00004657  001C00            add [eax+eax],bl
0000465A  0000              add [eax],al
0000465C  800E00            or byte [esi],0x0
0000465F  00E8              add al,ch
00004661  E7FF              out 0xff,eax
00004663  FF23              jmp near [ebx]
00004665  0000              add [eax],al
00004667  0000              add [eax],al
00004669  41                inc ecx
0000466A  0E                push cs
0000466B  088502420D05      or [ebp+0x50d4202],al
00004671  5F                pop edi
00004672  C50C04            lds ecx,[esp+eax]
00004675  0400              add al,0x0
00004677  002C00            add [eax+eax],ch
0000467A  0000              add [eax],al
0000467C  A4                movsb
0000467D  0D0000ECE7        or eax,0xe7ec0000
00004682  FF                db 0xFF
00004683  FF5500            call near [ebp+0x0]
00004686  0000              add [eax],al
00004688  04B8              add al,0xb8
0000468A  CB                retf
0000468B  0408              add al,0x8
0000468D  41                inc ecx
0000468E  0E                push cs
0000468F  088502420D05      or [ebp+0x50d4202],al
00004695  46                inc esi
00004696  8703              xchg eax,[ebx]
00004698  860483            xchg al,[ebx+eax*4]
0000469B  050248C341        add eax,0x41c34802
000046A0  C641C741          mov byte [ecx-0x39],0x41
000046A4  C50C04            lds ecx,[esp+eax]
000046A7  041C              add al,0x1c
000046A9  0000              add [eax],al
000046AB  00D0              add al,dl
000046AD  0E                push cs
000046AE  0000              add [eax],al
000046B0  12E8              adc ch,al
000046B2  FF                db 0xFF
000046B3  FF0500000000      inc dword [0x0]
000046B9  41                inc ecx
000046BA  0E                push cs
000046BB  088502420D05      or [ebp+0x50d4202],al
000046C1  41                inc ecx
000046C2  C50C04            lds ecx,[esp+eax]
000046C5  0400              add al,0x0
000046C7  001C00            add [eax+eax],bl
000046CA  0000              add [eax],al
000046CC  F00E              lock push cs
000046CE  0000              add [eax],al
000046D0  F8                clc
000046D1  E7FF              out 0xff,eax
000046D3  FF08              dec dword [eax]
000046D5  0000              add [eax],al
000046D7  0000              add [eax],al
000046D9  41                inc ecx
000046DA  0E                push cs
000046DB  088502420D05      or [ebp+0x50d4202],al
000046E1  44                inc esp
000046E2  C50C04            lds ecx,[esp+eax]
000046E5  0400              add al,0x0
000046E7  001C00            add [eax+eax],bl
000046EA  0000              add [eax],al
000046EC  100F              adc [edi],cl
000046EE  0000              add [eax],al
000046F0  E0E7              loopne 0x46d9
000046F2  FF                db 0xFF
000046F3  FF13              call near [ebx]
000046F5  0000              add [eax],al
000046F7  0000              add [eax],al
000046F9  41                inc ecx
000046FA  0E                push cs
000046FB  088502420D05      or [ebp+0x50d4202],al
00004701  4F                dec edi
00004702  C50C04            lds ecx,[esp+eax]
00004705  0400              add al,0x0
00004707  001C00            add [eax+eax],bl
0000470A  0000              add [eax],al
0000470C  300F              xor [edi],cl
0000470E  0000              add [eax],al
00004710  D4E7              aam 0xe7
00004712  FF                db 0xFF
00004713  FF0500000000      inc dword [0x0]
00004719  41                inc ecx
0000471A  0E                push cs
0000471B  088502420D05      or [ebp+0x50d4202],al
00004721  41                inc ecx
00004722  C50C04            lds ecx,[esp+eax]
00004725  0400              add al,0x0
00004727  001C00            add [eax+eax],bl
0000472A  0000              add [eax],al
0000472C  50                push eax
0000472D  0F0000            sldt [eax]
00004730  BAE7FFFF13        mov edx,0x13ffffe7
00004735  0000              add [eax],al
00004737  0000              add [eax],al
00004739  41                inc ecx
0000473A  0E                push cs
0000473B  088502420D05      or [ebp+0x50d4202],al
00004741  4F                dec edi
00004742  C50C04            lds ecx,[esp+eax]
00004745  0400              add al,0x0
00004747  001C00            add [eax+eax],bl
0000474A  0000              add [eax],al
0000474C  700F              jo 0x475d
0000474E  0000              add [eax],al
00004750  AD                lodsd
00004751  E7FF              out 0xff,eax
00004753  FF22              jmp near [edx]
00004755  0000              add [eax],al
00004757  0000              add [eax],al
00004759  41                inc ecx
0000475A  0E                push cs
0000475B  088502420D05      or [ebp+0x50d4202],al
00004761  5E                pop esi
00004762  C50C04            lds ecx,[esp+eax]
00004765  0400              add al,0x0
00004767  001C00            add [eax+eax],bl
0000476A  0000              add [eax],al
0000476C  90                nop
0000476D  0F0000            sldt [eax]
00004770  B0E7              mov al,0xe7
00004772  FF                db 0xFF
00004773  FF21              jmp near [ecx]
00004775  0000              add [eax],al
00004777  0000              add [eax],al
00004779  41                inc ecx
0000477A  0E                push cs
0000477B  088502420D05      or [ebp+0x50d4202],al
00004781  5B                pop ebx
00004782  C50C04            lds ecx,[esp+eax]
00004785  0400              add al,0x0
00004787  001C00            add [eax+eax],bl
0000478A  0000              add [eax],al
0000478C  B00F              mov al,0xf
0000478E  0000              add [eax],al
00004790  B2E7              mov dl,0xe7
00004792  FF                db 0xFF
00004793  FF0B              dec dword [ebx]
00004795  0000              add [eax],al
00004797  0000              add [eax],al
00004799  41                inc ecx
0000479A  0E                push cs
0000479B  088502420D05      or [ebp+0x50d4202],al
000047A1  47                inc edi
000047A2  C50C04            lds ecx,[esp+eax]
000047A5  0400              add al,0x0
000047A7  001C00            add [eax+eax],bl
000047AA  0000              add [eax],al
000047AC  D00F              ror byte [edi],1
000047AE  0000              add [eax],al
000047B0  9D                popf
000047B1  E7FF              out 0xff,eax
000047B3  FF22              jmp near [edx]
000047B5  0000              add [eax],al
000047B7  0000              add [eax],al
000047B9  41                inc ecx
000047BA  0E                push cs
000047BB  088502420D05      or [ebp+0x50d4202],al
000047C1  5E                pop esi
000047C2  C50C04            lds ecx,[esp+eax]
000047C5  0400              add al,0x0
000047C7  001C00            add [eax+eax],bl
000047CA  0000              add [eax],al
000047CC  F00F0000          lock sldt [eax]
000047D0  A0E7FFFF0B        mov al,[0xbffffe7]
000047D5  0000              add [eax],al
000047D7  0000              add [eax],al
000047D9  41                inc ecx
000047DA  0E                push cs
000047DB  088502420D05      or [ebp+0x50d4202],al
000047E1  47                inc edi
000047E2  C50C04            lds ecx,[esp+eax]
000047E5  0400              add al,0x0
000047E7  001C00            add [eax+eax],bl
000047EA  0000              add [eax],al
000047EC  1010              adc [eax],dl
000047EE  0000              add [eax],al
000047F0  8CE7              mov edi,fs
000047F2  FF                db 0xFF
000047F3  FF6101            jmp near [ecx+0x1]
000047F6  0000              add [eax],al
000047F8  00410E            add [ecx+0xe],al
000047FB  088502420D05      or [ebp+0x50d4202],al
00004801  035B01            add ebx,[ebx+0x1]
00004804  C50C04            lds ecx,[esp+eax]
00004807  041C              add al,0x1c
00004809  0000              add [eax],al
0000480B  0030              add [eax],dh
0000480D  1000              adc [eax],al
0000480F  00CE              add dh,cl
00004811  E8FFFF0B00        call 0xc4815
00004816  0000              add [eax],al
00004818  00410E            add [ecx+0xe],al
0000481B  088502420D05      or [ebp+0x50d4202],al
00004821  47                inc edi
00004822  C50C04            lds ecx,[esp+eax]
00004825  0400              add al,0x0
00004827  001C00            add [eax+eax],bl
0000482A  0000              add [eax],al
0000482C  50                push eax
0000482D  1000              adc [eax],al
0000482F  00BAE8FFFF1D      add [edx+0x1dffffe8],bh
00004835  0000              add [eax],al
00004837  0000              add [eax],al
00004839  41                inc ecx
0000483A  0E                push cs
0000483B  088502420D05      or [ebp+0x50d4202],al
00004841  59                pop ecx
00004842  C50C04            lds ecx,[esp+eax]
00004845  0400              add al,0x0
00004847  0020              add [eax],ah
00004849  0000              add [eax],al
0000484B  007010            add [eax+0x10],dh
0000484E  0000              add [eax],al
00004850  B8E8FFFF63        mov eax,0x63ffffe8
00004855  0000              add [eax],al
00004857  0000              add [eax],al
00004859  41                inc ecx
0000485A  0E                push cs
0000485B  088502420D05      or [ebp+0x50d4202],al
00004861  44                inc esp
00004862  830302            add dword [ebx],byte +0x2
00004865  5B                pop ebx
00004866  C5                db 0xC5
00004867  C3                ret
00004868  0C04              or al,0x4
0000486A  0400              add al,0x0
0000486C  1C00              sbb al,0x0
0000486E  0000              add [eax],al
00004870  94                xchg eax,esp
00004871  1000              adc [eax],al
00004873  00F8              add al,bh
00004875  E8FFFF0500        call 0x64879
0000487A  0000              add [eax],al
0000487C  00410E            add [ecx+0xe],al
0000487F  088502420D05      or [ebp+0x50d4202],al
00004885  41                inc ecx
00004886  C50C04            lds ecx,[esp+eax]
00004889  0400              add al,0x0
0000488B  001C00            add [eax+eax],bl
0000488E  0000              add [eax],al
00004890  B410              mov ah,0x10
00004892  0000              add [eax],al
00004894  DEE8              fsubp st0
00004896  FF                db 0xFF
00004897  FF37              push dword [edi]
00004899  0000              add [eax],al
0000489B  0000              add [eax],al
0000489D  41                inc ecx
0000489E  0E                push cs
0000489F  088502420D05      or [ebp+0x50d4202],al
000048A5  73C5              jnc 0x486c
000048A7  0C04              or al,0x4
000048A9  0400              add al,0x0
000048AB  001C00            add [eax+eax],bl
000048AE  0000              add [eax],al
000048B0  D410              aam 0x10
000048B2  0000              add [eax],al
000048B4  F6E8              imul al
000048B6  FF                db 0xFF
000048B7  FF0500000000      inc dword [0x0]
000048BD  41                inc ecx
000048BE  0E                push cs
000048BF  088502420D05      or [ebp+0x50d4202],al
000048C5  41                inc ecx
000048C6  C50C04            lds ecx,[esp+eax]
000048C9  0400              add al,0x0
000048CB  001C00            add [eax+eax],bl
000048CE  0000              add [eax],al
000048D0  F4                hlt
000048D1  1000              adc [eax],al
000048D3  00DB              add bl,bl
000048D5  E8FFFF0B00        call 0xc48d9
000048DA  0000              add [eax],al
000048DC  00410E            add [ecx+0xe],al
000048DF  088502420D05      or [ebp+0x50d4202],al
000048E5  47                inc edi
000048E6  C50C04            lds ecx,[esp+eax]
000048E9  0400              add al,0x0
000048EB  001C00            add [eax+eax],bl
000048EE  0000              add [eax],al
000048F0  1411              adc al,0x11
000048F2  0000              add [eax],al
000048F4  C6                db 0xC6
000048F5  E8FFFF0B00        call 0xc48f9
000048FA  0000              add [eax],al
000048FC  00410E            add [ecx+0xe],al
000048FF  088502420D05      or [ebp+0x50d4202],al
00004905  47                inc edi
00004906  C50C04            lds ecx,[esp+eax]
00004909  0400              add al,0x0
0000490B  001C00            add [eax+eax],bl
0000490E  0000              add [eax],al
00004910  3411              xor al,0x11
00004912  0000              add [eax],al
00004914  B2E8              mov dl,0xe8
00004916  FF                db 0xFF
00004917  FF23              jmp near [ebx]
00004919  0000              add [eax],al
0000491B  0000              add [eax],al
0000491D  41                inc ecx
0000491E  0E                push cs
0000491F  088502420D05      or [ebp+0x50d4202],al
00004925  5F                pop edi
00004926  C50C04            lds ecx,[esp+eax]
00004929  0400              add al,0x0
0000492B  001C00            add [eax+eax],bl
0000492E  0000              add [eax],al
00004930  54                push esp
00004931  1100              adc [eax],eax
00004933  00B6E8FFFF2E      add [esi+0x2effffe8],dh
00004939  0000              add [eax],al
0000493B  0000              add [eax],al
0000493D  41                inc ecx
0000493E  0E                push cs
0000493F  088502420D05      or [ebp+0x50d4202],al
00004945  6AC5              push byte -0x3b
00004947  0C04              or al,0x4
00004949  0400              add al,0x0
0000494B  001C00            add [eax+eax],bl
0000494E  0000              add [eax],al
00004950  7411              jz 0x4963
00004952  0000              add [eax],al
00004954  C4                db 0xC4
00004955  E8FFFF0A00        call 0xb4959
0000495A  0000              add [eax],al
0000495C  00410E            add [ecx+0xe],al
0000495F  088502420D05      or [ebp+0x50d4202],al
00004965  46                inc esi
00004966  C50C04            lds ecx,[esp+eax]
00004969  0400              add al,0x0
0000496B  001C00            add [eax+eax],bl
0000496E  0000              add [eax],al
00004970  94                xchg eax,esp
00004971  1100              adc [eax],eax
00004973  00AEE8FFFF36      add [esi+0x36ffffe8],ch
00004979  0000              add [eax],al
0000497B  0000              add [eax],al
0000497D  41                inc ecx
0000497E  0E                push cs
0000497F  088502420D05      or [ebp+0x50d4202],al
00004985  72C5              jc 0x494c
00004987  0C04              or al,0x4
00004989  0400              add al,0x0
0000498B  001C00            add [eax+eax],bl
0000498E  0000              add [eax],al
00004990  B411              mov ah,0x11
00004992  0000              add [eax],al
00004994  C4                db 0xC4
00004995  E8FFFF0A00        call 0xb4999
0000499A  0000              add [eax],al
0000499C  00410E            add [ecx+0xe],al
0000499F  088502420D05      or [ebp+0x50d4202],al
000049A5  46                inc esi
000049A6  C50C04            lds ecx,[esp+eax]
000049A9  0400              add al,0x0
000049AB  0000              add [eax],al
000049AD  0000              add [eax],al
000049AF  00FF              add bh,bh
000049B1  FF01              inc dword [ecx]
000049B3  8602              xchg al,[edx]
000049B5  2F                das
000049B6  05B812005D        add eax,0x5d0012b8
000049BB  05A4120075        add eax,0x750012a4
000049C0  0592120099        add eax,0x99001292
000049C5  0113              add [ebx],edx
000049C7  8E12              mov ss,[edx]
000049C9  00BF0113FA11      add [edi+0x11fa1301],bh
000049CF  00800205B411      add [eax+0x11b40502],al
000049D5  00A5021EA011      add [ebp+0x11a01e02],ah
000049DB  00E4              add ah,ah
000049DD  0233              add dh,[ebx]
000049DF  8710              xchg edx,[eax]
000049E1  00A80305F80F      add [eax+0xff80503],ch
000049E7  00C7              add bh,al
000049E9  0305E90F00D5      add eax,[0xd5000fe9]
000049EF  0305F80F00E0      add eax,[0xe0000ff8]
000049F5  030587100081      add eax,[0x81001087]
000049FB  0405              add al,0x5
000049FD  A01100B204        mov al,[0x4b20011]
00004A02  33B71000F604      xor esi,[edi+0x4f60010]
00004A08  05A8100095        add eax,0x950010a8
00004A0D  0505991000        add eax,0x109905
00004A12  A30505A810        mov [0x10a80505],eax
00004A17  00AE0505B710      add [esi+0x10b70505],ch
00004A1D  00CF              add bh,cl
00004A1F  0505A01100        add eax,0x11a005
00004A24  F5                cmc
00004A25  0533E41000        add eax,0x10e433
00004A2A  B90605D510        mov ecx,0x10d50506
00004A2F  00D8              add al,bl
00004A31  06                push es
00004A32  05C61000E6        add eax,0xe60010c6
00004A37  06                push es
00004A38  05D51000F1        add eax,0xf10010d5
00004A3D  06                push es
00004A3E  05E4100092        add eax,0x920010e4
00004A43  07                pop es
00004A44  05A01100C3        add eax,0xc30011a0
00004A49  07                pop es
00004A4A  28911100FC07      sub [ecx+0x7fc0011],dl
00004A50  058211009B        add eax,0x9b001182
00004A55  0805F31000A9      or [0xa90010f3],al
00004A5B  0805821100B4      or [0xb4001182],al
00004A61  0805911100CD      or [0xcd001191],al
00004A67  0805B41100E4      or [0xe40011b4],al
00004A6D  0820              or [eax],ah
00004A6F  E811008D09        call 0x98d4a85
00004A74  05D61100A5        add eax,0xa50011d6
00004A79  099701B81100      or [edi+0x11b801],edx
00004A7F  EF                out dx,eax
00004A80  0A64BC11          or ah,[esp+edi*4+0x11]
00004A84  00960C9001C0      add [esi+0xc001900c],dl
00004A8A  1100              adc [eax],eax
00004A8C  FD                std
00004A8D  0D7AC41100        or eax,0x11c47a
00004A92  800F05            or byte [edi],0x5
00004A95  D6                salc
00004A96  1100              adc [eax],eax
00004A98  8E0F              mov cs,[edi]
00004A9A  05E811009C        add eax,0x9c0011e8
00004A9F  0F05              loadall286
00004AA1  FA                cli
00004AA2  1100              adc [eax],eax
00004AA4  AA                stosb
00004AA5  0F05              loadall286
00004AA7  8E12              mov ss,[edx]
00004AA9  00CF              add bh,cl
00004AAB  0F05              loadall286
00004AAD  A4                movsb
00004AAE  1200              adc al,[eax]
00004AB0  DD0F              fisttp dword [edi]
00004AB2  05B81200BB        add eax,0xbb0012b8
00004AB7  12050000FFFF      adc al,[0xffff0000]
00004ABD  0108              add [eax],ecx
00004ABF  1C05              sbb al,0x5
00004AC1  2E004005          add [cs:eax+0x5],al
00004AC5  0000              add [eax],al
00004AC7  FF                db 0xFF
00004AC8  FF01              inc dword [ecx]
00004ACA  081A              or [edx],bl
00004ACC  0552005505        add eax,0x5550052
00004AD1  0000              add [eax],al
00004AD3  FF                db 0xFF
00004AD4  FF01              inc dword [ecx]
00004AD6  0C1A              or al,0x1a
00004AD8  0500003505        add eax,0x5350000
00004ADD  3C00              cmp al,0x0
00004ADF  4E                dec esi
00004AE0  050000FFFF        add eax,0xffff0000
00004AE5  0108              add [eax],ecx
00004AE7  1C05              sbb al,0x5
00004AE9  2E004005          add [cs:eax+0x5],al
00004AED  0000              add [eax],al
00004AEF  FF                db 0xFF
00004AF0  FF01              inc dword [ecx]
00004AF2  151D058E02        adc eax,0x28e051d
00004AF7  0039              add [ecx],bh
00004AF9  3F                aas
00004AFA  830200            add dword [edx],byte +0x0
00004AFD  E501              in eax,0x1
00004AFF  058C020091        add eax,0x9100028c
00004B04  02050000FFFF      add al,[0xffff0000]
00004B0A  010F              add [edi],ecx
00004B0C  2A05B301005F      sub al,[0x5f0001b3]
00004B12  05B50100B8        add eax,0xb80001b5
00004B17  01050000FFFF      add [0xffff0000],eax
00004B1D  0108              add [eax],ecx
00004B1F  33053D004005      xor eax,[0x540003d]
00004B25  0000              add [eax],al
00004B27  FF                db 0xFF
00004B28  FF01              inc dword [ecx]
00004B2A  0C24              or al,0x24
00004B2C  0500003605        add eax,0x5360000
00004B31  5A                pop edx
00004B32  00531E            add [ebx+0x1e],dl
00004B35  0000              add [eax],al
00004B37  FF                db 0xFF
00004B38  FF01              inc dword [ecx]
00004B3A  0B34DE            or esi,[esi+ebx*8]
00004B3D  01DF              add edi,ebx
00004B3F  0200              add al,[eax]
00004B41  E202              loop 0x4b45
00004B43  050000FFFF        add eax,0xffff0000
00004B48  0109              add [ecx],ecx
00004B4A  262EC401          les eax,[cs:ecx]
00004B4E  00715E            add [ecx+0x5e],dh
00004B51  0000              add [eax],al
00004B53  FF                db 0xFF
00004B54  FF01              inc dword [ecx]
00004B56  0F31              rdtsc
00004B58  0580010062        add eax,0x62000180
00004B5D  0582010085        add eax,0x85000182
00004B62  010500000000      add [0x0],eax
00004B68  FF00              inc dword [eax]
00004B6A  1D01130D05        sbb eax,0x50d1301
00004B6F  0000              add [eax],al
00004B71  4B                dec ebx
00004B72  0560038901        add eax,0x1890360
00004B77  058E01009A        add eax,0x9a00018e
00004B7C  010500000100      add [0x10000],eax
00004B82  007D00            add [ebp+0x0],bh
00004B85  0000              add [eax],al
00004B87  00FF              add bh,bh
00004B89  FF01              inc dword [ecx]
00004B8B  1F                pop ds
00004B8C  56                push esi
00004B8D  82                db 0x82
00004B8E  01A50600D502      add [ebp+0x2d50006],esp
00004B94  8F01              pop dword [ecx]
00004B96  A10600F203        mov eax,[0x3f20006]
00004B9B  05A50600F1        add eax,0xf10006a5
00004BA0  0489              add al,0x89
00004BA2  01A30600A806      add [ebx+0x6a80006],esp
00004BA8  050000FFFF        add eax,0xffff0000
00004BAD  0109              add [ecx],ecx
00004BAF  2605C4010071      es add eax,0x710001c4
00004BB5  5E                pop esi
00004BB6  0000              add [eax],al
00004BB8  FF                db 0xFF
00004BB9  FF01              inc dword [ecx]
00004BBB  082C0535004805    or [eax+0x5480035],ch
00004BC2  0000              add [eax],al
00004BC4  FF                db 0xFF
00004BC5  FF                db 0xFF
00004BC6  FF                db 0xFF
00004BC7  FF00              inc dword [eax]
00004BC9  0000              add [eax],al
00004BCB  00FF              add bh,bh
00004BCD  FF                db 0xFF
00004BCE  FF                db 0xFF
00004BCF  FF00              inc dword [eax]
00004BD1  0000              add [eax],al
00004BD3  0000              add [eax],al
00004BD5  0000              add [eax],al
00004BD7  0001              add [ecx],al
00004BD9  0000              add [eax],al
00004BDB  0001              add [ecx],al
00004BDD  0000              add [eax],al
00004BDF  0001              add [ecx],al
00004BE1  0000              add [eax],al
00004BE3  0031              add [ecx],dh
00004BE5  0400              add al,0x0
00004BE7  0001              add [ecx],al
00004BE9  0000              add [eax],al
00004BEB  003B              add [ebx],bh
00004BED  0400              add al,0x0
00004BEF  0001              add [ecx],al
00004BF1  0000              add [eax],al
00004BF3  005804            add [eax+0x4],bl
00004BF6  0000              add [eax],al
00004BF8  0C00              or al,0x0
00004BFA  0000              add [eax],al
00004BFC  048C              add al,0x8c
00004BFE  0408              add al,0x8
00004C00  0D00000008        or eax,0x8000000
00004C05  B304              mov bl,0x4
00004C07  080400            or [eax+eax],al
00004C0A  0000              add [eax],al
00004C0C  6881040805        push dword 0x5080481
00004C11  0000              add [eax],al
00004C13  006085            add [eax-0x7b],ah
00004C16  0408              add al,0x8
00004C18  06                push es
00004C19  0000              add [eax],al
00004C1B  00B08204080A      add [eax+0xa080482],dh
00004C21  0000              add [eax],al
00004C23  00AC0400000B00    add [esp+eax+0xb0000],ch
00004C2A  0000              add [eax],al
00004C2C  1000              adc [eax],al
00004C2E  0000              add [eax],al
00004C30  1500000000        adc eax,0x0
00004C35  0000              add [eax],al
00004C37  0003              add [ebx],al
00004C39  0000              add [eax],al
00004C3B  00BCDC04080200    add [esp+ebx*8+0x20804],bh
00004C42  0000              add [eax],al
00004C44  2801              sub [ecx],al
00004C46  0000              add [eax],al
00004C48  1400              adc al,0x0
00004C4A  0000              add [eax],al
00004C4C  1100              adc [eax],eax
00004C4E  0000              add [eax],al
00004C50  17                pop ss
00004C51  0000              add [eax],al
00004C53  00DC              add ah,bl
00004C55  8A0408            mov al,[eax+ecx]
00004C58  1100              adc [eax],eax
00004C5A  0000              add [eax],al
00004C5C  D48A              aam 0x8a
00004C5E  0408              add al,0x8
00004C60  1200              adc al,[eax]
00004C62  0000              add [eax],al
00004C64  0800              or [eax],al
00004C66  0000              add [eax],al
00004C68  1300              adc eax,[eax]
00004C6A  0000              add [eax],al
00004C6C  0800              or [eax],al
00004C6E  0000              add [eax],al
00004C70  FE                db 0xFE
00004C71  FF                db 0xFF
00004C72  FF6F64            jmp far [edi+0x64]
00004C75  8A0408            mov al,[eax+ecx]
00004C78  FF                db 0xFF
00004C79  FF                db 0xFF
00004C7A  FF6F03            jmp far [edi+0x3]
00004C7D  0000              add [eax],al
00004C7F  00F0              add al,dh
00004C81  FF                db 0xFF
00004C82  FF6F0C            jmp far [edi+0xc]
00004C85  8A0408            mov al,[eax+ecx]
00004C88  0000              add [eax],al
00004C8A  0000              add [eax],al
00004C8C  0000              add [eax],al
00004C8E  0000              add [eax],al
00004C90  0000              add [eax],al
00004C92  0000              add [eax],al
00004C94  0000              add [eax],al
00004C96  0000              add [eax],al
00004C98  0000              add [eax],al
00004C9A  0000              add [eax],al
00004C9C  0000              add [eax],al
00004C9E  0000              add [eax],al
00004CA0  0000              add [eax],al
00004CA2  0000              add [eax],al
00004CA4  0000              add [eax],al
00004CA6  0000              add [eax],al
00004CA8  0000              add [eax],al
00004CAA  0000              add [eax],al
00004CAC  0000              add [eax],al
00004CAE  0000              add [eax],al
00004CB0  0000              add [eax],al
00004CB2  0000              add [eax],al
00004CB4  0000              add [eax],al
00004CB6  0000              add [eax],al
00004CB8  0000              add [eax],al
00004CBA  0000              add [eax],al
00004CBC  D8DB              fcomp st3
00004CBE  0408              add al,0x8
00004CC0  0000              add [eax],al
00004CC2  0000              add [eax],al
00004CC4  0000              add [eax],al
00004CC6  0000              add [eax],al
00004CC8  56                push esi
00004CC9  8C0408            mov [eax+ecx],es
00004CCC  668C0408          o16 mov [eax+ecx],es
00004CD0  768C              jna 0x4c5e
00004CD2  0408              add al,0x8
00004CD4  868C0408968C04    xchg cl,[esp+eax+0x48c9608]
00004CDB  08A68C0408B6      or [esi+0xb608048c],ah
00004CE1  8C0408            mov [eax+ecx],es
00004CE4  C6                db 0xC6
00004CE5  8C0408            mov [eax+ecx],es
00004CE8  D6                salc
00004CE9  8C0408            mov [eax+ecx],es
00004CEC  E68C              out 0x8c,al
00004CEE  0408              add al,0x8
00004CF0  F6                db 0xF6
00004CF1  8C0408            mov [eax+ecx],es
00004CF4  06                push es
00004CF5  8D0408            lea eax,[eax+ecx]
00004CF8  16                push ss
00004CF9  8D0408            lea eax,[eax+ecx]
00004CFC  268D0408          lea eax,[es:eax+ecx]
00004D00  368D0408          lea eax,[ss:eax+ecx]
00004D04  46                inc esi
00004D05  8D0408            lea eax,[eax+ecx]
00004D08  56                push esi
00004D09  8D0408            lea eax,[eax+ecx]
00004D0C  668D0408          lea ax,[eax+ecx]
00004D10  768D              jna 0x4c9f
00004D12  0408              add al,0x8
00004D14  868D0408968D      xchg cl,[ebp+0x8d960804]
00004D1A  0408              add al,0x8
00004D1C  A6                cmpsb
00004D1D  8D0408            lea eax,[eax+ecx]
00004D20  B68D              mov dh,0x8d
00004D22  0408              add al,0x8
00004D24  C6                db 0xC6
00004D25  8D0408            lea eax,[eax+ecx]
00004D28  D6                salc
00004D29  8D0408            lea eax,[eax+ecx]
00004D2C  E68D              out 0x8d,al
00004D2E  0408              add al,0x8
00004D30  F6                db 0xF6
00004D31  8D0408            lea eax,[eax+ecx]
00004D34  06                push es
00004D35  8E0408            mov es,[eax+ecx]
00004D38  16                push ss
00004D39  8E0408            mov es,[eax+ecx]
00004D3C  268E0408          mov es,[es:eax+ecx]
00004D40  368E0408          mov es,[ss:eax+ecx]
00004D44  46                inc esi
00004D45  8E0408            mov es,[eax+ecx]
00004D48  56                push esi
00004D49  8E0408            mov es,[eax+ecx]
00004D4C  668E0408          o16 mov es,[eax+ecx]
00004D50  768E              jna 0x4ce0
00004D52  0408              add al,0x8
00004D54  868E0408968E      xchg cl,[esi+0x8e960804]
00004D5A  0408              add al,0x8
00004D5C  0000              add [eax],al
00004D5E  0000              add [eax],al
00004D60  0000              add [eax],al
00004D62  0000              add [eax],al
00004D64  47                inc edi
00004D65  43                inc ebx
00004D66  43                inc ebx
00004D67  3A20              cmp ah,[eax]
00004D69  285562            sub [ebp+0x62],dl
00004D6C  756E              jnz 0x4ddc
00004D6E  7475              jz 0x4de5
00004D70  20342E            and [esi+ebp],dh
00004D73  342E              xor al,0x2e
00004D75  332D34756275      xor ebp,[0x75627534]
00004D7B  6E                outsb
00004D7C  7475              jz 0x4df3
00004D7E  352920342E        xor eax,0x2e342029
00004D83  342E              xor al,0x2e
00004D85  3300              xor eax,[eax]
00004D87  47                inc edi
00004D88  43                inc ebx
00004D89  43                inc ebx
00004D8A  3A20              cmp ah,[eax]
00004D8C  28474E            sub [edi+0x4e],al
00004D8F  55                push ebp
00004D90  2920              sub [eax],esp
00004D92  342E              xor al,0x2e
00004D94  382E              cmp [esi],ch
00004D96  3100              xor [eax],eax
00004D98  1C00              sbb al,0x0
00004D9A  0000              add [eax],al
00004D9C  0200              add al,[eax]
00004D9E  0000              add [eax],al
00004DA0  0000              add [eax],al
00004DA2  0400              add al,0x0
00004DA4  0000              add [eax],al
00004DA6  0000              add [eax],al
00004DA8  A08E040822        mov al,[0x2208048e]
00004DAD  0000              add [eax],al
00004DAF  0000              add [eax],al
00004DB1  0000              add [eax],al
00004DB3  0000              add [eax],al
00004DB5  0000              add [eax],al
00004DB7  001C00            add [eax+eax],bl
00004DBA  0000              add [eax],al
00004DBC  0200              add al,[eax]
00004DBE  0E                push cs
00004DBF  0100              add [eax],eax
00004DC1  000400            add [eax+eax],al
00004DC4  0000              add [eax],al
00004DC6  0000              add [eax],al
00004DC8  70B2              jo 0x4d7c
00004DCA  0408              add al,0x8
00004DCC  6A00              push byte +0x0
00004DCE  0000              add [eax],al
00004DD0  0000              add [eax],al
00004DD2  0000              add [eax],al
00004DD4  0000              add [eax],al
00004DD6  0000              add [eax],al
00004DD8  2100              and [eax],eax
00004DDA  0000              add [eax],al
00004DDC  0200              add al,[eax]
00004DDE  810000008D00      add dword [eax],0x8d0000
00004DE4  0000              add [eax],al
00004DE6  7500              jnz 0x4de8
00004DE8  0000              add [eax],al
00004DEA  5F                pop edi
00004DEB  49                dec ecx
00004DEC  4F                dec edi
00004DED  5F                pop edi
00004DEE  7374              jnc 0x4e64
00004DF0  64696E5F75736564  imul ebp,[fs:esi+0x5f],dword 0x64657375
00004DF8  0000              add [eax],al
00004DFA  0000              add [eax],al
00004DFC  0036              add [esi],dh
00004DFE  0000              add [eax],al
00004E00  0002              add [edx],al
00004E02  000E              add [esi],cl
00004E04  0100              add [eax],eax
00004E06  0013              add [ebx],dl
00004E08  0100              add [eax],eax
00004E0A  003E              add [esi],bh
00004E0C  0000              add [eax],al
00004E0E  005F5F            add [edi+0x5f],bl
00004E11  6C                insb
00004E12  6962635F637375    imul esp,[edx+0x63],dword 0x7573635f
00004E19  5F                pop edi
00004E1A  66696E690053      imul bp,[esi+0x69],word 0x5300
00004E20  0000              add [eax],al
00004E22  005F5F            add [edi+0x5f],bl
00004E25  6C                insb
00004E26  6962635F637375    imul esp,[edx+0x63],dword 0x7573635f
00004E2D  5F                pop edi
00004E2E  696E6974000000    imul ebp,[esi+0x69],dword 0x74
00004E35  0000              add [eax],al
00004E37  7D00              jnl 0x4e39
00004E39  0000              add [eax],al
00004E3B  0200              add al,[eax]
00004E3D  0000              add [eax],al
00004E3F  0000              add [eax],al
00004E41  0401              add al,0x1
00004E43  0000              add [eax],al
00004E45  0000              add [eax],al
00004E47  A08E0408C2        mov al,[0xc208048e]
00004E4C  8E0408            mov es,[eax+ecx]
00004E4F  2E2E2F            cs das
00004E52  7379              jnc 0x4ecd
00004E54  7364              jnc 0x4eba
00004E56  657073            gs jo 0x4ecc
00004E59  2F                das
00004E5A  693338362F65      imul esi,[ebx],dword 0x652f3638
00004E60  6C                insb
00004E61  662F              o16 das
00004E63  7374              jnc 0x4ed9
00004E65  61                popa
00004E66  7274              jc 0x4edc
00004E68  2E53              cs push ebx
00004E6A  002F              add [edi],ch
00004E6C  686F6D652F        push dword 0x2f656d6f
00004E71  7069              jo 0x4edc
00004E73  657272            gs jc 0x4ee8
00004E76  652F              gs das
00004E78  42                inc edx
00004E79  7572              jnz 0x4eed
00004E7B  6561              gs popa
00004E7D  752F              jnz 0x4eae
00004E7F  6865616465        push dword 0x65646165
00004E84  7273              jc 0x4ef9
00004E86  2D676C6962        sub eax,0x62696c67
00004E8B  632D666F722D      arpl [0x2d726f66],bp
00004E91  6C                insb
00004E92  696E75782F676C    imul ebp,[esi+0x75],dword 0x6c672f78
00004E99  6962632D322E31    imul esp,[edx+0x63],dword 0x312e322d
00004EA0  322E              xor ch,[esi]
00004EA2  322F              xor ch,[edi]
00004EA4  637375            arpl [ebx+0x75],si
00004EA7  00474E            add [edi+0x4e],al
00004EAA  55                push ebp
00004EAB  204153            and [ecx+0x53],al
00004EAE  2032              and [edx],dh
00004EB0  2E3230            xor dh,[cs:eax]
00004EB3  2E3100            xor [cs:eax],eax
00004EB6  018089000000      add [eax+0x89],eax
00004EBC  0200              add al,[eax]
00004EBE  1400              adc al,0x0
00004EC0  0000              add [eax],al
00004EC2  0401              add al,0x1
00004EC4  8E00              mov es,[eax]
00004EC6  0000              add [eax],al
00004EC8  01CD              add ebp,ecx
00004ECA  0000              add [eax],al
00004ECC  004300            add [ebx+0x0],al
00004ECF  0000              add [eax],al
00004ED1  C48E0408C48E      les ecx,[esi+0x8ec40804]
00004ED7  0408              add al,0x8
00004ED9  5B                pop ebx
00004EDA  0000              add [eax],al
00004EDC  0002              add [edx],al
00004EDE  0108              add [eax],ecx
00004EE0  800000            add byte [eax],0x0
00004EE3  0002              add [edx],al
00004EE5  0207              add al,[edi]
00004EE7  0000              add [eax],al
00004EE9  0000              add [eax],al
00004EEB  020407            add al,[edi+eax]
00004EEE  360000            add [ss:eax],al
00004EF1  0002              add [edx],al
00004EF3  0407              add al,0x7
00004EF5  3100              xor [eax],eax
00004EF7  0000              add [eax],al
00004EF9  0201              add al,[ecx]
00004EFB  06                push es
00004EFC  82                db 0x82
00004EFD  0000              add [eax],al
00004EFF  0002              add [edx],al
00004F01  020513000000      add al,[0x13]
00004F07  030405696E7400    add eax,[eax+0x746e69]
00004F0E  0208              add cl,[eax]
00004F10  059A000000        add eax,0x9a
00004F15  0208              add cl,[eax]
00004F17  07                pop es
00004F18  2C00              sub al,0x0
00004F1A  0000              add [eax],al
00004F1C  0204059F000000    add al,[eax+0x9f]
00004F23  0404              add al,0x4
00004F25  07                pop es
00004F26  0201              add al,[ecx]
00004F28  06                push es
00004F29  8900              mov [eax],eax
00004F2B  0000              add [eax],al
00004F2D  051D000000        add eax,0x1d
00004F32  0119              add [ecx],ebx
00004F34  8700              xchg eax,[eax]
00004F36  0000              add [eax],al
00004F38  01050328B304      add [0x4b32803],eax
00004F3E  0806              or [esi],al
00004F40  4F                dec edi
00004F41  0000              add [eax],al
00004F43  0000              add [eax],al
00004F45  0F0100            sgdt [eax]
00004F48  0002              add [edx],al
00004F4A  005F00            add [edi+0x0],bl
00004F4D  0000              add [eax],al
00004F4F  0401              add al,0x1
00004F51  8E00              mov es,[eax]
00004F53  0000              add [eax],al
00004F55  01C9              add ecx,ecx
00004F57  0000              add [eax],al
00004F59  004300            add [ebx+0x0],al
00004F5C  0000              add [eax],al
00004F5E  70B2              jo 0x4f12
00004F60  0408              add al,0x8
00004F62  DAB204088200      fidiv dword [edx+0x820804]
00004F68  0000              add [eax],al
00004F6A  020405696E7400    add al,[eax+0x746e69]
00004F71  03AD00000002      add ebp,[ebp+0x2000000]
00004F77  D3                db 0xD3
00004F78  37                aaa
00004F79  0000              add [eax],al
00004F7B  000404            add [esp+eax],al
00004F7E  07                pop es
00004F7F  360000            add [ss:eax],al
00004F82  000501FD0000      add [0xfd01],al
00004F88  0001              add [ecx],al
00004F8A  830170            add dword [ecx],byte +0x70
00004F8D  B204              mov dl,0x4
00004F8F  0875B2            or [ebp-0x4e],dh
00004F92  0408              add al,0x8
00004F94  0000              add [eax],al
00004F96  0000              add [eax],al
00004F98  06                push es
00004F99  01B900000001      add [ecx+0x1000000],edi
00004F9F  690180B20408      imul eax,[ecx],dword 0x804b280
00004FA5  DAB204082C00      fidiv dword [edx+0x2c0804]
00004FAB  0000              add [eax],al
00004FAD  B900000007        mov ecx,0x7000000
00004FB2  B400              mov ah,0x0
00004FB4  0000              add [eax],al
00004FB6  016925            add [ecx+0x25],ebp
00004FB9  0000              add [eax],al
00004FBB  0002              add [edx],al
00004FBD  91                xchg eax,ecx
00004FBE  0007              add [edi],al
00004FC0  0D01000001        or eax,0x1000001
00004FC5  69B9000000029104  imul edi,[ecx+0x2000000],dword 0xa8070491
         -07A8
00004FCF  0000              add [eax],al
00004FD1  0001              add [ecx],al
00004FD3  69B9000000029108  imul edi,[ecx+0x2000000],dword 0xe7080891
         -08E7
00004FDD  0000              add [eax],al
00004FDF  0001              add [ecx],al
00004FE1  7ACC              jpe 0x4faf
00004FE3  0000              add [eax],al
00004FE5  0009              add [ecx],cl
00004FE7  99                cdq
00004FE8  B204              mov dl,0x4
00004FEA  08D2              or dl,dl
00004FEC  B204              mov dl,0x4
00004FEE  080A              or [edx],cl
00004FF0  6900017B2C00      imul eax,[eax],dword 0x2c7b01
00004FF6  0000              add [eax],al
00004FF8  58                pop eax
00004FF9  0000              add [eax],al
00004FFB  0000              add [eax],al
00004FFD  000B              add [ebx],cl
00004FFF  04BF              add al,0xbf
00005001  0000              add [eax],al
00005003  000B              add [ebx],cl
00005005  04C5              add al,0xc5
00005007  0000              add [eax],al
00005009  000401            add [ecx+eax],al
0000500C  06                push es
0000500D  8900              mov [eax],eax
0000500F  0000              add [eax],al
00005011  0C2C              or al,0x2c
00005013  0000              add [eax],al
00005015  000DF2000000      add [0xf2],cl
0000501B  DC00              fadd qword [eax]
0000501D  0000              add [eax],al
0000501F  0E                push cs
00005020  000F              add [edi],cl
00005022  01F2              add edx,esi
00005024  0000              add [eax],al
00005026  0010              add [eax],dl
00005028  2500000010        and eax,0x10000000
0000502D  B900000010        mov ecx,0x10000000
00005032  B900000000        mov ecx,0x0
00005037  0B04DC            or eax,[esp+ebx*8]
0000503A  0000              add [eax],al
0000503C  0011              add [ecx],dl
0000503E  D400              aam 0x0
00005040  0000              add [eax],al
00005042  013B              add [ebx],edi
00005044  D100              rol dword [eax],1
00005046  0000              add [eax],al
00005048  0101              add [ecx],eax
0000504A  11EC              adc esp,ebp
0000504C  0000              add [eax],al
0000504E  0001              add [ecx],al
00005050  3DD1000000        cmp eax,0xd1
00005055  0101              add [ecx],eax
00005057  0001              add [ecx],al
00005059  1100              adc [eax],eax
0000505B  1006              adc [esi],al
0000505D  1101              adc [ecx],eax
0000505F  1201              adc al,[ecx]
00005061  0308              add ecx,[eax]
00005063  1B08              sbb ecx,[eax]
00005065  2508130500        and eax,0x51308
0000506A  0000              add [eax],al
0000506C  0111              add [ecx],edx
0000506E  01250E130B03      add [0x30b130e],esp
00005074  0E                push cs
00005075  1B0E              sbb ecx,[esi]
00005077  1101              adc [ecx],eax
00005079  1201              adc al,[ecx]
0000507B  1006              adc [esi],al
0000507D  0000              add [eax],al
0000507F  022400            add ah,[eax+eax]
00005082  0B0B              or ecx,[ebx]
00005084  3E0B03            or eax,[ds:ebx]
00005087  0E                push cs
00005088  0000              add [eax],al
0000508A  032400            add esp,[eax+eax]
0000508D  0B0B              or ecx,[ebx]
0000508F  3E0B03            or eax,[ds:ebx]
00005092  0800              or [eax],al
00005094  000424            add [esp],al
00005097  000B              add [ebx],cl
00005099  0B3E              or edi,[esi]
0000509B  0B00              or eax,[eax]
0000509D  00053400030E      add [0xe030034],al
000050A3  3A0B              cmp cl,[ebx]
000050A5  3B0B              cmp ecx,[ebx]
000050A7  49                dec ecx
000050A8  133F              adc edi,[edi]
000050AA  0C02              or al,0x2
000050AC  0A00              or al,[eax]
000050AE  0006              add [esi],al
000050B0  26004913          add [es:ecx+0x13],cl
000050B4  0000              add [eax],al
000050B6  0001              add [ecx],al
000050B8  1101              adc [ecx],eax
000050BA  250E130B03        and eax,0x30b130e
000050BF  0E                push cs
000050C0  1B0E              sbb ecx,[esi]
000050C2  1101              adc [ecx],eax
000050C4  1201              adc al,[ecx]
000050C6  1006              adc [esi],al
000050C8  0000              add [eax],al
000050CA  022400            add ah,[eax+eax]
000050CD  0B0B              or ecx,[ebx]
000050CF  3E0B03            or eax,[ds:ebx]
000050D2  0800              or [eax],al
000050D4  0003              add [ebx],al
000050D6  16                push ss
000050D7  0003              add [ebx],al
000050D9  0E                push cs
000050DA  3A0B              cmp cl,[ebx]
000050DC  3B0B              cmp ecx,[ebx]
000050DE  49                dec ecx
000050DF  1300              adc eax,[eax]
000050E1  000424            add [esp],al
000050E4  000B              add [ebx],cl
000050E6  0B3E              or edi,[esi]
000050E8  0B03              or eax,[ebx]
000050EA  0E                push cs
000050EB  0000              add [eax],al
000050ED  052E003F0C        add eax,0xc3f002e
000050F2  030E              add ecx,[esi]
000050F4  3A0B              cmp cl,[ebx]
000050F6  3B0B              cmp ecx,[ebx]
000050F8  27                daa
000050F9  0C11              or al,0x11
000050FB  0112              add [edx],edx
000050FD  014006            add [eax+0x6],eax
00005100  0000              add [eax],al
00005102  06                push es
00005103  2E013F            add [cs:edi],edi
00005106  0C03              or al,0x3
00005108  0E                push cs
00005109  3A0B              cmp cl,[ebx]
0000510B  3B0B              cmp ecx,[ebx]
0000510D  27                daa
0000510E  0C11              or al,0x11
00005110  0112              add [edx],edx
00005112  014006            add [eax+0x6],eax
00005115  0113              add [ebx],edx
00005117  0000              add [eax],al
00005119  07                pop es
0000511A  0500030E3A        add eax,0x3a0e0300
0000511F  0B3B              or edi,[ebx]
00005121  0B4913            or ecx,[ecx+0x13]
00005124  020A              add cl,[edx]
00005126  0000              add [eax],al
00005128  083400            or [eax+eax],dh
0000512B  030E              add ecx,[esi]
0000512D  3A0B              cmp cl,[ebx]
0000512F  3B0B              cmp ecx,[ebx]
00005131  49                dec ecx
00005132  1300              adc eax,[eax]
00005134  0009              add [ecx],cl
00005136  0B01              or eax,[ecx]
00005138  1101              adc [ecx],eax
0000513A  1201              adc al,[ecx]
0000513C  0000              add [eax],al
0000513E  0A3400            or dh,[eax+eax]
00005141  0308              add ecx,[eax]
00005143  3A0B              cmp cl,[ebx]
00005145  3B0B              cmp ecx,[ebx]
00005147  49                dec ecx
00005148  1302              adc eax,[edx]
0000514A  06                push es
0000514B  0000              add [eax],al
0000514D  0B0F              or ecx,[edi]
0000514F  000B              add [ebx],cl
00005151  0B4913            or ecx,[ecx+0x13]
00005154  0000              add [eax],al
00005156  0C26              or al,0x26
00005158  004913            add [ecx+0x13],cl
0000515B  0000              add [eax],al
0000515D  0D01014913        or eax,0x13490101
00005162  0113              add [ebx],edx
00005164  0000              add [eax],al
00005166  0E                push cs
00005167  2100              and [eax],eax
00005169  0000              add [eax],al
0000516B  0F1501            unpckhps xmm0,[ecx]
0000516E  27                daa
0000516F  0C01              or al,0x1
00005171  1300              adc eax,[eax]
00005173  0010              add [eax],dl
00005175  0500491300        add eax,0x134900
0000517A  0011              add [ecx],dl
0000517C  3400              xor al,0x0
0000517E  030E              add ecx,[esi]
00005180  3A0B              cmp cl,[ebx]
00005182  3B0B              cmp ecx,[ebx]
00005184  49                dec ecx
00005185  133F              adc edi,[edi]
00005187  0C3C              or al,0x3c
00005189  0C00              or al,0x0
0000518B  0000              add [eax],al
0000518D  57                push edi
0000518E  0000              add [eax],al
00005190  0002              add [edx],al
00005192  0032              add [edx],dh
00005194  0000              add [eax],al
00005196  0001              add [ecx],al
00005198  01FB              add ebx,edi
0000519A  0E                push cs
0000519B  0D00010101        or eax,0x1010100
000051A0  0100              add [eax],eax
000051A2  0000              add [eax],al
000051A4  0100              add [eax],eax
000051A6  0001              add [ecx],al
000051A8  2E2E2F            cs das
000051AB  7379              jnc 0x5226
000051AD  7364              jnc 0x5213
000051AF  657073            gs jo 0x5225
000051B2  2F                das
000051B3  693338362F65      imul esi,[ebx],dword 0x652f3638
000051B9  6C                insb
000051BA  660000            o16 add [eax],al
000051BD  7374              jnc 0x5233
000051BF  61                popa
000051C0  7274              jc 0x5236
000051C2  2E53              cs push ebx
000051C4  0001              add [ecx],al
000051C6  0000              add [eax],al
000051C8  0000              add [eax],al
000051CA  0502A08E04        add eax,0x48ea002
000051CF  0803              or [ebx],al
000051D1  C00001            rol byte [eax],0x1
000051D4  3321              xor esp,[ecx]
000051D6  343D              xor al,0x3d
000051D8  2522031820        and eax,0x20180322
000051DD  59                pop ecx
000051DE  5A                pop edx
000051DF  2122              and [edx],esp
000051E1  5C                pop esp
000051E2  5B                pop ebx
000051E3  0201              add al,[ecx]
000051E5  0001              add [ecx],al
000051E7  0123              add [ebx],esp
000051E9  0000              add [eax],al
000051EB  0002              add [edx],al
000051ED  001D00000001      add [0x1000000],bl
000051F3  01FB              add ebx,edi
000051F5  0E                push cs
000051F6  0D00010101        or eax,0x1010100
000051FB  0100              add [eax],eax
000051FD  0000              add [eax],al
000051FF  0100              add [eax],eax
00005201  0001              add [ecx],al
00005203  00696E            add [ecx+0x6e],ch
00005206  69742E6300000000  imul esi,[esi+ebp+0x63],dword 0x0
0000520E  007B00            add [ebx+0x0],bh
00005211  0000              add [eax],al
00005213  0200              add al,[eax]
00005215  57                push edi
00005216  0000              add [eax],al
00005218  0001              add [ecx],al
0000521A  01FB              add ebx,edi
0000521C  0E                push cs
0000521D  0D00010101        or eax,0x1010100
00005222  0100              add [eax],eax
00005224  0000              add [eax],al
00005226  0100              add [eax],eax
00005228  0001              add [ecx],al
0000522A  2F                das
0000522B  7573              jnz 0x52a0
0000522D  722F              jc 0x525e
0000522F  6C                insb
00005230  69622F6763632F    imul esp,[edx+0x2f],dword 0x2f636367
00005237  693438362D6C69    imul esi,[eax+edi],dword 0x696c2d36
0000523E  6E                outsb
0000523F  7578              jnz 0x52b9
00005241  2D676E752F        sub eax,0x2f756e67
00005246  342E              xor al,0x2e
00005248  342E              xor al,0x2e
0000524A  332F              xor ebp,[edi]
0000524C  696E636C756465    imul ebp,[esi+0x63],dword 0x6564756c
00005253  0000              add [eax],al
00005255  656C              gs insb
00005257  662D696E          sub ax,0x6e69
0000525B  69742E6300000000  imul esi,[esi+ebp+0x63],dword 0x0
00005263  7374              jnc 0x52d9
00005265  646465662E680001  cs push word 0x100
0000526D  0000              add [eax],al
0000526F  0000              add [eax],al
00005271  050270B204        add eax,0x4b27002
00005276  0803              or [ebx],al
00005278  830101            add dword [ecx],byte +0x1
0000527B  44                inc esp
0000527C  035EC8            add ebx,[esi-0x38]
0000527F  030E              add ecx,[esi]
00005281  083C5B            or [ebx+ebx*2],bh
00005284  086708            or [edi+0x8],ah
00005287  9D                popf
00005288  7602              jna 0x528c
0000528A  0800              or [eax],al
0000528C  0101              add [ecx],eax
0000528E  0000              add [eax],al
00005290  1000              adc [eax],al
00005292  0000              add [eax],al
00005294  FF                db 0xFF
00005295  FF                db 0xFF
00005296  FF                db 0xFF
00005297  FF01              inc dword [ecx]
00005299  0001              add [ecx],al
0000529B  7C08              jl 0x52a5
0000529D  0C04              or al,0x4
0000529F  0488              add al,0x88
000052A1  0100              add [eax],eax
000052A3  001400            add [eax+eax],dl
000052A6  0000              add [eax],al
000052A8  0000              add [eax],al
000052AA  0000              add [eax],al
000052AC  70B2              jo 0x5260
000052AE  0408              add al,0x8
000052B0  0500000041        add eax,0x41000000
000052B5  0E                push cs
000052B6  084285            or [edx-0x7b],al
000052B9  020D051C0000      add cl,[0x1c05]
000052BF  0000              add [eax],al
000052C1  0000              add [eax],al
000052C3  0080B204085A      add [eax+0x5a0804b2],al
000052C9  0000              add [eax],al
000052CB  00410E            add [ecx+0xe],al
000052CE  084285            or [edx-0x7b],al
000052D1  020D054E8305      add cl,[0x5834e05]
000052D7  860487            xchg al,[edi+eax*4]
000052DA  0300              add eax,[eax]
000052DC  7368              jnc 0x5346
000052DE  6F                outsd
000052DF  7274              jc 0x5355
000052E1  20756E            and [ebp+0x6e],dh
000052E4  7369              jnc 0x534f
000052E6  676E              a16 outsb
000052E8  656420696E        and [fs:ecx+0x6e],ch
000052ED  7400              jz 0x52ef
000052EF  7368              jnc 0x5359
000052F1  6F                outsd
000052F2  7274              jc 0x5368
000052F4  20696E            and [ecx+0x6e],ch
000052F7  7400              jz 0x52f9
000052F9  5F                pop edi
000052FA  49                dec ecx
000052FB  4F                dec edi
000052FC  5F                pop edi
000052FD  7374              jnc 0x5373
000052FF  64696E5F75736564  imul ebp,[fs:esi+0x5f],dword 0x64657375
00005307  006C6F6E          add [edi+ebp*2+0x6e],ch
0000530B  67206C6F          and [si+0x6f],ch
0000530F  6E                outsb
00005310  6720756E          and [di+0x6e],dh
00005314  7369              jnc 0x537f
00005316  676E              a16 outsb
00005318  656420696E        and [fs:ecx+0x6e],ch
0000531D  7400              jz 0x531f
0000531F  2F                das
00005320  686F6D652F        push dword 0x2f656d6f
00005325  7069              jo 0x5390
00005327  657272            gs jc 0x539c
0000532A  652F              gs das
0000532C  42                inc edx
0000532D  7572              jnz 0x53a1
0000532F  6561              gs popa
00005331  752F              jnz 0x5362
00005333  6865616465        push dword 0x65646165
00005338  7273              jc 0x53ad
0000533A  2D676C6962        sub eax,0x62696c67
0000533F  632D666F722D      arpl [0x2d726f66],bp
00005345  6C                insb
00005346  696E75782F676C    imul ebp,[esi+0x75],dword 0x6c672f78
0000534D  6962632D322E31    imul esp,[edx+0x63],dword 0x312e322d
00005354  322E              xor ch,[esi]
00005356  322F              xor ch,[edi]
00005358  637375            arpl [ebx+0x75],si
0000535B  00756E            add [ebp+0x6e],dh
0000535E  7369              jnc 0x53c9
00005360  676E              a16 outsb
00005362  6564206368        and [fs:ebx+0x68],ah
00005367  61                popa
00005368  7200              jc 0x536a
0000536A  47                inc edi
0000536B  4E                dec esi
0000536C  55                push ebp
0000536D  204320            and [ebx+0x20],al
00005370  342E              xor al,0x2e
00005372  342E              xor al,0x2e
00005374  3300              xor eax,[eax]
00005376  6C                insb
00005377  6F                outsd
00005378  6E                outsb
00005379  67206C6F          and [si+0x6f],ch
0000537D  6E                outsb
0000537E  6720696E          and [bx+di+0x6e],ch
00005382  7400              jz 0x5384
00005384  656E              gs outsb
00005386  7670              jna 0x53f8
00005388  007369            add [ebx+0x69],dh
0000538B  7A65              jpe 0x53f2
0000538D  5F                pop edi
0000538E  7400              jz 0x5390
00005390  61                popa
00005391  7267              jc 0x53fa
00005393  6300              arpl [eax],ax
00005395  5F                pop edi
00005396  5F                pop edi
00005397  6C                insb
00005398  6962635F637375    imul esp,[edx+0x63],dword 0x7573635f
0000539F  5F                pop edi
000053A0  696E697400656C    imul ebp,[esi+0x69],dword 0x6c650074
000053A7  662D696E          sub ax,0x6e69
000053AB  69742E63005F5F69  imul esi,[esi+ebp+0x63],dword 0x695f5f00
000053B3  6E                outsb
000053B4  69745F6172726179  imul esi,[edi+ebx*2+0x61],dword 0x79617272
000053BC  5F                pop edi
000053BD  7374              jnc 0x5433
000053BF  61                popa
000053C0  7274              jc 0x5436
000053C2  007369            add [ebx+0x69],dh
000053C5  7A65              jpe 0x542c
000053C7  005F5F            add [edi+0x5f],bl
000053CA  696E69745F6172    imul ebp,[esi+0x69],dword 0x72615f74
000053D1  7261              jc 0x5434
000053D3  795F              jns 0x5434
000053D5  656E              gs outsb
000053D7  64005F5F          add [fs:edi+0x5f],bl
000053DB  6C                insb
000053DC  6962635F637375    imul esp,[edx+0x63],dword 0x7573635f
000053E3  5F                pop edi
000053E4  66696E690061      imul bp,[esi+0x69],word 0x6100
000053EA  7267              jc 0x5453
000053EC  7600              jna 0x53ee
000053EE  0000              add [eax],al
000053F0  0000              add [eax],al
000053F2  0100              add [eax],eax
000053F4  0000              add [eax],al
000053F6  0200              add al,[eax]
000053F8  7404              jz 0x53fe
000053FA  0100              add [eax],eax
000053FC  0000              add [eax],al
000053FE  0300              add eax,[eax]
00005400  0000              add [eax],al
00005402  0200              add al,[eax]
00005404  7408              jz 0x540e
00005406  0300              add eax,[eax]
00005408  0000              add [eax],al
0000540A  0500000002        add eax,0x2000000
0000540F  007508            add [ebp+0x8],dh
00005412  0000              add [eax],al
00005414  0000              add [eax],al
00005416  0000              add [eax],al
00005418  0000              add [eax],al
0000541A  1000              adc [eax],al
0000541C  0000              add [eax],al
0000541E  1100              adc [eax],eax
00005420  0000              add [eax],al
00005422  0200              add al,[eax]
00005424  7404              jz 0x542a
00005426  1100              adc [eax],eax
00005428  0000              add [eax],al
0000542A  1300              adc eax,[eax]
0000542C  0000              add [eax],al
0000542E  0200              add al,[eax]
00005430  7408              jz 0x543a
00005432  1300              adc eax,[eax]
00005434  0000              add [eax],al
00005436  6A00              push byte +0x0
00005438  0000              add [eax],al
0000543A  0200              add al,[eax]
0000543C  7508              jnz 0x5446
0000543E  0000              add [eax],al
00005440  0000              add [eax],al
00005442  0000              add [eax],al
00005444  0000              add [eax],al
00005446  40                inc eax
00005447  0000              add [eax],al
00005449  006700            add [edi+0x0],ah
0000544C  0000              add [eax],al
0000544E  0100              add [eax],eax
00005450  56                push esi
00005451  0000              add [eax],al
00005453  0000              add [eax],al
00005455  0000              add [eax],al
00005457  0000              add [eax],al
00005459  002E              add [esi],ch
0000545B  7379              jnc 0x54d6
0000545D  6D                insd
0000545E  7461              jz 0x54c1
00005460  6200              bound eax,[eax]
00005462  2E7374            cs jnc 0x54d9
00005465  7274              jc 0x54db
00005467  61                popa
00005468  6200              bound eax,[eax]
0000546A  2E7368            cs jnc 0x54d5
0000546D  7374              jnc 0x54e3
0000546F  7274              jc 0x54e5
00005471  61                popa
00005472  6200              bound eax,[eax]
00005474  2E696E7465727000  imul ebp,[cs:esi+0x74],dword 0x707265
0000547C  2E6E              cs outsb
0000547E  6F                outsd
0000547F  7465              jz 0x54e6
00005481  2E41              cs inc ecx
00005483  42                inc edx
00005484  49                dec ecx
00005485  2D74616700        sub eax,0x676174
0000548A  2E6861736800      cs push dword 0x687361
00005490  2E64796E          fs jns 0x5502
00005494  7379              jnc 0x550f
00005496  6D                insd
00005497  002E              add [esi],ch
00005499  64796E            fs jns 0x550a
0000549C  7374              jnc 0x5512
0000549E  7200              jc 0x54a0
000054A0  2E676E            cs a16 outsb
000054A3  752E              jnz 0x54d3
000054A5  7665              jna 0x550c
000054A7  7273              jc 0x551c
000054A9  696F6E002E676E    imul ebp,[edi+0x6e],dword 0x6e672e00
000054B0  752E              jnz 0x54e0
000054B2  7665              jna 0x5519
000054B4  7273              jc 0x5529
000054B6  696F6E5F72002E    imul ebp,[edi+0x6e],dword 0x2e00725f
000054BD  7265              jc 0x5524
000054BF  6C                insb
000054C0  2E64796E          fs jns 0x5532
000054C4  002E              add [esi],ch
000054C6  7265              jc 0x552d
000054C8  6C                insb
000054C9  2E706C            cs jo 0x5538
000054CC  7400              jz 0x54ce
000054CE  2E696E6974002E74  imul ebp,[cs:esi+0x69],dword 0x742e0074
000054D6  657874            gs js 0x554d
000054D9  002E              add [esi],ch
000054DB  66696E69002E      imul bp,[esi+0x69],word 0x2e00
000054E1  726F              jc 0x5552
000054E3  6461              fs popa
000054E5  7461              jz 0x5548
000054E7  002E              add [esi],ch
000054E9  65685F667261      gs push dword 0x6172665f
000054EF  6D                insd
000054F0  655F              gs pop edi
000054F2  686472002E        push dword 0x2e007264
000054F7  65685F667261      gs push dword 0x6172665f
000054FD  6D                insd
000054FE  65002E            add [gs:esi],ch
00005501  6763635F          arpl [bp+di+0x5f],sp
00005505  657863            gs js 0x556b
00005508  657074            gs jo 0x557f
0000550B  5F                pop edi
0000550C  7461              jz 0x556f
0000550E  626C6500          bound ebp,[ebp+0x0]
00005512  2E63746F72        arpl [cs:edi+ebp*2+0x72],si
00005517  7300              jnc 0x5519
00005519  2E64746F          fs jz 0x558c
0000551D  7273              jc 0x5592
0000551F  002E              add [esi],ch
00005521  6A63              push byte +0x63
00005523  7200              jc 0x5525
00005525  2E64796E          fs jns 0x5597
00005529  61                popa
0000552A  6D                insd
0000552B  6963002E676F74    imul esp,[ebx+0x0],dword 0x746f672e
00005532  002E              add [esi],ch
00005534  676F              a16 outsd
00005536  742E              jz 0x5566
00005538  706C              jo 0x55a6
0000553A  7400              jz 0x553c
0000553C  2E6461            fs popa
0000553F  7461              jz 0x55a2
00005541  002E              add [esi],ch
00005543  627373            bound esi,[ebx+0x73]
00005546  002E              add [esi],ch
00005548  636F6D            arpl [edi+0x6d],bp
0000554B  6D                insd
0000554C  656E              gs outsb
0000554E  7400              jz 0x5550
00005550  2E6465627567      bound esi,[gs:ebp+0x67]
00005556  5F                pop edi
00005557  61                popa
00005558  7261              jc 0x55bb
0000555A  6E                outsb
0000555B  67657300          gs a16 jnc 0x555f
0000555F  2E6465627567      bound esi,[gs:ebp+0x67]
00005565  5F                pop edi
00005566  7075              jo 0x55dd
00005568  626E61            bound ebp,[esi+0x61]
0000556B  6D                insd
0000556C  657300            gs jnc 0x556f
0000556F  2E6465627567      bound esi,[gs:ebp+0x67]
00005575  5F                pop edi
00005576  696E666F002E64    imul ebp,[esi+0x66],dword 0x642e006f
0000557D  65627567          bound esi,[gs:ebp+0x67]
00005581  5F                pop edi
00005582  61                popa
00005583  626272            bound esp,[edx+0x72]
00005586  657600            gs jna 0x5589
00005589  2E6465627567      bound esi,[gs:ebp+0x67]
0000558F  5F                pop edi
00005590  6C                insb
00005591  696E65002E6465    imul ebp,[esi+0x65],dword 0x65642e00
00005598  627567            bound esi,[ebp+0x67]
0000559B  5F                pop edi
0000559C  667261            o16 jc 0x5600
0000559F  6D                insd
000055A0  65002E            add [gs:esi],ch
000055A3  6465627567        bound esi,[gs:ebp+0x67]
000055A8  5F                pop edi
000055A9  7374              jnc 0x561f
000055AB  7200              jc 0x55ad
000055AD  2E6465627567      bound esi,[gs:ebp+0x67]
000055B3  5F                pop edi
000055B4  6C                insb
000055B5  6F                outsd
000055B6  6300              arpl [eax],ax
000055B8  0000              add [eax],al
000055BA  0000              add [eax],al
000055BC  0000              add [eax],al
000055BE  0000              add [eax],al
000055C0  0000              add [eax],al
000055C2  0000              add [eax],al
000055C4  0000              add [eax],al
000055C6  0000              add [eax],al
000055C8  0000              add [eax],al
000055CA  0000              add [eax],al
000055CC  0000              add [eax],al
000055CE  0000              add [eax],al
000055D0  0000              add [eax],al
000055D2  0000              add [eax],al
000055D4  0000              add [eax],al
000055D6  0000              add [eax],al
000055D8  0000              add [eax],al
000055DA  0000              add [eax],al
000055DC  0000              add [eax],al
000055DE  0000              add [eax],al
000055E0  1B00              sbb eax,[eax]
000055E2  0000              add [eax],al
000055E4  0100              add [eax],eax
000055E6  0000              add [eax],al
000055E8  0200              add al,[eax]
000055EA  0000              add [eax],al
000055EC  3481              xor al,0x81
000055EE  0408              add al,0x8
000055F0  3401              xor al,0x1
000055F2  0000              add [eax],al
000055F4  1300              adc eax,[eax]
000055F6  0000              add [eax],al
000055F8  0000              add [eax],al
000055FA  0000              add [eax],al
000055FC  0000              add [eax],al
000055FE  0000              add [eax],al
00005600  0100              add [eax],eax
00005602  0000              add [eax],al
00005604  0000              add [eax],al
00005606  0000              add [eax],al
00005608  2300              and eax,[eax]
0000560A  0000              add [eax],al
0000560C  07                pop es
0000560D  0000              add [eax],al
0000560F  0002              add [edx],al
00005611  0000              add [eax],al
00005613  004881            add [eax-0x7f],cl
00005616  0408              add al,0x8
00005618  48                dec eax
00005619  0100              add [eax],eax
0000561B  0020              add [eax],ah
0000561D  0000              add [eax],al
0000561F  0000              add [eax],al
00005621  0000              add [eax],al
00005623  0000              add [eax],al
00005625  0000              add [eax],al
00005627  000400            add [eax+eax],al
0000562A  0000              add [eax],al
0000562C  0000              add [eax],al
0000562E  0000              add [eax],al
00005630  3100              xor [eax],eax
00005632  0000              add [eax],al
00005634  0500000002        add eax,0x2000000
00005639  0000              add [eax],al
0000563B  006881            add [eax-0x7f],ch
0000563E  0408              add al,0x8
00005640  6801000048        push dword 0x48000001
00005645  0100              add [eax],eax
00005647  000400            add [eax+eax],al
0000564A  0000              add [eax],al
0000564C  0000              add [eax],al
0000564E  0000              add [eax],al
00005650  0400              add al,0x0
00005652  0000              add [eax],al
00005654  0400              add al,0x0
00005656  0000              add [eax],al
00005658  37                aaa
00005659  0000              add [eax],al
0000565B  000B              add [ebx],cl
0000565D  0000              add [eax],al
0000565F  0002              add [edx],al
00005661  0000              add [eax],al
00005663  00B0820408B0      add [eax+0xb0080482],dh
00005669  0200              add al,[eax]
0000566B  00B002000005      add [eax+0x5000002],dh
00005671  0000              add [eax],al
00005673  0001              add [ecx],al
00005675  0000              add [eax],al
00005677  000400            add [eax+eax],al
0000567A  0000              add [eax],al
0000567C  1000              adc [eax],al
0000567E  0000              add [eax],al
00005680  3F                aas
00005681  0000              add [eax],al
00005683  0003              add [ebx],al
00005685  0000              add [eax],al
00005687  0002              add [edx],al
00005689  0000              add [eax],al
0000568B  006085            add [eax-0x7b],ah
0000568E  0408              add al,0x8
00005690  60                pusha
00005691  050000AC04        add eax,0x4ac0000
00005696  0000              add [eax],al
00005698  0000              add [eax],al
0000569A  0000              add [eax],al
0000569C  0000              add [eax],al
0000569E  0000              add [eax],al
000056A0  0100              add [eax],eax
000056A2  0000              add [eax],al
000056A4  0000              add [eax],al
000056A6  0000              add [eax],al
000056A8  47                inc edi
000056A9  0000              add [eax],al
000056AB  00FF              add bh,bh
000056AD  FF                db 0xFF
000056AE  FF6F02            jmp far [edi+0x2]
000056B1  0000              add [eax],al
000056B3  000C8A            add [edx+ecx*4],cl
000056B6  0408              add al,0x8
000056B8  0C0A              or al,0xa
000056BA  0000              add [eax],al
000056BC  56                push esi
000056BD  0000              add [eax],al
000056BF  000400            add [eax+eax],al
000056C2  0000              add [eax],al
000056C4  0000              add [eax],al
000056C6  0000              add [eax],al
000056C8  0200              add al,[eax]
000056CA  0000              add [eax],al
000056CC  0200              add al,[eax]
000056CE  0000              add [eax],al
000056D0  54                push esp
000056D1  0000              add [eax],al
000056D3  00FE              add dh,bh
000056D5  FF                db 0xFF
000056D6  FF6F02            jmp far [edi+0x2]
000056D9  0000              add [eax],al
000056DB  00648A04          add [edx+ecx*4+0x4],ah
000056DF  08640A00          or [edx+ecx+0x0],ah
000056E3  007000            add [eax+0x0],dh
000056E6  0000              add [eax],al
000056E8  0500000003        add eax,0x3000000
000056ED  0000              add [eax],al
000056EF  000400            add [eax+eax],al
000056F2  0000              add [eax],al
000056F4  0000              add [eax],al
000056F6  0000              add [eax],al
000056F8  6300              arpl [eax],ax
000056FA  0000              add [eax],al
000056FC  0900              or [eax],eax
000056FE  0000              add [eax],al
00005700  0200              add al,[eax]
00005702  0000              add [eax],al
00005704  D48A              aam 0x8a
00005706  0408              add al,0x8
00005708  D40A              aam
0000570A  0000              add [eax],al
0000570C  0800              or [eax],al
0000570E  0000              add [eax],al
00005710  0400              add al,0x0
00005712  0000              add [eax],al
00005714  0000              add [eax],al
00005716  0000              add [eax],al
00005718  0400              add al,0x0
0000571A  0000              add [eax],al
0000571C  0800              or [eax],al
0000571E  0000              add [eax],al
00005720  6C                insb
00005721  0000              add [eax],al
00005723  0009              add [ecx],cl
00005725  0000              add [eax],al
00005727  0002              add [edx],al
00005729  0000              add [eax],al
0000572B  00DC              add ah,bl
0000572D  8A0408            mov al,[eax+ecx]
00005730  DC0A              fmul qword [edx]
00005732  0000              add [eax],al
00005734  2801              sub [ecx],al
00005736  0000              add [eax],al
00005738  0400              add al,0x0
0000573A  0000              add [eax],al
0000573C  0B00              or eax,[eax]
0000573E  0000              add [eax],al
00005740  0400              add al,0x0
00005742  0000              add [eax],al
00005744  0800              or [eax],al
00005746  0000              add [eax],al
00005748  7500              jnz 0x574a
0000574A  0000              add [eax],al
0000574C  0100              add [eax],eax
0000574E  0000              add [eax],al
00005750  06                push es
00005751  0000              add [eax],al
00005753  00048C            add [esp+ecx*4],al
00005756  0408              add al,0x8
00005758  040C              add al,0xc
0000575A  0000              add [eax],al
0000575C  3000              xor [eax],al
0000575E  0000              add [eax],al
00005760  0000              add [eax],al
00005762  0000              add [eax],al
00005764  0000              add [eax],al
00005766  0000              add [eax],al
00005768  0400              add al,0x0
0000576A  0000              add [eax],al
0000576C  0000              add [eax],al
0000576E  0000              add [eax],al
00005770  7000              jo 0x5772
00005772  0000              add [eax],al
00005774  0100              add [eax],eax
00005776  0000              add [eax],al
00005778  06                push es
00005779  0000              add [eax],al
0000577B  00408C            add [eax-0x74],al
0000577E  0408              add al,0x8
00005780  40                inc eax
00005781  0C00              or al,0x0
00005783  006002            add [eax+0x2],ah
00005786  0000              add [eax],al
00005788  0000              add [eax],al
0000578A  0000              add [eax],al
0000578C  0000              add [eax],al
0000578E  0000              add [eax],al
00005790  1000              adc [eax],al
00005792  0000              add [eax],al
00005794  0400              add al,0x0
00005796  0000              add [eax],al
00005798  7B00              jpo 0x579a
0000579A  0000              add [eax],al
0000579C  0100              add [eax],eax
0000579E  0000              add [eax],al
000057A0  06                push es
000057A1  0000              add [eax],al
000057A3  00A08E0408A0      add [eax+0xa008048e],ah
000057A9  0E                push cs
000057AA  0000              add [eax],al
000057AC  6824000000        push dword 0x24
000057B1  0000              add [eax],al
000057B3  0000              add [eax],al
000057B5  0000              add [eax],al
000057B7  0010              add [eax],dl
000057B9  0000              add [eax],al
000057BB  0000              add [eax],al
000057BD  0000              add [eax],al
000057BF  008100000001      add [ecx+0x1000000],al
000057C5  0000              add [eax],al
000057C7  0006              add [esi],al
000057C9  0000              add [eax],al
000057CB  0008              add [eax],cl
000057CD  B304              mov bl,0x4
000057CF  0808              or [eax],cl
000057D1  3300              xor eax,[eax]
000057D3  001C00            add [eax+eax],bl
000057D6  0000              add [eax],al
000057D8  0000              add [eax],al
000057DA  0000              add [eax],al
000057DC  0000              add [eax],al
000057DE  0000              add [eax],al
000057E0  0400              add al,0x0
000057E2  0000              add [eax],al
000057E4  0000              add [eax],al
000057E6  0000              add [eax],al
000057E8  8700              xchg eax,[eax]
000057EA  0000              add [eax],al
000057EC  0100              add [eax],eax
000057EE  0000              add [eax],al
000057F0  0200              add al,[eax]
000057F2  0000              add [eax],al
000057F4  24B3              and al,0xb3
000057F6  0408              add al,0x8
000057F8  2433              and al,0x33
000057FA  0000              add [eax],al
000057FC  7400              jz 0x57fe
000057FE  0000              add [eax],al
00005800  0000              add [eax],al
00005802  0000              add [eax],al
00005804  0000              add [eax],al
00005806  0000              add [eax],al
00005808  0400              add al,0x0
0000580A  0000              add [eax],al
0000580C  0000              add [eax],al
0000580E  0000              add [eax],al
00005810  8F00              pop dword [eax]
00005812  0000              add [eax],al
00005814  0100              add [eax],eax
00005816  0000              add [eax],al
00005818  0200              add al,[eax]
0000581A  0000              add [eax],al
0000581C  98                cwde
0000581D  B304              mov bl,0x4
0000581F  089833000044      or [eax+0x44000033],bl
00005825  0400              add al,0x0
00005827  0000              add [eax],al
00005829  0000              add [eax],al
0000582B  0000              add [eax],al
0000582D  0000              add [eax],al
0000582F  000400            add [eax+eax],al
00005832  0000              add [eax],al
00005834  0000              add [eax],al
00005836  0000              add [eax],al
00005838  9D                popf
00005839  0000              add [eax],al
0000583B  0001              add [ecx],al
0000583D  0000              add [eax],al
0000583F  0002              add [edx],al
00005841  0000              add [eax],al
00005843  00DC              add ah,bl
00005845  B704              mov bh,0x4
00005847  08DC              or ah,bl
00005849  37                aaa
0000584A  0000              add [eax],al
0000584C  D411              aam 0x11
0000584E  0000              add [eax],al
00005850  0000              add [eax],al
00005852  0000              add [eax],al
00005854  0000              add [eax],al
00005856  0000              add [eax],al
00005858  0400              add al,0x0
0000585A  0000              add [eax],al
0000585C  0000              add [eax],al
0000585E  0000              add [eax],al
00005860  A7                cmpsd
00005861  0000              add [eax],al
00005863  0001              add [ecx],al
00005865  0000              add [eax],al
00005867  0002              add [edx],al
00005869  0000              add [eax],al
0000586B  00B0C90408B0      add [eax+0xb00804c9],dh
00005871  49                dec ecx
00005872  0000              add [eax],al
00005874  1402              adc al,0x2
00005876  0000              add [eax],al
00005878  0000              add [eax],al
0000587A  0000              add [eax],al
0000587C  0000              add [eax],al
0000587E  0000              add [eax],al
00005880  0400              add al,0x0
00005882  0000              add [eax],al
00005884  0000              add [eax],al
00005886  0000              add [eax],al
00005888  B900000001        mov ecx,0x1000000
0000588D  0000              add [eax],al
0000588F  0003              add [ebx],al
00005891  0000              add [eax],al
00005893  00C4              add ah,al
00005895  DB0408            fild dword [eax+ecx]
00005898  C44B00            les ecx,[ebx+0x0]
0000589B  0008              add [eax],cl
0000589D  0000              add [eax],al
0000589F  0000              add [eax],al
000058A1  0000              add [eax],al
000058A3  0000              add [eax],al
000058A5  0000              add [eax],al
000058A7  000400            add [eax+eax],al
000058AA  0000              add [eax],al
000058AC  0000              add [eax],al
000058AE  0000              add [eax],al
000058B0  C00000            rol byte [eax],0x0
000058B3  0001              add [ecx],al
000058B5  0000              add [eax],al
000058B7  0003              add [ebx],al
000058B9  0000              add [eax],al
000058BB  00CC              add ah,cl
000058BD  DB0408            fild dword [eax+ecx]
000058C0  CC                int3
000058C1  4B                dec ebx
000058C2  0000              add [eax],al
000058C4  0800              or [eax],al
000058C6  0000              add [eax],al
000058C8  0000              add [eax],al
000058CA  0000              add [eax],al
000058CC  0000              add [eax],al
000058CE  0000              add [eax],al
000058D0  0400              add al,0x0
000058D2  0000              add [eax],al
000058D4  0000              add [eax],al
000058D6  0000              add [eax],al
000058D8  C70000000100      mov dword [eax],0x10000
000058DE  0000              add [eax],al
000058E0  0300              add eax,[eax]
000058E2  0000              add [eax],al
000058E4  D4DB              aam 0xdb
000058E6  0408              add al,0x8
000058E8  D44B              aam 0x4b
000058EA  0000              add [eax],al
000058EC  0400              add al,0x0
000058EE  0000              add [eax],al
000058F0  0000              add [eax],al
000058F2  0000              add [eax],al
000058F4  0000              add [eax],al
000058F6  0000              add [eax],al
000058F8  0400              add al,0x0
000058FA  0000              add [eax],al
000058FC  0000              add [eax],al
000058FE  0000              add [eax],al
00005900  CC                int3
00005901  0000              add [eax],al
00005903  0006              add [esi],al
00005905  0000              add [eax],al
00005907  0003              add [ebx],al
00005909  0000              add [eax],al
0000590B  00D8              add al,bl
0000590D  DB0408            fild dword [eax+ecx]
00005910  D84B00            fmul dword [ebx+0x0]
00005913  00E0              add al,ah
00005915  0000              add [eax],al
00005917  000500000000      add [0x0],al
0000591D  0000              add [eax],al
0000591F  000400            add [eax+eax],al
00005922  0000              add [eax],al
00005924  0800              or [eax],al
00005926  0000              add [eax],al
00005928  D500              aad 0x0
0000592A  0000              add [eax],al
0000592C  0100              add [eax],eax
0000592E  0000              add [eax],al
00005930  0300              add eax,[eax]
00005932  0000              add [eax],al
00005934  B8DC0408B8        mov eax,0xb80804dc
00005939  4C                dec esp
0000593A  0000              add [eax],al
0000593C  0400              add al,0x0
0000593E  0000              add [eax],al
00005940  0000              add [eax],al
00005942  0000              add [eax],al
00005944  0000              add [eax],al
00005946  0000              add [eax],al
00005948  0400              add al,0x0
0000594A  0000              add [eax],al
0000594C  0400              add al,0x0
0000594E  0000              add [eax],al
00005950  DA00              fiadd dword [eax]
00005952  0000              add [eax],al
00005954  0100              add [eax],eax
00005956  0000              add [eax],al
00005958  0300              add eax,[eax]
0000595A  0000              add [eax],al
0000595C  BCDC0408BC        mov esp,0xbc0804dc
00005961  4C                dec esp
00005962  0000              add [eax],al
00005964  A000000000        mov al,[0x0]
00005969  0000              add [eax],al
0000596B  0000              add [eax],al
0000596D  0000              add [eax],al
0000596F  000400            add [eax+eax],al
00005972  0000              add [eax],al
00005974  0400              add al,0x0
00005976  0000              add [eax],al
00005978  E300              jecxz 0x597a
0000597A  0000              add [eax],al
0000597C  0100              add [eax],eax
0000597E  0000              add [eax],al
00005980  0300              add eax,[eax]
00005982  0000              add [eax],al
00005984  5C                pop esp
00005985  DD0408            fld qword [eax+ecx]
00005988  5C                pop esp
00005989  4D                dec ebp
0000598A  0000              add [eax],al
0000598C  0800              or [eax],al
0000598E  0000              add [eax],al
00005990  0000              add [eax],al
00005992  0000              add [eax],al
00005994  0000              add [eax],al
00005996  0000              add [eax],al
00005998  0400              add al,0x0
0000599A  0000              add [eax],al
0000599C  0000              add [eax],al
0000599E  0000              add [eax],al
000059A0  E900000008        jmp 0x80059a5
000059A5  0000              add [eax],al
000059A7  0003              add [ebx],al
000059A9  0000              add [eax],al
000059AB  0064DD04          add [ebp+ebx*8+0x4],ah
000059AF  08644D00          or [ebp+ecx*2+0x0],ah
000059B3  0008              add [eax],cl
000059B5  0000              add [eax],al
000059B7  0000              add [eax],al
000059B9  0000              add [eax],al
000059BB  0000              add [eax],al
000059BD  0000              add [eax],al
000059BF  000400            add [eax+eax],al
000059C2  0000              add [eax],al
000059C4  0000              add [eax],al
000059C6  0000              add [eax],al
000059C8  EE                out dx,al
000059C9  0000              add [eax],al
000059CB  0001              add [ecx],al
000059CD  0000              add [eax],al
000059CF  0030              add [eax],dh
000059D1  0000              add [eax],al
000059D3  0000              add [eax],al
000059D5  0000              add [eax],al
000059D7  00644D00          add [ebp+ecx*2+0x0],ah
000059DB  003400            add [eax+eax],dh
000059DE  0000              add [eax],al
000059E0  0000              add [eax],al
000059E2  0000              add [eax],al
000059E4  0000              add [eax],al
000059E6  0000              add [eax],al
000059E8  0100              add [eax],eax
000059EA  0000              add [eax],al
000059EC  0100              add [eax],eax
000059EE  0000              add [eax],al
000059F0  F70000000100      test dword [eax],0x10000
000059F6  0000              add [eax],al
000059F8  0000              add [eax],al
000059FA  0000              add [eax],al
000059FC  0000              add [eax],al
000059FE  0000              add [eax],al
00005A00  98                cwde
00005A01  4D                dec ebp
00005A02  0000              add [eax],al
00005A04  40                inc eax
00005A05  0000              add [eax],al
00005A07  0000              add [eax],al
00005A09  0000              add [eax],al
00005A0B  0000              add [eax],al
00005A0D  0000              add [eax],al
00005A0F  0008              add [eax],cl
00005A11  0000              add [eax],al
00005A13  0000              add [eax],al
00005A15  0000              add [eax],al
00005A17  0006              add [esi],al
00005A19  0100              add [eax],eax
00005A1B  0001              add [ecx],al
00005A1D  0000              add [eax],al
00005A1F  0000              add [eax],al
00005A21  0000              add [eax],al
00005A23  0000              add [eax],al
00005A25  0000              add [eax],al
00005A27  00D8              add al,bl
00005A29  4D                dec ebp
00005A2A  0000              add [eax],al
00005A2C  5F                pop edi
00005A2D  0000              add [eax],al
00005A2F  0000              add [eax],al
00005A31  0000              add [eax],al
00005A33  0000              add [eax],al
00005A35  0000              add [eax],al
00005A37  0001              add [ecx],al
00005A39  0000              add [eax],al
00005A3B  0000              add [eax],al
00005A3D  0000              add [eax],al
00005A3F  0016              add [esi],dl
00005A41  0100              add [eax],eax
00005A43  0001              add [ecx],al
00005A45  0000              add [eax],al
00005A47  0000              add [eax],al
00005A49  0000              add [eax],al
00005A4B  0000              add [eax],al
00005A4D  0000              add [eax],al
00005A4F  0037              add [edi],dh
00005A51  4E                dec esi
00005A52  0000              add [eax],al
00005A54  2102              and [edx],eax
00005A56  0000              add [eax],al
00005A58  0000              add [eax],al
00005A5A  0000              add [eax],al
00005A5C  0000              add [eax],al
00005A5E  0000              add [eax],al
00005A60  0100              add [eax],eax
00005A62  0000              add [eax],al
00005A64  0000              add [eax],al
00005A66  0000              add [eax],al
00005A68  2201              and al,[ecx]
00005A6A  0000              add [eax],al
00005A6C  0100              add [eax],eax
00005A6E  0000              add [eax],al
00005A70  0000              add [eax],al
00005A72  0000              add [eax],al
00005A74  0000              add [eax],al
00005A76  0000              add [eax],al
00005A78  58                pop eax
00005A79  50                push eax
00005A7A  0000              add [eax],al
00005A7C  3501000000        xor eax,0x1
00005A81  0000              add [eax],al
00005A83  0000              add [eax],al
00005A85  0000              add [eax],al
00005A87  0001              add [ecx],al
00005A89  0000              add [eax],al
00005A8B  0000              add [eax],al
00005A8D  0000              add [eax],al
00005A8F  0030              add [eax],dh
00005A91  0100              add [eax],eax
00005A93  0001              add [ecx],al
00005A95  0000              add [eax],al
00005A97  0000              add [eax],al
00005A99  0000              add [eax],al
00005A9B  0000              add [eax],al
00005A9D  0000              add [eax],al
00005A9F  008D51000001      add [ebp+0x1000051],cl
00005AA5  0100              add [eax],eax
00005AA7  0000              add [eax],al
00005AA9  0000              add [eax],al
00005AAB  0000              add [eax],al
00005AAD  0000              add [eax],al
00005AAF  0001              add [ecx],al
00005AB1  0000              add [eax],al
00005AB3  0000              add [eax],al
00005AB5  0000              add [eax],al
00005AB7  003C01            add [ecx+eax],bh
00005ABA  0000              add [eax],al
00005ABC  0100              add [eax],eax
00005ABE  0000              add [eax],al
00005AC0  0000              add [eax],al
00005AC2  0000              add [eax],al
00005AC4  0000              add [eax],al
00005AC6  0000              add [eax],al
00005AC8  90                nop
00005AC9  52                push edx
00005ACA  0000              add [eax],al
00005ACC  4C                dec esp
00005ACD  0000              add [eax],al
00005ACF  0000              add [eax],al
00005AD1  0000              add [eax],al
00005AD3  0000              add [eax],al
00005AD5  0000              add [eax],al
00005AD7  000400            add [eax+eax],al
00005ADA  0000              add [eax],al
00005ADC  0000              add [eax],al
00005ADE  0000              add [eax],al
00005AE0  49                dec ecx
00005AE1  0100              add [eax],eax
00005AE3  0001              add [ecx],al
00005AE5  0000              add [eax],al
00005AE7  0030              add [eax],dh
00005AE9  0000              add [eax],al
00005AEB  0000              add [eax],al
00005AED  0000              add [eax],al
00005AEF  00DC              add ah,bl
00005AF1  52                push edx
00005AF2  0000              add [eax],al
00005AF4  1201              adc al,[ecx]
00005AF6  0000              add [eax],al
00005AF8  0000              add [eax],al
00005AFA  0000              add [eax],al
00005AFC  0000              add [eax],al
00005AFE  0000              add [eax],al
00005B00  0100              add [eax],eax
00005B02  0000              add [eax],al
00005B04  0100              add [eax],eax
00005B06  0000              add [eax],al
00005B08  54                push esp
00005B09  0100              add [eax],eax
00005B0B  0001              add [ecx],al
00005B0D  0000              add [eax],al
00005B0F  0000              add [eax],al
00005B11  0000              add [eax],al
00005B13  0000              add [eax],al
00005B15  0000              add [eax],al
00005B17  00EE              add dh,ch
00005B19  53                push ebx
00005B1A  0000              add [eax],al
00005B1C  6B0000            imul eax,[eax],byte +0x0
00005B1F  0000              add [eax],al
00005B21  0000              add [eax],al
00005B23  0000              add [eax],al
00005B25  0000              add [eax],al
00005B27  0001              add [ecx],al
00005B29  0000              add [eax],al
00005B2B  0000              add [eax],al
00005B2D  0000              add [eax],al
00005B2F  0011              add [ecx],dl
00005B31  0000              add [eax],al
00005B33  0003              add [ebx],al
00005B35  0000              add [eax],al
00005B37  0000              add [eax],al
00005B39  0000              add [eax],al
00005B3B  0000              add [eax],al
00005B3D  0000              add [eax],al
00005B3F  005954            add [ecx+0x54],bl
00005B42  0000              add [eax],al
00005B44  5F                pop edi
00005B45  0100              add [eax],eax
00005B47  0000              add [eax],al
00005B49  0000              add [eax],al
00005B4B  0000              add [eax],al
00005B4D  0000              add [eax],al
00005B4F  0001              add [ecx],al
00005B51  0000              add [eax],al
00005B53  0000              add [eax],al
00005B55  0000              add [eax],al
00005B57  0001              add [ecx],al
00005B59  0000              add [eax],al
00005B5B  0002              add [edx],al
00005B5D  0000              add [eax],al
00005B5F  0000              add [eax],al
00005B61  0000              add [eax],al
00005B63  0000              add [eax],al
00005B65  0000              add [eax],al
00005B67  00A85B000010      add [eax+0x1000005b],ch
00005B6D  1200              adc al,[eax]
00005B6F  00250000003D      add [0x3d000000],ah
00005B75  0000              add [eax],al
00005B77  000400            add [eax+eax],al
00005B7A  0000              add [eax],al
00005B7C  1000              adc [eax],al
00005B7E  0000              add [eax],al
00005B80  0900              or [eax],eax
00005B82  0000              add [eax],al
00005B84  0300              add eax,[eax]
00005B86  0000              add [eax],al
00005B88  0000              add [eax],al
00005B8A  0000              add [eax],al
00005B8C  0000              add [eax],al
00005B8E  0000              add [eax],al
00005B90  B86D0000F6        mov eax,0xf600006d
00005B95  3000              xor [eax],al
00005B97  0000              add [eax],al
00005B99  0000              add [eax],al
00005B9B  0000              add [eax],al
00005B9D  0000              add [eax],al
00005B9F  0001              add [ecx],al
00005BA1  0000              add [eax],al
00005BA3  0000              add [eax],al
00005BA5  0000              add [eax],al
00005BA7  0000              add [eax],al
00005BA9  0000              add [eax],al
00005BAB  0000              add [eax],al
00005BAD  0000              add [eax],al
00005BAF  0000              add [eax],al
00005BB1  0000              add [eax],al
00005BB3  0000              add [eax],al
00005BB5  0000              add [eax],al
00005BB7  0000              add [eax],al
00005BB9  0000              add [eax],al
00005BBB  003481            add [ecx+eax*4],dh
00005BBE  0408              add al,0x8
00005BC0  0000              add [eax],al
00005BC2  0000              add [eax],al
00005BC4  0300              add eax,[eax]
00005BC6  0100              add [eax],eax
00005BC8  0000              add [eax],al
00005BCA  0000              add [eax],al
00005BCC  48                dec eax
00005BCD  81040800000000    add dword [eax+ecx],0x0
00005BD4  0300              add eax,[eax]
00005BD6  0200              add al,[eax]
00005BD8  0000              add [eax],al
00005BDA  0000              add [eax],al
00005BDC  6881040800        push dword 0x80481
00005BE1  0000              add [eax],al
00005BE3  0003              add [ebx],al
00005BE5  0003              add [ebx],al
00005BE7  0000              add [eax],al
00005BE9  0000              add [eax],al
00005BEB  00B082040800      add [eax+0x80482],dh
00005BF1  0000              add [eax],al
00005BF3  0003              add [ebx],al
00005BF5  000400            add [eax+eax],al
00005BF8  0000              add [eax],al
00005BFA  0000              add [eax],al
00005BFC  60                pusha
00005BFD  850408            test [eax+ecx],eax
00005C00  0000              add [eax],al
00005C02  0000              add [eax],al
00005C04  0300              add eax,[eax]
00005C06  0500000000        add eax,0x0
00005C0B  000C8A            add [edx+ecx*4],cl
00005C0E  0408              add al,0x8
00005C10  0000              add [eax],al
00005C12  0000              add [eax],al
00005C14  0300              add eax,[eax]
00005C16  06                push es
00005C17  0000              add [eax],al
00005C19  0000              add [eax],al
00005C1B  00648A04          add [edx+ecx*4+0x4],ah
00005C1F  0800              or [eax],al
00005C21  0000              add [eax],al
00005C23  0003              add [ebx],al
00005C25  0007              add [edi],al
00005C27  0000              add [eax],al
00005C29  0000              add [eax],al
00005C2B  00D4              add ah,dl
00005C2D  8A0408            mov al,[eax+ecx]
00005C30  0000              add [eax],al
00005C32  0000              add [eax],al
00005C34  0300              add eax,[eax]
00005C36  0800              or [eax],al
00005C38  0000              add [eax],al
00005C3A  0000              add [eax],al
00005C3C  DC8A04080000      fmul qword [edx+0x804]
00005C42  0000              add [eax],al
00005C44  0300              add eax,[eax]
00005C46  0900              or [eax],eax
00005C48  0000              add [eax],al
00005C4A  0000              add [eax],al
00005C4C  048C              add al,0x8c
00005C4E  0408              add al,0x8
00005C50  0000              add [eax],al
00005C52  0000              add [eax],al
00005C54  0300              add eax,[eax]
00005C56  0A00              or al,[eax]
00005C58  0000              add [eax],al
00005C5A  0000              add [eax],al
00005C5C  40                inc eax
00005C5D  8C0408            mov [eax+ecx],es
00005C60  0000              add [eax],al
00005C62  0000              add [eax],al
00005C64  0300              add eax,[eax]
00005C66  0B00              or eax,[eax]
00005C68  0000              add [eax],al
00005C6A  0000              add [eax],al
00005C6C  A08E040800        mov al,[0x8048e]
00005C71  0000              add [eax],al
00005C73  0003              add [ebx],al
00005C75  000C00            add [eax+eax],cl
00005C78  0000              add [eax],al
00005C7A  0000              add [eax],al
00005C7C  08B304080000      or [ebx+0x804],dh
00005C82  0000              add [eax],al
00005C84  0300              add eax,[eax]
00005C86  0D00000000        or eax,0x0
00005C8B  0024B3            add [ebx+esi*4],ah
00005C8E  0408              add al,0x8
00005C90  0000              add [eax],al
00005C92  0000              add [eax],al
00005C94  0300              add eax,[eax]
00005C96  0E                push cs
00005C97  0000              add [eax],al
00005C99  0000              add [eax],al
00005C9B  0098B3040800      add [eax+0x804b3],bl
00005CA1  0000              add [eax],al
00005CA3  0003              add [ebx],al
00005CA5  000F              add [edi],cl
00005CA7  0000              add [eax],al
00005CA9  0000              add [eax],al
00005CAB  00DC              add ah,bl
00005CAD  B704              mov bh,0x4
00005CAF  0800              or [eax],al
00005CB1  0000              add [eax],al
00005CB3  0003              add [ebx],al
00005CB5  0010              add [eax],dl
00005CB7  0000              add [eax],al
00005CB9  0000              add [eax],al
00005CBB  00B0C9040800      add [eax+0x804c9],dh
00005CC1  0000              add [eax],al
00005CC3  0003              add [ebx],al
00005CC5  0011              add [ecx],dl
00005CC7  0000              add [eax],al
00005CC9  0000              add [eax],al
00005CCB  00C4              add ah,al
00005CCD  DB0408            fild dword [eax+ecx]
00005CD0  0000              add [eax],al
00005CD2  0000              add [eax],al
00005CD4  0300              add eax,[eax]
00005CD6  1200              adc al,[eax]
00005CD8  0000              add [eax],al
00005CDA  0000              add [eax],al
00005CDC  CC                int3
00005CDD  DB0408            fild dword [eax+ecx]
00005CE0  0000              add [eax],al
00005CE2  0000              add [eax],al
00005CE4  0300              add eax,[eax]
00005CE6  1300              adc eax,[eax]
00005CE8  0000              add [eax],al
00005CEA  0000              add [eax],al
00005CEC  D4DB              aam 0xdb
00005CEE  0408              add al,0x8
00005CF0  0000              add [eax],al
00005CF2  0000              add [eax],al
00005CF4  0300              add eax,[eax]
00005CF6  1400              adc al,0x0
00005CF8  0000              add [eax],al
00005CFA  0000              add [eax],al
00005CFC  D8DB              fcomp st3
00005CFE  0408              add al,0x8
00005D00  0000              add [eax],al
00005D02  0000              add [eax],al
00005D04  0300              add eax,[eax]
00005D06  1500000000        adc eax,0x0
00005D0B  00B8DC040800      add [eax+0x804dc],bh
00005D11  0000              add [eax],al
00005D13  0003              add [ebx],al
00005D15  0016              add [esi],dl
00005D17  0000              add [eax],al
00005D19  0000              add [eax],al
00005D1B  00BCDC04080000    add [esp+ebx*8+0x804],bh
00005D22  0000              add [eax],al
00005D24  0300              add eax,[eax]
00005D26  17                pop ss
00005D27  0000              add [eax],al
00005D29  0000              add [eax],al
00005D2B  005CDD04          add [ebp+ebx*8+0x4],bl
00005D2F  0800              or [eax],al
00005D31  0000              add [eax],al
00005D33  0003              add [ebx],al
00005D35  0018              add [eax],bl
00005D37  0000              add [eax],al
00005D39  0000              add [eax],al
00005D3B  0064DD04          add [ebp+ebx*8+0x4],ah
00005D3F  0800              or [eax],al
00005D41  0000              add [eax],al
00005D43  0003              add [ebx],al
00005D45  0019              add [ecx],bl
00005D47  0000              add [eax],al
00005D49  0000              add [eax],al
00005D4B  0000              add [eax],al
00005D4D  0000              add [eax],al
00005D4F  0000              add [eax],al
00005D51  0000              add [eax],al
00005D53  0003              add [ebx],al
00005D55  001A              add [edx],bl
00005D57  0000              add [eax],al
00005D59  0000              add [eax],al
00005D5B  0000              add [eax],al
00005D5D  0000              add [eax],al
00005D5F  0000              add [eax],al
00005D61  0000              add [eax],al
00005D63  0003              add [ebx],al
00005D65  001B              add [ebx],bl
00005D67  0000              add [eax],al
00005D69  0000              add [eax],al
00005D6B  0000              add [eax],al
00005D6D  0000              add [eax],al
00005D6F  0000              add [eax],al
00005D71  0000              add [eax],al
00005D73  0003              add [ebx],al
00005D75  001C00            add [eax+eax],bl
00005D78  0000              add [eax],al
00005D7A  0000              add [eax],al
00005D7C  0000              add [eax],al
00005D7E  0000              add [eax],al
00005D80  0000              add [eax],al
00005D82  0000              add [eax],al
00005D84  0300              add eax,[eax]
00005D86  1D00000000        sbb eax,0x0
00005D8B  0000              add [eax],al
00005D8D  0000              add [eax],al
00005D8F  0000              add [eax],al
00005D91  0000              add [eax],al
00005D93  0003              add [ebx],al
00005D95  001E              add [esi],bl
00005D97  0000              add [eax],al
00005D99  0000              add [eax],al
00005D9B  0000              add [eax],al
00005D9D  0000              add [eax],al
00005D9F  0000              add [eax],al
00005DA1  0000              add [eax],al
00005DA3  0003              add [ebx],al
00005DA5  001F              add [edi],bl
00005DA7  0000              add [eax],al
00005DA9  0000              add [eax],al
00005DAB  0000              add [eax],al
00005DAD  0000              add [eax],al
00005DAF  0000              add [eax],al
00005DB1  0000              add [eax],al
00005DB3  0003              add [ebx],al
00005DB5  0020              add [eax],ah
00005DB7  0000              add [eax],al
00005DB9  0000              add [eax],al
00005DBB  0000              add [eax],al
00005DBD  0000              add [eax],al
00005DBF  0000              add [eax],al
00005DC1  0000              add [eax],al
00005DC3  0003              add [ebx],al
00005DC5  0021              add [ecx],ah
00005DC7  0000              add [eax],al
00005DC9  0000              add [eax],al
00005DCB  0000              add [eax],al
00005DCD  0000              add [eax],al
00005DCF  0000              add [eax],al
00005DD1  0000              add [eax],al
00005DD3  0003              add [ebx],al
00005DD5  0022              add [edx],ah
00005DD7  0001              add [ecx],al
00005DD9  0000              add [eax],al
00005DDB  0000              add [eax],al
00005DDD  0000              add [eax],al
00005DDF  0000              add [eax],al
00005DE1  0000              add [eax],al
00005DE3  000400            add [eax+eax],al
00005DE6  F1                int1
00005DE7  FF08              dec dword [eax]
00005DE9  0000              add [eax],al
00005DEB  0000              add [eax],al
00005DED  0000              add [eax],al
00005DEF  0000              add [eax],al
00005DF1  0000              add [eax],al
00005DF3  000400            add [eax+eax],al
00005DF6  F1                int1
00005DF7  FF13              call near [ebx]
00005DF9  0000              add [eax],al
00005DFB  0000              add [eax],al
00005DFD  0000              add [eax],al
00005DFF  0000              add [eax],al
00005E01  0000              add [eax],al
00005E03  000400            add [eax+eax],al
00005E06  F1                int1
00005E07  FF1E              call far [esi]
00005E09  0000              add [eax],al
00005E0B  00C4              add ah,al
00005E0D  DB0408            fild dword [eax+ecx]
00005E10  0000              add [eax],al
00005E12  0000              add [eax],al
00005E14  0100              add [eax],eax
00005E16  1200              adc al,[eax]
00005E18  2C00              sub al,0x0
00005E1A  0000              add [eax],al
00005E1C  CC                int3
00005E1D  DB0408            fild dword [eax+ecx]
00005E20  0000              add [eax],al
00005E22  0000              add [eax],al
00005E24  0100              add [eax],eax
00005E26  1300              adc eax,[eax]
00005E28  3A00              cmp al,[eax]
00005E2A  0000              add [eax],al
00005E2C  D4DB              aam 0xdb
00005E2E  0408              add al,0x8
00005E30  0000              add [eax],al
00005E32  0000              add [eax],al
00005E34  0100              add [eax],eax
00005E36  1400              adc al,0x0
00005E38  47                inc edi
00005E39  0000              add [eax],al
00005E3B  00D0              add al,dl
00005E3D  8E0408            mov es,[eax+ecx]
00005E40  0000              add [eax],al
00005E42  0000              add [eax],al
00005E44  0200              add al,[eax]
00005E46  0C00              or al,0x0
00005E48  5C                pop esp
00005E49  0000              add [eax],al
00005E4B  0000              add [eax],al
00005E4D  8F0408            pop dword [eax+ecx]
00005E50  0000              add [eax],al
00005E52  0000              add [eax],al
00005E54  0200              add al,[eax]
00005E56  0C00              or al,0x0
00005E58  6F                outsd
00005E59  0000              add [eax],al
00005E5B  00408F            add [eax-0x71],al
00005E5E  0408              add al,0x8
00005E60  0000              add [eax],al
00005E62  0000              add [eax],al
00005E64  0200              add al,[eax]
00005E66  0C00              or al,0x0
00005E68  8500              test [eax],eax
00005E6A  0000              add [eax],al
00005E6C  64DD0408          fld qword [fs:eax+ecx]
00005E70  0100              add [eax],eax
00005E72  0000              add [eax],al
00005E74  0100              add [eax],eax
00005E76  1900              sbb [eax],eax
00005E78  94                xchg eax,esp
00005E79  0000              add [eax],al
00005E7B  0068DD            add [eax-0x23],ch
00005E7E  0408              add al,0x8
00005E80  0400              add al,0x0
00005E82  0000              add [eax],al
00005E84  0100              add [eax],eax
00005E86  1900              sbb [eax],eax
00005E88  A200000090        mov [0x90000000],al
00005E8D  8F0408            pop dword [eax+ecx]
00005E90  0000              add [eax],al
00005E92  0000              add [eax],al
00005E94  0200              add al,[eax]
00005E96  0C00              or al,0x0
00005E98  1300              adc eax,[eax]
00005E9A  0000              add [eax],al
00005E9C  0000              add [eax],al
00005E9E  0000              add [eax],al
00005EA0  0000              add [eax],al
00005EA2  0000              add [eax],al
00005EA4  0400              add al,0x0
00005EA6  F1                int1
00005EA7  FFAE000000C8      jmp far [esi+0xc8000000]
00005EAD  DB0408            fild dword [eax+ecx]
00005EB0  0000              add [eax],al
00005EB2  0000              add [eax],al
00005EB4  0100              add [eax],eax
00005EB6  1200              adc al,[eax]
00005EB8  BB000000AC        mov ebx,0xac000000
00005EBD  C9                leave
00005EBE  0408              add al,0x8
00005EC0  0000              add [eax],al
00005EC2  0000              add [eax],al
00005EC4  0100              add [eax],eax
00005EC6  1000              adc [eax],al
00005EC8  C9                leave
00005EC9  0000              add [eax],al
00005ECB  00D4              add ah,dl
00005ECD  DB0408            fild dword [eax+ecx]
00005ED0  0000              add [eax],al
00005ED2  0000              add [eax],al
00005ED4  0100              add [eax],eax
00005ED6  1400              adc al,0x0
00005ED8  D500              aad 0x0
00005EDA  0000              add [eax],al
00005EDC  E0B2              loopne 0x5e90
00005EDE  0408              add al,0x8
00005EE0  0000              add [eax],al
00005EE2  0000              add [eax],al
00005EE4  0200              add al,[eax]
00005EE6  0C00              or al,0x0
00005EE8  0800              or [eax],al
00005EEA  0000              add [eax],al
00005EEC  0000              add [eax],al
00005EEE  0000              add [eax],al
00005EF0  0000              add [eax],al
00005EF2  0000              add [eax],al
00005EF4  0400              add al,0x0
00005EF6  F1                int1
00005EF7  FF                db 0xFF
00005EF8  EB00              jmp short 0x5efa
00005EFA  0000              add [eax],al
00005EFC  0000              add [eax],al
00005EFE  0000              add [eax],al
00005F00  0000              add [eax],al
00005F02  0000              add [eax],al
00005F04  0400              add al,0x0
00005F06  F1                int1
00005F07  FF0401            inc dword [ecx+eax]
00005F0A  0000              add [eax],al
00005F0C  94                xchg eax,esp
00005F0D  B304              mov bl,0x4
00005F0F  080400            or [eax+eax],al
00005F12  0000              add [eax],al
00005F14  0100              add [eax],eax
00005F16  0E                push cs
00005F17  003501000000      add [0x1],dh
00005F1D  0000              add [eax],al
00005F1F  0000              add [eax],al
00005F21  0000              add [eax],al
00005F23  000400            add [eax+eax],al
00005F26  F1                int1
00005F27  FF00              inc dword [eax]
00005F29  0000              add [eax],al
00005F2B  0000              add [eax],al
00005F2D  0000              add [eax],al
00005F2F  0000              add [eax],al
00005F31  0000              add [eax],al
00005F33  000400            add [eax+eax],al
00005F36  F1                int1
00005F37  FF4001            inc dword [eax+0x1]
00005F3A  0000              add [eax],al
00005F3C  BCDC040800        mov esp,0x804dc
00005F41  0000              add [eax],al
00005F43  0001              add [ecx],al
00005F45  0017              add [edi],dl
00005F47  005601            add [esi+0x1],dl
00005F4A  0000              add [eax],al
00005F4C  C4                db 0xC4
00005F4D  DB0408            fild dword [eax+ecx]
00005F50  0000              add [eax],al
00005F52  0000              add [eax],al
00005F54  0000              add [eax],al
00005F56  1200              adc al,[eax]
00005F58  670100            add [bx+si],eax
00005F5B  00C4              add ah,al
00005F5D  DB0408            fild dword [eax+ecx]
00005F60  0000              add [eax],al
00005F62  0000              add [eax],al
00005F64  0000              add [eax],al
00005F66  1200              adc al,[eax]
00005F68  7A01              jpe 0x5f6b
00005F6A  0000              add [eax],al
00005F6C  D8DB              fcomp st3
00005F6E  0408              add al,0x8
00005F70  0000              add [eax],al
00005F72  0000              add [eax],al
00005F74  0100              add [eax],eax
00005F76  1500830100        adc eax,0x18300
00005F7B  005CDD04          add [ebp+ebx*8+0x4],bl
00005F7F  0800              or [eax],al
00005F81  0000              add [eax],al
00005F83  0020              add [eax],ah
00005F85  0018              add [eax],bl
00005F87  008E0100005E      add [esi+0x5e000001],cl
00005F8D  9B                wait
00005F8E  0408              add al,0x8
00005F90  2200              and al,[eax]
00005F92  0000              add [eax],al
00005F94  2200              and al,[eax]
00005F96  0C00              or al,0x0
00005F98  B401              mov ah,0x1
00005F9A  0000              add [eax],al
00005F9C  16                push ss
00005F9D  A904080500        test eax,0x50804
00005FA2  0000              add [eax],al
00005FA4  2200              and al,[eax]
00005FA6  0C00              or al,0x0
00005FA8  EC                in al,dx
00005FA9  0100              add [eax],eax
00005FAB  00EA              add dl,ch
00005FAD  AE                scasb
00005FAE  0408              add al,0x8
00005FB0  1300              adc eax,[eax]
00005FB2  0000              add [eax],al
00005FB4  2200              and al,[eax]
00005FB6  0C00              or al,0x0
00005FB8  3C02              cmp al,0x2
00005FBA  0000              add [eax],al
00005FBC  02A004082200      add ah,[eax+0x220804]
00005FC2  0000              add [eax],al
00005FC4  2200              and al,[eax]
00005FC6  0C00              or al,0x0
00005FC8  7002              jo 0x5fcc
00005FCA  0000              add [eax],al
00005FCC  F09A04084B000000  lock call 0x0:0x4b0804
00005FD4  2200              and al,[eax]
00005FD6  0C00              or al,0x0
00005FD8  B602              mov dh,0x2
00005FDA  0000              add [eax],al
00005FDC  3EA904080B00      ds test eax,0xb0804
00005FE2  0000              add [eax],al
00005FE4  2200              and al,[eax]
00005FE6  0C00              or al,0x0
00005FE8  0103              add [ebx],eax
00005FEA  0000              add [eax],al
00005FEC  0000              add [eax],al
00005FEE  0000              add [eax],al
00005FF0  0000              add [eax],al
00005FF2  0000              add [eax],al
00005FF4  1200              adc al,[eax]
00005FF6  0000              add [eax],al
00005FF8  1803              sbb [ebx],al
00005FFA  0000              add [eax],al
00005FFC  9A9D0408130000    call 0x0:0x1308049d
00006003  0022              add [edx],ah
00006005  000C00            add [eax+eax],cl
00006008  52                push edx
00006009  0300              add eax,[eax]
0000600B  00949904081300    add [ecx+ebx*4+0x130804],dl
00006012  0000              add [eax],al
00006014  2200              and al,[eax]
00006016  0C00              or al,0x0
00006018  7503              jnz 0x601d
0000601A  0000              add [eax],al
0000601C  3EA5              ds movsd
0000601E  0408              add al,0x8
00006020  0D00000022        or eax,0x22000000
00006025  000C00            add [eax+eax],cl
00006028  B203              mov dl,0x3
0000602A  0000              add [eax],al
0000602C  4D                dec ebp
0000602D  AF                scasd
0000602E  0408              add al,0x8
00006030  2200              and al,[eax]
00006032  0000              add [eax],al
00006034  2200              and al,[eax]
00006036  0C00              or al,0x0
00006038  1404              adc al,0x4
0000603A  0000              add [eax],al
0000603C  02A904081300      add ch,[ecx+0x130804]
00006042  0000              add [eax],al
00006044  2200              and al,[eax]
00006046  0C00              or al,0x0
00006048  2C04              sub al,0x4
0000604A  0000              add [eax],al
0000604C  BC9904084B        mov esp,0x4b080499
00006051  0000              add [eax],al
00006053  0022              add [edx],ah
00006055  000C00            add [eax+eax],cl
00006058  660400            o16 add al,0x0
0000605B  00E4              add ah,ah
0000605D  AE                scasb
0000605E  0408              add al,0x8
00006060  0500000022        add eax,0x22000000
00006065  000C00            add [eax+eax],cl
00006068  95                xchg eax,ebp
00006069  0400              add al,0x0
0000606B  0000              add [eax],al
0000606D  0000              add [eax],al
0000606F  0000              add [eax],al
00006071  0000              add [eax],al
00006073  0012              add [edx],dl
00006075  0000              add [eax],al
00006077  00AC04000024A0    add [esp+eax+0xa0240000],ch
0000607E  0408              add al,0x8
00006080  0D00000022        or eax,0x22000000
00006085  000C00            add [eax+eax],cl
00006088  D80400            fadd dword [eax+eax]
0000608B  0070B2            add [eax-0x4e],dh
0000608E  0408              add al,0x8
00006090  0500000012        add eax,0x12000000
00006095  000C00            add [eax+eax],cl
00006098  E804000094        call 0x940060a1
0000609D  A804              test al,0x4
0000609F  0813              or [ebx],dl
000060A1  0000              add [eax],al
000060A3  0022              add [edx],ah
000060A5  000C00            add [eax+eax],cl
000060A8  13050000DC9A      adc eax,[0x9adc0000]
000060AE  0408              add al,0x8
000060B0  1300              adc eax,[eax]
000060B2  0000              add [eax],al
000060B4  2200              and al,[eax]
000060B6  0C00              or al,0x0
000060B8  7105              jno 0x60bf
000060BA  0000              add [eax],al
000060BC  46                inc esi
000060BD  A7                cmpsd
000060BE  0408              add al,0x8
000060C0  1A00              sbb al,[eax]
000060C2  0000              add [eax],al
000060C4  2200              and al,[eax]
000060C6  0C00              or al,0x0
000060C8  8B050000D9A6      mov eax,[0xa6d90000]
000060CE  0408              add al,0x8
000060D0  0800              or [eax],al
000060D2  0000              add [eax],al
000060D4  2200              and al,[eax]
000060D6  0C00              or al,0x0
000060D8  A805              test al,0x5
000060DA  0000              add [eax],al
000060DC  A08E040800        mov al,[0x8048e]
000060E1  0000              add [eax],al
000060E3  0012              add [edx],dl
000060E5  000C00            add [eax+eax],cl
000060E8  AF                scasd
000060E9  0500004CA4        add eax,0xa44c0000
000060EE  0408              add al,0x8
000060F0  1A00              sbb al,[eax]
000060F2  0000              add [eax],al
000060F4  2200              and al,[eax]
000060F6  0C00              or al,0x0
000060F8  E105              loope 0x60ff
000060FA  0000              add [eax],al
000060FC  42                inc edx
000060FD  AF                scasd
000060FE  0408              add al,0x8
00006100  0B00              or eax,[eax]
00006102  0000              add [eax],al
00006104  2200              and al,[eax]
00006106  0C00              or al,0x0
00006108  3306              xor eax,[esi]
0000610A  0000              add [eax],al
0000610C  58                pop eax
0000610D  B204              mov dl,0x4
0000610F  080A              or [edx],cl
00006111  0000              add [eax],al
00006113  0022              add [edx],ah
00006115  000C00            add [eax+eax],cl
00006118  7D06              jnl 0x6120
0000611A  0000              add [eax],al
0000611C  B6A5              mov dh,0xa5
0000611E  0408              add al,0x8
00006120  94                xchg eax,esp
00006121  0000              add [eax],al
00006123  0022              add [edx],ah
00006125  000C00            add [eax+eax],cl
00006128  F8                clc
00006129  06                push es
0000612A  0000              add [eax],al
0000612C  D4A4              aam 0xa4
0000612E  0408              add al,0x8
00006130  0B00              or eax,[eax]
00006132  0000              add [eax],al
00006134  2200              and al,[eax]
00006136  0C00              or al,0x0
00006138  5A                pop edx
00006139  07                pop es
0000613A  0000              add [eax],al
0000613C  C6                db 0xC6
0000613D  A6                cmpsb
0000613E  0408              add al,0x8
00006140  1300              adc eax,[eax]
00006142  0000              add [eax],al
00006144  2200              and al,[eax]
00006146  0C00              or al,0x0
00006148  68070000AA        push dword 0xaa000007
0000614D  B104              mov cl,0x4
0000614F  080500000022      or [0x22000000],al
00006155  000C00            add [eax+eax],cl
00006158  97                xchg eax,edi
00006159  07                pop es
0000615A  0000              add [eax],al
0000615C  B29B              mov dl,0x9b
0000615E  0408              add al,0x8
00006160  0D00000022        or eax,0x22000000
00006165  000C00            add [eax+eax],cl
00006168  BF07000018        mov edi,0x18000007
0000616D  A104085000        mov eax,[0x500804]
00006172  0000              add [eax],al
00006174  2200              and al,[eax]
00006176  0C00              or al,0x0
00006178  1108              adc [eax],ecx
0000617A  0000              add [eax],al
0000617C  0000              add [eax],al
0000617E  0000              add [eax],al
00006180  0000              add [eax],al
00006182  0000              add [eax],al
00006184  2000              and [eax],al
00006186  0000              add [eax],al
00006188  2008              and [eax],cl
0000618A  0000              add [eax],al
0000618C  0000              add [eax],al
0000618E  0000              add [eax],al
00006190  0000              add [eax],al
00006192  0000              add [eax],al
00006194  2000              and [eax],al
00006196  0000              add [eax],al
00006198  3408              xor al,0x8
0000619A  0000              add [eax],al
0000619C  24B3              and al,0xb3
0000619E  0408              add al,0x8
000061A0  0400              add al,0x0
000061A2  0000              add [eax],al
000061A4  1100              adc [eax],eax
000061A6  0E                push cs
000061A7  003B              add [ebx],bh
000061A9  0800              or [eax],al
000061AB  0000              add [eax],al
000061AD  0000              add [eax],al
000061AF  0000              add [eax],al
000061B1  0000              add [eax],al
000061B3  0012              add [edx],dl
000061B5  0000              add [eax],al
000061B7  005208            add [edx+0x8],dl
000061BA  0000              add [eax],al
000061BC  E2A6              loop 0x6164
000061BE  0408              add al,0x8
000061C0  1300              adc eax,[eax]
000061C2  0000              add [eax],al
000061C4  2200              and al,[eax]
000061C6  0C00              or al,0x0
000061C8  7F08              jg 0x61d2
000061CA  0000              add [eax],al
000061CC  18B204080A00      sbb [edx+0xa0804],dh
000061D2  0000              add [eax],al
000061D4  2200              and al,[eax]
000061D6  0C00              or al,0x0
000061D8  BF08000000        mov edi,0x8
000061DD  0000              add [eax],al
000061DF  0000              add [eax],al
000061E1  0000              add [eax],al
000061E3  0012              add [edx],dl
000061E5  0000              add [eax],al
000061E7  00D3              add bl,dl
000061E9  0800              or [eax],al
000061EB  005AA0            add [edx-0x60],bl
000061EE  0408              add al,0x8
000061F0  1A00              sbb al,[eax]
000061F2  0000              add [eax],al
000061F4  2200              and al,[eax]
000061F6  0C00              or al,0x0
000061F8  ED                in eax,dx
000061F9  0800              or [eax],al
000061FB  0066A4            add [esi-0x5c],ah
000061FE  0408              add al,0x8
00006200  0D00000022        or eax,0x22000000
00006205  000C00            add [eax+eax],cl
00006208  2309              and ecx,[ecx]
0000620A  0000              add [eax],al
0000620C  08B304080000      or [ebx+0x804],dh
00006212  0000              add [eax],al
00006214  1200              adc al,[eax]
00006216  0D00290900        or eax,0x92900
0000621B  0000              add [eax],al
0000621D  0000              add [eax],al
0000621F  0000              add [eax],al
00006221  0000              add [eax],al
00006223  0012              add [edx],dl
00006225  0000              add [eax],al
00006227  004809            add [eax+0x9],cl
0000622A  0000              add [eax],al
0000622C  0000              add [eax],al
0000622E  0000              add [eax],al
00006230  0000              add [eax],al
00006232  0000              add [eax],al
00006234  1200              adc al,[eax]
00006236  0000              add [eax],al
00006238  6209              bound ecx,[ecx]
0000623A  0000              add [eax],al
0000623C  0000              add [eax],al
0000623E  0000              add [eax],al
00006240  0000              add [eax],al
00006242  0000              add [eax],al
00006244  1200              adc al,[eax]
00006246  0000              add [eax],al
00006248  7D09              jnl 0x6253
0000624A  0000              add [eax],al
0000624C  F6A604082200      mul byte [esi+0x220804]
00006252  0000              add [eax],al
00006254  2200              and al,[eax]
00006256  0C00              or al,0x0
00006258  D7                xlatb
00006259  0900              or [eax],eax
0000625B  00FC              add ah,bh
0000625D  AD                lodsd
0000625E  0408              add al,0x8
00006260  0500000022        add eax,0x22000000
00006265  000C00            add [eax+eax],cl
00006268  FC                cld
00006269  0900              or [eax],eax
0000626B  0010              add [eax],dl
0000626D  9F                lahf
0000626E  0408              add al,0x8
00006270  1300              adc eax,[eax]
00006272  0000              add [eax],al
00006274  2200              and al,[eax]
00006276  0C00              or al,0x0
00006278  42                inc edx
00006279  0A00              or al,[eax]
0000627B  006C9904          add [ecx+ebx*4+0x4],ch
0000627F  0813              or [ebx],dl
00006281  0000              add [eax],al
00006283  0022              add [edx],ah
00006285  000C00            add [eax+eax],cl
00006288  650A00            or al,[gs:eax]
0000628B  00E0              add al,ah
0000628D  AD                lodsd
0000628E  0408              add al,0x8
00006290  0800              or [eax],al
00006292  0000              add [eax],al
00006294  2200              and al,[eax]
00006296  0C00              or al,0x0
00006298  B50A              mov ch,0xa
0000629A  0000              add [eax],al
0000629C  C89A0408          enter 0x49a,0x8
000062A0  1300              adc eax,[eax]
000062A2  0000              add [eax],al
000062A4  2200              and al,[eax]
000062A6  0C00              or al,0x0
000062A8  E10A              loope 0x62b4
000062AA  0000              add [eax],al
000062AC  94                xchg eax,esp
000062AD  99                cdq
000062AE  0408              add al,0x8
000062B0  1300              adc eax,[eax]
000062B2  0000              add [eax],al
000062B4  2200              and al,[eax]
000062B6  0C00              or al,0x0
000062B8  040B              add al,0xb
000062BA  0000              add [eax],al
000062BC  AA                stosb
000062BD  B104              mov cl,0x4
000062BF  080500000022      or [0x22000000],al
000062C5  000C00            add [eax+eax],cl
000062C8  330B              xor ecx,[ebx]
000062CA  0000              add [eax],al
000062CC  E4AE              in al,0xae
000062CE  0408              add al,0x8
000062D0  0500000022        add eax,0x22000000
000062D5  000C00            add [eax+eax],cl
000062D8  620B              bound ecx,[ebx]
000062DA  0000              add [eax],al
000062DC  66A4              o16 movsb
000062DE  0408              add al,0x8
000062E0  0D00000022        or eax,0x22000000
000062E5  000C00            add [eax+eax],cl
000062E8  98                cwde
000062E9  0B00              or eax,[eax]
000062EB  005E99            add [esi-0x67],bl
000062EE  0408              add al,0x8
000062F0  0D00000022        or eax,0x22000000
000062F5  000C00            add [eax+eax],cl
000062F8  B20B              mov dl,0xb
000062FA  0000              add [eax],al
000062FC  C2AE04            ret 0x4ae
000062FF  080500000022      or [0x22000000],al
00006305  000C00            add [eax+eax],cl
00006308  F4                hlt
00006309  0B00              or eax,[eax]
0000630B  00C4              add ah,al
0000630D  A4                movsb
0000630E  0408              add al,0x8
00006310  0500000022        add eax,0x22000000
00006315  000C00            add [eax+eax],cl
00006318  360C00            ss or al,0x0
0000631B  0000              add [eax],al
0000631D  0000              add [eax],al
0000631F  0000              add [eax],al
00006321  0000              add [eax],al
00006323  0012              add [edx],dl
00006325  0000              add [eax],al
00006327  00730C            add [ebx+0xc],dh
0000632A  0000              add [eax],al
0000632C  F0A7              lock cmpsd
0000632E  0408              add al,0x8
00006330  A4                movsb
00006331  0000              add [eax],al
00006333  0022              add [edx],ah
00006335  000C00            add [eax+eax],cl
00006338  BE0C0000EA        mov esi,0xea00000c
0000633D  B004              mov al,0x4
0000633F  081D00000022      or [0x22000000],bl
00006345  000C00            add [eax+eax],cl
00006348  E90C000000        jmp 0x6359
0000634D  0000              add [eax],al
0000634F  0000              add [eax],al
00006351  0000              add [eax],al
00006353  0012              add [edx],dl
00006355  0000              add [eax],al
00006357  0006              add [esi],al
00006359  0D000074A4        or eax,0xa4740000
0000635E  0408              add al,0x8
00006360  50                push eax
00006361  0000              add [eax],al
00006363  0022              add [edx],ah
00006365  000C00            add [eax+eax],cl
00006368  640D00000000      fs or eax,0x0
0000636E  0000              add [eax],al
00006370  0000              add [eax],al
00006372  0000              add [eax],al
00006374  1200              adc al,[eax]
00006376  0000              add [eax],al
00006378  850D00000000      test [0x0],ecx
0000637E  0000              add [eax],al
00006380  0000              add [eax],al
00006382  0000              add [eax],al
00006384  1200              adc al,[eax]
00006386  0000              add [eax],al
00006388  9F                lahf
00006389  0D0000E69E        or eax,0x9ee60000
0000638E  0408              add al,0x8
00006390  0F0000            sldt [eax]
00006393  0022              add [edx],ah
00006395  000C00            add [eax+eax],cl
00006398  E00D              loopne 0x63a7
0000639A  0000              add [eax],al
0000639C  C09B04081E0100    rcr byte [ebx+0x11e0804],0x0
000063A3  0022              add [edx],ah
000063A5  000C00            add [eax+eax],cl
000063A8  0F0E              femms
000063AA  0000              add [eax],al
000063AC  DAAD04080500      fisubr dword [ebp+0x50804]
000063B2  0000              add [eax],al
000063B4  2200              and al,[eax]
000063B6  0C00              or al,0x0
000063B8  47                inc edi
000063B9  0E                push cs
000063BA  0000              add [eax],al
000063BC  C2AE04            ret 0x4ae
000063BF  080500000022      or [0x22000000],al
000063C5  000C00            add [eax+eax],cl
000063C8  890E              mov [esi],ecx
000063CA  0000              add [eax],al
000063CC  389F04085000      cmp [edi+0x500804],bl
000063D2  0000              add [eax],al
000063D4  2200              and al,[eax]
000063D6  0C00              or al,0x0
000063D8  EC                in al,dx
000063D9  0E                push cs
000063DA  0000              add [eax],al
000063DC  22B204083600      and dh,[edx+0x360804]
000063E2  0000              add [eax],al
000063E4  2200              and al,[eax]
000063E6  0C00              or al,0x0
000063E8  380F              cmp [edi],cl
000063EA  0000              add [eax],al
000063EC  AF                scasd
000063ED  B104              mov cl,0x4
000063EF  080B              or [ebx],cl
000063F1  0000              add [eax],al
000063F3  0022              add [edx],ah
000063F5  000C00            add [eax+eax],cl
000063F8  9C                pushf
000063F9  0F0000            sldt [eax]
000063FC  9AA504080B0000    call 0x0:0xb0804a5
00006403  0022              add [edx],ah
00006405  000C00            add [eax+eax],cl
00006408  EA0F0000000000    jmp 0x0:0xf
0000640F  0000              add [eax],al
00006411  0000              add [eax],al
00006413  0020              add [eax],ah
00006415  0000              add [eax],al
00006417  0006              add [esi],al
00006419  1000              adc [eax],al
0000641B  0000              add [eax],al
0000641D  0000              add [eax],al
0000641F  0000              add [eax],al
00006421  0000              add [eax],al
00006423  0012              add [edx],dl
00006425  0000              add [eax],al
00006427  004B10            add [ebx+0x10],cl
0000642A  0000              add [eax],al
0000642C  28B304080400      sub [ebx+0x40804],dh
00006432  0000              add [eax],al
00006434  1100              adc [eax],eax
00006436  0E                push cs
00006437  005A10            add [edx+0x10],bl
0000643A  0000              add [eax],al
0000643C  51                push ecx
0000643D  99                cdq
0000643E  0408              add al,0x8
00006440  0800              or [eax],al
00006442  0000              add [eax],al
00006444  2200              and al,[eax]
00006446  0C00              or al,0x0
00006448  6210              bound edx,[eax]
0000644A  0000              add [eax],al
0000644C  60                pusha
0000644D  A7                cmpsd
0000644E  0408              add al,0x8
00006450  2200              and al,[eax]
00006452  0000              add [eax],al
00006454  2200              and al,[eax]
00006456  0C00              or al,0x0
00006458  A010000069        mov al,[0x69000010]
0000645D  9A04085E000000    call 0x0:0x5e0804
00006464  2200              and al,[eax]
00006466  0C00              or al,0x0
00006468  D510              aad 0x10
0000646A  0000              add [eax],al
0000646C  0000              add [eax],al
0000646E  0000              add [eax],al
00006470  0000              add [eax],al
00006472  0000              add [eax],al
00006474  1200              adc al,[eax]
00006476  0000              add [eax],al
00006478  2D11000000        sub eax,0x11
0000647D  0000              add [eax],al
0000647F  0000              add [eax],al
00006481  0000              add [eax],al
00006483  0012              add [edx],dl
00006485  0000              add [eax],al
00006487  00441100          add [ecx+edx+0x0],al
0000648B  0074A004          add [eax+0x4],dh
0000648F  084C0000          or [eax+eax+0x0],cl
00006493  0022              add [edx],ah
00006495  000C00            add [eax+eax],cl
00006498  93                xchg eax,ebx
00006499  1100              adc [eax],eax
0000649B  00D8              add al,bl
0000649D  9F                lahf
0000649E  0408              add al,0x8
000064A0  2900              sub [eax],eax
000064A2  0000              add [eax],al
000064A4  2200              and al,[eax]
000064A6  0C00              or al,0x0
000064A8  CD11              int 0x11
000064AA  0000              add [eax],al
000064AC  6C                insb
000064AD  AE                scasb
000064AE  0408              add al,0x8
000064B0  55                push ebp
000064B1  0000              add [eax],al
000064B3  0022              add [edx],ah
000064B5  000C00            add [eax+eax],cl
000064B8  0012              add [edx],dl
000064BA  0000              add [eax],al
000064BC  6C                insb
000064BD  B104              mov cl,0x4
000064BF  080500000022      or [0x22000000],al
000064C5  000C00            add [eax+eax],cl
000064C8  25120000D0        and eax,0xd0000012
000064CD  AE                scasb
000064CE  0408              add al,0x8
000064D0  1300              adc eax,[eax]
000064D2  0000              add [eax],al
000064D4  2200              and al,[eax]
000064D6  0C00              or al,0x0
000064D8  5C                pop esp
000064D9  1200              adc al,[eax]
000064DB  00FC              add ah,bh
000064DD  AD                lodsd
000064DE  0408              add al,0x8
000064E0  0500000022        add eax,0x22000000
000064E5  000C00            add [eax+eax],cl
000064E8  811200000000      adc dword [edx],0x0
000064EE  0000              add [eax],al
000064F0  0000              add [eax],al
000064F2  0000              add [eax],al
000064F4  2000              and [eax],al
000064F6  0000              add [eax],al
000064F8  9B                wait
000064F9  1200              adc al,[eax]
000064FB  005CDD04          add [ebp+ebx*8+0x4],bl
000064FF  0800              or [eax],al
00006501  0000              add [eax],al
00006503  0010              add [eax],dl
00006505  0018              add [eax],bl
00006507  00A812000070      add [eax+0x70000012],ch
0000650D  A30408DB00        mov [0xdb0804],eax
00006512  0000              add [eax],al
00006514  2200              and al,[eax]
00006516  0C00              or al,0x0
00006518  0913              or [ebx],edx
0000651A  0000              add [eax],al
0000651C  9A9D0408130000    call 0x0:0x1308049d
00006523  0022              add [edx],ah
00006525  000C00            add [eax+eax],cl
00006528  43                inc ebx
00006529  1300              adc eax,[eax]
0000652B  00C0              add al,al
0000652D  8F0408            pop dword [eax+ecx]
00006530  46                inc esi
00006531  0000              add [eax],al
00006533  0012              add [edx],dl
00006535  000C00            add [eax+eax],cl
00006538  4E                dec esi
00006539  1300              adc eax,[eax]
0000653B  0074A404          add [esp+0x4],dh
0000653F  085000            or [eax+0x0],dl
00006542  0000              add [eax],al
00006544  2200              and al,[eax]
00006546  0C00              or al,0x0
00006548  AC                lodsb
00006549  1300              adc eax,[eax]
0000654B  00DC              add ah,bl
0000654D  9A040813000000    call 0x0:0x130804
00006554  2200              and al,[eax]
00006556  0C00              or al,0x0
00006558  0A1400            or dl,[eax+eax]
0000655B  00E8              add al,ch
0000655D  AD                lodsd
0000655E  0408              add al,0x8
00006560  1300              adc eax,[eax]
00006562  0000              add [eax],al
00006564  2200              and al,[eax]
00006566  0C00              or al,0x0
00006568  361400            ss adc al,0x0
0000656B  003DAE04080B      add [0xb0804ae],bh
00006571  0000              add [eax],al
00006573  0022              add [edx],ah
00006575  000C00            add [eax+eax],cl
00006578  8E1400            mov ss,[eax+eax]
0000657B  0000              add [eax],al
0000657D  0000              add [eax],al
0000657F  0000              add [eax],al
00006581  0000              add [eax],al
00006583  0012              add [edx],dl
00006585  0000              add [eax],al
00006587  00A614000002      add [esi+0x2000014],ah
0000658D  AE                scasb
0000658E  0408              add al,0x8
00006590  1300              adc eax,[eax]
00006592  0000              add [eax],al
00006594  2200              and al,[eax]
00006596  0C00              or al,0x0
00006598  EC                in al,dx
00006599  1400              adc al,0x0
0000659B  00B69F040822      add [esi+0x2208049f],dh
000065A1  0000              add [eax],al
000065A3  0022              add [edx],ah
000065A5  000C00            add [eax+eax],cl
000065A8  291500000000      sub [0x0],edx
000065AE  0000              add [eax],al
000065B0  0000              add [eax],al
000065B2  0000              add [eax],al
000065B4  1200              adc al,[eax]
000065B6  0000              add [eax],al
000065B8  46                inc esi
000065B9  150000D0AE        adc eax,0xaed00000
000065BE  0408              add al,0x8
000065C0  1300              adc eax,[eax]
000065C2  0000              add [eax],al
000065C4  2200              and al,[eax]
000065C6  0C00              or al,0x0
000065C8  7D15              jnl 0x65df
000065CA  0000              add [eax],al
000065CC  FA                cli
000065CD  A104086E01        mov eax,[0x16e0804]
000065D2  0000              add [eax],al
000065D4  2200              and al,[eax]
000065D6  0C00              or al,0x0
000065D8  D21500004CA5      rcl byte [0xa54c0000],cl
000065DE  0408              add al,0x8
000065E0  4D                dec ebp
000065E1  0000              add [eax],al
000065E3  0022              add [edx],ah
000065E5  000C00            add [eax+eax],cl
000065E8  2616              es push ss
000065EA  0000              add [eax],al
000065EC  54                push esp
000065ED  9D                popf
000065EE  0408              add al,0x8
000065F0  1800              sbb [eax],al
000065F2  0000              add [eax],al
000065F4  2200              and al,[eax]
000065F6  0C00              or al,0x0
000065F8  52                push edx
000065F9  16                push ss
000065FA  0000              add [eax],al
000065FC  0000              add [eax],al
000065FE  0000              add [eax],al
00006600  0000              add [eax],al
00006602  0000              add [eax],al
00006604  1200              adc al,[eax]
00006606  0000              add [eax],al
00006608  90                nop
00006609  16                push ss
0000660A  0000              add [eax],al
0000660C  C6                db 0xC6
0000660D  A6                cmpsb
0000660E  0408              add al,0x8
00006610  1300              adc eax,[eax]
00006612  0000              add [eax],al
00006614  2200              and al,[eax]
00006616  0C00              or al,0x0
00006618  9E                sahf
00006619  16                push ss
0000661A  0000              add [eax],al
0000661C  BAB104080B        mov edx,0xb0804b1
00006621  0000              add [eax],al
00006623  0022              add [edx],ah
00006625  000C00            add [eax+eax],cl
00006628  0217              add dl,[edi]
0000662A  0000              add [eax],al
0000662C  64DD0408          fld qword [fs:eax+ecx]
00006630  0000              add [eax],al
00006632  0000              add [eax],al
00006634  1102              adc [edx],eax
00006636  1800              sbb [eax],al
00006638  0E                push cs
00006639  17                pop ss
0000663A  0000              add [eax],al
0000663C  80990408130000    sbb byte [ecx+0x130804],0x0
00006643  0022              add [edx],ah
00006645  000C00            add [eax+eax],cl
00006648  3A17              cmp dl,[edi]
0000664A  0000              add [eax],al
0000664C  C89A0408          enter 0x49a,0x8
00006650  1300              adc eax,[eax]
00006652  0000              add [eax],al
00006654  2200              and al,[eax]
00006656  0C00              or al,0x0
00006658  6617              o16 pop ss
0000665A  0000              add [eax],al
0000665C  0000              add [eax],al
0000665E  0000              add [eax],al
00006660  0000              add [eax],al
00006662  0000              add [eax],al
00006664  1200              adc al,[eax]
00006666  0000              add [eax],al
00006668  A217000022        mov [0x22000017],al
0000666D  9D                popf
0000666E  0408              add al,0x8
00006670  1400              adc al,0x0
00006672  0000              add [eax],al
00006674  2200              and al,[eax]
00006676  0C00              or al,0x0
00006678  D217              rcl byte [edi],cl
0000667A  0000              add [eax],al
0000667C  E2A0              loop 0x661e
0000667E  0408              add al,0x8
00006680  2200              and al,[eax]
00006682  0000              add [eax],al
00006684  2200              and al,[eax]
00006686  0C00              or al,0x0
00006688  1A18              sbb bl,[eax]
0000668A  0000              add [eax],al
0000668C  60                pusha
0000668D  DD0408            fld qword [eax+ecx]
00006690  0000              add [eax],al
00006692  0000              add [eax],al
00006694  1102              adc [edx],eax
00006696  1800              sbb [eax],al
00006698  27                daa
00006699  1800              sbb [eax],al
0000669B  000CA1            add [ecx],cl
0000669E  0408              add al,0x8
000066A0  0B00              or eax,[eax]
000066A2  0000              add [eax],al
000066A4  2200              and al,[eax]
000066A6  0C00              or al,0x0
000066A8  651800            sbb [gs:eax],al
000066AB  004AA6            add [edx-0x5a],cl
000066AE  0408              add al,0x8
000066B0  0D00000022        or eax,0x22000000
000066B5  000C00            add [eax+eax],cl
000066B8  A6                cmpsb
000066B9  1800              sbb [eax],al
000066BB  0036              add [esi],dh
000066BD  9D                popf
000066BE  0408              add al,0x8
000066C0  1D00000022        sbb eax,0x22000000
000066C5  000C00            add [eax+eax],cl
000066C8  D118              rcr dword [eax],1
000066CA  0000              add [eax],al
000066CC  889F04080B00      mov [edi+0xb0804],bl
000066D2  0000              add [eax],al
000066D4  2200              and al,[eax]
000066D6  0C00              or al,0x0
000066D8  1E                push ds
000066D9  1900              sbb [eax],eax
000066DB  00D0              add al,dl
000066DD  DB0408            fild dword [eax+ecx]
000066E0  0000              add [eax],al
000066E2  0000              add [eax],al
000066E4  1102              adc [edx],eax
000066E6  1300              adc eax,[eax]
000066E8  2B19              sub ebx,[ecx]
000066EA  0000              add [eax],al
000066EC  80B204085A0000    xor byte [edx+0x5a0804],0x0
000066F3  0012              add [edx],dl
000066F5  000C00            add [eax+eax],cl
000066F8  3B19              cmp ebx,[ecx]
000066FA  0000              add [eax],al
000066FC  0000              add [eax],al
000066FE  0000              add [eax],al
00006700  0000              add [eax],al
00006702  0000              add [eax],al
00006704  1200              adc al,[eax]
00006706  0000              add [eax],al
00006708  7719              ja 0x6723
0000670A  0000              add [eax],al
0000670C  FE                db 0xFE
0000670D  AC                lodsb
0000670E  0408              add al,0x8
00006710  DB00              fild dword [eax]
00006712  0000              add [eax],al
00006714  2200              and al,[eax]
00006716  0C00              or al,0x0
00006718  E519              in eax,0x19
0000671A  0000              add [eax],al
0000671C  F6AC0408080000    imul byte [esp+eax+0x808]
00006723  0022              add [edx],ah
00006725  000C00            add [eax+eax],cl
00006728  0E                push cs
00006729  1A00              sbb al,[eax]
0000672B  004AA9            add [edx-0x57],cl
0000672E  0408              add al,0x8
00006730  7300              jnc 0x6732
00006732  0000              add [eax],al
00006734  2200              and al,[eax]
00006736  0C00              or al,0x0
00006738  7F1A              jg 0x6754
0000673A  0000              add [eax],al
0000673C  7CAF              jl 0x66ed
0000673E  0408              add al,0x8
00006740  61                popa
00006741  0100              add [eax],eax
00006743  0022              add [edx],ah
00006745  000C00            add [eax+eax],cl
00006748  E01A              loopne 0x6764
0000674A  0000              add [eax],al
0000674C  9E                sahf
0000674D  A6                cmpsb
0000674E  0408              add al,0x8
00006750  27                daa
00006751  0000              add [eax],al
00006753  0022              add [edx],ah
00006755  000C00            add [eax+eax],cl
00006758  281B              sub [ebx],bl
0000675A  0000              add [eax],al
0000675C  23A704082200      and esp,[edi+0x220804]
00006762  0000              add [eax],al
00006764  2200              and al,[eax]
00006766  0C00              or al,0x0
00006768  7D1B              jnl 0x6785
0000676A  0000              add [eax],al
0000676C  CDA7              int 0xa7
0000676E  0408              add al,0x8
00006770  2200              and al,[eax]
00006772  0000              add [eax],al
00006774  2200              and al,[eax]
00006776  0C00              or al,0x0
00006778  D31B              rcr dword [ebx],cl
0000677A  0000              add [eax],al
0000677C  46                inc esi
0000677D  A004081400        mov al,[0x140804]
00006782  0000              add [eax],al
00006784  2200              and al,[eax]
00006786  0C00              or al,0x0
00006788  031C00            add ebx,[eax+eax]
0000678B  0000              add [eax],al
0000678D  0000              add [eax],al
0000678F  0000              add [eax],al
00006791  0000              add [eax],al
00006793  0012              add [edx],dl
00006795  0000              add [eax],al
00006797  001A              add [edx],bl
00006799  1C00              sbb al,0x0
0000679B  00EA              add dl,ch
0000679D  B104              mov cl,0x4
0000679F  082E              or [esi],ch
000067A1  0000              add [eax],al
000067A3  0022              add [edx],ah
000067A5  000C00            add [eax+eax],cl
000067A8  59                pop ecx
000067A9  1C00              sbb al,0x0
000067AB  003E              add [esi],bh
000067AD  A5                movsd
000067AE  0408              add al,0x8
000067B0  0D00000022        or eax,0x22000000
000067B5  000C00            add [eax+eax],cl
000067B8  96                xchg eax,esi
000067B9  1C00              sbb al,0x0
000067BB  0020              add [eax],ah
000067BD  AE                scasb
000067BE  0408              add al,0x8
000067C0  1D00000022        sbb eax,0x22000000
000067C5  000C00            add [eax+eax],cl
000067C8  C9                leave
000067C9  1C00              sbb al,0x0
000067CB  0000              add [eax],al
000067CD  0000              add [eax],al
000067CF  0000              add [eax],al
000067D1  0000              add [eax],al
000067D3  0012              add [edx],dl
000067D5  0000              add [eax],al
000067D7  00DC              add ah,bl
000067D9  1C00              sbb al,0x0
000067DB  00A6A504080F      add [esi+0xf0804a5],ah
000067E1  0000              add [eax],al
000067E3  0022              add [edx],ah
000067E5  000C00            add [eax+eax],cl
000067E8  281D000058A6      sub [0xa6580000],bl
000067EE  0408              add al,0x8
000067F0  1300              adc eax,[eax]
000067F2  0000              add [eax],al
000067F4  2200              and al,[eax]
000067F6  0C00              or al,0x0
000067F8  49                dec ecx
000067F9  1D000070AF        sbb eax,0xaf700000
000067FE  0408              add al,0x8
00006800  0B00              or eax,[eax]
00006802  0000              add [eax],al
00006804  2200              and al,[eax]
00006806  0C00              or al,0x0
00006808  93                xchg eax,ebx
00006809  1D0000AE9D        sbb eax,0x9dae0000
0000680E  0408              add al,0x8
00006810  1300              adc eax,[eax]
00006812  0000              add [eax],al
00006814  2200              and al,[eax]
00006816  0C00              or al,0x0
00006818  B41D              mov ah,0x1d
0000681A  0000              add [eax],al
0000681C  68A1040805        push dword 0x50804a1
00006821  0000              add [eax],al
00006823  0022              add [edx],ah
00006825  000C00            add [eax+eax],cl
00006828  EC                in al,dx
00006829  1D000018A7        sbb eax,0xa7180000
0000682E  0408              add al,0x8
00006830  0B00              or eax,[eax]
00006832  0000              add [eax],al
00006834  2200              and al,[eax]
00006836  0C00              or al,0x0
00006838  2B1E              sub ebx,[esi]
0000683A  0000              add [eax],al
0000683C  0000              add [eax],al
0000683E  0000              add [eax],al
00006840  0000              add [eax],al
00006842  0000              add [eax],al
00006844  1200              adc al,[eax]
00006846  0000              add [eax],al
00006848  49                dec ecx
00006849  1E                push ds
0000684A  0000              add [eax],al
0000684C  BC9904084B        mov esp,0x4b080499
00006851  0000              add [eax],al
00006853  0022              add [edx],ah
00006855  000C00            add [eax+eax],cl
00006858  831E00            sbb dword [esi],byte +0x0
0000685B  00C8              add al,cl
0000685D  AE                scasb
0000685E  0408              add al,0x8
00006860  0800              or [eax],al
00006862  0000              add [eax],al
00006864  2200              and al,[eax]
00006866  0C00              or al,0x0
00006868  DF1E              fistp word [esi]
0000686A  0000              add [eax],al
0000686C  6C                insb
0000686D  99                cdq
0000686E  0408              add al,0x8
00006870  1300              adc eax,[eax]
00006872  0000              add [eax],al
00006874  2200              and al,[eax]
00006876  0C00              or al,0x0
00006878  021F              add bl,[edi]
0000687A  0000              add [eax],al
0000687C  DAAD04080500      fisubr dword [ebp+0x50804]
00006882  0000              add [eax],al
00006884  2200              and al,[eax]
00006886  0C00              or al,0x0
00006888  3A1F              cmp bl,[edi]
0000688A  0000              add [eax],al
0000688C  64DD0408          fld qword [fs:eax+ecx]
00006890  0000              add [eax],al
00006892  0000              add [eax],al
00006894  1000              adc [eax],al
00006896  1900              sbb [eax],eax
00006898  46                inc esi
00006899  1F                pop ds
0000689A  0000              add [eax],al
0000689C  0000              add [eax],al
0000689E  0000              add [eax],al
000068A0  0000              add [eax],al
000068A2  0000              add [eax],al
000068A4  1200              adc al,[eax]
000068A6  0000              add [eax],al
000068A8  95                xchg eax,ebp
000068A9  1F                pop ds
000068AA  0000              add [eax],al
000068AC  02A904081300      add ch,[ecx+0x130804]
000068B2  0000              add [eax],al
000068B4  2200              and al,[eax]
000068B6  0C00              or al,0x0
000068B8  AD                lodsd
000068B9  1F                pop ds
000068BA  0000              add [eax],al
000068BC  129E04080B00      adc bl,[esi+0xb0804]
000068C2  0000              add [eax],al
000068C4  2200              and al,[eax]
000068C6  0C00              or al,0x0
000068C8  EE                out dx,al
000068C9  1F                pop ds
000068CA  0000              add [eax],al
000068CC  7F9D              jg 0x686b
000068CE  0408              add al,0x8
000068D0  1B00              sbb eax,[eax]
000068D2  0000              add [eax],al
000068D4  2200              and al,[eax]
000068D6  0C00              or al,0x0
000068D8  0420              add al,0x20
000068DA  0000              add [eax],al
000068DC  80990408130000    sbb byte [ecx+0x130804],0x0
000068E3  0022              add [edx],ah
000068E5  000C00            add [eax+eax],cl
000068E8  3020              xor [eax],ah
000068EA  0000              add [eax],al
000068EC  E69E              out 0x9e,al
000068EE  0408              add al,0x8
000068F0  0F0000            sldt [eax]
000068F3  0022              add [edx],ah
000068F5  000C00            add [eax+eax],cl
000068F8  7120              jno 0x691a
000068FA  0000              add [eax],al
000068FC  5A                pop edx
000068FD  A004081A00        mov al,[0x1a0804]
00006902  0000              add [eax],al
00006904  2200              and al,[eax]
00006906  0C00              or al,0x0
00006908  8B20              mov esp,[eax]
0000690A  0000              add [eax],al
0000690C  F69E04081A00      neg byte [esi+0x1a0804]
00006912  0000              add [eax],al
00006914  2200              and al,[eax]
00006916  0C00              or al,0x0
00006918  C3                ret
00006919  2000              and [eax],al
0000691B  006C9D04          add [ebp+ebx*4+0x4],ch
0000691F  0813              or [ebx],dl
00006921  0000              add [eax],al
00006923  0022              add [edx],ah
00006925  000C00            add [eax+eax],cl
00006928  EA200000C0A004    jmp 0x4a0:0xc0000020
0000692F  0822              or [edx],ah
00006931  0000              add [eax],al
00006933  0022              add [edx],ah
00006935  000C00            add [eax+eax],cl
00006938  3421              xor al,0x21
0000693A  0000              add [eax],al
0000693C  4A                dec edx
0000693D  A6                cmpsb
0000693E  0408              add al,0x8
00006940  0D00000022        or eax,0x22000000
00006945  000C00            add [eax+eax],cl
00006948  7521              jnz 0x696b
0000694A  0000              add [eax],al
0000694C  72B1              jc 0x68ff
0000694E  0408              add al,0x8
00006950  37                aaa
00006951  0000              add [eax],al
00006953  0022              add [edx],ah
00006955  000C00            add [eax+eax],cl
00006958  B721              mov bh,0x21
0000695A  0000              add [eax],al
0000695C  0000              add [eax],al
0000695E  0000              add [eax],al
00006960  0000              add [eax],al
00006962  0000              add [eax],al
00006964  1200              adc al,[eax]
00006966  0000              add [eax],al
00006968  D121              shl dword [ecx],1
0000696A  0000              add [eax],al
0000696C  A8A8              test al,0xa8
0000696E  0408              add al,0x8
00006970  3100              xor [eax],eax
00006972  0000              add [eax],al
00006974  2200              and al,[eax]
00006976  0C00              or al,0x0
00006978  3C22              cmp al,0x22
0000697A  0000              add [eax],al
0000697C  C29D04            ret 0x49d
0000697F  085000            or [eax+0x0],dl
00006982  0000              add [eax],al
00006984  2200              and al,[eax]
00006986  0C00              or al,0x0
00006988  92                xchg eax,edx
00006989  2200              and al,[eax]
0000698B  0058A6            add [eax-0x5a],bl
0000698E  0408              add al,0x8
00006990  1300              adc eax,[eax]
00006992  0000              add [eax],al
00006994  2200              and al,[eax]
00006996  0C00              or al,0x0
00006998  B322              mov bl,0x22
0000699A  0000              add [eax],al
0000699C  4C                dec esp
0000699D  A4                movsb
0000699E  0408              add al,0x8
000069A0  1A00              sbb al,[eax]
000069A2  0000              add [eax],al
000069A4  2200              and al,[eax]
000069A6  0C00              or al,0x0
000069A8  E522              in eax,0x22
000069AA  0000              add [eax],al
000069AC  E0A4              loopne 0x6952
000069AE  0408              add al,0x8
000069B0  5D                pop ebp
000069B1  0000              add [eax],al
000069B3  0022              add [edx],ah
000069B5  000C00            add [eax+eax],cl
000069B8  50                push eax
000069B9  2300              and eax,[eax]
000069BB  0000              add [eax],al
000069BD  9D                popf
000069BE  0408              add al,0x8
000069C0  2200              and al,[eax]
000069C2  0000              add [eax],al
000069C4  2200              and al,[eax]
000069C6  0C00              or al,0x0
000069C8  7E23              jng 0x69ed
000069CA  0000              add [eax],al
000069CC  0000              add [eax],al
000069CE  0000              add [eax],al
000069D0  0000              add [eax],al
000069D2  0000              add [eax],al
000069D4  2000              and [eax],al
000069D6  0000              add [eax],al
000069D8  93                xchg eax,ebx
000069D9  2300              and eax,[eax]
000069DB  00B0A704081D      add [eax+0x1d0804a7],dh
000069E1  0000              add [eax],al
000069E3  0022              add [edx],ah
000069E5  000C00            add [eax+eax],cl
000069E8  B423              mov ah,0x23
000069EA  0000              add [eax],al
000069EC  0000              add [eax],al
000069EE  0000              add [eax],al
000069F0  0000              add [eax],al
000069F2  0000              add [eax],al
000069F4  1200              adc al,[eax]
000069F6  0000              add [eax],al
000069F8  CC                int3
000069F9  2300              and eax,[eax]
000069FB  00A6A504080F      add [esi+0xf0804a5],ah
00006A01  0000              add [eax],al
00006A03  0022              add [edx],ah
00006A05  000C00            add [eax+eax],cl
00006A08  182400            sbb [eax+eax],ah
00006A0B  0048AE            add [eax-0x52],cl
00006A0E  0408              add al,0x8
00006A10  2300              and eax,[eax]
00006A12  0000              add [eax],al
00006A14  2200              and al,[eax]
00006A16  0C00              or al,0x0
00006A18  5D                pop ebp
00006A19  2400              and al,0x0
00006A1B  0096A704081A      add [esi+0x1a0804a7],dl
00006A21  0000              add [eax],al
00006A23  0022              add [edx],ah
00006A25  000C00            add [eax+eax],cl
00006A28  8F                db 0x8F
00006A29  2400              and al,0x0
00006A2B  00AE9D040813      add [esi+0x1308049d],ch
00006A31  0000              add [eax],al
00006A33  0022              add [edx],ah
00006A35  000C00            add [eax+eax],cl
00006A38  B024              mov al,0x24
00006A3A  0000              add [eax],al
00006A3C  C9                leave
00006A3D  A4                movsb
00006A3E  0408              add al,0x8
00006A40  0B00              or eax,[eax]
00006A42  0000              add [eax],al
00006A44  2200              and al,[eax]
00006A46  0C00              or al,0x0
00006A48  13250000949B      adc esp,[0x9b940000]
00006A4E  0408              add al,0x8
00006A50  1D00000022        sbb eax,0x22000000
00006A55  000C00            add [eax+eax],cl
00006A58  3A25000068A1      cmp ah,[0xa1680000]
00006A5E  0408              add al,0x8
00006A60  0500000022        add eax,0x22000000
00006A65  000C00            add [eax+eax],cl
00006A68  7225              jc 0x6a8f
00006A6A  0000              add [eax],al
00006A6C  94                xchg eax,esp
00006A6D  9F                lahf
00006A6E  0408              add al,0x8
00006A70  2200              and al,[eax]
00006A72  0000              add [eax],al
00006A74  2200              and al,[eax]
00006A76  0C00              or al,0x0
00006A78  B125              mov cl,0x25
00006A7A  0000              add [eax],al
00006A7C  96                xchg eax,esi
00006A7D  A7                cmpsd
00006A7E  0408              add al,0x8
00006A80  1A00              sbb al,[eax]
00006A82  0000              add [eax],al
00006A84  2200              and al,[eax]
00006A86  0C00              or al,0x0
00006A88  E325              jecxz 0x6aaf
00006A8A  0000              add [eax],al
00006A8C  249F              and al,0x9f
00006A8E  0408              add al,0x8
00006A90  1300              adc eax,[eax]
00006A92  0000              add [eax],al
00006A94  2200              and al,[eax]
00006A96  0C00              or al,0x0
00006A98  0E                push cs
00006A99  260000            add [es:eax],al
00006A9C  94                xchg eax,esp
00006A9D  A804              test al,0x4
00006A9F  0813              or [ebx],dl
00006AA1  0000              add [eax],al
00006AA3  0022              add [edx],ah
00006AA5  000C00            add [eax+eax],cl
00006AA8  3926              cmp [esi],esp
00006AAA  0000              add [eax],al
00006AAC  089A04086100      or [edx+0x610804],bl
00006AB2  0000              add [eax],al
00006AB4  2200              and al,[eax]
00006AB6  0C00              or al,0x0
00006AB8  64260000          add [es:eax],al
00006ABC  0000              add [eax],al
00006ABE  0000              add [eax],al
00006AC0  0000              add [eax],al
00006AC2  0000              add [eax],al
00006AC4  1200              adc al,[eax]
00006AC6  0000              add [eax],al
00006AC8  B326              mov bl,0x26
00006ACA  0000              add [eax],al
00006ACC  18A104085000      sbb [ecx+0x500804],ah
00006AD2  0000              add [eax],al
00006AD4  2200              and al,[eax]
00006AD6  0C00              or al,0x0
00006AD8  05270000BE        add eax,0xbe000027
00006ADD  A904083703        test eax,0x3370804
00006AE2  0000              add [eax],al
00006AE4  2200              and al,[eax]
00006AE6  0C00              or al,0x0
00006AE8  8B27              mov esp,[edi]
00006AEA  0000              add [eax],al
00006AEC  FD                std
00006AED  AE                scasb
00006AEE  0408              add al,0x8
00006AF0  2200              and al,[eax]
00006AF2  0000              add [eax],al
00006AF4  2200              and al,[eax]
00006AF6  0C00              or al,0x0
00006AF8  ED                in eax,dx
00006AF9  27                daa
00006AFA  0000              add [eax],al
00006AFC  6C                insb
00006AFD  DD0408            fld qword [eax+ecx]
00006B00  0000              add [eax],al
00006B02  0000              add [eax],al
00006B04  1000              adc [eax],al
00006B06  1900              sbb [eax],eax
00006B08  F227              repne daa
00006B0A  0000              add [eax],al
00006B0C  0000              add [eax],al
00006B0E  0000              add [eax],al
00006B10  0000              add [eax],al
00006B12  0000              add [eax],al
00006B14  1200              adc al,[eax]
00006B16  0000              add [eax],al
00006B18  1028              adc [eax],ch
00006B1A  0000              add [eax],al
00006B1C  0000              add [eax],al
00006B1E  0000              add [eax],al
00006B20  0000              add [eax],al
00006B22  0000              add [eax],al
00006B24  1200              adc al,[eax]
00006B26  0000              add [eax],al
00006B28  5F                pop edi
00006B29  2800              sub [eax],al
00006B2B  0000              add [eax],al
00006B2D  0000              add [eax],al
00006B2F  0000              add [eax],al
00006B31  0000              add [eax],al
00006B33  0012              add [edx],dl
00006B35  0000              add [eax],al
00006B37  009C28000004A1    add [eax+ebp+0xa1040000],bl
00006B3E  0408              add al,0x8
00006B40  0800              or [eax],al
00006B42  0000              add [eax],al
00006B44  2200              and al,[eax]
00006B46  0C00              or al,0x0
00006B48  C3                ret
00006B49  2800              sub [eax],al
00006B4B  006CA604          add [esi+0x4],ch
00006B4F  0831              or [ecx],dh
00006B51  0000              add [eax],al
00006B53  0022              add [edx],ah
00006B55  000C00            add [eax+eax],cl
00006B58  2229              and ch,[ecx]
00006B5A  0000              add [eax],al
00006B5C  0000              add [eax],al
00006B5E  0000              add [eax],al
00006B60  0000              add [eax],al
00006B62  0000              add [eax],al
00006B64  1200              adc al,[eax]
00006B66  0000              add [eax],al
00006B68  3E2900            sub [ds:eax],eax
00006B6B  0000              add [eax],al
00006B6D  0000              add [eax],al
00006B6F  0000              add [eax],al
00006B71  0000              add [eax],al
00006B73  0012              add [edx],dl
00006B75  0000              add [eax],al
00006B77  00642900          add [ecx+ebp+0x0],ah
00006B7B  0015AE04080B      add [0xb0804ae],dl
00006B81  0000              add [eax],al
00006B83  0022              add [edx],ah
00006B85  000C00            add [eax+eax],cl
00006B88  BB29000082        mov ebx,0x82000029
00006B8D  A7                cmpsd
00006B8E  0408              add al,0x8
00006B90  1400              adc al,0x0
00006B92  0000              add [eax],al
00006B94  2200              and al,[eax]
00006B96  0C00              or al,0x0
00006B98  E129              loope 0x6bc3
00006B9A  0000              add [eax],al
00006B9C  109F04081300      adc [edi+0x130804],bl
00006BA2  0000              add [eax],al
00006BA4  2200              and al,[eax]
00006BA6  0C00              or al,0x0
00006BA8  27                daa
00006BA9  2A00              sub al,[eax]
00006BAB  0032              add [edx],dh
00006BAD  A004081400        mov al,[0x140804]
00006BB2  0000              add [eax],al
00006BB4  2200              and al,[eax]
00006BB6  0C00              or al,0x0
00006BB8  3F                aas
00006BB9  2A00              sub al,[eax]
00006BBB  0084A104087600    add [ecx+0x760804],al
00006BC2  0000              add [eax],al
00006BC4  2200              and al,[eax]
00006BC6  0C00              or al,0x0
00006BC8  9D                popf
00006BC9  2A00              sub al,[eax]
00006BCB  00C4              add ah,al
00006BCD  A4                movsb
00006BCE  0408              add al,0x8
00006BD0  0500000022        add eax,0x22000000
00006BD5  000C00            add [eax+eax],cl
00006BD8  DF2A              fild qword [edx]
00006BDA  0000              add [eax],al
00006BDC  DE9C0408220000    ficomp word [esp+eax+0x2208]
00006BE3  0022              add [edx],ah
00006BE5  000C00            add [eax+eax],cl
00006BE8  0F2B00            movntps [eax],xmm0
00006BEB  00508E            add [eax-0x72],dl
00006BEE  0408              add al,0x8
00006BF0  0000              add [eax],al
00006BF2  0000              add [eax],al
00006BF4  1200              adc al,[eax]
00006BF6  0000              add [eax],al
00006BF8  57                push edi
00006BF9  2B00              sub eax,[eax]
00006BFB  0000              add [eax],al
00006BFD  0000              add [eax],al
00006BFF  0000              add [eax],al
00006C01  0000              add [eax],al
00006C03  0012              add [edx],dl
00006C05  0000              add [eax],al
00006C07  00752B            add [ebp+0x2b],dh
00006C0A  0000              add [eax],al
00006C0C  08B104086300      or [ecx+0x630804],dh
00006C12  0000              add [eax],al
00006C14  2200              and al,[eax]
00006C16  0C00              or al,0x0
00006C18  CD2B              int 0x2b
00006C1A  0000              add [eax],al
00006C1C  809B0408140000    sbb byte [ebx+0x140804],0x0
00006C23  0022              add [edx],ah
00006C25  000C00            add [eax+eax],cl
00006C28  F9                stc
00006C29  2B00              sub eax,[eax]
00006C2B  0020              add [eax],ah
00006C2D  AF                scasd
00006C2E  0408              add al,0x8
00006C30  2100              and [eax],eax
00006C32  0000              add [eax],al
00006C34  2200              and al,[eax]
00006C36  0C00              or al,0x0
00006C38  382C00            cmp [eax+eax],ch
00006C3B  00A899040813      add [eax+0x13080499],ch
00006C41  0000              add [eax],al
00006C43  0022              add [edx],ah
00006C45  000C00            add [eax+eax],cl
00006C48  8A2C00            mov ch,[eax+eax]
00006C4B  0064DD04          add [ebp+ebx*8+0x4],ah
00006C4F  0800              or [eax],al
00006C51  0000              add [eax],al
00006C53  0010              add [eax],dl
00006C55  0018              add [eax],bl
00006C57  00912C0000F0      add [ecx+0xf000002c],dl
00006C5D  9A04084B000000    call 0x0:0x4b0804
00006C64  2200              and al,[eax]
00006C66  0C00              or al,0x0
00006C68  D7                xlatb
00006C69  2C00              sub al,0x0
00006C6B  00DA              add dl,bl
00006C6D  A804              test al,0x4
00006C6F  0827              or [edi],ah
00006C71  0000              add [eax],al
00006C73  0022              add [edx],ah
00006C75  000C00            add [eax+eax],cl
00006C78  2B2D00000000      sub ebp,[0x0]
00006C7E  0000              add [eax],al
00006C80  0000              add [eax],al
00006C82  0000              add [eax],al
00006C84  1200              adc al,[eax]
00006C86  0000              add [eax],al
00006C88  45                inc ebp
00006C89  2D00005999        sub eax,0x99590000
00006C8E  0408              add al,0x8
00006C90  0500000022        add eax,0x22000000
00006C95  000C00            add [eax+eax],cl
00006C98  4E                dec esi
00006C99  2D0000808E        sub eax,0x8e800000
00006C9E  0408              add al,0x8
00006CA0  0000              add [eax],al
00006CA2  0000              add [eax],al
00006CA4  1200              adc al,[eax]
00006CA6  0000              add [eax],al
00006CA8  6F                outsd
00006CA9  2D00003C9B        sub eax,0x9b3c0000
00006CAE  0408              add al,0x8
00006CB0  2200              and al,[eax]
00006CB2  0000              add [eax],al
00006CB4  2200              and al,[eax]
00006CB6  0C00              or al,0x0
00006CB8  97                xchg eax,edi
00006CB9  2D000068A3        sub eax,0xa3680000
00006CBE  0408              add al,0x8
00006CC0  0800              or [eax],al
00006CC2  0000              add [eax],al
00006CC4  2200              and al,[eax]
00006CC6  0C00              or al,0x0
00006CC8  B32D              mov bl,0x2d
00006CCA  0000              add [eax],al
00006CCC  249F              and al,0x9f
00006CCE  0408              add al,0x8
00006CD0  1300              adc eax,[eax]
00006CD2  0000              add [eax],al
00006CD4  2200              and al,[eax]
00006CD6  0C00              or al,0x0
00006CD8  DE2D00000000      fisubr word [0x0]
00006CDE  0000              add [eax],al
00006CE0  0000              add [eax],al
00006CE2  0000              add [eax],al
00006CE4  1200              adc al,[eax]
00006CE6  0000              add [eax],al
00006CE8  F62D0000C6B1      imul byte [0xb1c60000]
00006CEE  0408              add al,0x8
00006CF0  2300              and eax,[eax]
00006CF2  0000              add [eax],al
00006CF4  2200              and al,[eax]
00006CF6  0C00              or al,0x0
00006CF8  47                inc edi
00006CF9  2E0000            add [cs:eax],al
00006CFC  6D                insd
00006CFD  A104080B00        mov eax,[0xb0804]
00006D02  0000              add [eax],al
00006D04  2200              and al,[eax]
00006D06  0C00              or al,0x0
00006D08  9E                sahf
00006D09  2E0000            add [cs:eax],al
00006D0C  1E                push ds
00006D0D  9E                sahf
00006D0E  0408              add al,0x8
00006D10  C70000002200      mov dword [eax],0x220000
00006D16  0C00              or al,0x0
00006D18  EB2E              jmp short 0x6d48
00006D1A  0000              add [eax],al
00006D1C  DEB004080B00      fidiv word [eax+0xb0804]
00006D22  0000              add [eax],al
00006D24  2200              and al,[eax]
00006D26  0C00              or al,0x0
00006D28  3C2F              cmp al,0x2f
00006D2A  0000              add [eax],al
00006D2C  F69E04081A00      neg byte [esi+0x1a0804]
00006D32  0000              add [eax],al
00006D34  2200              and al,[eax]
00006D36  0C00              or al,0x0
00006D38  742F              jz 0x6d69
00006D3A  0000              add [eax],al
00006D3C  6C                insb
00006D3D  B104              mov cl,0x4
00006D3F  080500000022      or [0x22000000],al
00006D45  000C00            add [eax+eax],cl
00006D48  99                cdq
00006D49  2F                das
00006D4A  0000              add [eax],al
00006D4C  78A1              js 0x6cef
00006D4E  0408              add al,0x8
00006D50  0B00              or eax,[eax]
00006D52  0000              add [eax],al
00006D54  2200              and al,[eax]
00006D56  0C00              or al,0x0
00006D58  EF                out dx,eax
00006D59  2F                das
00006D5A  0000              add [eax],al
00006D5C  DAB204080000      fidiv dword [edx+0x804]
00006D62  0000              add [eax],al
00006D64  1202              adc al,[edx]
00006D66  0C00              or al,0x0
00006D68  06                push es
00006D69  3000              xor [eax],al
00006D6B  001CA9            add [ecx+ebp*4],bl
00006D6E  0408              add al,0x8
00006D70  2200              and al,[eax]
00006D72  0000              add [eax],al
00006D74  2200              and al,[eax]
00006D76  0C00              or al,0x0
00006D78  6D                insd
00006D79  3000              xor [eax],al
00006D7B  0006              add [esi],al
00006D7D  90                nop
00006D7E  0408              add al,0x8
00006D80  4B                dec ebx
00006D81  0900              or [eax],eax
00006D83  0012              add [edx],dl
00006D85  000C00            add [eax+eax],cl
00006D88  7230              jc 0x6dba
00006D8A  0000              add [eax],al
00006D8C  048C              add al,0x8c
00006D8E  0408              add al,0x8
00006D90  0000              add [eax],al
00006D92  0000              add [eax],al
00006D94  1200              adc al,[eax]
00006D96  0A00              or al,[eax]
00006D98  7830              js 0x6dca
00006D9A  0000              add [eax],al
00006D9C  E8AD040813        call 0x1308724e
00006DA1  0000              add [eax],al
00006DA3  0022              add [edx],ah
00006DA5  000C00            add [eax+eax],cl
00006DA8  A4                movsb
00006DA9  3000              xor [eax],al
00006DAB  00A899040813      add [eax+0x13080499],ch
00006DB1  0000              add [eax],al
00006DB3  0022              add [edx],ah
00006DB5  000C00            add [eax+eax],cl
00006DB8  00696E            add [ecx+0x6e],ch
00006DBB  69742E6300696E69  imul esi,[esi+ebp+0x63],dword 0x696e6900
00006DC3  7466              jz 0x6e2b
00006DC5  696E692E630063    imul ebp,[esi+0x69],dword 0x6300632e
00006DCC  7274              jc 0x6e42
00006DCE  7374              jnc 0x6e44
00006DD0  7566              jnz 0x6e38
00006DD2  662E6300          o16 arpl [cs:eax],ax
00006DD6  5F                pop edi
00006DD7  5F                pop edi
00006DD8  43                inc ebx
00006DD9  54                push esp
00006DDA  4F                dec edi
00006DDB  52                push edx
00006DDC  5F                pop edi
00006DDD  4C                dec esp
00006DDE  49                dec ecx
00006DDF  53                push ebx
00006DE0  54                push esp
00006DE1  5F                pop edi
00006DE2  5F                pop edi
00006DE3  005F5F            add [edi+0x5f],bl
00006DE6  44                inc esp
00006DE7  54                push esp
00006DE8  4F                dec edi
00006DE9  52                push edx
00006DEA  5F                pop edi
00006DEB  4C                dec esp
00006DEC  49                dec ecx
00006DED  53                push ebx
00006DEE  54                push esp
00006DEF  5F                pop edi
00006DF0  5F                pop edi
00006DF1  005F5F            add [edi+0x5f],bl
00006DF4  4A                dec edx
00006DF5  43                inc ebx
00006DF6  52                push edx
00006DF7  5F                pop edi
00006DF8  4C                dec esp
00006DF9  49                dec ecx
00006DFA  53                push ebx
00006DFB  54                push esp
00006DFC  5F                pop edi
00006DFD  5F                pop edi
00006DFE  00646572          add [ebp+0x72],ah
00006E02  656769737465725F  imul esi,[gs:bp+di+0x74],dword 0x745f7265
         -74
00006E0B  6D                insd
00006E0C  5F                pop edi
00006E0D  636C6F6E          arpl [edi+ebp*2+0x6e],bp
00006E11  657300            gs jnc 0x6e14
00006E14  7265              jc 0x6e7b
00006E16  6769737465725F74  imul esi,[bp+di+0x74],dword 0x745f7265
00006E1E  6D                insd
00006E1F  5F                pop edi
00006E20  636C6F6E          arpl [edi+ebp*2+0x6e],bp
00006E24  657300            gs jnc 0x6e27
00006E27  5F                pop edi
00006E28  5F                pop edi
00006E29  646F              fs outsd
00006E2B  5F                pop edi
00006E2C  676C              a16 insb
00006E2E  6F                outsd
00006E2F  62616C            bound esp,[ecx+0x6c]
00006E32  5F                pop edi
00006E33  64746F            fs jz 0x6ea5
00006E36  7273              jc 0x6eab
00006E38  5F                pop edi
00006E39  61                popa
00006E3A  7578              jnz 0x6eb4
00006E3C  00636F            add [ebx+0x6f],ah
00006E3F  6D                insd
00006E40  706C              jo 0x6eae
00006E42  657465            gs jz 0x6eaa
00006E45  642E3333          xor esi,[cs:ebx]
00006E49  3238              xor bh,[eax]
00006E4B  0064746F          add [esp+esi*2+0x6f],ah
00006E4F  725F              jc 0x6eb0
00006E51  6964782E33333330  imul esp,[eax+edi*2+0x2e],dword 0x30333333
00006E59  006672            add [esi+0x72],ah
00006E5C  61                popa
00006E5D  6D                insd
00006E5E  655F              gs pop edi
00006E60  64756D            fs jnz 0x6ed0
00006E63  6D                insd
00006E64  7900              jns 0x6e66
00006E66  5F                pop edi
00006E67  5F                pop edi
00006E68  43                inc ebx
00006E69  54                push esp
00006E6A  4F                dec edi
00006E6B  52                push edx
00006E6C  5F                pop edi
00006E6D  45                inc ebp
00006E6E  4E                dec esi
00006E6F  44                inc esp
00006E70  5F                pop edi
00006E71  5F                pop edi
00006E72  005F5F            add [edi+0x5f],bl
00006E75  46                inc esi
00006E76  52                push edx
00006E77  41                inc ecx
00006E78  4D                dec ebp
00006E79  45                inc ebp
00006E7A  5F                pop edi
00006E7B  45                inc ebp
00006E7C  4E                dec esi
00006E7D  44                inc esp
00006E7E  5F                pop edi
00006E7F  5F                pop edi
00006E80  005F5F            add [edi+0x5f],bl
00006E83  4A                dec edx
00006E84  43                inc ebx
00006E85  52                push edx
00006E86  5F                pop edi
00006E87  45                inc ebp
00006E88  4E                dec esi
00006E89  44                inc esp
00006E8A  5F                pop edi
00006E8B  5F                pop edi
00006E8C  005F5F            add [edi+0x5f],bl
00006E8F  646F              fs outsd
00006E91  5F                pop edi
00006E92  676C              a16 insb
00006E94  6F                outsd
00006E95  62616C            bound esp,[ecx+0x6c]
00006E98  5F                pop edi
00006E99  63746F72          arpl [edi+ebp*2+0x72],si
00006E9D  735F              jnc 0x6efe
00006E9F  61                popa
00006EA0  7578              jnz 0x6f1a
00006EA2  0031              add [ecx],dh
00006EA4  3833              cmp [ebx],dh
00006EA6  353438365F        xor eax,0x5f363834
00006EAB  313438            xor [eax+edi],esi
00006EAE  313439            xor [ecx+edi],esi
00006EB1  365F              ss pop edi
00006EB3  44                inc esp
00006EB4  41                inc ecx
00006EB5  6C                insb
00006EB6  652E637070        arpl [cs:eax+0x70],si
00006EBB  005F5A            add [edi+0x5a],bl
00006EBE  5A                pop edx
00006EBF  4C                dec esp
00006EC0  3138              xor [eax],edi
00006EC2  5F                pop edi
00006EC3  5F                pop edi
00006EC4  677468            a16 jz 0x6f2f
00006EC7  7265              jc 0x6f2e
00006EC9  61                popa
00006ECA  645F              fs pop edi
00006ECC  61                popa
00006ECD  63746976          arpl [ecx+ebp*2+0x76],si
00006ED1  655F              gs pop edi
00006ED3  7076              jo 0x6f4b
00006ED5  45                inc ebp
00006ED6  3230              xor dh,[eax]
00006ED8  5F                pop edi
00006ED9  5F                pop edi
00006EDA  677468            a16 jz 0x6f45
00006EDD  7265              jc 0x6f44
00006EDF  61                popa
00006EE0  645F              fs pop edi
00006EE2  61                popa
00006EE3  63746976          arpl [ecx+ebp*2+0x76],si
00006EE7  655F              gs pop edi
00006EE9  7074              jo 0x6f5f
00006EEB  7200              jc 0x6eed
00006EED  656C              gs insb
00006EEF  662D696E          sub ax,0x6e69
00006EF3  69742E63005F474C  imul esi,[esi+ebp+0x63],dword 0x4c475f00
00006EFB  4F                dec edi
00006EFC  42                inc edx
00006EFD  41                inc ecx
00006EFE  4C                dec esp
00006EFF  5F                pop edi
00006F00  4F                dec edi
00006F01  46                inc esi
00006F02  46                inc esi
00006F03  53                push ebx
00006F04  45                inc ebp
00006F05  54                push esp
00006F06  5F                pop edi
00006F07  54                push esp
00006F08  41                inc ecx
00006F09  42                inc edx
00006F0A  4C                dec esp
00006F0B  45                inc ebp
00006F0C  5F                pop edi
00006F0D  005F5F            add [edi+0x5f],bl
00006F10  696E69745F6172    imul ebp,[esi+0x69],dword 0x72615f74
00006F17  7261              jc 0x6f7a
00006F19  795F              jns 0x6f7a
00006F1B  656E              gs outsb
00006F1D  64005F5F          add [fs:edi+0x5f],bl
00006F21  696E69745F6172    imul ebp,[esi+0x69],dword 0x72615f74
00006F28  7261              jc 0x6f8b
00006F2A  795F              jns 0x6f8b
00006F2C  7374              jnc 0x6fa2
00006F2E  61                popa
00006F2F  7274              jc 0x6fa5
00006F31  005F44            add [edi+0x44],bl
00006F34  59                pop ecx
00006F35  4E                dec esi
00006F36  41                inc ecx
00006F37  4D                dec ebp
00006F38  49                dec ecx
00006F39  43                inc ebx
00006F3A  00646174          add [ecx+0x74],ah
00006F3E  61                popa
00006F3F  5F                pop edi
00006F40  7374              jnc 0x6fb6
00006F42  61                popa
00006F43  7274              jc 0x6fb9
00006F45  005F5A            add [edi+0x5a],bl
00006F48  4E                dec esi
00006F49  4B                dec ebx
00006F4A  53                push ebx
00006F4B  7433              jz 0x6f80
00006F4D  7365              jnc 0x6fb4
00006F4F  7449              jz 0x6f9a
00006F51  53                push ebx
00006F52  7353              jnc 0x6fa7
00006F54  7434              jz 0x6f8a
00006F56  6C                insb
00006F57  657373            gs jnc 0x6fcd
00006F5A  49                dec ecx
00006F5B  53                push ebx
00006F5C  7345              jnc 0x6fa3
00006F5E  53                push ebx
00006F5F  61                popa
00006F60  49                dec ecx
00006F61  53                push ebx
00006F62  7345              jnc 0x6fa9
00006F64  45                inc ebp
00006F65  33656E            xor esp,[ebp+0x6e]
00006F68  6445              fs inc ebp
00006F6A  7600              jna 0x6f6c
00006F6C  5F                pop edi
00006F6D  5A                pop edx
00006F6E  4E                dec esi
00006F6F  395F5F            cmp [edi+0x5f],ebx
00006F72  676E              a16 outsb
00006F74  755F              jnz 0x6fd5
00006F76  637878            arpl [eax+0x78],di
00006F79  3133              xor [ebx],esi
00006F7B  6E                outsb
00006F7C  65775F            gs ja 0x6fde
00006F7F  61                popa
00006F80  6C                insb
00006F81  6C                insb
00006F82  6F                outsd
00006F83  636174            arpl [ecx+0x74],sp
00006F86  6F                outsd
00006F87  7249              jc 0x6fd2
00006F89  53                push ebx
00006F8A  7434              jz 0x6fc0
00006F8C  7061              jo 0x6fef
00006F8E  6972494B636945    imul esi,[edx+0x49],dword 0x4569634b
00006F95  45                inc ebp
00006F96  37                aaa
00006F97  64657374          gs jnc 0x700f
00006F9B  726F              jc 0x700c
00006F9D  7945              jns 0x6fe4
00006F9F  50                push eax
00006FA0  53                push ebx
00006FA1  335F00            xor ebx,[edi+0x0]
00006FA4  5F                pop edi
00006FA5  5A                pop edx
00006FA6  4E                dec esi
00006FA7  395F5F            cmp [edi+0x5f],ebx
00006FAA  676E              a16 outsb
00006FAC  755F              jnz 0x700d
00006FAE  637878            arpl [eax+0x78],di
00006FB1  3133              xor [ebx],esi
00006FB3  6E                outsb
00006FB4  65775F            gs ja 0x7016
00006FB7  61                popa
00006FB8  6C                insb
00006FB9  6C                insb
00006FBA  6F                outsd
00006FBB  636174            arpl [ecx+0x74],sp
00006FBE  6F                outsd
00006FBF  7249              jc 0x700a
00006FC1  53                push ebx
00006FC2  7431              jz 0x6ff5
00006FC4  335F52            xor ebx,[edi+0x52]
00006FC7  625F74            bound ebx,[edi+0x74]
00006FCA  7265              jc 0x7031
00006FCC  655F              gs pop edi
00006FCE  6E                outsb
00006FCF  6F                outsd
00006FD0  646549            gs dec ecx
00006FD3  53                push ebx
00006FD4  7434              jz 0x700a
00006FD6  7061              jo 0x7039
00006FD8  6972494B636945    imul esi,[edx+0x49],dword 0x4569634b
00006FDF  45                inc ebp
00006FE0  45                inc ebp
00006FE1  3130              xor [eax],esi
00006FE3  646561            gs popa
00006FE6  6C                insb
00006FE7  6C                insb
00006FE8  6F                outsd
00006FE9  636174            arpl [ecx+0x74],sp
00006FEC  6545              gs inc ebp
00006FEE  50                push eax
00006FEF  53                push ebx
00006FF0  355F6A005F        xor eax,0x5f006a5f
00006FF5  5A                pop edx
00006FF6  4E                dec esi
00006FF7  4B                dec ebx
00006FF8  53                push ebx
00006FF9  7433              jz 0x702e
00006FFB  6D                insd
00006FFC  61                popa
00006FFD  7049              jo 0x7048
00006FFF  636953            arpl [ecx+0x53],bp
00007002  7434              jz 0x7038
00007004  6C                insb
00007005  657373            gs jnc 0x707b
00007008  49                dec ecx
00007009  634553            arpl [ebp+0x53],ax
0000700C  61                popa
0000700D  49                dec ecx
0000700E  53                push ebx
0000700F  7434              jz 0x7045
00007011  7061              jo 0x7074
00007013  6972494B636945    imul esi,[edx+0x49],dword 0x4569634b
0000701A  45                inc ebp
0000701B  45                inc ebp
0000701C  386B65            cmp [ebx+0x65],ch
0000701F  795F              jns 0x7080
00007021  636F6D            arpl [edi+0x6d],bp
00007024  7045              jo 0x706b
00007026  7600              jna 0x7028
00007028  5F                pop edi
00007029  5A                pop edx
0000702A  4E                dec esi
0000702B  53                push ebx
0000702C  7438              jz 0x7066
0000702E  5F                pop edi
0000702F  52                push edx
00007030  625F74            bound ebx,[edi+0x74]
00007033  7265              jc 0x709a
00007035  6549              gs dec ecx
00007037  635374            arpl [ebx+0x74],dx
0000703A  3470              xor al,0x70
0000703C  61                popa
0000703D  6972494B636945    imul esi,[edx+0x49],dword 0x4569634b
00007044  53                push ebx
00007045  7431              jz 0x7078
00007047  305F53            xor [edi+0x53],bl
0000704A  656C              gs insb
0000704C  6563743173        arpl [gs:ecx+esi+0x73],si
00007051  7449              jz 0x709c
00007053  53                push ebx
00007054  325F45            xor bl,[edi+0x45]
00007057  53                push ebx
00007058  7434              jz 0x708e
0000705A  6C                insb
0000705B  657373            gs jnc 0x70d1
0000705E  49                dec ecx
0000705F  634553            arpl [ebp+0x53],ax
00007062  61                popa
00007063  49                dec ecx
00007064  53                push ebx
00007065  325F45            xor bl,[edi+0x45]
00007068  45                inc ebp
00007069  44                inc esp
0000706A  314576            xor [ebp+0x76],eax
0000706D  005F5A            add [edi+0x5a],bl
00007070  4E                dec esi
00007071  53                push ebx
00007072  7438              jz 0x70ac
00007074  5F                pop edi
00007075  52                push edx
00007076  625F74            bound ebx,[edi+0x74]
00007079  7265              jc 0x70e0
0000707B  6549              gs dec ecx
0000707D  635374            arpl [ebx+0x74],dx
00007080  3470              xor al,0x70
00007082  61                popa
00007083  6972494B636945    imul esi,[edx+0x49],dword 0x4569634b
0000708A  53                push ebx
0000708B  7431              jz 0x70be
0000708D  305F53            xor [edi+0x53],bl
00007090  656C              gs insb
00007092  6563743173        arpl [gs:ecx+esi+0x73],si
00007097  7449              jz 0x70e2
00007099  53                push ebx
0000709A  325F45            xor bl,[edi+0x45]
0000709D  53                push ebx
0000709E  7434              jz 0x70d4
000070A0  6C                insb
000070A1  657373            gs jnc 0x7117
000070A4  49                dec ecx
000070A5  634553            arpl [ebp+0x53],ax
000070A8  61                popa
000070A9  49                dec ecx
000070AA  53                push ebx
000070AB  325F45            xor bl,[edi+0x45]
000070AE  45                inc ebp
000070AF  365F              ss pop edi
000070B1  4D                dec ebp
000070B2  5F                pop edi
000070B3  656E              gs outsb
000070B5  6445              fs inc ebp
000070B7  7600              jna 0x70b9
000070B9  5F                pop edi
000070BA  5A                pop edx
000070BB  4E                dec esi
000070BC  53                push ebx
000070BD  7343              jnc 0x7102
000070BF  314576            xor [ebp+0x76],eax
000070C2  40                inc eax
000070C3  40                inc eax
000070C4  47                inc edi
000070C5  4C                dec esp
000070C6  49                dec ecx
000070C7  42                inc edx
000070C8  43                inc ebx
000070C9  58                pop eax
000070CA  58                pop eax
000070CB  5F                pop edi
000070CC  332E              xor ebp,[esi]
000070CE  3400              xor al,0x0
000070D0  5F                pop edi
000070D1  5A                pop edx
000070D2  4E                dec esi
000070D3  53                push ebx
000070D4  7438              jz 0x710e
000070D6  5F                pop edi
000070D7  52                push edx
000070D8  625F74            bound ebx,[edi+0x74]
000070DB  7265              jc 0x7142
000070DD  6549              gs dec ecx
000070DF  53                push ebx
000070E0  7353              jnc 0x7135
000070E2  7353              jnc 0x7137
000070E4  7439              jz 0x711f
000070E6  5F                pop edi
000070E7  49                dec ecx
000070E8  64656E            gs outsb
000070EB  7469              jz 0x7156
000070ED  7479              jz 0x7168
000070EF  49                dec ecx
000070F0  53                push ebx
000070F1  7345              jnc 0x7138
000070F3  53                push ebx
000070F4  7434              jz 0x712a
000070F6  6C                insb
000070F7  657373            gs jnc 0x716d
000070FA  49                dec ecx
000070FB  53                push ebx
000070FC  7345              jnc 0x7143
000070FE  53                push ebx
000070FF  61                popa
00007100  49                dec ecx
00007101  53                push ebx
00007102  7345              jnc 0x7149
00007104  45                inc ebp
00007105  43                inc ebx
00007106  314576            xor [ebp+0x76],eax
00007109  005F5A            add [edi+0x5a],bl
0000710C  4E                dec esi
0000710D  53                push ebx
0000710E  7433              jz 0x7143
00007110  7365              jnc 0x7177
00007112  7449              jz 0x715d
00007114  53                push ebx
00007115  7353              jnc 0x716a
00007117  7434              jz 0x714d
00007119  6C                insb
0000711A  657373            gs jnc 0x7190
0000711D  49                dec ecx
0000711E  53                push ebx
0000711F  7345              jnc 0x7166
00007121  53                push ebx
00007122  61                popa
00007123  49                dec ecx
00007124  53                push ebx
00007125  7345              jnc 0x716c
00007127  45                inc ebp
00007128  43                inc ebx
00007129  324576            xor al,[ebp+0x76]
0000712C  005F5A            add [edi+0x5a],bl
0000712F  4E                dec esi
00007130  53                push ebx
00007131  7432              jz 0x7165
00007133  335F52            xor ebx,[edi+0x52]
00007136  625F74            bound ebx,[edi+0x74]
00007139  7265              jc 0x71a0
0000713B  655F              gs pop edi
0000713D  636F6E            arpl [edi+0x6e],bp
00007140  7374              jnc 0x71b6
00007142  5F                pop edi
00007143  6974657261746F72  imul esi,[ebp+0x72],dword 0x726f7461
0000714B  49                dec ecx
0000714C  53                push ebx
0000714D  7345              jnc 0x7194
0000714F  43                inc ebx
00007150  314550            xor [ebp+0x50],eax
00007153  4B                dec ebx
00007154  53                push ebx
00007155  7431              jz 0x7188
00007157  335F52            xor ebx,[edi+0x52]
0000715A  625F74            bound ebx,[edi+0x74]
0000715D  7265              jc 0x71c4
0000715F  655F              gs pop edi
00007161  6E                outsb
00007162  6F                outsd
00007163  646549            gs dec ecx
00007166  53                push ebx
00007167  7345              jnc 0x71ae
00007169  005F5A            add [edi+0x5a],bl
0000716C  4E                dec esi
0000716D  53                push ebx
0000716E  7438              jz 0x71a8
00007170  5F                pop edi
00007171  52                push edx
00007172  625F74            bound ebx,[edi+0x74]
00007175  7265              jc 0x71dc
00007177  6549              gs dec ecx
00007179  635374            arpl [ebx+0x74],dx
0000717C  3470              xor al,0x70
0000717E  61                popa
0000717F  6972494B636945    imul esi,[edx+0x49],dword 0x4569634b
00007186  53                push ebx
00007187  7431              jz 0x71ba
00007189  305F53            xor [edi+0x53],bl
0000718C  656C              gs insb
0000718E  6563743173        arpl [gs:ecx+esi+0x73],si
00007193  7449              jz 0x71de
00007195  53                push ebx
00007196  325F45            xor bl,[edi+0x45]
00007199  53                push ebx
0000719A  7434              jz 0x71d0
0000719C  6C                insb
0000719D  657373            gs jnc 0x7213
000071A0  49                dec ecx
000071A1  634553            arpl [ebp+0x53],ax
000071A4  61                popa
000071A5  49                dec ecx
000071A6  53                push ebx
000071A7  325F45            xor bl,[edi+0x45]
000071AA  45                inc ebp
000071AB  365F              ss pop edi
000071AD  53                push ebx
000071AE  5F                pop edi
000071AF  6B657945          imul esp,[ebp+0x79],byte +0x45
000071B3  50                push eax
000071B4  4B                dec ebx
000071B5  53                push ebx
000071B6  7431              jz 0x71e9
000071B8  385F52            cmp [edi+0x52],bl
000071BB  625F74            bound ebx,[edi+0x74]
000071BE  7265              jc 0x7225
000071C0  655F              gs pop edi
000071C2  6E                outsb
000071C3  6F                outsd
000071C4  64655F            gs pop edi
000071C7  626173            bound esp,[ecx+0x73]
000071CA  65005F5A          add [gs:edi+0x5a],bl
000071CE  4E                dec esi
000071CF  53                push ebx
000071D0  61                popa
000071D1  49                dec ecx
000071D2  53                push ebx
000071D3  7434              jz 0x7209
000071D5  7061              jo 0x7238
000071D7  6972494B636945    imul esi,[edx+0x49],dword 0x4569634b
000071DE  45                inc ebp
000071DF  44                inc esp
000071E0  314576            xor [ebp+0x76],eax
000071E3  005F5A            add [edi+0x5a],bl
000071E6  4E                dec esi
000071E7  53                push ebx
000071E8  7438              jz 0x7222
000071EA  5F                pop edi
000071EB  52                push edx
000071EC  625F74            bound ebx,[edi+0x74]
000071EF  7265              jc 0x7256
000071F1  6549              gs dec ecx
000071F3  53                push ebx
000071F4  7353              jnc 0x7249
000071F6  7353              jnc 0x724b
000071F8  7439              jz 0x7233
000071FA  5F                pop edi
000071FB  49                dec ecx
000071FC  64656E            gs outsb
000071FF  7469              jz 0x726a
00007201  7479              jz 0x727c
00007203  49                dec ecx
00007204  53                push ebx
00007205  7345              jnc 0x724c
00007207  53                push ebx
00007208  7434              jz 0x723e
0000720A  6C                insb
0000720B  657373            gs jnc 0x7281
0000720E  49                dec ecx
0000720F  53                push ebx
00007210  7345              jnc 0x7257
00007212  53                push ebx
00007213  61                popa
00007214  49                dec ecx
00007215  53                push ebx
00007216  7345              jnc 0x725d
00007218  45                inc ebp
00007219  44                inc esp
0000721A  324576            xor al,[ebp+0x76]
0000721D  005F5A            add [edi+0x5a],bl
00007220  4E                dec esi
00007221  395F5F            cmp [edi+0x5f],ebx
00007224  676E              a16 outsb
00007226  755F              jnz 0x7287
00007228  637878            arpl [eax+0x78],di
0000722B  3133              xor [ebx],esi
0000722D  6E                outsb
0000722E  65775F            gs ja 0x7290
00007231  61                popa
00007232  6C                insb
00007233  6C                insb
00007234  6F                outsd
00007235  636174            arpl [ecx+0x74],sp
00007238  6F                outsd
00007239  7249              jc 0x7284
0000723B  53                push ebx
0000723C  7434              jz 0x7272
0000723E  7061              jo 0x72a1
00007240  6972494B636945    imul esi,[edx+0x49],dword 0x4569634b
00007247  45                inc ebp
00007248  44                inc esp
00007249  314576            xor [ebp+0x76],eax
0000724C  005F5A            add [edi+0x5a],bl
0000724F  4E                dec esi
00007250  53                push ebx
00007251  6F                outsd
00007252  6C                insb
00007253  7345              jnc 0x729a
00007255  694040474C4942    imul eax,[eax+0x40],dword 0x42494c47
0000725C  43                inc ebx
0000725D  58                pop eax
0000725E  58                pop eax
0000725F  5F                pop edi
00007260  332E              xor ebp,[esi]
00007262  3400              xor al,0x0
00007264  5F                pop edi
00007265  5A                pop edx
00007266  4E                dec esi
00007267  4B                dec ebx
00007268  53                push ebx
00007269  7431              jz 0x729c
0000726B  37                aaa
0000726C  5F                pop edi
0000726D  52                push edx
0000726E  625F74            bound ebx,[edi+0x74]
00007271  7265              jc 0x72d8
00007273  655F              gs pop edi
00007275  6974657261746F72  imul esi,[ebp+0x72],dword 0x726f7461
0000727D  49                dec ecx
0000727E  53                push ebx
0000727F  7434              jz 0x72b5
00007281  7061              jo 0x72e4
00007283  6972494B636945    imul esi,[edx+0x49],dword 0x4569634b
0000728A  45                inc ebp
0000728B  646545            gs inc ebp
0000728E  7600              jna 0x7290
00007290  5F                pop edi
00007291  5F                pop edi
00007292  6C                insb
00007293  6962635F637375    imul esp,[edx+0x63],dword 0x7573635f
0000729A  5F                pop edi
0000729B  66696E69005F      imul bp,[esi+0x69],word 0x5f00
000072A1  5A                pop edx
000072A2  4E                dec esi
000072A3  53                push ebx
000072A4  61                popa
000072A5  49                dec ecx
000072A6  53                push ebx
000072A7  7431              jz 0x72da
000072A9  335F52            xor ebx,[edi+0x52]
000072AC  625F74            bound ebx,[edi+0x74]
000072AF  7265              jc 0x7316
000072B1  655F              gs pop edi
000072B3  6E                outsb
000072B4  6F                outsd
000072B5  646549            gs dec ecx
000072B8  53                push ebx
000072B9  7434              jz 0x72ef
000072BB  7061              jo 0x731e
000072BD  6972494B636945    imul esi,[edx+0x49],dword 0x4569634b
000072C4  45                inc ebp
000072C5  45                inc ebp
000072C6  43                inc ebx
000072C7  314576            xor [ebp+0x76],eax
000072CA  005F5A            add [edi+0x5a],bl
000072CD  4E                dec esi
000072CE  53                push ebx
000072CF  7438              jz 0x7309
000072D1  5F                pop edi
000072D2  52                push edx
000072D3  625F74            bound ebx,[edi+0x74]
000072D6  7265              jc 0x733d
000072D8  6549              gs dec ecx
000072DA  635374            arpl [ebx+0x74],dx
000072DD  3470              xor al,0x70
000072DF  61                popa
000072E0  6972494B636945    imul esi,[edx+0x49],dword 0x4569634b
000072E7  53                push ebx
000072E8  7431              jz 0x731b
000072EA  305F53            xor [edi+0x53],bl
000072ED  656C              gs insb
000072EF  6563743173        arpl [gs:ecx+esi+0x73],si
000072F4  7449              jz 0x733f
000072F6  53                push ebx
000072F7  325F45            xor bl,[edi+0x45]
000072FA  53                push ebx
000072FB  7434              jz 0x7331
000072FD  6C                insb
000072FE  657373            gs jnc 0x7374
00007301  49                dec ecx
00007302  634553            arpl [ebp+0x53],ax
00007305  61                popa
00007306  49                dec ecx
00007307  53                push ebx
00007308  325F45            xor bl,[edi+0x45]
0000730B  45                inc ebp
0000730C  3133              xor [ebx],esi
0000730E  5F                pop edi
0000730F  52                push edx
00007310  625F74            bound ebx,[edi+0x74]
00007313  7265              jc 0x737a
00007315  655F              gs pop edi
00007317  696D706C495336    imul ebp,[ebp+0x70],dword 0x3653496c
0000731E  5F                pop edi
0000731F  4C                dec esp
00007320  6230              bound esi,[eax]
00007322  45                inc ebp
00007323  45                inc ebp
00007324  44                inc esp
00007325  324576            xor al,[ebp+0x76]
00007328  005F5A            add [edi+0x5a],bl
0000732B  4E                dec esi
0000732C  4B                dec ebx
0000732D  53                push ebx
0000732E  7434              jz 0x7364
00007330  6C                insb
00007331  657373            gs jnc 0x73a7
00007334  49                dec ecx
00007335  53                push ebx
00007336  7345              jnc 0x737d
00007338  636C4552          arpl [ebp+eax*2+0x52],bp
0000733C  4B                dec ebx
0000733D  53                push ebx
0000733E  7353              jnc 0x7393
00007340  325F00            xor bl,[edi+0x0]
00007343  5F                pop edi
00007344  5A                pop edx
00007345  53                push ebx
00007346  7431              jz 0x7379
00007348  315F5F            xor [edi+0x5f],ebx
0000734B  61                popa
0000734C  64647265          fs jc 0x73b5
00007350  7373              jnc 0x73c5
00007352  6F                outsd
00007353  6649              dec cx
00007355  53                push ebx
00007356  7345              jnc 0x739d
00007358  50                push eax
00007359  54                push esp
0000735A  5F                pop edi
0000735B  52                push edx
0000735C  53                push ebx
0000735D  305F00            xor [edi+0x0],bl
00007360  5F                pop edi
00007361  7374              jnc 0x73d7
00007363  61                popa
00007364  7274              jc 0x73da
00007366  005F5A            add [edi+0x5a],bl
00007369  4E                dec esi
0000736A  53                push ebx
0000736B  7434              jz 0x73a1
0000736D  7061              jo 0x73d0
0000736F  69724953743137    imul esi,[edx+0x49],dword 0x37317453
00007376  5F                pop edi
00007377  52                push edx
00007378  625F74            bound ebx,[edi+0x74]
0000737B  7265              jc 0x73e2
0000737D  655F              gs pop edi
0000737F  6974657261746F72  imul esi,[ebp+0x72],dword 0x726f7461
00007387  49                dec ecx
00007388  53                push ebx
00007389  7345              jnc 0x73d0
0000738B  624543            bound eax,[ebp+0x43]
0000738E  324552            xor al,[ebp+0x52]
00007391  4B                dec ebx
00007392  53                push ebx
00007393  315F52            xor [edi+0x52],ebx
00007396  4B                dec ebx
00007397  6200              bound eax,[eax]
00007399  5F                pop edi
0000739A  5A                pop edx
0000739B  4E                dec esi
0000739C  53                push ebx
0000739D  7438              jz 0x73d7
0000739F  5F                pop edi
000073A0  52                push edx
000073A1  625F74            bound ebx,[edi+0x74]
000073A4  7265              jc 0x740b
000073A6  6549              gs dec ecx
000073A8  635374            arpl [ebx+0x74],dx
000073AB  3470              xor al,0x70
000073AD  61                popa
000073AE  6972494B636945    imul esi,[edx+0x49],dword 0x4569634b
000073B5  53                push ebx
000073B6  7431              jz 0x73e9
000073B8  305F53            xor [edi+0x53],bl
000073BB  656C              gs insb
000073BD  6563743173        arpl [gs:ecx+esi+0x73],si
000073C2  7449              jz 0x740d
000073C4  53                push ebx
000073C5  325F45            xor bl,[edi+0x45]
000073C8  53                push ebx
000073C9  7434              jz 0x73ff
000073CB  6C                insb
000073CC  657373            gs jnc 0x7442
000073CF  49                dec ecx
000073D0  634553            arpl [ebp+0x53],ax
000073D3  61                popa
000073D4  49                dec ecx
000073D5  53                push ebx
000073D6  325F45            xor bl,[edi+0x45]
000073D9  45                inc ebp
000073DA  3132              xor [edx],esi
000073DC  5F                pop edi
000073DD  4D                dec ebp
000073DE  5F                pop edi
000073DF  7269              jc 0x744a
000073E1  6768746D6F73      a16 push dword 0x736f6d74
000073E7  7445              jz 0x742e
000073E9  7600              jna 0x73eb
000073EB  5F                pop edi
000073EC  5A                pop edx
000073ED  4E                dec esi
000073EE  4B                dec ebx
000073EF  395F5F            cmp [edi+0x5f],ebx
000073F2  676E              a16 outsb
000073F4  755F              jnz 0x7455
000073F6  637878            arpl [eax+0x78],di
000073F9  3133              xor [ebx],esi
000073FB  6E                outsb
000073FC  65775F            gs ja 0x745e
000073FF  61                popa
00007400  6C                insb
00007401  6C                insb
00007402  6F                outsd
00007403  636174            arpl [ecx+0x74],sp
00007406  6F                outsd
00007407  7249              jc 0x7452
00007409  53                push ebx
0000740A  7431              jz 0x743d
0000740C  335F52            xor ebx,[edi+0x52]
0000740F  625F74            bound ebx,[edi+0x74]
00007412  7265              jc 0x7479
00007414  655F              gs pop edi
00007416  6E                outsb
00007417  6F                outsd
00007418  646549            gs dec ecx
0000741B  53                push ebx
0000741C  7434              jz 0x7452
0000741E  7061              jo 0x7481
00007420  6972494B636945    imul esi,[edx+0x49],dword 0x4569634b
00007427  45                inc ebp
00007428  45                inc ebp
00007429  386D61            cmp [ebp+0x61],ch
0000742C  785F              js 0x748d
0000742E  7369              jnc 0x7499
00007430  7A65              jpe 0x7497
00007432  45                inc ebp
00007433  7600              jna 0x7435
00007435  5F                pop edi
00007436  5A                pop edx
00007437  4E                dec esi
00007438  53                push ebx
00007439  7438              jz 0x7473
0000743B  5F                pop edi
0000743C  52                push edx
0000743D  625F74            bound ebx,[edi+0x74]
00007440  7265              jc 0x74a7
00007442  6549              gs dec ecx
00007444  635374            arpl [ebx+0x74],dx
00007447  3470              xor al,0x70
00007449  61                popa
0000744A  6972494B636945    imul esi,[edx+0x49],dword 0x4569634b
00007451  53                push ebx
00007452  7431              jz 0x7485
00007454  305F53            xor [edi+0x53],bl
00007457  656C              gs insb
00007459  6563743173        arpl [gs:ecx+esi+0x73],si
0000745E  7449              jz 0x74a9
00007460  53                push ebx
00007461  325F45            xor bl,[edi+0x45]
00007464  53                push ebx
00007465  7434              jz 0x749b
00007467  6C                insb
00007468  657373            gs jnc 0x74de
0000746B  49                dec ecx
0000746C  634553            arpl [ebp+0x53],ax
0000746F  61                popa
00007470  49                dec ecx
00007471  53                push ebx
00007472  325F45            xor bl,[edi+0x45]
00007475  45                inc ebp
00007476  3137              xor [edi],esi
00007478  5F                pop edi
00007479  4D                dec ebp
0000747A  5F                pop edi
0000747B  696E736572745F    imul ebp,[esi+0x73],dword 0x5f747265
00007482  756E              jnz 0x74f2
00007484  697175655F4553    imul esi,[ecx+0x75],dword 0x53455f65
0000748B  7432              jz 0x74bf
0000748D  335F52            xor ebx,[edi+0x52]
00007490  625F74            bound ebx,[edi+0x74]
00007493  7265              jc 0x74fa
00007495  655F              gs pop edi
00007497  636F6E            arpl [edi+0x6e],bp
0000749A  7374              jnc 0x7510
0000749C  5F                pop edi
0000749D  6974657261746F72  imul esi,[ebp+0x72],dword 0x726f7461
000074A5  49                dec ecx
000074A6  53                push ebx
000074A7  325F45            xor bl,[edi+0x45]
000074AA  52                push edx
000074AB  4B                dec ebx
000074AC  53                push ebx
000074AD  325F00            xor bl,[edi+0x0]
000074B0  5F                pop edi
000074B1  5A                pop edx
000074B2  4E                dec esi
000074B3  53                push ebx
000074B4  7438              jz 0x74ee
000074B6  5F                pop edi
000074B7  52                push edx
000074B8  625F74            bound ebx,[edi+0x74]
000074BB  7265              jc 0x7522
000074BD  6549              gs dec ecx
000074BF  635374            arpl [ebx+0x74],dx
000074C2  3470              xor al,0x70
000074C4  61                popa
000074C5  6972494B636945    imul esi,[edx+0x49],dword 0x4569634b
000074CC  53                push ebx
000074CD  7431              jz 0x7500
000074CF  305F53            xor [edi+0x53],bl
000074D2  656C              gs insb
000074D4  6563743173        arpl [gs:ecx+esi+0x73],si
000074D9  7449              jz 0x7524
000074DB  53                push ebx
000074DC  325F45            xor bl,[edi+0x45]
000074DF  53                push ebx
000074E0  7434              jz 0x7516
000074E2  6C                insb
000074E3  657373            gs jnc 0x7559
000074E6  49                dec ecx
000074E7  634553            arpl [ebp+0x53],ax
000074EA  61                popa
000074EB  49                dec ecx
000074EC  53                push ebx
000074ED  325F45            xor bl,[edi+0x45]
000074F0  45                inc ebp
000074F1  37                aaa
000074F2  5F                pop edi
000074F3  53                push ebx
000074F4  5F                pop edi
000074F5  6C                insb
000074F6  65667445          gs o16 jz 0x753f
000074FA  50                push eax
000074FB  53                push ebx
000074FC  7431              jz 0x752f
000074FE  385F52            cmp [edi+0x52],bl
00007501  625F74            bound ebx,[edi+0x74]
00007504  7265              jc 0x756b
00007506  655F              gs pop edi
00007508  6E                outsb
00007509  6F                outsd
0000750A  64655F            gs pop edi
0000750D  626173            bound esp,[ecx+0x73]
00007510  65005F5A          add [gs:edi+0x5a],bl
00007514  4E                dec esi
00007515  53                push ebx
00007516  61                popa
00007517  49                dec ecx
00007518  53                push ebx
00007519  7345              jnc 0x7560
0000751B  44                inc esp
0000751C  314576            xor [ebp+0x76],eax
0000751F  005F5A            add [edi+0x5a],bl
00007522  4E                dec esi
00007523  395F5F            cmp [edi+0x5f],ebx
00007526  676E              a16 outsb
00007528  755F              jnz 0x7589
0000752A  637878            arpl [eax+0x78],di
0000752D  3133              xor [ebx],esi
0000752F  6E                outsb
00007530  65775F            gs ja 0x7592
00007533  61                popa
00007534  6C                insb
00007535  6C                insb
00007536  6F                outsd
00007537  636174            arpl [ecx+0x74],sp
0000753A  6F                outsd
0000753B  7249              jc 0x7586
0000753D  53                push ebx
0000753E  7434              jz 0x7574
00007540  7061              jo 0x75a3
00007542  6972494B636945    imul esi,[edx+0x49],dword 0x4569634b
00007549  45                inc ebp
0000754A  43                inc ebx
0000754B  324576            xor al,[ebp+0x76]
0000754E  005F5A            add [edi+0x5a],bl
00007551  4E                dec esi
00007552  4B                dec ebx
00007553  53                push ebx
00007554  7432              jz 0x7588
00007556  335F52            xor ebx,[edi+0x52]
00007559  625F74            bound ebx,[edi+0x74]
0000755C  7265              jc 0x75c3
0000755E  655F              gs pop edi
00007560  636F6E            arpl [edi+0x6e],bp
00007563  7374              jnc 0x75d9
00007565  5F                pop edi
00007566  6974657261746F72  imul esi,[ebp+0x72],dword 0x726f7461
0000756E  49                dec ecx
0000756F  53                push ebx
00007570  7345              jnc 0x75b7
00007572  646545            gs inc ebp
00007575  7600              jna 0x7577
00007577  5F                pop edi
00007578  5A                pop edx
00007579  4E                dec esi
0000757A  53                push ebx
0000757B  7438              jz 0x75b5
0000757D  5F                pop edi
0000757E  52                push edx
0000757F  625F74            bound ebx,[edi+0x74]
00007582  7265              jc 0x75e9
00007584  6549              gs dec ecx
00007586  53                push ebx
00007587  7353              jnc 0x75dc
00007589  7353              jnc 0x75de
0000758B  7439              jz 0x75c6
0000758D  5F                pop edi
0000758E  49                dec ecx
0000758F  64656E            gs outsb
00007592  7469              jz 0x75fd
00007594  7479              jz 0x760f
00007596  49                dec ecx
00007597  53                push ebx
00007598  7345              jnc 0x75df
0000759A  53                push ebx
0000759B  7434              jz 0x75d1
0000759D  6C                insb
0000759E  657373            gs jnc 0x7614
000075A1  49                dec ecx
000075A2  53                push ebx
000075A3  7345              jnc 0x75ea
000075A5  53                push ebx
000075A6  61                popa
000075A7  49                dec ecx
000075A8  53                push ebx
000075A9  7345              jnc 0x75f0
000075AB  45                inc ebp
000075AC  3133              xor [ebx],esi
000075AE  5F                pop edi
000075AF  52                push edx
000075B0  625F74            bound ebx,[edi+0x74]
000075B3  7265              jc 0x761a
000075B5  655F              gs pop edi
000075B7  696D706C495333    imul ebp,[ebp+0x70],dword 0x3353496c
000075BE  5F                pop edi
000075BF  4C                dec esp
000075C0  6230              bound esi,[eax]
000075C2  45                inc ebp
000075C3  45                inc ebp
000075C4  43                inc ebx
000075C5  314576            xor [ebp+0x76],eax
000075C8  005F5F            add [edi+0x5f],bl
000075CB  676D              a16 insd
000075CD  6F                outsd
000075CE  6E                outsb
000075CF  5F                pop edi
000075D0  7374              jnc 0x7646
000075D2  61                popa
000075D3  7274              jc 0x7649
000075D5  5F                pop edi
000075D6  5F                pop edi
000075D7  005F4A            add [edi+0x4a],bl
000075DA  765F              jna 0x763b
000075DC  52                push edx
000075DD  6567697374657243  imul esi,[gs:bp+di+0x74],dword 0x6c437265
         -6C
000075E6  61                popa
000075E7  7373              jnc 0x765c
000075E9  657300            gs jnc 0x75ec
000075EC  5F                pop edi
000075ED  66705F            o16 jo 0x764f
000075F0  6877005F5A        push dword 0x5a5f0077
000075F5  4E                dec esi
000075F6  53                push ebx
000075F7  7369              jnc 0x7662
000075F9  7845              js 0x7640
000075FB  6A40              push byte +0x40
000075FD  40                inc eax
000075FE  47                inc edi
000075FF  4C                dec esp
00007600  49                dec ecx
00007601  42                inc edx
00007602  43                inc ebx
00007603  58                pop eax
00007604  58                pop eax
00007605  5F                pop edi
00007606  332E              xor ebp,[esi]
00007608  3400              xor al,0x0
0000760A  5F                pop edi
0000760B  5A                pop edx
0000760C  4E                dec esi
0000760D  395F5F            cmp [edi+0x5f],ebx
00007610  676E              a16 outsb
00007612  755F              jnz 0x7673
00007614  637878            arpl [eax+0x78],di
00007617  3133              xor [ebx],esi
00007619  6E                outsb
0000761A  65775F            gs ja 0x767c
0000761D  61                popa
0000761E  6C                insb
0000761F  6C                insb
00007620  6F                outsd
00007621  636174            arpl [ecx+0x74],sp
00007624  6F                outsd
00007625  7249              jc 0x7670
00007627  53                push ebx
00007628  7345              jnc 0x766f
0000762A  37                aaa
0000762B  64657374          gs jnc 0x76a3
0000762F  726F              jc 0x76a0
00007631  7945              jns 0x7678
00007633  50                push eax
00007634  53                push ebx
00007635  7300              jnc 0x7637
00007637  5F                pop edi
00007638  5A                pop edx
00007639  4E                dec esi
0000763A  4B                dec ebx
0000763B  395F5F            cmp [edi+0x5f],ebx
0000763E  676E              a16 outsb
00007640  755F              jnz 0x76a1
00007642  637878            arpl [eax+0x78],di
00007645  3133              xor [ebx],esi
00007647  6E                outsb
00007648  65775F            gs ja 0x76aa
0000764B  61                popa
0000764C  6C                insb
0000764D  6C                insb
0000764E  6F                outsd
0000764F  636174            arpl [ecx+0x74],sp
00007652  6F                outsd
00007653  7249              jc 0x769e
00007655  53                push ebx
00007656  7431              jz 0x7689
00007658  335F52            xor ebx,[edi+0x52]
0000765B  625F74            bound ebx,[edi+0x74]
0000765E  7265              jc 0x76c5
00007660  655F              gs pop edi
00007662  6E                outsb
00007663  6F                outsd
00007664  646549            gs dec ecx
00007667  53                push ebx
00007668  7345              jnc 0x76af
0000766A  45                inc ebp
0000766B  386D61            cmp [ebp+0x61],ch
0000766E  785F              js 0x76cf
00007670  7369              jnc 0x76db
00007672  7A65              jpe 0x76d9
00007674  45                inc ebp
00007675  7600              jna 0x7677
00007677  5F                pop edi
00007678  5A                pop edx
00007679  646C              fs insb
0000767B  50                push eax
0000767C  7640              jna 0x76be
0000767E  40                inc eax
0000767F  47                inc edi
00007680  4C                dec esp
00007681  49                dec ecx
00007682  42                inc edx
00007683  43                inc ebx
00007684  58                pop eax
00007685  58                pop eax
00007686  5F                pop edi
00007687  332E              xor ebp,[esi]
00007689  3400              xor al,0x0
0000768B  5F                pop edi
0000768C  5A                pop edx
0000768D  4E                dec esi
0000768E  53                push ebx
0000768F  7434              jz 0x76c5
00007691  7061              jo 0x76f4
00007693  6972494B636945    imul esi,[edx+0x49],dword 0x4569634b
0000769A  43                inc ebx
0000769B  324552            xor al,[ebp+0x52]
0000769E  53                push ebx
0000769F  305F52            xor [edi+0x52],bl
000076A2  4B                dec ebx
000076A3  69005F5A4E53      imul eax,[eax],dword 0x534e5a5f
000076A9  7431              jz 0x76dc
000076AB  37                aaa
000076AC  5F                pop edi
000076AD  52                push edx
000076AE  625F74            bound ebx,[edi+0x74]
000076B1  7265              jc 0x7718
000076B3  655F              gs pop edi
000076B5  6974657261746F72  imul esi,[ebp+0x72],dword 0x726f7461
000076BD  49                dec ecx
000076BE  53                push ebx
000076BF  7345              jnc 0x7706
000076C1  43                inc ebx
000076C2  314550            xor [ebp+0x50],eax
000076C5  53                push ebx
000076C6  7431              jz 0x76f9
000076C8  335F52            xor ebx,[edi+0x52]
000076CB  625F74            bound ebx,[edi+0x74]
000076CE  7265              jc 0x7735
000076D0  655F              gs pop edi
000076D2  6E                outsb
000076D3  6F                outsd
000076D4  646549            gs dec ecx
000076D7  53                push ebx
000076D8  7345              jnc 0x771f
000076DA  005F66            add [edi+0x66],bl
000076DD  696E69005F5A4E    imul ebp,[esi+0x69],dword 0x4e5a5f00
000076E4  53                push ebx
000076E5  7343              jnc 0x772a
000076E7  31456A            xor [ebp+0x6a],eax
000076EA  63524B            arpl [edx+0x4b],dx
000076ED  53                push ebx
000076EE  61                popa
000076EF  49                dec ecx
000076F0  634540            arpl [ebp+0x40],ax
000076F3  40                inc eax
000076F4  47                inc edi
000076F5  4C                dec esp
000076F6  49                dec ecx
000076F7  42                inc edx
000076F8  43                inc ebx
000076F9  58                pop eax
000076FA  58                pop eax
000076FB  5F                pop edi
000076FC  332E              xor ebp,[esi]
000076FE  3400              xor al,0x0
00007700  5F                pop edi
00007701  5F                pop edi
00007702  637861            arpl [eax+0x61],di
00007705  5F                pop edi
00007706  7265              jc 0x776d
00007708  7468              jz 0x7772
0000770A  726F              jc 0x777b
0000770C  7740              ja 0x774e
0000770E  40                inc eax
0000770F  43                inc ebx
00007710  58                pop eax
00007711  58                pop eax
00007712  41                inc ecx
00007713  42                inc edx
00007714  49                dec ecx
00007715  5F                pop edi
00007716  312E              xor [esi],ebp
00007718  3300              xor eax,[eax]
0000771A  5F                pop edi
0000771B  5A                pop edx
0000771C  4E                dec esi
0000771D  4B                dec ebx
0000771E  53                push ebx
0000771F  7334              jnc 0x7755
00007721  7369              jnc 0x778c
00007723  7A65              jpe 0x778a
00007725  45                inc ebp
00007726  7640              jna 0x7768
00007728  40                inc eax
00007729  47                inc edi
0000772A  4C                dec esp
0000772B  49                dec ecx
0000772C  42                inc edx
0000772D  43                inc ebx
0000772E  58                pop eax
0000772F  58                pop eax
00007730  5F                pop edi
00007731  332E              xor ebp,[esi]
00007733  3400              xor al,0x0
00007735  5F                pop edi
00007736  5A                pop edx
00007737  4E                dec esi
00007738  53                push ebx
00007739  7438              jz 0x7773
0000773B  5F                pop edi
0000773C  52                push edx
0000773D  625F74            bound ebx,[edi+0x74]
00007740  7265              jc 0x77a7
00007742  6549              gs dec ecx
00007744  53                push ebx
00007745  7353              jnc 0x779a
00007747  7353              jnc 0x779c
00007749  7439              jz 0x7784
0000774B  5F                pop edi
0000774C  49                dec ecx
0000774D  64656E            gs outsb
00007750  7469              jz 0x77bb
00007752  7479              jz 0x77cd
00007754  49                dec ecx
00007755  53                push ebx
00007756  7345              jnc 0x779d
00007758  53                push ebx
00007759  7434              jz 0x778f
0000775B  6C                insb
0000775C  657373            gs jnc 0x77d2
0000775F  49                dec ecx
00007760  53                push ebx
00007761  7345              jnc 0x77a8
00007763  53                push ebx
00007764  61                popa
00007765  49                dec ecx
00007766  53                push ebx
00007767  7345              jnc 0x77ae
00007769  45                inc ebp
0000776A  3131              xor [ecx],esi
0000776C  5F                pop edi
0000776D  4D                dec ebp
0000776E  5F                pop edi
0000776F  7075              jo 0x77e6
00007771  745F              jz 0x77d2
00007773  6E                outsb
00007774  6F                outsd
00007775  646545            gs inc ebp
00007778  50                push eax
00007779  53                push ebx
0000777A  7431              jz 0x77ad
0000777C  335F52            xor ebx,[edi+0x52]
0000777F  625F74            bound ebx,[edi+0x74]
00007782  7265              jc 0x77e9
00007784  655F              gs pop edi
00007786  6E                outsb
00007787  6F                outsd
00007788  646549            gs dec ecx
0000778B  53                push ebx
0000778C  7345              jnc 0x77d3
0000778E  005F5A            add [edi+0x5a],bl
00007791  4E                dec esi
00007792  395F5F            cmp [edi+0x5f],ebx
00007795  676E              a16 outsb
00007797  755F              jnz 0x77f8
00007799  637878            arpl [eax+0x78],di
0000779C  3133              xor [ebx],esi
0000779E  6E                outsb
0000779F  65775F            gs ja 0x7801
000077A2  61                popa
000077A3  6C                insb
000077A4  6C                insb
000077A5  6F                outsd
000077A6  636174            arpl [ecx+0x74],sp
000077A9  6F                outsd
000077AA  7249              jc 0x77f5
000077AC  53                push ebx
000077AD  7345              jnc 0x77f4
000077AF  44                inc esp
000077B0  314576            xor [ebp+0x76],eax
000077B3  005F5A            add [edi+0x5a],bl
000077B6  4E                dec esi
000077B7  53                push ebx
000077B8  7438              jz 0x77f2
000077BA  5F                pop edi
000077BB  52                push edx
000077BC  625F74            bound ebx,[edi+0x74]
000077BF  7265              jc 0x7826
000077C1  6549              gs dec ecx
000077C3  635374            arpl [ebx+0x74],dx
000077C6  3470              xor al,0x70
000077C8  61                popa
000077C9  6972494B636945    imul esi,[edx+0x49],dword 0x4569634b
000077D0  53                push ebx
000077D1  7431              jz 0x7804
000077D3  305F53            xor [edi+0x53],bl
000077D6  656C              gs insb
000077D8  6563743173        arpl [gs:ecx+esi+0x73],si
000077DD  7449              jz 0x7828
000077DF  53                push ebx
000077E0  325F45            xor bl,[edi+0x45]
000077E3  53                push ebx
000077E4  7434              jz 0x781a
000077E6  6C                insb
000077E7  657373            gs jnc 0x785d
000077EA  49                dec ecx
000077EB  634553            arpl [ebp+0x53],ax
000077EE  61                popa
000077EF  49                dec ecx
000077F0  53                push ebx
000077F1  325F45            xor bl,[edi+0x45]
000077F4  45                inc ebp
000077F5  43                inc ebx
000077F6  314576            xor [ebp+0x76],eax
000077F9  005F5A            add [edi+0x5a],bl
000077FC  4E                dec esi
000077FD  53                push ebx
000077FE  7433              jz 0x7833
00007800  7365              jnc 0x7867
00007802  7449              jz 0x784d
00007804  53                push ebx
00007805  7353              jnc 0x785a
00007807  7434              jz 0x783d
00007809  6C                insb
0000780A  657373            gs jnc 0x7880
0000780D  49                dec ecx
0000780E  53                push ebx
0000780F  7345              jnc 0x7856
00007811  53                push ebx
00007812  61                popa
00007813  49                dec ecx
00007814  53                push ebx
00007815  7345              jnc 0x785c
00007817  45                inc ebp
00007818  44                inc esp
00007819  324576            xor al,[ebp+0x76]
0000781C  005F5A            add [edi+0x5a],bl
0000781F  4E                dec esi
00007820  4B                dec ebx
00007821  53                push ebx
00007822  7438              jz 0x785c
00007824  5F                pop edi
00007825  52                push edx
00007826  625F74            bound ebx,[edi+0x74]
00007829  7265              jc 0x7890
0000782B  6549              gs dec ecx
0000782D  53                push ebx
0000782E  7353              jnc 0x7883
00007830  7353              jnc 0x7885
00007832  7439              jz 0x786d
00007834  5F                pop edi
00007835  49                dec ecx
00007836  64656E            gs outsb
00007839  7469              jz 0x78a4
0000783B  7479              jz 0x78b6
0000783D  49                dec ecx
0000783E  53                push ebx
0000783F  7345              jnc 0x7886
00007841  53                push ebx
00007842  7434              jz 0x7878
00007844  6C                insb
00007845  657373            gs jnc 0x78bb
00007848  49                dec ecx
00007849  53                push ebx
0000784A  7345              jnc 0x7891
0000784C  53                push ebx
0000784D  61                popa
0000784E  49                dec ecx
0000784F  53                push ebx
00007850  7345              jnc 0x7897
00007852  45                inc ebp
00007853  3231              xor dh,[ecx]
00007855  5F                pop edi
00007856  4D                dec ebp
00007857  5F                pop edi
00007858  6765745F          gs a16 jz 0x78bb
0000785C  4E                dec esi
0000785D  6F                outsd
0000785E  64655F            gs pop edi
00007861  61                popa
00007862  6C                insb
00007863  6C                insb
00007864  6F                outsd
00007865  636174            arpl [ecx+0x74],sp
00007868  6F                outsd
00007869  7245              jc 0x78b0
0000786B  7600              jna 0x786d
0000786D  5F                pop edi
0000786E  5A                pop edx
0000786F  4E                dec esi
00007870  53                push ebx
00007871  7433              jz 0x78a6
00007873  6D                insd
00007874  61                popa
00007875  7049              jo 0x78c0
00007877  636953            arpl [ecx+0x53],bp
0000787A  7434              jz 0x78b0
0000787C  6C                insb
0000787D  657373            gs jnc 0x78f3
00007880  49                dec ecx
00007881  634553            arpl [ebp+0x53],ax
00007884  61                popa
00007885  49                dec ecx
00007886  53                push ebx
00007887  7434              jz 0x78bd
00007889  7061              jo 0x78ec
0000788B  6972494B636945    imul esi,[edx+0x49],dword 0x4569634b
00007892  45                inc ebp
00007893  45                inc ebp
00007894  43                inc ebx
00007895  314576            xor [ebp+0x76],eax
00007898  005F5A            add [edi+0x5a],bl
0000789B  4E                dec esi
0000789C  53                push ebx
0000789D  7433              jz 0x78d2
0000789F  7365              jnc 0x7906
000078A1  7449              jz 0x78ec
000078A3  53                push ebx
000078A4  7353              jnc 0x78f9
000078A6  7434              jz 0x78dc
000078A8  6C                insb
000078A9  657373            gs jnc 0x791f
000078AC  49                dec ecx
000078AD  53                push ebx
000078AE  7345              jnc 0x78f5
000078B0  53                push ebx
000078B1  61                popa
000078B2  49                dec ecx
000078B3  53                push ebx
000078B4  7345              jnc 0x78fb
000078B6  45                inc ebp
000078B7  43                inc ebx
000078B8  314576            xor [ebp+0x76],eax
000078BB  005F5A            add [edi+0x5a],bl
000078BE  4E                dec esi
000078BF  395F5F            cmp [edi+0x5f],ebx
000078C2  676E              a16 outsb
000078C4  755F              jnz 0x7925
000078C6  637878            arpl [eax+0x78],di
000078C9  3133              xor [ebx],esi
000078CB  6E                outsb
000078CC  65775F            gs ja 0x792e
000078CF  61                popa
000078D0  6C                insb
000078D1  6C                insb
000078D2  6F                outsd
000078D3  636174            arpl [ecx+0x74],sp
000078D6  6F                outsd
000078D7  7249              jc 0x7922
000078D9  53                push ebx
000078DA  7434              jz 0x7910
000078DC  7061              jo 0x793f
000078DE  6972494B636945    imul esi,[edx+0x49],dword 0x4569634b
000078E5  45                inc ebp
000078E6  43                inc ebx
000078E7  314576            xor [ebp+0x76],eax
000078EA  005F5A            add [edi+0x5a],bl
000078ED  4E                dec esi
000078EE  395F5F            cmp [edi+0x5f],ebx
000078F1  676E              a16 outsb
000078F3  755F              jnz 0x7954
000078F5  637878            arpl [eax+0x78],di
000078F8  3133              xor [ebx],esi
000078FA  6E                outsb
000078FB  65775F            gs ja 0x795d
000078FE  61                popa
000078FF  6C                insb
00007900  6C                insb
00007901  6F                outsd
00007902  636174            arpl [ecx+0x74],sp
00007905  6F                outsd
00007906  7249              jc 0x7951
00007908  53                push ebx
00007909  7434              jz 0x793f
0000790B  7061              jo 0x796e
0000790D  6972494B636945    imul esi,[edx+0x49],dword 0x4569634b
00007914  45                inc ebp
00007915  44                inc esp
00007916  324576            xor al,[ebp+0x76]
00007919  005F5A            add [edi+0x5a],bl
0000791C  4E                dec esi
0000791D  53                push ebx
0000791E  7431              jz 0x7951
00007920  37                aaa
00007921  5F                pop edi
00007922  52                push edx
00007923  625F74            bound ebx,[edi+0x74]
00007926  7265              jc 0x798d
00007928  655F              gs pop edi
0000792A  6974657261746F72  imul esi,[ebp+0x72],dword 0x726f7461
00007932  49                dec ecx
00007933  53                push ebx
00007934  7345              jnc 0x797b
00007936  43                inc ebx
00007937  324550            xor al,[ebp+0x50]
0000793A  53                push ebx
0000793B  7431              jz 0x796e
0000793D  335F52            xor ebx,[edi+0x52]
00007940  625F74            bound ebx,[edi+0x74]
00007943  7265              jc 0x79aa
00007945  655F              gs pop edi
00007947  6E                outsb
00007948  6F                outsd
00007949  646549            gs dec ecx
0000794C  53                push ebx
0000794D  7345              jnc 0x7994
0000794F  005F5A            add [edi+0x5a],bl
00007952  53                push ebx
00007953  746F              jz 0x79c4
00007955  7253              jc 0x79aa
00007957  7431              jz 0x798a
00007959  335F49            xor ebx,[edi+0x49]
0000795C  6F                outsd
0000795D  735F              jnc 0x79be
0000795F  4F                dec edi
00007960  7065              jo 0x79c7
00007962  6E                outsb
00007963  6D                insd
00007964  6F                outsd
00007965  646553            gs push ebx
00007968  5F                pop edi
00007969  005F5A            add [edi+0x5a],bl
0000796C  4E                dec esi
0000796D  395F5F            cmp [edi+0x5f],ebx
00007970  676E              a16 outsb
00007972  755F              jnz 0x79d3
00007974  637878            arpl [eax+0x78],di
00007977  3133              xor [ebx],esi
00007979  6E                outsb
0000797A  65775F            gs ja 0x79dc
0000797D  61                popa
0000797E  6C                insb
0000797F  6C                insb
00007980  6F                outsd
00007981  636174            arpl [ecx+0x74],sp
00007984  6F                outsd
00007985  7249              jc 0x79d0
00007987  53                push ebx
00007988  7431              jz 0x79bb
0000798A  335F52            xor ebx,[edi+0x52]
0000798D  625F74            bound ebx,[edi+0x74]
00007990  7265              jc 0x79f7
00007992  655F              gs pop edi
00007994  6E                outsb
00007995  6F                outsd
00007996  646549            gs dec ecx
00007999  53                push ebx
0000799A  7434              jz 0x79d0
0000799C  7061              jo 0x79ff
0000799E  6972494B636945    imul esi,[edx+0x49],dword 0x4569634b
000079A5  45                inc ebp
000079A6  45                inc ebp
000079A7  43                inc ebx
000079A8  314576            xor [ebp+0x76],eax
000079AB  005F5A            add [edi+0x5a],bl
000079AE  4E                dec esi
000079AF  395F5F            cmp [edi+0x5f],ebx
000079B2  676E              a16 outsb
000079B4  755F              jnz 0x7a15
000079B6  637878            arpl [eax+0x78],di
000079B9  3133              xor [ebx],esi
000079BB  6E                outsb
000079BC  65775F            gs ja 0x7a1e
000079BF  61                popa
000079C0  6C                insb
000079C1  6C                insb
000079C2  6F                outsd
000079C3  636174            arpl [ecx+0x74],sp
000079C6  6F                outsd
000079C7  7249              jc 0x7a12
000079C9  53                push ebx
000079CA  7431              jz 0x79fd
000079CC  335F52            xor ebx,[edi+0x52]
000079CF  625F74            bound ebx,[edi+0x74]
000079D2  7265              jc 0x7a39
000079D4  655F              gs pop edi
000079D6  6E                outsb
000079D7  6F                outsd
000079D8  646549            gs dec ecx
000079DB  53                push ebx
000079DC  7434              jz 0x7a12
000079DE  7061              jo 0x7a41
000079E0  6972494B636945    imul esi,[edx+0x49],dword 0x4569634b
000079E7  45                inc ebp
000079E8  45                inc ebp
000079E9  44                inc esp
000079EA  324576            xor al,[ebp+0x76]
000079ED  005F5A            add [edi+0x5a],bl
000079F0  53                push ebx
000079F1  7431              jz 0x7a24
000079F3  385F52            cmp [edi+0x52],bl
000079F6  625F74            bound ebx,[edi+0x74]
000079F9  7265              jc 0x7a60
000079FB  655F              gs pop edi
000079FD  6465637265        arpl [gs:edx+0x65],si
00007A02  6D                insd
00007A03  656E              gs outsb
00007A05  7450              jz 0x7a57
00007A07  53                push ebx
00007A08  7431              jz 0x7a3b
00007A0A  385F52            cmp [edi+0x52],bl
00007A0D  625F74            bound ebx,[edi+0x74]
00007A10  7265              jc 0x7a77
00007A12  655F              gs pop edi
00007A14  6E                outsb
00007A15  6F                outsd
00007A16  64655F            gs pop edi
00007A19  626173            bound esp,[ecx+0x73]
00007A1C  6540              gs inc eax
00007A1E  40                inc eax
00007A1F  47                inc edi
00007A20  4C                dec esp
00007A21  49                dec ecx
00007A22  42                inc edx
00007A23  43                inc ebx
00007A24  58                pop eax
00007A25  58                pop eax
00007A26  5F                pop edi
00007A27  332E              xor ebp,[esi]
00007A29  3400              xor al,0x0
00007A2B  5F                pop edi
00007A2C  5A                pop edx
00007A2D  4E                dec esi
00007A2E  53                push ebx
00007A2F  7438              jz 0x7a69
00007A31  5F                pop edi
00007A32  52                push edx
00007A33  625F74            bound ebx,[edi+0x74]
00007A36  7265              jc 0x7a9d
00007A38  6549              gs dec ecx
00007A3A  53                push ebx
00007A3B  7353              jnc 0x7a90
00007A3D  7353              jnc 0x7a92
00007A3F  7439              jz 0x7a7a
00007A41  5F                pop edi
00007A42  49                dec ecx
00007A43  64656E            gs outsb
00007A46  7469              jz 0x7ab1
00007A48  7479              jz 0x7ac3
00007A4A  49                dec ecx
00007A4B  53                push ebx
00007A4C  7345              jnc 0x7a93
00007A4E  53                push ebx
00007A4F  7434              jz 0x7a85
00007A51  6C                insb
00007A52  657373            gs jnc 0x7ac8
00007A55  49                dec ecx
00007A56  53                push ebx
00007A57  7345              jnc 0x7a9e
00007A59  53                push ebx
00007A5A  61                popa
00007A5B  49                dec ecx
00007A5C  53                push ebx
00007A5D  7345              jnc 0x7aa4
00007A5F  45                inc ebp
00007A60  31345F            xor [edi+ebx*2],esi
00007A63  4D                dec ebp
00007A64  5F                pop edi
00007A65  637265            arpl [edx+0x65],si
00007A68  61                popa
00007A69  7465              jz 0x7ad0
00007A6B  5F                pop edi
00007A6C  6E                outsb
00007A6D  6F                outsd
00007A6E  646545            gs inc ebp
00007A71  52                push edx
00007A72  4B                dec ebx
00007A73  53                push ebx
00007A74  7300              jnc 0x7a76
00007A76  5F                pop edi
00007A77  5A                pop edx
00007A78  4E                dec esi
00007A79  53                push ebx
00007A7A  7431              jz 0x7aad
00007A7C  37                aaa
00007A7D  5F                pop edi
00007A7E  52                push edx
00007A7F  625F74            bound ebx,[edi+0x74]
00007A82  7265              jc 0x7ae9
00007A84  655F              gs pop edi
00007A86  6974657261746F72  imul esi,[ebp+0x72],dword 0x726f7461
00007A8E  49                dec ecx
00007A8F  53                push ebx
00007A90  7434              jz 0x7ac6
00007A92  7061              jo 0x7af5
00007A94  6972494B636945    imul esi,[edx+0x49],dword 0x4569634b
00007A9B  45                inc ebp
00007A9C  6D                insd
00007A9D  6D                insd
00007A9E  45                inc ebp
00007A9F  7600              jna 0x7aa1
00007AA1  5F                pop edi
00007AA2  5F                pop edi
00007AA3  6C                insb
00007AA4  6962635F737461    imul esp,[edx+0x63],dword 0x6174735f
00007AAB  7274              jc 0x7b21
00007AAD  5F                pop edi
00007AAE  6D                insd
00007AAF  61                popa
00007AB0  696E4040474C49    imul ebp,[esi+0x40],dword 0x494c4740
00007AB7  42                inc edx
00007AB8  43                inc ebx
00007AB9  5F                pop edi
00007ABA  322E              xor ch,[esi]
00007ABC  3000              xor [eax],al
00007ABE  5F                pop edi
00007ABF  5A                pop edx
00007AC0  4E                dec esi
00007AC1  53                push ebx
00007AC2  7438              jz 0x7afc
00007AC4  5F                pop edi
00007AC5  52                push edx
00007AC6  625F74            bound ebx,[edi+0x74]
00007AC9  7265              jc 0x7b30
00007ACB  6549              gs dec ecx
00007ACD  635374            arpl [ebx+0x74],dx
00007AD0  3470              xor al,0x70
00007AD2  61                popa
00007AD3  6972494B636945    imul esi,[edx+0x49],dword 0x4569634b
00007ADA  53                push ebx
00007ADB  7431              jz 0x7b0e
00007ADD  305F53            xor [edi+0x53],bl
00007AE0  656C              gs insb
00007AE2  6563743173        arpl [gs:ecx+esi+0x73],si
00007AE7  7449              jz 0x7b32
00007AE9  53                push ebx
00007AEA  325F45            xor bl,[edi+0x45]
00007AED  53                push ebx
00007AEE  7434              jz 0x7b24
00007AF0  6C                insb
00007AF1  657373            gs jnc 0x7b67
00007AF4  49                dec ecx
00007AF5  634553            arpl [ebp+0x53],ax
00007AF8  61                popa
00007AF9  49                dec ecx
00007AFA  53                push ebx
00007AFB  325F45            xor bl,[edi+0x45]
00007AFE  45                inc ebp
00007AFF  3133              xor [ebx],esi
00007B01  5F                pop edi
00007B02  52                push edx
00007B03  625F74            bound ebx,[edi+0x74]
00007B06  7265              jc 0x7b6d
00007B08  655F              gs pop edi
00007B0A  696D706C495336    imul ebp,[ebp+0x70],dword 0x3653496c
00007B11  5F                pop edi
00007B12  4C                dec esp
00007B13  6230              bound esi,[eax]
00007B15  45                inc ebp
00007B16  45                inc ebp
00007B17  43                inc ebx
00007B18  314576            xor [ebp+0x76],eax
00007B1B  005F5A            add [edi+0x5a],bl
00007B1E  4E                dec esi
00007B1F  4B                dec ebx
00007B20  53                push ebx
00007B21  7337              jnc 0x7b5a
00007B23  636F6D            arpl [edi+0x6d],bp
00007B26  7061              jo 0x7b89
00007B28  7265              jc 0x7b8f
00007B2A  45                inc ebp
00007B2B  52                push edx
00007B2C  4B                dec ebx
00007B2D  53                push ebx
00007B2E  7340              jnc 0x7b70
00007B30  40                inc eax
00007B31  47                inc edi
00007B32  4C                dec esp
00007B33  49                dec ecx
00007B34  42                inc edx
00007B35  43                inc ebx
00007B36  58                pop eax
00007B37  58                pop eax
00007B38  5F                pop edi
00007B39  332E              xor ebp,[esi]
00007B3B  3400              xor al,0x0
00007B3D  5F                pop edi
00007B3E  5A                pop edx
00007B3F  4E                dec esi
00007B40  53                push ebx
00007B41  7343              jnc 0x7b86
00007B43  314552            xor [ebp+0x52],eax
00007B46  4B                dec ebx
00007B47  53                push ebx
00007B48  7340              jnc 0x7b8a
00007B4A  40                inc eax
00007B4B  47                inc edi
00007B4C  4C                dec esp
00007B4D  49                dec ecx
00007B4E  42                inc edx
00007B4F  43                inc ebx
00007B50  58                pop eax
00007B51  58                pop eax
00007B52  5F                pop edi
00007B53  332E              xor ebp,[esi]
00007B55  3400              xor al,0x0
00007B57  5F                pop edi
00007B58  5A                pop edx
00007B59  4E                dec esi
00007B5A  53                push ebx
00007B5B  7432              jz 0x7b8f
00007B5D  335F52            xor ebx,[edi+0x52]
00007B60  625F74            bound ebx,[edi+0x74]
00007B63  7265              jc 0x7bca
00007B65  655F              gs pop edi
00007B67  636F6E            arpl [edi+0x6e],bp
00007B6A  7374              jnc 0x7be0
00007B6C  5F                pop edi
00007B6D  6974657261746F72  imul esi,[ebp+0x72],dword 0x726f7461
00007B75  49                dec ecx
00007B76  53                push ebx
00007B77  7345              jnc 0x7bbe
00007B79  43                inc ebx
00007B7A  314552            xor [ebp+0x52],eax
00007B7D  4B                dec ebx
00007B7E  53                push ebx
00007B7F  7431              jz 0x7bb2
00007B81  37                aaa
00007B82  5F                pop edi
00007B83  52                push edx
00007B84  625F74            bound ebx,[edi+0x74]
00007B87  7265              jc 0x7bee
00007B89  655F              gs pop edi
00007B8B  6974657261746F72  imul esi,[ebp+0x72],dword 0x726f7461
00007B93  49                dec ecx
00007B94  53                push ebx
00007B95  7345              jnc 0x7bdc
00007B97  005F5A            add [edi+0x5a],bl
00007B9A  4E                dec esi
00007B9B  53                push ebx
00007B9C  7433              jz 0x7bd1
00007B9E  6D                insd
00007B9F  61                popa
00007BA0  7049              jo 0x7beb
00007BA2  636953            arpl [ecx+0x53],bp
00007BA5  7434              jz 0x7bdb
00007BA7  6C                insb
00007BA8  657373            gs jnc 0x7c1e
00007BAB  49                dec ecx
00007BAC  634553            arpl [ebp+0x53],ax
00007BAF  61                popa
00007BB0  49                dec ecx
00007BB1  53                push ebx
00007BB2  7434              jz 0x7be8
00007BB4  7061              jo 0x7c17
00007BB6  6972494B636945    imul esi,[edx+0x49],dword 0x4569634b
00007BBD  45                inc ebp
00007BBE  45                inc ebp
00007BBF  6978455253335F    imul edi,[eax+0x45],dword 0x5f335352
00007BC6  005F5A            add [edi+0x5a],bl
00007BC9  4E                dec esi
00007BCA  395F5F            cmp [edi+0x5f],ebx
00007BCD  676E              a16 outsb
00007BCF  755F              jnz 0x7c30
00007BD1  637878            arpl [eax+0x78],di
00007BD4  3133              xor [ebx],esi
00007BD6  6E                outsb
00007BD7  65775F            gs ja 0x7c39
00007BDA  61                popa
00007BDB  6C                insb
00007BDC  6C                insb
00007BDD  6F                outsd
00007BDE  636174            arpl [ecx+0x74],sp
00007BE1  6F                outsd
00007BE2  7249              jc 0x7c2d
00007BE4  53                push ebx
00007BE5  7431              jz 0x7c18
00007BE7  335F52            xor ebx,[edi+0x52]
00007BEA  625F74            bound ebx,[edi+0x74]
00007BED  7265              jc 0x7c54
00007BEF  655F              gs pop edi
00007BF1  6E                outsb
00007BF2  6F                outsd
00007BF3  646549            gs dec ecx
00007BF6  53                push ebx
00007BF7  7345              jnc 0x7c3e
00007BF9  45                inc ebp
00007BFA  43                inc ebx
00007BFB  324576            xor al,[ebp+0x76]
00007BFE  005F5A            add [edi+0x5a],bl
00007C01  4E                dec esi
00007C02  395F5F            cmp [edi+0x5f],ebx
00007C05  676E              a16 outsb
00007C07  755F              jnz 0x7c68
00007C09  637878            arpl [eax+0x78],di
00007C0C  3133              xor [ebx],esi
00007C0E  6E                outsb
00007C0F  65775F            gs ja 0x7c71
00007C12  61                popa
00007C13  6C                insb
00007C14  6C                insb
00007C15  6F                outsd
00007C16  636174            arpl [ecx+0x74],sp
00007C19  6F                outsd
00007C1A  7249              jc 0x7c65
00007C1C  53                push ebx
00007C1D  7431              jz 0x7c50
00007C1F  335F52            xor ebx,[edi+0x52]
00007C22  625F74            bound ebx,[edi+0x74]
00007C25  7265              jc 0x7c8c
00007C27  655F              gs pop edi
00007C29  6E                outsb
00007C2A  6F                outsd
00007C2B  646549            gs dec ecx
00007C2E  53                push ebx
00007C2F  7434              jz 0x7c65
00007C31  7061              jo 0x7c94
00007C33  6972494B636945    imul esi,[edx+0x49],dword 0x4569634b
00007C3A  45                inc ebp
00007C3B  45                inc ebp
00007C3C  43                inc ebx
00007C3D  324576            xor al,[ebp+0x76]
00007C40  005F5A            add [edi+0x5a],bl
00007C43  4E                dec esi
00007C44  53                push ebx
00007C45  7438              jz 0x7c7f
00007C47  5F                pop edi
00007C48  52                push edx
00007C49  625F74            bound ebx,[edi+0x74]
00007C4C  7265              jc 0x7cb3
00007C4E  6549              gs dec ecx
00007C50  635374            arpl [ebx+0x74],dx
00007C53  3470              xor al,0x70
00007C55  61                popa
00007C56  6972494B636945    imul esi,[edx+0x49],dword 0x4569634b
00007C5D  53                push ebx
00007C5E  7431              jz 0x7c91
00007C60  305F53            xor [edi+0x53],bl
00007C63  656C              gs insb
00007C65  6563743173        arpl [gs:ecx+esi+0x73],si
00007C6A  7449              jz 0x7cb5
00007C6C  53                push ebx
00007C6D  325F45            xor bl,[edi+0x45]
00007C70  53                push ebx
00007C71  7434              jz 0x7ca7
00007C73  6C                insb
00007C74  657373            gs jnc 0x7cea
00007C77  49                dec ecx
00007C78  634553            arpl [ebp+0x53],ax
00007C7B  61                popa
00007C7C  49                dec ecx
00007C7D  53                push ebx
00007C7E  325F45            xor bl,[edi+0x45]
00007C81  45                inc ebp
00007C82  385F4D            cmp [edi+0x4d],bl
00007C85  5F                pop edi
00007C86  657261            gs jc 0x7cea
00007C89  7365              jnc 0x7cf0
00007C8B  45                inc ebp
00007C8C  50                push eax
00007C8D  53                push ebx
00007C8E  7431              jz 0x7cc1
00007C90  335F52            xor ebx,[edi+0x52]
00007C93  625F74            bound ebx,[edi+0x74]
00007C96  7265              jc 0x7cfd
00007C98  655F              gs pop edi
00007C9A  6E                outsb
00007C9B  6F                outsd
00007C9C  646549            gs dec ecx
00007C9F  53                push ebx
00007CA0  325F45            xor bl,[edi+0x45]
00007CA3  005F5A            add [edi+0x5a],bl
00007CA6  4E                dec esi
00007CA7  395F5F            cmp [edi+0x5f],ebx
00007CAA  676E              a16 outsb
00007CAC  755F              jnz 0x7d0d
00007CAE  637878            arpl [eax+0x78],di
00007CB1  3133              xor [ebx],esi
00007CB3  6E                outsb
00007CB4  65775F            gs ja 0x7d16
00007CB7  61                popa
00007CB8  6C                insb
00007CB9  6C                insb
00007CBA  6F                outsd
00007CBB  636174            arpl [ecx+0x74],sp
00007CBE  6F                outsd
00007CBF  7249              jc 0x7d0a
00007CC1  53                push ebx
00007CC2  7431              jz 0x7cf5
00007CC4  335F52            xor ebx,[edi+0x52]
00007CC7  625F74            bound ebx,[edi+0x74]
00007CCA  7265              jc 0x7d31
00007CCC  655F              gs pop edi
00007CCE  6E                outsb
00007CCF  6F                outsd
00007CD0  646549            gs dec ecx
00007CD3  53                push ebx
00007CD4  7434              jz 0x7d0a
00007CD6  7061              jo 0x7d39
00007CD8  6972494B636945    imul esi,[edx+0x49],dword 0x4569634b
00007CDF  45                inc ebp
00007CE0  45                inc ebp
00007CE1  38616C            cmp [ecx+0x6c],ah
00007CE4  6C                insb
00007CE5  6F                outsd
00007CE6  636174            arpl [ecx+0x74],sp
00007CE9  6545              gs inc ebp
00007CEB  6A50              push byte +0x50
00007CED  4B                dec ebx
00007CEE  7600              jna 0x7cf0
00007CF0  5F                pop edi
00007CF1  5A                pop edx
00007CF2  4E                dec esi
00007CF3  53                push ebx
00007CF4  7438              jz 0x7d2e
00007CF6  5F                pop edi
00007CF7  52                push edx
00007CF8  625F74            bound ebx,[edi+0x74]
00007CFB  7265              jc 0x7d62
00007CFD  6549              gs dec ecx
00007CFF  635374            arpl [ebx+0x74],dx
00007D02  3470              xor al,0x70
00007D04  61                popa
00007D05  6972494B636945    imul esi,[edx+0x49],dword 0x4569634b
00007D0C  53                push ebx
00007D0D  7431              jz 0x7d40
00007D0F  305F53            xor [edi+0x53],bl
00007D12  656C              gs insb
00007D14  6563743173        arpl [gs:ecx+esi+0x73],si
00007D19  7449              jz 0x7d64
00007D1B  53                push ebx
00007D1C  325F45            xor bl,[edi+0x45]
00007D1F  53                push ebx
00007D20  7434              jz 0x7d56
00007D22  6C                insb
00007D23  657373            gs jnc 0x7d99
00007D26  49                dec ecx
00007D27  634553            arpl [ebp+0x53],ax
00007D2A  61                popa
00007D2B  49                dec ecx
00007D2C  53                push ebx
00007D2D  325F45            xor bl,[edi+0x45]
00007D30  45                inc ebp
00007D31  385F53            cmp [edi+0x53],bl
00007D34  5F                pop edi
00007D35  7661              jna 0x7d98
00007D37  6C                insb
00007D38  7565              jnz 0x7d9f
00007D3A  45                inc ebp
00007D3B  50                push eax
00007D3C  4B                dec ebx
00007D3D  53                push ebx
00007D3E  7431              jz 0x7d71
00007D40  335F52            xor ebx,[edi+0x52]
00007D43  625F74            bound ebx,[edi+0x74]
00007D46  7265              jc 0x7dad
00007D48  655F              gs pop edi
00007D4A  6E                outsb
00007D4B  6F                outsd
00007D4C  646549            gs dec ecx
00007D4F  53                push ebx
00007D50  325F45            xor bl,[edi+0x45]
00007D53  005F5A            add [edi+0x5a],bl
00007D56  4E                dec esi
00007D57  4B                dec ebx
00007D58  53                push ebx
00007D59  7438              jz 0x7d93
00007D5B  5F                pop edi
00007D5C  52                push edx
00007D5D  625F74            bound ebx,[edi+0x74]
00007D60  7265              jc 0x7dc7
00007D62  6549              gs dec ecx
00007D64  635374            arpl [ebx+0x74],dx
00007D67  3470              xor al,0x70
00007D69  61                popa
00007D6A  6972494B636945    imul esi,[edx+0x49],dword 0x4569634b
00007D71  53                push ebx
00007D72  7431              jz 0x7da5
00007D74  305F53            xor [edi+0x53],bl
00007D77  656C              gs insb
00007D79  6563743173        arpl [gs:ecx+esi+0x73],si
00007D7E  7449              jz 0x7dc9
00007D80  53                push ebx
00007D81  325F45            xor bl,[edi+0x45]
00007D84  53                push ebx
00007D85  7434              jz 0x7dbb
00007D87  6C                insb
00007D88  657373            gs jnc 0x7dfe
00007D8B  49                dec ecx
00007D8C  634553            arpl [ebp+0x53],ax
00007D8F  61                popa
00007D90  49                dec ecx
00007D91  53                push ebx
00007D92  325F45            xor bl,[edi+0x45]
00007D95  45                inc ebp
00007D96  386B65            cmp [ebx+0x65],ch
00007D99  795F              jns 0x7dfa
00007D9B  636F6D            arpl [edi+0x6d],bp
00007D9E  7045              jo 0x7de5
00007DA0  7600              jna 0x7da2
00007DA2  5F                pop edi
00007DA3  49                dec ecx
00007DA4  54                push esp
00007DA5  4D                dec ebp
00007DA6  5F                pop edi
00007DA7  64657265          gs jc 0x7e10
00007DAB  676973746572544D  imul esi,[bp+di+0x74],dword 0x4d547265
00007DB3  43                inc ebx
00007DB4  6C                insb
00007DB5  6F                outsd
00007DB6  6E                outsb
00007DB7  6554              gs push esp
00007DB9  61                popa
00007DBA  626C6500          bound ebp,[ebp+0x0]
00007DBE  5F                pop edi
00007DBF  5A                pop edx
00007DC0  53                push ebx
00007DC1  746C              jz 0x7e2f
00007DC3  7349              jnc 0x7e0e
00007DC5  53                push ebx
00007DC6  7431              jz 0x7df9
00007DC8  316368            xor [ebx+0x68],esp
00007DCB  61                popa
00007DCC  725F              jc 0x7e2d
00007DCE  7472              jz 0x7e42
00007DD0  61                popa
00007DD1  6974734963454552  imul esi,[ebx+esi*2+0x49],dword 0x52454563
00007DD9  53                push ebx
00007DDA  7431              jz 0x7e0d
00007DDC  336261            xor esp,[edx+0x61]
00007DDF  7369              jnc 0x7e4a
00007DE1  635F6F            arpl [edi+0x6f],bx
00007DE4  7374              jnc 0x7e5a
00007DE6  7265              jc 0x7e4d
00007DE8  61                popa
00007DE9  6D                insd
00007DEA  49                dec ecx
00007DEB  63545F45          arpl [edi+ebx*2+0x45],dx
00007DEF  53                push ebx
00007DF0  355F504B63        xor eax,0x634b505f
00007DF5  40                inc eax
00007DF6  40                inc eax
00007DF7  47                inc edi
00007DF8  4C                dec esp
00007DF9  49                dec ecx
00007DFA  42                inc edx
00007DFB  43                inc ebx
00007DFC  58                pop eax
00007DFD  58                pop eax
00007DFE  5F                pop edi
00007DFF  332E              xor ebp,[esi]
00007E01  3400              xor al,0x0
00007E03  5F                pop edi
00007E04  49                dec ecx
00007E05  4F                dec edi
00007E06  5F                pop edi
00007E07  7374              jnc 0x7e7d
00007E09  64696E5F75736564  imul ebp,[fs:esi+0x5f],dword 0x64657375
00007E11  005F5A            add [edi+0x5a],bl
00007E14  6E                outsb
00007E15  776A              ja 0x7e81
00007E17  50                push eax
00007E18  7600              jna 0x7e1a
00007E1A  5F                pop edi
00007E1B  5A                pop edx
00007E1C  4E                dec esi
00007E1D  53                push ebx
00007E1E  7438              jz 0x7e58
00007E20  5F                pop edi
00007E21  52                push edx
00007E22  625F74            bound ebx,[edi+0x74]
00007E25  7265              jc 0x7e8c
00007E27  6549              gs dec ecx
00007E29  53                push ebx
00007E2A  7353              jnc 0x7e7f
00007E2C  7353              jnc 0x7e81
00007E2E  7439              jz 0x7e69
00007E30  5F                pop edi
00007E31  49                dec ecx
00007E32  64656E            gs outsb
00007E35  7469              jz 0x7ea0
00007E37  7479              jz 0x7eb2
00007E39  49                dec ecx
00007E3A  53                push ebx
00007E3B  7345              jnc 0x7e82
00007E3D  53                push ebx
00007E3E  7434              jz 0x7e74
00007E40  6C                insb
00007E41  657373            gs jnc 0x7eb7
00007E44  49                dec ecx
00007E45  53                push ebx
00007E46  7345              jnc 0x7e8d
00007E48  53                push ebx
00007E49  61                popa
00007E4A  49                dec ecx
00007E4B  53                push ebx
00007E4C  7345              jnc 0x7e93
00007E4E  45                inc ebp
00007E4F  3562656769        xor eax,0x69676562
00007E54  6E                outsb
00007E55  45                inc ebp
00007E56  7600              jna 0x7e58
00007E58  5F                pop edi
00007E59  5A                pop edx
00007E5A  53                push ebx
00007E5B  7470              jz 0x7ecd
00007E5D  6C                insb
00007E5E  49                dec ecx
00007E5F  635374            arpl [ebx+0x74],dx
00007E62  3131              xor [ecx],esi
00007E64  636861            arpl [eax+0x61],bp
00007E67  725F              jc 0x7ec8
00007E69  7472              jz 0x7edd
00007E6B  61                popa
00007E6C  6974734963455361  imul esi,[ebx+esi*2+0x49],dword 0x61534563
00007E74  49                dec ecx
00007E75  634545            arpl [ebp+0x45],ax
00007E78  53                push ebx
00007E79  624954            bound ecx,[ecx+0x54]
00007E7C  5F                pop edi
00007E7D  54                push esp
00007E7E  305F54            xor [edi+0x54],bl
00007E81  315F45            xor [edi+0x45],ebx
00007E84  52                push edx
00007E85  4B                dec ebx
00007E86  53                push ebx
00007E87  365F              ss pop edi
00007E89  53                push ebx
00007E8A  335F00            xor ebx,[edi+0x0]
00007E8D  5F                pop edi
00007E8E  5A                pop edx
00007E8F  53                push ebx
00007E90  7472              jz 0x7f04
00007E92  7349              jnc 0x7edd
00007E94  635374            arpl [ebx+0x74],dx
00007E97  3131              xor [ecx],esi
00007E99  636861            arpl [eax+0x61],bp
00007E9C  725F              jc 0x7efd
00007E9E  7472              jz 0x7f12
00007EA0  61                popa
00007EA1  6974734963455361  imul esi,[ebx+esi*2+0x49],dword 0x61534563
00007EA9  49                dec ecx
00007EAA  634545            arpl [ebp+0x45],ax
00007EAD  52                push edx
00007EAE  53                push ebx
00007EAF  7431              jz 0x7ee2
00007EB1  336261            xor esp,[edx+0x61]
00007EB4  7369              jnc 0x7f1f
00007EB6  635F69            arpl [edi+0x69],bx
00007EB9  7374              jnc 0x7f2f
00007EBB  7265              jc 0x7f22
00007EBD  61                popa
00007EBE  6D                insd
00007EBF  49                dec ecx
00007EC0  54                push esp
00007EC1  5F                pop edi
00007EC2  54                push esp
00007EC3  305F45            xor [edi+0x45],bl
00007EC6  53                push ebx
00007EC7  37                aaa
00007EC8  5F                pop edi
00007EC9  52                push edx
00007ECA  53                push ebx
00007ECB  624953            bound ecx,[ecx+0x53]
00007ECE  345F              xor al,0x5f
00007ED0  53                push ebx
00007ED1  355F54315F        xor eax,0x5f31545f
00007ED6  45                inc ebp
00007ED7  40                inc eax
00007ED8  40                inc eax
00007ED9  47                inc edi
00007EDA  4C                dec esp
00007EDB  49                dec ecx
00007EDC  42                inc edx
00007EDD  43                inc ebx
00007EDE  58                pop eax
00007EDF  58                pop eax
00007EE0  5F                pop edi
00007EE1  332E              xor ebp,[esi]
00007EE3  3400              xor al,0x0
00007EE5  5F                pop edi
00007EE6  5A                pop edx
00007EE7  4E                dec esi
00007EE8  53                push ebx
00007EE9  7344              jnc 0x7f2f
00007EEB  314576            xor [ebp+0x76],eax
00007EEE  40                inc eax
00007EEF  40                inc eax
00007EF0  47                inc edi
00007EF1  4C                dec esp
00007EF2  49                dec ecx
00007EF3  42                inc edx
00007EF4  43                inc ebx
00007EF5  58                pop eax
00007EF6  58                pop eax
00007EF7  5F                pop edi
00007EF8  332E              xor ebp,[esi]
00007EFA  3400              xor al,0x0
00007EFC  5F                pop edi
00007EFD  5A                pop edx
00007EFE  4E                dec esi
00007EFF  53                push ebx
00007F00  7433              jz 0x7f35
00007F02  6D                insd
00007F03  61                popa
00007F04  7049              jo 0x7f4f
00007F06  636953            arpl [ecx+0x53],bp
00007F09  7434              jz 0x7f3f
00007F0B  6C                insb
00007F0C  657373            gs jnc 0x7f82
00007F0F  49                dec ecx
00007F10  634553            arpl [ebp+0x53],ax
00007F13  61                popa
00007F14  49                dec ecx
00007F15  53                push ebx
00007F16  7434              jz 0x7f4c
00007F18  7061              jo 0x7f7b
00007F1A  6972494B636945    imul esi,[edx+0x49],dword 0x4569634b
00007F21  45                inc ebp
00007F22  45                inc ebp
00007F23  36696E7365727445  imul ebp,[ss:esi+0x73],dword 0x45747265
00007F2B  53                push ebx
00007F2C  7431              jz 0x7f5f
00007F2E  37                aaa
00007F2F  5F                pop edi
00007F30  52                push edx
00007F31  625F74            bound ebx,[edi+0x74]
00007F34  7265              jc 0x7f9b
00007F36  655F              gs pop edi
00007F38  6974657261746F72  imul esi,[ebp+0x72],dword 0x726f7461
00007F40  49                dec ecx
00007F41  53                push ebx
00007F42  345F              xor al,0x5f
00007F44  45                inc ebp
00007F45  52                push edx
00007F46  4B                dec ebx
00007F47  53                push ebx
00007F48  345F              xor al,0x5f
00007F4A  005F5A            add [edi+0x5a],bl
00007F4D  4E                dec esi
00007F4E  53                push ebx
00007F4F  7433              jz 0x7f84
00007F51  6D                insd
00007F52  61                popa
00007F53  7049              jo 0x7f9e
00007F55  636953            arpl [ecx+0x53],bp
00007F58  7434              jz 0x7f8e
00007F5A  6C                insb
00007F5B  657373            gs jnc 0x7fd1
00007F5E  49                dec ecx
00007F5F  634553            arpl [ebp+0x53],ax
00007F62  61                popa
00007F63  49                dec ecx
00007F64  53                push ebx
00007F65  7434              jz 0x7f9b
00007F67  7061              jo 0x7fca
00007F69  6972494B636945    imul esi,[edx+0x49],dword 0x4569634b
00007F70  45                inc ebp
00007F71  45                inc ebp
00007F72  3131              xor [ecx],esi
00007F74  6C                insb
00007F75  6F                outsd
00007F76  7765              ja 0x7fdd
00007F78  725F              jc 0x7fd9
00007F7A  626F75            bound ebp,[edi+0x75]
00007F7D  6E                outsb
00007F7E  6445              fs inc ebp
00007F80  52                push edx
00007F81  53                push ebx
00007F82  335F00            xor ebx,[edi+0x0]
00007F85  5F                pop edi
00007F86  5A                pop edx
00007F87  4E                dec esi
00007F88  395F5F            cmp [edi+0x5f],ebx
00007F8B  676E              a16 outsb
00007F8D  755F              jnz 0x7fee
00007F8F  637878            arpl [eax+0x78],di
00007F92  3133              xor [ebx],esi
00007F94  6E                outsb
00007F95  65775F            gs ja 0x7ff7
00007F98  61                popa
00007F99  6C                insb
00007F9A  6C                insb
00007F9B  6F                outsd
00007F9C  636174            arpl [ecx+0x74],sp
00007F9F  6F                outsd
00007FA0  7249              jc 0x7feb
00007FA2  53                push ebx
00007FA3  7345              jnc 0x7fea
00007FA5  39636F            cmp [ebx+0x6f],esp
00007FA8  6E                outsb
00007FA9  7374              jnc 0x801f
00007FAB  7275              jc 0x8022
00007FAD  63744550          arpl [ebp+eax*2+0x50],si
00007FB1  53                push ebx
00007FB2  7352              jnc 0x8006
00007FB4  4B                dec ebx
00007FB5  53                push ebx
00007FB6  7300              jnc 0x7fb8
00007FB8  5F                pop edi
00007FB9  5A                pop edx
00007FBA  4E                dec esi
00007FBB  395F5F            cmp [edi+0x5f],ebx
00007FBE  676E              a16 outsb
00007FC0  755F              jnz 0x8021
00007FC2  637878            arpl [eax+0x78],di
00007FC5  3133              xor [ebx],esi
00007FC7  6E                outsb
00007FC8  65775F            gs ja 0x802a
00007FCB  61                popa
00007FCC  6C                insb
00007FCD  6C                insb
00007FCE  6F                outsd
00007FCF  636174            arpl [ecx+0x74],sp
00007FD2  6F                outsd
00007FD3  7249              jc 0x801e
00007FD5  53                push ebx
00007FD6  7345              jnc 0x801d
00007FD8  43                inc ebx
00007FD9  314576            xor [ebp+0x76],eax
00007FDC  005F5A            add [edi+0x5a],bl
00007FDF  4E                dec esi
00007FE0  53                push ebx
00007FE1  61                popa
00007FE2  49                dec ecx
00007FE3  53                push ebx
00007FE4  7434              jz 0x801a
00007FE6  7061              jo 0x8049
00007FE8  6972494B636945    imul esi,[edx+0x49],dword 0x4569634b
00007FEF  45                inc ebp
00007FF0  43                inc ebx
00007FF1  324953            xor cl,[ecx+0x53]
00007FF4  7431              jz 0x8027
00007FF6  335F52            xor ebx,[edi+0x52]
00007FF9  625F74            bound ebx,[edi+0x74]
00007FFC  7265              jc 0x8063
00007FFE  655F              gs pop edi
00008000  6E                outsb
00008001  6F                outsd
00008002  646549            gs dec ecx
00008005  53                push ebx
00008006  315F45            xor [edi+0x45],ebx
00008009  45                inc ebp
0000800A  45                inc ebp
0000800B  52                push edx
0000800C  4B                dec ebx
0000800D  53                push ebx
0000800E  61                popa
0000800F  49                dec ecx
00008010  54                push esp
00008011  5F                pop edi
00008012  45                inc ebp
00008013  005F5A            add [edi+0x5a],bl
00008016  4E                dec esi
00008017  395F5F            cmp [edi+0x5f],ebx
0000801A  676E              a16 outsb
0000801C  755F              jnz 0x807d
0000801E  637878            arpl [eax+0x78],di
00008021  3133              xor [ebx],esi
00008023  6E                outsb
00008024  65775F            gs ja 0x8086
00008027  61                popa
00008028  6C                insb
00008029  6C                insb
0000802A  6F                outsd
0000802B  636174            arpl [ecx+0x74],sp
0000802E  6F                outsd
0000802F  7249              jc 0x807a
00008031  53                push ebx
00008032  7345              jnc 0x8079
00008034  44                inc esp
00008035  324576            xor al,[ebp+0x76]
00008038  005F49            add [edi+0x49],bl
0000803B  54                push esp
0000803C  4D                dec ebp
0000803D  5F                pop edi
0000803E  7265              jc 0x80a5
00008040  676973746572544D  imul esi,[bp+di+0x74],dword 0x4d547265
00008048  43                inc ebx
00008049  6C                insb
0000804A  6F                outsd
0000804B  6E                outsb
0000804C  6554              gs push esp
0000804E  61                popa
0000804F  626C6500          bound ebp,[ebp+0x0]
00008053  5F                pop edi
00008054  5F                pop edi
00008055  6461              fs popa
00008057  7461              jz 0x80ba
00008059  5F                pop edi
0000805A  7374              jnc 0x80d0
0000805C  61                popa
0000805D  7274              jc 0x80d3
0000805F  005F5A            add [edi+0x5a],bl
00008062  4E                dec esi
00008063  53                push ebx
00008064  7438              jz 0x809e
00008066  5F                pop edi
00008067  52                push edx
00008068  625F74            bound ebx,[edi+0x74]
0000806B  7265              jc 0x80d2
0000806D  6549              gs dec ecx
0000806F  53                push ebx
00008070  7353              jnc 0x80c5
00008072  7353              jnc 0x80c7
00008074  7439              jz 0x80af
00008076  5F                pop edi
00008077  49                dec ecx
00008078  64656E            gs outsb
0000807B  7469              jz 0x80e6
0000807D  7479              jz 0x80f8
0000807F  49                dec ecx
00008080  53                push ebx
00008081  7345              jnc 0x80c8
00008083  53                push ebx
00008084  7434              jz 0x80ba
00008086  6C                insb
00008087  657373            gs jnc 0x80fd
0000808A  49                dec ecx
0000808B  53                push ebx
0000808C  7345              jnc 0x80d3
0000808E  53                push ebx
0000808F  61                popa
00008090  49                dec ecx
00008091  53                push ebx
00008092  7345              jnc 0x80d9
00008094  45                inc ebp
00008095  3130              xor [eax],esi
00008097  5F                pop edi
00008098  4D                dec ebp
00008099  5F                pop edi
0000809A  696E736572745F    imul ebp,[esi+0x73],dword 0x5f747265
000080A1  45                inc ebp
000080A2  50                push eax
000080A3  53                push ebx
000080A4  7431              jz 0x80d7
000080A6  385F52            cmp [edi+0x52],bl
000080A9  625F74            bound ebx,[edi+0x74]
000080AC  7265              jc 0x8113
000080AE  655F              gs pop edi
000080B0  6E                outsb
000080B1  6F                outsd
000080B2  64655F            gs pop edi
000080B5  626173            bound esp,[ecx+0x73]
000080B8  6553              gs push ebx
000080BA  37                aaa
000080BB  5F                pop edi
000080BC  52                push edx
000080BD  4B                dec ebx
000080BE  53                push ebx
000080BF  7300              jnc 0x80c1
000080C1  5F                pop edi
000080C2  5A                pop edx
000080C3  4E                dec esi
000080C4  53                push ebx
000080C5  7438              jz 0x80ff
000080C7  5F                pop edi
000080C8  52                push edx
000080C9  625F74            bound ebx,[edi+0x74]
000080CC  7265              jc 0x8133
000080CE  6549              gs dec ecx
000080D0  53                push ebx
000080D1  7353              jnc 0x8126
000080D3  7353              jnc 0x8128
000080D5  7439              jz 0x8110
000080D7  5F                pop edi
000080D8  49                dec ecx
000080D9  64656E            gs outsb
000080DC  7469              jz 0x8147
000080DE  7479              jz 0x8159
000080E0  49                dec ecx
000080E1  53                push ebx
000080E2  7345              jnc 0x8129
000080E4  53                push ebx
000080E5  7434              jz 0x811b
000080E7  6C                insb
000080E8  657373            gs jnc 0x815e
000080EB  49                dec ecx
000080EC  53                push ebx
000080ED  7345              jnc 0x8134
000080EF  53                push ebx
000080F0  61                popa
000080F1  49                dec ecx
000080F2  53                push ebx
000080F3  7345              jnc 0x813a
000080F5  45                inc ebp
000080F6  43                inc ebx
000080F7  324576            xor al,[ebp+0x76]
000080FA  005F5A            add [edi+0x5a],bl
000080FD  36636861          arpl [ss:eax+0x61],bp
00008101  6E                outsb
00008102  67656300          arpl [gs:bx+si],ax
00008106  5F                pop edi
00008107  5A                pop edx
00008108  4E                dec esi
00008109  53                push ebx
0000810A  7438              jz 0x8144
0000810C  5F                pop edi
0000810D  52                push edx
0000810E  625F74            bound ebx,[edi+0x74]
00008111  7265              jc 0x8178
00008113  6549              gs dec ecx
00008115  635374            arpl [ebx+0x74],dx
00008118  3470              xor al,0x70
0000811A  61                popa
0000811B  6972494B636945    imul esi,[edx+0x49],dword 0x4569634b
00008122  53                push ebx
00008123  7431              jz 0x8156
00008125  305F53            xor [edi+0x53],bl
00008128  656C              gs insb
0000812A  6563743173        arpl [gs:ecx+esi+0x73],si
0000812F  7449              jz 0x817a
00008131  53                push ebx
00008132  325F45            xor bl,[edi+0x45]
00008135  53                push ebx
00008136  7434              jz 0x816c
00008138  6C                insb
00008139  657373            gs jnc 0x81af
0000813C  49                dec ecx
0000813D  634553            arpl [ebp+0x53],ax
00008140  61                popa
00008141  49                dec ecx
00008142  53                push ebx
00008143  325F45            xor bl,[edi+0x45]
00008146  45                inc ebp
00008147  3133              xor [ebx],esi
00008149  5F                pop edi
0000814A  52                push edx
0000814B  625F74            bound ebx,[edi+0x74]
0000814E  7265              jc 0x81b5
00008150  655F              gs pop edi
00008152  696D706C495336    imul ebp,[ebp+0x70],dword 0x3653496c
00008159  5F                pop edi
0000815A  4C                dec esp
0000815B  6230              bound esi,[eax]
0000815D  45                inc ebp
0000815E  45                inc ebp
0000815F  43                inc ebx
00008160  324576            xor al,[ebp+0x76]
00008163  005F5A            add [edi+0x5a],bl
00008166  4E                dec esi
00008167  53                push ebx
00008168  7438              jz 0x81a2
0000816A  5F                pop edi
0000816B  52                push edx
0000816C  625F74            bound ebx,[edi+0x74]
0000816F  7265              jc 0x81d6
00008171  6549              gs dec ecx
00008173  635374            arpl [ebx+0x74],dx
00008176  3470              xor al,0x70
00008178  61                popa
00008179  6972494B636945    imul esi,[edx+0x49],dword 0x4569634b
00008180  53                push ebx
00008181  7431              jz 0x81b4
00008183  305F53            xor [edi+0x53],bl
00008186  656C              gs insb
00008188  6563743173        arpl [gs:ecx+esi+0x73],si
0000818D  7449              jz 0x81d8
0000818F  53                push ebx
00008190  325F45            xor bl,[edi+0x45]
00008193  53                push ebx
00008194  7434              jz 0x81ca
00008196  6C                insb
00008197  657373            gs jnc 0x820d
0000819A  49                dec ecx
0000819B  634553            arpl [ebp+0x53],ax
0000819E  61                popa
0000819F  49                dec ecx
000081A0  53                push ebx
000081A1  325F45            xor bl,[edi+0x45]
000081A4  45                inc ebp
000081A5  3133              xor [ebx],esi
000081A7  5F                pop edi
000081A8  52                push edx
000081A9  625F74            bound ebx,[edi+0x74]
000081AC  7265              jc 0x8213
000081AE  655F              gs pop edi
000081B0  696D706C495336    imul ebp,[ebp+0x70],dword 0x3653496c
000081B7  5F                pop edi
000081B8  4C                dec esp
000081B9  6230              bound esi,[eax]
000081BB  45                inc ebp
000081BC  45                inc ebp
000081BD  44                inc esp
000081BE  314576            xor [ebp+0x76],eax
000081C1  005F5A            add [edi+0x5a],bl
000081C4  4E                dec esi
000081C5  53                push ebx
000081C6  61                popa
000081C7  49                dec ecx
000081C8  53                push ebx
000081C9  7345              jnc 0x8210
000081CB  43                inc ebx
000081CC  314953            xor [ecx+0x53],ecx
000081CF  7431              jz 0x8202
000081D1  335F52            xor ebx,[edi+0x52]
000081D4  625F74            bound ebx,[edi+0x74]
000081D7  7265              jc 0x823e
000081D9  655F              gs pop edi
000081DB  6E                outsb
000081DC  6F                outsd
000081DD  646549            gs dec ecx
000081E0  53                push ebx
000081E1  7345              jnc 0x8228
000081E3  45                inc ebp
000081E4  45                inc ebp
000081E5  52                push edx
000081E6  4B                dec ebx
000081E7  53                push ebx
000081E8  61                popa
000081E9  49                dec ecx
000081EA  54                push esp
000081EB  5F                pop edi
000081EC  45                inc ebp
000081ED  005F5A            add [edi+0x5a],bl
000081F0  4E                dec esi
000081F1  53                push ebx
000081F2  7438              jz 0x822c
000081F4  5F                pop edi
000081F5  52                push edx
000081F6  625F74            bound ebx,[edi+0x74]
000081F9  7265              jc 0x8260
000081FB  6549              gs dec ecx
000081FD  53                push ebx
000081FE  7353              jnc 0x8253
00008200  7353              jnc 0x8255
00008202  7439              jz 0x823d
00008204  5F                pop edi
00008205  49                dec ecx
00008206  64656E            gs outsb
00008209  7469              jz 0x8274
0000820B  7479              jz 0x8286
0000820D  49                dec ecx
0000820E  53                push ebx
0000820F  7345              jnc 0x8256
00008211  53                push ebx
00008212  7434              jz 0x8248
00008214  6C                insb
00008215  657373            gs jnc 0x828b
00008218  49                dec ecx
00008219  53                push ebx
0000821A  7345              jnc 0x8261
0000821C  53                push ebx
0000821D  61                popa
0000821E  49                dec ecx
0000821F  53                push ebx
00008220  7345              jnc 0x8267
00008222  45                inc ebp
00008223  385F53            cmp [edi+0x53],bl
00008226  5F                pop edi
00008227  7661              jna 0x828a
00008229  6C                insb
0000822A  7565              jnz 0x8291
0000822C  45                inc ebp
0000822D  50                push eax
0000822E  4B                dec ebx
0000822F  53                push ebx
00008230  7431              jz 0x8263
00008232  385F52            cmp [edi+0x52],bl
00008235  625F74            bound ebx,[edi+0x74]
00008238  7265              jc 0x829f
0000823A  655F              gs pop edi
0000823C  6E                outsb
0000823D  6F                outsd
0000823E  64655F            gs pop edi
00008241  626173            bound esp,[ecx+0x73]
00008244  65005F5A          add [gs:edi+0x5a],bl
00008248  4E                dec esi
00008249  4B                dec ebx
0000824A  53                push ebx
0000824B  7369              jnc 0x82b6
0000824D  7845              js 0x8294
0000824F  6A40              push byte +0x40
00008251  40                inc eax
00008252  47                inc edi
00008253  4C                dec esp
00008254  49                dec ecx
00008255  42                inc edx
00008256  43                inc ebx
00008257  58                pop eax
00008258  58                pop eax
00008259  5F                pop edi
0000825A  332E              xor ebp,[esi]
0000825C  3400              xor al,0x0
0000825E  5F                pop edi
0000825F  5A                pop edx
00008260  4E                dec esi
00008261  395F5F            cmp [edi+0x5f],ebx
00008264  676E              a16 outsb
00008266  755F              jnz 0x82c7
00008268  637878            arpl [eax+0x78],di
0000826B  3133              xor [ebx],esi
0000826D  6E                outsb
0000826E  65775F            gs ja 0x82d0
00008271  61                popa
00008272  6C                insb
00008273  6C                insb
00008274  6F                outsd
00008275  636174            arpl [ecx+0x74],sp
00008278  6F                outsd
00008279  7249              jc 0x82c4
0000827B  53                push ebx
0000827C  7431              jz 0x82af
0000827E  335F52            xor ebx,[edi+0x52]
00008281  625F74            bound ebx,[edi+0x74]
00008284  7265              jc 0x82eb
00008286  655F              gs pop edi
00008288  6E                outsb
00008289  6F                outsd
0000828A  646549            gs dec ecx
0000828D  53                push ebx
0000828E  7345              jnc 0x82d5
00008290  45                inc ebp
00008291  3130              xor [eax],esi
00008293  646561            gs popa
00008296  6C                insb
00008297  6C                insb
00008298  6F                outsd
00008299  636174            arpl [ecx+0x74],sp
0000829C  6545              gs inc ebp
0000829E  50                push eax
0000829F  53                push ebx
000082A0  325F6A            xor bl,[edi+0x6a]
000082A3  005F5A            add [edi+0x5a],bl
000082A6  4E                dec esi
000082A7  4B                dec ebx
000082A8  53                push ebx
000082A9  7438              jz 0x82e3
000082AB  5F                pop edi
000082AC  52                push edx
000082AD  625F74            bound ebx,[edi+0x74]
000082B0  7265              jc 0x8317
000082B2  6549              gs dec ecx
000082B4  53                push ebx
000082B5  7353              jnc 0x830a
000082B7  7353              jnc 0x830c
000082B9  7439              jz 0x82f4
000082BB  5F                pop edi
000082BC  49                dec ecx
000082BD  64656E            gs outsb
000082C0  7469              jz 0x832b
000082C2  7479              jz 0x833d
000082C4  49                dec ecx
000082C5  53                push ebx
000082C6  7345              jnc 0x830d
000082C8  53                push ebx
000082C9  7434              jz 0x82ff
000082CB  6C                insb
000082CC  657373            gs jnc 0x8342
000082CF  49                dec ecx
000082D0  53                push ebx
000082D1  7345              jnc 0x8318
000082D3  53                push ebx
000082D4  61                popa
000082D5  49                dec ecx
000082D6  53                push ebx
000082D7  7345              jnc 0x831e
000082D9  45                inc ebp
000082DA  33656E            xor esp,[ebp+0x6e]
000082DD  6445              fs inc ebp
000082DF  7600              jna 0x82e1
000082E1  5F                pop edi
000082E2  5A                pop edx
000082E3  4E                dec esi
000082E4  53                push ebx
000082E5  7336              jnc 0x831d
000082E7  61                popa
000082E8  7070              jo 0x835a
000082EA  656E              gs outsb
000082EC  6445              fs inc ebp
000082EE  6A63              push byte +0x63
000082F0  40                inc eax
000082F1  40                inc eax
000082F2  47                inc edi
000082F3  4C                dec esp
000082F4  49                dec ecx
000082F5  42                inc edx
000082F6  43                inc ebx
000082F7  58                pop eax
000082F8  58                pop eax
000082F9  5F                pop edi
000082FA  332E              xor ebp,[esi]
000082FC  3400              xor al,0x0
000082FE  5F                pop edi
000082FF  5A                pop edx
00008300  4E                dec esi
00008301  53                push ebx
00008302  61                popa
00008303  49                dec ecx
00008304  53                push ebx
00008305  7434              jz 0x833b
00008307  7061              jo 0x836a
00008309  6972494B636945    imul esi,[edx+0x49],dword 0x4569634b
00008310  45                inc ebp
00008311  43                inc ebx
00008312  314953            xor [ecx+0x53],ecx
00008315  7431              jz 0x8348
00008317  335F52            xor ebx,[edi+0x52]
0000831A  625F74            bound ebx,[edi+0x74]
0000831D  7265              jc 0x8384
0000831F  655F              gs pop edi
00008321  6E                outsb
00008322  6F                outsd
00008323  646549            gs dec ecx
00008326  53                push ebx
00008327  315F45            xor [edi+0x45],ebx
0000832A  45                inc ebp
0000832B  45                inc ebp
0000832C  52                push edx
0000832D  4B                dec ebx
0000832E  53                push ebx
0000832F  61                popa
00008330  49                dec ecx
00008331  54                push esp
00008332  5F                pop edi
00008333  45                inc ebp
00008334  005F5A            add [edi+0x5a],bl
00008337  4E                dec esi
00008338  53                push ebx
00008339  7438              jz 0x8373
0000833B  5F                pop edi
0000833C  52                push edx
0000833D  625F74            bound ebx,[edi+0x74]
00008340  7265              jc 0x83a7
00008342  6549              gs dec ecx
00008344  53                push ebx
00008345  7353              jnc 0x839a
00008347  7353              jnc 0x839c
00008349  7439              jz 0x8384
0000834B  5F                pop edi
0000834C  49                dec ecx
0000834D  64656E            gs outsb
00008350  7469              jz 0x83bb
00008352  7479              jz 0x83cd
00008354  49                dec ecx
00008355  53                push ebx
00008356  7345              jnc 0x839d
00008358  53                push ebx
00008359  7434              jz 0x838f
0000835B  6C                insb
0000835C  657373            gs jnc 0x83d2
0000835F  49                dec ecx
00008360  53                push ebx
00008361  7345              jnc 0x83a8
00008363  53                push ebx
00008364  61                popa
00008365  49                dec ecx
00008366  53                push ebx
00008367  7345              jnc 0x83ae
00008369  45                inc ebp
0000836A  32345F            xor dh,[edi+ebx*2]
0000836D  4D                dec ebp
0000836E  5F                pop edi
0000836F  6765745F          gs a16 jz 0x83d2
00008373  696E736572745F    imul ebp,[esi+0x73],dword 0x5f747265
0000837A  756E              jnz 0x83ea
0000837C  697175655F706F    imul esi,[ecx+0x75],dword 0x6f705f65
00008383  7345              jnc 0x83ca
00008385  52                push edx
00008386  4B                dec ebx
00008387  53                push ebx
00008388  7300              jnc 0x838a
0000838A  5F                pop edi
0000838B  5A                pop edx
0000838C  4E                dec esi
0000838D  53                push ebx
0000838E  7438              jz 0x83c8
00008390  5F                pop edi
00008391  52                push edx
00008392  625F74            bound ebx,[edi+0x74]
00008395  7265              jc 0x83fc
00008397  6549              gs dec ecx
00008399  635374            arpl [ebx+0x74],dx
0000839C  3470              xor al,0x70
0000839E  61                popa
0000839F  6972494B636945    imul esi,[edx+0x49],dword 0x4569634b
000083A6  53                push ebx
000083A7  7431              jz 0x83da
000083A9  305F53            xor [edi+0x53],bl
000083AC  656C              gs insb
000083AE  6563743173        arpl [gs:ecx+esi+0x73],si
000083B3  7449              jz 0x83fe
000083B5  53                push ebx
000083B6  325F45            xor bl,[edi+0x45]
000083B9  53                push ebx
000083BA  7434              jz 0x83f0
000083BC  6C                insb
000083BD  657373            gs jnc 0x8433
000083C0  49                dec ecx
000083C1  634553            arpl [ebp+0x53],ax
000083C4  61                popa
000083C5  49                dec ecx
000083C6  53                push ebx
000083C7  325F45            xor bl,[edi+0x45]
000083CA  45                inc ebp
000083CB  3131              xor [ecx],esi
000083CD  6C                insb
000083CE  6F                outsd
000083CF  7765              ja 0x8436
000083D1  725F              jc 0x8432
000083D3  626F75            bound ebp,[edi+0x75]
000083D6  6E                outsb
000083D7  6445              fs inc ebp
000083D9  52                push edx
000083DA  53                push ebx
000083DB  315F00            xor [edi+0x0],ebx
000083DE  5F                pop edi
000083DF  5A                pop edx
000083E0  4E                dec esi
000083E1  4B                dec ebx
000083E2  53                push ebx
000083E3  7431              jz 0x8416
000083E5  37                aaa
000083E6  5F                pop edi
000083E7  52                push edx
000083E8  625F74            bound ebx,[edi+0x74]
000083EB  7265              jc 0x8452
000083ED  655F              gs pop edi
000083EF  6974657261746F72  imul esi,[ebp+0x72],dword 0x726f7461
000083F7  49                dec ecx
000083F8  53                push ebx
000083F9  7434              jz 0x842f
000083FB  7061              jo 0x845e
000083FD  6972494B636945    imul esi,[edx+0x49],dword 0x4569634b
00008404  45                inc ebp
00008405  7074              jo 0x847b
00008407  45                inc ebp
00008408  7600              jna 0x840a
0000840A  5F                pop edi
0000840B  5A                pop edx
0000840C  53                push ebx
0000840D  7431              jz 0x8440
0000840F  385F52            cmp [edi+0x52],bl
00008412  625F74            bound ebx,[edi+0x74]
00008415  7265              jc 0x847c
00008417  655F              gs pop edi
00008419  696E6372656D65    imul ebp,[esi+0x63],dword 0x656d6572
00008420  6E                outsb
00008421  7450              jz 0x8473
00008423  4B                dec ebx
00008424  53                push ebx
00008425  7431              jz 0x8458
00008427  385F52            cmp [edi+0x52],bl
0000842A  625F74            bound ebx,[edi+0x74]
0000842D  7265              jc 0x8494
0000842F  655F              gs pop edi
00008431  6E                outsb
00008432  6F                outsd
00008433  64655F            gs pop edi
00008436  626173            bound esp,[ecx+0x73]
00008439  6540              gs inc eax
0000843B  40                inc eax
0000843C  47                inc edi
0000843D  4C                dec esp
0000843E  49                dec ecx
0000843F  42                inc edx
00008440  43                inc ebx
00008441  58                pop eax
00008442  58                pop eax
00008443  5F                pop edi
00008444  332E              xor ebp,[esi]
00008446  3400              xor al,0x0
00008448  5F                pop edi
00008449  5A                pop edx
0000844A  4E                dec esi
0000844B  53                push ebx
0000844C  61                popa
0000844D  49                dec ecx
0000844E  53                push ebx
0000844F  7345              jnc 0x8496
00008451  44                inc esp
00008452  324576            xor al,[ebp+0x76]
00008455  005F5A            add [edi+0x5a],bl
00008458  4E                dec esi
00008459  53                push ebx
0000845A  7438              jz 0x8494
0000845C  5F                pop edi
0000845D  52                push edx
0000845E  625F74            bound ebx,[edi+0x74]
00008461  7265              jc 0x84c8
00008463  6549              gs dec ecx
00008465  635374            arpl [ebx+0x74],dx
00008468  3470              xor al,0x70
0000846A  61                popa
0000846B  6972494B636945    imul esi,[edx+0x49],dword 0x4569634b
00008472  53                push ebx
00008473  7431              jz 0x84a6
00008475  305F53            xor [edi+0x53],bl
00008478  656C              gs insb
0000847A  6563743173        arpl [gs:ecx+esi+0x73],si
0000847F  7449              jz 0x84ca
00008481  53                push ebx
00008482  325F45            xor bl,[edi+0x45]
00008485  53                push ebx
00008486  7434              jz 0x84bc
00008488  6C                insb
00008489  657373            gs jnc 0x84ff
0000848C  49                dec ecx
0000848D  634553            arpl [ebp+0x53],ax
00008490  61                popa
00008491  49                dec ecx
00008492  53                push ebx
00008493  325F45            xor bl,[edi+0x45]
00008496  45                inc ebp
00008497  385F53            cmp [edi+0x53],bl
0000849A  5F                pop edi
0000849B  7661              jna 0x84fe
0000849D  6C                insb
0000849E  7565              jnz 0x8505
000084A0  45                inc ebp
000084A1  50                push eax
000084A2  4B                dec ebx
000084A3  53                push ebx
000084A4  7431              jz 0x84d7
000084A6  385F52            cmp [edi+0x52],bl
000084A9  625F74            bound ebx,[edi+0x74]
000084AC  7265              jc 0x8513
000084AE  655F              gs pop edi
000084B0  6E                outsb
000084B1  6F                outsd
000084B2  64655F            gs pop edi
000084B5  626173            bound esp,[ecx+0x73]
000084B8  65005F5F          add [gs:edi+0x5f],bl
000084BC  54                push esp
000084BD  4D                dec ebp
000084BE  43                inc ebx
000084BF  5F                pop edi
000084C0  45                inc ebp
000084C1  4E                dec esi
000084C2  44                inc esp
000084C3  5F                pop edi
000084C4  5F                pop edi
000084C5  005F5A            add [edi+0x5a],bl
000084C8  4E                dec esi
000084C9  53                push ebx
000084CA  7433              jz 0x84ff
000084CC  6D                insd
000084CD  61                popa
000084CE  7049              jo 0x8519
000084D0  636953            arpl [ecx+0x53],bp
000084D3  7434              jz 0x8509
000084D5  6C                insb
000084D6  657373            gs jnc 0x854c
000084D9  49                dec ecx
000084DA  634553            arpl [ebp+0x53],ax
000084DD  61                popa
000084DE  49                dec ecx
000084DF  53                push ebx
000084E0  7434              jz 0x8516
000084E2  7061              jo 0x8545
000084E4  6972494B636945    imul esi,[edx+0x49],dword 0x4569634b
000084EB  45                inc ebp
000084EC  45                inc ebp
000084ED  44                inc esp
000084EE  314576            xor [ebp+0x76],eax
000084F1  005F5A            add [edi+0x5a],bl
000084F4  4E                dec esi
000084F5  53                push ebx
000084F6  7433              jz 0x852b
000084F8  6D                insd
000084F9  61                popa
000084FA  7049              jo 0x8545
000084FC  636953            arpl [ecx+0x53],bp
000084FF  7434              jz 0x8535
00008501  6C                insb
00008502  657373            gs jnc 0x8578
00008505  49                dec ecx
00008506  634553            arpl [ebp+0x53],ax
00008509  61                popa
0000850A  49                dec ecx
0000850B  53                push ebx
0000850C  7434              jz 0x8542
0000850E  7061              jo 0x8571
00008510  6972494B636945    imul esi,[edx+0x49],dword 0x4569634b
00008517  45                inc ebp
00008518  45                inc ebp
00008519  43                inc ebx
0000851A  324576            xor al,[ebp+0x76]
0000851D  005F5A            add [edi+0x5a],bl
00008520  4E                dec esi
00008521  53                push ebx
00008522  7431              jz 0x8555
00008524  3462              xor al,0x62
00008526  61                popa
00008527  7369              jnc 0x8592
00008529  635F69            arpl [edi+0x69],bx
0000852C  667374            o16 jnc 0x85a3
0000852F  7265              jc 0x8596
00008531  61                popa
00008532  6D                insd
00008533  49                dec ecx
00008534  635374            arpl [ebx+0x74],dx
00008537  3131              xor [ecx],esi
00008539  636861            arpl [eax+0x61],bp
0000853C  725F              jc 0x859d
0000853E  7472              jz 0x85b2
00008540  61                popa
00008541  6974734963454544  imul esi,[ebx+esi*2+0x49],dword 0x44454563
00008549  314576            xor [ebp+0x76],eax
0000854C  40                inc eax
0000854D  40                inc eax
0000854E  47                inc edi
0000854F  4C                dec esp
00008550  49                dec ecx
00008551  42                inc edx
00008552  43                inc ebx
00008553  58                pop eax
00008554  58                pop eax
00008555  5F                pop edi
00008556  332E              xor ebp,[esi]
00008558  3400              xor al,0x0
0000855A  5F                pop edi
0000855B  5A                pop edx
0000855C  4E                dec esi
0000855D  4B                dec ebx
0000855E  53                push ebx
0000855F  7431              jz 0x8592
00008561  37                aaa
00008562  5F                pop edi
00008563  52                push edx
00008564  625F74            bound ebx,[edi+0x74]
00008567  7265              jc 0x85ce
00008569  655F              gs pop edi
0000856B  6974657261746F72  imul esi,[ebp+0x72],dword 0x726f7461
00008573  49                dec ecx
00008574  53                push ebx
00008575  7434              jz 0x85ab
00008577  7061              jo 0x85da
00008579  6972494B636945    imul esi,[edx+0x49],dword 0x4569634b
00008580  45                inc ebp
00008581  6E                outsb
00008582  6545              gs inc ebp
00008584  52                push edx
00008585  4B                dec ebx
00008586  53                push ebx
00008587  335F00            xor ebx,[edi+0x0]
0000858A  5F                pop edi
0000858B  5A                pop edx
0000858C  4E                dec esi
0000858D  53                push ebx
0000858E  7438              jz 0x85c8
00008590  5F                pop edi
00008591  52                push edx
00008592  625F74            bound ebx,[edi+0x74]
00008595  7265              jc 0x85fc
00008597  6549              gs dec ecx
00008599  635374            arpl [ebx+0x74],dx
0000859C  3470              xor al,0x70
0000859E  61                popa
0000859F  6972494B636945    imul esi,[edx+0x49],dword 0x4569634b
000085A6  53                push ebx
000085A7  7431              jz 0x85da
000085A9  305F53            xor [edi+0x53],bl
000085AC  656C              gs insb
000085AE  6563743173        arpl [gs:ecx+esi+0x73],si
000085B3  7449              jz 0x85fe
000085B5  53                push ebx
000085B6  325F45            xor bl,[edi+0x45]
000085B9  53                push ebx
000085BA  7434              jz 0x85f0
000085BC  6C                insb
000085BD  657373            gs jnc 0x8633
000085C0  49                dec ecx
000085C1  634553            arpl [ebp+0x53],ax
000085C4  61                popa
000085C5  49                dec ecx
000085C6  53                push ebx
000085C7  325F45            xor bl,[edi+0x45]
000085CA  45                inc ebp
000085CB  33656E            xor esp,[ebp+0x6e]
000085CE  6445              fs inc ebp
000085D0  7600              jna 0x85d2
000085D2  5F                pop edi
000085D3  5F                pop edi
000085D4  64736F            fs jnc 0x8646
000085D7  5F                pop edi
000085D8  68616E646C        push dword 0x6c646e61
000085DD  65005F5A          add [gs:edi+0x5a],bl
000085E1  4E                dec esi
000085E2  4B                dec ebx
000085E3  53                push ebx
000085E4  7438              jz 0x861e
000085E6  5F                pop edi
000085E7  52                push edx
000085E8  625F74            bound ebx,[edi+0x74]
000085EB  7265              jc 0x8652
000085ED  6549              gs dec ecx
000085EF  53                push ebx
000085F0  7353              jnc 0x8645
000085F2  7353              jnc 0x8647
000085F4  7439              jz 0x862f
000085F6  5F                pop edi
000085F7  49                dec ecx
000085F8  64656E            gs outsb
000085FB  7469              jz 0x8666
000085FD  7479              jz 0x8678
000085FF  49                dec ecx
00008600  53                push ebx
00008601  7345              jnc 0x8648
00008603  53                push ebx
00008604  7434              jz 0x863a
00008606  6C                insb
00008607  657373            gs jnc 0x867d
0000860A  49                dec ecx
0000860B  53                push ebx
0000860C  7345              jnc 0x8653
0000860E  53                push ebx
0000860F  61                popa
00008610  49                dec ecx
00008611  53                push ebx
00008612  7345              jnc 0x8659
00008614  45                inc ebp
00008615  3473              xor al,0x73
00008617  697A654576005F    imul edi,[edx+0x65],dword 0x5f007645
0000861E  5A                pop edx
0000861F  4E                dec esi
00008620  53                push ebx
00008621  7431              jz 0x8654
00008623  37                aaa
00008624  5F                pop edi
00008625  52                push edx
00008626  625F74            bound ebx,[edi+0x74]
00008629  7265              jc 0x8690
0000862B  655F              gs pop edi
0000862D  6974657261746F72  imul esi,[ebp+0x72],dword 0x726f7461
00008635  49                dec ecx
00008636  53                push ebx
00008637  7434              jz 0x866d
00008639  7061              jo 0x869c
0000863B  6972494B636945    imul esi,[edx+0x49],dword 0x4569634b
00008642  45                inc ebp
00008643  43                inc ebx
00008644  324550            xor al,[ebp+0x50]
00008647  53                push ebx
00008648  7431              jz 0x867b
0000864A  335F52            xor ebx,[edi+0x52]
0000864D  625F74            bound ebx,[edi+0x74]
00008650  7265              jc 0x86b7
00008652  655F              gs pop edi
00008654  6E                outsb
00008655  6F                outsd
00008656  646549            gs dec ecx
00008659  53                push ebx
0000865A  325F45            xor bl,[edi+0x45]
0000865D  005F5A            add [edi+0x5a],bl
00008660  4E                dec esi
00008661  53                push ebx
00008662  7431              jz 0x8695
00008664  37                aaa
00008665  5F                pop edi
00008666  52                push edx
00008667  625F74            bound ebx,[edi+0x74]
0000866A  7265              jc 0x86d1
0000866C  655F              gs pop edi
0000866E  6974657261746F72  imul esi,[ebp+0x72],dword 0x726f7461
00008676  49                dec ecx
00008677  53                push ebx
00008678  7434              jz 0x86ae
0000867A  7061              jo 0x86dd
0000867C  6972494B636945    imul esi,[edx+0x49],dword 0x4569634b
00008683  45                inc ebp
00008684  7070              jo 0x86f6
00008686  45                inc ebp
00008687  7600              jna 0x8689
00008689  5F                pop edi
0000868A  5A                pop edx
0000868B  4E                dec esi
0000868C  53                push ebx
0000868D  7438              jz 0x86c7
0000868F  5F                pop edi
00008690  52                push edx
00008691  625F74            bound ebx,[edi+0x74]
00008694  7265              jc 0x86fb
00008696  6549              gs dec ecx
00008698  635374            arpl [ebx+0x74],dx
0000869B  3470              xor al,0x70
0000869D  61                popa
0000869E  6972494B636945    imul esi,[edx+0x49],dword 0x4569634b
000086A5  53                push ebx
000086A6  7431              jz 0x86d9
000086A8  305F53            xor [edi+0x53],bl
000086AB  656C              gs insb
000086AD  6563743173        arpl [gs:ecx+esi+0x73],si
000086B2  7449              jz 0x86fd
000086B4  53                push ebx
000086B5  325F45            xor bl,[edi+0x45]
000086B8  53                push ebx
000086B9  7434              jz 0x86ef
000086BB  6C                insb
000086BC  657373            gs jnc 0x8732
000086BF  49                dec ecx
000086C0  634553            arpl [ebp+0x53],ax
000086C3  61                popa
000086C4  49                dec ecx
000086C5  53                push ebx
000086C6  325F45            xor bl,[edi+0x45]
000086C9  45                inc ebp
000086CA  385F4D            cmp [edi+0x4d],bl
000086CD  5F                pop edi
000086CE  626567            bound esp,[ebp+0x67]
000086D1  696E4576005F5F    imul ebp,[esi+0x45],dword 0x5f5f0076
000086D8  44                inc esp
000086D9  54                push esp
000086DA  4F                dec edi
000086DB  52                push edx
000086DC  5F                pop edi
000086DD  45                inc ebp
000086DE  4E                dec esi
000086DF  44                inc esp
000086E0  5F                pop edi
000086E1  5F                pop edi
000086E2  005F5F            add [edi+0x5f],bl
000086E5  6C                insb
000086E6  6962635F637375    imul esp,[edx+0x63],dword 0x7573635f
000086ED  5F                pop edi
000086EE  696E6974005F5A    imul ebp,[esi+0x69],dword 0x5a5f0074
000086F5  4E                dec esi
000086F6  53                push ebx
000086F7  7431              jz 0x872a
000086F9  3462              xor al,0x62
000086FB  61                popa
000086FC  7369              jnc 0x8767
000086FE  635F6F            arpl [edi+0x6f],bx
00008701  667374            o16 jnc 0x8778
00008704  7265              jc 0x876b
00008706  61                popa
00008707  6D                insd
00008708  49                dec ecx
00008709  635374            arpl [ebx+0x74],dx
0000870C  3131              xor [ecx],esi
0000870E  636861            arpl [eax+0x61],bp
00008711  725F              jc 0x8772
00008713  7472              jz 0x8787
00008715  61                popa
00008716  6974734963454544  imul esi,[ebx+esi*2+0x49],dword 0x44454563
0000871E  314576            xor [ebp+0x76],eax
00008721  40                inc eax
00008722  40                inc eax
00008723  47                inc edi
00008724  4C                dec esp
00008725  49                dec ecx
00008726  42                inc edx
00008727  43                inc ebx
00008728  58                pop eax
00008729  58                pop eax
0000872A  5F                pop edi
0000872B  332E              xor ebp,[esi]
0000872D  3400              xor al,0x0
0000872F  5F                pop edi
00008730  5A                pop edx
00008731  4E                dec esi
00008732  53                push ebx
00008733  7438              jz 0x876d
00008735  5F                pop edi
00008736  52                push edx
00008737  625F74            bound ebx,[edi+0x74]
0000873A  7265              jc 0x87a1
0000873C  6549              gs dec ecx
0000873E  635374            arpl [ebx+0x74],dx
00008741  3470              xor al,0x70
00008743  61                popa
00008744  6972494B636945    imul esi,[edx+0x49],dword 0x4569634b
0000874B  53                push ebx
0000874C  7431              jz 0x877f
0000874E  305F53            xor [edi+0x53],bl
00008751  656C              gs insb
00008753  6563743173        arpl [gs:ecx+esi+0x73],si
00008758  7449              jz 0x87a3
0000875A  53                push ebx
0000875B  325F45            xor bl,[edi+0x45]
0000875E  53                push ebx
0000875F  7434              jz 0x8795
00008761  6C                insb
00008762  657373            gs jnc 0x87d8
00008765  49                dec ecx
00008766  634553            arpl [ebp+0x53],ax
00008769  61                popa
0000876A  49                dec ecx
0000876B  53                push ebx
0000876C  325F45            xor bl,[edi+0x45]
0000876F  45                inc ebp
00008770  3130              xor [eax],esi
00008772  5F                pop edi
00008773  4D                dec ebp
00008774  5F                pop edi
00008775  696E736572745F    imul ebp,[esi+0x73],dword 0x5f747265
0000877C  45                inc ebp
0000877D  50                push eax
0000877E  53                push ebx
0000877F  7431              jz 0x87b2
00008781  385F52            cmp [edi+0x52],bl
00008784  625F74            bound ebx,[edi+0x74]
00008787  7265              jc 0x87ee
00008789  655F              gs pop edi
0000878B  6E                outsb
0000878C  6F                outsd
0000878D  64655F            gs pop edi
00008790  626173            bound esp,[ecx+0x73]
00008793  6553              gs push ebx
00008795  41                inc ecx
00008796  5F                pop edi
00008797  52                push edx
00008798  4B                dec ebx
00008799  53                push ebx
0000879A  325F00            xor bl,[edi+0x0]
0000879D  5F                pop edi
0000879E  5A                pop edx
0000879F  4E                dec esi
000087A0  4B                dec ebx
000087A1  53                push ebx
000087A2  7431              jz 0x87d5
000087A4  305F53            xor [edi+0x53],bl
000087A7  656C              gs insb
000087A9  6563743173        arpl [gs:ecx+esi+0x73],si
000087AE  7449              jz 0x87f9
000087B0  53                push ebx
000087B1  7434              jz 0x87e7
000087B3  7061              jo 0x8816
000087B5  6972494B636945    imul esi,[edx+0x49],dword 0x4569634b
000087BC  45                inc ebp
000087BD  636C4552          arpl [ebp+eax*2+0x52],bp
000087C1  4B                dec ebx
000087C2  53                push ebx
000087C3  325F00            xor bl,[edi+0x0]
000087C6  5F                pop edi
000087C7  5A                pop edx
000087C8  4E                dec esi
000087C9  53                push ebx
000087CA  7438              jz 0x8804
000087CC  5F                pop edi
000087CD  52                push edx
000087CE  625F74            bound ebx,[edi+0x74]
000087D1  7265              jc 0x8838
000087D3  6549              gs dec ecx
000087D5  635374            arpl [ebx+0x74],dx
000087D8  3470              xor al,0x70
000087DA  61                popa
000087DB  6972494B636945    imul esi,[edx+0x49],dword 0x4569634b
000087E2  53                push ebx
000087E3  7431              jz 0x8816
000087E5  305F53            xor [edi+0x53],bl
000087E8  656C              gs insb
000087EA  6563743173        arpl [gs:ecx+esi+0x73],si
000087EF  7449              jz 0x883a
000087F1  53                push ebx
000087F2  325F45            xor bl,[edi+0x45]
000087F5  53                push ebx
000087F6  7434              jz 0x882c
000087F8  6C                insb
000087F9  657373            gs jnc 0x886f
000087FC  49                dec ecx
000087FD  634553            arpl [ebp+0x53],ax
00008800  61                popa
00008801  49                dec ecx
00008802  53                push ebx
00008803  325F45            xor bl,[edi+0x45]
00008806  45                inc ebp
00008807  31345F            xor [edi+ebx*2],esi
0000880A  4D                dec ebp
0000880B  5F                pop edi
0000880C  6C                insb
0000880D  6F                outsd
0000880E  7765              ja 0x8875
00008810  725F              jc 0x8871
00008812  626F75            bound ebp,[edi+0x75]
00008815  6E                outsb
00008816  6445              fs inc ebp
00008818  50                push eax
00008819  53                push ebx
0000881A  7431              jz 0x884d
0000881C  335F52            xor ebx,[edi+0x52]
0000881F  625F74            bound ebx,[edi+0x74]
00008822  7265              jc 0x8889
00008824  655F              gs pop edi
00008826  6E                outsb
00008827  6F                outsd
00008828  646549            gs dec ecx
0000882B  53                push ebx
0000882C  325F45            xor bl,[edi+0x45]
0000882F  53                push ebx
00008830  42                inc edx
00008831  5F                pop edi
00008832  52                push edx
00008833  53                push ebx
00008834  315F00            xor [edi+0x0],ebx
00008837  5F                pop edi
00008838  5A                pop edx
00008839  4E                dec esi
0000883A  53                push ebx
0000883B  7438              jz 0x8875
0000883D  5F                pop edi
0000883E  52                push edx
0000883F  625F74            bound ebx,[edi+0x74]
00008842  7265              jc 0x88a9
00008844  6549              gs dec ecx
00008846  635374            arpl [ebx+0x74],dx
00008849  3470              xor al,0x70
0000884B  61                popa
0000884C  6972494B636945    imul esi,[edx+0x49],dword 0x4569634b
00008853  53                push ebx
00008854  7431              jz 0x8887
00008856  305F53            xor [edi+0x53],bl
00008859  656C              gs insb
0000885B  6563743173        arpl [gs:ecx+esi+0x73],si
00008860  7449              jz 0x88ab
00008862  53                push ebx
00008863  325F45            xor bl,[edi+0x45]
00008866  53                push ebx
00008867  7434              jz 0x889d
00008869  6C                insb
0000886A  657373            gs jnc 0x88e0
0000886D  49                dec ecx
0000886E  634553            arpl [ebp+0x53],ax
00008871  61                popa
00008872  49                dec ecx
00008873  53                push ebx
00008874  325F45            xor bl,[edi+0x45]
00008877  45                inc ebp
00008878  32345F            xor dh,[edi+ebx*2]
0000887B  4D                dec ebp
0000887C  5F                pop edi
0000887D  6765745F          gs a16 jz 0x88e0
00008881  696E736572745F    imul ebp,[esi+0x73],dword 0x5f747265
00008888  756E              jnz 0x88f8
0000888A  697175655F706F    imul esi,[ecx+0x75],dword 0x6f705f65
00008891  7345              jnc 0x88d8
00008893  52                push edx
00008894  53                push ebx
00008895  315F00            xor [edi+0x0],ebx
00008898  5F                pop edi
00008899  5A                pop edx
0000889A  4E                dec esi
0000889B  4B                dec ebx
0000889C  53                push ebx
0000889D  7438              jz 0x88d7
0000889F  5F                pop edi
000088A0  52                push edx
000088A1  625F74            bound ebx,[edi+0x74]
000088A4  7265              jc 0x890b
000088A6  6549              gs dec ecx
000088A8  53                push ebx
000088A9  7353              jnc 0x88fe
000088AB  7353              jnc 0x8900
000088AD  7439              jz 0x88e8
000088AF  5F                pop edi
000088B0  49                dec ecx
000088B1  64656E            gs outsb
000088B4  7469              jz 0x891f
000088B6  7479              jz 0x8931
000088B8  49                dec ecx
000088B9  53                push ebx
000088BA  7345              jnc 0x8901
000088BC  53                push ebx
000088BD  7434              jz 0x88f3
000088BF  6C                insb
000088C0  657373            gs jnc 0x8936
000088C3  49                dec ecx
000088C4  53                push ebx
000088C5  7345              jnc 0x890c
000088C7  53                push ebx
000088C8  61                popa
000088C9  49                dec ecx
000088CA  53                push ebx
000088CB  7345              jnc 0x8912
000088CD  45                inc ebp
000088CE  3133              xor [ebx],esi
000088D0  6765745F          gs a16 jz 0x8933
000088D4  61                popa
000088D5  6C                insb
000088D6  6C                insb
000088D7  6F                outsd
000088D8  636174            arpl [ecx+0x74],sp
000088DB  6F                outsd
000088DC  7245              jc 0x8923
000088DE  7600              jna 0x88e0
000088E0  5F                pop edi
000088E1  5A                pop edx
000088E2  4E                dec esi
000088E3  53                push ebx
000088E4  7438              jz 0x891e
000088E6  5F                pop edi
000088E7  52                push edx
000088E8  625F74            bound ebx,[edi+0x74]
000088EB  7265              jc 0x8952
000088ED  6549              gs dec ecx
000088EF  53                push ebx
000088F0  7353              jnc 0x8945
000088F2  7353              jnc 0x8947
000088F4  7439              jz 0x892f
000088F6  5F                pop edi
000088F7  49                dec ecx
000088F8  64656E            gs outsb
000088FB  7469              jz 0x8966
000088FD  7479              jz 0x8978
000088FF  49                dec ecx
00008900  53                push ebx
00008901  7345              jnc 0x8948
00008903  53                push ebx
00008904  7434              jz 0x893a
00008906  6C                insb
00008907  657373            gs jnc 0x897d
0000890A  49                dec ecx
0000890B  53                push ebx
0000890C  7345              jnc 0x8953
0000890E  53                push ebx
0000890F  61                popa
00008910  49                dec ecx
00008911  53                push ebx
00008912  7345              jnc 0x8959
00008914  45                inc ebp
00008915  365F              ss pop edi
00008917  53                push ebx
00008918  5F                pop edi
00008919  6B657945          imul esp,[ebp+0x79],byte +0x45
0000891D  50                push eax
0000891E  4B                dec ebx
0000891F  53                push ebx
00008920  7431              jz 0x8953
00008922  335F52            xor ebx,[edi+0x52]
00008925  625F74            bound ebx,[edi+0x74]
00008928  7265              jc 0x898f
0000892A  655F              gs pop edi
0000892C  6E                outsb
0000892D  6F                outsd
0000892E  646549            gs dec ecx
00008931  53                push ebx
00008932  7345              jnc 0x8979
00008934  005F5A            add [edi+0x5a],bl
00008937  4E                dec esi
00008938  53                push ebx
00008939  7438              jz 0x8973
0000893B  5F                pop edi
0000893C  52                push edx
0000893D  625F74            bound ebx,[edi+0x74]
00008940  7265              jc 0x89a7
00008942  6549              gs dec ecx
00008944  53                push ebx
00008945  7353              jnc 0x899a
00008947  7353              jnc 0x899c
00008949  7439              jz 0x8984
0000894B  5F                pop edi
0000894C  49                dec ecx
0000894D  64656E            gs outsb
00008950  7469              jz 0x89bb
00008952  7479              jz 0x89cd
00008954  49                dec ecx
00008955  53                push ebx
00008956  7345              jnc 0x899d
00008958  53                push ebx
00008959  7434              jz 0x898f
0000895B  6C                insb
0000895C  657373            gs jnc 0x89d2
0000895F  49                dec ecx
00008960  53                push ebx
00008961  7345              jnc 0x89a8
00008963  53                push ebx
00008964  61                popa
00008965  49                dec ecx
00008966  53                push ebx
00008967  7345              jnc 0x89ae
00008969  45                inc ebp
0000896A  365F              ss pop edi
0000896C  53                push ebx
0000896D  5F                pop edi
0000896E  6B657945          imul esp,[ebp+0x79],byte +0x45
00008972  50                push eax
00008973  4B                dec ebx
00008974  53                push ebx
00008975  7431              jz 0x89a8
00008977  385F52            cmp [edi+0x52],bl
0000897A  625F74            bound ebx,[edi+0x74]
0000897D  7265              jc 0x89e4
0000897F  655F              gs pop edi
00008981  6E                outsb
00008982  6F                outsd
00008983  64655F            gs pop edi
00008986  626173            bound esp,[ecx+0x73]
00008989  65005F5A          add [gs:edi+0x5a],bl
0000898D  4E                dec esi
0000898E  4B                dec ebx
0000898F  53                push ebx
00008990  7431              jz 0x89c3
00008992  37                aaa
00008993  5F                pop edi
00008994  52                push edx
00008995  625F74            bound ebx,[edi+0x74]
00008998  7265              jc 0x89ff
0000899A  655F              gs pop edi
0000899C  6974657261746F72  imul esi,[ebp+0x72],dword 0x726f7461
000089A4  49                dec ecx
000089A5  53                push ebx
000089A6  7434              jz 0x89dc
000089A8  7061              jo 0x8a0b
000089AA  6972494B636945    imul esi,[edx+0x49],dword 0x4569634b
000089B1  45                inc ebp
000089B2  657145            gs jno 0x89fa
000089B5  52                push edx
000089B6  4B                dec ebx
000089B7  53                push ebx
000089B8  335F00            xor ebx,[edi+0x0]
000089BB  5F                pop edi
000089BC  5A                pop edx
000089BD  4E                dec esi
000089BE  53                push ebx
000089BF  6F                outsd
000089C0  6C                insb
000089C1  7345              jnc 0x8a08
000089C3  6A40              push byte +0x40
000089C5  40                inc eax
000089C6  47                inc edi
000089C7  4C                dec esp
000089C8  49                dec ecx
000089C9  42                inc edx
000089CA  43                inc ebx
000089CB  58                pop eax
000089CC  58                pop eax
000089CD  5F                pop edi
000089CE  332E              xor ebp,[esi]
000089D0  3400              xor al,0x0
000089D2  5F                pop edi
000089D3  5A                pop edx
000089D4  4E                dec esi
000089D5  395F5F            cmp [edi+0x5f],ebx
000089D8  676E              a16 outsb
000089DA  755F              jnz 0x8a3b
000089DC  637878            arpl [eax+0x78],di
000089DF  3133              xor [ebx],esi
000089E1  6E                outsb
000089E2  65775F            gs ja 0x8a44
000089E5  61                popa
000089E6  6C                insb
000089E7  6C                insb
000089E8  6F                outsd
000089E9  636174            arpl [ecx+0x74],sp
000089EC  6F                outsd
000089ED  7249              jc 0x8a38
000089EF  53                push ebx
000089F0  7434              jz 0x8a26
000089F2  7061              jo 0x8a55
000089F4  6972494B636945    imul esi,[edx+0x49],dword 0x4569634b
000089FB  45                inc ebp
000089FC  39636F            cmp [ebx+0x6f],esp
000089FF  6E                outsb
00008A00  7374              jnc 0x8a76
00008A02  7275              jc 0x8a79
00008A04  63744550          arpl [ebp+eax*2+0x50],si
00008A08  53                push ebx
00008A09  335F52            xor ebx,[edi+0x52]
00008A0C  4B                dec ebx
00008A0D  53                push ebx
00008A0E  335F00            xor ebx,[edi+0x0]
00008A11  5F                pop edi
00008A12  5A                pop edx
00008A13  4E                dec esi
00008A14  53                push ebx
00008A15  7432              jz 0x8a49
00008A17  335F52            xor ebx,[edi+0x52]
00008A1A  625F74            bound ebx,[edi+0x74]
00008A1D  7265              jc 0x8a84
00008A1F  655F              gs pop edi
00008A21  636F6E            arpl [edi+0x6e],bp
00008A24  7374              jnc 0x8a9a
00008A26  5F                pop edi
00008A27  6974657261746F72  imul esi,[ebp+0x72],dword 0x726f7461
00008A2F  49                dec ecx
00008A30  53                push ebx
00008A31  7345              jnc 0x8a78
00008A33  43                inc ebx
00008A34  324550            xor al,[ebp+0x50]
00008A37  4B                dec ebx
00008A38  53                push ebx
00008A39  7431              jz 0x8a6c
00008A3B  335F52            xor ebx,[edi+0x52]
00008A3E  625F74            bound ebx,[edi+0x74]
00008A41  7265              jc 0x8aa8
00008A43  655F              gs pop edi
00008A45  6E                outsb
00008A46  6F                outsd
00008A47  646549            gs dec ecx
00008A4A  53                push ebx
00008A4B  7345              jnc 0x8a92
00008A4D  005F5A            add [edi+0x5a],bl
00008A50  53                push ebx
00008A51  746C              jz 0x8abf
00008A53  7449              jz 0x8a9e
00008A55  635374            arpl [ebx+0x74],dx
00008A58  3131              xor [ecx],esi
00008A5A  636861            arpl [eax+0x61],bp
00008A5D  725F              jc 0x8abe
00008A5F  7472              jz 0x8ad3
00008A61  61                popa
00008A62  6974734963455361  imul esi,[ebx+esi*2+0x49],dword 0x61534563
00008A6A  49                dec ecx
00008A6B  634545            arpl [ebp+0x45],ax
00008A6E  62524B            bound edx,[edx+0x4b]
00008A71  53                push ebx
00008A72  624954            bound ecx,[ecx+0x54]
00008A75  5F                pop edi
00008A76  54                push esp
00008A77  305F54            xor [edi+0x54],bl
00008A7A  315F45            xor [edi+0x45],ebx
00008A7D  53                push ebx
00008A7E  385F00            cmp [edi+0x0],bl
00008A81  5F                pop edi
00008A82  5A                pop edx
00008A83  6E                outsb
00008A84  776A              ja 0x8af0
00008A86  40                inc eax
00008A87  40                inc eax
00008A88  47                inc edi
00008A89  4C                dec esp
00008A8A  49                dec ecx
00008A8B  42                inc edx
00008A8C  43                inc ebx
00008A8D  58                pop eax
00008A8E  58                pop eax
00008A8F  5F                pop edi
00008A90  332E              xor ebp,[esi]
00008A92  3400              xor al,0x0
00008A94  5F                pop edi
00008A95  5A                pop edx
00008A96  4E                dec esi
00008A97  53                push ebx
00008A98  7432              jz 0x8acc
00008A9A  335F52            xor ebx,[edi+0x52]
00008A9D  625F74            bound ebx,[edi+0x74]
00008AA0  7265              jc 0x8b07
00008AA2  655F              gs pop edi
00008AA4  636F6E            arpl [edi+0x6e],bp
00008AA7  7374              jnc 0x8b1d
00008AA9  5F                pop edi
00008AAA  6974657261746F72  imul esi,[ebp+0x72],dword 0x726f7461
00008AB2  49                dec ecx
00008AB3  53                push ebx
00008AB4  7434              jz 0x8aea
00008AB6  7061              jo 0x8b19
00008AB8  6972494B636945    imul esi,[edx+0x49],dword 0x4569634b
00008ABF  45                inc ebp
00008AC0  43                inc ebx
00008AC1  324552            xor al,[ebp+0x52]
00008AC4  4B                dec ebx
00008AC5  53                push ebx
00008AC6  7431              jz 0x8af9
00008AC8  37                aaa
00008AC9  5F                pop edi
00008ACA  52                push edx
00008ACB  625F74            bound ebx,[edi+0x74]
00008ACE  7265              jc 0x8b35
00008AD0  655F              gs pop edi
00008AD2  6974657261746F72  imul esi,[ebp+0x72],dword 0x726f7461
00008ADA  49                dec ecx
00008ADB  53                push ebx
00008ADC  325F45            xor bl,[edi+0x45]
00008ADF  005F5A            add [edi+0x5a],bl
00008AE2  4E                dec esi
00008AE3  53                push ebx
00008AE4  61                popa
00008AE5  49                dec ecx
00008AE6  53                push ebx
00008AE7  7431              jz 0x8b1a
00008AE9  335F52            xor ebx,[edi+0x52]
00008AEC  625F74            bound ebx,[edi+0x74]
00008AEF  7265              jc 0x8b56
00008AF1  655F              gs pop edi
00008AF3  6E                outsb
00008AF4  6F                outsd
00008AF5  646549            gs dec ecx
00008AF8  53                push ebx
00008AF9  7345              jnc 0x8b40
00008AFB  45                inc ebp
00008AFC  43                inc ebx
00008AFD  314576            xor [ebp+0x76],eax
00008B00  005F5A            add [edi+0x5a],bl
00008B03  4E                dec esi
00008B04  4B                dec ebx
00008B05  53                push ebx
00008B06  7438              jz 0x8b40
00008B08  5F                pop edi
00008B09  52                push edx
00008B0A  625F74            bound ebx,[edi+0x74]
00008B0D  7265              jc 0x8b74
00008B0F  6549              gs dec ecx
00008B11  635374            arpl [ebx+0x74],dx
00008B14  3470              xor al,0x70
00008B16  61                popa
00008B17  6972494B636945    imul esi,[edx+0x49],dword 0x4569634b
00008B1E  53                push ebx
00008B1F  7431              jz 0x8b52
00008B21  305F53            xor [edi+0x53],bl
00008B24  656C              gs insb
00008B26  6563743173        arpl [gs:ecx+esi+0x73],si
00008B2B  7449              jz 0x8b76
00008B2D  53                push ebx
00008B2E  325F45            xor bl,[edi+0x45]
00008B31  53                push ebx
00008B32  7434              jz 0x8b68
00008B34  6C                insb
00008B35  657373            gs jnc 0x8bab
00008B38  49                dec ecx
00008B39  634553            arpl [ebp+0x53],ax
00008B3C  61                popa
00008B3D  49                dec ecx
00008B3E  53                push ebx
00008B3F  325F45            xor bl,[edi+0x45]
00008B42  45                inc ebp
00008B43  3473              xor al,0x73
00008B45  697A654576005F    imul edi,[edx+0x65],dword 0x5f007645
00008B4C  5A                pop edx
00008B4D  4E                dec esi
00008B4E  53                push ebx
00008B4F  61                popa
00008B50  49                dec ecx
00008B51  53                push ebx
00008B52  7431              jz 0x8b85
00008B54  335F52            xor ebx,[edi+0x52]
00008B57  625F74            bound ebx,[edi+0x74]
00008B5A  7265              jc 0x8bc1
00008B5C  655F              gs pop edi
00008B5E  6E                outsb
00008B5F  6F                outsd
00008B60  646549            gs dec ecx
00008B63  53                push ebx
00008B64  7345              jnc 0x8bab
00008B66  45                inc ebp
00008B67  44                inc esp
00008B68  324576            xor al,[ebp+0x76]
00008B6B  005F5A            add [edi+0x5a],bl
00008B6E  4E                dec esi
00008B6F  395F5F            cmp [edi+0x5f],ebx
00008B72  676E              a16 outsb
00008B74  755F              jnz 0x8bd5
00008B76  637878            arpl [eax+0x78],di
00008B79  3133              xor [ebx],esi
00008B7B  6E                outsb
00008B7C  65775F            gs ja 0x8bde
00008B7F  61                popa
00008B80  6C                insb
00008B81  6C                insb
00008B82  6F                outsd
00008B83  636174            arpl [ecx+0x74],sp
00008B86  6F                outsd
00008B87  7249              jc 0x8bd2
00008B89  53                push ebx
00008B8A  7431              jz 0x8bbd
00008B8C  335F52            xor ebx,[edi+0x52]
00008B8F  625F74            bound ebx,[edi+0x74]
00008B92  7265              jc 0x8bf9
00008B94  655F              gs pop edi
00008B96  6E                outsb
00008B97  6F                outsd
00008B98  646549            gs dec ecx
00008B9B  53                push ebx
00008B9C  7345              jnc 0x8be3
00008B9E  45                inc ebp
00008B9F  44                inc esp
00008BA0  314576            xor [ebp+0x76],eax
00008BA3  005F5A            add [edi+0x5a],bl
00008BA6  4E                dec esi
00008BA7  53                push ebx
00008BA8  7438              jz 0x8be2
00008BAA  5F                pop edi
00008BAB  52                push edx
00008BAC  625F74            bound ebx,[edi+0x74]
00008BAF  7265              jc 0x8c16
00008BB1  6549              gs dec ecx
00008BB3  53                push ebx
00008BB4  7353              jnc 0x8c09
00008BB6  7353              jnc 0x8c0b
00008BB8  7439              jz 0x8bf3
00008BBA  5F                pop edi
00008BBB  49                dec ecx
00008BBC  64656E            gs outsb
00008BBF  7469              jz 0x8c2a
00008BC1  7479              jz 0x8c3c
00008BC3  49                dec ecx
00008BC4  53                push ebx
00008BC5  7345              jnc 0x8c0c
00008BC7  53                push ebx
00008BC8  7434              jz 0x8bfe
00008BCA  6C                insb
00008BCB  657373            gs jnc 0x8c41
00008BCE  49                dec ecx
00008BCF  53                push ebx
00008BD0  7345              jnc 0x8c17
00008BD2  53                push ebx
00008BD3  61                popa
00008BD4  49                dec ecx
00008BD5  53                push ebx
00008BD6  7345              jnc 0x8c1d
00008BD8  45                inc ebp
00008BD9  365F              ss pop edi
00008BDB  4D                dec ebp
00008BDC  5F                pop edi
00008BDD  656E              gs outsb
00008BDF  6445              fs inc ebp
00008BE1  7600              jna 0x8be3
00008BE3  5F                pop edi
00008BE4  5A                pop edx
00008BE5  4E                dec esi
00008BE6  4B                dec ebx
00008BE7  53                push ebx
00008BE8  7336              jnc 0x8c20
00008BEA  7375              jnc 0x8c61
00008BEC  627374            bound esi,[ebx+0x74]
00008BEF  7245              jc 0x8c36
00008BF1  6A6A              push byte +0x6a
00008BF3  40                inc eax
00008BF4  40                inc eax
00008BF5  47                inc edi
00008BF6  4C                dec esp
00008BF7  49                dec ecx
00008BF8  42                inc edx
00008BF9  43                inc ebx
00008BFA  58                pop eax
00008BFB  58                pop eax
00008BFC  5F                pop edi
00008BFD  332E              xor ebp,[esi]
00008BFF  3400              xor al,0x0
00008C01  5F                pop edi
00008C02  5A                pop edx
00008C03  4E                dec esi
00008C04  53                push ebx
00008C05  7438              jz 0x8c3f
00008C07  5F                pop edi
00008C08  52                push edx
00008C09  625F74            bound ebx,[edi+0x74]
00008C0C  7265              jc 0x8c73
00008C0E  6549              gs dec ecx
00008C10  53                push ebx
00008C11  7353              jnc 0x8c66
00008C13  7353              jnc 0x8c68
00008C15  7439              jz 0x8c50
00008C17  5F                pop edi
00008C18  49                dec ecx
00008C19  64656E            gs outsb
00008C1C  7469              jz 0x8c87
00008C1E  7479              jz 0x8c99
00008C20  49                dec ecx
00008C21  53                push ebx
00008C22  7345              jnc 0x8c69
00008C24  53                push ebx
00008C25  7434              jz 0x8c5b
00008C27  6C                insb
00008C28  657373            gs jnc 0x8c9e
00008C2B  49                dec ecx
00008C2C  53                push ebx
00008C2D  7345              jnc 0x8c74
00008C2F  53                push ebx
00008C30  61                popa
00008C31  49                dec ecx
00008C32  53                push ebx
00008C33  7345              jnc 0x8c7a
00008C35  45                inc ebp
00008C36  44                inc esp
00008C37  314576            xor [ebp+0x76],eax
00008C3A  005F5A            add [edi+0x5a],bl
00008C3D  4E                dec esi
00008C3E  4B                dec ebx
00008C3F  53                push ebx
00008C40  7438              jz 0x8c7a
00008C42  5F                pop edi
00008C43  52                push edx
00008C44  625F74            bound ebx,[edi+0x74]
00008C47  7265              jc 0x8cae
00008C49  6549              gs dec ecx
00008C4B  635374            arpl [ebx+0x74],dx
00008C4E  3470              xor al,0x70
00008C50  61                popa
00008C51  6972494B636945    imul esi,[edx+0x49],dword 0x4569634b
00008C58  53                push ebx
00008C59  7431              jz 0x8c8c
00008C5B  305F53            xor [edi+0x53],bl
00008C5E  656C              gs insb
00008C60  6563743173        arpl [gs:ecx+esi+0x73],si
00008C65  7449              jz 0x8cb0
00008C67  53                push ebx
00008C68  325F45            xor bl,[edi+0x45]
00008C6B  53                push ebx
00008C6C  7434              jz 0x8ca2
00008C6E  6C                insb
00008C6F  657373            gs jnc 0x8ce5
00008C72  49                dec ecx
00008C73  634553            arpl [ebp+0x53],ax
00008C76  61                popa
00008C77  49                dec ecx
00008C78  53                push ebx
00008C79  325F45            xor bl,[edi+0x45]
00008C7C  45                inc ebp
00008C7D  3231              xor dh,[ecx]
00008C7F  5F                pop edi
00008C80  4D                dec ebp
00008C81  5F                pop edi
00008C82  6765745F          gs a16 jz 0x8ce5
00008C86  4E                dec esi
00008C87  6F                outsd
00008C88  64655F            gs pop edi
00008C8B  61                popa
00008C8C  6C                insb
00008C8D  6C                insb
00008C8E  6F                outsd
00008C8F  636174            arpl [ecx+0x74],sp
00008C92  6F                outsd
00008C93  7245              jc 0x8cda
00008C95  7600              jna 0x8c97
00008C97  5F                pop edi
00008C98  5A                pop edx
00008C99  4E                dec esi
00008C9A  53                push ebx
00008C9B  7433              jz 0x8cd0
00008C9D  7365              jnc 0x8d04
00008C9F  7449              jz 0x8cea
00008CA1  53                push ebx
00008CA2  7353              jnc 0x8cf7
00008CA4  7434              jz 0x8cda
00008CA6  6C                insb
00008CA7  657373            gs jnc 0x8d1d
00008CAA  49                dec ecx
00008CAB  53                push ebx
00008CAC  7345              jnc 0x8cf3
00008CAE  53                push ebx
00008CAF  61                popa
00008CB0  49                dec ecx
00008CB1  53                push ebx
00008CB2  7345              jnc 0x8cf9
00008CB4  45                inc ebp
00008CB5  44                inc esp
00008CB6  314576            xor [ebp+0x76],eax
00008CB9  005F5A            add [edi+0x5a],bl
00008CBC  4E                dec esi
00008CBD  395F5F            cmp [edi+0x5f],ebx
00008CC0  676E              a16 outsb
00008CC2  755F              jnz 0x8d23
00008CC4  637878            arpl [eax+0x78],di
00008CC7  3133              xor [ebx],esi
00008CC9  6E                outsb
00008CCA  65775F            gs ja 0x8d2c
00008CCD  61                popa
00008CCE  6C                insb
00008CCF  6C                insb
00008CD0  6F                outsd
00008CD1  636174            arpl [ecx+0x74],sp
00008CD4  6F                outsd
00008CD5  7249              jc 0x8d20
00008CD7  53                push ebx
00008CD8  7431              jz 0x8d0b
00008CDA  335F52            xor ebx,[edi+0x52]
00008CDD  625F74            bound ebx,[edi+0x74]
00008CE0  7265              jc 0x8d47
00008CE2  655F              gs pop edi
00008CE4  6E                outsb
00008CE5  6F                outsd
00008CE6  646549            gs dec ecx
00008CE9  53                push ebx
00008CEA  7345              jnc 0x8d31
00008CEC  45                inc ebp
00008CED  43                inc ebx
00008CEE  314576            xor [ebp+0x76],eax
00008CF1  005F5F            add [edi+0x5f],bl
00008CF4  627373            bound esi,[ebx+0x73]
00008CF7  5F                pop edi
00008CF8  7374              jnc 0x8d6e
00008CFA  61                popa
00008CFB  7274              jc 0x8d71
00008CFD  005F5A            add [edi+0x5a],bl
00008D00  53                push ebx
00008D01  7432              jz 0x8d35
00008D03  395F52            cmp [edi+0x52],ebx
00008D06  625F74            bound ebx,[edi+0x74]
00008D09  7265              jc 0x8d70
00008D0B  655F              gs pop edi
00008D0D  696E736572745F    imul ebp,[esi+0x73],dword 0x5f747265
00008D14  61                popa
00008D15  6E                outsb
00008D16  645F              fs pop edi
00008D18  7265              jc 0x8d7f
00008D1A  62616C            bound esp,[ecx+0x6c]
00008D1D  61                popa
00008D1E  6E                outsb
00008D1F  636562            arpl [ebp+0x62],sp
00008D22  50                push eax
00008D23  53                push ebx
00008D24  7431              jz 0x8d57
00008D26  385F52            cmp [edi+0x52],bl
00008D29  625F74            bound ebx,[edi+0x74]
00008D2C  7265              jc 0x8d93
00008D2E  655F              gs pop edi
00008D30  6E                outsb
00008D31  6F                outsd
00008D32  64655F            gs pop edi
00008D35  626173            bound esp,[ecx+0x73]
00008D38  6553              gs push ebx
00008D3A  305F52            xor [edi+0x52],bl
00008D3D  53                push ebx
00008D3E  5F                pop edi
00008D3F  40                inc eax
00008D40  40                inc eax
00008D41  47                inc edi
00008D42  4C                dec esp
00008D43  49                dec ecx
00008D44  42                inc edx
00008D45  43                inc ebx
00008D46  58                pop eax
00008D47  58                pop eax
00008D48  5F                pop edi
00008D49  332E              xor ebp,[esi]
00008D4B  3400              xor al,0x0
00008D4D  5F                pop edi
00008D4E  5A                pop edx
00008D4F  4E                dec esi
00008D50  53                push ebx
00008D51  61                popa
00008D52  49                dec ecx
00008D53  53                push ebx
00008D54  7434              jz 0x8d8a
00008D56  7061              jo 0x8db9
00008D58  6972494B636945    imul esi,[edx+0x49],dword 0x4569634b
00008D5F  45                inc ebp
00008D60  44                inc esp
00008D61  324576            xor al,[ebp+0x76]
00008D64  005F5A            add [edi+0x5a],bl
00008D67  4E                dec esi
00008D68  53                push ebx
00008D69  7438              jz 0x8da3
00008D6B  5F                pop edi
00008D6C  52                push edx
00008D6D  625F74            bound ebx,[edi+0x74]
00008D70  7265              jc 0x8dd7
00008D72  6549              gs dec ecx
00008D74  53                push ebx
00008D75  7353              jnc 0x8dca
00008D77  7353              jnc 0x8dcc
00008D79  7439              jz 0x8db4
00008D7B  5F                pop edi
00008D7C  49                dec ecx
00008D7D  64656E            gs outsb
00008D80  7469              jz 0x8deb
00008D82  7479              jz 0x8dfd
00008D84  49                dec ecx
00008D85  53                push ebx
00008D86  7345              jnc 0x8dcd
00008D88  53                push ebx
00008D89  7434              jz 0x8dbf
00008D8B  6C                insb
00008D8C  657373            gs jnc 0x8e02
00008D8F  49                dec ecx
00008D90  53                push ebx
00008D91  7345              jnc 0x8dd8
00008D93  53                push ebx
00008D94  61                popa
00008D95  49                dec ecx
00008D96  53                push ebx
00008D97  7345              jnc 0x8dde
00008D99  45                inc ebp
00008D9A  385F4D            cmp [edi+0x4d],bl
00008D9D  5F                pop edi
00008D9E  626567            bound esp,[ebp+0x67]
00008DA1  696E4576005F5A    imul ebp,[esi+0x45],dword 0x5a5f0076
00008DA8  53                push ebx
00008DA9  7433              jz 0x8dde
00008DAB  6D                insd
00008DAC  61                popa
00008DAD  7849              js 0x8df8
00008DAF  6945524B545F53    imul eax,[ebp+0x52],dword 0x535f544b
00008DB6  325F53            xor bl,[edi+0x53]
00008DB9  325F00            xor bl,[edi+0x0]
00008DBC  5F                pop edi
00008DBD  5A                pop edx
00008DBE  4E                dec esi
00008DBF  53                push ebx
00008DC0  7433              jz 0x8df5
00008DC2  6D                insd
00008DC3  61                popa
00008DC4  7049              jo 0x8e0f
00008DC6  636953            arpl [ecx+0x53],bp
00008DC9  7434              jz 0x8dff
00008DCB  6C                insb
00008DCC  657373            gs jnc 0x8e42
00008DCF  49                dec ecx
00008DD0  634553            arpl [ebp+0x53],ax
00008DD3  61                popa
00008DD4  49                dec ecx
00008DD5  53                push ebx
00008DD6  7434              jz 0x8e0c
00008DD8  7061              jo 0x8e3b
00008DDA  6972494B636945    imul esi,[edx+0x49],dword 0x4569634b
00008DE1  45                inc ebp
00008DE2  45                inc ebp
00008DE3  44                inc esp
00008DE4  324576            xor al,[ebp+0x76]
00008DE7  005F5A            add [edi+0x5a],bl
00008DEA  4E                dec esi
00008DEB  53                push ebx
00008DEC  7432              jz 0x8e20
00008DEE  335F52            xor ebx,[edi+0x52]
00008DF1  625F74            bound ebx,[edi+0x74]
00008DF4  7265              jc 0x8e5b
00008DF6  655F              gs pop edi
00008DF8  636F6E            arpl [edi+0x6e],bp
00008DFB  7374              jnc 0x8e71
00008DFD  5F                pop edi
00008DFE  6974657261746F72  imul esi,[ebp+0x72],dword 0x726f7461
00008E06  49                dec ecx
00008E07  53                push ebx
00008E08  7345              jnc 0x8e4f
00008E0A  43                inc ebx
00008E0B  324552            xor al,[ebp+0x52]
00008E0E  4B                dec ebx
00008E0F  53                push ebx
00008E10  7431              jz 0x8e43
00008E12  37                aaa
00008E13  5F                pop edi
00008E14  52                push edx
00008E15  625F74            bound ebx,[edi+0x74]
00008E18  7265              jc 0x8e7f
00008E1A  655F              gs pop edi
00008E1C  6974657261746F72  imul esi,[ebp+0x72],dword 0x726f7461
00008E24  49                dec ecx
00008E25  53                push ebx
00008E26  7345              jnc 0x8e6d
00008E28  005F5A            add [edi+0x5a],bl
00008E2B  4E                dec esi
00008E2C  53                push ebx
00008E2D  7434              jz 0x8e63
00008E2F  7061              jo 0x8e92
00008E31  6972494B636945    imul esi,[edx+0x49],dword 0x4569634b
00008E38  43                inc ebx
00008E39  314552            xor [ebp+0x52],eax
00008E3C  53                push ebx
00008E3D  305F52            xor [edi+0x52],bl
00008E40  4B                dec ebx
00008E41  69005F5A4E53      imul eax,[eax],dword 0x534e5a5f
00008E47  7434              jz 0x8e7d
00008E49  7061              jo 0x8eac
00008E4B  69724953743233    imul esi,[edx+0x49],dword 0x33327453
00008E52  5F                pop edi
00008E53  52                push edx
00008E54  625F74            bound ebx,[edi+0x74]
00008E57  7265              jc 0x8ebe
00008E59  655F              gs pop edi
00008E5B  636F6E            arpl [edi+0x6e],bp
00008E5E  7374              jnc 0x8ed4
00008E60  5F                pop edi
00008E61  6974657261746F72  imul esi,[ebp+0x72],dword 0x726f7461
00008E69  49                dec ecx
00008E6A  53                push ebx
00008E6B  7345              jnc 0x8eb2
00008E6D  624543            bound eax,[ebp+0x43]
00008E70  314552            xor [ebp+0x52],eax
00008E73  4B                dec ebx
00008E74  53                push ebx
00008E75  315F52            xor [edi+0x52],ebx
00008E78  4B                dec ebx
00008E79  6200              bound eax,[eax]
00008E7B  5F                pop edi
00008E7C  5A                pop edx
00008E7D  4E                dec esi
00008E7E  4B                dec ebx
00008E7F  53                push ebx
00008E80  7433              jz 0x8eb5
00008E82  7365              jnc 0x8ee9
00008E84  7449              jz 0x8ecf
00008E86  53                push ebx
00008E87  7353              jnc 0x8edc
00008E89  7434              jz 0x8ebf
00008E8B  6C                insb
00008E8C  657373            gs jnc 0x8f02
00008E8F  49                dec ecx
00008E90  53                push ebx
00008E91  7345              jnc 0x8ed8
00008E93  53                push ebx
00008E94  61                popa
00008E95  49                dec ecx
00008E96  53                push ebx
00008E97  7345              jnc 0x8ede
00008E99  45                inc ebp
00008E9A  3473              xor al,0x73
00008E9C  697A654576005F    imul edi,[edx+0x65],dword 0x5f007645
00008EA3  5A                pop edx
00008EA4  4E                dec esi
00008EA5  53                push ebx
00008EA6  7438              jz 0x8ee0
00008EA8  5F                pop edi
00008EA9  52                push edx
00008EAA  625F74            bound ebx,[edi+0x74]
00008EAD  7265              jc 0x8f14
00008EAF  6549              gs dec ecx
00008EB1  635374            arpl [ebx+0x74],dx
00008EB4  3470              xor al,0x70
00008EB6  61                popa
00008EB7  6972494B636945    imul esi,[edx+0x49],dword 0x4569634b
00008EBE  53                push ebx
00008EBF  7431              jz 0x8ef2
00008EC1  305F53            xor [edi+0x53],bl
00008EC4  656C              gs insb
00008EC6  6563743173        arpl [gs:ecx+esi+0x73],si
00008ECB  7449              jz 0x8f16
00008ECD  53                push ebx
00008ECE  325F45            xor bl,[edi+0x45]
00008ED1  53                push ebx
00008ED2  7434              jz 0x8f08
00008ED4  6C                insb
00008ED5  657373            gs jnc 0x8f4b
00008ED8  49                dec ecx
00008ED9  634553            arpl [ebp+0x53],ax
00008EDC  61                popa
00008EDD  49                dec ecx
00008EDE  53                push ebx
00008EDF  325F45            xor bl,[edi+0x45]
00008EE2  45                inc ebp
00008EE3  3562656769        xor eax,0x69676562
00008EE8  6E                outsb
00008EE9  45                inc ebp
00008EEA  7600              jna 0x8eec
00008EEC  5F                pop edi
00008EED  5A                pop edx
00008EEE  4E                dec esi
00008EEF  53                push ebx
00008EF0  7431              jz 0x8f23
00008EF2  37                aaa
00008EF3  5F                pop edi
00008EF4  52                push edx
00008EF5  625F74            bound ebx,[edi+0x74]
00008EF8  7265              jc 0x8f5f
00008EFA  655F              gs pop edi
00008EFC  6974657261746F72  imul esi,[ebp+0x72],dword 0x726f7461
00008F04  49                dec ecx
00008F05  53                push ebx
00008F06  7434              jz 0x8f3c
00008F08  7061              jo 0x8f6b
00008F0A  6972494B636945    imul esi,[edx+0x49],dword 0x4569634b
00008F11  45                inc ebp
00008F12  43                inc ebx
00008F13  314550            xor [ebp+0x50],eax
00008F16  53                push ebx
00008F17  7431              jz 0x8f4a
00008F19  335F52            xor ebx,[edi+0x52]
00008F1C  625F74            bound ebx,[edi+0x74]
00008F1F  7265              jc 0x8f86
00008F21  655F              gs pop edi
00008F23  6E                outsb
00008F24  6F                outsd
00008F25  646549            gs dec ecx
00008F28  53                push ebx
00008F29  325F45            xor bl,[edi+0x45]
00008F2C  005F5A            add [edi+0x5a],bl
00008F2F  4E                dec esi
00008F30  395F5F            cmp [edi+0x5f],ebx
00008F33  676E              a16 outsb
00008F35  755F              jnz 0x8f96
00008F37  637878            arpl [eax+0x78],di
00008F3A  3133              xor [ebx],esi
00008F3C  6E                outsb
00008F3D  65775F            gs ja 0x8f9f
00008F40  61                popa
00008F41  6C                insb
00008F42  6C                insb
00008F43  6F                outsd
00008F44  636174            arpl [ecx+0x74],sp
00008F47  6F                outsd
00008F48  7249              jc 0x8f93
00008F4A  53                push ebx
00008F4B  7431              jz 0x8f7e
00008F4D  335F52            xor ebx,[edi+0x52]
00008F50  625F74            bound ebx,[edi+0x74]
00008F53  7265              jc 0x8fba
00008F55  655F              gs pop edi
00008F57  6E                outsb
00008F58  6F                outsd
00008F59  646549            gs dec ecx
00008F5C  53                push ebx
00008F5D  7345              jnc 0x8fa4
00008F5F  45                inc ebp
00008F60  38616C            cmp [ecx+0x6c],ah
00008F63  6C                insb
00008F64  6F                outsd
00008F65  636174            arpl [ecx+0x74],sp
00008F68  6545              gs inc ebp
00008F6A  6A50              push byte +0x50
00008F6C  4B                dec ebx
00008F6D  7600              jna 0x8f6f
00008F6F  5F                pop edi
00008F70  5A                pop edx
00008F71  4E                dec esi
00008F72  53                push ebx
00008F73  61                popa
00008F74  49                dec ecx
00008F75  634544            arpl [ebp+0x44],ax
00008F78  314576            xor [ebp+0x76],eax
00008F7B  40                inc eax
00008F7C  40                inc eax
00008F7D  47                inc edi
00008F7E  4C                dec esp
00008F7F  49                dec ecx
00008F80  42                inc edx
00008F81  43                inc ebx
00008F82  58                pop eax
00008F83  58                pop eax
00008F84  5F                pop edi
00008F85  332E              xor ebp,[esi]
00008F87  3400              xor al,0x0
00008F89  5F                pop edi
00008F8A  5A                pop edx
00008F8B  4E                dec esi
00008F8C  53                push ebx
00008F8D  7438              jz 0x8fc7
00008F8F  5F                pop edi
00008F90  52                push edx
00008F91  625F74            bound ebx,[edi+0x74]
00008F94  7265              jc 0x8ffb
00008F96  6549              gs dec ecx
00008F98  635374            arpl [ebx+0x74],dx
00008F9B  3470              xor al,0x70
00008F9D  61                popa
00008F9E  6972494B636945    imul esi,[edx+0x49],dword 0x4569634b
00008FA5  53                push ebx
00008FA6  7431              jz 0x8fd9
00008FA8  305F53            xor [edi+0x53],bl
00008FAB  656C              gs insb
00008FAD  6563743173        arpl [gs:ecx+esi+0x73],si
00008FB2  7449              jz 0x8ffd
00008FB4  53                push ebx
00008FB5  325F45            xor bl,[edi+0x45]
00008FB8  53                push ebx
00008FB9  7434              jz 0x8fef
00008FBB  6C                insb
00008FBC  657373            gs jnc 0x9032
00008FBF  49                dec ecx
00008FC0  634553            arpl [ebp+0x53],ax
00008FC3  61                popa
00008FC4  49                dec ecx
00008FC5  53                push ebx
00008FC6  325F45            xor bl,[edi+0x45]
00008FC9  45                inc ebp
00008FCA  3133              xor [ebx],esi
00008FCC  5F                pop edi
00008FCD  52                push edx
00008FCE  625F74            bound ebx,[edi+0x74]
00008FD1  7265              jc 0x9038
00008FD3  655F              gs pop edi
00008FD5  696D706C495336    imul ebp,[ebp+0x70],dword 0x3653496c
00008FDC  5F                pop edi
00008FDD  4C                dec esp
00008FDE  6230              bound esi,[eax]
00008FE0  45                inc ebp
00008FE1  45                inc ebp
00008FE2  3133              xor [ebx],esi
00008FE4  5F                pop edi
00008FE5  4D                dec ebp
00008FE6  5F                pop edi
00008FE7  696E697469616C    imul ebp,[esi+0x69],dword 0x6c616974
00008FEE  697A654576005F    imul edi,[edx+0x65],dword 0x5f007645
00008FF5  5A                pop edx
00008FF6  4E                dec esi
00008FF7  53                push ebx
00008FF8  7438              jz 0x9032
00008FFA  5F                pop edi
00008FFB  52                push edx
00008FFC  625F74            bound ebx,[edi+0x74]
00008FFF  7265              jc 0x9066
00009001  6549              gs dec ecx
00009003  53                push ebx
00009004  7353              jnc 0x9059
00009006  7353              jnc 0x905b
00009008  7439              jz 0x9043
0000900A  5F                pop edi
0000900B  49                dec ecx
0000900C  64656E            gs outsb
0000900F  7469              jz 0x907a
00009011  7479              jz 0x908c
00009013  49                dec ecx
00009014  53                push ebx
00009015  7345              jnc 0x905c
00009017  53                push ebx
00009018  7434              jz 0x904e
0000901A  6C                insb
0000901B  657373            gs jnc 0x9091
0000901E  49                dec ecx
0000901F  53                push ebx
00009020  7345              jnc 0x9067
00009022  53                push ebx
00009023  61                popa
00009024  49                dec ecx
00009025  53                push ebx
00009026  7345              jnc 0x906d
00009028  45                inc ebp
00009029  385F4D            cmp [edi+0x4d],bl
0000902C  5F                pop edi
0000902D  657261            gs jc 0x9091
00009030  7365              jnc 0x9097
00009032  45                inc ebp
00009033  50                push eax
00009034  53                push ebx
00009035  7431              jz 0x9068
00009037  335F52            xor ebx,[edi+0x52]
0000903A  625F74            bound ebx,[edi+0x74]
0000903D  7265              jc 0x90a4
0000903F  655F              gs pop edi
00009041  6E                outsb
00009042  6F                outsd
00009043  646549            gs dec ecx
00009046  53                push ebx
00009047  7345              jnc 0x908e
00009049  005F5A            add [edi+0x5a],bl
0000904C  4E                dec esi
0000904D  53                push ebx
0000904E  61                popa
0000904F  49                dec ecx
00009050  53                push ebx
00009051  7431              jz 0x9084
00009053  335F52            xor ebx,[edi+0x52]
00009056  625F74            bound ebx,[edi+0x74]
00009059  7265              jc 0x90c0
0000905B  655F              gs pop edi
0000905D  6E                outsb
0000905E  6F                outsd
0000905F  646549            gs dec ecx
00009062  53                push ebx
00009063  7345              jnc 0x90aa
00009065  45                inc ebp
00009066  43                inc ebx
00009067  324576            xor al,[ebp+0x76]
0000906A  005F5A            add [edi+0x5a],bl
0000906D  4E                dec esi
0000906E  53                push ebx
0000906F  7434              jz 0x90a5
00009071  7061              jo 0x90d4
00009073  69724953743137    imul esi,[edx+0x49],dword 0x37317453
0000907A  5F                pop edi
0000907B  52                push edx
0000907C  625F74            bound ebx,[edi+0x74]
0000907F  7265              jc 0x90e6
00009081  655F              gs pop edi
00009083  6974657261746F72  imul esi,[ebp+0x72],dword 0x726f7461
0000908B  49                dec ecx
0000908C  53                push ebx
0000908D  7345              jnc 0x90d4
0000908F  624543            bound eax,[ebp+0x43]
00009092  314552            xor [ebp+0x52],eax
00009095  4B                dec ebx
00009096  53                push ebx
00009097  315F52            xor [edi+0x52],ebx
0000909A  4B                dec ebx
0000909B  6200              bound eax,[eax]
0000909D  5F                pop edi
0000909E  5A                pop edx
0000909F  4E                dec esi
000090A0  53                push ebx
000090A1  7438              jz 0x90db
000090A3  5F                pop edi
000090A4  52                push edx
000090A5  625F74            bound ebx,[edi+0x74]
000090A8  7265              jc 0x910f
000090AA  6549              gs dec ecx
000090AC  635374            arpl [ebx+0x74],dx
000090AF  3470              xor al,0x70
000090B1  61                popa
000090B2  6972494B636945    imul esi,[edx+0x49],dword 0x4569634b
000090B9  53                push ebx
000090BA  7431              jz 0x90ed
000090BC  305F53            xor [edi+0x53],bl
000090BF  656C              gs insb
000090C1  6563743173        arpl [gs:ecx+esi+0x73],si
000090C6  7449              jz 0x9111
000090C8  53                push ebx
000090C9  325F45            xor bl,[edi+0x45]
000090CC  53                push ebx
000090CD  7434              jz 0x9103
000090CF  6C                insb
000090D0  657373            gs jnc 0x9146
000090D3  49                dec ecx
000090D4  634553            arpl [ebp+0x53],ax
000090D7  61                popa
000090D8  49                dec ecx
000090D9  53                push ebx
000090DA  325F45            xor bl,[edi+0x45]
000090DD  45                inc ebp
000090DE  31355F4D5F64      xor [0x645f4d5f],esi
000090E4  657374            gs jnc 0x915b
000090E7  726F              jc 0x9158
000090E9  795F              jns 0x914a
000090EB  6E                outsb
000090EC  6F                outsd
000090ED  646545            gs inc ebp
000090F0  50                push eax
000090F1  53                push ebx
000090F2  7431              jz 0x9125
000090F4  335F52            xor ebx,[edi+0x52]
000090F7  625F74            bound ebx,[edi+0x74]
000090FA  7265              jc 0x9161
000090FC  655F              gs pop edi
000090FE  6E                outsb
000090FF  6F                outsd
00009100  646549            gs dec ecx
00009103  53                push ebx
00009104  325F45            xor bl,[edi+0x45]
00009107  005F5A            add [edi+0x5a],bl
0000910A  4E                dec esi
0000910B  53                push ebx
0000910C  7433              jz 0x9141
0000910E  6D                insd
0000910F  61                popa
00009110  7049              jo 0x915b
00009112  636953            arpl [ecx+0x53],bp
00009115  7434              jz 0x914b
00009117  6C                insb
00009118  657373            gs jnc 0x918e
0000911B  49                dec ecx
0000911C  634553            arpl [ebp+0x53],ax
0000911F  61                popa
00009120  49                dec ecx
00009121  53                push ebx
00009122  7434              jz 0x9158
00009124  7061              jo 0x9187
00009126  6972494B636945    imul esi,[edx+0x49],dword 0x4569634b
0000912D  45                inc ebp
0000912E  45                inc ebp
0000912F  33656E            xor esp,[ebp+0x6e]
00009132  6445              fs inc ebp
00009134  7600              jna 0x9136
00009136  5F                pop edi
00009137  5F                pop edi
00009138  7074              jo 0x91ae
0000913A  6872656164        push dword 0x64616572
0000913F  5F                pop edi
00009140  6B65795F          imul esp,[ebp+0x79],byte +0x5f
00009144  637265            arpl [edx+0x65],si
00009147  61                popa
00009148  7465              jz 0x91af
0000914A  005F5A            add [edi+0x5a],bl
0000914D  4E                dec esi
0000914E  53                push ebx
0000914F  7431              jz 0x9182
00009151  37                aaa
00009152  5F                pop edi
00009153  52                push edx
00009154  625F74            bound ebx,[edi+0x74]
00009157  7265              jc 0x91be
00009159  655F              gs pop edi
0000915B  6974657261746F72  imul esi,[ebp+0x72],dword 0x726f7461
00009163  49                dec ecx
00009164  53                push ebx
00009165  7345              jnc 0x91ac
00009167  6D                insd
00009168  6D                insd
00009169  45                inc ebp
0000916A  7600              jna 0x916c
0000916C  5F                pop edi
0000916D  5A                pop edx
0000916E  4E                dec esi
0000916F  53                push ebx
00009170  69727345526940    imul esi,[edx+0x73],dword 0x40695245
00009177  40                inc eax
00009178  47                inc edi
00009179  4C                dec esp
0000917A  49                dec ecx
0000917B  42                inc edx
0000917C  43                inc ebx
0000917D  58                pop eax
0000917E  58                pop eax
0000917F  5F                pop edi
00009180  332E              xor ebp,[esi]
00009182  3400              xor al,0x0
00009184  5F                pop edi
00009185  5A                pop edx
00009186  4E                dec esi
00009187  53                push ebx
00009188  7432              jz 0x91bc
0000918A  335F52            xor ebx,[edi+0x52]
0000918D  625F74            bound ebx,[edi+0x74]
00009190  7265              jc 0x91f7
00009192  655F              gs pop edi
00009194  636F6E            arpl [edi+0x6e],bp
00009197  7374              jnc 0x920d
00009199  5F                pop edi
0000919A  6974657261746F72  imul esi,[ebp+0x72],dword 0x726f7461
000091A2  49                dec ecx
000091A3  53                push ebx
000091A4  7434              jz 0x91da
000091A6  7061              jo 0x9209
000091A8  6972494B636945    imul esi,[edx+0x49],dword 0x4569634b
000091AF  45                inc ebp
000091B0  43                inc ebx
000091B1  314552            xor [ebp+0x52],eax
000091B4  4B                dec ebx
000091B5  53                push ebx
000091B6  7431              jz 0x91e9
000091B8  37                aaa
000091B9  5F                pop edi
000091BA  52                push edx
000091BB  625F74            bound ebx,[edi+0x74]
000091BE  7265              jc 0x9225
000091C0  655F              gs pop edi
000091C2  6974657261746F72  imul esi,[ebp+0x72],dword 0x726f7461
000091CA  49                dec ecx
000091CB  53                push ebx
000091CC  325F45            xor bl,[edi+0x45]
000091CF  005F5A            add [edi+0x5a],bl
000091D2  4E                dec esi
000091D3  53                push ebx
000091D4  7438              jz 0x920e
000091D6  5F                pop edi
000091D7  52                push edx
000091D8  625F74            bound ebx,[edi+0x74]
000091DB  7265              jc 0x9242
000091DD  6549              gs dec ecx
000091DF  53                push ebx
000091E0  7353              jnc 0x9235
000091E2  7353              jnc 0x9237
000091E4  7439              jz 0x921f
000091E6  5F                pop edi
000091E7  49                dec ecx
000091E8  64656E            gs outsb
000091EB  7469              jz 0x9256
000091ED  7479              jz 0x9268
000091EF  49                dec ecx
000091F0  53                push ebx
000091F1  7345              jnc 0x9238
000091F3  53                push ebx
000091F4  7434              jz 0x922a
000091F6  6C                insb
000091F7  657373            gs jnc 0x926d
000091FA  49                dec ecx
000091FB  53                push ebx
000091FC  7345              jnc 0x9243
000091FE  53                push ebx
000091FF  61                popa
00009200  49                dec ecx
00009201  53                push ebx
00009202  7345              jnc 0x9249
00009204  45                inc ebp
00009205  3131              xor [ecx],esi
00009207  5F                pop edi
00009208  4D                dec ebp
00009209  5F                pop edi
0000920A  6765745F          gs a16 jz 0x926d
0000920E  6E                outsb
0000920F  6F                outsd
00009210  646545            gs inc ebp
00009213  7600              jna 0x9215
00009215  5F                pop edi
00009216  5A                pop edx
00009217  4E                dec esi
00009218  53                push ebx
00009219  7434              jz 0x924f
0000921B  7061              jo 0x927e
0000921D  69724950537431    imul esi,[edx+0x49],dword 0x31745350
00009224  385F52            cmp [edi+0x52],bl
00009227  625F74            bound ebx,[edi+0x74]
0000922A  7265              jc 0x9291
0000922C  655F              gs pop edi
0000922E  6E                outsb
0000922F  6F                outsd
00009230  64655F            gs pop edi
00009233  626173            bound esp,[ecx+0x73]
00009236  6553              gs push ebx
00009238  315F45            xor [edi+0x45],ebx
0000923B  43                inc ebx
0000923C  314552            xor [ebp+0x52],eax
0000923F  4B                dec ebx
00009240  53                push ebx
00009241  315F53            xor [edi+0x53],ebx
00009244  345F              xor al,0x5f
00009246  005F5A            add [edi+0x5a],bl
00009249  4E                dec esi
0000924A  53                push ebx
0000924B  61                popa
0000924C  49                dec ecx
0000924D  53                push ebx
0000924E  7431              jz 0x9281
00009250  335F52            xor ebx,[edi+0x52]
00009253  625F74            bound ebx,[edi+0x74]
00009256  7265              jc 0x92bd
00009258  655F              gs pop edi
0000925A  6E                outsb
0000925B  6F                outsd
0000925C  646549            gs dec ecx
0000925F  53                push ebx
00009260  7345              jnc 0x92a7
00009262  45                inc ebp
00009263  44                inc esp
00009264  314576            xor [ebp+0x76],eax
00009267  005F5A            add [edi+0x5a],bl
0000926A  4E                dec esi
0000926B  53                push ebx
0000926C  7438              jz 0x92a6
0000926E  5F                pop edi
0000926F  52                push edx
00009270  625F74            bound ebx,[edi+0x74]
00009273  7265              jc 0x92da
00009275  6549              gs dec ecx
00009277  635374            arpl [ebx+0x74],dx
0000927A  3470              xor al,0x70
0000927C  61                popa
0000927D  6972494B636945    imul esi,[edx+0x49],dword 0x4569634b
00009284  53                push ebx
00009285  7431              jz 0x92b8
00009287  305F53            xor [edi+0x53],bl
0000928A  656C              gs insb
0000928C  6563743173        arpl [gs:ecx+esi+0x73],si
00009291  7449              jz 0x92dc
00009293  53                push ebx
00009294  325F45            xor bl,[edi+0x45]
00009297  53                push ebx
00009298  7434              jz 0x92ce
0000929A  6C                insb
0000929B  657373            gs jnc 0x9311
0000929E  49                dec ecx
0000929F  634553            arpl [ebp+0x53],ax
000092A2  61                popa
000092A3  49                dec ecx
000092A4  53                push ebx
000092A5  325F45            xor bl,[edi+0x45]
000092A8  45                inc ebp
000092A9  385F53            cmp [edi+0x53],bl
000092AC  5F                pop edi
000092AD  7269              jc 0x9318
000092AF  676874455053      a16 push dword 0x53504574
000092B5  7431              jz 0x92e8
000092B7  385F52            cmp [edi+0x52],bl
000092BA  625F74            bound ebx,[edi+0x74]
000092BD  7265              jc 0x9324
000092BF  655F              gs pop edi
000092C1  6E                outsb
000092C2  6F                outsd
000092C3  64655F            gs pop edi
000092C6  626173            bound esp,[ecx+0x73]
000092C9  65005F5A          add [gs:edi+0x5a],bl
000092CD  4E                dec esi
000092CE  53                push ebx
000092CF  7432              jz 0x9303
000092D1  335F52            xor ebx,[edi+0x52]
000092D4  625F74            bound ebx,[edi+0x74]
000092D7  7265              jc 0x933e
000092D9  655F              gs pop edi
000092DB  636F6E            arpl [edi+0x6e],bp
000092DE  7374              jnc 0x9354
000092E0  5F                pop edi
000092E1  6974657261746F72  imul esi,[ebp+0x72],dword 0x726f7461
000092E9  49                dec ecx
000092EA  53                push ebx
000092EB  7345              jnc 0x9332
000092ED  7070              jo 0x935f
000092EF  45                inc ebp
000092F0  7600              jna 0x92f2
000092F2  5F                pop edi
000092F3  5A                pop edx
000092F4  4E                dec esi
000092F5  395F5F            cmp [edi+0x5f],ebx
000092F8  676E              a16 outsb
000092FA  755F              jnz 0x935b
000092FC  637878            arpl [eax+0x78],di
000092FF  3133              xor [ebx],esi
00009301  6E                outsb
00009302  65775F            gs ja 0x9364
00009305  61                popa
00009306  6C                insb
00009307  6C                insb
00009308  6F                outsd
00009309  636174            arpl [ecx+0x74],sp
0000930C  6F                outsd
0000930D  7249              jc 0x9358
0000930F  53                push ebx
00009310  7431              jz 0x9343
00009312  335F52            xor ebx,[edi+0x52]
00009315  625F74            bound ebx,[edi+0x74]
00009318  7265              jc 0x937f
0000931A  655F              gs pop edi
0000931C  6E                outsb
0000931D  6F                outsd
0000931E  646549            gs dec ecx
00009321  53                push ebx
00009322  7345              jnc 0x9369
00009324  45                inc ebp
00009325  44                inc esp
00009326  324576            xor al,[ebp+0x76]
00009329  005F5A            add [edi+0x5a],bl
0000932C  4E                dec esi
0000932D  4B                dec ebx
0000932E  53                push ebx
0000932F  7438              jz 0x9369
00009331  5F                pop edi
00009332  52                push edx
00009333  625F74            bound ebx,[edi+0x74]
00009336  7265              jc 0x939d
00009338  6549              gs dec ecx
0000933A  53                push ebx
0000933B  7353              jnc 0x9390
0000933D  7353              jnc 0x9392
0000933F  7439              jz 0x937a
00009341  5F                pop edi
00009342  49                dec ecx
00009343  64656E            gs outsb
00009346  7469              jz 0x93b1
00009348  7479              jz 0x93c3
0000934A  49                dec ecx
0000934B  53                push ebx
0000934C  7345              jnc 0x9393
0000934E  53                push ebx
0000934F  7434              jz 0x9385
00009351  6C                insb
00009352  657373            gs jnc 0x93c8
00009355  49                dec ecx
00009356  53                push ebx
00009357  7345              jnc 0x939e
00009359  53                push ebx
0000935A  61                popa
0000935B  49                dec ecx
0000935C  53                push ebx
0000935D  7345              jnc 0x93a4
0000935F  45                inc ebp
00009360  3562656769        xor eax,0x69676562
00009365  6E                outsb
00009366  45                inc ebp
00009367  7600              jna 0x9369
00009369  5F                pop edi
0000936A  5A                pop edx
0000936B  4E                dec esi
0000936C  53                push ebx
0000936D  7434              jz 0x93a3
0000936F  7061              jo 0x93d2
00009371  69724950537431    imul esi,[edx+0x49],dword 0x31745350
00009378  385F52            cmp [edi+0x52],bl
0000937B  625F74            bound ebx,[edi+0x74]
0000937E  7265              jc 0x93e5
00009380  655F              gs pop edi
00009382  6E                outsb
00009383  6F                outsd
00009384  64655F            gs pop edi
00009387  626173            bound esp,[ecx+0x73]
0000938A  6553              gs push ebx
0000938C  315F45            xor [edi+0x45],ebx
0000938F  43                inc ebx
00009390  324552            xor al,[ebp+0x52]
00009393  4B                dec ebx
00009394  53                push ebx
00009395  315F53            xor [edi+0x53],ebx
00009398  345F              xor al,0x5f
0000939A  005F5A            add [edi+0x5a],bl
0000939D  4E                dec esi
0000939E  53                push ebx
0000939F  61                popa
000093A0  49                dec ecx
000093A1  53                push ebx
000093A2  7431              jz 0x93d5
000093A4  335F52            xor ebx,[edi+0x52]
000093A7  625F74            bound ebx,[edi+0x74]
000093AA  7265              jc 0x9411
000093AC  655F              gs pop edi
000093AE  6E                outsb
000093AF  6F                outsd
000093B0  646549            gs dec ecx
000093B3  53                push ebx
000093B4  7434              jz 0x93ea
000093B6  7061              jo 0x9419
000093B8  6972494B636945    imul esi,[edx+0x49],dword 0x4569634b
000093BF  45                inc ebp
000093C0  45                inc ebp
000093C1  44                inc esp
000093C2  314576            xor [ebp+0x76],eax
000093C5  005F5A            add [edi+0x5a],bl
000093C8  4E                dec esi
000093C9  53                push ebx
000093CA  61                popa
000093CB  49                dec ecx
000093CC  53                push ebx
000093CD  7431              jz 0x9400
000093CF  335F52            xor ebx,[edi+0x52]
000093D2  625F74            bound ebx,[edi+0x74]
000093D5  7265              jc 0x943c
000093D7  655F              gs pop edi
000093D9  6E                outsb
000093DA  6F                outsd
000093DB  646549            gs dec ecx
000093DE  53                push ebx
000093DF  7434              jz 0x9415
000093E1  7061              jo 0x9444
000093E3  6972494B636945    imul esi,[edx+0x49],dword 0x4569634b
000093EA  45                inc ebp
000093EB  45                inc ebp
000093EC  43                inc ebx
000093ED  324576            xor al,[ebp+0x76]
000093F0  005F5A            add [edi+0x5a],bl
000093F3  4E                dec esi
000093F4  53                push ebx
000093F5  7433              jz 0x942a
000093F7  7365              jnc 0x945e
000093F9  7449              jz 0x9444
000093FB  53                push ebx
000093FC  7353              jnc 0x9451
000093FE  7434              jz 0x9434
00009400  6C                insb
00009401  657373            gs jnc 0x9477
00009404  49                dec ecx
00009405  53                push ebx
00009406  7345              jnc 0x944d
00009408  53                push ebx
00009409  61                popa
0000940A  49                dec ecx
0000940B  53                push ebx
0000940C  7345              jnc 0x9453
0000940E  45                inc ebp
0000940F  36696E7365727445  imul ebp,[ss:esi+0x73],dword 0x45747265
00009417  52                push edx
00009418  4B                dec ebx
00009419  53                push ebx
0000941A  7300              jnc 0x941c
0000941C  5F                pop edi
0000941D  5A                pop edx
0000941E  4E                dec esi
0000941F  53                push ebx
00009420  7431              jz 0x9453
00009422  3462              xor al,0x62
00009424  61                popa
00009425  7369              jnc 0x9490
00009427  635F69            arpl [edi+0x69],bx
0000942A  667374            o16 jnc 0x94a1
0000942D  7265              jc 0x9494
0000942F  61                popa
00009430  6D                insd
00009431  49                dec ecx
00009432  635374            arpl [ebx+0x74],dx
00009435  3131              xor [ecx],esi
00009437  636861            arpl [eax+0x61],bp
0000943A  725F              jc 0x949b
0000943C  7472              jz 0x94b0
0000943E  61                popa
0000943F  6974734963454543  imul esi,[ebx+esi*2+0x49],dword 0x43454563
00009447  314550            xor [ebp+0x50],eax
0000944A  4B                dec ebx
0000944B  635374            arpl [ebx+0x74],dx
0000944E  3133              xor [ebx],esi
00009450  5F                pop edi
00009451  49                dec ecx
00009452  6F                outsd
00009453  735F              jnc 0x94b4
00009455  4F                dec edi
00009456  7065              jo 0x94bd
00009458  6E                outsb
00009459  6D                insd
0000945A  6F                outsd
0000945B  646540            gs inc eax
0000945E  40                inc eax
0000945F  47                inc edi
00009460  4C                dec esp
00009461  49                dec ecx
00009462  42                inc edx
00009463  43                inc ebx
00009464  58                pop eax
00009465  58                pop eax
00009466  5F                pop edi
00009467  332E              xor ebp,[esi]
00009469  3400              xor al,0x0
0000946B  5F                pop edi
0000946C  5A                pop edx
0000946D  4E                dec esi
0000946E  53                push ebx
0000946F  7438              jz 0x94a9
00009471  5F                pop edi
00009472  52                push edx
00009473  625F74            bound ebx,[edi+0x74]
00009476  7265              jc 0x94dd
00009478  6549              gs dec ecx
0000947A  53                push ebx
0000947B  7353              jnc 0x94d0
0000947D  7353              jnc 0x94d2
0000947F  7439              jz 0x94ba
00009481  5F                pop edi
00009482  49                dec ecx
00009483  64656E            gs outsb
00009486  7469              jz 0x94f1
00009488  7479              jz 0x9503
0000948A  49                dec ecx
0000948B  53                push ebx
0000948C  7345              jnc 0x94d3
0000948E  53                push ebx
0000948F  7434              jz 0x94c5
00009491  6C                insb
00009492  657373            gs jnc 0x9508
00009495  49                dec ecx
00009496  53                push ebx
00009497  7345              jnc 0x94de
00009499  53                push ebx
0000949A  61                popa
0000949B  49                dec ecx
0000949C  53                push ebx
0000949D  7345              jnc 0x94e4
0000949F  45                inc ebp
000094A0  3133              xor [ebx],esi
000094A2  5F                pop edi
000094A3  52                push edx
000094A4  625F74            bound ebx,[edi+0x74]
000094A7  7265              jc 0x950e
000094A9  655F              gs pop edi
000094AB  696D706C495333    imul ebp,[ebp+0x70],dword 0x3353496c
000094B2  5F                pop edi
000094B3  4C                dec esp
000094B4  6230              bound esi,[eax]
000094B6  45                inc ebp
000094B7  45                inc ebp
000094B8  43                inc ebx
000094B9  324576            xor al,[ebp+0x76]
000094BC  005F5A            add [edi+0x5a],bl
000094BF  4E                dec esi
000094C0  53                push ebx
000094C1  7438              jz 0x94fb
000094C3  5F                pop edi
000094C4  52                push edx
000094C5  625F74            bound ebx,[edi+0x74]
000094C8  7265              jc 0x952f
000094CA  6549              gs dec ecx
000094CC  635374            arpl [ebx+0x74],dx
000094CF  3470              xor al,0x70
000094D1  61                popa
000094D2  6972494B636945    imul esi,[edx+0x49],dword 0x4569634b
000094D9  53                push ebx
000094DA  7431              jz 0x950d
000094DC  305F53            xor [edi+0x53],bl
000094DF  656C              gs insb
000094E1  6563743173        arpl [gs:ecx+esi+0x73],si
000094E6  7449              jz 0x9531
000094E8  53                push ebx
000094E9  325F45            xor bl,[edi+0x45]
000094EC  53                push ebx
000094ED  7434              jz 0x9523
000094EF  6C                insb
000094F0  657373            gs jnc 0x9566
000094F3  49                dec ecx
000094F4  634553            arpl [ebp+0x53],ax
000094F7  61                popa
000094F8  49                dec ecx
000094F9  53                push ebx
000094FA  325F45            xor bl,[edi+0x45]
000094FD  45                inc ebp
000094FE  3239              xor bh,[ecx]
00009500  5F                pop edi
00009501  4D                dec ebp
00009502  5F                pop edi
00009503  6765745F          gs a16 jz 0x9566
00009507  696E736572745F    imul ebp,[esi+0x73],dword 0x5f747265
0000950E  68696E745F        push dword 0x5f746e69
00009513  756E              jnz 0x9583
00009515  697175655F706F    imul esi,[ecx+0x75],dword 0x6f705f65
0000951C  7345              jnc 0x9563
0000951E  53                push ebx
0000951F  7432              jz 0x9553
00009521  335F52            xor ebx,[edi+0x52]
00009524  625F74            bound ebx,[edi+0x74]
00009527  7265              jc 0x958e
00009529  655F              gs pop edi
0000952B  636F6E            arpl [edi+0x6e],bp
0000952E  7374              jnc 0x95a4
00009530  5F                pop edi
00009531  6974657261746F72  imul esi,[ebp+0x72],dword 0x726f7461
00009539  49                dec ecx
0000953A  53                push ebx
0000953B  325F45            xor bl,[edi+0x45]
0000953E  52                push edx
0000953F  53                push ebx
00009540  315F00            xor [edi+0x0],ebx
00009543  5F                pop edi
00009544  5A                pop edx
00009545  4E                dec esi
00009546  53                push ebx
00009547  7438              jz 0x9581
00009549  5F                pop edi
0000954A  52                push edx
0000954B  625F74            bound ebx,[edi+0x74]
0000954E  7265              jc 0x95b5
00009550  6549              gs dec ecx
00009552  635374            arpl [ebx+0x74],dx
00009555  3470              xor al,0x70
00009557  61                popa
00009558  6972494B636945    imul esi,[edx+0x49],dword 0x4569634b
0000955F  53                push ebx
00009560  7431              jz 0x9593
00009562  305F53            xor [edi+0x53],bl
00009565  656C              gs insb
00009567  6563743173        arpl [gs:ecx+esi+0x73],si
0000956C  7449              jz 0x95b7
0000956E  53                push ebx
0000956F  325F45            xor bl,[edi+0x45]
00009572  53                push ebx
00009573  7434              jz 0x95a9
00009575  6C                insb
00009576  657373            gs jnc 0x95ec
00009579  49                dec ecx
0000957A  634553            arpl [ebp+0x53],ax
0000957D  61                popa
0000957E  49                dec ecx
0000957F  53                push ebx
00009580  325F45            xor bl,[edi+0x45]
00009583  45                inc ebp
00009584  365F              ss pop edi
00009586  53                push ebx
00009587  5F                pop edi
00009588  6B657945          imul esp,[ebp+0x79],byte +0x45
0000958C  50                push eax
0000958D  4B                dec ebx
0000958E  53                push ebx
0000958F  7431              jz 0x95c2
00009591  335F52            xor ebx,[edi+0x52]
00009594  625F74            bound ebx,[edi+0x74]
00009597  7265              jc 0x95fe
00009599  655F              gs pop edi
0000959B  6E                outsb
0000959C  6F                outsd
0000959D  646549            gs dec ecx
000095A0  53                push ebx
000095A1  325F45            xor bl,[edi+0x45]
000095A4  005F65            add [edi+0x65],bl
000095A7  6E                outsb
000095A8  64005F5A          add [fs:edi+0x5a],bl
000095AC  4E                dec esi
000095AD  53                push ebx
000095AE  6F                outsd
000095AF  6C                insb
000095B0  7345              jnc 0x95f7
000095B2  50                push eax
000095B3  46                inc esi
000095B4  52                push edx
000095B5  53                push ebx
000095B6  6F                outsd
000095B7  53                push ebx
000095B8  5F                pop edi
000095B9  45                inc ebp
000095BA  40                inc eax
000095BB  40                inc eax
000095BC  47                inc edi
000095BD  4C                dec esp
000095BE  49                dec ecx
000095BF  42                inc edx
000095C0  43                inc ebx
000095C1  58                pop eax
000095C2  58                pop eax
000095C3  5F                pop edi
000095C4  332E              xor ebp,[esi]
000095C6  3400              xor al,0x0
000095C8  5F                pop edi
000095C9  5A                pop edx
000095CA  4E                dec esi
000095CB  53                push ebx
000095CC  7431              jz 0x95ff
000095CE  3462              xor al,0x62
000095D0  61                popa
000095D1  7369              jnc 0x963c
000095D3  635F6F            arpl [edi+0x6f],bx
000095D6  667374            o16 jnc 0x964d
000095D9  7265              jc 0x9640
000095DB  61                popa
000095DC  6D                insd
000095DD  49                dec ecx
000095DE  635374            arpl [ebx+0x74],dx
000095E1  3131              xor [ecx],esi
000095E3  636861            arpl [eax+0x61],bp
000095E6  725F              jc 0x9647
000095E8  7472              jz 0x965c
000095EA  61                popa
000095EB  6974734963454543  imul esi,[ebx+esi*2+0x49],dword 0x43454563
000095F3  314550            xor [ebp+0x50],eax
000095F6  4B                dec ebx
000095F7  635374            arpl [ebx+0x74],dx
000095FA  3133              xor [ebx],esi
000095FC  5F                pop edi
000095FD  49                dec ecx
000095FE  6F                outsd
000095FF  735F              jnc 0x9660
00009601  4F                dec edi
00009602  7065              jo 0x9669
00009604  6E                outsb
00009605  6D                insd
00009606  6F                outsd
00009607  646540            gs inc eax
0000960A  40                inc eax
0000960B  47                inc edi
0000960C  4C                dec esp
0000960D  49                dec ecx
0000960E  42                inc edx
0000960F  43                inc ebx
00009610  58                pop eax
00009611  58                pop eax
00009612  5F                pop edi
00009613  332E              xor ebp,[esi]
00009615  3400              xor al,0x0
00009617  5F                pop edi
00009618  5A                pop edx
00009619  53                push ebx
0000961A  7431              jz 0x964d
0000961C  385F52            cmp [edi+0x52],bl
0000961F  625F74            bound ebx,[edi+0x74]
00009622  7265              jc 0x9689
00009624  655F              gs pop edi
00009626  696E6372656D65    imul ebp,[esi+0x63],dword 0x656d6572
0000962D  6E                outsb
0000962E  7450              jz 0x9680
00009630  53                push ebx
00009631  7431              jz 0x9664
00009633  385F52            cmp [edi+0x52],bl
00009636  625F74            bound ebx,[edi+0x74]
00009639  7265              jc 0x96a0
0000963B  655F              gs pop edi
0000963D  6E                outsb
0000963E  6F                outsd
0000963F  64655F            gs pop edi
00009642  626173            bound esp,[ecx+0x73]
00009645  6540              gs inc eax
00009647  40                inc eax
00009648  47                inc edi
00009649  4C                dec esp
0000964A  49                dec ecx
0000964B  42                inc edx
0000964C  43                inc ebx
0000964D  58                pop eax
0000964E  58                pop eax
0000964F  5F                pop edi
00009650  332E              xor ebp,[esi]
00009652  3400              xor al,0x0
00009654  5F                pop edi
00009655  5A                pop edx
00009656  53                push ebx
00009657  7431              jz 0x968a
00009659  315F5F            xor [edi+0x5f],ebx
0000965C  61                popa
0000965D  64647265          fs jc 0x96c6
00009661  7373              jnc 0x96d6
00009663  6F                outsd
00009664  6649              dec cx
00009666  53                push ebx
00009667  7434              jz 0x969d
00009669  7061              jo 0x96cc
0000966B  6972494B636945    imul esi,[edx+0x49],dword 0x4569634b
00009672  45                inc ebp
00009673  50                push eax
00009674  54                push esp
00009675  5F                pop edi
00009676  52                push edx
00009677  53                push ebx
00009678  335F00            xor ebx,[edi+0x0]
0000967B  5F                pop edi
0000967C  5A                pop edx
0000967D  4E                dec esi
0000967E  53                push ebx
0000967F  7438              jz 0x96b9
00009681  5F                pop edi
00009682  52                push edx
00009683  625F74            bound ebx,[edi+0x74]
00009686  7265              jc 0x96ed
00009688  6549              gs dec ecx
0000968A  53                push ebx
0000968B  7353              jnc 0x96e0
0000968D  7353              jnc 0x96e2
0000968F  7439              jz 0x96ca
00009691  5F                pop edi
00009692  49                dec ecx
00009693  64656E            gs outsb
00009696  7469              jz 0x9701
00009698  7479              jz 0x9713
0000969A  49                dec ecx
0000969B  53                push ebx
0000969C  7345              jnc 0x96e3
0000969E  53                push ebx
0000969F  7434              jz 0x96d5
000096A1  6C                insb
000096A2  657373            gs jnc 0x9718
000096A5  49                dec ecx
000096A6  53                push ebx
000096A7  7345              jnc 0x96ee
000096A9  53                push ebx
000096AA  61                popa
000096AB  49                dec ecx
000096AC  53                push ebx
000096AD  7345              jnc 0x96f4
000096AF  45                inc ebp
000096B0  3133              xor [ebx],esi
000096B2  5F                pop edi
000096B3  52                push edx
000096B4  625F74            bound ebx,[edi+0x74]
000096B7  7265              jc 0x971e
000096B9  655F              gs pop edi
000096BB  696D706C495333    imul ebp,[ebp+0x70],dword 0x3353496c
000096C2  5F                pop edi
000096C3  4C                dec esp
000096C4  6230              bound esi,[eax]
000096C6  45                inc ebp
000096C7  45                inc ebp
000096C8  3133              xor [ebx],esi
000096CA  5F                pop edi
000096CB  4D                dec ebp
000096CC  5F                pop edi
000096CD  696E697469616C    imul ebp,[esi+0x69],dword 0x6c616974
000096D4  697A654576005F    imul edi,[edx+0x65],dword 0x5f007645
000096DB  5F                pop edi
000096DC  637861            arpl [eax+0x61],di
000096DF  5F                pop edi
000096E0  656E              gs outsb
000096E2  645F              fs pop edi
000096E4  636174            arpl [ecx+0x74],sp
000096E7  636840            arpl [eax+0x40],bp
000096EA  40                inc eax
000096EB  43                inc ebx
000096EC  58                pop eax
000096ED  58                pop eax
000096EE  41                inc ecx
000096EF  42                inc edx
000096F0  49                dec ecx
000096F1  5F                pop edi
000096F2  312E              xor [esi],ebp
000096F4  3300              xor eax,[eax]
000096F6  5F                pop edi
000096F7  5A                pop edx
000096F8  53                push ebx
000096F9  7431              jz 0x972c
000096FB  37                aaa
000096FC  5F                pop edi
000096FD  5F                pop edi
000096FE  7468              jz 0x9768
00009700  726F              jc 0x9771
00009702  775F              ja 0x9763
00009704  626164            bound esp,[ecx+0x64]
00009707  5F                pop edi
00009708  61                popa
00009709  6C                insb
0000970A  6C                insb
0000970B  6F                outsd
0000970C  637640            arpl [esi+0x40],si
0000970F  40                inc eax
00009710  47                inc edi
00009711  4C                dec esp
00009712  49                dec ecx
00009713  42                inc edx
00009714  43                inc ebx
00009715  58                pop eax
00009716  58                pop eax
00009717  5F                pop edi
00009718  332E              xor ebp,[esi]
0000971A  3400              xor al,0x0
0000971C  5F                pop edi
0000971D  5A                pop edx
0000971E  4E                dec esi
0000971F  53                push ebx
00009720  7438              jz 0x975a
00009722  5F                pop edi
00009723  52                push edx
00009724  625F74            bound ebx,[edi+0x74]
00009727  7265              jc 0x978e
00009729  6549              gs dec ecx
0000972B  53                push ebx
0000972C  7353              jnc 0x9781
0000972E  7353              jnc 0x9783
00009730  7439              jz 0x976b
00009732  5F                pop edi
00009733  49                dec ecx
00009734  64656E            gs outsb
00009737  7469              jz 0x97a2
00009739  7479              jz 0x97b4
0000973B  49                dec ecx
0000973C  53                push ebx
0000973D  7345              jnc 0x9784
0000973F  53                push ebx
00009740  7434              jz 0x9776
00009742  6C                insb
00009743  657373            gs jnc 0x97b9
00009746  49                dec ecx
00009747  53                push ebx
00009748  7345              jnc 0x978f
0000974A  53                push ebx
0000974B  61                popa
0000974C  49                dec ecx
0000974D  53                push ebx
0000974E  7345              jnc 0x9795
00009750  45                inc ebp
00009751  385F53            cmp [edi+0x53],bl
00009754  5F                pop edi
00009755  7661              jna 0x97b8
00009757  6C                insb
00009758  7565              jnz 0x97bf
0000975A  45                inc ebp
0000975B  50                push eax
0000975C  4B                dec ebx
0000975D  53                push ebx
0000975E  7431              jz 0x9791
00009760  335F52            xor ebx,[edi+0x52]
00009763  625F74            bound ebx,[edi+0x74]
00009766  7265              jc 0x97cd
00009768  655F              gs pop edi
0000976A  6E                outsb
0000976B  6F                outsd
0000976C  646549            gs dec ecx
0000976F  53                push ebx
00009770  7345              jnc 0x97b7
00009772  005F5A            add [edi+0x5a],bl
00009775  4E                dec esi
00009776  4B                dec ebx
00009777  53                push ebx
00009778  7431              jz 0x97ab
0000977A  37                aaa
0000977B  5F                pop edi
0000977C  52                push edx
0000977D  625F74            bound ebx,[edi+0x74]
00009780  7265              jc 0x97e7
00009782  655F              gs pop edi
00009784  6974657261746F72  imul esi,[ebp+0x72],dword 0x726f7461
0000978C  49                dec ecx
0000978D  53                push ebx
0000978E  7345              jnc 0x97d5
00009790  657145            gs jno 0x97d8
00009793  52                push edx
00009794  4B                dec ebx
00009795  53                push ebx
00009796  305F00            xor [edi+0x0],bl
00009799  5F                pop edi
0000979A  5A                pop edx
0000979B  4E                dec esi
0000979C  53                push ebx
0000979D  7438              jz 0x97d7
0000979F  5F                pop edi
000097A0  52                push edx
000097A1  625F74            bound ebx,[edi+0x74]
000097A4  7265              jc 0x980b
000097A6  6549              gs dec ecx
000097A8  635374            arpl [ebx+0x74],dx
000097AB  3470              xor al,0x70
000097AD  61                popa
000097AE  6972494B636945    imul esi,[edx+0x49],dword 0x4569634b
000097B5  53                push ebx
000097B6  7431              jz 0x97e9
000097B8  305F53            xor [edi+0x53],bl
000097BB  656C              gs insb
000097BD  6563743173        arpl [gs:ecx+esi+0x73],si
000097C2  7449              jz 0x980d
000097C4  53                push ebx
000097C5  325F45            xor bl,[edi+0x45]
000097C8  53                push ebx
000097C9  7434              jz 0x97ff
000097CB  6C                insb
000097CC  657373            gs jnc 0x9842
000097CF  49                dec ecx
000097D0  634553            arpl [ebp+0x53],ax
000097D3  61                popa
000097D4  49                dec ecx
000097D5  53                push ebx
000097D6  325F45            xor bl,[edi+0x45]
000097D9  45                inc ebp
000097DA  43                inc ebx
000097DB  324576            xor al,[ebp+0x76]
000097DE  005F5A            add [edi+0x5a],bl
000097E1  4E                dec esi
000097E2  4B                dec ebx
000097E3  53                push ebx
000097E4  7434              jz 0x981a
000097E6  6C                insb
000097E7  657373            gs jnc 0x985d
000097EA  49                dec ecx
000097EB  634563            arpl [ebp+0x63],ax
000097EE  6C                insb
000097EF  45                inc ebp
000097F0  52                push edx
000097F1  4B                dec ebx
000097F2  635332            arpl [ebx+0x32],dx
000097F5  5F                pop edi
000097F6  005F5A            add [edi+0x5a],bl
000097F9  4E                dec esi
000097FA  53                push ebx
000097FB  7438              jz 0x9835
000097FD  5F                pop edi
000097FE  52                push edx
000097FF  625F74            bound ebx,[edi+0x74]
00009802  7265              jc 0x9869
00009804  6549              gs dec ecx
00009806  53                push ebx
00009807  7353              jnc 0x985c
00009809  7353              jnc 0x985e
0000980B  7439              jz 0x9846
0000980D  5F                pop edi
0000980E  49                dec ecx
0000980F  64656E            gs outsb
00009812  7469              jz 0x987d
00009814  7479              jz 0x988f
00009816  49                dec ecx
00009817  53                push ebx
00009818  7345              jnc 0x985f
0000981A  53                push ebx
0000981B  7434              jz 0x9851
0000981D  6C                insb
0000981E  657373            gs jnc 0x9894
00009821  49                dec ecx
00009822  53                push ebx
00009823  7345              jnc 0x986a
00009825  53                push ebx
00009826  61                popa
00009827  49                dec ecx
00009828  53                push ebx
00009829  7345              jnc 0x9870
0000982B  45                inc ebp
0000982C  31355F4D5F64      xor [0x645f4d5f],esi
00009832  657374            gs jnc 0x98a9
00009835  726F              jc 0x98a6
00009837  795F              jns 0x9898
00009839  6E                outsb
0000983A  6F                outsd
0000983B  646545            gs inc ebp
0000983E  50                push eax
0000983F  53                push ebx
00009840  7431              jz 0x9873
00009842  335F52            xor ebx,[edi+0x52]
00009845  625F74            bound ebx,[edi+0x74]
00009848  7265              jc 0x98af
0000984A  655F              gs pop edi
0000984C  6E                outsb
0000984D  6F                outsd
0000984E  646549            gs dec ecx
00009851  53                push ebx
00009852  7345              jnc 0x9899
00009854  005F5A            add [edi+0x5a],bl
00009857  4E                dec esi
00009858  395F5F            cmp [edi+0x5f],ebx
0000985B  676E              a16 outsb
0000985D  755F              jnz 0x98be
0000985F  637878            arpl [eax+0x78],di
00009862  3133              xor [ebx],esi
00009864  6E                outsb
00009865  65775F            gs ja 0x98c7
00009868  61                popa
00009869  6C                insb
0000986A  6C                insb
0000986B  6F                outsd
0000986C  636174            arpl [ecx+0x74],sp
0000986F  6F                outsd
00009870  7249              jc 0x98bb
00009872  53                push ebx
00009873  7431              jz 0x98a6
00009875  335F52            xor ebx,[edi+0x52]
00009878  625F74            bound ebx,[edi+0x74]
0000987B  7265              jc 0x98e2
0000987D  655F              gs pop edi
0000987F  6E                outsb
00009880  6F                outsd
00009881  646549            gs dec ecx
00009884  53                push ebx
00009885  7434              jz 0x98bb
00009887  7061              jo 0x98ea
00009889  6972494B636945    imul esi,[edx+0x49],dword 0x4569634b
00009890  45                inc ebp
00009891  45                inc ebp
00009892  44                inc esp
00009893  314576            xor [ebp+0x76],eax
00009896  005F5A            add [edi+0x5a],bl
00009899  4E                dec esi
0000989A  53                push ebx
0000989B  7433              jz 0x98d0
0000989D  6D                insd
0000989E  61                popa
0000989F  7049              jo 0x98ea
000098A1  636953            arpl [ecx+0x53],bp
000098A4  7434              jz 0x98da
000098A6  6C                insb
000098A7  657373            gs jnc 0x991d
000098AA  49                dec ecx
000098AB  634553            arpl [ebp+0x53],ax
000098AE  61                popa
000098AF  49                dec ecx
000098B0  53                push ebx
000098B1  7434              jz 0x98e7
000098B3  7061              jo 0x9916
000098B5  6972494B636945    imul esi,[edx+0x49],dword 0x4569634b
000098BC  45                inc ebp
000098BD  45                inc ebp
000098BE  3562656769        xor eax,0x69676562
000098C3  6E                outsb
000098C4  45                inc ebp
000098C5  7600              jna 0x98c7
000098C7  5F                pop edi
000098C8  5A                pop edx
000098C9  53                push ebx
000098CA  7434              jz 0x9900
000098CC  656E              gs outsb
000098CE  646C              fs insb
000098D0  49                dec ecx
000098D1  635374            arpl [ebx+0x74],dx
000098D4  3131              xor [ecx],esi
000098D6  636861            arpl [eax+0x61],bp
000098D9  725F              jc 0x993a
000098DB  7472              jz 0x994f
000098DD  61                popa
000098DE  6974734963454552  imul esi,[ebx+esi*2+0x49],dword 0x52454563
000098E6  53                push ebx
000098E7  7431              jz 0x991a
000098E9  336261            xor esp,[edx+0x61]
000098EC  7369              jnc 0x9957
000098EE  635F6F            arpl [edi+0x6f],bx
000098F1  7374              jnc 0x9967
000098F3  7265              jc 0x995a
000098F5  61                popa
000098F6  6D                insd
000098F7  49                dec ecx
000098F8  54                push esp
000098F9  5F                pop edi
000098FA  54                push esp
000098FB  305F45            xor [edi+0x45],bl
000098FE  53                push ebx
000098FF  365F              ss pop edi
00009901  40                inc eax
00009902  40                inc eax
00009903  47                inc edi
00009904  4C                dec esp
00009905  49                dec ecx
00009906  42                inc edx
00009907  43                inc ebx
00009908  58                pop eax
00009909  58                pop eax
0000990A  5F                pop edi
0000990B  332E              xor ebp,[esi]
0000990D  3400              xor al,0x0
0000990F  5F                pop edi
00009910  5F                pop edi
00009911  637861            arpl [eax+0x61],di
00009914  5F                pop edi
00009915  626567            bound esp,[ebp+0x67]
00009918  696E5F63617463    imul ebp,[esi+0x5f],dword 0x63746163
0000991F  6840404358        push dword 0x58434040
00009924  58                pop eax
00009925  41                inc ecx
00009926  42                inc edx
00009927  49                dec ecx
00009928  5F                pop edi
00009929  312E              xor [esi],ebp
0000992B  3300              xor eax,[eax]
0000992D  5F                pop edi
0000992E  5A                pop edx
0000992F  4E                dec esi
00009930  53                push ebx
00009931  7438              jz 0x996b
00009933  5F                pop edi
00009934  52                push edx
00009935  625F74            bound ebx,[edi+0x74]
00009938  7265              jc 0x999f
0000993A  6549              gs dec ecx
0000993C  635374            arpl [ebx+0x74],dx
0000993F  3470              xor al,0x70
00009941  61                popa
00009942  6972494B636945    imul esi,[edx+0x49],dword 0x4569634b
00009949  53                push ebx
0000994A  7431              jz 0x997d
0000994C  305F53            xor [edi+0x53],bl
0000994F  656C              gs insb
00009951  6563743173        arpl [gs:ecx+esi+0x73],si
00009956  7449              jz 0x99a1
00009958  53                push ebx
00009959  325F45            xor bl,[edi+0x45]
0000995C  53                push ebx
0000995D  7434              jz 0x9993
0000995F  6C                insb
00009960  657373            gs jnc 0x99d6
00009963  49                dec ecx
00009964  634553            arpl [ebp+0x53],ax
00009967  61                popa
00009968  49                dec ecx
00009969  53                push ebx
0000996A  325F45            xor bl,[edi+0x45]
0000996D  45                inc ebp
0000996E  31345F            xor [edi+ebx*2],esi
00009971  4D                dec ebp
00009972  5F                pop edi
00009973  637265            arpl [edx+0x65],si
00009976  61                popa
00009977  7465              jz 0x99de
00009979  5F                pop edi
0000997A  6E                outsb
0000997B  6F                outsd
0000997C  646545            gs inc ebp
0000997F  52                push edx
00009980  4B                dec ebx
00009981  53                push ebx
00009982  325F00            xor bl,[edi+0x0]
00009985  5F                pop edi
00009986  5A                pop edx
00009987  4E                dec esi
00009988  4B                dec ebx
00009989  53                push ebx
0000998A  7432              jz 0x99be
0000998C  335F52            xor ebx,[edi+0x52]
0000998F  625F74            bound ebx,[edi+0x74]
00009992  7265              jc 0x99f9
00009994  655F              gs pop edi
00009996  636F6E            arpl [edi+0x6e],bp
00009999  7374              jnc 0x9a0f
0000999B  5F                pop edi
0000999C  6974657261746F72  imul esi,[ebp+0x72],dword 0x726f7461
000099A4  49                dec ecx
000099A5  53                push ebx
000099A6  7345              jnc 0x99ed
000099A8  6E                outsb
000099A9  6545              gs inc ebp
000099AB  52                push edx
000099AC  4B                dec ebx
000099AD  53                push ebx
000099AE  305F00            xor [edi+0x0],bl
000099B1  5F                pop edi
000099B2  5A                pop edx
000099B3  4E                dec esi
000099B4  4B                dec ebx
000099B5  53                push ebx
000099B6  7432              jz 0x99ea
000099B8  335F52            xor ebx,[edi+0x52]
000099BB  625F74            bound ebx,[edi+0x74]
000099BE  7265              jc 0x9a25
000099C0  655F              gs pop edi
000099C2  636F6E            arpl [edi+0x6e],bp
000099C5  7374              jnc 0x9a3b
000099C7  5F                pop edi
000099C8  6974657261746F72  imul esi,[ebp+0x72],dword 0x726f7461
000099D0  49                dec ecx
000099D1  53                push ebx
000099D2  7434              jz 0x9a08
000099D4  7061              jo 0x9a37
000099D6  6972494B636945    imul esi,[edx+0x49],dword 0x4569634b
000099DD  45                inc ebp
000099DE  3133              xor [ebx],esi
000099E0  5F                pop edi
000099E1  4D                dec ebp
000099E2  5F                pop edi
000099E3  636F6E            arpl [edi+0x6e],bp
000099E6  7374              jnc 0x9a5c
000099E8  5F                pop edi
000099E9  636173            arpl [ecx+0x73],sp
000099EC  7445              jz 0x9a33
000099EE  7600              jna 0x99f0
000099F0  5F                pop edi
000099F1  5A                pop edx
000099F2  4E                dec esi
000099F3  53                push ebx
000099F4  7438              jz 0x9a2e
000099F6  5F                pop edi
000099F7  52                push edx
000099F8  625F74            bound ebx,[edi+0x74]
000099FB  7265              jc 0x9a62
000099FD  6549              gs dec ecx
000099FF  53                push ebx
00009A00  7353              jnc 0x9a55
00009A02  7353              jnc 0x9a57
00009A04  7439              jz 0x9a3f
00009A06  5F                pop edi
00009A07  49                dec ecx
00009A08  64656E            gs outsb
00009A0B  7469              jz 0x9a76
00009A0D  7479              jz 0x9a88
00009A0F  49                dec ecx
00009A10  53                push ebx
00009A11  7345              jnc 0x9a58
00009A13  53                push ebx
00009A14  7434              jz 0x9a4a
00009A16  6C                insb
00009A17  657373            gs jnc 0x9a8d
00009A1A  49                dec ecx
00009A1B  53                push ebx
00009A1C  7345              jnc 0x9a63
00009A1E  53                push ebx
00009A1F  61                popa
00009A20  49                dec ecx
00009A21  53                push ebx
00009A22  7345              jnc 0x9a69
00009A24  45                inc ebp
00009A25  3133              xor [ebx],esi
00009A27  5F                pop edi
00009A28  52                push edx
00009A29  625F74            bound ebx,[edi+0x74]
00009A2C  7265              jc 0x9a93
00009A2E  655F              gs pop edi
00009A30  696D706C495333    imul ebp,[ebp+0x70],dword 0x3353496c
00009A37  5F                pop edi
00009A38  4C                dec esp
00009A39  6230              bound esi,[eax]
00009A3B  45                inc ebp
00009A3C  45                inc ebp
00009A3D  44                inc esp
00009A3E  314576            xor [ebp+0x76],eax
00009A41  005F65            add [edi+0x65],bl
00009A44  6461              fs popa
00009A46  7461              jz 0x9aa9
00009A48  005F5A            add [edi+0x5a],bl
00009A4B  4E                dec esi
00009A4C  53                push ebx
00009A4D  7438              jz 0x9a87
00009A4F  5F                pop edi
00009A50  52                push edx
00009A51  625F74            bound ebx,[edi+0x74]
00009A54  7265              jc 0x9abb
00009A56  6549              gs dec ecx
00009A58  635374            arpl [ebx+0x74],dx
00009A5B  3470              xor al,0x70
00009A5D  61                popa
00009A5E  6972494B636945    imul esi,[edx+0x49],dword 0x4569634b
00009A65  53                push ebx
00009A66  7431              jz 0x9a99
00009A68  305F53            xor [edi+0x53],bl
00009A6B  656C              gs insb
00009A6D  6563743173        arpl [gs:ecx+esi+0x73],si
00009A72  7449              jz 0x9abd
00009A74  53                push ebx
00009A75  325F45            xor bl,[edi+0x45]
00009A78  53                push ebx
00009A79  7434              jz 0x9aaf
00009A7B  6C                insb
00009A7C  657373            gs jnc 0x9af2
00009A7F  49                dec ecx
00009A80  634553            arpl [ebp+0x53],ax
00009A83  61                popa
00009A84  49                dec ecx
00009A85  53                push ebx
00009A86  325F45            xor bl,[edi+0x45]
00009A89  45                inc ebp
00009A8A  44                inc esp
00009A8B  324576            xor al,[ebp+0x76]
00009A8E  005F5A            add [edi+0x5a],bl
00009A91  4E                dec esi
00009A92  4B                dec ebx
00009A93  53                push ebx
00009A94  7438              jz 0x9ace
00009A96  5F                pop edi
00009A97  52                push edx
00009A98  625F74            bound ebx,[edi+0x74]
00009A9B  7265              jc 0x9b02
00009A9D  6549              gs dec ecx
00009A9F  635374            arpl [ebx+0x74],dx
00009AA2  3470              xor al,0x70
00009AA4  61                popa
00009AA5  6972494B636945    imul esi,[edx+0x49],dword 0x4569634b
00009AAC  53                push ebx
00009AAD  7431              jz 0x9ae0
00009AAF  305F53            xor [edi+0x53],bl
00009AB2  656C              gs insb
00009AB4  6563743173        arpl [gs:ecx+esi+0x73],si
00009AB9  7449              jz 0x9b04
00009ABB  53                push ebx
00009ABC  325F45            xor bl,[edi+0x45]
00009ABF  53                push ebx
00009AC0  7434              jz 0x9af6
00009AC2  6C                insb
00009AC3  657373            gs jnc 0x9b39
00009AC6  49                dec ecx
00009AC7  634553            arpl [ebp+0x53],ax
00009ACA  61                popa
00009ACB  49                dec ecx
00009ACC  53                push ebx
00009ACD  325F45            xor bl,[edi+0x45]
00009AD0  45                inc ebp
00009AD1  3133              xor [ebx],esi
00009AD3  6765745F          gs a16 jz 0x9b36
00009AD7  61                popa
00009AD8  6C                insb
00009AD9  6C                insb
00009ADA  6F                outsd
00009ADB  636174            arpl [ecx+0x74],sp
00009ADE  6F                outsd
00009ADF  7245              jc 0x9b26
00009AE1  7600              jna 0x9ae3
00009AE3  5F                pop edi
00009AE4  5A                pop edx
00009AE5  4E                dec esi
00009AE6  53                push ebx
00009AE7  61                popa
00009AE8  49                dec ecx
00009AE9  634543            arpl [ebp+0x43],ax
00009AEC  314576            xor [ebp+0x76],eax
00009AEF  40                inc eax
00009AF0  40                inc eax
00009AF1  47                inc edi
00009AF2  4C                dec esp
00009AF3  49                dec ecx
00009AF4  42                inc edx
00009AF5  43                inc ebx
00009AF6  58                pop eax
00009AF7  58                pop eax
00009AF8  5F                pop edi
00009AF9  332E              xor ebp,[esi]
00009AFB  3400              xor al,0x0
00009AFD  5F                pop edi
00009AFE  5A                pop edx
00009AFF  646C              fs insb
00009B01  50                push eax
00009B02  7653              jna 0x9b57
00009B04  5F                pop edi
00009B05  005F5F            add [edi+0x5f],bl
00009B08  677878            a16 js 0x9b83
00009B0B  5F                pop edi
00009B0C  7065              jo 0x9b73
00009B0E  7273              jc 0x9b83
00009B10  6F                outsd
00009B11  6E                outsb
00009B12  61                popa
00009B13  6C                insb
00009B14  6974795F76304040  imul esi,[ecx+edi*2+0x5f],dword 0x40403076
00009B1C  43                inc ebx
00009B1D  58                pop eax
00009B1E  58                pop eax
00009B1F  41                inc ecx
00009B20  42                inc edx
00009B21  49                dec ecx
00009B22  5F                pop edi
00009B23  312E              xor [esi],ebp
00009B25  3300              xor eax,[eax]
00009B27  5F                pop edi
00009B28  5A                pop edx
00009B29  4E                dec esi
00009B2A  4B                dec ebx
00009B2B  53                push ebx
00009B2C  7433              jz 0x9b61
00009B2E  7365              jnc 0x9b95
00009B30  7449              jz 0x9b7b
00009B32  53                push ebx
00009B33  7353              jnc 0x9b88
00009B35  7434              jz 0x9b6b
00009B37  6C                insb
00009B38  657373            gs jnc 0x9bae
00009B3B  49                dec ecx
00009B3C  53                push ebx
00009B3D  7345              jnc 0x9b84
00009B3F  53                push ebx
00009B40  61                popa
00009B41  49                dec ecx
00009B42  53                push ebx
00009B43  7345              jnc 0x9b8a
00009B45  45                inc ebp
00009B46  3562656769        xor eax,0x69676562
00009B4B  6E                outsb
00009B4C  45                inc ebp
00009B4D  7600              jna 0x9b4f
00009B4F  5F                pop edi
00009B50  5A                pop edx
00009B51  4E                dec esi
00009B52  4B                dec ebx
00009B53  53                push ebx
00009B54  7439              jz 0x9b8f
00009B56  5F                pop edi
00009B57  49                dec ecx
00009B58  64656E            gs outsb
00009B5B  7469              jz 0x9bc6
00009B5D  7479              jz 0x9bd8
00009B5F  49                dec ecx
00009B60  53                push ebx
00009B61  7345              jnc 0x9ba8
00009B63  636C4552          arpl [ebp+eax*2+0x52],bp
00009B67  4B                dec ebx
00009B68  53                push ebx
00009B69  7300              jnc 0x9b6b
00009B6B  5F                pop edi
00009B6C  5A                pop edx
00009B6D  4E                dec esi
00009B6E  53                push ebx
00009B6F  61                popa
00009B70  49                dec ecx
00009B71  53                push ebx
00009B72  7431              jz 0x9ba5
00009B74  335F52            xor ebx,[edi+0x52]
00009B77  625F74            bound ebx,[edi+0x74]
00009B7A  7265              jc 0x9be1
00009B7C  655F              gs pop edi
00009B7E  6E                outsb
00009B7F  6F                outsd
00009B80  646549            gs dec ecx
00009B83  53                push ebx
00009B84  7434              jz 0x9bba
00009B86  7061              jo 0x9be9
00009B88  6972494B636945    imul esi,[edx+0x49],dword 0x4569634b
00009B8F  45                inc ebp
00009B90  45                inc ebp
00009B91  44                inc esp
00009B92  324576            xor al,[ebp+0x76]
00009B95  005F55            add [edi+0x55],bl
00009B98  6E                outsb
00009B99  7769              ja 0x9c04
00009B9B  6E                outsb
00009B9C  645F              fs pop edi
00009B9E  52                push edx
00009B9F  657375            gs jnc 0x9c17
00009BA2  6D                insd
00009BA3  6540              gs inc eax
00009BA5  40                inc eax
00009BA6  47                inc edi
00009BA7  43                inc ebx
00009BA8  43                inc ebx
00009BA9  5F                pop edi
00009BAA  332E              xor ebp,[esi]
00009BAC  3000              xor [eax],al
00009BAE  5F                pop edi
00009BAF  5A                pop edx
00009BB0  4E                dec esi
00009BB1  53                push ebx
00009BB2  7438              jz 0x9bec
00009BB4  5F                pop edi
00009BB5  52                push edx
00009BB6  625F74            bound ebx,[edi+0x74]
00009BB9  7265              jc 0x9c20
00009BBB  6549              gs dec ecx
00009BBD  635374            arpl [ebx+0x74],dx
00009BC0  3470              xor al,0x70
00009BC2  61                popa
00009BC3  6972494B636945    imul esi,[edx+0x49],dword 0x4569634b
00009BCA  53                push ebx
00009BCB  7431              jz 0x9bfe
00009BCD  305F53            xor [edi+0x53],bl
00009BD0  656C              gs insb
00009BD2  6563743173        arpl [gs:ecx+esi+0x73],si
00009BD7  7449              jz 0x9c22
00009BD9  53                push ebx
00009BDA  325F45            xor bl,[edi+0x45]
00009BDD  53                push ebx
00009BDE  7434              jz 0x9c14
00009BE0  6C                insb
00009BE1  657373            gs jnc 0x9c57
00009BE4  49                dec ecx
00009BE5  634553            arpl [ebp+0x53],ax
00009BE8  61                popa
00009BE9  49                dec ecx
00009BEA  53                push ebx
00009BEB  325F45            xor bl,[edi+0x45]
00009BEE  45                inc ebp
00009BEF  3131              xor [ecx],esi
00009BF1  5F                pop edi
00009BF2  4D                dec ebp
00009BF3  5F                pop edi
00009BF4  6765745F          gs a16 jz 0x9c57
00009BF8  6E                outsb
00009BF9  6F                outsd
00009BFA  646545            gs inc ebp
00009BFD  7600              jna 0x9bff
00009BFF  5F                pop edi
00009C00  5A                pop edx
00009C01  4E                dec esi
00009C02  53                push ebx
00009C03  7438              jz 0x9c3d
00009C05  5F                pop edi
00009C06  52                push edx
00009C07  625F74            bound ebx,[edi+0x74]
00009C0A  7265              jc 0x9c71
00009C0C  6549              gs dec ecx
00009C0E  53                push ebx
00009C0F  7353              jnc 0x9c64
00009C11  7353              jnc 0x9c66
00009C13  7439              jz 0x9c4e
00009C15  5F                pop edi
00009C16  49                dec ecx
00009C17  64656E            gs outsb
00009C1A  7469              jz 0x9c85
00009C1C  7479              jz 0x9c97
00009C1E  49                dec ecx
00009C1F  53                push ebx
00009C20  7345              jnc 0x9c67
00009C22  53                push ebx
00009C23  7434              jz 0x9c59
00009C25  6C                insb
00009C26  657373            gs jnc 0x9c9c
00009C29  49                dec ecx
00009C2A  53                push ebx
00009C2B  7345              jnc 0x9c72
00009C2D  53                push ebx
00009C2E  61                popa
00009C2F  49                dec ecx
00009C30  53                push ebx
00009C31  7345              jnc 0x9c78
00009C33  45                inc ebp
00009C34  385F53            cmp [edi+0x53],bl
00009C37  5F                pop edi
00009C38  7269              jc 0x9ca3
00009C3A  676874455053      a16 push dword 0x53504574
00009C40  7431              jz 0x9c73
00009C42  385F52            cmp [edi+0x52],bl
00009C45  625F74            bound ebx,[edi+0x74]
00009C48  7265              jc 0x9caf
00009C4A  655F              gs pop edi
00009C4C  6E                outsb
00009C4D  6F                outsd
00009C4E  64655F            gs pop edi
00009C51  626173            bound esp,[ecx+0x73]
00009C54  65005F5A          add [gs:edi+0x5a],bl
00009C58  4E                dec esi
00009C59  53                push ebx
00009C5A  7438              jz 0x9c94
00009C5C  5F                pop edi
00009C5D  52                push edx
00009C5E  625F74            bound ebx,[edi+0x74]
00009C61  7265              jc 0x9cc8
00009C63  6549              gs dec ecx
00009C65  53                push ebx
00009C66  7353              jnc 0x9cbb
00009C68  7353              jnc 0x9cbd
00009C6A  7439              jz 0x9ca5
00009C6C  5F                pop edi
00009C6D  49                dec ecx
00009C6E  64656E            gs outsb
00009C71  7469              jz 0x9cdc
00009C73  7479              jz 0x9cee
00009C75  49                dec ecx
00009C76  53                push ebx
00009C77  7345              jnc 0x9cbe
00009C79  53                push ebx
00009C7A  7434              jz 0x9cb0
00009C7C  6C                insb
00009C7D  657373            gs jnc 0x9cf3
00009C80  49                dec ecx
00009C81  53                push ebx
00009C82  7345              jnc 0x9cc9
00009C84  53                push ebx
00009C85  61                popa
00009C86  49                dec ecx
00009C87  53                push ebx
00009C88  7345              jnc 0x9ccf
00009C8A  45                inc ebp
00009C8B  3136              xor [esi],esi
00009C8D  5F                pop edi
00009C8E  4D                dec ebp
00009C8F  5F                pop edi
00009C90  696E736572745F    imul ebp,[esi+0x73],dword 0x5f747265
00009C97  756E              jnz 0x9d07
00009C99  6971756545524B    imul esi,[ecx+0x75],dword 0x4b524565
00009CA0  53                push ebx
00009CA1  7300              jnc 0x9ca3
00009CA3  5F                pop edi
00009CA4  5A                pop edx
00009CA5  4E                dec esi
00009CA6  53                push ebx
00009CA7  7438              jz 0x9ce1
00009CA9  5F                pop edi
00009CAA  52                push edx
00009CAB  625F74            bound ebx,[edi+0x74]
00009CAE  7265              jc 0x9d15
00009CB0  6549              gs dec ecx
00009CB2  635374            arpl [ebx+0x74],dx
00009CB5  3470              xor al,0x70
00009CB7  61                popa
00009CB8  6972494B636945    imul esi,[edx+0x49],dword 0x4569634b
00009CBF  53                push ebx
00009CC0  7431              jz 0x9cf3
00009CC2  305F53            xor [edi+0x53],bl
00009CC5  656C              gs insb
00009CC7  6563743173        arpl [gs:ecx+esi+0x73],si
00009CCC  7449              jz 0x9d17
00009CCE  53                push ebx
00009CCF  325F45            xor bl,[edi+0x45]
00009CD2  53                push ebx
00009CD3  7434              jz 0x9d09
00009CD5  6C                insb
00009CD6  657373            gs jnc 0x9d4c
00009CD9  49                dec ecx
00009CDA  634553            arpl [ebp+0x53],ax
00009CDD  61                popa
00009CDE  49                dec ecx
00009CDF  53                push ebx
00009CE0  325F45            xor bl,[edi+0x45]
00009CE3  45                inc ebp
00009CE4  3131              xor [ecx],esi
00009CE6  5F                pop edi
00009CE7  4D                dec ebp
00009CE8  5F                pop edi
00009CE9  6C                insb
00009CEA  6566746D          gs o16 jz 0x9d5b
00009CEE  6F                outsd
00009CEF  7374              jnc 0x9d65
00009CF1  45                inc ebp
00009CF2  7600              jna 0x9cf4
00009CF4  5F                pop edi
00009CF5  5A                pop edx
00009CF6  4E                dec esi
00009CF7  53                push ebx
00009CF8  7434              jz 0x9d2e
00009CFA  7061              jo 0x9d5d
00009CFC  69724953743233    imul esi,[edx+0x49],dword 0x33327453
00009D03  5F                pop edi
00009D04  52                push edx
00009D05  625F74            bound ebx,[edi+0x74]
00009D08  7265              jc 0x9d6f
00009D0A  655F              gs pop edi
00009D0C  636F6E            arpl [edi+0x6e],bp
00009D0F  7374              jnc 0x9d85
00009D11  5F                pop edi
00009D12  6974657261746F72  imul esi,[ebp+0x72],dword 0x726f7461
00009D1A  49                dec ecx
00009D1B  53                push ebx
00009D1C  7345              jnc 0x9d63
00009D1E  624543            bound eax,[ebp+0x43]
00009D21  324552            xor al,[ebp+0x52]
00009D24  4B                dec ebx
00009D25  53                push ebx
00009D26  315F52            xor [edi+0x52],ebx
00009D29  4B                dec ebx
00009D2A  6200              bound eax,[eax]
00009D2C  5F                pop edi
00009D2D  5A                pop edx
00009D2E  4E                dec esi
00009D2F  395F5F            cmp [edi+0x5f],ebx
00009D32  676E              a16 outsb
00009D34  755F              jnz 0x9d95
00009D36  637878            arpl [eax+0x78],di
00009D39  3133              xor [ebx],esi
00009D3B  6E                outsb
00009D3C  65775F            gs ja 0x9d9e
00009D3F  61                popa
00009D40  6C                insb
00009D41  6C                insb
00009D42  6F                outsd
00009D43  636174            arpl [ecx+0x74],sp
00009D46  6F                outsd
00009D47  7249              jc 0x9d92
00009D49  53                push ebx
00009D4A  7345              jnc 0x9d91
00009D4C  43                inc ebx
00009D4D  324576            xor al,[ebp+0x76]
00009D50  005F5A            add [edi+0x5a],bl
00009D53  4E                dec esi
00009D54  53                push ebx
00009D55  7438              jz 0x9d8f
00009D57  5F                pop edi
00009D58  52                push edx
00009D59  625F74            bound ebx,[edi+0x74]
00009D5C  7265              jc 0x9dc3
00009D5E  6549              gs dec ecx
00009D60  53                push ebx
00009D61  7353              jnc 0x9db6
00009D63  7353              jnc 0x9db8
00009D65  7439              jz 0x9da0
00009D67  5F                pop edi
00009D68  49                dec ecx
00009D69  64656E            gs outsb
00009D6C  7469              jz 0x9dd7
00009D6E  7479              jz 0x9de9
00009D70  49                dec ecx
00009D71  53                push ebx
00009D72  7345              jnc 0x9db9
00009D74  53                push ebx
00009D75  7434              jz 0x9dab
00009D77  6C                insb
00009D78  657373            gs jnc 0x9dee
00009D7B  49                dec ecx
00009D7C  53                push ebx
00009D7D  7345              jnc 0x9dc4
00009D7F  53                push ebx
00009D80  61                popa
00009D81  49                dec ecx
00009D82  53                push ebx
00009D83  7345              jnc 0x9dca
00009D85  45                inc ebp
00009D86  37                aaa
00009D87  5F                pop edi
00009D88  53                push ebx
00009D89  5F                pop edi
00009D8A  6C                insb
00009D8B  65667445          gs o16 jz 0x9dd4
00009D8F  50                push eax
00009D90  53                push ebx
00009D91  7431              jz 0x9dc4
00009D93  385F52            cmp [edi+0x52],bl
00009D96  625F74            bound ebx,[edi+0x74]
00009D99  7265              jc 0x9e00
00009D9B  655F              gs pop edi
00009D9D  6E                outsb
00009D9E  6F                outsd
00009D9F  64655F            gs pop edi
00009DA2  626173            bound esp,[ecx+0x73]
00009DA5  65005F5F          add [gs:edi+0x5f],bl
00009DA9  693638362E67      imul esi,[esi],dword 0x672e3638
00009DAF  65745F            gs jz 0x9e11
00009DB2  7063              jo 0x9e17
00009DB4  5F                pop edi
00009DB5  7468              jz 0x9e1f
00009DB7  756E              jnz 0x9e27
00009DB9  6B2E62            imul ebp,[esi],byte +0x62
00009DBC  7800              js 0x9dbe
00009DBE  5F                pop edi
00009DBF  5A                pop edx
00009DC0  4E                dec esi
00009DC1  53                push ebx
00009DC2  7438              jz 0x9dfc
00009DC4  5F                pop edi
00009DC5  52                push edx
00009DC6  625F74            bound ebx,[edi+0x74]
00009DC9  7265              jc 0x9e30
00009DCB  6549              gs dec ecx
00009DCD  635374            arpl [ebx+0x74],dx
00009DD0  3470              xor al,0x70
00009DD2  61                popa
00009DD3  6972494B636945    imul esi,[edx+0x49],dword 0x4569634b
00009DDA  53                push ebx
00009DDB  7431              jz 0x9e0e
00009DDD  305F53            xor [edi+0x53],bl
00009DE0  656C              gs insb
00009DE2  6563743173        arpl [gs:ecx+esi+0x73],si
00009DE7  7449              jz 0x9e32
00009DE9  53                push ebx
00009DEA  325F45            xor bl,[edi+0x45]
00009DED  53                push ebx
00009DEE  7434              jz 0x9e24
00009DF0  6C                insb
00009DF1  657373            gs jnc 0x9e67
00009DF4  49                dec ecx
00009DF5  634553            arpl [ebp+0x53],ax
00009DF8  61                popa
00009DF9  49                dec ecx
00009DFA  53                push ebx
00009DFB  325F45            xor bl,[edi+0x45]
00009DFE  45                inc ebp
00009DFF  3131              xor [ecx],esi
00009E01  5F                pop edi
00009E02  4D                dec ebp
00009E03  5F                pop edi
00009E04  7075              jo 0x9e7b
00009E06  745F              jz 0x9e67
00009E08  6E                outsb
00009E09  6F                outsd
00009E0A  646545            gs inc ebp
00009E0D  50                push eax
00009E0E  53                push ebx
00009E0F  7431              jz 0x9e42
00009E11  335F52            xor ebx,[edi+0x52]
00009E14  625F74            bound ebx,[edi+0x74]
00009E17  7265              jc 0x9e7e
00009E19  655F              gs pop edi
00009E1B  6E                outsb
00009E1C  6F                outsd
00009E1D  646549            gs dec ecx
00009E20  53                push ebx
00009E21  325F45            xor bl,[edi+0x45]
00009E24  006D61            add [ebp+0x61],ch
00009E27  696E005F696E69    imul ebp,[esi+0x0],dword 0x696e695f
00009E2E  7400              jz 0x9e30
00009E30  5F                pop edi
00009E31  5A                pop edx
00009E32  4E                dec esi
00009E33  53                push ebx
00009E34  61                popa
00009E35  49                dec ecx
00009E36  53                push ebx
00009E37  7345              jnc 0x9e7e
00009E39  43                inc ebx
00009E3A  324953            xor cl,[ecx+0x53]
00009E3D  7431              jz 0x9e70
00009E3F  335F52            xor ebx,[edi+0x52]
00009E42  625F74            bound ebx,[edi+0x74]
00009E45  7265              jc 0x9eac
00009E47  655F              gs pop edi
00009E49  6E                outsb
00009E4A  6F                outsd
00009E4B  646549            gs dec ecx
00009E4E  53                push ebx
00009E4F  7345              jnc 0x9e96
00009E51  45                inc ebp
00009E52  45                inc ebp
00009E53  52                push edx
00009E54  4B                dec ebx
00009E55  53                push ebx
00009E56  61                popa
00009E57  49                dec ecx
00009E58  54                push esp
00009E59  5F                pop edi
00009E5A  45                inc ebp
00009E5B  005F5A            add [edi+0x5a],bl
00009E5E  4E                dec esi
00009E5F  53                push ebx
00009E60  7438              jz 0x9e9a
00009E62  5F                pop edi
00009E63  52                push edx
00009E64  625F74            bound ebx,[edi+0x74]
00009E67  7265              jc 0x9ece
00009E69  6549              gs dec ecx
00009E6B  53                push ebx
00009E6C  7353              jnc 0x9ec1
00009E6E  7353              jnc 0x9ec3
00009E70  7439              jz 0x9eab
00009E72  5F                pop edi
00009E73  49                dec ecx
00009E74  64656E            gs outsb
00009E77  7469              jz 0x9ee2
00009E79  7479              jz 0x9ef4
00009E7B  49                dec ecx
00009E7C  53                push ebx
00009E7D  7345              jnc 0x9ec4
00009E7F  53                push ebx
00009E80  7434              jz 0x9eb6
00009E82  6C                insb
00009E83  657373            gs jnc 0x9ef9
00009E86  49                dec ecx
00009E87  53                push ebx
00009E88  7345              jnc 0x9ecf
00009E8A  53                push ebx
00009E8B  61                popa
00009E8C  49                dec ecx
00009E8D  53                push ebx
00009E8E  7345              jnc 0x9ed5
00009E90  45                inc ebp
00009E91  3133              xor [ebx],esi
00009E93  5F                pop edi
00009E94  52                push edx
00009E95  625F74            bound ebx,[edi+0x74]
00009E98  7265              jc 0x9eff
00009E9A  655F              gs pop edi
00009E9C  696D706C495333    imul ebp,[ebp+0x70],dword 0x3353496c
00009EA3  5F                pop edi
00009EA4  4C                dec esp
00009EA5  6230              bound esi,[eax]
00009EA7  45                inc ebp
00009EA8  45                inc ebp
00009EA9  44                inc esp
00009EAA  324576            xor al,[ebp+0x76]
00009EAD  00                db 0x00
