00000000  7F45              jg 0x47
00000002  4C                dec esp
00000003  46                inc esi
00000004  0101              add [ecx],eax
00000006  0100              add [eax],eax
00000008  0000              add [eax],al
0000000A  0000              add [eax],al
0000000C  0000              add [eax],al
0000000E  0000              add [eax],al
00000010  0200              add al,[eax]
00000012  0300              add eax,[eax]
00000014  0100              add [eax],eax
00000016  0000              add [eax],al
00000018  60                pusha
00000019  880408            mov [eax+ecx],al
0000001C  3400              xor al,0x0
0000001E  0000              add [eax],al
00000020  3026              xor [esi],ah
00000022  0000              add [eax],al
00000024  0000              add [eax],al
00000026  0000              add [eax],al
00000028  3400              xor al,0x0
0000002A  2000              and [eax],al
0000002C  0800              or [eax],al
0000002E  2800              sub [eax],al
00000030  260023            add [es:ebx],ah
00000033  0006              add [esi],al
00000035  0000              add [eax],al
00000037  003400            add [eax+eax],dh
0000003A  0000              add [eax],al
0000003C  3480              xor al,0x80
0000003E  0408              add al,0x8
00000040  3480              xor al,0x80
00000042  0408              add al,0x8
00000044  0001              add [ecx],al
00000046  0000              add [eax],al
00000048  0001              add [ecx],al
0000004A  0000              add [eax],al
0000004C  0500000004        add eax,0x4000000
00000051  0000              add [eax],al
00000053  0003              add [ebx],al
00000055  0000              add [eax],al
00000057  003401            add [ecx+eax],dh
0000005A  0000              add [eax],al
0000005C  3481              xor al,0x81
0000005E  0408              add al,0x8
00000060  3481              xor al,0x81
00000062  0408              add al,0x8
00000064  1300              adc eax,[eax]
00000066  0000              add [eax],al
00000068  1300              adc eax,[eax]
0000006A  0000              add [eax],al
0000006C  0400              add al,0x0
0000006E  0000              add [eax],al
00000070  0100              add [eax],eax
00000072  0000              add [eax],al
00000074  0100              add [eax],eax
00000076  0000              add [eax],al
00000078  0000              add [eax],al
0000007A  0000              add [eax],al
0000007C  008004080080      add [eax+0x80000804],al
00000082  0408              add al,0x8
00000084  8E1C00            mov ds,[eax+eax]
00000087  008E1C000005      add [esi+0x500001c],cl
0000008D  0000              add [eax],al
0000008F  0000              add [eax],al
00000091  1000              adc [eax],al
00000093  0001              add [ecx],al
00000095  0000              add [eax],al
00000097  00901C000090      add [eax+0x9000001c],dl
0000009D  AC                lodsb
0000009E  0408              add al,0x8
000000A0  90                nop
000000A1  AC                lodsb
000000A2  0408              add al,0x8
000000A4  4C                dec esp
000000A5  0100              add [eax],eax
000000A7  00540100          add [ecx+eax+0x0],dl
000000AB  0006              add [esi],al
000000AD  0000              add [eax],al
000000AF  0000              add [eax],al
000000B1  1000              adc [eax],al
000000B3  0002              add [edx],al
000000B5  0000              add [eax],al
000000B7  00A41C0000A4AC    add [esp+ebx+0xaca40000],ah
000000BE  0408              add al,0x8
000000C0  A4                movsb
000000C1  AC                lodsb
000000C2  0408              add al,0x8
000000C4  E000              loopne 0xc6
000000C6  0000              add [eax],al
000000C8  E000              loopne 0xca
000000CA  0000              add [eax],al
000000CC  06                push es
000000CD  0000              add [eax],al
000000CF  000400            add [eax+eax],al
000000D2  0000              add [eax],al
000000D4  0400              add al,0x0
000000D6  0000              add [eax],al
000000D8  48                dec eax
000000D9  0100              add [eax],eax
000000DB  004881            add [eax-0x7f],cl
000000DE  0408              add al,0x8
000000E0  48                dec eax
000000E1  81040820000000    add dword [eax+ecx],0x20
000000E8  2000              and [eax],al
000000EA  0000              add [eax],al
000000EC  0400              add al,0x0
000000EE  0000              add [eax],al
000000F0  0400              add al,0x0
000000F2  0000              add [eax],al
000000F4  50                push eax
000000F5  E574              in eax,0x74
000000F7  647815            fs js 0x10f
000000FA  0000              add [eax],al
000000FC  7895              js 0x93
000000FE  0408              add al,0x8
00000100  7895              js 0x97
00000102  0408              add al,0x8
00000104  3C01              cmp al,0x1
00000106  0000              add [eax],al
00000108  3C01              cmp al,0x1
0000010A  0000              add [eax],al
0000010C  0400              add al,0x0
0000010E  0000              add [eax],al
00000110  0400              add al,0x0
00000112  0000              add [eax],al
00000114  51                push ecx
00000115  E574              in eax,0x74
00000117  640000            add [fs:eax],al
0000011A  0000              add [eax],al
0000011C  0000              add [eax],al
0000011E  0000              add [eax],al
00000120  0000              add [eax],al
00000122  0000              add [eax],al
00000124  0000              add [eax],al
00000126  0000              add [eax],al
00000128  0000              add [eax],al
0000012A  0000              add [eax],al
0000012C  06                push es
0000012D  0000              add [eax],al
0000012F  000400            add [eax+eax],al
00000132  0000              add [eax],al
00000134  2F                das
00000135  6C                insb
00000136  69622F6C642D6C    imul esp,[edx+0x2f],dword 0x6c2d646c
0000013D  696E75782E736F    imul ebp,[esi+0x75],dword 0x6f732e78
00000144  2E3200            xor al,[cs:eax]
00000147  000400            add [eax+eax],al
0000014A  0000              add [eax],al
0000014C  1000              adc [eax],al
0000014E  0000              add [eax],al
00000150  0100              add [eax],eax
00000152  0000              add [eax],al
00000154  47                inc edi
00000155  4E                dec esi
00000156  55                push ebp
00000157  0000              add [eax],al
00000159  0000              add [eax],al
0000015B  0002              add [edx],al
0000015D  0000              add [eax],al
0000015F  0000              add [eax],al
00000161  0000              add [eax],al
00000163  0000              add [eax],al
00000165  0000              add [eax],al
00000167  0011              add [ecx],dl
00000169  0000              add [eax],al
0000016B  00150000000C      add [0xc000000],dl
00000171  0000              add [eax],al
00000173  000E              add [esi],cl
00000175  0000              add [eax],al
00000177  0007              add [edi],al
00000179  0000              add [eax],al
0000017B  0011              add [ecx],dl
0000017D  0000              add [eax],al
0000017F  0013              add [ebx],dl
00000181  0000              add [eax],al
00000183  0000              add [eax],al
00000185  0000              add [eax],al
00000187  001400            add [eax+eax],dl
0000018A  0000              add [eax],al
0000018C  0500000010        add eax,0x10000000
00000191  0000              add [eax],al
00000193  0000              add [eax],al
00000195  0000              add [eax],al
00000197  0000              add [eax],al
00000199  0000              add [eax],al
0000019B  0000              add [eax],al
0000019D  0000              add [eax],al
0000019F  0006              add [esi],al
000001A1  0000              add [eax],al
000001A3  0008              add [eax],cl
000001A5  0000              add [eax],al
000001A7  0000              add [eax],al
000001A9  0000              add [eax],al
000001AB  000B              add [ebx],cl
000001AD  0000              add [eax],al
000001AF  0012              add [edx],dl
000001B1  0000              add [eax],al
000001B3  0000              add [eax],al
000001B5  0000              add [eax],al
000001B7  0000              add [eax],al
000001B9  0000              add [eax],al
000001BB  0000              add [eax],al
000001BD  0000              add [eax],al
000001BF  0000              add [eax],al
000001C1  0000              add [eax],al
000001C3  0000              add [eax],al
000001C5  0000              add [eax],al
000001C7  000400            add [eax+eax],al
000001CA  0000              add [eax],al
000001CC  0000              add [eax],al
000001CE  0000              add [eax],al
000001D0  0100              add [eax],eax
000001D2  0000              add [eax],al
000001D4  0000              add [eax],al
000001D6  0000              add [eax],al
000001D8  0300              add eax,[eax]
000001DA  0000              add [eax],al
000001DC  0000              add [eax],al
000001DE  0000              add [eax],al
000001E0  0200              add al,[eax]
000001E2  0000              add [eax],al
000001E4  0000              add [eax],al
000001E6  0000              add [eax],al
000001E8  0000              add [eax],al
000001EA  0000              add [eax],al
000001EC  0000              add [eax],al
000001EE  0000              add [eax],al
000001F0  0000              add [eax],al
000001F2  0000              add [eax],al
000001F4  0D00000009        or eax,0x9000000
000001F9  0000              add [eax],al
000001FB  000A              add [edx],cl
000001FD  0000              add [eax],al
000001FF  000F              add [edi],cl
00000201  0000              add [eax],al
00000203  0000              add [eax],al
00000205  0000              add [eax],al
00000207  0000              add [eax],al
00000209  0000              add [eax],al
0000020B  0000              add [eax],al
0000020D  0000              add [eax],al
0000020F  0000              add [eax],al
00000211  0000              add [eax],al
00000213  0000              add [eax],al
00000215  0000              add [eax],al
00000217  00FC              add ah,bh
00000219  0100              add [eax],eax
0000021B  0000              add [eax],al
0000021D  0000              add [eax],al
0000021F  0000              add [eax],al
00000221  0000              add [eax],al
00000223  0012              add [edx],dl
00000225  0000              add [eax],al
00000227  009F01000000      add [edi+0x1],bl
0000022D  0000              add [eax],al
0000022F  0000              add [eax],al
00000231  0000              add [eax],al
00000233  0020              add [eax],ah
00000235  0000              add [eax],al
00000237  00C3              add bl,al
00000239  0100              add [eax],eax
0000023B  0000              add [eax],al
0000023D  0000              add [eax],al
0000023F  0000              add [eax],al
00000241  0000              add [eax],al
00000243  0020              add [eax],ah
00000245  0000              add [eax],al
00000247  005C0000          add [eax+eax+0x0],bl
0000024B  0000              add [eax],al
0000024D  0000              add [eax],al
0000024F  0000              add [eax],al
00000251  0000              add [eax],al
00000253  0012              add [edx],dl
00000255  0000              add [eax],al
00000257  005F02            add [edi+0x2],bl
0000025A  0000              add [eax],al
0000025C  0000              add [eax],al
0000025E  0000              add [eax],al
00000260  0000              add [eax],al
00000262  0000              add [eax],al
00000264  1200              adc al,[eax]
00000266  0000              add [eax],al
00000268  6300              arpl [eax],ax
0000026A  0000              add [eax],al
0000026C  0000              add [eax],al
0000026E  0000              add [eax],al
00000270  0000              add [eax],al
00000272  0000              add [eax],al
00000274  2000              and [eax],al
00000276  0000              add [eax],al
00000278  AE                scasb
00000279  0000              add [eax],al
0000027B  0000              add [eax],al
0000027D  0000              add [eax],al
0000027F  0000              add [eax],al
00000281  0000              add [eax],al
00000283  0012              add [edx],dl
00000285  0000              add [eax],al
00000287  005002            add [eax+0x2],dl
0000028A  0000              add [eax],al
0000028C  58                pop eax
0000028D  95                xchg eax,ebp
0000028E  0408              add al,0x8
00000290  0400              add al,0x0
00000292  0000              add [eax],al
00000294  1100              adc [eax],eax
00000296  0E                push cs
00000297  00E2              add dl,ah
00000299  0100              add [eax],eax
0000029B  0000              add [eax],al
0000029D  0000              add [eax],al
0000029F  0000              add [eax],al
000002A1  0000              add [eax],al
000002A3  0020              add [eax],ah
000002A5  0000              add [eax],al
000002A7  00E6              add dh,ah
000002A9  0000              add [eax],al
000002AB  0000              add [eax],al
000002AD  0000              add [eax],al
000002AF  0000              add [eax],al
000002B1  0000              add [eax],al
000002B3  0012              add [edx],dl
000002B5  0000              add [eax],al
000002B7  007F00            add [edi+0x0],bh
000002BA  0000              add [eax],al
000002BC  0000              add [eax],al
000002BE  0000              add [eax],al
000002C0  0000              add [eax],al
000002C2  0000              add [eax],al
000002C4  1200              adc al,[eax]
000002C6  0000              add [eax],al
000002C8  1501000000        adc eax,0x1
000002CD  0000              add [eax],al
000002CF  0000              add [eax],al
000002D1  0000              add [eax],al
000002D3  0012              add [edx],dl
000002D5  0000              add [eax],al
000002D7  00D7              add bh,dl
000002D9  0100              add [eax],eax
000002DB  0000              add [eax],al
000002DD  0000              add [eax],al
000002DF  0000              add [eax],al
000002E1  0000              add [eax],al
000002E3  0012              add [edx],dl
000002E5  0000              add [eax],al
000002E7  005D01            add [ebp+0x1],bl
000002EA  0000              add [eax],al
000002EC  0000              add [eax],al
000002EE  0000              add [eax],al
000002F0  0000              add [eax],al
000002F2  0000              add [eax],al
000002F4  1200              adc al,[eax]
000002F6  0000              add [eax],al
000002F8  1000              adc [eax],al
000002FA  0000              add [eax],al
000002FC  0000              add [eax],al
000002FE  0000              add [eax],al
00000300  0000              add [eax],al
00000302  0000              add [eax],al
00000304  1200              adc al,[eax]
00000306  0000              add [eax],al
00000308  1B01              sbb eax,[ecx]
0000030A  0000              add [eax],al
0000030C  0000              add [eax],al
0000030E  0000              add [eax],al
00000310  0000              add [eax],al
00000312  0000              add [eax],al
00000314  1200              adc al,[eax]
00000316  0000              add [eax],al
00000318  06                push es
00000319  0200              add al,[eax]
0000031B  0000              add [eax],al
0000031D  0000              add [eax],al
0000031F  0000              add [eax],al
00000321  0000              add [eax],al
00000323  0012              add [edx],dl
00000325  0000              add [eax],al
00000327  0021              add [ecx],ah
00000329  0000              add [eax],al
0000032B  0030              add [eax],dh
0000032D  880408            mov [eax+ecx],al
00000330  0000              add [eax],al
00000332  0000              add [eax],al
00000334  1200              adc al,[eax]
00000336  0000              add [eax],al
00000338  AE                scasb
00000339  0100              add [eax],eax
0000033B  004088            add [eax-0x78],al
0000033E  0408              add al,0x8
00000340  0000              add [eax],al
00000342  0000              add [eax],al
00000344  1200              adc al,[eax]
00000346  0000              add [eax],al
00000348  37                aaa
00000349  0200              add al,[eax]
0000034B  0000              add [eax],al
0000034D  0000              add [eax],al
0000034F  0000              add [eax],al
00000351  0000              add [eax],al
00000353  0012              add [edx],dl
00000355  0000              add [eax],al
00000357  0000              add [eax],al
00000359  6C                insb
0000035A  6962737464632B    imul esp,[edx+0x73],dword 0x2b636474
00000361  2B2E              sub ebp,[esi]
00000363  736F              jnc 0x3d4
00000365  2E36005F5A        add [ss:edi+0x5a],bl
0000036A  4E                dec esi
0000036B  53                push ebx
0000036C  6F                outsd
0000036D  6C                insb
0000036E  7345              jnc 0x3b5
00000370  50                push eax
00000371  46                inc esi
00000372  52                push edx
00000373  53                push ebx
00000374  6F                outsd
00000375  53                push ebx
00000376  5F                pop edi
00000377  45                inc ebp
00000378  005F5A            add [edi+0x5a],bl
0000037B  53                push ebx
0000037C  7434              jz 0x3b2
0000037E  656E              gs outsb
00000380  646C              fs insb
00000382  49                dec ecx
00000383  635374            arpl [ebx+0x74],dx
00000386  3131              xor [ecx],esi
00000388  636861            arpl [eax+0x61],bp
0000038B  725F              jc 0x3ec
0000038D  7472              jz 0x401
0000038F  61                popa
00000390  6974734963454552  imul esi,[ebx+esi*2+0x49],dword 0x52454563
00000398  53                push ebx
00000399  7431              jz 0x3cc
0000039B  336261            xor esp,[edx+0x61]
0000039E  7369              jnc 0x409
000003A0  635F6F            arpl [edi+0x6f],bx
000003A3  7374              jnc 0x419
000003A5  7265              jc 0x40c
000003A7  61                popa
000003A8  6D                insd
000003A9  49                dec ecx
000003AA  54                push esp
000003AB  5F                pop edi
000003AC  54                push esp
000003AD  305F45            xor [edi+0x45],bl
000003B0  53                push ebx
000003B1  365F              ss pop edi
000003B3  005F5A            add [edi+0x5a],bl
000003B6  646C              fs insb
000003B8  50                push eax
000003B9  7600              jna 0x3bb
000003BB  5F                pop edi
000003BC  49                dec ecx
000003BD  54                push esp
000003BE  4D                dec ebp
000003BF  5F                pop edi
000003C0  64657265          gs jc 0x429
000003C4  676973746572544D  imul esi,[bp+di+0x74],dword 0x4d547265
000003CC  43                inc ebx
000003CD  6C                insb
000003CE  6F                outsd
000003CF  6E                outsb
000003D0  6554              gs push esp
000003D2  61                popa
000003D3  626C6500          bound ebp,[ebp+0x0]
000003D7  5F                pop edi
000003D8  5A                pop edx
000003D9  4E                dec esi
000003DA  53                push ebx
000003DB  7431              jz 0x40e
000003DD  3462              xor al,0x62
000003DF  61                popa
000003E0  7369              jnc 0x44b
000003E2  635F6F            arpl [edi+0x6f],bx
000003E5  667374            o16 jnc 0x45c
000003E8  7265              jc 0x44f
000003EA  61                popa
000003EB  6D                insd
000003EC  49                dec ecx
000003ED  635374            arpl [ebx+0x74],dx
000003F0  3131              xor [ecx],esi
000003F2  636861            arpl [eax+0x61],bp
000003F5  725F              jc 0x456
000003F7  7472              jz 0x46b
000003F9  61                popa
000003FA  6974734963454544  imul esi,[ebx+esi*2+0x49],dword 0x44454563
00000402  314576            xor [ebp+0x76],eax
00000405  005F5A            add [edi+0x5a],bl
00000408  53                push ebx
00000409  746C              jz 0x477
0000040B  7349              jnc 0x456
0000040D  53                push ebx
0000040E  7431              jz 0x441
00000410  316368            xor [ebx+0x68],esp
00000413  61                popa
00000414  725F              jc 0x475
00000416  7472              jz 0x48a
00000418  61                popa
00000419  6974734963454552  imul esi,[ebx+esi*2+0x49],dword 0x52454563
00000421  53                push ebx
00000422  7431              jz 0x455
00000424  336261            xor esp,[edx+0x61]
00000427  7369              jnc 0x492
00000429  635F6F            arpl [edi+0x6f],bx
0000042C  7374              jnc 0x4a2
0000042E  7265              jc 0x495
00000430  61                popa
00000431  6D                insd
00000432  49                dec ecx
00000433  63545F45          arpl [edi+ebx*2+0x45],dx
00000437  53                push ebx
00000438  355F504B63        xor eax,0x634b505f
0000043D  005F5A            add [edi+0x5a],bl
00000440  4E                dec esi
00000441  53                push ebx
00000442  7431              jz 0x475
00000444  3462              xor al,0x62
00000446  61                popa
00000447  7369              jnc 0x4b2
00000449  635F69            arpl [edi+0x69],bx
0000044C  667374            o16 jnc 0x4c3
0000044F  7265              jc 0x4b6
00000451  61                popa
00000452  6D                insd
00000453  49                dec ecx
00000454  635374            arpl [ebx+0x74],dx
00000457  3131              xor [ecx],esi
00000459  636861            arpl [eax+0x61],bp
0000045C  725F              jc 0x4bd
0000045E  7472              jz 0x4d2
00000460  61                popa
00000461  6974734963454544  imul esi,[ebx+esi*2+0x49],dword 0x44454563
00000469  314576            xor [ebp+0x76],eax
0000046C  005F5A            add [edi+0x5a],bl
0000046F  6E                outsb
00000470  776A              ja 0x4dc
00000472  005F5A            add [edi+0x5a],bl
00000475  4E                dec esi
00000476  53                push ebx
00000477  7431              jz 0x4aa
00000479  3462              xor al,0x62
0000047B  61                popa
0000047C  7369              jnc 0x4e7
0000047E  635F6F            arpl [edi+0x6f],bx
00000481  667374            o16 jnc 0x4f8
00000484  7265              jc 0x4eb
00000486  61                popa
00000487  6D                insd
00000488  49                dec ecx
00000489  635374            arpl [ebx+0x74],dx
0000048C  3131              xor [ecx],esi
0000048E  636861            arpl [eax+0x61],bp
00000491  725F              jc 0x4f2
00000493  7472              jz 0x507
00000495  61                popa
00000496  6974734963454543  imul esi,[ebx+esi*2+0x49],dword 0x43454563
0000049E  314550            xor [ebp+0x50],eax
000004A1  4B                dec ebx
000004A2  635374            arpl [ebx+0x74],dx
000004A5  3133              xor [ebx],esi
000004A7  5F                pop edi
000004A8  49                dec ecx
000004A9  6F                outsd
000004AA  735F              jnc 0x50b
000004AC  4F                dec edi
000004AD  7065              jo 0x514
000004AF  6E                outsb
000004B0  6D                insd
000004B1  6F                outsd
000004B2  6465005F5A        add [gs:edi+0x5a],bl
000004B7  4E                dec esi
000004B8  53                push ebx
000004B9  7431              jz 0x4ec
000004BB  3462              xor al,0x62
000004BD  61                popa
000004BE  7369              jnc 0x529
000004C0  635F69            arpl [edi+0x69],bx
000004C3  667374            o16 jnc 0x53a
000004C6  7265              jc 0x52d
000004C8  61                popa
000004C9  6D                insd
000004CA  49                dec ecx
000004CB  635374            arpl [ebx+0x74],dx
000004CE  3131              xor [ecx],esi
000004D0  636861            arpl [eax+0x61],bp
000004D3  725F              jc 0x534
000004D5  7472              jz 0x549
000004D7  61                popa
000004D8  6974734963454543  imul esi,[ebx+esi*2+0x49],dword 0x43454563
000004E0  314550            xor [ebp+0x50],eax
000004E3  4B                dec ebx
000004E4  635374            arpl [ebx+0x74],dx
000004E7  3133              xor [ebx],esi
000004E9  5F                pop edi
000004EA  49                dec ecx
000004EB  6F                outsd
000004EC  735F              jnc 0x54d
000004EE  4F                dec edi
000004EF  7065              jo 0x556
000004F1  6E                outsb
000004F2  6D                insd
000004F3  6F                outsd
000004F4  6465005F5F        add [gs:edi+0x5f],bl
000004F9  676D              a16 insd
000004FB  6F                outsd
000004FC  6E                outsb
000004FD  5F                pop edi
000004FE  7374              jnc 0x574
00000500  61                popa
00000501  7274              jc 0x577
00000503  5F                pop edi
00000504  5F                pop edi
00000505  005F5F            add [edi+0x5f],bl
00000508  677878            a16 js 0x583
0000050B  5F                pop edi
0000050C  7065              jo 0x573
0000050E  7273              jc 0x583
00000510  6F                outsd
00000511  6E                outsb
00000512  61                popa
00000513  6C                insb
00000514  6974795F7630005F  imul esi,[ecx+edi*2+0x5f],dword 0x5f003076
0000051C  4A                dec edx
0000051D  765F              jna 0x57e
0000051F  52                push edx
00000520  6567697374657243  imul esi,[gs:bp+di+0x74],dword 0x6c437265
         -6C
00000529  61                popa
0000052A  7373              jnc 0x59f
0000052C  657300            gs jnc 0x52f
0000052F  5F                pop edi
00000530  5A                pop edx
00000531  4E                dec esi
00000532  53                push ebx
00000533  69727345526900    imul esi,[edx+0x73],dword 0x695245
0000053A  5F                pop edi
0000053B  49                dec ecx
0000053C  54                push esp
0000053D  4D                dec ebp
0000053E  5F                pop edi
0000053F  7265              jc 0x5a6
00000541  676973746572544D  imul esi,[bp+di+0x74],dword 0x4d547265
00000549  43                inc ebx
0000054A  6C                insb
0000054B  6F                outsd
0000054C  6E                outsb
0000054D  6554              gs push esp
0000054F  61                popa
00000550  626C6500          bound ebp,[ebp+0x0]
00000554  5F                pop edi
00000555  5A                pop edx
00000556  4E                dec esi
00000557  53                push ebx
00000558  6F                outsd
00000559  6C                insb
0000055A  7345              jnc 0x5a1
0000055C  69005F5A5374      imul eax,[eax],dword 0x74535a5f
00000562  3137              xor [edi],esi
00000564  5F                pop edi
00000565  5F                pop edi
00000566  7468              jz 0x5d0
00000568  726F              jc 0x5d9
0000056A  775F              ja 0x5cb
0000056C  626164            bound esp,[ecx+0x64]
0000056F  5F                pop edi
00000570  61                popa
00000571  6C                insb
00000572  6C                insb
00000573  6F                outsd
00000574  637600            arpl [esi+0x0],si
00000577  6C                insb
00000578  69626D2E736F2E    imul esp,[edx+0x6d],dword 0x2e6f732e
0000057F  36006C6962        add [ss:ecx+ebp*2+0x62],ch
00000584  6763635F          arpl [bp+di+0x5f],sp
00000588  732E              jnc 0x5b8
0000058A  736F              jnc 0x5fb
0000058C  2E3100            xor [cs:eax],eax
0000058F  5F                pop edi
00000590  55                push ebp
00000591  6E                outsb
00000592  7769              ja 0x5fd
00000594  6E                outsb
00000595  645F              fs pop edi
00000597  52                push edx
00000598  657375            gs jnc 0x610
0000059B  6D                insd
0000059C  65006C6962        add [gs:ecx+ebp*2+0x62],ch
000005A1  632E              arpl [esi],bp
000005A3  736F              jnc 0x614
000005A5  2E36005F49        add [ss:edi+0x49],bl
000005AA  4F                dec edi
000005AB  5F                pop edi
000005AC  7374              jnc 0x622
000005AE  64696E5F75736564  imul ebp,[fs:esi+0x5f],dword 0x64657375
000005B6  005F5F            add [edi+0x5f],bl
000005B9  6C                insb
000005BA  6962635F737461    imul esp,[edx+0x63],dword 0x6174735f
000005C1  7274              jc 0x637
000005C3  5F                pop edi
000005C4  6D                insd
000005C5  61                popa
000005C6  696E004743435F    imul ebp,[esi+0x0],dword 0x5f434347
000005CD  332E              xor ebp,[esi]
000005CF  3000              xor [eax],al
000005D1  47                inc edi
000005D2  4C                dec esp
000005D3  49                dec ecx
000005D4  42                inc edx
000005D5  43                inc ebx
000005D6  5F                pop edi
000005D7  322E              xor ch,[esi]
000005D9  3000              xor [eax],al
000005DB  43                inc ebx
000005DC  58                pop eax
000005DD  58                pop eax
000005DE  41                inc ecx
000005DF  42                inc edx
000005E0  49                dec ecx
000005E1  5F                pop edi
000005E2  312E              xor [esi],ebp
000005E4  3300              xor eax,[eax]
000005E6  47                inc edi
000005E7  4C                dec esp
000005E8  49                dec ecx
000005E9  42                inc edx
000005EA  43                inc ebx
000005EB  58                pop eax
000005EC  58                pop eax
000005ED  5F                pop edi
000005EE  332E              xor ebp,[esi]
000005F0  3400              xor al,0x0
000005F2  0000              add [eax],al
000005F4  0200              add al,[eax]
000005F6  0000              add [eax],al
000005F8  0000              add [eax],al
000005FA  0200              add al,[eax]
000005FC  0300              add eax,[eax]
000005FE  0000              add [eax],al
00000600  0200              add al,[eax]
00000602  0100              add [eax],eax
00000604  0000              add [eax],al
00000606  0200              add al,[eax]
00000608  0200              add al,[eax]
0000060A  0200              add al,[eax]
0000060C  0200              add al,[eax]
0000060E  0200              add al,[eax]
00000610  0200              add al,[eax]
00000612  0200              add al,[eax]
00000614  0200              add al,[eax]
00000616  0200              add al,[eax]
00000618  0400              add al,0x0
0000061A  0500010001        add eax,0x1000100
0000061F  0029              add [ecx],ch
00000621  0200              add al,[eax]
00000623  0010              add [eax],dl
00000625  0000              add [eax],al
00000627  0020              add [eax],ah
00000629  0000              add [eax],al
0000062B  005026            add [eax+0x26],dl
0000062E  790B              jns 0x63b
00000630  0000              add [eax],al
00000632  0500710200        add eax,0x27100
00000637  0000              add [eax],al
00000639  0000              add [eax],al
0000063B  0001              add [ecx],al
0000063D  0001              add [ecx],al
0000063F  004602            add [esi+0x2],al
00000642  0000              add [eax],al
00000644  1000              adc [eax],al
00000646  0000              add [eax],al
00000648  2000              and [eax],al
0000064A  0000              add [eax],al
0000064C  106969            adc [ecx+0x69],ch
0000064F  0D00000300        or eax,0x30000
00000654  7902              jns 0x658
00000656  0000              add [eax],al
00000658  0000              add [eax],al
0000065A  0000              add [eax],al
0000065C  0100              add [eax],eax
0000065E  0200              add al,[eax]
00000660  0100              add [eax],eax
00000662  0000              add [eax],al
00000664  1000              adc [eax],al
00000666  0000              add [eax],al
00000668  0000              add [eax],al
0000066A  0000              add [eax],al
0000066C  D3AF6B050000      shr dword [edi+0x56b],cl
00000672  0400              add al,0x0
00000674  830200            add dword [edx],byte +0x0
00000677  0010              add [eax],dl
00000679  0000              add [eax],al
0000067B  00742992          add [ecx+ebp-0x6e],dh
0000067F  0800              or [eax],al
00000681  0002              add [edx],al
00000683  008E02000000      add [esi+0x2],cl
00000689  0000              add [eax],al
0000068B  0084AD04080602    add [ebp+ebp*4+0x2060804],al
00000692  0000              add [eax],al
00000694  94                xchg eax,esp
00000695  AD                lodsd
00000696  0408              add al,0x8
00000698  07                pop es
00000699  0100              add [eax],eax
0000069B  0098AD040807      add [eax+0x70804ad],bl
000006A1  0200              add al,[eax]
000006A3  009CAD04080704    add [ebp+ebp*4+0x4070804],bl
000006AA  0000              add [eax],al
000006AC  A0AD040807        mov al,[0x70804ad]
000006B1  050000A4AD        add eax,0xada40000
000006B6  0408              add al,0x8
000006B8  07                pop es
000006B9  07                pop es
000006BA  0000              add [eax],al
000006BC  A8AD              test al,0xad
000006BE  0408              add al,0x8
000006C0  07                pop es
000006C1  0A00              or al,[eax]
000006C3  00ACAD0408070B    add [ebp+ebp*4+0xb070804],ch
000006CA  0000              add [eax],al
000006CC  B0AD              mov al,0xad
000006CE  0408              add al,0x8
000006D0  07                pop es
000006D1  0C00              or al,0x0
000006D3  00B4AD0408070D    add [ebp+ebp*4+0xd070804],dh
000006DA  0000              add [eax],al
000006DC  B8AD040807        mov eax,0x70804ad
000006E1  0E                push cs
000006E2  0000              add [eax],al
000006E4  BCAD040807        mov esp,0x70804ad
000006E9  0F0000            sldt [eax]
000006EC  C0AD0408071000    shr byte [ebp+0x10070804],0x0
000006F3  00C4              add ah,al
000006F5  AD                lodsd
000006F6  0408              add al,0x8
000006F8  07                pop es
000006F9  1100              adc [eax],eax
000006FB  00C8              add al,cl
000006FD  AD                lodsd
000006FE  0408              add al,0x8
00000700  07                pop es
00000701  1200              adc al,[eax]
00000703  00CC              add ah,cl
00000705  AD                lodsd
00000706  0408              add al,0x8
00000708  07                pop es
00000709  1300              adc eax,[eax]
0000070B  00D0              add al,dl
0000070D  AD                lodsd
0000070E  0408              add al,0x8
00000710  07                pop es
00000711  1400              adc al,0x0
00000713  005589            add [ebp-0x77],dl
00000716  E553              in eax,0x53
00000718  83EC04            sub esp,byte +0x4
0000071B  E800000000        call 0x720
00000720  5B                pop ebx
00000721  81C368260000      add ebx,0x2668
00000727  8B93FCFFFFFF      mov edx,[ebx+0xfffffffc]
0000072D  85D2              test edx,edx
0000072F  7405              jz 0x736
00000731  E83A000000        call 0x770
00000736  E815020000        call 0x950
0000073B  E8D00D0000        call 0x1510
00000740  58                pop eax
00000741  5B                pop ebx
00000742  C9                leave
00000743  C3                ret
00000744  0000              add [eax],al
00000746  0000              add [eax],al
00000748  0000              add [eax],al
0000074A  0000              add [eax],al
0000074C  0000              add [eax],al
0000074E  0000              add [eax],al
00000750  FF358CAD0408      push dword [0x804ad8c]
00000756  FF2590AD0408      jmp near [0x804ad90]
0000075C  0000              add [eax],al
0000075E  0000              add [eax],al
00000760  FF2594AD0408      jmp near [0x804ad94]
00000766  6800000000        push dword 0x0
0000076B  E9E0FFFFFF        jmp 0x100000750
00000770  FF2598AD0408      jmp near [0x804ad98]
00000776  6808000000        push dword 0x8
0000077B  E9D0FFFFFF        jmp 0x100000750
00000780  FF259CAD0408      jmp near [0x804ad9c]
00000786  6810000000        push dword 0x10
0000078B  E9C0FFFFFF        jmp 0x100000750
00000790  FF25A0AD0408      jmp near [0x804ada0]
00000796  6818000000        push dword 0x18
0000079B  E9B0FFFFFF        jmp 0x100000750
000007A0  FF25A4AD0408      jmp near [0x804ada4]
000007A6  6820000000        push dword 0x20
000007AB  E9A0FFFFFF        jmp 0x100000750
000007B0  FF25A8AD0408      jmp near [0x804ada8]
000007B6  6828000000        push dword 0x28
000007BB  E990FFFFFF        jmp 0x100000750
000007C0  FF25ACAD0408      jmp near [0x804adac]
000007C6  6830000000        push dword 0x30
000007CB  E980FFFFFF        jmp 0x100000750
000007D0  FF25B0AD0408      jmp near [0x804adb0]
000007D6  6838000000        push dword 0x38
000007DB  E970FFFFFF        jmp 0x100000750
000007E0  FF25B4AD0408      jmp near [0x804adb4]
000007E6  6840000000        push dword 0x40
000007EB  E960FFFFFF        jmp 0x100000750
000007F0  FF25B8AD0408      jmp near [0x804adb8]
000007F6  6848000000        push dword 0x48
000007FB  E950FFFFFF        jmp 0x100000750
00000800  FF25BCAD0408      jmp near [0x804adbc]
00000806  6850000000        push dword 0x50
0000080B  E940FFFFFF        jmp 0x100000750
00000810  FF25C0AD0408      jmp near [0x804adc0]
00000816  6858000000        push dword 0x58
0000081B  E930FFFFFF        jmp 0x100000750
00000820  FF25C4AD0408      jmp near [0x804adc4]
00000826  6860000000        push dword 0x60
0000082B  E920FFFFFF        jmp 0x100000750
00000830  FF25C8AD0408      jmp near [0x804adc8]
00000836  6868000000        push dword 0x68
0000083B  E910FFFFFF        jmp 0x100000750
00000840  FF25CCAD0408      jmp near [0x804adcc]
00000846  6870000000        push dword 0x70
0000084B  E900FFFFFF        jmp 0x100000750
00000850  FF25D0AD0408      jmp near [0x804add0]
00000856  6878000000        push dword 0x78
0000085B  E9F0FEFFFF        jmp 0x100000750
00000860  31ED              xor ebp,ebp
00000862  5E                pop esi
00000863  89E1              mov ecx,esp
00000865  83E4F0            and esp,byte -0x10
00000868  50                push eax
00000869  54                push esp
0000086A  52                push edx
0000086B  68A0940408        push dword 0x80494a0
00000870  68B0940408        push dword 0x80494b0
00000875  51                push ecx
00000876  56                push esi
00000877  6880890408        push dword 0x8048980
0000087C  E80FFFFFFF        call 0x100000790
00000881  F4                hlt
00000882  90                nop
00000883  90                nop
00000884  6690              o16 nop
00000886  6690              o16 nop
00000888  6690              o16 nop
0000088A  6690              o16 nop
0000088C  6690              o16 nop
0000088E  6690              o16 nop
00000890  B8DFAD0408        mov eax,0x804addf
00000895  2DDCAD0408        sub eax,0x804addc
0000089A  83F806            cmp eax,byte +0x6
0000089D  7701              ja 0x8a0
0000089F  C3                ret
000008A0  B800000000        mov eax,0x0
000008A5  85C0              test eax,eax
000008A7  74F6              jz 0x89f
000008A9  55                push ebp
000008AA  89E5              mov ebp,esp
000008AC  83EC18            sub esp,byte +0x18
000008AF  C70424DCAD0408    mov dword [esp],0x804addc
000008B6  FFD0              call eax
000008B8  C9                leave
000008B9  C3                ret
000008BA  8DB600000000      lea esi,[esi+0x0]
000008C0  B8DCAD0408        mov eax,0x804addc
000008C5  2DDCAD0408        sub eax,0x804addc
000008CA  C1F802            sar eax,0x2
000008CD  89C2              mov edx,eax
000008CF  C1EA1F            shr edx,0x1f
000008D2  01D0              add eax,edx
000008D4  D1F8              sar eax,1
000008D6  7501              jnz 0x8d9
000008D8  C3                ret
000008D9  BA00000000        mov edx,0x0
000008DE  85D2              test edx,edx
000008E0  74F6              jz 0x8d8
000008E2  55                push ebp
000008E3  89E5              mov ebp,esp
000008E5  83EC18            sub esp,byte +0x18
000008E8  89442404          mov [esp+0x4],eax
000008EC  C70424DCAD0408    mov dword [esp],0x804addc
000008F3  FFD2              call edx
000008F5  C9                leave
000008F6  C3                ret
000008F7  89F6              mov esi,esi
000008F9  8DBC2700000000    lea edi,[edi+0x0]
00000900  803DDCAD040800    cmp byte [0x804addc],0x0
00000907  7544              jnz 0x94d
00000909  55                push ebp
0000090A  89E5              mov ebp,esp
0000090C  53                push ebx
0000090D  BB9CAC0408        mov ebx,0x804ac9c
00000912  52                push edx
00000913  81EB98AC0408      sub ebx,0x804ac98
00000919  A1E0AD0408        mov eax,[0x804ade0]
0000091E  C1FB02            sar ebx,0x2
00000921  4B                dec ebx
00000922  39D8              cmp eax,ebx
00000924  7318              jnc 0x93e
00000926  6690              o16 nop
00000928  40                inc eax
00000929  A3E0AD0408        mov [0x804ade0],eax
0000092E  FF148598AC0408    call near [eax*4+0x804ac98]
00000935  A1E0AD0408        mov eax,[0x804ade0]
0000093A  39D8              cmp eax,ebx
0000093C  72EA              jc 0x928
0000093E  E84DFFFFFF        call 0x100000890
00000943  C605DCAD040801    mov byte [0x804addc],0x1
0000094A  58                pop eax
0000094B  5B                pop ebx
0000094C  5D                pop ebp
0000094D  C3                ret
0000094E  6690              o16 nop
00000950  8B0DA0AC0408      mov ecx,[0x804aca0]
00000956  85C9              test ecx,ecx
00000958  741E              jz 0x978
0000095A  B800000000        mov eax,0x0
0000095F  85C0              test eax,eax
00000961  7415              jz 0x978
00000963  55                push ebp
00000964  89E5              mov ebp,esp
00000966  83EC18            sub esp,byte +0x18
00000969  C70424A0AC0408    mov dword [esp],0x804aca0
00000970  FFD0              call eax
00000972  C9                leave
00000973  E948FFFFFF        jmp 0x1000008c0
00000978  E943FFFFFF        jmp 0x1000008c0
0000097D  6690              o16 nop
0000097F  90                nop
00000980  55                push ebp
00000981  89E5              mov ebp,esp
00000983  56                push esi
00000984  53                push ebx
00000985  83E4F0            and esp,byte -0x10
00000988  81ECA0020000      sub esp,0x2a0
0000098E  C744240808000000  mov dword [esp+0x8],0x8
00000996  C74424045C950408  mov dword [esp+0x4],0x804955c
0000099E  8D842424010000    lea eax,[esp+0x124]
000009A5  890424            mov [esp],eax
000009A8  E843FEFFFF        call 0x1000007f0
000009AD  C744240420000000  mov dword [esp+0x4],0x20
000009B5  C7042410000000    mov dword [esp],0x10
000009BC  E8AD050000        call 0xf6e
000009C1  89442408          mov [esp+0x8],eax
000009C5  C744240461950408  mov dword [esp+0x4],0x8049561
000009CD  8D442410          lea eax,[esp+0x10]
000009D1  890424            mov [esp],eax
000009D4  E837FEFFFF        call 0x100000810
000009D9  8D842468020000    lea eax,[esp+0x268]
000009E0  89442404          mov [esp+0x4],eax
000009E4  8D842424010000    lea eax,[esp+0x124]
000009EB  890424            mov [esp],eax
000009EE  E8EDFDFFFF        call 0x1000007e0
000009F3  C784249C02000000  mov dword [esp+0x29c],0x0
         -000000
000009FE  E982040000        jmp 0xe85
00000A03  8D842464020000    lea eax,[esp+0x264]
00000A0A  89442404          mov [esp+0x4],eax
00000A0E  8D842424010000    lea eax,[esp+0x124]
00000A15  890424            mov [esp],eax
00000A18  E8C3FDFFFF        call 0x1000007e0
00000A1D  8D84246F020000    lea eax,[esp+0x26f]
00000A24  890424            mov [esp],eax
00000A27  E850050000        call 0xf7c
00000A2C  C784247002000000  mov dword [esp+0x270],0x0
         -000000
00000A37  8B842464020000    mov eax,[esp+0x264]
00000A3E  8D94246F020000    lea edx,[esp+0x26f]
00000A45  8954240C          mov [esp+0xc],edx
00000A49  8D942470020000    lea edx,[esp+0x270]
00000A50  89542408          mov [esp+0x8],edx
00000A54  89442404          mov [esp+0x4],eax
00000A58  8D842458020000    lea eax,[esp+0x258]
00000A5F  890424            mov [esp],eax
00000A62  E83D050000        call 0xfa4
00000A67  8D84246F020000    lea eax,[esp+0x26f]
00000A6E  890424            mov [esp],eax
00000A71  E81A050000        call 0xf90
00000A76  8D842477020000    lea eax,[esp+0x277]
00000A7D  890424            mov [esp],eax
00000A80  E8F7040000        call 0xf7c
00000A85  C784247802000000  mov dword [esp+0x278],0x0
         -000000
00000A90  8B842464020000    mov eax,[esp+0x264]
00000A97  8D942477020000    lea edx,[esp+0x277]
00000A9E  8954240C          mov [esp+0xc],edx
00000AA2  8D942478020000    lea edx,[esp+0x278]
00000AA9  89542408          mov [esp+0x8],edx
00000AAD  89442404          mov [esp+0x4],eax
00000AB1  8D84244C020000    lea eax,[esp+0x24c]
00000AB8  890424            mov [esp],eax
00000ABB  E8E4040000        call 0xfa4
00000AC0  8D842477020000    lea eax,[esp+0x277]
00000AC7  890424            mov [esp],eax
00000ACA  E8C1040000        call 0xf90
00000ACF  C784249802000000  mov dword [esp+0x298],0x0
         -000000
00000ADA  EB5C              jmp short 0xb38
00000ADC  8B842498020000    mov eax,[esp+0x298]
00000AE3  89442404          mov [esp+0x4],eax
00000AE7  8D84244C020000    lea eax,[esp+0x24c]
00000AEE  890424            mov [esp],eax
00000AF1  E85E050000        call 0x1054
00000AF6  89C3              mov ebx,eax
00000AF8  8B842498020000    mov eax,[esp+0x298]
00000AFF  89442404          mov [esp+0x4],eax
00000B03  8D842458020000    lea eax,[esp+0x258]
00000B0A  890424            mov [esp],eax
00000B0D  E842050000        call 0x1054
00000B12  89442404          mov [esp+0x4],eax
00000B16  8D842424010000    lea eax,[esp+0x124]
00000B1D  890424            mov [esp],eax
00000B20  E8BBFCFFFF        call 0x1000007e0
00000B25  895C2404          mov [esp+0x4],ebx
00000B29  890424            mov [esp],eax
00000B2C  E8AFFCFFFF        call 0x1000007e0
00000B31  FF842498020000    inc dword [esp+0x298]
00000B38  8B842464020000    mov eax,[esp+0x264]
00000B3F  39842498020000    cmp [esp+0x298],eax
00000B46  7C94              jl 0xadc
00000B48  8D842448020000    lea eax,[esp+0x248]
00000B4F  89442404          mov [esp+0x4],eax
00000B53  8D842424010000    lea eax,[esp+0x124]
00000B5A  890424            mov [esp],eax
00000B5D  E87EFCFFFF        call 0x1000007e0
00000B62  8D84247F020000    lea eax,[esp+0x27f]
00000B69  890424            mov [esp],eax
00000B6C  E80B040000        call 0xf7c
00000B71  8B842464020000    mov eax,[esp+0x264]
00000B78  8D5005            lea edx,[eax+0x5]
00000B7B  8D84247F020000    lea eax,[esp+0x27f]
00000B82  8944240C          mov [esp+0xc],eax
00000B86  C7442408FFFFFFFF  mov dword [esp+0x8],0xffffffff
00000B8E  89542404          mov [esp+0x4],edx
00000B92  8D84243C020000    lea eax,[esp+0x23c]
00000B99  890424            mov [esp],eax
00000B9C  E8C5040000        call 0x1066
00000BA1  8D84247F020000    lea eax,[esp+0x27f]
00000BA8  890424            mov [esp],eax
00000BAB  E8E0030000        call 0xf90
00000BB0  C744240400000000  mov dword [esp+0x4],0x0
00000BB8  8D84243C020000    lea eax,[esp+0x23c]
00000BBF  890424            mov [esp],eax
00000BC2  E88D040000        call 0x1054
00000BC7  89C3              mov ebx,eax
00000BC9  C744240400000000  mov dword [esp+0x4],0x0
00000BD1  8D842458020000    lea eax,[esp+0x258]
00000BD8  890424            mov [esp],eax
00000BDB  E874040000        call 0x1054
00000BE0  8B00              mov eax,[eax]
00000BE2  8903              mov [ebx],eax
00000BE4  C784249402000001  mov dword [esp+0x294],0x1
         -000000
00000BEF  E95D010000        jmp 0xd51
00000BF4  C784249002000000  mov dword [esp+0x290],0x0
         -000000
00000BFF  E932010000        jmp 0xd36
00000C04  8B842494020000    mov eax,[esp+0x294]
00000C0B  89442404          mov [esp+0x4],eax
00000C0F  8D842458020000    lea eax,[esp+0x258]
00000C16  890424            mov [esp],eax
00000C19  E836040000        call 0x1054
00000C1E  8B18              mov ebx,[eax]
00000C20  8B842490020000    mov eax,[esp+0x290]
00000C27  89442404          mov [esp+0x4],eax
00000C2B  8D842458020000    lea eax,[esp+0x258]
00000C32  890424            mov [esp],eax
00000C35  E81A040000        call 0x1054
00000C3A  8B00              mov eax,[eax]
00000C3C  29C3              sub ebx,eax
00000C3E  8B842490020000    mov eax,[esp+0x290]
00000C45  89442404          mov [esp+0x4],eax
00000C49  8D84243C020000    lea eax,[esp+0x23c]
00000C50  890424            mov [esp],eax
00000C53  E8FC030000        call 0x1054
00000C58  8B00              mov eax,[eax]
00000C5A  39C3              cmp ebx,eax
00000C5C  0F9EC0            setng al
00000C5F  84C0              test al,al
00000C61  0F84C8000000      jz near 0xd2f
00000C67  8B842494020000    mov eax,[esp+0x294]
00000C6E  89442404          mov [esp+0x4],eax
00000C72  8D84244C020000    lea eax,[esp+0x24c]
00000C79  890424            mov [esp],eax
00000C7C  E8D3030000        call 0x1054
00000C81  89C3              mov ebx,eax
00000C83  8B842494020000    mov eax,[esp+0x294]
00000C8A  89442404          mov [esp+0x4],eax
00000C8E  8D842458020000    lea eax,[esp+0x258]
00000C95  890424            mov [esp],eax
00000C98  E8B7030000        call 0x1054
00000C9D  8B30              mov esi,[eax]
00000C9F  8B842490020000    mov eax,[esp+0x290]
00000CA6  89442404          mov [esp+0x4],eax
00000CAA  8D842458020000    lea eax,[esp+0x258]
00000CB1  890424            mov [esp],eax
00000CB4  E89B030000        call 0x1054
00000CB9  8B00              mov eax,[eax]
00000CBB  29C6              sub esi,eax
00000CBD  89F0              mov eax,esi
00000CBF  89842480020000    mov [esp+0x280],eax
00000CC6  895C2404          mov [esp+0x4],ebx
00000CCA  8D842480020000    lea eax,[esp+0x280]
00000CD1  890424            mov [esp],eax
00000CD4  E8E2030000        call 0x10bb
00000CD9  8B00              mov eax,[eax]
00000CDB  89842484020000    mov [esp+0x284],eax
00000CE2  8B842494020000    mov eax,[esp+0x294]
00000CE9  89442404          mov [esp+0x4],eax
00000CED  8D84243C020000    lea eax,[esp+0x23c]
00000CF4  890424            mov [esp],eax
00000CF7  E858030000        call 0x1054
00000CFC  8B00              mov eax,[eax]
00000CFE  3B842484020000    cmp eax,[esp+0x284]
00000D05  0F9CC0            setl al
00000D08  84C0              test al,al
00000D0A  7423              jz 0xd2f
00000D0C  8B842494020000    mov eax,[esp+0x294]
00000D13  89442404          mov [esp+0x4],eax
00000D17  8D84243C020000    lea eax,[esp+0x23c]
00000D1E  890424            mov [esp],eax
00000D21  E82E030000        call 0x1054
00000D26  8B942484020000    mov edx,[esp+0x284]
00000D2D  8910              mov [eax],edx
00000D2F  FF842490020000    inc dword [esp+0x290]
00000D36  8B842490020000    mov eax,[esp+0x290]
00000D3D  3B842494020000    cmp eax,[esp+0x294]
00000D44  0F8CBAFEFFFF      jl near 0x100000c04
00000D4A  FF842494020000    inc dword [esp+0x294]
00000D51  8B842464020000    mov eax,[esp+0x264]
00000D58  39842494020000    cmp [esp+0x294],eax
00000D5F  0F8C8FFEFFFF      jl near 0x100000bf4
00000D65  C684248F02000000  mov byte [esp+0x28f],0x0
00000D6D  C784248802000000  mov dword [esp+0x288],0x0
         -000000
00000D78  EB5B              jmp short 0xdd5
00000D7A  8B842488020000    mov eax,[esp+0x288]
00000D81  89442404          mov [esp+0x4],eax
00000D85  8D84243C020000    lea eax,[esp+0x23c]
00000D8C  890424            mov [esp],eax
00000D8F  E8C0020000        call 0x1054
00000D94  8B18              mov ebx,[eax]
00000D96  8BB42448020000    mov esi,[esp+0x248]
00000D9D  8B842488020000    mov eax,[esp+0x288]
00000DA4  89442404          mov [esp+0x4],eax
00000DA8  8D842458020000    lea eax,[esp+0x258]
00000DAF  890424            mov [esp],eax
00000DB2  E89D020000        call 0x1054
00000DB7  8B00              mov eax,[eax]
00000DB9  29C6              sub esi,eax
00000DBB  89F0              mov eax,esi
00000DBD  39C3              cmp ebx,eax
00000DBF  0F9DC0            setnl al
00000DC2  84C0              test al,al
00000DC4  7408              jz 0xdce
00000DC6  C684248F02000001  mov byte [esp+0x28f],0x1
00000DCE  FF842488020000    inc dword [esp+0x288]
00000DD5  8B842464020000    mov eax,[esp+0x264]
00000DDC  39842488020000    cmp [esp+0x288],eax
00000DE3  7C95              jl 0xd7a
00000DE5  80BC248F02000000  cmp byte [esp+0x28f],0x0
00000DED  7407              jz 0xdf6
00000DEF  BB67950408        mov ebx,0x8049567
00000DF4  EB05              jmp short 0xdfb
00000DF6  BB6B950408        mov ebx,0x804956b
00000DFB  8B84249C020000    mov eax,[esp+0x29c]
00000E02  8D7001            lea esi,[eax+0x1]
00000E05  C74424046E950408  mov dword [esp+0x4],0x804956e
00000E0D  8D442410          lea eax,[esp+0x10]
00000E11  890424            mov [esp],eax
00000E14  E887F9FFFF        call 0x1000007a0
00000E19  89742404          mov [esp+0x4],esi
00000E1D  890424            mov [esp],eax
00000E20  E83BF9FFFF        call 0x100000760
00000E25  C744240475950408  mov dword [esp+0x4],0x8049575
00000E2D  890424            mov [esp],eax
00000E30  E86BF9FFFF        call 0x1000007a0
00000E35  895C2404          mov [esp+0x4],ebx
00000E39  890424            mov [esp],eax
00000E3C  E85FF9FFFF        call 0x1000007a0
00000E41  C744240430880408  mov dword [esp+0x4],0x8048830
00000E49  890424            mov [esp],eax
00000E4C  E8AFF9FFFF        call 0x100000800
00000E51  8D84243C020000    lea eax,[esp+0x23c]
00000E58  890424            mov [esp],eax
00000E5B  E89C010000        call 0xffc
00000E60  8D84244C020000    lea eax,[esp+0x24c]
00000E67  890424            mov [esp],eax
00000E6A  E88D010000        call 0xffc
00000E6F  8D842458020000    lea eax,[esp+0x258]
00000E76  890424            mov [esp],eax
00000E79  E87E010000        call 0xffc
00000E7E  FF84249C020000    inc dword [esp+0x29c]
00000E85  8B842468020000    mov eax,[esp+0x268]
00000E8C  3984249C020000    cmp [esp+0x29c],eax
00000E93  0F8C6AFBFFFF      jl near 0x100000a03
00000E99  BB00000000        mov ebx,0x0
00000E9E  8D442410          lea eax,[esp+0x10]
00000EA2  890424            mov [esp],eax
00000EA5  E816F9FFFF        call 0x1000007c0
00000EAA  8D842424010000    lea eax,[esp+0x124]
00000EB1  890424            mov [esp],eax
00000EB4  E8F7F8FFFF        call 0x1000007b0
00000EB9  89D8              mov eax,ebx
00000EBB  E9A7000000        jmp 0xf67
00000EC0  89C3              mov ebx,eax
00000EC2  8D84246F020000    lea eax,[esp+0x26f]
00000EC9  890424            mov [esp],eax
00000ECC  E8BF000000        call 0xf90
00000ED1  89D8              mov eax,ebx
00000ED3  EB61              jmp short 0xf36
00000ED5  89C3              mov ebx,eax
00000ED7  8D842477020000    lea eax,[esp+0x277]
00000EDE  890424            mov [esp],eax
00000EE1  E8AA000000        call 0xf90
00000EE6  EB3B              jmp short 0xf23
00000EE8  89C3              mov ebx,eax
00000EEA  8D84247F020000    lea eax,[esp+0x27f]
00000EF1  890424            mov [esp],eax
00000EF4  E897000000        call 0xf90
00000EF9  EB15              jmp short 0xf10
00000EFB  89C3              mov ebx,eax
00000EFD  8D84243C020000    lea eax,[esp+0x23c]
00000F04  890424            mov [esp],eax
00000F07  E8F0000000        call 0xffc
00000F0C  EB02              jmp short 0xf10
00000F0E  89C3              mov ebx,eax
00000F10  8D84244C020000    lea eax,[esp+0x24c]
00000F17  890424            mov [esp],eax
00000F1A  E8DD000000        call 0xffc
00000F1F  EB02              jmp short 0xf23
00000F21  89C3              mov ebx,eax
00000F23  8D842458020000    lea eax,[esp+0x258]
00000F2A  890424            mov [esp],eax
00000F2D  E8CA000000        call 0xffc
00000F32  89D8              mov eax,ebx
00000F34  EB00              jmp short 0xf36
00000F36  89C3              mov ebx,eax
00000F38  EB02              jmp short 0xf3c
00000F3A  89C3              mov ebx,eax
00000F3C  8D442410          lea eax,[esp+0x10]
00000F40  890424            mov [esp],eax
00000F43  E878F8FFFF        call 0x1000007c0
00000F48  EB02              jmp short 0xf4c
00000F4A  89C3              mov ebx,eax
00000F4C  8D842424010000    lea eax,[esp+0x124]
00000F53  890424            mov [esp],eax
00000F56  E855F8FFFF        call 0x1000007b0
00000F5B  89D8              mov eax,ebx
00000F5D  EB00              jmp short 0xf5f
00000F5F  890424            mov [esp],eax
00000F62  E8E9F8FFFF        call 0x100000850
00000F67  8D65F8            lea esp,[ebp-0x8]
00000F6A  5B                pop ebx
00000F6B  5E                pop esi
00000F6C  5D                pop ebp
00000F6D  C3                ret
00000F6E  55                push ebp
00000F6F  89E5              mov ebp,esp
00000F71  8B5508            mov edx,[ebp+0x8]
00000F74  8B450C            mov eax,[ebp+0xc]
00000F77  09D0              or eax,edx
00000F79  5D                pop ebp
00000F7A  C3                ret
00000F7B  90                nop
00000F7C  55                push ebp
00000F7D  89E5              mov ebp,esp
00000F7F  83EC18            sub esp,byte +0x18
00000F82  8B4508            mov eax,[ebp+0x8]
00000F85  890424            mov [esp],eax
00000F88  E849010000        call 0x10d6
00000F8D  C9                leave
00000F8E  C3                ret
00000F8F  90                nop
00000F90  55                push ebp
00000F91  89E5              mov ebp,esp
00000F93  83EC18            sub esp,byte +0x18
00000F96  8B4508            mov eax,[ebp+0x8]
00000F99  890424            mov [esp],eax
00000F9C  E83B010000        call 0x10dc
00000FA1  C9                leave
00000FA2  C3                ret
00000FA3  90                nop
00000FA4  55                push ebp
00000FA5  89E5              mov ebp,esp
00000FA7  53                push ebx
00000FA8  83EC14            sub esp,byte +0x14
00000FAB  8B4508            mov eax,[ebp+0x8]
00000FAE  8B5514            mov edx,[ebp+0x14]
00000FB1  89542408          mov [esp+0x8],edx
00000FB5  8B550C            mov edx,[ebp+0xc]
00000FB8  89542404          mov [esp+0x4],edx
00000FBC  890424            mov [esp],eax
00000FBF  E832010000        call 0x10f6
00000FC4  8B4510            mov eax,[ebp+0x10]
00000FC7  89442408          mov [esp+0x8],eax
00000FCB  8B450C            mov eax,[ebp+0xc]
00000FCE  89442404          mov [esp+0x4],eax
00000FD2  8B4508            mov eax,[ebp+0x8]
00000FD5  890424            mov [esp],eax
00000FD8  E8C3010000        call 0x11a0
00000FDD  EB17              jmp short 0xff6
00000FDF  89C3              mov ebx,eax
00000FE1  8B4508            mov eax,[ebp+0x8]
00000FE4  890424            mov [esp],eax
00000FE7  E854010000        call 0x1140
00000FEC  89D8              mov eax,ebx
00000FEE  890424            mov [esp],eax
00000FF1  E85AF8FFFF        call 0x100000850
00000FF6  83C414            add esp,byte +0x14
00000FF9  5B                pop ebx
00000FFA  5D                pop ebp
00000FFB  C3                ret
00000FFC  55                push ebp
00000FFD  89E5              mov ebp,esp
00000FFF  53                push ebx
00001000  83EC14            sub esp,byte +0x14
00001003  8B4508            mov eax,[ebp+0x8]
00001006  890424            mov [esp],eax
00001009  E8D0010000        call 0x11de
0000100E  8B5508            mov edx,[ebp+0x8]
00001011  8B4A04            mov ecx,[edx+0x4]
00001014  8B5508            mov edx,[ebp+0x8]
00001017  8B12              mov edx,[edx]
00001019  89442408          mov [esp+0x8],eax
0000101D  894C2404          mov [esp+0x4],ecx
00001021  891424            mov [esp],edx
00001024  E8BD010000        call 0x11e6
00001029  8B4508            mov eax,[ebp+0x8]
0000102C  890424            mov [esp],eax
0000102F  E80C010000        call 0x1140
00001034  EB17              jmp short 0x104d
00001036  89C3              mov ebx,eax
00001038  8B4508            mov eax,[ebp+0x8]
0000103B  890424            mov [esp],eax
0000103E  E8FD000000        call 0x1140
00001043  89D8              mov eax,ebx
00001045  890424            mov [esp],eax
00001048  E803F8FFFF        call 0x100000850
0000104D  83C414            add esp,byte +0x14
00001050  5B                pop ebx
00001051  5D                pop ebp
00001052  C3                ret
00001053  90                nop
00001054  55                push ebp
00001055  89E5              mov ebp,esp
00001057  8B4508            mov eax,[ebp+0x8]
0000105A  8B00              mov eax,[eax]
0000105C  8B550C            mov edx,[ebp+0xc]
0000105F  C1E202            shl edx,0x2
00001062  01D0              add eax,edx
00001064  5D                pop ebp
00001065  C3                ret
00001066  55                push ebp
00001067  89E5              mov ebp,esp
00001069  53                push ebx
0000106A  83EC24            sub esp,byte +0x24
0000106D  8B4508            mov eax,[ebp+0x8]
00001070  8B5514            mov edx,[ebp+0x14]
00001073  89542404          mov [esp+0x4],edx
00001077  890424            mov [esp],eax
0000107A  E881010000        call 0x1200
0000107F  885C240C          mov [esp+0xc],bl
00001083  8B4510            mov eax,[ebp+0x10]
00001086  89442408          mov [esp+0x8],eax
0000108A  8B450C            mov eax,[ebp+0xc]
0000108D  89442404          mov [esp+0x4],eax
00001091  8B4508            mov eax,[ebp+0x8]
00001094  890424            mov [esp],eax
00001097  E87E010000        call 0x121a
0000109C  EB17              jmp short 0x10b5
0000109E  89C3              mov ebx,eax
000010A0  8B4508            mov eax,[ebp+0x8]
000010A3  890424            mov [esp],eax
000010A6  E895000000        call 0x1140
000010AB  89D8              mov eax,ebx
000010AD  890424            mov [esp],eax
000010B0  E89BF7FFFF        call 0x100000850
000010B5  83C424            add esp,byte +0x24
000010B8  5B                pop ebx
000010B9  5D                pop ebp
000010BA  C3                ret
000010BB  55                push ebp
000010BC  89E5              mov ebp,esp
000010BE  8B450C            mov eax,[ebp+0xc]
000010C1  8B10              mov edx,[eax]
000010C3  8B4508            mov eax,[ebp+0x8]
000010C6  8B00              mov eax,[eax]
000010C8  39C2              cmp edx,eax
000010CA  7D05              jnl 0x10d1
000010CC  8B450C            mov eax,[ebp+0xc]
000010CF  EB03              jmp short 0x10d4
000010D1  8B4508            mov eax,[ebp+0x8]
000010D4  5D                pop ebp
000010D5  C3                ret
000010D6  55                push ebp
000010D7  89E5              mov ebp,esp
000010D9  5D                pop ebp
000010DA  C3                ret
000010DB  90                nop
000010DC  55                push ebp
000010DD  89E5              mov ebp,esp
000010DF  5D                pop ebp
000010E0  C3                ret
000010E1  90                nop
000010E2  55                push ebp
000010E3  89E5              mov ebp,esp
000010E5  83EC18            sub esp,byte +0x18
000010E8  8B4508            mov eax,[ebp+0x8]
000010EB  890424            mov [esp],eax
000010EE  E89DFEFFFF        call 0x100000f90
000010F3  C9                leave
000010F4  C3                ret
000010F5  90                nop
000010F6  55                push ebp
000010F7  89E5              mov ebp,esp
000010F9  53                push ebx
000010FA  83EC14            sub esp,byte +0x14
000010FD  8B4508            mov eax,[ebp+0x8]
00001100  8B5510            mov edx,[ebp+0x10]
00001103  89542404          mov [esp+0x4],edx
00001107  890424            mov [esp],eax
0000110A  E857010000        call 0x1266
0000110F  8B450C            mov eax,[ebp+0xc]
00001112  89442404          mov [esp+0x4],eax
00001116  8B4508            mov eax,[ebp+0x8]
00001119  890424            mov [esp],eax
0000111C  E87D010000        call 0x129e
00001121  EB17              jmp short 0x113a
00001123  89C3              mov ebx,eax
00001125  8B4508            mov eax,[ebp+0x8]
00001128  890424            mov [esp],eax
0000112B  E8B2FFFFFF        call 0x1000010e2
00001130  89D8              mov eax,ebx
00001132  890424            mov [esp],eax
00001135  E816F7FFFF        call 0x100000850
0000113A  83C414            add esp,byte +0x14
0000113D  5B                pop ebx
0000113E  5D                pop ebp
0000113F  C3                ret
00001140  55                push ebp
00001141  89E5              mov ebp,esp
00001143  53                push ebx
00001144  83EC14            sub esp,byte +0x14
00001147  8B4508            mov eax,[ebp+0x8]
0000114A  8B4008            mov eax,[eax+0x8]
0000114D  89C2              mov edx,eax
0000114F  8B4508            mov eax,[ebp+0x8]
00001152  8B00              mov eax,[eax]
00001154  29C2              sub edx,eax
00001156  89D0              mov eax,edx
00001158  C1F802            sar eax,0x2
0000115B  89C2              mov edx,eax
0000115D  8B4508            mov eax,[ebp+0x8]
00001160  8B00              mov eax,[eax]
00001162  89542408          mov [esp+0x8],edx
00001166  89442404          mov [esp+0x4],eax
0000116A  8B4508            mov eax,[ebp+0x8]
0000116D  890424            mov [esp],eax
00001170  E867010000        call 0x12dc
00001175  8B4508            mov eax,[ebp+0x8]
00001178  890424            mov [esp],eax
0000117B  E862FFFFFF        call 0x1000010e2
00001180  EB17              jmp short 0x1199
00001182  89C3              mov ebx,eax
00001184  8B4508            mov eax,[ebp+0x8]
00001187  890424            mov [esp],eax
0000118A  E853FFFFFF        call 0x1000010e2
0000118F  89D8              mov eax,ebx
00001191  890424            mov [esp],eax
00001194  E8B7F6FFFF        call 0x100000850
00001199  83C414            add esp,byte +0x14
0000119C  5B                pop ebx
0000119D  5D                pop ebp
0000119E  C3                ret
0000119F  90                nop
000011A0  55                push ebp
000011A1  89E5              mov ebp,esp
000011A3  83EC18            sub esp,byte +0x18
000011A6  8B4508            mov eax,[ebp+0x8]
000011A9  890424            mov [esp],eax
000011AC  E82D000000        call 0x11de
000011B1  8B5508            mov edx,[ebp+0x8]
000011B4  8B12              mov edx,[edx]
000011B6  8944240C          mov [esp+0xc],eax
000011BA  8B4510            mov eax,[ebp+0x10]
000011BD  89442408          mov [esp+0x8],eax
000011C1  8B450C            mov eax,[ebp+0xc]
000011C4  89442404          mov [esp+0x4],eax
000011C8  891424            mov [esp],edx
000011CB  E833010000        call 0x1303
000011D0  8B4508            mov eax,[ebp+0x8]
000011D3  8B5008            mov edx,[eax+0x8]
000011D6  8B4508            mov eax,[ebp+0x8]
000011D9  895004            mov [eax+0x4],edx
000011DC  C9                leave
000011DD  C3                ret
000011DE  55                push ebp
000011DF  89E5              mov ebp,esp
000011E1  8B4508            mov eax,[ebp+0x8]
000011E4  5D                pop ebp
000011E5  C3                ret
000011E6  55                push ebp
000011E7  89E5              mov ebp,esp
000011E9  83EC18            sub esp,byte +0x18
000011EC  8B450C            mov eax,[ebp+0xc]
000011EF  89442404          mov [esp+0x4],eax
000011F3  8B4508            mov eax,[ebp+0x8]
000011F6  890424            mov [esp],eax
000011F9  E826010000        call 0x1324
000011FE  C9                leave
000011FF  C3                ret
00001200  55                push ebp
00001201  89E5              mov ebp,esp
00001203  83EC18            sub esp,byte +0x18
00001206  8B4508            mov eax,[ebp+0x8]
00001209  8B550C            mov edx,[ebp+0xc]
0000120C  89542404          mov [esp+0x4],edx
00001210  890424            mov [esp],eax
00001213  E84E000000        call 0x1266
00001218  C9                leave
00001219  C3                ret
0000121A  55                push ebp
0000121B  89E5              mov ebp,esp
0000121D  83EC18            sub esp,byte +0x18
00001220  8B550C            mov edx,[ebp+0xc]
00001223  8B4508            mov eax,[ebp+0x8]
00001226  89542404          mov [esp+0x4],edx
0000122A  890424            mov [esp],eax
0000122D  E80C010000        call 0x133e
00001232  8B5508            mov edx,[ebp+0x8]
00001235  8902              mov [edx],eax
00001237  8B4508            mov eax,[ebp+0x8]
0000123A  8B00              mov eax,[eax]
0000123C  8B550C            mov edx,[ebp+0xc]
0000123F  C1E202            shl edx,0x2
00001242  01C2              add edx,eax
00001244  8B4508            mov eax,[ebp+0x8]
00001247  895008            mov [eax+0x8],edx
0000124A  8B450C            mov eax,[ebp+0xc]
0000124D  8D5510            lea edx,[ebp+0x10]
00001250  89542408          mov [esp+0x8],edx
00001254  89442404          mov [esp+0x4],eax
00001258  8B4508            mov eax,[ebp+0x8]
0000125B  890424            mov [esp],eax
0000125E  E83DFFFFFF        call 0x1000011a0
00001263  C9                leave
00001264  C3                ret
00001265  90                nop
00001266  55                push ebp
00001267  89E5              mov ebp,esp
00001269  83EC18            sub esp,byte +0x18
0000126C  8B450C            mov eax,[ebp+0xc]
0000126F  89442404          mov [esp+0x4],eax
00001273  8B4508            mov eax,[ebp+0x8]
00001276  890424            mov [esp],eax
00001279  E8F0000000        call 0x136e
0000127E  8B4508            mov eax,[ebp+0x8]
00001281  C70000000000      mov dword [eax],0x0
00001287  8B4508            mov eax,[ebp+0x8]
0000128A  C7400400000000    mov dword [eax+0x4],0x0
00001291  8B4508            mov eax,[ebp+0x8]
00001294  C7400800000000    mov dword [eax+0x8],0x0
0000129B  C9                leave
0000129C  C3                ret
0000129D  90                nop
0000129E  55                push ebp
0000129F  89E5              mov ebp,esp
000012A1  83EC18            sub esp,byte +0x18
000012A4  8B450C            mov eax,[ebp+0xc]
000012A7  89442404          mov [esp+0x4],eax
000012AB  8B4508            mov eax,[ebp+0x8]
000012AE  890424            mov [esp],eax
000012B1  E888000000        call 0x133e
000012B6  8B5508            mov edx,[ebp+0x8]
000012B9  8902              mov [edx],eax
000012BB  8B4508            mov eax,[ebp+0x8]
000012BE  8B10              mov edx,[eax]
000012C0  8B4508            mov eax,[ebp+0x8]
000012C3  895004            mov [eax+0x4],edx
000012C6  8B4508            mov eax,[ebp+0x8]
000012C9  8B00              mov eax,[eax]
000012CB  8B550C            mov edx,[ebp+0xc]
000012CE  C1E202            shl edx,0x2
000012D1  01C2              add edx,eax
000012D3  8B4508            mov eax,[ebp+0x8]
000012D6  895008            mov [eax+0x8],edx
000012D9  C9                leave
000012DA  C3                ret
000012DB  90                nop
000012DC  55                push ebp
000012DD  89E5              mov ebp,esp
000012DF  83EC18            sub esp,byte +0x18
000012E2  837D0C00          cmp dword [ebp+0xc],byte +0x0
000012E6  7419              jz 0x1301
000012E8  8B4508            mov eax,[ebp+0x8]
000012EB  8B5510            mov edx,[ebp+0x10]
000012EE  89542408          mov [esp+0x8],edx
000012F2  8B550C            mov edx,[ebp+0xc]
000012F5  89542404          mov [esp+0x4],edx
000012F9  890424            mov [esp],eax
000012FC  E887000000        call 0x1388
00001301  C9                leave
00001302  C3                ret
00001303  55                push ebp
00001304  89E5              mov ebp,esp
00001306  83EC18            sub esp,byte +0x18
00001309  8B4510            mov eax,[ebp+0x10]
0000130C  89442408          mov [esp+0x8],eax
00001310  8B450C            mov eax,[ebp+0xc]
00001313  89442404          mov [esp+0x4],eax
00001317  8B4508            mov eax,[ebp+0x8]
0000131A  890424            mov [esp],eax
0000131D  E879000000        call 0x139b
00001322  C9                leave
00001323  C3                ret
00001324  55                push ebp
00001325  89E5              mov ebp,esp
00001327  83EC18            sub esp,byte +0x18
0000132A  8B450C            mov eax,[ebp+0xc]
0000132D  89442404          mov [esp+0x4],eax
00001331  8B4508            mov eax,[ebp+0x8]
00001334  890424            mov [esp],eax
00001337  E880000000        call 0x13bc
0000133C  C9                leave
0000133D  C3                ret
0000133E  55                push ebp
0000133F  89E5              mov ebp,esp
00001341  83EC18            sub esp,byte +0x18
00001344  837D0C00          cmp dword [ebp+0xc],byte +0x0
00001348  741C              jz 0x1366
0000134A  8B4508            mov eax,[ebp+0x8]
0000134D  C744240800000000  mov dword [esp+0x8],0x0
00001355  8B550C            mov edx,[ebp+0xc]
00001358  89542404          mov [esp+0x4],edx
0000135C  890424            mov [esp],eax
0000135F  E85E000000        call 0x13c2
00001364  EB05              jmp short 0x136b
00001366  B800000000        mov eax,0x0
0000136B  C9                leave
0000136C  C3                ret
0000136D  90                nop
0000136E  55                push ebp
0000136F  89E5              mov ebp,esp
00001371  83EC18            sub esp,byte +0x18
00001374  8B450C            mov eax,[ebp+0xc]
00001377  89442404          mov [esp+0x4],eax
0000137B  8B4508            mov eax,[ebp+0x8]
0000137E  890424            mov [esp],eax
00001381  E86C000000        call 0x13f2
00001386  C9                leave
00001387  C3                ret
00001388  55                push ebp
00001389  89E5              mov ebp,esp
0000138B  83EC18            sub esp,byte +0x18
0000138E  8B450C            mov eax,[ebp+0xc]
00001391  890424            mov [esp],eax
00001394  E8E7F3FFFF        call 0x100000780
00001399  C9                leave
0000139A  C3                ret
0000139B  55                push ebp
0000139C  89E5              mov ebp,esp
0000139E  83EC18            sub esp,byte +0x18
000013A1  8B4510            mov eax,[ebp+0x10]
000013A4  89442408          mov [esp+0x8],eax
000013A8  8B450C            mov eax,[ebp+0xc]
000013AB  89442404          mov [esp+0x4],eax
000013AF  8B4508            mov eax,[ebp+0x8]
000013B2  890424            mov [esp],eax
000013B5  E83D000000        call 0x13f7
000013BA  C9                leave
000013BB  C3                ret
000013BC  55                push ebp
000013BD  89E5              mov ebp,esp
000013BF  5D                pop ebp
000013C0  C3                ret
000013C1  90                nop
000013C2  55                push ebp
000013C3  89E5              mov ebp,esp
000013C5  83EC18            sub esp,byte +0x18
000013C8  8B4508            mov eax,[ebp+0x8]
000013CB  890424            mov [esp],eax
000013CE  E845000000        call 0x1418
000013D3  3B450C            cmp eax,[ebp+0xc]
000013D6  0F92C0            setc al
000013D9  84C0              test al,al
000013DB  7405              jz 0x13e2
000013DD  E83EF4FFFF        call 0x100000820
000013E2  8B450C            mov eax,[ebp+0xc]
000013E5  C1E002            shl eax,0x2
000013E8  890424            mov [esp],eax
000013EB  E8E0F3FFFF        call 0x1000007d0
000013F0  C9                leave
000013F1  C3                ret
000013F2  55                push ebp
000013F3  89E5              mov ebp,esp
000013F5  5D                pop ebp
000013F6  C3                ret
000013F7  55                push ebp
000013F8  89E5              mov ebp,esp
000013FA  83EC18            sub esp,byte +0x18
000013FD  8B4510            mov eax,[ebp+0x10]
00001400  89442408          mov [esp+0x8],eax
00001404  8B450C            mov eax,[ebp+0xc]
00001407  89442404          mov [esp+0x4],eax
0000140B  8B4508            mov eax,[ebp+0x8]
0000140E  890424            mov [esp],eax
00001411  E80C000000        call 0x1422
00001416  C9                leave
00001417  C3                ret
00001418  55                push ebp
00001419  89E5              mov ebp,esp
0000141B  B8FFFFFF3F        mov eax,0x3fffffff
00001420  5D                pop ebp
00001421  C3                ret
00001422  55                push ebp
00001423  89E5              mov ebp,esp
00001425  83EC18            sub esp,byte +0x18
00001428  8B4508            mov eax,[ebp+0x8]
0000142B  890424            mov [esp],eax
0000142E  E818000000        call 0x144b
00001433  8B5510            mov edx,[ebp+0x10]
00001436  89542408          mov [esp+0x8],edx
0000143A  8B550C            mov edx,[ebp+0xc]
0000143D  89542404          mov [esp+0x4],edx
00001441  890424            mov [esp],eax
00001444  E815000000        call 0x145e
00001449  C9                leave
0000144A  C3                ret
0000144B  55                push ebp
0000144C  89E5              mov ebp,esp
0000144E  83EC18            sub esp,byte +0x18
00001451  8B4508            mov eax,[ebp+0x8]
00001454  890424            mov [esp],eax
00001457  E832000000        call 0x148e
0000145C  C9                leave
0000145D  C3                ret
0000145E  55                push ebp
0000145F  89E5              mov ebp,esp
00001461  83EC10            sub esp,byte +0x10
00001464  8B4510            mov eax,[ebp+0x10]
00001467  8B00              mov eax,[eax]
00001469  8945F8            mov [ebp-0x8],eax
0000146C  8B450C            mov eax,[ebp+0xc]
0000146F  8945FC            mov [ebp-0x4],eax
00001472  EB0F              jmp short 0x1483
00001474  8B4508            mov eax,[ebp+0x8]
00001477  8B55F8            mov edx,[ebp-0x8]
0000147A  8910              mov [eax],edx
0000147C  FF4DFC            dec dword [ebp-0x4]
0000147F  83450804          add dword [ebp+0x8],byte +0x4
00001483  837DFC00          cmp dword [ebp-0x4],byte +0x0
00001487  75EB              jnz 0x1474
00001489  8B4508            mov eax,[ebp+0x8]
0000148C  C9                leave
0000148D  C3                ret
0000148E  55                push ebp
0000148F  89E5              mov ebp,esp
00001491  8B4508            mov eax,[ebp+0x8]
00001494  5D                pop ebp
00001495  C3                ret
00001496  6690              o16 nop
00001498  6690              o16 nop
0000149A  6690              o16 nop
0000149C  6690              o16 nop
0000149E  6690              o16 nop
000014A0  55                push ebp
000014A1  89E5              mov ebp,esp
000014A3  5D                pop ebp
000014A4  C3                ret
000014A5  66                db 0x66
000014A6  66                db 0x66
000014A7  2E                db 0x2E
000014A8  0F                db 0x0F
000014A9  1F                pop ds
000014AA  8400              test [eax],al
000014AC  0000              add [eax],al
000014AE  0000              add [eax],al
000014B0  55                push ebp
000014B1  89E5              mov ebp,esp
000014B3  57                push edi
000014B4  56                push esi
000014B5  53                push ebx
000014B6  E84F000000        call 0x150a
000014BB  81C3CD180000      add ebx,0x18cd
000014C1  83EC1C            sub esp,byte +0x1c
000014C4  E84BF2FFFF        call 0x100000714
000014C9  8DBB06FFFFFF      lea edi,[ebx+0xffffff06]
000014CF  8D8306FFFFFF      lea eax,[ebx+0xffffff06]
000014D5  29C7              sub edi,eax
000014D7  C1FF02            sar edi,0x2
000014DA  85FF              test edi,edi
000014DC  7424              jz 0x1502
000014DE  31F6              xor esi,esi
000014E0  8B4510            mov eax,[ebp+0x10]
000014E3  89442408          mov [esp+0x8],eax
000014E7  8B450C            mov eax,[ebp+0xc]
000014EA  89442404          mov [esp+0x4],eax
000014EE  8B4508            mov eax,[ebp+0x8]
000014F1  890424            mov [esp],eax
000014F4  FF94B306FFFFFF    call near [ebx+esi*4+0xffffff06]
000014FB  83C601            add esi,byte +0x1
000014FE  39FE              cmp esi,edi
00001500  72DE              jc 0x14e0
00001502  83C41C            add esp,byte +0x1c
00001505  5B                pop ebx
00001506  5E                pop esi
00001507  5F                pop edi
00001508  5D                pop ebp
00001509  C3                ret
0000150A  8B1C24            mov ebx,[esp]
0000150D  C3                ret
0000150E  6690              o16 nop
00001510  55                push ebp
00001511  89E5              mov ebp,esp
00001513  53                push ebx
00001514  52                push edx
00001515  BB90AC0408        mov ebx,0x804ac90
0000151A  A190AC0408        mov eax,[0x804ac90]
0000151F  83F8FF            cmp eax,byte -0x1
00001522  7410              jz 0x1534
00001524  8D742600          lea esi,[esi+0x0]
00001528  83EB04            sub ebx,byte +0x4
0000152B  FFD0              call eax
0000152D  8B03              mov eax,[ebx]
0000152F  83F8FF            cmp eax,byte -0x1
00001532  75F4              jnz 0x1528
00001534  58                pop eax
00001535  5B                pop ebx
00001536  5D                pop ebp
00001537  C3                ret
00001538  55                push ebp
00001539  89E5              mov ebp,esp
0000153B  53                push ebx
0000153C  83EC04            sub esp,byte +0x4
0000153F  E800000000        call 0x1544
00001544  5B                pop ebx
00001545  81C344180000      add ebx,0x1844
0000154B  E8B0F3FFFF        call 0x100000900
00001550  59                pop ecx
00001551  5B                pop ebx
00001552  C9                leave
00001553  C3                ret
00001554  0300              add eax,[eax]
00001556  0000              add [eax],al
00001558  0100              add [eax],eax
0000155A  0200              add al,[eax]
0000155C  61                popa
0000155D  2E696E00612E6F75  imul ebp,[cs:esi+0x0],dword 0x756f2e61
00001565  7400              jz 0x1567
00001567  59                pop ecx
00001568  45                inc ebp
00001569  53                push ebx
0000156A  004E4F            add [esi+0x4f],cl
0000156D  004361            add [ebx+0x61],al
00001570  7365              jnc 0x15d7
00001572  2023              and [ebx],ah
00001574  003A              add [edx],bh
00001576  2000              and [eax],al
00001578  011B              add [ebx],ebx
0000157A  033B              add edi,[ebx]
0000157C  3801              cmp [ecx],al
0000157E  0000              add [eax],al
00001580  260000            add [es:eax],al
00001583  00D8              add al,bl
00001585  F1                int1
00001586  FF                db 0xFF
00001587  FF540100          call near [ecx+eax+0x0]
0000158B  0008              add [eax],cl
0000158D  F4                hlt
0000158E  FF                db 0xFF
0000158F  FF                db 0xFF
00001590  B8010000F6        mov eax,0xf6000001
00001595  F9                stc
00001596  FF                db 0xFF
00001597  FF                db 0xFF
00001598  7801              js 0x159b
0000159A  0000              add [eax],al
0000159C  04FA              add al,0xfa
0000159E  FF                db 0xFF
0000159F  FF                db 0xFF
000015A0  E801000018        call 0x180015a6
000015A5  FA                cli
000015A6  FF                db 0xFF
000015A7  FF08              dec dword [eax]
000015A9  0200              add al,[eax]
000015AB  002CFA            add [edx+edi*8],ch
000015AE  FF                db 0xFF
000015AF  FF28              jmp far [eax]
000015B1  0200              add al,[eax]
000015B3  0084FAFFFF5002    add [edx+edi*8+0x250ffff],al
000015BA  0000              add [eax],al
000015BC  DCFA              fdiv to st2
000015BE  FF                db 0xFF
000015BF  FF                db 0xFF
000015C0  7802              js 0x15c4
000015C2  0000              add [eax],al
000015C4  EE                out dx,al
000015C5  FA                cli
000015C6  FF                db 0xFF
000015C7  FF9802000043      call far [eax+0x43000002]
000015CD  FB                sti
000015CE  FF                db 0xFF
000015CF  FFC0              inc eax
000015D1  0200              add al,[eax]
000015D3  005EFB            add [esi-0x5],bl
000015D6  FF                db 0xFF
000015D7  FFE0              jmp eax
000015D9  0200              add al,[eax]
000015DB  0064FBFF          add [ebx+edi*8-0x1],ah
000015DF  FF00              inc dword [eax]
000015E1  0300              add eax,[eax]
000015E3  006AFB            add [edx-0x5],ch
000015E6  FF                db 0xFF
000015E7  FF20              jmp near [eax]
000015E9  0300              add eax,[eax]
000015EB  007EFB            add [esi-0x5],bh
000015EE  FF                db 0xFF
000015EF  FF4003            inc dword [eax+0x3]
000015F2  0000              add [eax],al
000015F4  C8FBFFFF          enter 0xfffb,0xff
000015F8  6803000028        push dword 0x28000003
000015FD  FC                cld
000015FE  FF                db 0xFF
000015FF  FF9003000066      call near [eax+0x66000003]
00001605  FC                cld
00001606  FF                db 0xFF
00001607  FFB00300006E      push dword [eax+0x6e000003]
0000160D  FC                cld
0000160E  FF                db 0xFF
0000160F  FFD0              call eax
00001611  0300              add eax,[eax]
00001613  0088FCFFFFF0      add [eax+0xf0fffffc],cl
00001619  0300              add eax,[eax]
0000161B  00A2FCFFFF10      add [edx+0x10fffffc],ah
00001621  0400              add al,0x0
00001623  00EE              add dh,ch
00001625  FC                cld
00001626  FF                db 0xFF
00001627  FF30              push dword [eax]
00001629  0400              add al,0x0
0000162B  0026              add [esi],ah
0000162D  FD                std
0000162E  FF                db 0xFF
0000162F  FF5004            call near [eax+0x4]
00001632  0000              add [eax],al
00001634  64FD              fs std
00001636  FF                db 0xFF
00001637  FF7004            push dword [eax+0x4]
0000163A  0000              add [eax],al
0000163C  8BFD              mov edi,ebp
0000163E  FF                db 0xFF
0000163F  FF90040000AC      call near [eax+0xac000004]
00001645  FD                std
00001646  FF                db 0xFF
00001647  FFB0040000C6      push dword [eax+0xc6000004]
0000164D  FD                std
0000164E  FF                db 0xFF
0000164F  FFD0              call eax
00001651  0400              add al,0x0
00001653  00F6              add dh,dh
00001655  FD                std
00001656  FF                db 0xFF
00001657  FFF0              push eax
00001659  0400              add al,0x0
0000165B  0010              add [eax],dl
0000165D  FE                db 0xFE
0000165E  FF                db 0xFF
0000165F  FF10              call near [eax]
00001661  05000023FE        add eax,0xfe230000
00001666  FF                db 0xFF
00001667  FF30              push dword [eax]
00001669  05000044FE        add eax,0xfe440000
0000166E  FF                db 0xFF
0000166F  FF5005            call near [eax+0x5]
00001672  0000              add [eax],al
00001674  4A                dec edx
00001675  FE                db 0xFE
00001676  FF                db 0xFF
00001677  FF7005            push dword [eax+0x5]
0000167A  0000              add [eax],al
0000167C  7AFE              jpe 0x167c
0000167E  FF                db 0xFF
0000167F  FF900500007F      call near [eax+0x7f000005]
00001685  FE                db 0xFE
00001686  FF                db 0xFF
00001687  FFB0050000A0      push dword [eax+0xa0000005]
0000168D  FE                db 0xFE
0000168E  FF                db 0xFF
0000168F  FFD0              call eax
00001691  050000AAFE        add eax,0xfeaa0000
00001696  FF                db 0xFF
00001697  FFF0              push eax
00001699  050000D3FE        add eax,0xfed30000
0000169E  FF                db 0xFF
0000169F  FF10              call near [eax]
000016A1  06                push es
000016A2  0000              add [eax],al
000016A4  E6FE              out 0xfe,al
000016A6  FF                db 0xFF
000016A7  FF30              push dword [eax]
000016A9  06                push es
000016AA  0000              add [eax],al
000016AC  16                push ss
000016AD  FF                db 0xFF
000016AE  FF                db 0xFF
000016AF  FF5006            call near [eax+0x6]
000016B2  0000              add [eax],al
000016B4  1400              adc al,0x0
000016B6  0000              add [eax],al
000016B8  0000              add [eax],al
000016BA  0000              add [eax],al
000016BC  017A52            add [edx+0x52],edi
000016BF  0001              add [ecx],al
000016C1  7C08              jl 0x16cb
000016C3  011B              add [ebx],ebx
000016C5  0C04              or al,0x4
000016C7  0488              add al,0x88
000016C9  0100              add [eax],eax
000016CB  0020              add [eax],ah
000016CD  0000              add [eax],al
000016CF  001C00            add [eax+eax],bl
000016D2  0000              add [eax],al
000016D4  7CF0              jl 0x16c6
000016D6  FF                db 0xFF
000016D7  FF10              call near [eax]
000016D9  0100              add [eax],eax
000016DB  0000              add [eax],al
000016DD  0E                push cs
000016DE  08460E            or [esi+0xe],al
000016E1  0C4A              or al,0x4a
000016E3  0F0B              ud2
000016E5  7404              jz 0x16eb
000016E7  7800              js 0x16e9
000016E9  3F                aas
000016EA  1A3B              sbb bh,[ebx]
000016EC  2A32              sub dh,[edx]
000016EE  2422              and al,0x22
000016F0  1C00              sbb al,0x0
000016F2  0000              add [eax],al
000016F4  40                inc eax
000016F5  0000              add [eax],al
000016F7  0076F8            add [esi-0x8],dh
000016FA  FF                db 0xFF
000016FB  FF0D00000000      dec dword [0x0]
00001701  41                inc ecx
00001702  0E                push cs
00001703  088502420D05      or [ebp+0x50d4202],al
00001709  49                dec ecx
0000170A  C50C04            lds ecx,[esp+eax]
0000170D  0400              add al,0x0
0000170F  001C00            add [eax+eax],bl
00001712  0000              add [eax],al
00001714  0000              add [eax],al
00001716  0000              add [eax],al
00001718  017A50            add [edx+0x50],edi
0000171B  4C                dec esp
0000171C  52                push edx
0000171D  0001              add [ecx],al
0000171F  7C08              jl 0x1729
00001721  07                pop es
00001722  004088            add [eax-0x78],al
00001725  0408              add al,0x8
00001727  001B              add [ebx],bl
00001729  0C04              or al,0x4
0000172B  0488              add al,0x88
0000172D  0100              add [eax],eax
0000172F  002C00            add [eax+eax],ch
00001732  0000              add [eax],al
00001734  2400              and al,0x0
00001736  0000              add [eax],al
00001738  48                dec eax
00001739  F2                db 0xF2
0000173A  FF                db 0xFF
0000173B  FF                db 0xFF
0000173C  EE                out dx,al
0000173D  05000004EC        add eax,0xec040000
00001742  9B                wait
00001743  0408              add al,0x8
00001745  41                inc ecx
00001746  0E                push cs
00001747  088502420D05      or [ebp+0x50d4202],al
0000174D  4B                dec ebx
0000174E  8603              xchg al,[ebx]
00001750  830403DD          add dword [ebx+eax],byte -0x23
00001754  05C341C641        add eax,0x41c641c3
00001759  C50C04            lds ecx,[esp+eax]
0000175C  0400              add al,0x0
0000175E  0000              add [eax],al
00001760  1C00              sbb al,0x0
00001762  0000              add [eax],al
00001764  B000              mov al,0x0
00001766  0000              add [eax],al
00001768  14F8              adc al,0xf8
0000176A  FF                db 0xFF
0000176B  FF13              call near [ebx]
0000176D  0000              add [eax],al
0000176F  0000              add [eax],al
00001771  41                inc ecx
00001772  0E                push cs
00001773  088502420D05      or [ebp+0x50d4202],al
00001779  4F                dec edi
0000177A  C50C04            lds ecx,[esp+eax]
0000177D  0400              add al,0x0
0000177F  001C00            add [eax+eax],bl
00001782  0000              add [eax],al
00001784  D000              rol byte [eax],1
00001786  0000              add [eax],al
00001788  08F8              or al,bh
0000178A  FF                db 0xFF
0000178B  FF13              call near [ebx]
0000178D  0000              add [eax],al
0000178F  0000              add [eax],al
00001791  41                inc ecx
00001792  0E                push cs
00001793  088502420D05      or [ebp+0x50d4202],al
00001799  4F                dec edi
0000179A  C50C04            lds ecx,[esp+eax]
0000179D  0400              add al,0x0
0000179F  002400            add [eax+eax],ah
000017A2  0000              add [eax],al
000017A4  94                xchg eax,esp
000017A5  0000              add [eax],al
000017A7  00FC              add ah,bh
000017A9  F7FF              idiv edi
000017AB  FF5800            call far [eax+0x0]
000017AE  0000              add [eax],al
000017B0  0446              add al,0x46
000017B2  9C                pushf
000017B3  0408              add al,0x8
000017B5  41                inc ecx
000017B6  0E                push cs
000017B7  088502420D05      or [ebp+0x50d4202],al
000017BD  44                inc esp
000017BE  830302            add dword [ebx],byte +0x2
000017C1  4F                dec edi
000017C2  C3                ret
000017C3  41                inc ecx
000017C4  C50C04            lds ecx,[esp+eax]
000017C7  0424              add al,0x24
000017C9  0000              add [eax],al
000017CB  00BC0000002CF8    add [eax+eax+0xf82c0000],bh
000017D2  FF                db 0xFF
000017D3  FF5700            call near [edi+0x0]
000017D6  0000              add [eax],al
000017D8  0456              add al,0x56
000017DA  9C                pushf
000017DB  0408              add al,0x8
000017DD  41                inc ecx
000017DE  0E                push cs
000017DF  088502420D05      or [ebp+0x50d4202],al
000017E5  44                inc esp
000017E6  830302            add dword [ebx],byte +0x2
000017E9  4E                dec esi
000017EA  C3                ret
000017EB  41                inc ecx
000017EC  C50C04            lds ecx,[esp+eax]
000017EF  041C              add al,0x1c
000017F1  0000              add [eax],al
000017F3  004001            add [eax+0x1],al
000017F6  0000              add [eax],al
000017F8  5C                pop esp
000017F9  F8                clc
000017FA  FF                db 0xFF
000017FB  FF12              call near [edx]
000017FD  0000              add [eax],al
000017FF  0000              add [eax],al
00001801  41                inc ecx
00001802  0E                push cs
00001803  088502420D05      or [ebp+0x50d4202],al
00001809  4E                dec esi
0000180A  C50C04            lds ecx,[esp+eax]
0000180D  0400              add al,0x0
0000180F  002400            add [eax+eax],ah
00001812  0000              add [eax],al
00001814  0401              add al,0x1
00001816  0000              add [eax],al
00001818  4E                dec esi
00001819  F8                clc
0000181A  FF                db 0xFF
0000181B  FF5500            call near [ebp+0x0]
0000181E  0000              add [eax],al
00001820  0466              add al,0x66
00001822  9C                pushf
00001823  0408              add al,0x8
00001825  41                inc ecx
00001826  0E                push cs
00001827  088502420D05      or [ebp+0x50d4202],al
0000182D  44                inc esp
0000182E  830302            add dword [ebx],byte +0x2
00001831  4C                dec esp
00001832  C3                ret
00001833  41                inc ecx
00001834  C50C04            lds ecx,[esp+eax]
00001837  041C              add al,0x1c
00001839  0000              add [eax],al
0000183B  00880100007B      add [eax+0x7b000001],cl
00001841  F8                clc
00001842  FF                db 0xFF
00001843  FF1B              call far [ebx]
00001845  0000              add [eax],al
00001847  0000              add [eax],al
00001849  41                inc ecx
0000184A  0E                push cs
0000184B  088502420D05      or [ebp+0x50d4202],al
00001851  57                push edi
00001852  C50C04            lds ecx,[esp+eax]
00001855  0400              add al,0x0
00001857  001C00            add [eax+eax],bl
0000185A  0000              add [eax],al
0000185C  A801              test al,0x1
0000185E  0000              add [eax],al
00001860  76F8              jna 0x185a
00001862  FF                db 0xFF
00001863  FF0500000000      inc dword [0x0]
00001869  41                inc ecx
0000186A  0E                push cs
0000186B  088502420D05      or [ebp+0x50d4202],al
00001871  41                inc ecx
00001872  C50C04            lds ecx,[esp+eax]
00001875  0400              add al,0x0
00001877  001C00            add [eax+eax],bl
0000187A  0000              add [eax],al
0000187C  C8010000          enter 0x1,0x0
00001880  5C                pop esp
00001881  F8                clc
00001882  FF                db 0xFF
00001883  FF0500000000      inc dword [0x0]
00001889  41                inc ecx
0000188A  0E                push cs
0000188B  088502420D05      or [ebp+0x50d4202],al
00001891  41                inc ecx
00001892  C50C04            lds ecx,[esp+eax]
00001895  0400              add al,0x0
00001897  001C00            add [eax+eax],bl
0000189A  0000              add [eax],al
0000189C  E801000042        call 0x420018a2
000018A1  F8                clc
000018A2  FF                db 0xFF
000018A3  FF13              call near [ebx]
000018A5  0000              add [eax],al
000018A7  0000              add [eax],al
000018A9  41                inc ecx
000018AA  0E                push cs
000018AB  088502420D05      or [ebp+0x50d4202],al
000018B1  4F                dec edi
000018B2  C50C04            lds ecx,[esp+eax]
000018B5  0400              add al,0x0
000018B7  002400            add [eax+eax],ah
000018BA  0000              add [eax],al
000018BC  AC                lodsb
000018BD  0100              add [eax],eax
000018BF  0036              add [esi],dh
000018C1  F8                clc
000018C2  FF                db 0xFF
000018C3  FF4A00            dec dword [edx+0x0]
000018C6  0000              add [eax],al
000018C8  0476              add al,0x76
000018CA  9C                pushf
000018CB  0408              add al,0x8
000018CD  41                inc ecx
000018CE  0E                push cs
000018CF  088502420D05      or [ebp+0x50d4202],al
000018D5  44                inc esp
000018D6  830302            add dword [ebx],byte +0x2
000018D9  41                inc ecx
000018DA  C3                ret
000018DB  41                inc ecx
000018DC  C50C04            lds ecx,[esp+eax]
000018DF  0424              add al,0x24
000018E1  0000              add [eax],al
000018E3  00D4              add ah,dl
000018E5  0100              add [eax],eax
000018E7  0058F8            add [eax-0x8],bl
000018EA  FF                db 0xFF
000018EB  FF5F00            call far [edi+0x0]
000018EE  0000              add [eax],al
000018F0  0482              add al,0x82
000018F2  9C                pushf
000018F3  0408              add al,0x8
000018F5  41                inc ecx
000018F6  0E                push cs
000018F7  088502420D05      or [ebp+0x50d4202],al
000018FD  44                inc esp
000018FE  830302            add dword [ebx],byte +0x2
00001901  56                push esi
00001902  C3                ret
00001903  41                inc ecx
00001904  C50C04            lds ecx,[esp+eax]
00001907  041C              add al,0x1c
00001909  0000              add [eax],al
0000190B  005802            add [eax+0x2],bl
0000190E  0000              add [eax],al
00001910  90                nop
00001911  F8                clc
00001912  FF                db 0xFF
00001913  FF                db 0xFF
00001914  3E0000            add [ds:eax],al
00001917  0000              add [eax],al
00001919  41                inc ecx
0000191A  0E                push cs
0000191B  088502420D05      or [ebp+0x50d4202],al
00001921  7AC5              jpe 0x18e8
00001923  0C04              or al,0x4
00001925  0400              add al,0x0
00001927  001C00            add [eax+eax],bl
0000192A  0000              add [eax],al
0000192C  7802              js 0x1930
0000192E  0000              add [eax],al
00001930  AE                scasb
00001931  F8                clc
00001932  FF                db 0xFF
00001933  FF08              dec dword [eax]
00001935  0000              add [eax],al
00001937  0000              add [eax],al
00001939  41                inc ecx
0000193A  0E                push cs
0000193B  088502420D05      or [ebp+0x50d4202],al
00001941  44                inc esp
00001942  C50C04            lds ecx,[esp+eax]
00001945  0400              add al,0x0
00001947  001C00            add [eax+eax],bl
0000194A  0000              add [eax],al
0000194C  98                cwde
0000194D  0200              add al,[eax]
0000194F  0096F8FFFF1A      add [esi+0x1afffff8],dl
00001955  0000              add [eax],al
00001957  0000              add [eax],al
00001959  41                inc ecx
0000195A  0E                push cs
0000195B  088502420D05      or [ebp+0x50d4202],al
00001961  56                push esi
00001962  C50C04            lds ecx,[esp+eax]
00001965  0400              add al,0x0
00001967  001C00            add [eax+eax],bl
0000196A  0000              add [eax],al
0000196C  B802000090        mov eax,0x90000002
00001971  F8                clc
00001972  FF                db 0xFF
00001973  FF1A              call far [edx]
00001975  0000              add [eax],al
00001977  0000              add [eax],al
00001979  41                inc ecx
0000197A  0E                push cs
0000197B  088502420D05      or [ebp+0x50d4202],al
00001981  56                push esi
00001982  C50C04            lds ecx,[esp+eax]
00001985  0400              add al,0x0
00001987  001C00            add [eax+eax],bl
0000198A  0000              add [eax],al
0000198C  D802              fadd dword [edx]
0000198E  0000              add [eax],al
00001990  8AF8              mov bh,al
00001992  FF                db 0xFF
00001993  FF4B00            dec dword [ebx+0x0]
00001996  0000              add [eax],al
00001998  00410E            add [ecx+0xe],al
0000199B  088502420D05      or [ebp+0x50d4202],al
000019A1  0247C5            add al,[edi-0x3b]
000019A4  0C04              or al,0x4
000019A6  0400              add al,0x0
000019A8  1C00              sbb al,0x0
000019AA  0000              add [eax],al
000019AC  F8                clc
000019AD  0200              add al,[eax]
000019AF  00B6F8FFFF37      add [esi+0x37fffff8],dh
000019B5  0000              add [eax],al
000019B7  0000              add [eax],al
000019B9  41                inc ecx
000019BA  0E                push cs
000019BB  088502420D05      or [ebp+0x50d4202],al
000019C1  73C5              jnc 0x1988
000019C3  0C04              or al,0x4
000019C5  0400              add al,0x0
000019C7  001C00            add [eax+eax],bl
000019CA  0000              add [eax],al
000019CC  1803              sbb [ebx],al
000019CE  0000              add [eax],al
000019D0  CE                into
000019D1  F8                clc
000019D2  FF                db 0xFF
000019D3  FF                db 0xFF
000019D4  3D00000000        cmp eax,0x0
000019D9  41                inc ecx
000019DA  0E                push cs
000019DB  088502420D05      or [ebp+0x50d4202],al
000019E1  79C5              jns 0x19a8
000019E3  0C04              or al,0x4
000019E5  0400              add al,0x0
000019E7  001C00            add [eax+eax],bl
000019EA  0000              add [eax],al
000019EC  3803              cmp [ebx],al
000019EE  0000              add [eax],al
000019F0  EC                in al,dx
000019F1  F8                clc
000019F2  FF                db 0xFF
000019F3  FF27              jmp near [edi]
000019F5  0000              add [eax],al
000019F7  0000              add [eax],al
000019F9  41                inc ecx
000019FA  0E                push cs
000019FB  088502420D05      or [ebp+0x50d4202],al
00001A01  63C5              arpl bp,ax
00001A03  0C04              or al,0x4
00001A05  0400              add al,0x0
00001A07  001C00            add [eax+eax],bl
00001A0A  0000              add [eax],al
00001A0C  58                pop eax
00001A0D  0300              add eax,[eax]
00001A0F  00F3              add bl,dh
00001A11  F8                clc
00001A12  FF                db 0xFF
00001A13  FF21              jmp near [ecx]
00001A15  0000              add [eax],al
00001A17  0000              add [eax],al
00001A19  41                inc ecx
00001A1A  0E                push cs
00001A1B  088502420D05      or [ebp+0x50d4202],al
00001A21  5D                pop ebp
00001A22  C50C04            lds ecx,[esp+eax]
00001A25  0400              add al,0x0
00001A27  001C00            add [eax+eax],bl
00001A2A  0000              add [eax],al
00001A2C  7803              js 0x1a31
00001A2E  0000              add [eax],al
00001A30  F4                hlt
00001A31  F8                clc
00001A32  FF                db 0xFF
00001A33  FF1A              call far [edx]
00001A35  0000              add [eax],al
00001A37  0000              add [eax],al
00001A39  41                inc ecx
00001A3A  0E                push cs
00001A3B  088502420D05      or [ebp+0x50d4202],al
00001A41  56                push esi
00001A42  C50C04            lds ecx,[esp+eax]
00001A45  0400              add al,0x0
00001A47  001C00            add [eax+eax],bl
00001A4A  0000              add [eax],al
00001A4C  98                cwde
00001A4D  0300              add eax,[eax]
00001A4F  00EE              add dh,ch
00001A51  F8                clc
00001A52  FF                db 0xFF
00001A53  FF2F              jmp far [edi]
00001A55  0000              add [eax],al
00001A57  0000              add [eax],al
00001A59  41                inc ecx
00001A5A  0E                push cs
00001A5B  088502420D05      or [ebp+0x50d4202],al
00001A61  6BC50C            imul eax,ebp,byte +0xc
00001A64  0404              add al,0x4
00001A66  0000              add [eax],al
00001A68  1C00              sbb al,0x0
00001A6A  0000              add [eax],al
00001A6C  B8030000FE        mov eax,0xfe000003
00001A71  F8                clc
00001A72  FF                db 0xFF
00001A73  FF1A              call far [edx]
00001A75  0000              add [eax],al
00001A77  0000              add [eax],al
00001A79  41                inc ecx
00001A7A  0E                push cs
00001A7B  088502420D05      or [ebp+0x50d4202],al
00001A81  56                push esi
00001A82  C50C04            lds ecx,[esp+eax]
00001A85  0400              add al,0x0
00001A87  001C00            add [eax+eax],bl
00001A8A  0000              add [eax],al
00001A8C  D803              fadd dword [ebx]
00001A8E  0000              add [eax],al
00001A90  F8                clc
00001A91  F8                clc
00001A92  FF                db 0xFF
00001A93  FF13              call near [ebx]
00001A95  0000              add [eax],al
00001A97  0000              add [eax],al
00001A99  41                inc ecx
00001A9A  0E                push cs
00001A9B  088502420D05      or [ebp+0x50d4202],al
00001AA1  4F                dec edi
00001AA2  C50C04            lds ecx,[esp+eax]
00001AA5  0400              add al,0x0
00001AA7  001C00            add [eax+eax],bl
00001AAA  0000              add [eax],al
00001AAC  F8                clc
00001AAD  0300              add eax,[eax]
00001AAF  00EB              add bl,ch
00001AB1  F8                clc
00001AB2  FF                db 0xFF
00001AB3  FF21              jmp near [ecx]
00001AB5  0000              add [eax],al
00001AB7  0000              add [eax],al
00001AB9  41                inc ecx
00001ABA  0E                push cs
00001ABB  088502420D05      or [ebp+0x50d4202],al
00001AC1  5D                pop ebp
00001AC2  C50C04            lds ecx,[esp+eax]
00001AC5  0400              add al,0x0
00001AC7  001C00            add [eax+eax],bl
00001ACA  0000              add [eax],al
00001ACC  180400            sbb [eax+eax],al
00001ACF  00EC              add ah,ch
00001AD1  F8                clc
00001AD2  FF                db 0xFF
00001AD3  FF0500000000      inc dword [0x0]
00001AD9  41                inc ecx
00001ADA  0E                push cs
00001ADB  088502420D05      or [ebp+0x50d4202],al
00001AE1  41                inc ecx
00001AE2  C50C04            lds ecx,[esp+eax]
00001AE5  0400              add al,0x0
00001AE7  001C00            add [eax+eax],bl
00001AEA  0000              add [eax],al
00001AEC  380400            cmp [eax+eax],al
00001AEF  00D2              add dl,dl
00001AF1  F8                clc
00001AF2  FF                db 0xFF
00001AF3  FF30              push dword [eax]
00001AF5  0000              add [eax],al
00001AF7  0000              add [eax],al
00001AF9  41                inc ecx
00001AFA  0E                push cs
00001AFB  088502420D05      or [ebp+0x50d4202],al
00001B01  6C                insb
00001B02  C50C04            lds ecx,[esp+eax]
00001B05  0400              add al,0x0
00001B07  001C00            add [eax+eax],bl
00001B0A  0000              add [eax],al
00001B0C  58                pop eax
00001B0D  0400              add al,0x0
00001B0F  00E2              add dl,ah
00001B11  F8                clc
00001B12  FF                db 0xFF
00001B13  FF0500000000      inc dword [0x0]
00001B19  41                inc ecx
00001B1A  0E                push cs
00001B1B  088502420D05      or [ebp+0x50d4202],al
00001B21  41                inc ecx
00001B22  C50C04            lds ecx,[esp+eax]
00001B25  0400              add al,0x0
00001B27  001C00            add [eax+eax],bl
00001B2A  0000              add [eax],al
00001B2C  7804              js 0x1b32
00001B2E  0000              add [eax],al
00001B30  C7                db 0xC7
00001B31  F8                clc
00001B32  FF                db 0xFF
00001B33  FF21              jmp near [ecx]
00001B35  0000              add [eax],al
00001B37  0000              add [eax],al
00001B39  41                inc ecx
00001B3A  0E                push cs
00001B3B  088502420D05      or [ebp+0x50d4202],al
00001B41  5D                pop ebp
00001B42  C50C04            lds ecx,[esp+eax]
00001B45  0400              add al,0x0
00001B47  001C00            add [eax+eax],bl
00001B4A  0000              add [eax],al
00001B4C  98                cwde
00001B4D  0400              add al,0x0
00001B4F  00C8              add al,cl
00001B51  F8                clc
00001B52  FF                db 0xFF
00001B53  FF0A              dec dword [edx]
00001B55  0000              add [eax],al
00001B57  0000              add [eax],al
00001B59  41                inc ecx
00001B5A  0E                push cs
00001B5B  088502420D05      or [ebp+0x50d4202],al
00001B61  46                inc esi
00001B62  C50C04            lds ecx,[esp+eax]
00001B65  0400              add al,0x0
00001B67  001C00            add [eax+eax],bl
00001B6A  0000              add [eax],al
00001B6C  B8040000B2        mov eax,0xb2000004
00001B71  F8                clc
00001B72  FF                db 0xFF
00001B73  FF29              jmp far [ecx]
00001B75  0000              add [eax],al
00001B77  0000              add [eax],al
00001B79  41                inc ecx
00001B7A  0E                push cs
00001B7B  088502420D05      or [ebp+0x50d4202],al
00001B81  65C50C04          lds ecx,[gs:esp+eax]
00001B85  0400              add al,0x0
00001B87  001C00            add [eax+eax],bl
00001B8A  0000              add [eax],al
00001B8C  D80400            fadd dword [eax+eax]
00001B8F  00BBF8FFFF13      add [ebx+0x13fffff8],bh
00001B95  0000              add [eax],al
00001B97  0000              add [eax],al
00001B99  41                inc ecx
00001B9A  0E                push cs
00001B9B  088502420D05      or [ebp+0x50d4202],al
00001BA1  4F                dec edi
00001BA2  C50C04            lds ecx,[esp+eax]
00001BA5  0400              add al,0x0
00001BA7  001C00            add [eax+eax],bl
00001BAA  0000              add [eax],al
00001BAC  F8                clc
00001BAD  0400              add al,0x0
00001BAF  00AEF8FFFF30      add [esi+0x30fffff8],ch
00001BB5  0000              add [eax],al
00001BB7  0000              add [eax],al
00001BB9  41                inc ecx
00001BBA  0E                push cs
00001BBB  088502420D05      or [ebp+0x50d4202],al
00001BC1  6C                insb
00001BC2  C50C04            lds ecx,[esp+eax]
00001BC5  0400              add al,0x0
00001BC7  001C00            add [eax+eax],bl
00001BCA  0000              add [eax],al
00001BCC  18050000BEF8      sbb [0xf8be0000],al
00001BD2  FF                db 0xFF
00001BD3  FF08              dec dword [eax]
00001BD5  0000              add [eax],al
00001BD7  0000              add [eax],al
00001BD9  41                inc ecx
00001BDA  0E                push cs
00001BDB  088502420D05      or [ebp+0x50d4202],al
00001BE1  44                inc esp
00001BE2  C50C04            lds ecx,[esp+eax]
00001BE5  0400              add al,0x0
00001BE7  0000              add [eax],al
00001BE9  0000              add [eax],al
00001BEB  00FF              add bh,bh
00001BED  FF01              inc dword [ecx]
00001BEF  56                push esi
00001BF0  2805DF0B0054      sub [0x54000bdf],al
00001BF6  05CA0B006E        add eax,0x6e000bca
00001BFB  05BA0B0098        add eax,0x98000bba
00001C00  0105B60B00E2      add [0xe2000bb6],eax
00001C06  0105C00A00BB      add [0xbb000ac0],eax
00001C0C  0205D50A00A0      add al,[0xa0000ad5]
00001C12  03428E            add eax,[edx-0x72]
00001C15  0B00              or eax,[eax]
00001C17  9C                pushf
00001C18  0405              add al,0x5
00001C1A  E80A009409        call 0x9941c29
00001C1F  3DFB0A00DB        cmp eax,0xdb000afb
00001C24  09058E0B00EA      or [0xea000b8e],eax
00001C2A  0905A10B00F9      or [0xf9000ba1],eax
00001C30  0905B60B00A5      or [0xa5000bb6],eax
00001C36  0A05CA0B00B4      or al,[0xb4000bca]
00001C3C  0A05DF0B00E2      or al,[0xe2000bdf]
00001C42  0B050000FFFF      or eax,[0xffff0000]
00001C48  010C1B            add [ebx+ebx],ecx
00001C4B  0500003405        add eax,0x5340000
00001C50  3B00              cmp eax,[eax]
00001C52  4D                dec ebp
00001C53  050000FFFF        add eax,0xffff0000
00001C58  010C28            add [eax+ebp],ecx
00001C5B  053A003305        add eax,0x533003a
00001C60  0000              add [eax],al
00001C62  4C                dec esp
00001C63  050000FFFF        add eax,0xffff0000
00001C68  010C14            add [esp+edx],ecx
00001C6B  0500003105        add eax,0x5310000
00001C70  3800              cmp [eax],al
00001C72  4A                dec edx
00001C73  050000FFFF        add eax,0xffff0000
00001C78  0108              add [eax],ecx
00001C7A  26052D003F05      es add eax,0x53f002d
00001C80  0000              add [eax],al
00001C82  FF                db 0xFF
00001C83  FF01              inc dword [ecx]
00001C85  0830              or [eax],dh
00001C87  0542005405        add eax,0x5540042
00001C8C  0000              add [eax],al
00001C8E  0000              add [eax],al
00001C90  FF                db 0xFF
00001C91  FF                db 0xFF
00001C92  FF                db 0xFF
00001C93  FF00              inc dword [eax]
00001C95  0000              add [eax],al
00001C97  00FF              add bh,bh
00001C99  FF                db 0xFF
00001C9A  FF                db 0xFF
00001C9B  FF00              inc dword [eax]
00001C9D  0000              add [eax],al
00001C9F  0000              add [eax],al
00001CA1  0000              add [eax],al
00001CA3  0001              add [ecx],al
00001CA5  0000              add [eax],al
00001CA7  0001              add [ecx],al
00001CA9  0000              add [eax],al
00001CAB  0001              add [ecx],al
00001CAD  0000              add [eax],al
00001CAF  001F              add [edi],bl
00001CB1  0200              add al,[eax]
00001CB3  0001              add [ecx],al
00001CB5  0000              add [eax],al
00001CB7  0029              add [ecx],ch
00001CB9  0200              add al,[eax]
00001CBB  0001              add [ecx],al
00001CBD  0000              add [eax],al
00001CBF  004602            add [esi+0x2],al
00001CC2  0000              add [eax],al
00001CC4  0C00              or al,0x0
00001CC6  0000              add [eax],al
00001CC8  1487              adc al,0x87
00001CCA  0408              add al,0x8
00001CCC  0D00000038        or eax,0x38000000
00001CD1  95                xchg eax,ebp
00001CD2  0408              add al,0x8
00001CD4  0400              add al,0x0
00001CD6  0000              add [eax],al
00001CD8  6881040805        push dword 0x5080481
00001CDD  0000              add [eax],al
00001CDF  005883            add [eax-0x7d],bl
00001CE2  0408              add al,0x8
00001CE4  06                push es
00001CE5  0000              add [eax],al
00001CE7  0008              add [eax],cl
00001CE9  82                db 0x82
00001CEA  0408              add al,0x8
00001CEC  0A00              or al,[eax]
00001CEE  0000              add [eax],al
00001CF0  9A0200000B0000    call 0x0:0xb000002
00001CF7  0010              add [eax],dl
00001CF9  0000              add [eax],al
00001CFB  001500000000      add [0x0],dl
00001D01  0000              add [eax],al
00001D03  0003              add [ebx],al
00001D05  0000              add [eax],al
00001D07  0088AD040802      add [eax+0x20804ad],cl
00001D0D  0000              add [eax],al
00001D0F  008000000014      add [eax+0x14000000],al
00001D15  0000              add [eax],al
00001D17  0011              add [ecx],dl
00001D19  0000              add [eax],al
00001D1B  0017              add [edi],dl
00001D1D  0000              add [eax],al
00001D1F  00948604081100    add [esi+eax*4+0x110804],dl
00001D26  0000              add [eax],al
00001D28  8C8604081200      mov [esi+0x120804],es
00001D2E  0000              add [eax],al
00001D30  0800              or [eax],al
00001D32  0000              add [eax],al
00001D34  1300              adc eax,[eax]
00001D36  0000              add [eax],al
00001D38  0800              or [eax],al
00001D3A  0000              add [eax],al
00001D3C  FE                db 0xFE
00001D3D  FF                db 0xFF
00001D3E  FF6F1C            jmp far [edi+0x1c]
00001D41  860408            xchg al,[eax+ecx]
00001D44  FF                db 0xFF
00001D45  FF                db 0xFF
00001D46  FF6F03            jmp far [edi+0x3]
00001D49  0000              add [eax],al
00001D4B  00F0              add al,dh
00001D4D  FF                db 0xFF
00001D4E  FF6FF2            jmp far [edi-0xe]
00001D51  850408            test [eax+ecx],eax
00001D54  0000              add [eax],al
00001D56  0000              add [eax],al
00001D58  0000              add [eax],al
00001D5A  0000              add [eax],al
00001D5C  0000              add [eax],al
00001D5E  0000              add [eax],al
00001D60  0000              add [eax],al
00001D62  0000              add [eax],al
00001D64  0000              add [eax],al
00001D66  0000              add [eax],al
00001D68  0000              add [eax],al
00001D6A  0000              add [eax],al
00001D6C  0000              add [eax],al
00001D6E  0000              add [eax],al
00001D70  0000              add [eax],al
00001D72  0000              add [eax],al
00001D74  0000              add [eax],al
00001D76  0000              add [eax],al
00001D78  0000              add [eax],al
00001D7A  0000              add [eax],al
00001D7C  0000              add [eax],al
00001D7E  0000              add [eax],al
00001D80  0000              add [eax],al
00001D82  0000              add [eax],al
00001D84  0000              add [eax],al
00001D86  0000              add [eax],al
00001D88  A4                movsb
00001D89  AC                lodsb
00001D8A  0408              add al,0x8
00001D8C  0000              add [eax],al
00001D8E  0000              add [eax],al
00001D90  0000              add [eax],al
00001D92  0000              add [eax],al
00001D94  66870408          xchg ax,[eax+ecx]
00001D98  7687              jna 0x1d21
00001D9A  0408              add al,0x8
00001D9C  868704089687      xchg al,[edi+0x87960804]
00001DA2  0408              add al,0x8
00001DA4  A6                cmpsb
00001DA5  870408            xchg eax,[eax+ecx]
00001DA8  B687              mov dh,0x87
00001DAA  0408              add al,0x8
00001DAC  C6870408D68704    mov byte [edi+0x87d60804],0x4
00001DB3  08E6              or dh,ah
00001DB5  870408            xchg eax,[eax+ecx]
00001DB8  F6870408068804    test byte [edi+0x88060804],0x4
00001DBF  0816              or [esi],dl
00001DC1  880408            mov [eax+ecx],al
00001DC4  26880408          mov [es:eax+ecx],al
00001DC8  36880408          mov [ss:eax+ecx],al
00001DCC  46                inc esi
00001DCD  880408            mov [eax+ecx],al
00001DD0  56                push esi
00001DD1  880408            mov [eax+ecx],al
00001DD4  0000              add [eax],al
00001DD6  0000              add [eax],al
00001DD8  0000              add [eax],al
00001DDA  0000              add [eax],al
00001DDC  47                inc edi
00001DDD  43                inc ebx
00001DDE  43                inc ebx
00001DDF  3A20              cmp ah,[eax]
00001DE1  285562            sub [ebp+0x62],dl
00001DE4  756E              jnz 0x1e54
00001DE6  7475              jz 0x1e5d
00001DE8  20342E            and [esi+ebp],dh
00001DEB  342E              xor al,0x2e
00001DED  332D34756275      xor ebp,[0x75627534]
00001DF3  6E                outsb
00001DF4  7475              jz 0x1e6b
00001DF6  352920342E        xor eax,0x2e342029
00001DFB  342E              xor al,0x2e
00001DFD  3300              xor eax,[eax]
00001DFF  47                inc edi
00001E00  43                inc ebx
00001E01  43                inc ebx
00001E02  3A20              cmp ah,[eax]
00001E04  28474E            sub [edi+0x4e],al
00001E07  55                push ebp
00001E08  2920              sub [eax],esp
00001E0A  342E              xor al,0x2e
00001E0C  382E              cmp [esi],ch
00001E0E  3100              xor [eax],eax
00001E10  1C00              sbb al,0x0
00001E12  0000              add [eax],al
00001E14  0200              add al,[eax]
00001E16  0000              add [eax],al
00001E18  0000              add [eax],al
00001E1A  0400              add al,0x0
00001E1C  0000              add [eax],al
00001E1E  0000              add [eax],al
00001E20  60                pusha
00001E21  880408            mov [eax+ecx],al
00001E24  2200              and al,[eax]
00001E26  0000              add [eax],al
00001E28  0000              add [eax],al
00001E2A  0000              add [eax],al
00001E2C  0000              add [eax],al
00001E2E  0000              add [eax],al
00001E30  1C00              sbb al,0x0
00001E32  0000              add [eax],al
00001E34  0200              add al,[eax]
00001E36  0E                push cs
00001E37  0100              add [eax],eax
00001E39  000400            add [eax+eax],al
00001E3C  0000              add [eax],al
00001E3E  0000              add [eax],al
00001E40  A09404086A        mov al,[0x6a080494]
00001E45  0000              add [eax],al
00001E47  0000              add [eax],al
00001E49  0000              add [eax],al
00001E4B  0000              add [eax],al
00001E4D  0000              add [eax],al
00001E4F  0021              add [ecx],ah
00001E51  0000              add [eax],al
00001E53  0002              add [edx],al
00001E55  00810000008D      add [ecx+0x8d000000],al
00001E5B  0000              add [eax],al
00001E5D  007500            add [ebp+0x0],dh
00001E60  0000              add [eax],al
00001E62  5F                pop edi
00001E63  49                dec ecx
00001E64  4F                dec edi
00001E65  5F                pop edi
00001E66  7374              jnc 0x1edc
00001E68  64696E5F75736564  imul ebp,[fs:esi+0x5f],dword 0x64657375
00001E70  0000              add [eax],al
00001E72  0000              add [eax],al
00001E74  0036              add [esi],dh
00001E76  0000              add [eax],al
00001E78  0002              add [edx],al
00001E7A  000E              add [esi],cl
00001E7C  0100              add [eax],eax
00001E7E  0013              add [ebx],dl
00001E80  0100              add [eax],eax
00001E82  003E              add [esi],bh
00001E84  0000              add [eax],al
00001E86  005F5F            add [edi+0x5f],bl
00001E89  6C                insb
00001E8A  6962635F637375    imul esp,[edx+0x63],dword 0x7573635f
00001E91  5F                pop edi
00001E92  66696E690053      imul bp,[esi+0x69],word 0x5300
00001E98  0000              add [eax],al
00001E9A  005F5F            add [edi+0x5f],bl
00001E9D  6C                insb
00001E9E  6962635F637375    imul esp,[edx+0x63],dword 0x7573635f
00001EA5  5F                pop edi
00001EA6  696E6974000000    imul ebp,[esi+0x69],dword 0x74
00001EAD  0000              add [eax],al
00001EAF  7D00              jnl 0x1eb1
00001EB1  0000              add [eax],al
00001EB3  0200              add al,[eax]
00001EB5  0000              add [eax],al
00001EB7  0000              add [eax],al
00001EB9  0401              add al,0x1
00001EBB  0000              add [eax],al
00001EBD  0000              add [eax],al
00001EBF  60                pusha
00001EC0  880408            mov [eax+ecx],al
00001EC3  82                db 0x82
00001EC4  880408            mov [eax+ecx],al
00001EC7  2E2E2F            cs das
00001ECA  7379              jnc 0x1f45
00001ECC  7364              jnc 0x1f32
00001ECE  657073            gs jo 0x1f44
00001ED1  2F                das
00001ED2  693338362F65      imul esi,[ebx],dword 0x652f3638
00001ED8  6C                insb
00001ED9  662F              o16 das
00001EDB  7374              jnc 0x1f51
00001EDD  61                popa
00001EDE  7274              jc 0x1f54
00001EE0  2E53              cs push ebx
00001EE2  002F              add [edi],ch
00001EE4  686F6D652F        push dword 0x2f656d6f
00001EE9  7069              jo 0x1f54
00001EEB  657272            gs jc 0x1f60
00001EEE  652F              gs das
00001EF0  42                inc edx
00001EF1  7572              jnz 0x1f65
00001EF3  6561              gs popa
00001EF5  752F              jnz 0x1f26
00001EF7  6865616465        push dword 0x65646165
00001EFC  7273              jc 0x1f71
00001EFE  2D676C6962        sub eax,0x62696c67
00001F03  632D666F722D      arpl [0x2d726f66],bp
00001F09  6C                insb
00001F0A  696E75782F676C    imul ebp,[esi+0x75],dword 0x6c672f78
00001F11  6962632D322E31    imul esp,[edx+0x63],dword 0x312e322d
00001F18  322E              xor ch,[esi]
00001F1A  322F              xor ch,[edi]
00001F1C  637375            arpl [ebx+0x75],si
00001F1F  00474E            add [edi+0x4e],al
00001F22  55                push ebp
00001F23  204153            and [ecx+0x53],al
00001F26  2032              and [edx],dh
00001F28  2E3230            xor dh,[cs:eax]
00001F2B  2E3100            xor [cs:eax],eax
00001F2E  018089000000      add [eax+0x89],eax
00001F34  0200              add al,[eax]
00001F36  1400              adc al,0x0
00001F38  0000              add [eax],al
00001F3A  0401              add al,0x1
00001F3C  8E00              mov es,[eax]
00001F3E  0000              add [eax],al
00001F40  01CD              add ebp,ecx
00001F42  0000              add [eax],al
00001F44  004300            add [ebx+0x0],al
00001F47  0000              add [eax],al
00001F49  848804088488      test [eax+0x88840804],cl
00001F4F  0408              add al,0x8
00001F51  5B                pop ebx
00001F52  0000              add [eax],al
00001F54  0002              add [edx],al
00001F56  0108              add [eax],ecx
00001F58  800000            add byte [eax],0x0
00001F5B  0002              add [edx],al
00001F5D  0207              add al,[edi]
00001F5F  0000              add [eax],al
00001F61  0000              add [eax],al
00001F63  020407            add al,[edi+eax]
00001F66  360000            add [ss:eax],al
00001F69  0002              add [edx],al
00001F6B  0407              add al,0x7
00001F6D  3100              xor [eax],eax
00001F6F  0000              add [eax],al
00001F71  0201              add al,[ecx]
00001F73  06                push es
00001F74  82                db 0x82
00001F75  0000              add [eax],al
00001F77  0002              add [edx],al
00001F79  020513000000      add al,[0x13]
00001F7F  030405696E7400    add eax,[eax+0x746e69]
00001F86  0208              add cl,[eax]
00001F88  059A000000        add eax,0x9a
00001F8D  0208              add cl,[eax]
00001F8F  07                pop es
00001F90  2C00              sub al,0x0
00001F92  0000              add [eax],al
00001F94  0204059F000000    add al,[eax+0x9f]
00001F9B  0404              add al,0x4
00001F9D  07                pop es
00001F9E  0201              add al,[ecx]
00001FA0  06                push es
00001FA1  8900              mov [eax],eax
00001FA3  0000              add [eax],al
00001FA5  051D000000        add eax,0x1d
00001FAA  0119              add [ecx],ebx
00001FAC  8700              xchg eax,[eax]
00001FAE  0000              add [eax],al
00001FB0  010503589504      add [0x4955803],eax
00001FB6  0806              or [esi],al
00001FB8  4F                dec edi
00001FB9  0000              add [eax],al
00001FBB  0000              add [eax],al
00001FBD  0F0100            sgdt [eax]
00001FC0  0002              add [edx],al
00001FC2  005F00            add [edi+0x0],bl
00001FC5  0000              add [eax],al
00001FC7  0401              add al,0x1
00001FC9  8E00              mov es,[eax]
00001FCB  0000              add [eax],al
00001FCD  01C9              add ecx,ecx
00001FCF  0000              add [eax],al
00001FD1  004300            add [ebx+0x0],al
00001FD4  0000              add [eax],al
00001FD6  A09404080A        mov al,[0xa080494]
00001FDB  95                xchg eax,ebp
00001FDC  0408              add al,0x8
00001FDE  82                db 0x82
00001FDF  0000              add [eax],al
00001FE1  0002              add [edx],al
00001FE3  0405              add al,0x5
00001FE5  696E740003AD00    imul ebp,[esi+0x74],dword 0xad0300
00001FEC  0000              add [eax],al
00001FEE  02D3              add dl,bl
00001FF0  37                aaa
00001FF1  0000              add [eax],al
00001FF3  000404            add [esp+eax],al
00001FF6  07                pop es
00001FF7  360000            add [ss:eax],al
00001FFA  000501FD0000      add [0xfd01],al
00002000  0001              add [ecx],al
00002002  8301A0            add dword [ecx],byte -0x60
00002005  94                xchg eax,esp
00002006  0408              add al,0x8
00002008  A5                movsd
00002009  94                xchg eax,esp
0000200A  0408              add al,0x8
0000200C  0000              add [eax],al
0000200E  0000              add [eax],al
00002010  06                push es
00002011  01B900000001      add [ecx+0x1000000],edi
00002017  6901B0940408      imul eax,[ecx],dword 0x80494b0
0000201D  0A9504082C00      or dl,[ebp+0x2c0804]
00002023  0000              add [eax],al
00002025  B900000007        mov ecx,0x7000000
0000202A  B400              mov ah,0x0
0000202C  0000              add [eax],al
0000202E  016925            add [ecx+0x25],ebp
00002031  0000              add [eax],al
00002033  0002              add [edx],al
00002035  91                xchg eax,ecx
00002036  0007              add [edi],al
00002038  0D01000001        or eax,0x1000001
0000203D  69B9000000029104  imul edi,[ecx+0x2000000],dword 0xa8070491
         -07A8
00002047  0000              add [eax],al
00002049  0001              add [ecx],al
0000204B  69B9000000029108  imul edi,[ecx+0x2000000],dword 0xe7080891
         -08E7
00002055  0000              add [eax],al
00002057  0001              add [ecx],al
00002059  7ACC              jpe 0x2027
0000205B  0000              add [eax],al
0000205D  0009              add [ecx],cl
0000205F  C9                leave
00002060  94                xchg eax,esp
00002061  0408              add al,0x8
00002063  029504080A69      add dl,[ebp+0x690a0804]
00002069  0001              add [ecx],al
0000206B  7B2C              jpo 0x2099
0000206D  0000              add [eax],al
0000206F  005800            add [eax+0x0],bl
00002072  0000              add [eax],al
00002074  0000              add [eax],al
00002076  0B04BF            or eax,[edi+edi*4]
00002079  0000              add [eax],al
0000207B  000B              add [ebx],cl
0000207D  04C5              add al,0xc5
0000207F  0000              add [eax],al
00002081  000401            add [ecx+eax],al
00002084  06                push es
00002085  8900              mov [eax],eax
00002087  0000              add [eax],al
00002089  0C2C              or al,0x2c
0000208B  0000              add [eax],al
0000208D  000DF2000000      add [0xf2],cl
00002093  DC00              fadd qword [eax]
00002095  0000              add [eax],al
00002097  0E                push cs
00002098  000F              add [edi],cl
0000209A  01F2              add edx,esi
0000209C  0000              add [eax],al
0000209E  0010              add [eax],dl
000020A0  2500000010        and eax,0x10000000
000020A5  B900000010        mov ecx,0x10000000
000020AA  B900000000        mov ecx,0x0
000020AF  0B04DC            or eax,[esp+ebx*8]
000020B2  0000              add [eax],al
000020B4  0011              add [ecx],dl
000020B6  D400              aam 0x0
000020B8  0000              add [eax],al
000020BA  013B              add [ebx],edi
000020BC  D100              rol dword [eax],1
000020BE  0000              add [eax],al
000020C0  0101              add [ecx],eax
000020C2  11EC              adc esp,ebp
000020C4  0000              add [eax],al
000020C6  0001              add [ecx],al
000020C8  3DD1000000        cmp eax,0xd1
000020CD  0101              add [ecx],eax
000020CF  0001              add [ecx],al
000020D1  1100              adc [eax],eax
000020D3  1006              adc [esi],al
000020D5  1101              adc [ecx],eax
000020D7  1201              adc al,[ecx]
000020D9  0308              add ecx,[eax]
000020DB  1B08              sbb ecx,[eax]
000020DD  2508130500        and eax,0x51308
000020E2  0000              add [eax],al
000020E4  0111              add [ecx],edx
000020E6  01250E130B03      add [0x30b130e],esp
000020EC  0E                push cs
000020ED  1B0E              sbb ecx,[esi]
000020EF  1101              adc [ecx],eax
000020F1  1201              adc al,[ecx]
000020F3  1006              adc [esi],al
000020F5  0000              add [eax],al
000020F7  022400            add ah,[eax+eax]
000020FA  0B0B              or ecx,[ebx]
000020FC  3E0B03            or eax,[ds:ebx]
000020FF  0E                push cs
00002100  0000              add [eax],al
00002102  032400            add esp,[eax+eax]
00002105  0B0B              or ecx,[ebx]
00002107  3E0B03            or eax,[ds:ebx]
0000210A  0800              or [eax],al
0000210C  000424            add [esp],al
0000210F  000B              add [ebx],cl
00002111  0B3E              or edi,[esi]
00002113  0B00              or eax,[eax]
00002115  00053400030E      add [0xe030034],al
0000211B  3A0B              cmp cl,[ebx]
0000211D  3B0B              cmp ecx,[ebx]
0000211F  49                dec ecx
00002120  133F              adc edi,[edi]
00002122  0C02              or al,0x2
00002124  0A00              or al,[eax]
00002126  0006              add [esi],al
00002128  26004913          add [es:ecx+0x13],cl
0000212C  0000              add [eax],al
0000212E  0001              add [ecx],al
00002130  1101              adc [ecx],eax
00002132  250E130B03        and eax,0x30b130e
00002137  0E                push cs
00002138  1B0E              sbb ecx,[esi]
0000213A  1101              adc [ecx],eax
0000213C  1201              adc al,[ecx]
0000213E  1006              adc [esi],al
00002140  0000              add [eax],al
00002142  022400            add ah,[eax+eax]
00002145  0B0B              or ecx,[ebx]
00002147  3E0B03            or eax,[ds:ebx]
0000214A  0800              or [eax],al
0000214C  0003              add [ebx],al
0000214E  16                push ss
0000214F  0003              add [ebx],al
00002151  0E                push cs
00002152  3A0B              cmp cl,[ebx]
00002154  3B0B              cmp ecx,[ebx]
00002156  49                dec ecx
00002157  1300              adc eax,[eax]
00002159  000424            add [esp],al
0000215C  000B              add [ebx],cl
0000215E  0B3E              or edi,[esi]
00002160  0B03              or eax,[ebx]
00002162  0E                push cs
00002163  0000              add [eax],al
00002165  052E003F0C        add eax,0xc3f002e
0000216A  030E              add ecx,[esi]
0000216C  3A0B              cmp cl,[ebx]
0000216E  3B0B              cmp ecx,[ebx]
00002170  27                daa
00002171  0C11              or al,0x11
00002173  0112              add [edx],edx
00002175  014006            add [eax+0x6],eax
00002178  0000              add [eax],al
0000217A  06                push es
0000217B  2E013F            add [cs:edi],edi
0000217E  0C03              or al,0x3
00002180  0E                push cs
00002181  3A0B              cmp cl,[ebx]
00002183  3B0B              cmp ecx,[ebx]
00002185  27                daa
00002186  0C11              or al,0x11
00002188  0112              add [edx],edx
0000218A  014006            add [eax+0x6],eax
0000218D  0113              add [ebx],edx
0000218F  0000              add [eax],al
00002191  07                pop es
00002192  0500030E3A        add eax,0x3a0e0300
00002197  0B3B              or edi,[ebx]
00002199  0B4913            or ecx,[ecx+0x13]
0000219C  020A              add cl,[edx]
0000219E  0000              add [eax],al
000021A0  083400            or [eax+eax],dh
000021A3  030E              add ecx,[esi]
000021A5  3A0B              cmp cl,[ebx]
000021A7  3B0B              cmp ecx,[ebx]
000021A9  49                dec ecx
000021AA  1300              adc eax,[eax]
000021AC  0009              add [ecx],cl
000021AE  0B01              or eax,[ecx]
000021B0  1101              adc [ecx],eax
000021B2  1201              adc al,[ecx]
000021B4  0000              add [eax],al
000021B6  0A3400            or dh,[eax+eax]
000021B9  0308              add ecx,[eax]
000021BB  3A0B              cmp cl,[ebx]
000021BD  3B0B              cmp ecx,[ebx]
000021BF  49                dec ecx
000021C0  1302              adc eax,[edx]
000021C2  06                push es
000021C3  0000              add [eax],al
000021C5  0B0F              or ecx,[edi]
000021C7  000B              add [ebx],cl
000021C9  0B4913            or ecx,[ecx+0x13]
000021CC  0000              add [eax],al
000021CE  0C26              or al,0x26
000021D0  004913            add [ecx+0x13],cl
000021D3  0000              add [eax],al
000021D5  0D01014913        or eax,0x13490101
000021DA  0113              add [ebx],edx
000021DC  0000              add [eax],al
000021DE  0E                push cs
000021DF  2100              and [eax],eax
000021E1  0000              add [eax],al
000021E3  0F1501            unpckhps xmm0,[ecx]
000021E6  27                daa
000021E7  0C01              or al,0x1
000021E9  1300              adc eax,[eax]
000021EB  0010              add [eax],dl
000021ED  0500491300        add eax,0x134900
000021F2  0011              add [ecx],dl
000021F4  3400              xor al,0x0
000021F6  030E              add ecx,[esi]
000021F8  3A0B              cmp cl,[ebx]
000021FA  3B0B              cmp ecx,[ebx]
000021FC  49                dec ecx
000021FD  133F              adc edi,[edi]
000021FF  0C3C              or al,0x3c
00002201  0C00              or al,0x0
00002203  0000              add [eax],al
00002205  57                push edi
00002206  0000              add [eax],al
00002208  0002              add [edx],al
0000220A  0032              add [edx],dh
0000220C  0000              add [eax],al
0000220E  0001              add [ecx],al
00002210  01FB              add ebx,edi
00002212  0E                push cs
00002213  0D00010101        or eax,0x1010100
00002218  0100              add [eax],eax
0000221A  0000              add [eax],al
0000221C  0100              add [eax],eax
0000221E  0001              add [ecx],al
00002220  2E2E2F            cs das
00002223  7379              jnc 0x229e
00002225  7364              jnc 0x228b
00002227  657073            gs jo 0x229d
0000222A  2F                das
0000222B  693338362F65      imul esi,[ebx],dword 0x652f3638
00002231  6C                insb
00002232  660000            o16 add [eax],al
00002235  7374              jnc 0x22ab
00002237  61                popa
00002238  7274              jc 0x22ae
0000223A  2E53              cs push ebx
0000223C  0001              add [ecx],al
0000223E  0000              add [eax],al
00002240  0000              add [eax],al
00002242  0502608804        add eax,0x4886002
00002247  0803              or [ebx],al
00002249  C00001            rol byte [eax],0x1
0000224C  3321              xor esp,[ecx]
0000224E  343D              xor al,0x3d
00002250  2522031820        and eax,0x20180322
00002255  59                pop ecx
00002256  5A                pop edx
00002257  2122              and [edx],esp
00002259  5C                pop esp
0000225A  5B                pop ebx
0000225B  0201              add al,[ecx]
0000225D  0001              add [ecx],al
0000225F  0123              add [ebx],esp
00002261  0000              add [eax],al
00002263  0002              add [edx],al
00002265  001D00000001      add [0x1000000],bl
0000226B  01FB              add ebx,edi
0000226D  0E                push cs
0000226E  0D00010101        or eax,0x1010100
00002273  0100              add [eax],eax
00002275  0000              add [eax],al
00002277  0100              add [eax],eax
00002279  0001              add [ecx],al
0000227B  00696E            add [ecx+0x6e],ch
0000227E  69742E6300000000  imul esi,[esi+ebp+0x63],dword 0x0
00002286  007B00            add [ebx+0x0],bh
00002289  0000              add [eax],al
0000228B  0200              add al,[eax]
0000228D  57                push edi
0000228E  0000              add [eax],al
00002290  0001              add [ecx],al
00002292  01FB              add ebx,edi
00002294  0E                push cs
00002295  0D00010101        or eax,0x1010100
0000229A  0100              add [eax],eax
0000229C  0000              add [eax],al
0000229E  0100              add [eax],eax
000022A0  0001              add [ecx],al
000022A2  2F                das
000022A3  7573              jnz 0x2318
000022A5  722F              jc 0x22d6
000022A7  6C                insb
000022A8  69622F6763632F    imul esp,[edx+0x2f],dword 0x2f636367
000022AF  693438362D6C69    imul esi,[eax+edi],dword 0x696c2d36
000022B6  6E                outsb
000022B7  7578              jnz 0x2331
000022B9  2D676E752F        sub eax,0x2f756e67
000022BE  342E              xor al,0x2e
000022C0  342E              xor al,0x2e
000022C2  332F              xor ebp,[edi]
000022C4  696E636C756465    imul ebp,[esi+0x63],dword 0x6564756c
000022CB  0000              add [eax],al
000022CD  656C              gs insb
000022CF  662D696E          sub ax,0x6e69
000022D3  69742E6300000000  imul esi,[esi+ebp+0x63],dword 0x0
000022DB  7374              jnc 0x2351
000022DD  646465662E680001  cs push word 0x100
000022E5  0000              add [eax],al
000022E7  0000              add [eax],al
000022E9  0502A09404        add eax,0x494a002
000022EE  0803              or [ebx],al
000022F0  830101            add dword [ecx],byte +0x1
000022F3  44                inc esp
000022F4  035EC8            add ebx,[esi-0x38]
000022F7  030E              add ecx,[esi]
000022F9  083C5B            or [ebx+ebx*2],bh
000022FC  086708            or [edi+0x8],ah
000022FF  9D                popf
00002300  7602              jna 0x2304
00002302  0800              or [eax],al
00002304  0101              add [ecx],eax
00002306  0000              add [eax],al
00002308  1000              adc [eax],al
0000230A  0000              add [eax],al
0000230C  FF                db 0xFF
0000230D  FF                db 0xFF
0000230E  FF                db 0xFF
0000230F  FF01              inc dword [ecx]
00002311  0001              add [ecx],al
00002313  7C08              jl 0x231d
00002315  0C04              or al,0x4
00002317  0488              add al,0x88
00002319  0100              add [eax],eax
0000231B  001400            add [eax+eax],dl
0000231E  0000              add [eax],al
00002320  0000              add [eax],al
00002322  0000              add [eax],al
00002324  A094040805        mov al,[0x5080494]
00002329  0000              add [eax],al
0000232B  00410E            add [ecx+0xe],al
0000232E  084285            or [edx-0x7b],al
00002331  020D051C0000      add cl,[0x1c05]
00002337  0000              add [eax],al
00002339  0000              add [eax],al
0000233B  00B09404085A      add [eax+0x5a080494],dh
00002341  0000              add [eax],al
00002343  00410E            add [ecx+0xe],al
00002346  084285            or [edx-0x7b],al
00002349  020D054E8305      add cl,[0x5834e05]
0000234F  860487            xchg al,[edi+eax*4]
00002352  0300              add eax,[eax]
00002354  7368              jnc 0x23be
00002356  6F                outsd
00002357  7274              jc 0x23cd
00002359  20756E            and [ebp+0x6e],dh
0000235C  7369              jnc 0x23c7
0000235E  676E              a16 outsb
00002360  656420696E        and [fs:ecx+0x6e],ch
00002365  7400              jz 0x2367
00002367  7368              jnc 0x23d1
00002369  6F                outsd
0000236A  7274              jc 0x23e0
0000236C  20696E            and [ecx+0x6e],ch
0000236F  7400              jz 0x2371
00002371  5F                pop edi
00002372  49                dec ecx
00002373  4F                dec edi
00002374  5F                pop edi
00002375  7374              jnc 0x23eb
00002377  64696E5F75736564  imul ebp,[fs:esi+0x5f],dword 0x64657375
0000237F  006C6F6E          add [edi+ebp*2+0x6e],ch
00002383  67206C6F          and [si+0x6f],ch
00002387  6E                outsb
00002388  6720756E          and [di+0x6e],dh
0000238C  7369              jnc 0x23f7
0000238E  676E              a16 outsb
00002390  656420696E        and [fs:ecx+0x6e],ch
00002395  7400              jz 0x2397
00002397  2F                das
00002398  686F6D652F        push dword 0x2f656d6f
0000239D  7069              jo 0x2408
0000239F  657272            gs jc 0x2414
000023A2  652F              gs das
000023A4  42                inc edx
000023A5  7572              jnz 0x2419
000023A7  6561              gs popa
000023A9  752F              jnz 0x23da
000023AB  6865616465        push dword 0x65646165
000023B0  7273              jc 0x2425
000023B2  2D676C6962        sub eax,0x62696c67
000023B7  632D666F722D      arpl [0x2d726f66],bp
000023BD  6C                insb
000023BE  696E75782F676C    imul ebp,[esi+0x75],dword 0x6c672f78
000023C5  6962632D322E31    imul esp,[edx+0x63],dword 0x312e322d
000023CC  322E              xor ch,[esi]
000023CE  322F              xor ch,[edi]
000023D0  637375            arpl [ebx+0x75],si
000023D3  00756E            add [ebp+0x6e],dh
000023D6  7369              jnc 0x2441
000023D8  676E              a16 outsb
000023DA  6564206368        and [fs:ebx+0x68],ah
000023DF  61                popa
000023E0  7200              jc 0x23e2
000023E2  47                inc edi
000023E3  4E                dec esi
000023E4  55                push ebp
000023E5  204320            and [ebx+0x20],al
000023E8  342E              xor al,0x2e
000023EA  342E              xor al,0x2e
000023EC  3300              xor eax,[eax]
000023EE  6C                insb
000023EF  6F                outsd
000023F0  6E                outsb
000023F1  67206C6F          and [si+0x6f],ch
000023F5  6E                outsb
000023F6  6720696E          and [bx+di+0x6e],ch
000023FA  7400              jz 0x23fc
000023FC  656E              gs outsb
000023FE  7670              jna 0x2470
00002400  007369            add [ebx+0x69],dh
00002403  7A65              jpe 0x246a
00002405  5F                pop edi
00002406  7400              jz 0x2408
00002408  61                popa
00002409  7267              jc 0x2472
0000240B  6300              arpl [eax],ax
0000240D  5F                pop edi
0000240E  5F                pop edi
0000240F  6C                insb
00002410  6962635F637375    imul esp,[edx+0x63],dword 0x7573635f
00002417  5F                pop edi
00002418  696E697400656C    imul ebp,[esi+0x69],dword 0x6c650074
0000241F  662D696E          sub ax,0x6e69
00002423  69742E63005F5F69  imul esi,[esi+ebp+0x63],dword 0x695f5f00
0000242B  6E                outsb
0000242C  69745F6172726179  imul esi,[edi+ebx*2+0x61],dword 0x79617272
00002434  5F                pop edi
00002435  7374              jnc 0x24ab
00002437  61                popa
00002438  7274              jc 0x24ae
0000243A  007369            add [ebx+0x69],dh
0000243D  7A65              jpe 0x24a4
0000243F  005F5F            add [edi+0x5f],bl
00002442  696E69745F6172    imul ebp,[esi+0x69],dword 0x72615f74
00002449  7261              jc 0x24ac
0000244B  795F              jns 0x24ac
0000244D  656E              gs outsb
0000244F  64005F5F          add [fs:edi+0x5f],bl
00002453  6C                insb
00002454  6962635F637375    imul esp,[edx+0x63],dword 0x7573635f
0000245B  5F                pop edi
0000245C  66696E690061      imul bp,[esi+0x69],word 0x6100
00002462  7267              jc 0x24cb
00002464  7600              jna 0x2466
00002466  0000              add [eax],al
00002468  0000              add [eax],al
0000246A  0100              add [eax],eax
0000246C  0000              add [eax],al
0000246E  0200              add al,[eax]
00002470  7404              jz 0x2476
00002472  0100              add [eax],eax
00002474  0000              add [eax],al
00002476  0300              add eax,[eax]
00002478  0000              add [eax],al
0000247A  0200              add al,[eax]
0000247C  7408              jz 0x2486
0000247E  0300              add eax,[eax]
00002480  0000              add [eax],al
00002482  0500000002        add eax,0x2000000
00002487  007508            add [ebp+0x8],dh
0000248A  0000              add [eax],al
0000248C  0000              add [eax],al
0000248E  0000              add [eax],al
00002490  0000              add [eax],al
00002492  1000              adc [eax],al
00002494  0000              add [eax],al
00002496  1100              adc [eax],eax
00002498  0000              add [eax],al
0000249A  0200              add al,[eax]
0000249C  7404              jz 0x24a2
0000249E  1100              adc [eax],eax
000024A0  0000              add [eax],al
000024A2  1300              adc eax,[eax]
000024A4  0000              add [eax],al
000024A6  0200              add al,[eax]
000024A8  7408              jz 0x24b2
000024AA  1300              adc eax,[eax]
000024AC  0000              add [eax],al
000024AE  6A00              push byte +0x0
000024B0  0000              add [eax],al
000024B2  0200              add al,[eax]
000024B4  7508              jnz 0x24be
000024B6  0000              add [eax],al
000024B8  0000              add [eax],al
000024BA  0000              add [eax],al
000024BC  0000              add [eax],al
000024BE  40                inc eax
000024BF  0000              add [eax],al
000024C1  006700            add [edi+0x0],ah
000024C4  0000              add [eax],al
000024C6  0100              add [eax],eax
000024C8  56                push esi
000024C9  0000              add [eax],al
000024CB  0000              add [eax],al
000024CD  0000              add [eax],al
000024CF  0000              add [eax],al
000024D1  002E              add [esi],ch
000024D3  7379              jnc 0x254e
000024D5  6D                insd
000024D6  7461              jz 0x2539
000024D8  6200              bound eax,[eax]
000024DA  2E7374            cs jnc 0x2551
000024DD  7274              jc 0x2553
000024DF  61                popa
000024E0  6200              bound eax,[eax]
000024E2  2E7368            cs jnc 0x254d
000024E5  7374              jnc 0x255b
000024E7  7274              jc 0x255d
000024E9  61                popa
000024EA  6200              bound eax,[eax]
000024EC  2E696E7465727000  imul ebp,[cs:esi+0x74],dword 0x707265
000024F4  2E6E              cs outsb
000024F6  6F                outsd
000024F7  7465              jz 0x255e
000024F9  2E41              cs inc ecx
000024FB  42                inc edx
000024FC  49                dec ecx
000024FD  2D74616700        sub eax,0x676174
00002502  2E6861736800      cs push dword 0x687361
00002508  2E64796E          fs jns 0x257a
0000250C  7379              jnc 0x2587
0000250E  6D                insd
0000250F  002E              add [esi],ch
00002511  64796E            fs jns 0x2582
00002514  7374              jnc 0x258a
00002516  7200              jc 0x2518
00002518  2E676E            cs a16 outsb
0000251B  752E              jnz 0x254b
0000251D  7665              jna 0x2584
0000251F  7273              jc 0x2594
00002521  696F6E002E676E    imul ebp,[edi+0x6e],dword 0x6e672e00
00002528  752E              jnz 0x2558
0000252A  7665              jna 0x2591
0000252C  7273              jc 0x25a1
0000252E  696F6E5F72002E    imul ebp,[edi+0x6e],dword 0x2e00725f
00002535  7265              jc 0x259c
00002537  6C                insb
00002538  2E64796E          fs jns 0x25aa
0000253C  002E              add [esi],ch
0000253E  7265              jc 0x25a5
00002540  6C                insb
00002541  2E706C            cs jo 0x25b0
00002544  7400              jz 0x2546
00002546  2E696E6974002E74  imul ebp,[cs:esi+0x69],dword 0x742e0074
0000254E  657874            gs js 0x25c5
00002551  002E              add [esi],ch
00002553  66696E69002E      imul bp,[esi+0x69],word 0x2e00
00002559  726F              jc 0x25ca
0000255B  6461              fs popa
0000255D  7461              jz 0x25c0
0000255F  002E              add [esi],ch
00002561  65685F667261      gs push dword 0x6172665f
00002567  6D                insd
00002568  655F              gs pop edi
0000256A  686472002E        push dword 0x2e007264
0000256F  65685F667261      gs push dword 0x6172665f
00002575  6D                insd
00002576  65002E            add [gs:esi],ch
00002579  6763635F          arpl [bp+di+0x5f],sp
0000257D  657863            gs js 0x25e3
00002580  657074            gs jo 0x25f7
00002583  5F                pop edi
00002584  7461              jz 0x25e7
00002586  626C6500          bound ebp,[ebp+0x0]
0000258A  2E63746F72        arpl [cs:edi+ebp*2+0x72],si
0000258F  7300              jnc 0x2591
00002591  2E64746F          fs jz 0x2604
00002595  7273              jc 0x260a
00002597  002E              add [esi],ch
00002599  6A63              push byte +0x63
0000259B  7200              jc 0x259d
0000259D  2E64796E          fs jns 0x260f
000025A1  61                popa
000025A2  6D                insd
000025A3  6963002E676F74    imul esp,[ebx+0x0],dword 0x746f672e
000025AA  002E              add [esi],ch
000025AC  676F              a16 outsd
000025AE  742E              jz 0x25de
000025B0  706C              jo 0x261e
000025B2  7400              jz 0x25b4
000025B4  2E6461            fs popa
000025B7  7461              jz 0x261a
000025B9  002E              add [esi],ch
000025BB  627373            bound esi,[ebx+0x73]
000025BE  002E              add [esi],ch
000025C0  636F6D            arpl [edi+0x6d],bp
000025C3  6D                insd
000025C4  656E              gs outsb
000025C6  7400              jz 0x25c8
000025C8  2E6465627567      bound esi,[gs:ebp+0x67]
000025CE  5F                pop edi
000025CF  61                popa
000025D0  7261              jc 0x2633
000025D2  6E                outsb
000025D3  67657300          gs a16 jnc 0x25d7
000025D7  2E6465627567      bound esi,[gs:ebp+0x67]
000025DD  5F                pop edi
000025DE  7075              jo 0x2655
000025E0  626E61            bound ebp,[esi+0x61]
000025E3  6D                insd
000025E4  657300            gs jnc 0x25e7
000025E7  2E6465627567      bound esi,[gs:ebp+0x67]
000025ED  5F                pop edi
000025EE  696E666F002E64    imul ebp,[esi+0x66],dword 0x642e006f
000025F5  65627567          bound esi,[gs:ebp+0x67]
000025F9  5F                pop edi
000025FA  61                popa
000025FB  626272            bound esp,[edx+0x72]
000025FE  657600            gs jna 0x2601
00002601  2E6465627567      bound esi,[gs:ebp+0x67]
00002607  5F                pop edi
00002608  6C                insb
00002609  696E65002E6465    imul ebp,[esi+0x65],dword 0x65642e00
00002610  627567            bound esi,[ebp+0x67]
00002613  5F                pop edi
00002614  667261            o16 jc 0x2678
00002617  6D                insd
00002618  65002E            add [gs:esi],ch
0000261B  6465627567        bound esi,[gs:ebp+0x67]
00002620  5F                pop edi
00002621  7374              jnc 0x2697
00002623  7200              jc 0x2625
00002625  2E6465627567      bound esi,[gs:ebp+0x67]
0000262B  5F                pop edi
0000262C  6C                insb
0000262D  6F                outsd
0000262E  6300              arpl [eax],ax
00002630  0000              add [eax],al
00002632  0000              add [eax],al
00002634  0000              add [eax],al
00002636  0000              add [eax],al
00002638  0000              add [eax],al
0000263A  0000              add [eax],al
0000263C  0000              add [eax],al
0000263E  0000              add [eax],al
00002640  0000              add [eax],al
00002642  0000              add [eax],al
00002644  0000              add [eax],al
00002646  0000              add [eax],al
00002648  0000              add [eax],al
0000264A  0000              add [eax],al
0000264C  0000              add [eax],al
0000264E  0000              add [eax],al
00002650  0000              add [eax],al
00002652  0000              add [eax],al
00002654  0000              add [eax],al
00002656  0000              add [eax],al
00002658  1B00              sbb eax,[eax]
0000265A  0000              add [eax],al
0000265C  0100              add [eax],eax
0000265E  0000              add [eax],al
00002660  0200              add al,[eax]
00002662  0000              add [eax],al
00002664  3481              xor al,0x81
00002666  0408              add al,0x8
00002668  3401              xor al,0x1
0000266A  0000              add [eax],al
0000266C  1300              adc eax,[eax]
0000266E  0000              add [eax],al
00002670  0000              add [eax],al
00002672  0000              add [eax],al
00002674  0000              add [eax],al
00002676  0000              add [eax],al
00002678  0100              add [eax],eax
0000267A  0000              add [eax],al
0000267C  0000              add [eax],al
0000267E  0000              add [eax],al
00002680  2300              and eax,[eax]
00002682  0000              add [eax],al
00002684  07                pop es
00002685  0000              add [eax],al
00002687  0002              add [edx],al
00002689  0000              add [eax],al
0000268B  004881            add [eax-0x7f],cl
0000268E  0408              add al,0x8
00002690  48                dec eax
00002691  0100              add [eax],eax
00002693  0020              add [eax],ah
00002695  0000              add [eax],al
00002697  0000              add [eax],al
00002699  0000              add [eax],al
0000269B  0000              add [eax],al
0000269D  0000              add [eax],al
0000269F  000400            add [eax+eax],al
000026A2  0000              add [eax],al
000026A4  0000              add [eax],al
000026A6  0000              add [eax],al
000026A8  3100              xor [eax],eax
000026AA  0000              add [eax],al
000026AC  0500000002        add eax,0x2000000
000026B1  0000              add [eax],al
000026B3  006881            add [eax-0x7f],ch
000026B6  0408              add al,0x8
000026B8  68010000A0        push dword 0xa0000001
000026BD  0000              add [eax],al
000026BF  000400            add [eax+eax],al
000026C2  0000              add [eax],al
000026C4  0000              add [eax],al
000026C6  0000              add [eax],al
000026C8  0400              add al,0x0
000026CA  0000              add [eax],al
000026CC  0400              add al,0x0
000026CE  0000              add [eax],al
000026D0  37                aaa
000026D1  0000              add [eax],al
000026D3  000B              add [ebx],cl
000026D5  0000              add [eax],al
000026D7  0002              add [edx],al
000026D9  0000              add [eax],al
000026DB  0008              add [eax],cl
000026DD  82                db 0x82
000026DE  0408              add al,0x8
000026E0  0802              or [edx],al
000026E2  0000              add [eax],al
000026E4  50                push eax
000026E5  0100              add [eax],eax
000026E7  000500000001      add [0x1000000],al
000026ED  0000              add [eax],al
000026EF  000400            add [eax+eax],al
000026F2  0000              add [eax],al
000026F4  1000              adc [eax],al
000026F6  0000              add [eax],al
000026F8  3F                aas
000026F9  0000              add [eax],al
000026FB  0003              add [ebx],al
000026FD  0000              add [eax],al
000026FF  0002              add [edx],al
00002701  0000              add [eax],al
00002703  005883            add [eax-0x7d],bl
00002706  0408              add al,0x8
00002708  58                pop eax
00002709  0300              add eax,[eax]
0000270B  009A02000000      add [edx+0x2],bl
00002711  0000              add [eax],al
00002713  0000              add [eax],al
00002715  0000              add [eax],al
00002717  0001              add [ecx],al
00002719  0000              add [eax],al
0000271B  0000              add [eax],al
0000271D  0000              add [eax],al
0000271F  004700            add [edi+0x0],al
00002722  0000              add [eax],al
00002724  FF                db 0xFF
00002725  FF                db 0xFF
00002726  FF6F02            jmp far [edi+0x2]
00002729  0000              add [eax],al
0000272B  00F2              add dl,dh
0000272D  850408            test [eax+ecx],eax
00002730  F20500002A00      repne add eax,0x2a0000
00002736  0000              add [eax],al
00002738  0400              add al,0x0
0000273A  0000              add [eax],al
0000273C  0000              add [eax],al
0000273E  0000              add [eax],al
00002740  0200              add al,[eax]
00002742  0000              add [eax],al
00002744  0200              add al,[eax]
00002746  0000              add [eax],al
00002748  54                push esp
00002749  0000              add [eax],al
0000274B  00FE              add dh,bh
0000274D  FF                db 0xFF
0000274E  FF6F02            jmp far [edi+0x2]
00002751  0000              add [eax],al
00002753  001C86            add [esi+eax*4],bl
00002756  0408              add al,0x8
00002758  1C06              sbb al,0x6
0000275A  0000              add [eax],al
0000275C  7000              jo 0x275e
0000275E  0000              add [eax],al
00002760  0500000003        add eax,0x3000000
00002765  0000              add [eax],al
00002767  000400            add [eax+eax],al
0000276A  0000              add [eax],al
0000276C  0000              add [eax],al
0000276E  0000              add [eax],al
00002770  6300              arpl [eax],ax
00002772  0000              add [eax],al
00002774  0900              or [eax],eax
00002776  0000              add [eax],al
00002778  0200              add al,[eax]
0000277A  0000              add [eax],al
0000277C  8C8604088C06      mov [esi+0x68c0804],es
00002782  0000              add [eax],al
00002784  0800              or [eax],al
00002786  0000              add [eax],al
00002788  0400              add al,0x0
0000278A  0000              add [eax],al
0000278C  0000              add [eax],al
0000278E  0000              add [eax],al
00002790  0400              add al,0x0
00002792  0000              add [eax],al
00002794  0800              or [eax],al
00002796  0000              add [eax],al
00002798  6C                insb
00002799  0000              add [eax],al
0000279B  0009              add [ecx],cl
0000279D  0000              add [eax],al
0000279F  0002              add [edx],al
000027A1  0000              add [eax],al
000027A3  00948604089406    add [esi+eax*4+0x6940804],dl
000027AA  0000              add [eax],al
000027AC  800000            add byte [eax],0x0
000027AF  000400            add [eax+eax],al
000027B2  0000              add [eax],al
000027B4  0B00              or eax,[eax]
000027B6  0000              add [eax],al
000027B8  0400              add al,0x0
000027BA  0000              add [eax],al
000027BC  0800              or [eax],al
000027BE  0000              add [eax],al
000027C0  7500              jnz 0x27c2
000027C2  0000              add [eax],al
000027C4  0100              add [eax],eax
000027C6  0000              add [eax],al
000027C8  06                push es
000027C9  0000              add [eax],al
000027CB  001487            add [edi+eax*4],dl
000027CE  0408              add al,0x8
000027D0  1407              adc al,0x7
000027D2  0000              add [eax],al
000027D4  3000              xor [eax],al
000027D6  0000              add [eax],al
000027D8  0000              add [eax],al
000027DA  0000              add [eax],al
000027DC  0000              add [eax],al
000027DE  0000              add [eax],al
000027E0  0400              add al,0x0
000027E2  0000              add [eax],al
000027E4  0000              add [eax],al
000027E6  0000              add [eax],al
000027E8  7000              jo 0x27ea
000027EA  0000              add [eax],al
000027EC  0100              add [eax],eax
000027EE  0000              add [eax],al
000027F0  06                push es
000027F1  0000              add [eax],al
000027F3  005087            add [eax-0x79],dl
000027F6  0408              add al,0x8
000027F8  50                push eax
000027F9  07                pop es
000027FA  0000              add [eax],al
000027FC  1001              adc [ecx],al
000027FE  0000              add [eax],al
00002800  0000              add [eax],al
00002802  0000              add [eax],al
00002804  0000              add [eax],al
00002806  0000              add [eax],al
00002808  1000              adc [eax],al
0000280A  0000              add [eax],al
0000280C  0400              add al,0x0
0000280E  0000              add [eax],al
00002810  7B00              jpo 0x2812
00002812  0000              add [eax],al
00002814  0100              add [eax],eax
00002816  0000              add [eax],al
00002818  06                push es
00002819  0000              add [eax],al
0000281B  006088            add [eax-0x78],ah
0000281E  0408              add al,0x8
00002820  60                pusha
00002821  0800              or [eax],al
00002823  00D8              add al,bl
00002825  0C00              or al,0x0
00002827  0000              add [eax],al
00002829  0000              add [eax],al
0000282B  0000              add [eax],al
0000282D  0000              add [eax],al
0000282F  0010              add [eax],dl
00002831  0000              add [eax],al
00002833  0000              add [eax],al
00002835  0000              add [eax],al
00002837  008100000001      add [ecx+0x1000000],al
0000283D  0000              add [eax],al
0000283F  0006              add [esi],al
00002841  0000              add [eax],al
00002843  0038              add [eax],bh
00002845  95                xchg eax,ebp
00002846  0408              add al,0x8
00002848  381500001C00      cmp [0x1c0000],dl
0000284E  0000              add [eax],al
00002850  0000              add [eax],al
00002852  0000              add [eax],al
00002854  0000              add [eax],al
00002856  0000              add [eax],al
00002858  0400              add al,0x0
0000285A  0000              add [eax],al
0000285C  0000              add [eax],al
0000285E  0000              add [eax],al
00002860  8700              xchg eax,[eax]
00002862  0000              add [eax],al
00002864  0100              add [eax],eax
00002866  0000              add [eax],al
00002868  0200              add al,[eax]
0000286A  0000              add [eax],al
0000286C  54                push esp
0000286D  95                xchg eax,ebp
0000286E  0408              add al,0x8
00002870  54                push esp
00002871  1500002400        adc eax,0x240000
00002876  0000              add [eax],al
00002878  0000              add [eax],al
0000287A  0000              add [eax],al
0000287C  0000              add [eax],al
0000287E  0000              add [eax],al
00002880  0400              add al,0x0
00002882  0000              add [eax],al
00002884  0000              add [eax],al
00002886  0000              add [eax],al
00002888  8F00              pop dword [eax]
0000288A  0000              add [eax],al
0000288C  0100              add [eax],eax
0000288E  0000              add [eax],al
00002890  0200              add al,[eax]
00002892  0000              add [eax],al
00002894  7895              js 0x282b
00002896  0408              add al,0x8
00002898  7815              js 0x28af
0000289A  0000              add [eax],al
0000289C  3C01              cmp al,0x1
0000289E  0000              add [eax],al
000028A0  0000              add [eax],al
000028A2  0000              add [eax],al
000028A4  0000              add [eax],al
000028A6  0000              add [eax],al
000028A8  0400              add al,0x0
000028AA  0000              add [eax],al
000028AC  0000              add [eax],al
000028AE  0000              add [eax],al
000028B0  9D                popf
000028B1  0000              add [eax],al
000028B3  0001              add [ecx],al
000028B5  0000              add [eax],al
000028B7  0002              add [edx],al
000028B9  0000              add [eax],al
000028BB  00B4960408B416    add [esi+edx*4+0x16b40804],dh
000028C2  0000              add [eax],al
000028C4  380500000000      cmp [0x0],al
000028CA  0000              add [eax],al
000028CC  0000              add [eax],al
000028CE  0000              add [eax],al
000028D0  0400              add al,0x0
000028D2  0000              add [eax],al
000028D4  0000              add [eax],al
000028D6  0000              add [eax],al
000028D8  A7                cmpsd
000028D9  0000              add [eax],al
000028DB  0001              add [ecx],al
000028DD  0000              add [eax],al
000028DF  0002              add [edx],al
000028E1  0000              add [eax],al
000028E3  00EC              add ah,ch
000028E5  9B                wait
000028E6  0408              add al,0x8
000028E8  EC                in al,dx
000028E9  1B00              sbb eax,[eax]
000028EB  00A200000000      add [edx+0x0],ah
000028F1  0000              add [eax],al
000028F3  0000              add [eax],al
000028F5  0000              add [eax],al
000028F7  0001              add [ecx],al
000028F9  0000              add [eax],al
000028FB  0000              add [eax],al
000028FD  0000              add [eax],al
000028FF  00B900000001      add [ecx+0x1000000],bh
00002905  0000              add [eax],al
00002907  0003              add [ebx],al
00002909  0000              add [eax],al
0000290B  0090AC040890      add [eax+0x900804ac],dl
00002911  1C00              sbb al,0x0
00002913  0008              add [eax],cl
00002915  0000              add [eax],al
00002917  0000              add [eax],al
00002919  0000              add [eax],al
0000291B  0000              add [eax],al
0000291D  0000              add [eax],al
0000291F  000400            add [eax+eax],al
00002922  0000              add [eax],al
00002924  0000              add [eax],al
00002926  0000              add [eax],al
00002928  C00000            rol byte [eax],0x0
0000292B  0001              add [ecx],al
0000292D  0000              add [eax],al
0000292F  0003              add [ebx],al
00002931  0000              add [eax],al
00002933  0098AC040898      add [eax+0x980804ac],bl
00002939  1C00              sbb al,0x0
0000293B  0008              add [eax],cl
0000293D  0000              add [eax],al
0000293F  0000              add [eax],al
00002941  0000              add [eax],al
00002943  0000              add [eax],al
00002945  0000              add [eax],al
00002947  000400            add [eax+eax],al
0000294A  0000              add [eax],al
0000294C  0000              add [eax],al
0000294E  0000              add [eax],al
00002950  C70000000100      mov dword [eax],0x10000
00002956  0000              add [eax],al
00002958  0300              add eax,[eax]
0000295A  0000              add [eax],al
0000295C  A0AC0408A0        mov al,[0xa00804ac]
00002961  1C00              sbb al,0x0
00002963  000400            add [eax+eax],al
00002966  0000              add [eax],al
00002968  0000              add [eax],al
0000296A  0000              add [eax],al
0000296C  0000              add [eax],al
0000296E  0000              add [eax],al
00002970  0400              add al,0x0
00002972  0000              add [eax],al
00002974  0000              add [eax],al
00002976  0000              add [eax],al
00002978  CC                int3
00002979  0000              add [eax],al
0000297B  0006              add [esi],al
0000297D  0000              add [eax],al
0000297F  0003              add [ebx],al
00002981  0000              add [eax],al
00002983  00A4AC0408A41C    add [esp+ebp*4+0x1ca40804],ah
0000298A  0000              add [eax],al
0000298C  E000              loopne 0x298e
0000298E  0000              add [eax],al
00002990  0500000000        add eax,0x0
00002995  0000              add [eax],al
00002997  000400            add [eax+eax],al
0000299A  0000              add [eax],al
0000299C  0800              or [eax],al
0000299E  0000              add [eax],al
000029A0  D500              aad 0x0
000029A2  0000              add [eax],al
000029A4  0100              add [eax],eax
000029A6  0000              add [eax],al
000029A8  0300              add eax,[eax]
000029AA  0000              add [eax],al
000029AC  84AD0408841D      test [ebp+0x1d840804],ch
000029B2  0000              add [eax],al
000029B4  0400              add al,0x0
000029B6  0000              add [eax],al
000029B8  0000              add [eax],al
000029BA  0000              add [eax],al
000029BC  0000              add [eax],al
000029BE  0000              add [eax],al
000029C0  0400              add al,0x0
000029C2  0000              add [eax],al
000029C4  0400              add al,0x0
000029C6  0000              add [eax],al
000029C8  DA00              fiadd dword [eax]
000029CA  0000              add [eax],al
000029CC  0100              add [eax],eax
000029CE  0000              add [eax],al
000029D0  0300              add eax,[eax]
000029D2  0000              add [eax],al
000029D4  88AD0408881D      mov [ebp+0x1d880804],ch
000029DA  0000              add [eax],al
000029DC  4C                dec esp
000029DD  0000              add [eax],al
000029DF  0000              add [eax],al
000029E1  0000              add [eax],al
000029E3  0000              add [eax],al
000029E5  0000              add [eax],al
000029E7  000400            add [eax+eax],al
000029EA  0000              add [eax],al
000029EC  0400              add al,0x0
000029EE  0000              add [eax],al
000029F0  E300              jecxz 0x29f2
000029F2  0000              add [eax],al
000029F4  0100              add [eax],eax
000029F6  0000              add [eax],al
000029F8  0300              add eax,[eax]
000029FA  0000              add [eax],al
000029FC  D4AD              aam 0xad
000029FE  0408              add al,0x8
00002A00  D41D              aam 0x1d
00002A02  0000              add [eax],al
00002A04  0800              or [eax],al
00002A06  0000              add [eax],al
00002A08  0000              add [eax],al
00002A0A  0000              add [eax],al
00002A0C  0000              add [eax],al
00002A0E  0000              add [eax],al
00002A10  0400              add al,0x0
00002A12  0000              add [eax],al
00002A14  0000              add [eax],al
00002A16  0000              add [eax],al
00002A18  E900000008        jmp 0x8002a1d
00002A1D  0000              add [eax],al
00002A1F  0003              add [ebx],al
00002A21  0000              add [eax],al
00002A23  00DC              add ah,bl
00002A25  AD                lodsd
00002A26  0408              add al,0x8
00002A28  DC1D00000800      fcomp qword [0x80000]
00002A2E  0000              add [eax],al
00002A30  0000              add [eax],al
00002A32  0000              add [eax],al
00002A34  0000              add [eax],al
00002A36  0000              add [eax],al
00002A38  0400              add al,0x0
00002A3A  0000              add [eax],al
00002A3C  0000              add [eax],al
00002A3E  0000              add [eax],al
00002A40  EE                out dx,al
00002A41  0000              add [eax],al
00002A43  0001              add [ecx],al
00002A45  0000              add [eax],al
00002A47  0030              add [eax],dh
00002A49  0000              add [eax],al
00002A4B  0000              add [eax],al
00002A4D  0000              add [eax],al
00002A4F  00DC              add ah,bl
00002A51  1D00003400        sbb eax,0x340000
00002A56  0000              add [eax],al
00002A58  0000              add [eax],al
00002A5A  0000              add [eax],al
00002A5C  0000              add [eax],al
00002A5E  0000              add [eax],al
00002A60  0100              add [eax],eax
00002A62  0000              add [eax],al
00002A64  0100              add [eax],eax
00002A66  0000              add [eax],al
00002A68  F70000000100      test dword [eax],0x10000
00002A6E  0000              add [eax],al
00002A70  0000              add [eax],al
00002A72  0000              add [eax],al
00002A74  0000              add [eax],al
00002A76  0000              add [eax],al
00002A78  101E              adc [esi],bl
00002A7A  0000              add [eax],al
00002A7C  40                inc eax
00002A7D  0000              add [eax],al
00002A7F  0000              add [eax],al
00002A81  0000              add [eax],al
00002A83  0000              add [eax],al
00002A85  0000              add [eax],al
00002A87  0008              add [eax],cl
00002A89  0000              add [eax],al
00002A8B  0000              add [eax],al
00002A8D  0000              add [eax],al
00002A8F  0006              add [esi],al
00002A91  0100              add [eax],eax
00002A93  0001              add [ecx],al
00002A95  0000              add [eax],al
00002A97  0000              add [eax],al
00002A99  0000              add [eax],al
00002A9B  0000              add [eax],al
00002A9D  0000              add [eax],al
00002A9F  00501E            add [eax+0x1e],dl
00002AA2  0000              add [eax],al
00002AA4  5F                pop edi
00002AA5  0000              add [eax],al
00002AA7  0000              add [eax],al
00002AA9  0000              add [eax],al
00002AAB  0000              add [eax],al
00002AAD  0000              add [eax],al
00002AAF  0001              add [ecx],al
00002AB1  0000              add [eax],al
00002AB3  0000              add [eax],al
00002AB5  0000              add [eax],al
00002AB7  0016              add [esi],dl
00002AB9  0100              add [eax],eax
00002ABB  0001              add [ecx],al
00002ABD  0000              add [eax],al
00002ABF  0000              add [eax],al
00002AC1  0000              add [eax],al
00002AC3  0000              add [eax],al
00002AC5  0000              add [eax],al
00002AC7  00AF1E000021      add [edi+0x2100001e],ch
00002ACD  0200              add al,[eax]
00002ACF  0000              add [eax],al
00002AD1  0000              add [eax],al
00002AD3  0000              add [eax],al
00002AD5  0000              add [eax],al
00002AD7  0001              add [ecx],al
00002AD9  0000              add [eax],al
00002ADB  0000              add [eax],al
00002ADD  0000              add [eax],al
00002ADF  0022              add [edx],ah
00002AE1  0100              add [eax],eax
00002AE3  0001              add [ecx],al
00002AE5  0000              add [eax],al
00002AE7  0000              add [eax],al
00002AE9  0000              add [eax],al
00002AEB  0000              add [eax],al
00002AED  0000              add [eax],al
00002AEF  00D0              add al,dl
00002AF1  2000              and [eax],al
00002AF3  003501000000      add [0x1],dh
00002AF9  0000              add [eax],al
00002AFB  0000              add [eax],al
00002AFD  0000              add [eax],al
00002AFF  0001              add [ecx],al
00002B01  0000              add [eax],al
00002B03  0000              add [eax],al
00002B05  0000              add [eax],al
00002B07  0030              add [eax],dh
00002B09  0100              add [eax],eax
00002B0B  0001              add [ecx],al
00002B0D  0000              add [eax],al
00002B0F  0000              add [eax],al
00002B11  0000              add [eax],al
00002B13  0000              add [eax],al
00002B15  0000              add [eax],al
00002B17  000522000001      add [0x1000022],al
00002B1D  0100              add [eax],eax
00002B1F  0000              add [eax],al
00002B21  0000              add [eax],al
00002B23  0000              add [eax],al
00002B25  0000              add [eax],al
00002B27  0001              add [ecx],al
00002B29  0000              add [eax],al
00002B2B  0000              add [eax],al
00002B2D  0000              add [eax],al
00002B2F  003C01            add [ecx+eax],bh
00002B32  0000              add [eax],al
00002B34  0100              add [eax],eax
00002B36  0000              add [eax],al
00002B38  0000              add [eax],al
00002B3A  0000              add [eax],al
00002B3C  0000              add [eax],al
00002B3E  0000              add [eax],al
00002B40  0823              or [ebx],ah
00002B42  0000              add [eax],al
00002B44  4C                dec esp
00002B45  0000              add [eax],al
00002B47  0000              add [eax],al
00002B49  0000              add [eax],al
00002B4B  0000              add [eax],al
00002B4D  0000              add [eax],al
00002B4F  000400            add [eax+eax],al
00002B52  0000              add [eax],al
00002B54  0000              add [eax],al
00002B56  0000              add [eax],al
00002B58  49                dec ecx
00002B59  0100              add [eax],eax
00002B5B  0001              add [ecx],al
00002B5D  0000              add [eax],al
00002B5F  0030              add [eax],dh
00002B61  0000              add [eax],al
00002B63  0000              add [eax],al
00002B65  0000              add [eax],al
00002B67  00542300          add [ebx+0x0],dl
00002B6B  0012              add [edx],dl
00002B6D  0100              add [eax],eax
00002B6F  0000              add [eax],al
00002B71  0000              add [eax],al
00002B73  0000              add [eax],al
00002B75  0000              add [eax],al
00002B77  0001              add [ecx],al
00002B79  0000              add [eax],al
00002B7B  0001              add [ecx],al
00002B7D  0000              add [eax],al
00002B7F  00540100          add [ecx+eax+0x0],dl
00002B83  0001              add [ecx],al
00002B85  0000              add [eax],al
00002B87  0000              add [eax],al
00002B89  0000              add [eax],al
00002B8B  0000              add [eax],al
00002B8D  0000              add [eax],al
00002B8F  006624            add [esi+0x24],ah
00002B92  0000              add [eax],al
00002B94  6B0000            imul eax,[eax],byte +0x0
00002B97  0000              add [eax],al
00002B99  0000              add [eax],al
00002B9B  0000              add [eax],al
00002B9D  0000              add [eax],al
00002B9F  0001              add [ecx],al
00002BA1  0000              add [eax],al
00002BA3  0000              add [eax],al
00002BA5  0000              add [eax],al
00002BA7  0011              add [ecx],dl
00002BA9  0000              add [eax],al
00002BAB  0003              add [ebx],al
00002BAD  0000              add [eax],al
00002BAF  0000              add [eax],al
00002BB1  0000              add [eax],al
00002BB3  0000              add [eax],al
00002BB5  0000              add [eax],al
00002BB7  00D1              add cl,dl
00002BB9  2400              and al,0x0
00002BBB  005F01            add [edi+0x1],bl
00002BBE  0000              add [eax],al
00002BC0  0000              add [eax],al
00002BC2  0000              add [eax],al
00002BC4  0000              add [eax],al
00002BC6  0000              add [eax],al
00002BC8  0100              add [eax],eax
00002BCA  0000              add [eax],al
00002BCC  0000              add [eax],al
00002BCE  0000              add [eax],al
00002BD0  0100              add [eax],eax
00002BD2  0000              add [eax],al
00002BD4  0200              add al,[eax]
00002BD6  0000              add [eax],al
00002BD8  0000              add [eax],al
00002BDA  0000              add [eax],al
00002BDC  0000              add [eax],al
00002BDE  0000              add [eax],al
00002BE0  202C00            and [eax+eax],ch
00002BE3  0020              add [eax],ah
00002BE5  0900              or [eax],eax
00002BE7  00250000003C      add [0x3c000000],ah
00002BED  0000              add [eax],al
00002BEF  000400            add [eax+eax],al
00002BF2  0000              add [eax],al
00002BF4  1000              adc [eax],al
00002BF6  0000              add [eax],al
00002BF8  0900              or [eax],eax
00002BFA  0000              add [eax],al
00002BFC  0300              add eax,[eax]
00002BFE  0000              add [eax],al
00002C00  0000              add [eax],al
00002C02  0000              add [eax],al
00002C04  0000              add [eax],al
00002C06  0000              add [eax],al
00002C08  40                inc eax
00002C09  3500007F0C        xor eax,0xc7f0000
00002C0E  0000              add [eax],al
00002C10  0000              add [eax],al
00002C12  0000              add [eax],al
00002C14  0000              add [eax],al
00002C16  0000              add [eax],al
00002C18  0100              add [eax],eax
00002C1A  0000              add [eax],al
00002C1C  0000              add [eax],al
00002C1E  0000              add [eax],al
00002C20  0000              add [eax],al
00002C22  0000              add [eax],al
00002C24  0000              add [eax],al
00002C26  0000              add [eax],al
00002C28  0000              add [eax],al
00002C2A  0000              add [eax],al
00002C2C  0000              add [eax],al
00002C2E  0000              add [eax],al
00002C30  0000              add [eax],al
00002C32  0000              add [eax],al
00002C34  3481              xor al,0x81
00002C36  0408              add al,0x8
00002C38  0000              add [eax],al
00002C3A  0000              add [eax],al
00002C3C  0300              add eax,[eax]
00002C3E  0100              add [eax],eax
00002C40  0000              add [eax],al
00002C42  0000              add [eax],al
00002C44  48                dec eax
00002C45  81040800000000    add dword [eax+ecx],0x0
00002C4C  0300              add eax,[eax]
00002C4E  0200              add al,[eax]
00002C50  0000              add [eax],al
00002C52  0000              add [eax],al
00002C54  6881040800        push dword 0x80481
00002C59  0000              add [eax],al
00002C5B  0003              add [ebx],al
00002C5D  0003              add [ebx],al
00002C5F  0000              add [eax],al
00002C61  0000              add [eax],al
00002C63  0008              add [eax],cl
00002C65  82                db 0x82
00002C66  0408              add al,0x8
00002C68  0000              add [eax],al
00002C6A  0000              add [eax],al
00002C6C  0300              add eax,[eax]
00002C6E  0400              add al,0x0
00002C70  0000              add [eax],al
00002C72  0000              add [eax],al
00002C74  58                pop eax
00002C75  83040800          add dword [eax+ecx],byte +0x0
00002C79  0000              add [eax],al
00002C7B  0003              add [ebx],al
00002C7D  000500000000      add [0x0],al
00002C83  00F2              add dl,dh
00002C85  850408            test [eax+ecx],eax
00002C88  0000              add [eax],al
00002C8A  0000              add [eax],al
00002C8C  0300              add eax,[eax]
00002C8E  06                push es
00002C8F  0000              add [eax],al
00002C91  0000              add [eax],al
00002C93  001C86            add [esi+eax*4],bl
00002C96  0408              add al,0x8
00002C98  0000              add [eax],al
00002C9A  0000              add [eax],al
00002C9C  0300              add eax,[eax]
00002C9E  07                pop es
00002C9F  0000              add [eax],al
00002CA1  0000              add [eax],al
00002CA3  008C8604080000    add [esi+eax*4+0x804],cl
00002CAA  0000              add [eax],al
00002CAC  0300              add eax,[eax]
00002CAE  0800              or [eax],al
00002CB0  0000              add [eax],al
00002CB2  0000              add [eax],al
00002CB4  94                xchg eax,esp
00002CB5  860408            xchg al,[eax+ecx]
00002CB8  0000              add [eax],al
00002CBA  0000              add [eax],al
00002CBC  0300              add eax,[eax]
00002CBE  0900              or [eax],eax
00002CC0  0000              add [eax],al
00002CC2  0000              add [eax],al
00002CC4  1487              adc al,0x87
00002CC6  0408              add al,0x8
00002CC8  0000              add [eax],al
00002CCA  0000              add [eax],al
00002CCC  0300              add eax,[eax]
00002CCE  0A00              or al,[eax]
00002CD0  0000              add [eax],al
00002CD2  0000              add [eax],al
00002CD4  50                push eax
00002CD5  870408            xchg eax,[eax+ecx]
00002CD8  0000              add [eax],al
00002CDA  0000              add [eax],al
00002CDC  0300              add eax,[eax]
00002CDE  0B00              or eax,[eax]
00002CE0  0000              add [eax],al
00002CE2  0000              add [eax],al
00002CE4  60                pusha
00002CE5  880408            mov [eax+ecx],al
00002CE8  0000              add [eax],al
00002CEA  0000              add [eax],al
00002CEC  0300              add eax,[eax]
00002CEE  0C00              or al,0x0
00002CF0  0000              add [eax],al
00002CF2  0000              add [eax],al
00002CF4  389504080000      cmp [ebp+0x804],dl
00002CFA  0000              add [eax],al
00002CFC  0300              add eax,[eax]
00002CFE  0D00000000        or eax,0x0
00002D03  00549504          add [ebp+edx*4+0x4],dl
00002D07  0800              or [eax],al
00002D09  0000              add [eax],al
00002D0B  0003              add [ebx],al
00002D0D  000E              add [esi],cl
00002D0F  0000              add [eax],al
00002D11  0000              add [eax],al
00002D13  007895            add [eax-0x6b],bh
00002D16  0408              add al,0x8
00002D18  0000              add [eax],al
00002D1A  0000              add [eax],al
00002D1C  0300              add eax,[eax]
00002D1E  0F0000            sldt [eax]
00002D21  0000              add [eax],al
00002D23  00B49604080000    add [esi+edx*4+0x804],dh
00002D2A  0000              add [eax],al
00002D2C  0300              add eax,[eax]
00002D2E  1000              adc [eax],al
00002D30  0000              add [eax],al
00002D32  0000              add [eax],al
00002D34  EC                in al,dx
00002D35  9B                wait
00002D36  0408              add al,0x8
00002D38  0000              add [eax],al
00002D3A  0000              add [eax],al
00002D3C  0300              add eax,[eax]
00002D3E  1100              adc [eax],eax
00002D40  0000              add [eax],al
00002D42  0000              add [eax],al
00002D44  90                nop
00002D45  AC                lodsb
00002D46  0408              add al,0x8
00002D48  0000              add [eax],al
00002D4A  0000              add [eax],al
00002D4C  0300              add eax,[eax]
00002D4E  1200              adc al,[eax]
00002D50  0000              add [eax],al
00002D52  0000              add [eax],al
00002D54  98                cwde
00002D55  AC                lodsb
00002D56  0408              add al,0x8
00002D58  0000              add [eax],al
00002D5A  0000              add [eax],al
00002D5C  0300              add eax,[eax]
00002D5E  1300              adc eax,[eax]
00002D60  0000              add [eax],al
00002D62  0000              add [eax],al
00002D64  A0AC040800        mov al,[0x804ac]
00002D69  0000              add [eax],al
00002D6B  0003              add [ebx],al
00002D6D  001400            add [eax+eax],dl
00002D70  0000              add [eax],al
00002D72  0000              add [eax],al
00002D74  A4                movsb
00002D75  AC                lodsb
00002D76  0408              add al,0x8
00002D78  0000              add [eax],al
00002D7A  0000              add [eax],al
00002D7C  0300              add eax,[eax]
00002D7E  1500000000        adc eax,0x0
00002D83  0084AD04080000    add [ebp+ebp*4+0x804],al
00002D8A  0000              add [eax],al
00002D8C  0300              add eax,[eax]
00002D8E  16                push ss
00002D8F  0000              add [eax],al
00002D91  0000              add [eax],al
00002D93  0088AD040800      add [eax+0x804ad],cl
00002D99  0000              add [eax],al
00002D9B  0003              add [ebx],al
00002D9D  0017              add [edi],dl
00002D9F  0000              add [eax],al
00002DA1  0000              add [eax],al
00002DA3  00D4              add ah,dl
00002DA5  AD                lodsd
00002DA6  0408              add al,0x8
00002DA8  0000              add [eax],al
00002DAA  0000              add [eax],al
00002DAC  0300              add eax,[eax]
00002DAE  1800              sbb [eax],al
00002DB0  0000              add [eax],al
00002DB2  0000              add [eax],al
00002DB4  DCAD04080000      fsubr qword [ebp+0x804]
00002DBA  0000              add [eax],al
00002DBC  0300              add eax,[eax]
00002DBE  1900              sbb [eax],eax
00002DC0  0000              add [eax],al
00002DC2  0000              add [eax],al
00002DC4  0000              add [eax],al
00002DC6  0000              add [eax],al
00002DC8  0000              add [eax],al
00002DCA  0000              add [eax],al
00002DCC  0300              add eax,[eax]
00002DCE  1A00              sbb al,[eax]
00002DD0  0000              add [eax],al
00002DD2  0000              add [eax],al
00002DD4  0000              add [eax],al
00002DD6  0000              add [eax],al
00002DD8  0000              add [eax],al
00002DDA  0000              add [eax],al
00002DDC  0300              add eax,[eax]
00002DDE  1B00              sbb eax,[eax]
00002DE0  0000              add [eax],al
00002DE2  0000              add [eax],al
00002DE4  0000              add [eax],al
00002DE6  0000              add [eax],al
00002DE8  0000              add [eax],al
00002DEA  0000              add [eax],al
00002DEC  0300              add eax,[eax]
00002DEE  1C00              sbb al,0x0
00002DF0  0000              add [eax],al
00002DF2  0000              add [eax],al
00002DF4  0000              add [eax],al
00002DF6  0000              add [eax],al
00002DF8  0000              add [eax],al
00002DFA  0000              add [eax],al
00002DFC  0300              add eax,[eax]
00002DFE  1D00000000        sbb eax,0x0
00002E03  0000              add [eax],al
00002E05  0000              add [eax],al
00002E07  0000              add [eax],al
00002E09  0000              add [eax],al
00002E0B  0003              add [ebx],al
00002E0D  001E              add [esi],bl
00002E0F  0000              add [eax],al
00002E11  0000              add [eax],al
00002E13  0000              add [eax],al
00002E15  0000              add [eax],al
00002E17  0000              add [eax],al
00002E19  0000              add [eax],al
00002E1B  0003              add [ebx],al
00002E1D  001F              add [edi],bl
00002E1F  0000              add [eax],al
00002E21  0000              add [eax],al
00002E23  0000              add [eax],al
00002E25  0000              add [eax],al
00002E27  0000              add [eax],al
00002E29  0000              add [eax],al
00002E2B  0003              add [ebx],al
00002E2D  0020              add [eax],ah
00002E2F  0000              add [eax],al
00002E31  0000              add [eax],al
00002E33  0000              add [eax],al
00002E35  0000              add [eax],al
00002E37  0000              add [eax],al
00002E39  0000              add [eax],al
00002E3B  0003              add [ebx],al
00002E3D  0021              add [ecx],ah
00002E3F  0000              add [eax],al
00002E41  0000              add [eax],al
00002E43  0000              add [eax],al
00002E45  0000              add [eax],al
00002E47  0000              add [eax],al
00002E49  0000              add [eax],al
00002E4B  0003              add [ebx],al
00002E4D  0022              add [edx],ah
00002E4F  0001              add [ecx],al
00002E51  0000              add [eax],al
00002E53  0000              add [eax],al
00002E55  0000              add [eax],al
00002E57  0000              add [eax],al
00002E59  0000              add [eax],al
00002E5B  000400            add [eax+eax],al
00002E5E  F1                int1
00002E5F  FF08              dec dword [eax]
00002E61  0000              add [eax],al
00002E63  0000              add [eax],al
00002E65  0000              add [eax],al
00002E67  0000              add [eax],al
00002E69  0000              add [eax],al
00002E6B  000400            add [eax+eax],al
00002E6E  F1                int1
00002E6F  FF13              call near [ebx]
00002E71  0000              add [eax],al
00002E73  0000              add [eax],al
00002E75  0000              add [eax],al
00002E77  0000              add [eax],al
00002E79  0000              add [eax],al
00002E7B  000400            add [eax+eax],al
00002E7E  F1                int1
00002E7F  FF1E              call far [esi]
00002E81  0000              add [eax],al
00002E83  0090AC040800      add [eax+0x804ac],dl
00002E89  0000              add [eax],al
00002E8B  0001              add [ecx],al
00002E8D  0012              add [edx],dl
00002E8F  002C00            add [eax+eax],ch
00002E92  0000              add [eax],al
00002E94  98                cwde
00002E95  AC                lodsb
00002E96  0408              add al,0x8
00002E98  0000              add [eax],al
00002E9A  0000              add [eax],al
00002E9C  0100              add [eax],eax
00002E9E  1300              adc eax,[eax]
00002EA0  3A00              cmp al,[eax]
00002EA2  0000              add [eax],al
00002EA4  A0AC040800        mov al,[0x804ac]
00002EA9  0000              add [eax],al
00002EAB  0001              add [ecx],al
00002EAD  001400            add [eax+eax],dl
00002EB0  47                inc edi
00002EB1  0000              add [eax],al
00002EB3  009088040800      add [eax+0x80488],dl
00002EB9  0000              add [eax],al
00002EBB  0002              add [edx],al
00002EBD  000C00            add [eax+eax],cl
00002EC0  5C                pop esp
00002EC1  0000              add [eax],al
00002EC3  00C0              add al,al
00002EC5  880408            mov [eax+ecx],al
00002EC8  0000              add [eax],al
00002ECA  0000              add [eax],al
00002ECC  0200              add al,[eax]
00002ECE  0C00              or al,0x0
00002ED0  6F                outsd
00002ED1  0000              add [eax],al
00002ED3  0000              add [eax],al
00002ED5  890408            mov [eax+ecx],eax
00002ED8  0000              add [eax],al
00002EDA  0000              add [eax],al
00002EDC  0200              add al,[eax]
00002EDE  0C00              or al,0x0
00002EE0  8500              test [eax],eax
00002EE2  0000              add [eax],al
00002EE4  DCAD04080100      fsubr qword [ebp+0x10804]
00002EEA  0000              add [eax],al
00002EEC  0100              add [eax],eax
00002EEE  1900              sbb [eax],eax
00002EF0  94                xchg eax,esp
00002EF1  0000              add [eax],al
00002EF3  00E0              add al,ah
00002EF5  AD                lodsd
00002EF6  0408              add al,0x8
00002EF8  0400              add al,0x0
00002EFA  0000              add [eax],al
00002EFC  0100              add [eax],eax
00002EFE  1900              sbb [eax],eax
00002F00  A200000050        mov [0x50000000],al
00002F05  890408            mov [eax+ecx],eax
00002F08  0000              add [eax],al
00002F0A  0000              add [eax],al
00002F0C  0200              add al,[eax]
00002F0E  0C00              or al,0x0
00002F10  1300              adc eax,[eax]
00002F12  0000              add [eax],al
00002F14  0000              add [eax],al
00002F16  0000              add [eax],al
00002F18  0000              add [eax],al
00002F1A  0000              add [eax],al
00002F1C  0400              add al,0x0
00002F1E  F1                int1
00002F1F  FFAE00000094      jmp far [esi+0x94000000]
00002F25  AC                lodsb
00002F26  0408              add al,0x8
00002F28  0000              add [eax],al
00002F2A  0000              add [eax],al
00002F2C  0100              add [eax],eax
00002F2E  1200              adc al,[eax]
00002F30  BB000000E8        mov ebx,0xe8000000
00002F35  9B                wait
00002F36  0408              add al,0x8
00002F38  0000              add [eax],al
00002F3A  0000              add [eax],al
00002F3C  0100              add [eax],eax
00002F3E  1000              adc [eax],al
00002F40  C9                leave
00002F41  0000              add [eax],al
00002F43  00A0AC040800      add [eax+0x804ac],ah
00002F49  0000              add [eax],al
00002F4B  0001              add [ecx],al
00002F4D  001400            add [eax+eax],dl
00002F50  D500              aad 0x0
00002F52  0000              add [eax],al
00002F54  109504080000      adc [ebp+0x804],dl
00002F5A  0000              add [eax],al
00002F5C  0200              add al,[eax]
00002F5E  0C00              or al,0x0
00002F60  0800              or [eax],al
00002F62  0000              add [eax],al
00002F64  0000              add [eax],al
00002F66  0000              add [eax],al
00002F68  0000              add [eax],al
00002F6A  0000              add [eax],al
00002F6C  0400              add al,0x0
00002F6E  F1                int1
00002F6F  FF                db 0xFF
00002F70  EB00              jmp short 0x2f72
00002F72  0000              add [eax],al
00002F74  0000              add [eax],al
00002F76  0000              add [eax],al
00002F78  0000              add [eax],al
00002F7A  0000              add [eax],al
00002F7C  0400              add al,0x0
00002F7E  F1                int1
00002F7F  FF0401            inc dword [ecx+eax]
00002F82  0000              add [eax],al
00002F84  0000              add [eax],al
00002F86  0000              add [eax],al
00002F88  0000              add [eax],al
00002F8A  0000              add [eax],al
00002F8C  0400              add al,0x0
00002F8E  F1                int1
00002F8F  FF00              inc dword [eax]
00002F91  0000              add [eax],al
00002F93  0000              add [eax],al
00002F95  0000              add [eax],al
00002F97  0000              add [eax],al
00002F99  0000              add [eax],al
00002F9B  000400            add [eax+eax],al
00002F9E  F1                int1
00002F9F  FF0F              dec dword [edi]
00002FA1  0100              add [eax],eax
00002FA3  0088AD040800      add [eax+0x804ad],cl
00002FA9  0000              add [eax],al
00002FAB  0001              add [ecx],al
00002FAD  0017              add [edi],dl
00002FAF  00250100008E      add [0x8e000001],ah
00002FB5  AC                lodsb
00002FB6  0408              add al,0x8
00002FB8  0000              add [eax],al
00002FBA  0000              add [eax],al
00002FBC  0000              add [eax],al
00002FBE  1200              adc al,[eax]
00002FC0  360100            add [ss:eax],eax
00002FC3  008EAC040800      add [esi+0x804ac],cl
00002FC9  0000              add [eax],al
00002FCB  0000              add [eax],al
00002FCD  0012              add [edx],dl
00002FCF  004901            add [ecx+0x1],cl
00002FD2  0000              add [eax],al
00002FD4  A4                movsb
00002FD5  AC                lodsb
00002FD6  0408              add al,0x8
00002FD8  0000              add [eax],al
00002FDA  0000              add [eax],al
00002FDC  0100              add [eax],eax
00002FDE  1500520100        adc eax,0x15200
00002FE3  00D4              add ah,dl
00002FE5  AD                lodsd
00002FE6  0408              add al,0x8
00002FE8  0000              add [eax],al
00002FEA  0000              add [eax],al
00002FEC  2000              and [eax],al
00002FEE  1800              sbb [eax],al
00002FF0  5D                pop ebp
00002FF1  0100              add [eax],eax
00002FF3  0000              add [eax],al
00002FF5  92                xchg eax,edx
00002FF6  0408              add al,0x8
00002FF8  1A00              sbb al,[eax]
00002FFA  0000              add [eax],al
00002FFC  2200              and al,[eax]
00002FFE  0C00              or al,0x0
00003000  810100002294      add dword [ecx],0x94220000
00003006  0408              add al,0x8
00003008  2900              sub [eax],eax
0000300A  0000              add [eax],al
0000300C  2200              and al,[eax]
0000300E  0C00              or al,0x0
00003010  A001000000        mov al,[0x1]
00003015  0000              add [eax],al
00003017  0000              add [eax],al
00003019  0000              add [eax],al
0000301B  0012              add [edx],dl
0000301D  0000              add [eax],al
0000301F  00B7010000A0      add [edi+0xa0000001],dh
00003025  94                xchg eax,esp
00003026  0408              add al,0x8
00003028  0500000012        add eax,0x12000000
0000302D  000C00            add [eax+eax],cl
00003030  C70100006088      mov dword [ecx],0x88600000
00003036  0408              add al,0x8
00003038  0000              add [eax],al
0000303A  0000              add [eax],al
0000303C  1200              adc al,[eax]
0000303E  0C00              or al,0x0
00003040  CE                into
00003041  0100              add [eax],eax
00003043  00F2              add dl,dh
00003045  93                xchg eax,ebx
00003046  0408              add al,0x8
00003048  0500000022        add eax,0x22000000
0000304D  000C00            add [eax+eax],cl
00003050  F60100            test byte [ecx],0x0
00003053  00DC              add ah,bl
00003055  92                xchg eax,edx
00003056  0408              add al,0x8
00003058  27                daa
00003059  0000              add [eax],al
0000305B  0022              add [edx],ah
0000305D  000C00            add [eax+eax],cl
00003060  2502000040        and eax,0x40000002
00003065  91                xchg eax,ecx
00003066  0408              add al,0x8
00003068  5F                pop edi
00003069  0000              add [eax],al
0000306B  0022              add [edx],ah
0000306D  000C00            add [eax+eax],cl
00003070  45                inc ebp
00003071  0200              add al,[eax]
00003073  0000              add [eax],al
00003075  0000              add [eax],al
00003077  0000              add [eax],al
00003079  0000              add [eax],al
0000307B  0020              add [eax],ah
0000307D  0000              add [eax],al
0000307F  00540200          add [edx+eax+0x0],dl
00003083  0000              add [eax],al
00003085  0000              add [eax],al
00003087  0000              add [eax],al
00003089  0000              add [eax],al
0000308B  0020              add [eax],ah
0000308D  0000              add [eax],al
0000308F  006802            add [eax+0x2],ch
00003092  0000              add [eax],al
00003094  3E93              ds xchg eax,ebx
00003096  0408              add al,0x8
00003098  2F                das
00003099  0000              add [eax],al
0000309B  0022              add [edx],ah
0000309D  000C00            add [eax+eax],cl
000030A0  93                xchg eax,ebx
000030A1  0200              add al,[eax]
000030A3  00549504          add [ebp+edx*4+0x4],dl
000030A7  080400            or [eax+eax],al
000030AA  0000              add [eax],al
000030AC  1100              adc [eax],eax
000030AE  0E                push cs
000030AF  009A02000000      add [edx+0x2],bl
000030B5  92                xchg eax,edx
000030B6  0408              add al,0x8
000030B8  1A00              sbb al,[eax]
000030BA  0000              add [eax],al
000030BC  2200              and al,[eax]
000030BE  0C00              or al,0x0
000030C0  BE02000000        mov esi,0x2
000030C5  0000              add [eax],al
000030C7  0000              add [eax],al
000030C9  0000              add [eax],al
000030CB  0012              add [edx],dl
000030CD  0000              add [eax],al
000030CF  00D2              add dl,dl
000030D1  0200              add al,[eax]
000030D3  00DC              add ah,bl
000030D5  90                nop
000030D6  0408              add al,0x8
000030D8  0500000022        add eax,0x22000000
000030DD  000C00            add [eax+eax],cl
000030E0  F60200            test byte [edx],0x0
000030E3  006E93            add [esi-0x6d],ch
000030E6  0408              add al,0x8
000030E8  1A00              sbb al,[eax]
000030EA  0000              add [eax],al
000030EC  2200              and al,[eax]
000030EE  0C00              or al,0x0
000030F0  06                push es
000030F1  0300              add eax,[eax]
000030F3  0003              add [ebx],al
000030F5  93                xchg eax,ebx
000030F6  0408              add al,0x8
000030F8  2100              and [eax],eax
000030FA  0000              add [eax],al
000030FC  2200              and al,[eax]
000030FE  0C00              or al,0x0
00003100  3F                aas
00003101  0300              add eax,[eax]
00003103  0038              add [eax],bh
00003105  95                xchg eax,ebp
00003106  0408              add al,0x8
00003108  0000              add [eax],al
0000310A  0000              add [eax],al
0000310C  1200              adc al,[eax]
0000310E  0D00450300        or eax,0x34500
00003113  007C8F04          add [edi+ecx*4+0x4],bh
00003117  0813              or [ebx],dl
00003119  0000              add [eax],al
0000311B  0022              add [edx],ah
0000311D  000C00            add [eax+eax],cl
00003120  52                push edx
00003121  0300              add eax,[eax]
00003123  006E8F            add [esi-0x71],ch
00003126  0408              add al,0x8
00003128  0D00000022        or eax,0x22000000
0000312D  000C00            add [eax+eax],cl
00003130  6C                insb
00003131  0300              add eax,[eax]
00003133  006690            add [esi-0x70],ah
00003136  0408              add al,0x8
00003138  55                push ebp
00003139  0000              add [eax],al
0000313B  0022              add [edx],ah
0000313D  000C00            add [eax+eax],cl
00003140  91                xchg eax,ecx
00003141  0300              add eax,[eax]
00003143  00DC              add ah,bl
00003145  90                nop
00003146  0408              add al,0x8
00003148  0500000022        add eax,0x22000000
0000314D  000C00            add [eax+eax],cl
00003150  B503              mov ch,0x3
00003152  0000              add [eax],al
00003154  0000              add [eax],al
00003156  0000              add [eax],al
00003158  0000              add [eax],al
0000315A  0000              add [eax],al
0000315C  1200              adc al,[eax]
0000315E  0000              add [eax],al
00003160  D203              rol byte [ebx],cl
00003162  0000              add [eax],al
00003164  E691              out 0x91,al
00003166  0408              add al,0x8
00003168  1A00              sbb al,[eax]
0000316A  0000              add [eax],al
0000316C  2200              and al,[eax]
0000316E  0C00              or al,0x0
00003170  F30300            rep add eax,[eax]
00003173  006692            add [esi-0x6e],ah
00003176  0408              add al,0x8
00003178  37                aaa
00003179  0000              add [eax],al
0000317B  0022              add [edx],ah
0000317D  000C00            add [eax+eax],cl
00003180  2504000066        and eax,0x66000004
00003185  90                nop
00003186  0408              add al,0x8
00003188  55                push ebp
00003189  0000              add [eax],al
0000318B  0022              add [edx],ah
0000318D  000C00            add [eax+eax],cl
00003190  4A                dec edx
00003191  0400              add al,0x0
00003193  00FC              add ah,bh
00003195  8F0408            pop dword [eax+ecx]
00003198  57                push edi
00003199  0000              add [eax],al
0000319B  0022              add [edx],ah
0000319D  000C00            add [eax+eax],cl
000031A0  630400            arpl [eax+eax],ax
000031A3  008893040813      add [eax+0x13080493],cl
000031A9  0000              add [eax],al
000031AB  0022              add [edx],ah
000031AD  000C00            add [eax+eax],cl
000031B0  93                xchg eax,ebx
000031B1  0400              add al,0x0
000031B3  00E2              add dl,ah
000031B5  90                nop
000031B6  0408              add al,0x8
000031B8  1300              adc eax,[eax]
000031BA  0000              add [eax],al
000031BC  2200              and al,[eax]
000031BE  0C00              or al,0x0
000031C0  C1040000          rol dword [eax+eax],0x0
000031C4  0000              add [eax],al
000031C6  0000              add [eax],al
000031C8  0000              add [eax],al
000031CA  0000              add [eax],al
000031CC  2000              and [eax],al
000031CE  0000              add [eax],al
000031D0  DD0400            fld qword [eax+eax]
000031D3  0000              add [eax],al
000031D5  0000              add [eax],al
000031D7  0000              add [eax],al
000031D9  0000              add [eax],al
000031DB  0012              add [edx],dl
000031DD  0000              add [eax],al
000031DF  0022              add [edx],ah
000031E1  050000A48F        add eax,0x8fa40000
000031E6  0408              add al,0x8
000031E8  58                pop eax
000031E9  0000              add [eax],al
000031EB  0022              add [edx],ah
000031ED  000C00            add [eax+eax],cl
000031F0  43                inc ebx
000031F1  0500005895        add eax,0x95580000
000031F6  0408              add al,0x8
000031F8  0400              add al,0x0
000031FA  0000              add [eax],al
000031FC  1100              adc [eax],eax
000031FE  0E                push cs
000031FF  005205            add [edx+0x5],dl
00003202  0000              add [eax],al
00003204  DE9104080800      ficom word [ecx+0x80804]
0000320A  0000              add [eax],al
0000320C  2200              and al,[eax]
0000320E  0C00              or al,0x0
00003210  850500009B93      test [0x939b0000],eax
00003216  0408              add al,0x8
00003218  2100              and [eax],eax
0000321A  0000              add [eax],al
0000321C  2200              and al,[eax]
0000321E  0C00              or al,0x0
00003220  B105              mov cl,0x5
00003222  0000              add [eax],al
00003224  0000              add [eax],al
00003226  0000              add [eax],al
00003228  0000              add [eax],al
0000322A  0000              add [eax],al
0000322C  2000              and [eax],al
0000322E  0000              add [eax],al
00003230  CB                retf
00003231  050000D4AD        add eax,0xadd40000
00003236  0408              add al,0x8
00003238  0000              add [eax],al
0000323A  0000              add [eax],al
0000323C  1000              adc [eax],al
0000323E  1800              sbb [eax],al
00003240  D80500009E92      fadd dword [0x929e0000]
00003246  0408              add al,0x8
00003248  3D00000022        cmp eax,0x22000000
0000324D  000C00            add [eax+eax],cl
00003250  0906              or [esi],eax
00003252  0000              add [eax],al
00003254  F69004084A00      not byte [eax+0x4a0804]
0000325A  0000              add [eax],al
0000325C  2200              and al,[eax]
0000325E  0C00              or al,0x0
00003260  2E06              cs push es
00003262  0000              add [eax],al
00003264  BC93040805        mov esp,0x5080493
00003269  0000              add [eax],al
0000326B  0022              add [edx],ah
0000326D  000C00            add [eax+eax],cl
00003270  5D                pop ebp
00003271  06                push es
00003272  0000              add [eax],al
00003274  6692              xchg ax,dx
00003276  0408              add al,0x8
00003278  37                aaa
00003279  0000              add [eax],al
0000327B  0022              add [edx],ah
0000327D  000C00            add [eax+eax],cl
00003280  8F06              pop dword [esi]
00003282  0000              add [eax],al
00003284  1A9204084B00      sbb dl,[edx+0x4b0804]
0000328A  0000              add [eax],al
0000328C  2200              and al,[eax]
0000328E  0C00              or al,0x0
00003290  D506              aad 0x6
00003292  0000              add [eax],al
00003294  40                inc eax
00003295  91                xchg eax,ecx
00003296  0408              add al,0x8
00003298  5F                pop edi
00003299  0000              add [eax],al
0000329B  0022              add [edx],ah
0000329D  000C00            add [eax+eax],cl
000032A0  F5                cmc
000032A1  06                push es
000032A2  0000              add [eax],al
000032A4  D6                salc
000032A5  90                nop
000032A6  0408              add al,0x8
000032A8  0500000022        add eax,0x22000000
000032AD  000C00            add [eax+eax],cl
000032B0  1907              sbb [edi],eax
000032B2  0000              add [eax],al
000032B4  54                push esp
000032B5  90                nop
000032B6  0408              add al,0x8
000032B8  1200              adc al,[eax]
000032BA  0000              add [eax],al
000032BC  2200              and al,[eax]
000032BE  0C00              or al,0x0
000032C0  3207              xor al,[edi]
000032C2  0000              add [eax],al
000032C4  DCAD04080000      fsubr qword [ebp+0x804]
000032CA  0000              add [eax],al
000032CC  1102              adc [edx],eax
000032CE  1800              sbb [eax],al
000032D0  3E07              ds pop es
000032D2  0000              add [eax],al
000032D4  2493              and al,0x93
000032D6  0408              add al,0x8
000032D8  1A00              sbb al,[eax]
000032DA  0000              add [eax],al
000032DC  2200              and al,[eax]
000032DE  0C00              or al,0x0
000032E0  56                push esi
000032E1  07                pop es
000032E2  0000              add [eax],al
000032E4  0000              add [eax],al
000032E6  0000              add [eax],al
000032E8  0000              add [eax],al
000032EA  0000              add [eax],al
000032EC  1200              adc al,[eax]
000032EE  0000              add [eax],al
000032F0  92                xchg eax,edx
000032F1  07                pop es
000032F2  0000              add [eax],al
000032F4  D8AD04080000      fsubr dword [ebp+0x804]
000032FA  0000              add [eax],al
000032FC  1102              adc [edx],eax
000032FE  1800              sbb [eax],al
00003300  9F                lahf
00003301  07                pop es
00003302  0000              add [eax],al
00003304  9C                pushf
00003305  AC                lodsb
00003306  0408              add al,0x8
00003308  0000              add [eax],al
0000330A  0000              add [eax],al
0000330C  1102              adc [edx],eax
0000330E  1300              adc eax,[eax]
00003310  AC                lodsb
00003311  07                pop es
00003312  0000              add [eax],al
00003314  8E940408080000    mov ss,[esp+eax+0x808]
0000331B  0022              add [edx],ah
0000331D  000C00            add [eax+eax],cl
00003320  D207              rol byte [edi],cl
00003322  0000              add [eax],al
00003324  F293              repne xchg eax,ebx
00003326  0408              add al,0x8
00003328  0500000022        add eax,0x22000000
0000332D  000C00            add [eax+eax],cl
00003330  FA                cli
00003331  07                pop es
00003332  0000              add [eax],al
00003334  B094              mov al,0x94
00003336  0408              add al,0x8
00003338  5A                pop edx
00003339  0000              add [eax],al
0000333B  0012              add [edx],dl
0000333D  000C00            add [eax+eax],cl
00003340  0A08              or cl,[eax]
00003342  0000              add [eax],al
00003344  0000              add [eax],al
00003346  0000              add [eax],al
00003348  0000              add [eax],al
0000334A  0000              add [eax],al
0000334C  1200              adc al,[eax]
0000334E  0000              add [eax],al
00003350  46                inc esi
00003351  0800              or [eax],al
00003353  00908F040813      add [eax+0x1308048f],dl
00003359  0000              add [eax],al
0000335B  0022              add [edx],ah
0000335D  000C00            add [eax+eax],cl
00003360  53                push ebx
00003361  0800              or [eax],al
00003363  007C8F04          add [edi+ecx*4+0x4],bh
00003367  0813              or [ebx],dl
00003369  0000              add [eax],al
0000336B  0022              add [edx],ah
0000336D  000C00            add [eax+eax],cl
00003370  60                pusha
00003371  0800              or [eax],al
00003373  005E94            add [esi-0x6c],bl
00003376  0408              add al,0x8
00003378  3000              xor [eax],al
0000337A  0000              add [eax],al
0000337C  2200              and al,[eax]
0000337E  0C00              or al,0x0
00003380  C6                db 0xC6
00003381  0800              or [eax],al
00003383  0000              add [eax],al
00003385  0000              add [eax],al
00003387  0000              add [eax],al
00003389  0000              add [eax],al
0000338B  0012              add [edx],dl
0000338D  0000              add [eax],al
0000338F  00D9              add cl,bl
00003391  0800              or [eax],al
00003393  00FC              add ah,bh
00003395  8F0408            pop dword [eax+ecx]
00003398  57                push edi
00003399  0000              add [eax],al
0000339B  0022              add [edx],ah
0000339D  000C00            add [eax+eax],cl
000033A0  F20800            repne or [eax],al
000033A3  00DC              add ah,bl
000033A5  AD                lodsd
000033A6  0408              add al,0x8
000033A8  0000              add [eax],al
000033AA  0000              add [eax],al
000033AC  1000              adc [eax],al
000033AE  1900              sbb [eax],eax
000033B0  FE08              dec byte [eax]
000033B2  0000              add [eax],al
000033B4  6E                outsb
000033B5  93                xchg eax,ebx
000033B6  0408              add al,0x8
000033B8  1A00              sbb al,[eax]
000033BA  0000              add [eax],al
000033BC  2200              and al,[eax]
000033BE  0C00              or al,0x0
000033C0  0E                push cs
000033C1  0900              or [eax],eax
000033C3  0000              add [eax],al
000033C5  0000              add [eax],al
000033C7  0000              add [eax],al
000033C9  0000              add [eax],al
000033CB  0012              add [edx],dl
000033CD  0000              add [eax],al
000033CF  0026              add [esi],ah
000033D1  0900              or [eax],eax
000033D3  00BB9004081B      add [ebx+0x1b080490],bh
000033D9  0000              add [eax],al
000033DB  0022              add [edx],ah
000033DD  000C00            add [eax+eax],cl
000033E0  3C09              cmp al,0x9
000033E2  0000              add [eax],al
000033E4  C29304            ret 0x493
000033E7  0830              or [eax],dh
000033E9  0000              add [eax],al
000033EB  0022              add [edx],ah
000033ED  000C00            add [eax+eax],cl
000033F0  6A09              push byte +0x9
000033F2  0000              add [eax],al
000033F4  0000              add [eax],al
000033F6  0000              add [eax],al
000033F8  0000              add [eax],al
000033FA  0000              add [eax],al
000033FC  1200              adc al,[eax]
000033FE  0000              add [eax],al
00003400  B9090000E4        mov ecx,0xe4000009
00003405  AD                lodsd
00003406  0408              add al,0x8
00003408  0000              add [eax],al
0000340A  0000              add [eax],al
0000340C  1000              adc [eax],al
0000340E  1900              sbb [eax],eax
00003410  BE09000000        mov esi,0x9
00003415  0000              add [eax],al
00003417  0000              add [eax],al
00003419  0000              add [eax],al
0000341B  0012              add [edx],dl
0000341D  0000              add [eax],al
0000341F  00DC              add ah,bl
00003421  0900              or [eax],eax
00003423  00F7              add bh,dh
00003425  93                xchg eax,ebx
00003426  0408              add al,0x8
00003428  2100              and [eax],eax
0000342A  0000              add [eax],al
0000342C  2200              and al,[eax]
0000342E  0C00              or al,0x0
00003430  230A              and ecx,[edx]
00003432  0000              add [eax],al
00003434  0000              add [eax],al
00003436  0000              add [eax],al
00003438  0000              add [eax],al
0000343A  0000              add [eax],al
0000343C  1200              adc al,[eax]
0000343E  0000              add [eax],al
00003440  720A              jc 0x344c
00003442  0000              add [eax],al
00003444  0000              add [eax],al
00003446  0000              add [eax],al
00003448  0000              add [eax],al
0000344A  0000              add [eax],al
0000344C  1200              adc al,[eax]
0000344E  0000              add [eax],al
00003450  98                cwde
00003451  0A00              or al,[eax]
00003453  00A48F04085800    add [edi+ecx*4+0x580804],ah
0000345A  0000              add [eax],al
0000345C  2200              and al,[eax]
0000345E  0C00              or al,0x0
00003460  B90A000030        mov ecx,0x3000000a
00003465  880408            mov [eax+ecx],al
00003468  0000              add [eax],al
0000346A  0000              add [eax],al
0000346C  1200              adc al,[eax]
0000346E  0000              add [eax],al
00003470  010B              add [ebx],ecx
00003472  0000              add [eax],al
00003474  E290              loop 0x3406
00003476  0408              add al,0x8
00003478  1300              adc eax,[eax]
0000347A  0000              add [eax],al
0000347C  2200              and al,[eax]
0000347E  0C00              or al,0x0
00003480  2F                das
00003481  0B00              or eax,[eax]
00003483  00DC              add ah,bl
00003485  AD                lodsd
00003486  0408              add al,0x8
00003488  0000              add [eax],al
0000348A  0000              add [eax],al
0000348C  1000              adc [eax],al
0000348E  1800              sbb [eax],al
00003490  360B00            or eax,[ss:eax]
00003493  004088            add [eax-0x78],al
00003496  0408              add al,0x8
00003498  0000              add [eax],al
0000349A  0000              add [eax],al
0000349C  1200              adc al,[eax]
0000349E  0000              add [eax],al
000034A0  57                push edi
000034A1  0B00              or eax,[eax]
000034A3  00908F040813      add [eax+0x1308048f],dl
000034A9  0000              add [eax],al
000034AB  0022              add [edx],ah
000034AD  000C00            add [eax+eax],cl
000034B0  640B00            or eax,[fs:eax]
000034B3  0018              add [eax],bl
000034B5  94                xchg eax,esp
000034B6  0408              add al,0x8
000034B8  0A00              or al,[eax]
000034BA  0000              add [eax],al
000034BC  2200              and al,[eax]
000034BE  0C00              or al,0x0
000034C0  90                nop
000034C1  0B00              or eax,[eax]
000034C3  0000              add [eax],al
000034C5  0000              add [eax],al
000034C7  0000              add [eax],al
000034C9  0000              add [eax],al
000034CB  0012              add [edx],dl
000034CD  0000              add [eax],al
000034CF  00A80B0000F6      add [eax+0xf600000b],ch
000034D5  90                nop
000034D6  0408              add al,0x8
000034D8  4A                dec edx
000034D9  0000              add [eax],al
000034DB  0022              add [edx],ah
000034DD  000C00            add [eax+eax],cl
000034E0  CD0B              int 0xb
000034E2  0000              add [eax],al
000034E4  0A9504080000      or dl,[ebp+0x804]
000034EA  0000              add [eax],al
000034EC  1202              adc al,[edx]
000034EE  0C00              or al,0x0
000034F0  E40B              in al,0xb
000034F2  0000              add [eax],al
000034F4  4B                dec ebx
000034F5  94                xchg eax,esp
000034F6  0408              add al,0x8
000034F8  1300              adc eax,[eax]
000034FA  0000              add [eax],al
000034FC  2200              and al,[eax]
000034FE  0C00              or al,0x0
00003500  220C00            and cl,[eax+eax]
00003503  0080890408EE      add [eax+0xee080489],al
00003509  0500001200        add eax,0x120000
0000350E  0C00              or al,0x0
00003510  27                daa
00003511  0C00              or al,0x0
00003513  001487            add [edi+eax*4],dl
00003516  0408              add al,0x8
00003518  0000              add [eax],al
0000351A  0000              add [eax],al
0000351C  1200              adc al,[eax]
0000351E  0A00              or al,[eax]
00003520  2D0C0000D6        sub eax,0xd600000c
00003525  90                nop
00003526  0408              add al,0x8
00003528  0500000022        add eax,0x22000000
0000352D  000C00            add [eax+eax],cl
00003530  51                push ecx
00003531  0C00              or al,0x0
00003533  00A09104083E      add [eax+0x3e080491],ah
00003539  0000              add [eax],al
0000353B  0022              add [edx],ah
0000353D  000C00            add [eax+eax],cl
00003540  00696E            add [ecx+0x6e],ch
00003543  69742E6300696E69  imul esi,[esi+ebp+0x63],dword 0x696e6900
0000354B  7466              jz 0x35b3
0000354D  696E692E630063    imul ebp,[esi+0x69],dword 0x6300632e
00003554  7274              jc 0x35ca
00003556  7374              jnc 0x35cc
00003558  7566              jnz 0x35c0
0000355A  662E6300          o16 arpl [cs:eax],ax
0000355E  5F                pop edi
0000355F  5F                pop edi
00003560  43                inc ebx
00003561  54                push esp
00003562  4F                dec edi
00003563  52                push edx
00003564  5F                pop edi
00003565  4C                dec esp
00003566  49                dec ecx
00003567  53                push ebx
00003568  54                push esp
00003569  5F                pop edi
0000356A  5F                pop edi
0000356B  005F5F            add [edi+0x5f],bl
0000356E  44                inc esp
0000356F  54                push esp
00003570  4F                dec edi
00003571  52                push edx
00003572  5F                pop edi
00003573  4C                dec esp
00003574  49                dec ecx
00003575  53                push ebx
00003576  54                push esp
00003577  5F                pop edi
00003578  5F                pop edi
00003579  005F5F            add [edi+0x5f],bl
0000357C  4A                dec edx
0000357D  43                inc ebx
0000357E  52                push edx
0000357F  5F                pop edi
00003580  4C                dec esp
00003581  49                dec ecx
00003582  53                push ebx
00003583  54                push esp
00003584  5F                pop edi
00003585  5F                pop edi
00003586  00646572          add [ebp+0x72],ah
0000358A  656769737465725F  imul esi,[gs:bp+di+0x74],dword 0x745f7265
         -74
00003593  6D                insd
00003594  5F                pop edi
00003595  636C6F6E          arpl [edi+ebp*2+0x6e],bp
00003599  657300            gs jnc 0x359c
0000359C  7265              jc 0x3603
0000359E  6769737465725F74  imul esi,[bp+di+0x74],dword 0x745f7265
000035A6  6D                insd
000035A7  5F                pop edi
000035A8  636C6F6E          arpl [edi+ebp*2+0x6e],bp
000035AC  657300            gs jnc 0x35af
000035AF  5F                pop edi
000035B0  5F                pop edi
000035B1  646F              fs outsd
000035B3  5F                pop edi
000035B4  676C              a16 insb
000035B6  6F                outsd
000035B7  62616C            bound esp,[ecx+0x6c]
000035BA  5F                pop edi
000035BB  64746F            fs jz 0x362d
000035BE  7273              jc 0x3633
000035C0  5F                pop edi
000035C1  61                popa
000035C2  7578              jnz 0x363c
000035C4  00636F            add [ebx+0x6f],ah
000035C7  6D                insd
000035C8  706C              jo 0x3636
000035CA  657465            gs jz 0x3632
000035CD  642E3333          xor esi,[cs:ebx]
000035D1  3238              xor bh,[eax]
000035D3  0064746F          add [esp+esi*2+0x6f],ah
000035D7  725F              jc 0x3638
000035D9  6964782E33333330  imul esp,[eax+edi*2+0x2e],dword 0x30333333
000035E1  006672            add [esi+0x72],ah
000035E4  61                popa
000035E5  6D                insd
000035E6  655F              gs pop edi
000035E8  64756D            fs jnz 0x3658
000035EB  6D                insd
000035EC  7900              jns 0x35ee
000035EE  5F                pop edi
000035EF  5F                pop edi
000035F0  43                inc ebx
000035F1  54                push esp
000035F2  4F                dec edi
000035F3  52                push edx
000035F4  5F                pop edi
000035F5  45                inc ebp
000035F6  4E                dec esi
000035F7  44                inc esp
000035F8  5F                pop edi
000035F9  5F                pop edi
000035FA  005F5F            add [edi+0x5f],bl
000035FD  46                inc esi
000035FE  52                push edx
000035FF  41                inc ecx
00003600  4D                dec ebp
00003601  45                inc ebp
00003602  5F                pop edi
00003603  45                inc ebp
00003604  4E                dec esi
00003605  44                inc esp
00003606  5F                pop edi
00003607  5F                pop edi
00003608  005F5F            add [edi+0x5f],bl
0000360B  4A                dec edx
0000360C  43                inc ebx
0000360D  52                push edx
0000360E  5F                pop edi
0000360F  45                inc ebp
00003610  4E                dec esi
00003611  44                inc esp
00003612  5F                pop edi
00003613  5F                pop edi
00003614  005F5F            add [edi+0x5f],bl
00003617  646F              fs outsd
00003619  5F                pop edi
0000361A  676C              a16 insb
0000361C  6F                outsd
0000361D  62616C            bound esp,[ecx+0x6c]
00003620  5F                pop edi
00003621  63746F72          arpl [edi+ebp*2+0x72],si
00003625  735F              jnc 0x3686
00003627  61                popa
00003628  7578              jnz 0x36a2
0000362A  0031              add [ecx],dh
0000362C  383432            cmp [edx+esi],dh
0000362F  3438              xor al,0x38
00003631  355F313438        xor eax,0x3834315f
00003636  313438            xor [eax+edi],esi
00003639  365F              ss pop edi
0000363B  44                inc esp
0000363C  41                inc ecx
0000363D  6C                insb
0000363E  652E637070        arpl [cs:eax+0x70],si
00003643  00656C            add [ebp+0x6c],ah
00003646  662D696E          sub ax,0x6e69
0000364A  69742E63005F474C  imul esi,[esi+ebp+0x63],dword 0x4c475f00
00003652  4F                dec edi
00003653  42                inc edx
00003654  41                inc ecx
00003655  4C                dec esp
00003656  5F                pop edi
00003657  4F                dec edi
00003658  46                inc esi
00003659  46                inc esi
0000365A  53                push ebx
0000365B  45                inc ebp
0000365C  54                push esp
0000365D  5F                pop edi
0000365E  54                push esp
0000365F  41                inc ecx
00003660  42                inc edx
00003661  4C                dec esp
00003662  45                inc ebp
00003663  5F                pop edi
00003664  005F5F            add [edi+0x5f],bl
00003667  696E69745F6172    imul ebp,[esi+0x69],dword 0x72615f74
0000366E  7261              jc 0x36d1
00003670  795F              jns 0x36d1
00003672  656E              gs outsb
00003674  64005F5F          add [fs:edi+0x5f],bl
00003678  696E69745F6172    imul ebp,[esi+0x69],dword 0x72615f74
0000367F  7261              jc 0x36e2
00003681  795F              jns 0x36e2
00003683  7374              jnc 0x36f9
00003685  61                popa
00003686  7274              jc 0x36fc
00003688  005F44            add [edi+0x44],bl
0000368B  59                pop ecx
0000368C  4E                dec esi
0000368D  41                inc ecx
0000368E  4D                dec ebp
0000368F  49                dec ecx
00003690  43                inc ebx
00003691  00646174          add [ecx+0x74],ah
00003695  61                popa
00003696  5F                pop edi
00003697  7374              jnc 0x370d
00003699  61                popa
0000369A  7274              jc 0x3710
0000369C  005F5A            add [edi+0x5a],bl
0000369F  4E                dec esi
000036A0  53                push ebx
000036A1  7431              jz 0x36d4
000036A3  325F56            xor bl,[edi+0x56]
000036A6  6563746F72        arpl [gs:edi+ebp*2+0x72],si
000036AB  5F                pop edi
000036AC  626173            bound esp,[ecx+0x73]
000036AF  6549              gs dec ecx
000036B1  69536149694545    imul edx,[ebx+0x61],dword 0x45456949
000036B8  43                inc ebx
000036B9  324552            xor al,[ebp+0x52]
000036BC  4B                dec ebx
000036BD  53                push ebx
000036BE  305F00            xor [edi+0x0],bl
000036C1  5F                pop edi
000036C2  5A                pop edx
000036C3  53                push ebx
000036C4  7436              jz 0x36fc
000036C6  66696C6C5F6E49    imul bp,[esp+ebp*2+0x5f],word 0x496e
000036CD  50                push eax
000036CE  696A6945545F53    imul ebp,[edx+0x69],dword 0x535f5445
000036D5  315F54            xor [edi+0x54],ebx
000036D8  305F52            xor [edi+0x52],bl
000036DB  4B                dec ebx
000036DC  54                push esp
000036DD  315F00            xor [edi+0x0],ebx
000036E0  5F                pop edi
000036E1  5A                pop edx
000036E2  4E                dec esi
000036E3  53                push ebx
000036E4  6F                outsd
000036E5  6C                insb
000036E6  7345              jnc 0x372d
000036E8  694040474C4942    imul eax,[eax+0x40],dword 0x42494c47
000036EF  43                inc ebx
000036F0  58                pop eax
000036F1  58                pop eax
000036F2  5F                pop edi
000036F3  332E              xor ebp,[esi]
000036F5  3400              xor al,0x0
000036F7  5F                pop edi
000036F8  5F                pop edi
000036F9  6C                insb
000036FA  6962635F637375    imul esp,[edx+0x63],dword 0x7573635f
00003701  5F                pop edi
00003702  66696E69005F      imul bp,[esi+0x69],word 0x5f00
00003708  7374              jnc 0x377e
0000370A  61                popa
0000370B  7274              jc 0x3781
0000370D  005F5A            add [edi+0x5a],bl
00003710  4E                dec esi
00003711  395F5F            cmp [edi+0x5f],ebx
00003714  676E              a16 outsb
00003716  755F              jnz 0x3777
00003718  637878            arpl [eax+0x78],di
0000371B  3133              xor [ebx],esi
0000371D  6E                outsb
0000371E  65775F            gs ja 0x3780
00003721  61                popa
00003722  6C                insb
00003723  6C                insb
00003724  6F                outsd
00003725  636174            arpl [ecx+0x74],sp
00003728  6F                outsd
00003729  7249              jc 0x3774
0000372B  6945433145524B    imul eax,[ebp+0x43],dword 0x4b524531
00003732  53                push ebx
00003733  315F00            xor [edi+0x0],ebx
00003736  5F                pop edi
00003737  5A                pop edx
00003738  4E                dec esi
00003739  53                push ebx
0000373A  7431              jz 0x376d
0000373C  325F56            xor bl,[edi+0x56]
0000373F  6563746F72        arpl [gs:edi+ebp*2+0x72],si
00003744  5F                pop edi
00003745  626173            bound esp,[ecx+0x73]
00003748  6549              gs dec ecx
0000374A  69536149694545    imul edx,[ebx+0x61],dword 0x45456949
00003751  3133              xor [ebx],esi
00003753  5F                pop edi
00003754  4D                dec ebp
00003755  5F                pop edi
00003756  646561            gs popa
00003759  6C                insb
0000375A  6C                insb
0000375B  6F                outsd
0000375C  636174            arpl [ecx+0x74],sp
0000375F  6545              gs inc ebp
00003761  50                push eax
00003762  696A005F5A4E53    imul ebp,[edx+0x0],dword 0x534e5a5f
00003769  7431              jz 0x379c
0000376B  325F56            xor bl,[edi+0x56]
0000376E  6563746F72        arpl [gs:edi+ebp*2+0x72],si
00003773  5F                pop edi
00003774  626173            bound esp,[ecx+0x73]
00003777  6549              gs dec ecx
00003779  69536149694545    imul edx,[ebx+0x61],dword 0x45456949
00003780  44                inc esp
00003781  324576            xor al,[ebp+0x76]
00003784  005F5F            add [edi+0x5f],bl
00003787  676D              a16 insd
00003789  6F                outsd
0000378A  6E                outsb
0000378B  5F                pop edi
0000378C  7374              jnc 0x3802
0000378E  61                popa
0000378F  7274              jc 0x3805
00003791  5F                pop edi
00003792  5F                pop edi
00003793  005F4A            add [edi+0x4a],bl
00003796  765F              jna 0x37f7
00003798  52                push edx
00003799  6567697374657243  imul esi,[gs:bp+di+0x74],dword 0x6c437265
         -6C
000037A2  61                popa
000037A3  7373              jnc 0x3818
000037A5  657300            gs jnc 0x37a8
000037A8  5F                pop edi
000037A9  5A                pop edx
000037AA  4E                dec esi
000037AB  53                push ebx
000037AC  7431              jz 0x37df
000037AE  325F56            xor bl,[edi+0x56]
000037B1  6563746F72        arpl [gs:edi+ebp*2+0x72],si
000037B6  5F                pop edi
000037B7  626173            bound esp,[ecx+0x73]
000037BA  6549              gs dec ecx
000037BC  69536149694545    imul edx,[ebx+0x61],dword 0x45456949
000037C3  3131              xor [ecx],esi
000037C5  5F                pop edi
000037C6  4D                dec ebp
000037C7  5F                pop edi
000037C8  61                popa
000037C9  6C                insb
000037CA  6C                insb
000037CB  6F                outsd
000037CC  636174            arpl [ecx+0x74],sp
000037CF  6545              gs inc ebp
000037D1  6A00              push byte +0x0
000037D3  5F                pop edi
000037D4  66705F            o16 jo 0x3836
000037D7  6877005F5A        push dword 0x5a5f0077
000037DC  4E                dec esi
000037DD  53                push ebx
000037DE  7431              jz 0x3811
000037E0  325F56            xor bl,[edi+0x56]
000037E3  6563746F72        arpl [gs:edi+ebp*2+0x72],si
000037E8  5F                pop edi
000037E9  626173            bound esp,[ecx+0x73]
000037EC  6549              gs dec ecx
000037EE  69536149694545    imul edx,[ebx+0x61],dword 0x45456949
000037F5  43                inc ebx
000037F6  314552            xor [ebp+0x52],eax
000037F9  4B                dec ebx
000037FA  53                push ebx
000037FB  305F00            xor [edi+0x0],bl
000037FE  5F                pop edi
000037FF  5A                pop edx
00003800  646C              fs insb
00003802  50                push eax
00003803  7640              jna 0x3845
00003805  40                inc eax
00003806  47                inc edi
00003807  4C                dec esp
00003808  49                dec ecx
00003809  42                inc edx
0000380A  43                inc ebx
0000380B  58                pop eax
0000380C  58                pop eax
0000380D  5F                pop edi
0000380E  332E              xor ebp,[esi]
00003810  3400              xor al,0x0
00003812  5F                pop edi
00003813  5A                pop edx
00003814  4E                dec esi
00003815  395F5F            cmp [edi+0x5f],ebx
00003818  676E              a16 outsb
0000381A  755F              jnz 0x387b
0000381C  637878            arpl [eax+0x78],di
0000381F  3133              xor [ebx],esi
00003821  6E                outsb
00003822  65775F            gs ja 0x3884
00003825  61                popa
00003826  6C                insb
00003827  6C                insb
00003828  6F                outsd
00003829  636174            arpl [ecx+0x74],sp
0000382C  6F                outsd
0000382D  7249              jc 0x3878
0000382F  69454431457600    imul eax,[ebp+0x44],dword 0x764531
00003836  5F                pop edi
00003837  5A                pop edx
00003838  4E                dec esi
00003839  53                push ebx
0000383A  61                popa
0000383B  49                dec ecx
0000383C  6945433145524B    imul eax,[ebp+0x43],dword 0x4b524531
00003843  53                push ebx
00003844  5F                pop edi
00003845  005F5A            add [edi+0x5a],bl
00003848  53                push ebx
00003849  7432              jz 0x387d
0000384B  345F              xor al,0x5f
0000384D  5F                pop edi
0000384E  756E              jnz 0x38be
00003850  696E697469616C    imul ebp,[esi+0x69],dword 0x6c616974
00003857  697A65645F6669    imul edi,[edx+0x65],dword 0x69665f64
0000385E  6C                insb
0000385F  6C                insb
00003860  5F                pop edi
00003861  6E                outsb
00003862  5F                pop edi
00003863  61                popa
00003864  49                dec ecx
00003865  50                push eax
00003866  696A6969457654    imul ebp,[edx+0x69],dword 0x54764569
0000386D  5F                pop edi
0000386E  54                push esp
0000386F  305F52            xor [edi+0x52],bl
00003872  4B                dec ebx
00003873  54                push esp
00003874  315F52            xor [edi+0x52],ebx
00003877  53                push ebx
00003878  61                popa
00003879  49                dec ecx
0000387A  54                push esp
0000387B  325F45            xor bl,[edi+0x45]
0000387E  005F66            add [edi+0x66],bl
00003881  696E69005F5A4E    imul ebp,[esi+0x69],dword 0x4e5a5f00
00003888  53                push ebx
00003889  61                popa
0000388A  49                dec ecx
0000388B  69454332457600    imul eax,[ebp+0x43],dword 0x764532
00003892  5F                pop edi
00003893  5A                pop edx
00003894  53                push ebx
00003895  746F              jz 0x3906
00003897  7253              jc 0x38ec
00003899  7431              jz 0x38cc
0000389B  335F49            xor ebx,[edi+0x49]
0000389E  6F                outsd
0000389F  735F              jnc 0x3900
000038A1  4F                dec edi
000038A2  7065              jo 0x3909
000038A4  6E                outsb
000038A5  6D                insd
000038A6  6F                outsd
000038A7  646553            gs push ebx
000038AA  5F                pop edi
000038AB  005F5A            add [edi+0x5a],bl
000038AE  4E                dec esi
000038AF  53                push ebx
000038B0  7436              jz 0x38e8
000038B2  7665              jna 0x3919
000038B4  63746F72          arpl [edi+ebp*2+0x72],si
000038B8  49                dec ecx
000038B9  69536149694545    imul edx,[ebx+0x61],dword 0x45456949
000038C0  43                inc ebx
000038C1  324969            xor cl,[ecx+0x69]
000038C4  45                inc ebp
000038C5  45                inc ebp
000038C6  54                push esp
000038C7  5F                pop edi
000038C8  53                push ebx
000038C9  335F52            xor ebx,[edi+0x52]
000038CC  4B                dec ebx
000038CD  53                push ebx
000038CE  305F00            xor [edi+0x0],bl
000038D1  5F                pop edi
000038D2  5A                pop edx
000038D3  4E                dec esi
000038D4  395F5F            cmp [edi+0x5f],ebx
000038D7  676E              a16 outsb
000038D9  755F              jnz 0x393a
000038DB  637878            arpl [eax+0x78],di
000038DE  3133              xor [ebx],esi
000038E0  6E                outsb
000038E1  65775F            gs ja 0x3943
000038E4  61                popa
000038E5  6C                insb
000038E6  6C                insb
000038E7  6F                outsd
000038E8  636174            arpl [ecx+0x74],sp
000038EB  6F                outsd
000038EC  7249              jc 0x3937
000038EE  69454432457600    imul eax,[ebp+0x44],dword 0x764532
000038F5  5F                pop edi
000038F6  5F                pop edi
000038F7  6C                insb
000038F8  6962635F737461    imul esp,[edx+0x63],dword 0x6174735f
000038FF  7274              jc 0x3975
00003901  5F                pop edi
00003902  6D                insd
00003903  61                popa
00003904  696E4040474C49    imul ebp,[esi+0x40],dword 0x494c4740
0000390B  42                inc edx
0000390C  43                inc ebx
0000390D  5F                pop edi
0000390E  322E              xor ch,[esi]
00003910  3000              xor [eax],al
00003912  5F                pop edi
00003913  5A                pop edx
00003914  53                push ebx
00003915  7438              jz 0x394f
00003917  5F                pop edi
00003918  44                inc esp
00003919  657374            gs jnc 0x3990
0000391C  726F              jc 0x398d
0000391E  7949              jns 0x3969
00003920  50                push eax
00003921  69694576545F53    imul ebp,[ecx+0x45],dword 0x535f5476
00003928  315F52            xor [edi+0x52],ebx
0000392B  53                push ebx
0000392C  61                popa
0000392D  49                dec ecx
0000392E  54                push esp
0000392F  305F45            xor [edi+0x45],bl
00003932  005F5A            add [edi+0x5a],bl
00003935  4E                dec esi
00003936  53                push ebx
00003937  7431              jz 0x396a
00003939  325F56            xor bl,[edi+0x56]
0000393C  6563746F72        arpl [gs:edi+ebp*2+0x72],si
00003941  5F                pop edi
00003942  626173            bound esp,[ecx+0x73]
00003945  6549              gs dec ecx
00003947  69536149694545    imul edx,[ebx+0x61],dword 0x45456949
0000394E  3132              xor [edx],esi
00003950  5F                pop edi
00003951  56                push esi
00003952  6563746F72        arpl [gs:edi+ebp*2+0x72],si
00003957  5F                pop edi
00003958  696D706C433145    imul ebp,[ebp+0x70],dword 0x4531436c
0000395F  52                push edx
00003960  4B                dec ebx
00003961  53                push ebx
00003962  305F00            xor [edi+0x0],bl
00003965  5F                pop edi
00003966  5A                pop edx
00003967  4E                dec esi
00003968  53                push ebx
00003969  7436              jz 0x39a1
0000396B  7665              jna 0x39d2
0000396D  63746F72          arpl [edi+ebp*2+0x72],si
00003971  49                dec ecx
00003972  69536149694545    imul edx,[ebx+0x61],dword 0x45456949
00003979  43                inc ebx
0000397A  314969            xor [ecx+0x69],ecx
0000397D  45                inc ebp
0000397E  45                inc ebp
0000397F  54                push esp
00003980  5F                pop edi
00003981  53                push ebx
00003982  335F52            xor ebx,[edi+0x52]
00003985  4B                dec ebx
00003986  53                push ebx
00003987  305F00            xor [edi+0x0],bl
0000398A  5F                pop edi
0000398B  5A                pop edx
0000398C  4E                dec esi
0000398D  53                push ebx
0000398E  7436              jz 0x39c6
00003990  7665              jna 0x39f7
00003992  63746F72          arpl [edi+ebp*2+0x72],si
00003996  49                dec ecx
00003997  69536149694545    imul edx,[ebx+0x61],dword 0x45456949
0000399E  44                inc esp
0000399F  314576            xor [ebp+0x76],eax
000039A2  005F5A            add [edi+0x5a],bl
000039A5  4E                dec esi
000039A6  395F5F            cmp [edi+0x5f],ebx
000039A9  676E              a16 outsb
000039AB  755F              jnz 0x3a0c
000039AD  637878            arpl [eax+0x78],di
000039B0  3133              xor [ebx],esi
000039B2  6E                outsb
000039B3  65775F            gs ja 0x3a15
000039B6  61                popa
000039B7  6C                insb
000039B8  6C                insb
000039B9  6F                outsd
000039BA  636174            arpl [ecx+0x74],sp
000039BD  6F                outsd
000039BE  7249              jc 0x3a09
000039C0  69453130646561    imul eax,[ebp+0x31],dword 0x61656430
000039C7  6C                insb
000039C8  6C                insb
000039C9  6F                outsd
000039CA  636174            arpl [ecx+0x74],sp
000039CD  6545              gs inc ebp
000039CF  50                push eax
000039D0  696A005F5A4E53    imul ebp,[edx+0x0],dword 0x534e5a5f
000039D7  7431              jz 0x3a0a
000039D9  325F56            xor bl,[edi+0x56]
000039DC  6563746F72        arpl [gs:edi+ebp*2+0x72],si
000039E1  5F                pop edi
000039E2  626173            bound esp,[ecx+0x73]
000039E5  6549              gs dec ecx
000039E7  69536149694545    imul edx,[ebx+0x61],dword 0x45456949
000039EE  3132              xor [edx],esi
000039F0  5F                pop edi
000039F1  56                push esi
000039F2  6563746F72        arpl [gs:edi+ebp*2+0x72],si
000039F7  5F                pop edi
000039F8  696D706C443245    imul ebp,[ebp+0x70],dword 0x4532446c
000039FF  7600              jna 0x3a01
00003A01  5F                pop edi
00003A02  49                dec ecx
00003A03  54                push esp
00003A04  4D                dec ebp
00003A05  5F                pop edi
00003A06  64657265          gs jc 0x3a6f
00003A0A  676973746572544D  imul esi,[bp+di+0x74],dword 0x4d547265
00003A12  43                inc ebx
00003A13  6C                insb
00003A14  6F                outsd
00003A15  6E                outsb
00003A16  6554              gs push esp
00003A18  61                popa
00003A19  626C6500          bound ebp,[ebp+0x0]
00003A1D  5F                pop edi
00003A1E  5A                pop edx
00003A1F  53                push ebx
00003A20  746C              jz 0x3a8e
00003A22  7349              jnc 0x3a6d
00003A24  53                push ebx
00003A25  7431              jz 0x3a58
00003A27  316368            xor [ebx+0x68],esp
00003A2A  61                popa
00003A2B  725F              jc 0x3a8c
00003A2D  7472              jz 0x3aa1
00003A2F  61                popa
00003A30  6974734963454552  imul esi,[ebx+esi*2+0x49],dword 0x52454563
00003A38  53                push ebx
00003A39  7431              jz 0x3a6c
00003A3B  336261            xor esp,[edx+0x61]
00003A3E  7369              jnc 0x3aa9
00003A40  635F6F            arpl [edi+0x6f],bx
00003A43  7374              jnc 0x3ab9
00003A45  7265              jc 0x3aac
00003A47  61                popa
00003A48  6D                insd
00003A49  49                dec ecx
00003A4A  63545F45          arpl [edi+ebx*2+0x45],dx
00003A4E  53                push ebx
00003A4F  355F504B63        xor eax,0x634b505f
00003A54  40                inc eax
00003A55  40                inc eax
00003A56  47                inc edi
00003A57  4C                dec esp
00003A58  49                dec ecx
00003A59  42                inc edx
00003A5A  43                inc ebx
00003A5B  58                pop eax
00003A5C  58                pop eax
00003A5D  5F                pop edi
00003A5E  332E              xor ebp,[esi]
00003A60  3400              xor al,0x0
00003A62  5F                pop edi
00003A63  5A                pop edx
00003A64  4E                dec esi
00003A65  53                push ebx
00003A66  7436              jz 0x3a9e
00003A68  7665              jna 0x3acf
00003A6A  63746F72          arpl [edi+ebp*2+0x72],si
00003A6E  49                dec ecx
00003A6F  69536149694545    imul edx,[ebx+0x61],dword 0x45456949
00003A76  43                inc ebx
00003A77  31456A            xor [ebp+0x6a],eax
00003A7A  52                push edx
00003A7B  4B                dec ebx
00003A7C  69524B53305F00    imul edx,[edx+0x4b],dword 0x5f3053
00003A83  5F                pop edi
00003A84  49                dec ecx
00003A85  4F                dec edi
00003A86  5F                pop edi
00003A87  7374              jnc 0x3afd
00003A89  64696E5F75736564  imul ebp,[fs:esi+0x5f],dword 0x64657375
00003A91  005F5A            add [edi+0x5a],bl
00003A94  4E                dec esi
00003A95  53                push ebx
00003A96  7431              jz 0x3ac9
00003A98  325F56            xor bl,[edi+0x56]
00003A9B  6563746F72        arpl [gs:edi+ebp*2+0x72],si
00003AA0  5F                pop edi
00003AA1  626173            bound esp,[ecx+0x73]
00003AA4  6549              gs dec ecx
00003AA6  69536149694545    imul edx,[ebx+0x61],dword 0x45456949
00003AAD  3139              xor [ecx],edi
00003AAF  5F                pop edi
00003AB0  4D                dec ebp
00003AB1  5F                pop edi
00003AB2  6765745F          gs a16 jz 0x3b15
00003AB6  54                push esp
00003AB7  705F              jo 0x3b18
00003AB9  61                popa
00003ABA  6C                insb
00003ABB  6C                insb
00003ABC  6F                outsd
00003ABD  636174            arpl [ecx+0x74],sp
00003AC0  6F                outsd
00003AC1  7245              jc 0x3b08
00003AC3  7600              jna 0x3ac5
00003AC5  5F                pop edi
00003AC6  5A                pop edx
00003AC7  53                push ebx
00003AC8  7432              jz 0x3afc
00003ACA  30756E            xor [ebp+0x6e],dh
00003ACD  696E697469616C    imul ebp,[esi+0x69],dword 0x6c616974
00003AD4  697A65645F6669    imul edi,[edx+0x65],dword 0x69665f64
00003ADB  6C                insb
00003ADC  6C                insb
00003ADD  5F                pop edi
00003ADE  6E                outsb
00003ADF  49                dec ecx
00003AE0  50                push eax
00003AE1  696A694576545F    imul ebp,[edx+0x69],dword 0x5f547645
00003AE8  54                push esp
00003AE9  305F52            xor [edi+0x52],bl
00003AEC  4B                dec ebx
00003AED  54                push esp
00003AEE  315F00            xor [edi+0x0],ebx
00003AF1  5F                pop edi
00003AF2  49                dec ecx
00003AF3  54                push esp
00003AF4  4D                dec ebp
00003AF5  5F                pop edi
00003AF6  7265              jc 0x3b5d
00003AF8  676973746572544D  imul esi,[bp+di+0x74],dword 0x4d547265
00003B00  43                inc ebx
00003B01  6C                insb
00003B02  6F                outsd
00003B03  6E                outsb
00003B04  6554              gs push esp
00003B06  61                popa
00003B07  626C6500          bound ebp,[ebp+0x0]
00003B0B  5F                pop edi
00003B0C  5F                pop edi
00003B0D  6461              fs popa
00003B0F  7461              jz 0x3b72
00003B11  5F                pop edi
00003B12  7374              jnc 0x3b88
00003B14  61                popa
00003B15  7274              jc 0x3b8b
00003B17  005F5A            add [edi+0x5a],bl
00003B1A  4E                dec esi
00003B1B  53                push ebx
00003B1C  7431              jz 0x3b4f
00003B1E  325F56            xor bl,[edi+0x56]
00003B21  6563746F72        arpl [gs:edi+ebp*2+0x72],si
00003B26  5F                pop edi
00003B27  626173            bound esp,[ecx+0x73]
00003B2A  6549              gs dec ecx
00003B2C  69536149694545    imul edx,[ebx+0x61],dword 0x45456949
00003B33  3137              xor [edi],esi
00003B35  5F                pop edi
00003B36  4D                dec ebp
00003B37  5F                pop edi
00003B38  637265            arpl [edx+0x65],si
00003B3B  61                popa
00003B3C  7465              jz 0x3ba3
00003B3E  5F                pop edi
00003B3F  7374              jnc 0x3bb5
00003B41  6F                outsd
00003B42  7261              jc 0x3ba5
00003B44  676545            gs a16 inc ebp
00003B47  6A00              push byte +0x0
00003B49  5F                pop edi
00003B4A  5A                pop edx
00003B4B  4E                dec esi
00003B4C  53                push ebx
00003B4D  7431              jz 0x3b80
00003B4F  325F56            xor bl,[edi+0x56]
00003B52  6563746F72        arpl [gs:edi+ebp*2+0x72],si
00003B57  5F                pop edi
00003B58  626173            bound esp,[ecx+0x73]
00003B5B  6549              gs dec ecx
00003B5D  69536149694545    imul edx,[ebx+0x61],dword 0x45456949
00003B64  43                inc ebx
00003B65  31456A            xor [ebp+0x6a],eax
00003B68  52                push edx
00003B69  4B                dec ebx
00003B6A  53                push ebx
00003B6B  305F00            xor [edi+0x0],bl
00003B6E  5F                pop edi
00003B6F  5A                pop edx
00003B70  4E                dec esi
00003B71  53                push ebx
00003B72  7431              jz 0x3ba5
00003B74  325F44            xor bl,[edi+0x44]
00003B77  657374            gs jnc 0x3bee
00003B7A  726F              jc 0x3beb
00003B7C  795F              jns 0x3bdd
00003B7E  61                popa
00003B7F  7578              jnz 0x3bf9
00003B81  49                dec ecx
00003B82  4C                dec esp
00003B83  6231              bound esi,[ecx]
00003B85  45                inc ebp
00003B86  45                inc ebp
00003B87  395F5F            cmp [edi+0x5f],ebx
00003B8A  64657374          gs jnc 0x3c02
00003B8E  726F              jc 0x3bff
00003B90  7949              jns 0x3bdb
00003B92  50                push eax
00003B93  69454576545F53    imul eax,[ebp+0x45],dword 0x535f5476
00003B9A  335F00            xor ebx,[edi+0x0]
00003B9D  5F                pop edi
00003B9E  5A                pop edx
00003B9F  4E                dec esi
00003BA0  53                push ebx
00003BA1  7431              jz 0x3bd4
00003BA3  325F56            xor bl,[edi+0x56]
00003BA6  6563746F72        arpl [gs:edi+ebp*2+0x72],si
00003BAB  5F                pop edi
00003BAC  626173            bound esp,[ecx+0x73]
00003BAF  6549              gs dec ecx
00003BB1  69536149694545    imul edx,[ebx+0x61],dword 0x45456949
00003BB8  3132              xor [edx],esi
00003BBA  5F                pop edi
00003BBB  56                push esi
00003BBC  6563746F72        arpl [gs:edi+ebp*2+0x72],si
00003BC1  5F                pop edi
00003BC2  696D706C433245    imul ebp,[ebp+0x70],dword 0x4532436c
00003BC9  52                push edx
00003BCA  4B                dec ebx
00003BCB  53                push ebx
00003BCC  305F00            xor [edi+0x0],bl
00003BCF  5F                pop edi
00003BD0  5A                pop edx
00003BD1  4E                dec esi
00003BD2  53                push ebx
00003BD3  7436              jz 0x3c0b
00003BD5  7665              jna 0x3c3c
00003BD7  63746F72          arpl [edi+ebp*2+0x72],si
00003BDB  49                dec ecx
00003BDC  69536149694545    imul edx,[ebx+0x61],dword 0x45456949
00003BE3  3232              xor dh,[edx]
00003BE5  5F                pop edi
00003BE6  4D                dec ebp
00003BE7  5F                pop edi
00003BE8  696E697469616C    imul ebp,[esi+0x69],dword 0x6c616974
00003BEF  697A655F646973    imul edi,[edx+0x65],dword 0x7369645f
00003BF6  7061              jo 0x3c59
00003BF8  7463              jz 0x3c5d
00003BFA  6849694545        push dword 0x45456949
00003BFF  7654              jna 0x3c55
00003C01  5F                pop edi
00003C02  53                push ebx
00003C03  335F53            xor ebx,[edi+0x53]
00003C06  7431              jz 0x3c39
00003C08  315F5F            xor [edi+0x5f],ebx
00003C0B  7472              jz 0x3c7f
00003C0D  7565              jnz 0x3c74
00003C0F  5F                pop edi
00003C10  7479              jz 0x3c8b
00003C12  7065              jo 0x3c79
00003C14  005F5A            add [edi+0x5a],bl
00003C17  4E                dec esi
00003C18  53                push ebx
00003C19  7431              jz 0x3c4c
00003C1B  325F56            xor bl,[edi+0x56]
00003C1E  6563746F72        arpl [gs:edi+ebp*2+0x72],si
00003C23  5F                pop edi
00003C24  626173            bound esp,[ecx+0x73]
00003C27  6549              gs dec ecx
00003C29  69536149694545    imul edx,[ebx+0x61],dword 0x45456949
00003C30  44                inc esp
00003C31  314576            xor [ebp+0x76],eax
00003C34  005F5A            add [edi+0x5a],bl
00003C37  4E                dec esi
00003C38  395F5F            cmp [edi+0x5f],ebx
00003C3B  676E              a16 outsb
00003C3D  755F              jnz 0x3c9e
00003C3F  637878            arpl [eax+0x78],di
00003C42  3133              xor [ebx],esi
00003C44  6E                outsb
00003C45  65775F            gs ja 0x3ca7
00003C48  61                popa
00003C49  6C                insb
00003C4A  6C                insb
00003C4B  6F                outsd
00003C4C  636174            arpl [ecx+0x74],sp
00003C4F  6F                outsd
00003C50  7249              jc 0x3c9b
00003C52  69454331457600    imul eax,[ebp+0x43],dword 0x764531
00003C59  5F                pop edi
00003C5A  5A                pop edx
00003C5B  4E                dec esi
00003C5C  53                push ebx
00003C5D  7436              jz 0x3c95
00003C5F  7665              jna 0x3cc6
00003C61  63746F72          arpl [edi+ebp*2+0x72],si
00003C65  49                dec ecx
00003C66  69536149694545    imul edx,[ebx+0x61],dword 0x45456949
00003C6D  6978456A005F5F    imul edi,[eax+0x45],dword 0x5f5f006a
00003C74  54                push esp
00003C75  4D                dec ebp
00003C76  43                inc ebx
00003C77  5F                pop edi
00003C78  45                inc ebp
00003C79  4E                dec esi
00003C7A  44                inc esp
00003C7B  5F                pop edi
00003C7C  5F                pop edi
00003C7D  005F5A            add [edi+0x5a],bl
00003C80  53                push ebx
00003C81  7438              jz 0x3cbb
00003C83  5F                pop edi
00003C84  44                inc esp
00003C85  657374            gs jnc 0x3cfc
00003C88  726F              jc 0x3cf9
00003C8A  7949              jns 0x3cd5
00003C8C  50                push eax
00003C8D  694576545F5331    imul eax,[ebp+0x76],dword 0x31535f54
00003C94  5F                pop edi
00003C95  005F5A            add [edi+0x5a],bl
00003C98  4E                dec esi
00003C99  53                push ebx
00003C9A  7431              jz 0x3ccd
00003C9C  3462              xor al,0x62
00003C9E  61                popa
00003C9F  7369              jnc 0x3d0a
00003CA1  635F69            arpl [edi+0x69],bx
00003CA4  667374            o16 jnc 0x3d1b
00003CA7  7265              jc 0x3d0e
00003CA9  61                popa
00003CAA  6D                insd
00003CAB  49                dec ecx
00003CAC  635374            arpl [ebx+0x74],dx
00003CAF  3131              xor [ecx],esi
00003CB1  636861            arpl [eax+0x61],bp
00003CB4  725F              jc 0x3d15
00003CB6  7472              jz 0x3d2a
00003CB8  61                popa
00003CB9  6974734963454544  imul esi,[ebx+esi*2+0x49],dword 0x44454563
00003CC1  314576            xor [ebp+0x76],eax
00003CC4  40                inc eax
00003CC5  40                inc eax
00003CC6  47                inc edi
00003CC7  4C                dec esp
00003CC8  49                dec ecx
00003CC9  42                inc edx
00003CCA  43                inc ebx
00003CCB  58                pop eax
00003CCC  58                pop eax
00003CCD  5F                pop edi
00003CCE  332E              xor ebp,[esi]
00003CD0  3400              xor al,0x0
00003CD2  5F                pop edi
00003CD3  5F                pop edi
00003CD4  64736F            fs jnc 0x3d46
00003CD7  5F                pop edi
00003CD8  68616E646C        push dword 0x6c646e61
00003CDD  65005F5F          add [gs:edi+0x5f],bl
00003CE1  44                inc esp
00003CE2  54                push esp
00003CE3  4F                dec edi
00003CE4  52                push edx
00003CE5  5F                pop edi
00003CE6  45                inc ebp
00003CE7  4E                dec esi
00003CE8  44                inc esp
00003CE9  5F                pop edi
00003CEA  5F                pop edi
00003CEB  005F5A            add [edi+0x5a],bl
00003CEE  4E                dec esi
00003CEF  53                push ebx
00003CF0  7431              jz 0x3d23
00003CF2  305F49            xor [edi+0x49],bl
00003CF5  7465              jz 0x3d5c
00003CF7  725F              jc 0x3d58
00003CF9  626173            bound esp,[ecx+0x73]
00003CFC  6549              gs dec ecx
00003CFE  50                push eax
00003CFF  694C62304545375F  imul ecx,[edx+0x30],dword 0x5f374545
00003D07  53                push ebx
00003D08  5F                pop edi
00003D09  626173            bound esp,[ecx+0x73]
00003D0C  6545              gs inc ebp
00003D0E  53                push ebx
00003D0F  305F00            xor [edi+0x0],bl
00003D12  5F                pop edi
00003D13  5A                pop edx
00003D14  4E                dec esi
00003D15  395F5F            cmp [edi+0x5f],ebx
00003D18  676E              a16 outsb
00003D1A  755F              jnz 0x3d7b
00003D1C  637878            arpl [eax+0x78],di
00003D1F  3133              xor [ebx],esi
00003D21  6E                outsb
00003D22  65775F            gs ja 0x3d84
00003D25  61                popa
00003D26  6C                insb
00003D27  6C                insb
00003D28  6F                outsd
00003D29  636174            arpl [ecx+0x74],sp
00003D2C  6F                outsd
00003D2D  7249              jc 0x3d78
00003D2F  6945433245524B    imul eax,[ebp+0x43],dword 0x4b524532
00003D36  53                push ebx
00003D37  315F00            xor [edi+0x0],ebx
00003D3A  5F                pop edi
00003D3B  5F                pop edi
00003D3C  6C                insb
00003D3D  6962635F637375    imul esp,[edx+0x63],dword 0x7573635f
00003D44  5F                pop edi
00003D45  696E6974005F5A    imul ebp,[esi+0x69],dword 0x5a5f0074
00003D4C  4E                dec esi
00003D4D  53                push ebx
00003D4E  7431              jz 0x3d81
00003D50  3462              xor al,0x62
00003D52  61                popa
00003D53  7369              jnc 0x3dbe
00003D55  635F6F            arpl [edi+0x6f],bx
00003D58  667374            o16 jnc 0x3dcf
00003D5B  7265              jc 0x3dc2
00003D5D  61                popa
00003D5E  6D                insd
00003D5F  49                dec ecx
00003D60  635374            arpl [ebx+0x74],dx
00003D63  3131              xor [ecx],esi
00003D65  636861            arpl [eax+0x61],bp
00003D68  725F              jc 0x3dc9
00003D6A  7472              jz 0x3dde
00003D6C  61                popa
00003D6D  6974734963454544  imul esi,[ebx+esi*2+0x49],dword 0x44454563
00003D75  314576            xor [ebp+0x76],eax
00003D78  40                inc eax
00003D79  40                inc eax
00003D7A  47                inc edi
00003D7B  4C                dec esp
00003D7C  49                dec ecx
00003D7D  42                inc edx
00003D7E  43                inc ebx
00003D7F  58                pop eax
00003D80  58                pop eax
00003D81  5F                pop edi
00003D82  332E              xor ebp,[esi]
00003D84  3400              xor al,0x0
00003D86  5F                pop edi
00003D87  5A                pop edx
00003D88  4E                dec esi
00003D89  53                push ebx
00003D8A  61                popa
00003D8B  49                dec ecx
00003D8C  69454432457600    imul eax,[ebp+0x44],dword 0x764532
00003D93  5F                pop edi
00003D94  5A                pop edx
00003D95  4E                dec esi
00003D96  53                push ebx
00003D97  61                popa
00003D98  49                dec ecx
00003D99  69454331457600    imul eax,[ebp+0x43],dword 0x764531
00003DA0  5F                pop edi
00003DA1  5A                pop edx
00003DA2  53                push ebx
00003DA3  7431              jz 0x3dd6
00003DA5  305F5F            xor [edi+0x5f],bl
00003DA8  66696C6C5F6E5F    imul bp,[esp+ebp*2+0x5f],word 0x5f6e
00003DAF  61                popa
00003DB0  49                dec ecx
00003DB1  50                push eax
00003DB2  696A69454E395F    imul ebp,[edx+0x69],dword 0x5f394e45
00003DB9  5F                pop edi
00003DBA  676E              a16 outsb
00003DBC  755F              jnz 0x3e1d
00003DBE  637878            arpl [eax+0x78],di
00003DC1  3131              xor [ecx],esi
00003DC3  5F                pop edi
00003DC4  5F                pop edi
00003DC5  656E              gs outsb
00003DC7  61                popa
00003DC8  626C655F          bound ebp,[ebp+0x5f]
00003DCC  69664958737253    imul esp,[esi+0x49],dword 0x53727358
00003DD3  7431              jz 0x3e06
00003DD5  315F5F            xor [edi+0x5f],ebx
00003DD8  69735F7363616C    imul esi,[ebx+0x5f],dword 0x6c616373
00003DDF  61                popa
00003DE0  7249              jc 0x3e2b
00003DE2  54                push esp
00003DE3  315F45            xor [edi+0x45],ebx
00003DE6  37                aaa
00003DE7  5F                pop edi
00003DE8  5F                pop edi
00003DE9  7661              jna 0x3e4c
00003DEB  6C                insb
00003DEC  7565              jnz 0x3e53
00003DEE  45                inc ebp
00003DEF  54                push esp
00003DF0  5F                pop edi
00003DF1  45                inc ebp
00003DF2  365F              ss pop edi
00003DF4  5F                pop edi
00003DF5  7479              jz 0x3e70
00003DF7  7065              jo 0x3e5e
00003DF9  45                inc ebp
00003DFA  53                push ebx
00003DFB  365F              ss pop edi
00003DFD  54                push esp
00003DFE  305F52            xor [edi+0x52],bl
00003E01  4B                dec ebx
00003E02  53                push ebx
00003E03  345F              xor al,0x5f
00003E05  005F5A            add [edi+0x5a],bl
00003E08  6E                outsb
00003E09  776A              ja 0x3e75
00003E0B  40                inc eax
00003E0C  40                inc eax
00003E0D  47                inc edi
00003E0E  4C                dec esp
00003E0F  49                dec ecx
00003E10  42                inc edx
00003E11  43                inc ebx
00003E12  58                pop eax
00003E13  58                pop eax
00003E14  5F                pop edi
00003E15  332E              xor ebp,[esi]
00003E17  3400              xor al,0x0
00003E19  5F                pop edi
00003E1A  5A                pop edx
00003E1B  4E                dec esi
00003E1C  53                push ebx
00003E1D  7436              jz 0x3e55
00003E1F  7665              jna 0x3e86
00003E21  63746F72          arpl [edi+ebp*2+0x72],si
00003E25  49                dec ecx
00003E26  69536149694545    imul edx,[ebx+0x61],dword 0x45456949
00003E2D  44                inc esp
00003E2E  324576            xor al,[ebp+0x76]
00003E31  005F5F            add [edi+0x5f],bl
00003E34  627373            bound esi,[ebx+0x73]
00003E37  5F                pop edi
00003E38  7374              jnc 0x3eae
00003E3A  61                popa
00003E3B  7274              jc 0x3eb1
00003E3D  005F5A            add [edi+0x5a],bl
00003E40  4E                dec esi
00003E41  53                push ebx
00003E42  61                popa
00003E43  49                dec ecx
00003E44  6945433245524B    imul eax,[ebp+0x43],dword 0x4b524532
00003E4B  53                push ebx
00003E4C  5F                pop edi
00003E4D  005F5A            add [edi+0x5a],bl
00003E50  4E                dec esi
00003E51  53                push ebx
00003E52  69727345526940    imul esi,[edx+0x73],dword 0x40695245
00003E59  40                inc eax
00003E5A  47                inc edi
00003E5B  4C                dec esp
00003E5C  49                dec ecx
00003E5D  42                inc edx
00003E5E  43                inc ebx
00003E5F  58                pop eax
00003E60  58                pop eax
00003E61  5F                pop edi
00003E62  332E              xor ebp,[esi]
00003E64  3400              xor al,0x0
00003E66  5F                pop edi
00003E67  5A                pop edx
00003E68  53                push ebx
00003E69  7433              jz 0x3e9e
00003E6B  6D                insd
00003E6C  696E496945524B    imul ebp,[esi+0x49],dword 0x4b524569
00003E73  54                push esp
00003E74  5F                pop edi
00003E75  53                push ebx
00003E76  325F53            xor bl,[edi+0x53]
00003E79  325F00            xor bl,[edi+0x0]
00003E7C  5F                pop edi
00003E7D  5A                pop edx
00003E7E  4E                dec esi
00003E7F  395F5F            cmp [edi+0x5f],ebx
00003E82  676E              a16 outsb
00003E84  755F              jnz 0x3ee5
00003E86  637878            arpl [eax+0x78],di
00003E89  3133              xor [ebx],esi
00003E8B  6E                outsb
00003E8C  65775F            gs ja 0x3eee
00003E8F  61                popa
00003E90  6C                insb
00003E91  6C                insb
00003E92  6F                outsd
00003E93  636174            arpl [ecx+0x74],sp
00003E96  6F                outsd
00003E97  7249              jc 0x3ee2
00003E99  694538616C6C6F    imul eax,[ebp+0x38],dword 0x6f6c6c61
00003EA0  636174            arpl [ecx+0x74],sp
00003EA3  6545              gs inc ebp
00003EA5  6A50              push byte +0x50
00003EA7  4B                dec ebx
00003EA8  7600              jna 0x3eaa
00003EAA  5F                pop edi
00003EAB  5A                pop edx
00003EAC  4E                dec esi
00003EAD  53                push ebx
00003EAE  7431              jz 0x3ee1
00003EB0  3462              xor al,0x62
00003EB2  61                popa
00003EB3  7369              jnc 0x3f1e
00003EB5  635F69            arpl [edi+0x69],bx
00003EB8  667374            o16 jnc 0x3f2f
00003EBB  7265              jc 0x3f22
00003EBD  61                popa
00003EBE  6D                insd
00003EBF  49                dec ecx
00003EC0  635374            arpl [ebx+0x74],dx
00003EC3  3131              xor [ecx],esi
00003EC5  636861            arpl [eax+0x61],bp
00003EC8  725F              jc 0x3f29
00003ECA  7472              jz 0x3f3e
00003ECC  61                popa
00003ECD  6974734963454543  imul esi,[ebx+esi*2+0x49],dword 0x43454563
00003ED5  314550            xor [ebp+0x50],eax
00003ED8  4B                dec ebx
00003ED9  635374            arpl [ebx+0x74],dx
00003EDC  3133              xor [ebx],esi
00003EDE  5F                pop edi
00003EDF  49                dec ecx
00003EE0  6F                outsd
00003EE1  735F              jnc 0x3f42
00003EE3  4F                dec edi
00003EE4  7065              jo 0x3f4b
00003EE6  6E                outsb
00003EE7  6D                insd
00003EE8  6F                outsd
00003EE9  646540            gs inc eax
00003EEC  40                inc eax
00003EED  47                inc edi
00003EEE  4C                dec esp
00003EEF  49                dec ecx
00003EF0  42                inc edx
00003EF1  43                inc ebx
00003EF2  58                pop eax
00003EF3  58                pop eax
00003EF4  5F                pop edi
00003EF5  332E              xor ebp,[esi]
00003EF7  3400              xor al,0x0
00003EF9  5F                pop edi
00003EFA  656E              gs outsb
00003EFC  64005F5A          add [fs:edi+0x5a],bl
00003F00  4E                dec esi
00003F01  53                push ebx
00003F02  6F                outsd
00003F03  6C                insb
00003F04  7345              jnc 0x3f4b
00003F06  50                push eax
00003F07  46                inc esi
00003F08  52                push edx
00003F09  53                push ebx
00003F0A  6F                outsd
00003F0B  53                push ebx
00003F0C  5F                pop edi
00003F0D  45                inc ebp
00003F0E  40                inc eax
00003F0F  40                inc eax
00003F10  47                inc edi
00003F11  4C                dec esp
00003F12  49                dec ecx
00003F13  42                inc edx
00003F14  43                inc ebx
00003F15  58                pop eax
00003F16  58                pop eax
00003F17  5F                pop edi
00003F18  332E              xor ebp,[esi]
00003F1A  3400              xor al,0x0
00003F1C  5F                pop edi
00003F1D  5A                pop edx
00003F1E  4E                dec esi
00003F1F  53                push ebx
00003F20  7432              jz 0x3f54
00003F22  325F5F            xor bl,[edi+0x5f]
00003F25  756E              jnz 0x3f95
00003F27  696E697469616C    imul ebp,[esi+0x69],dword 0x6c616974
00003F2E  697A65645F6669    imul edi,[edx+0x65],dword 0x69665f64
00003F35  6C                insb
00003F36  6C                insb
00003F37  5F                pop edi
00003F38  6E                outsb
00003F39  49                dec ecx
00003F3A  4C                dec esp
00003F3B  6231              bound esi,[ecx]
00003F3D  45                inc ebp
00003F3E  45                inc ebp
00003F3F  31355F5F756E      xor [0x6e755f5f],esi
00003F45  696E69745F6669    imul ebp,[esi+0x69],dword 0x69665f74
00003F4C  6C                insb
00003F4D  6C                insb
00003F4E  5F                pop edi
00003F4F  6E                outsb
00003F50  49                dec ecx
00003F51  50                push eax
00003F52  696A6945457654    imul ebp,[edx+0x69],dword 0x54764545
00003F59  5F                pop edi
00003F5A  54                push esp
00003F5B  305F52            xor [edi+0x52],bl
00003F5E  4B                dec ebx
00003F5F  54                push esp
00003F60  315F00            xor [edi+0x0],ebx
00003F63  5F                pop edi
00003F64  5A                pop edx
00003F65  4E                dec esi
00003F66  53                push ebx
00003F67  7431              jz 0x3f9a
00003F69  3462              xor al,0x62
00003F6B  61                popa
00003F6C  7369              jnc 0x3fd7
00003F6E  635F6F            arpl [edi+0x6f],bx
00003F71  667374            o16 jnc 0x3fe8
00003F74  7265              jc 0x3fdb
00003F76  61                popa
00003F77  6D                insd
00003F78  49                dec ecx
00003F79  635374            arpl [ebx+0x74],dx
00003F7C  3131              xor [ecx],esi
00003F7E  636861            arpl [eax+0x61],bp
00003F81  725F              jc 0x3fe2
00003F83  7472              jz 0x3ff7
00003F85  61                popa
00003F86  6974734963454543  imul esi,[ebx+esi*2+0x49],dword 0x43454563
00003F8E  314550            xor [ebp+0x50],eax
00003F91  4B                dec ebx
00003F92  635374            arpl [ebx+0x74],dx
00003F95  3133              xor [ebx],esi
00003F97  5F                pop edi
00003F98  49                dec ecx
00003F99  6F                outsd
00003F9A  735F              jnc 0x3ffb
00003F9C  4F                dec edi
00003F9D  7065              jo 0x4004
00003F9F  6E                outsb
00003FA0  6D                insd
00003FA1  6F                outsd
00003FA2  646540            gs inc eax
00003FA5  40                inc eax
00003FA6  47                inc edi
00003FA7  4C                dec esp
00003FA8  49                dec ecx
00003FA9  42                inc edx
00003FAA  43                inc ebx
00003FAB  58                pop eax
00003FAC  58                pop eax
00003FAD  5F                pop edi
00003FAE  332E              xor ebp,[esi]
00003FB0  3400              xor al,0x0
00003FB2  5F                pop edi
00003FB3  5A                pop edx
00003FB4  53                push ebx
00003FB5  7431              jz 0x3fe8
00003FB7  37                aaa
00003FB8  5F                pop edi
00003FB9  5F                pop edi
00003FBA  7468              jz 0x4024
00003FBC  726F              jc 0x402d
00003FBE  775F              ja 0x401f
00003FC0  626164            bound esp,[ecx+0x64]
00003FC3  5F                pop edi
00003FC4  61                popa
00003FC5  6C                insb
00003FC6  6C                insb
00003FC7  6F                outsd
00003FC8  637640            arpl [esi+0x40],si
00003FCB  40                inc eax
00003FCC  47                inc edi
00003FCD  4C                dec esp
00003FCE  49                dec ecx
00003FCF  42                inc edx
00003FD0  43                inc ebx
00003FD1  58                pop eax
00003FD2  58                pop eax
00003FD3  5F                pop edi
00003FD4  332E              xor ebp,[esi]
00003FD6  3400              xor al,0x0
00003FD8  5F                pop edi
00003FD9  5A                pop edx
00003FDA  4E                dec esi
00003FDB  53                push ebx
00003FDC  7436              jz 0x4014
00003FDE  7665              jna 0x4045
00003FE0  63746F72          arpl [edi+ebp*2+0x72],si
00003FE4  49                dec ecx
00003FE5  69536149694545    imul edx,[ebx+0x61],dword 0x45456949
00003FEC  43                inc ebx
00003FED  32456A            xor al,[ebp+0x6a]
00003FF0  52                push edx
00003FF1  4B                dec ebx
00003FF2  69524B53305F00    imul edx,[edx+0x4b],dword 0x5f3053
00003FF9  5F                pop edi
00003FFA  5A                pop edx
00003FFB  53                push ebx
00003FFC  7434              jz 0x4032
00003FFE  656E              gs outsb
00004000  646C              fs insb
00004002  49                dec ecx
00004003  635374            arpl [ebx+0x74],dx
00004006  3131              xor [ecx],esi
00004008  636861            arpl [eax+0x61],bp
0000400B  725F              jc 0x406c
0000400D  7472              jz 0x4081
0000400F  61                popa
00004010  6974734963454552  imul esi,[ebx+esi*2+0x49],dword 0x52454563
00004018  53                push ebx
00004019  7431              jz 0x404c
0000401B  336261            xor esp,[edx+0x61]
0000401E  7369              jnc 0x4089
00004020  635F6F            arpl [edi+0x6f],bx
00004023  7374              jnc 0x4099
00004025  7265              jc 0x408c
00004027  61                popa
00004028  6D                insd
00004029  49                dec ecx
0000402A  54                push esp
0000402B  5F                pop edi
0000402C  54                push esp
0000402D  305F45            xor [edi+0x45],bl
00004030  53                push ebx
00004031  365F              ss pop edi
00004033  40                inc eax
00004034  40                inc eax
00004035  47                inc edi
00004036  4C                dec esp
00004037  49                dec ecx
00004038  42                inc edx
00004039  43                inc ebx
0000403A  58                pop eax
0000403B  58                pop eax
0000403C  5F                pop edi
0000403D  332E              xor ebp,[esi]
0000403F  3400              xor al,0x0
00004041  5F                pop edi
00004042  5A                pop edx
00004043  4E                dec esi
00004044  53                push ebx
00004045  7431              jz 0x4078
00004047  325F56            xor bl,[edi+0x56]
0000404A  6563746F72        arpl [gs:edi+ebp*2+0x72],si
0000404F  5F                pop edi
00004050  626173            bound esp,[ecx+0x73]
00004053  6549              gs dec ecx
00004055  69536149694545    imul edx,[ebx+0x61],dword 0x45456949
0000405C  3132              xor [edx],esi
0000405E  5F                pop edi
0000405F  56                push esi
00004060  6563746F72        arpl [gs:edi+ebp*2+0x72],si
00004065  5F                pop edi
00004066  696D706C443145    imul ebp,[ebp+0x70],dword 0x4531446c
0000406D  7600              jna 0x406f
0000406F  5F                pop edi
00004070  656461            fs popa
00004073  7461              jz 0x40d6
00004075  005F5F            add [edi+0x5f],bl
00004078  677878            a16 js 0x40f3
0000407B  5F                pop edi
0000407C  7065              jo 0x40e3
0000407E  7273              jc 0x40f3
00004080  6F                outsd
00004081  6E                outsb
00004082  61                popa
00004083  6C                insb
00004084  6974795F76304040  imul esi,[ecx+edi*2+0x5f],dword 0x40403076
0000408C  43                inc ebx
0000408D  58                pop eax
0000408E  58                pop eax
0000408F  41                inc ecx
00004090  42                inc edx
00004091  49                dec ecx
00004092  5F                pop edi
00004093  312E              xor [esi],ebp
00004095  3300              xor eax,[eax]
00004097  5F                pop edi
00004098  5A                pop edx
00004099  4E                dec esi
0000409A  53                push ebx
0000409B  61                popa
0000409C  49                dec ecx
0000409D  69454431457600    imul eax,[ebp+0x44],dword 0x764531
000040A4  5F                pop edi
000040A5  5A                pop edx
000040A6  4E                dec esi
000040A7  4B                dec ebx
000040A8  395F5F            cmp [edi+0x5f],ebx
000040AB  676E              a16 outsb
000040AD  755F              jnz 0x410e
000040AF  637878            arpl [eax+0x78],di
000040B2  3133              xor [ebx],esi
000040B4  6E                outsb
000040B5  65775F            gs ja 0x4117
000040B8  61                popa
000040B9  6C                insb
000040BA  6C                insb
000040BB  6F                outsd
000040BC  636174            arpl [ecx+0x74],sp
000040BF  6F                outsd
000040C0  7249              jc 0x410b
000040C2  6945386D61785F    imul eax,[ebp+0x38],dword 0x5f78616d
000040C9  7369              jnc 0x4134
000040CB  7A65              jpe 0x4132
000040CD  45                inc ebp
000040CE  7600              jna 0x40d0
000040D0  5F                pop edi
000040D1  55                push ebp
000040D2  6E                outsb
000040D3  7769              ja 0x413e
000040D5  6E                outsb
000040D6  645F              fs pop edi
000040D8  52                push edx
000040D9  657375            gs jnc 0x4151
000040DC  6D                insd
000040DD  6540              gs inc eax
000040DF  40                inc eax
000040E0  47                inc edi
000040E1  43                inc ebx
000040E2  43                inc ebx
000040E3  5F                pop edi
000040E4  332E              xor ebp,[esi]
000040E6  3000              xor [eax],al
000040E8  5F                pop edi
000040E9  5A                pop edx
000040EA  4E                dec esi
000040EB  53                push ebx
000040EC  7431              jz 0x411f
000040EE  325F56            xor bl,[edi+0x56]
000040F1  6563746F72        arpl [gs:edi+ebp*2+0x72],si
000040F6  5F                pop edi
000040F7  626173            bound esp,[ecx+0x73]
000040FA  6549              gs dec ecx
000040FC  69536149694545    imul edx,[ebx+0x61],dword 0x45456949
00004103  43                inc ebx
00004104  32456A            xor al,[ebp+0x6a]
00004107  52                push edx
00004108  4B                dec ebx
00004109  53                push ebx
0000410A  305F00            xor [edi+0x0],bl
0000410D  5F                pop edi
0000410E  5F                pop edi
0000410F  693638362E67      imul esi,[esi],dword 0x672e3638
00004115  65745F            gs jz 0x4177
00004118  7063              jo 0x417d
0000411A  5F                pop edi
0000411B  7468              jz 0x4185
0000411D  756E              jnz 0x418d
0000411F  6B2E62            imul ebp,[esi],byte +0x62
00004122  7800              js 0x4124
00004124  5F                pop edi
00004125  5A                pop edx
00004126  53                push ebx
00004127  7431              jz 0x415a
00004129  325F5F            xor bl,[edi+0x5f]
0000412C  6E                outsb
0000412D  697465725F626173  imul esi,[ebp+0x72],dword 0x7361625f
00004135  6549              gs dec ecx
00004137  50                push eax
00004138  69454E53743131    imul eax,[ebp+0x4e],dword 0x31317453
0000413F  5F                pop edi
00004140  4E                dec esi
00004141  697465725F626173  imul esi,[ebp+0x72],dword 0x7361625f
00004149  6549              gs dec ecx
0000414B  54                push esp
0000414C  5F                pop edi
0000414D  45                inc ebp
0000414E  3133              xor [ebx],esi
00004150  6974657261746F72  imul esi,[ebp+0x72],dword 0x726f7461
00004158  5F                pop edi
00004159  7479              jz 0x41d4
0000415B  7065              jo 0x41c2
0000415D  45                inc ebp
0000415E  53                push ebx
0000415F  325F00            xor bl,[edi+0x0]
00004162  6D                insd
00004163  61                popa
00004164  696E005F696E69    imul ebp,[esi+0x0],dword 0x696e695f
0000416B  7400              jz 0x416d
0000416D  5F                pop edi
0000416E  5A                pop edx
0000416F  4E                dec esi
00004170  395F5F            cmp [edi+0x5f],ebx
00004173  676E              a16 outsb
00004175  755F              jnz 0x41d6
00004177  637878            arpl [eax+0x78],di
0000417A  3133              xor [ebx],esi
0000417C  6E                outsb
0000417D  65775F            gs ja 0x41df
00004180  61                popa
00004181  6C                insb
00004182  6C                insb
00004183  6F                outsd
00004184  636174            arpl [ecx+0x74],sp
00004187  6F                outsd
00004188  7249              jc 0x41d3
0000418A  69454332457600    imul eax,[ebp+0x43],dword 0x764532
00004191  5F                pop edi
00004192  5A                pop edx
00004193  4E                dec esi
00004194  53                push ebx
00004195  7436              jz 0x41cd
00004197  7665              jna 0x41fe
00004199  63746F72          arpl [edi+ebp*2+0x72],si
0000419D  49                dec ecx
0000419E  69536149694545    imul edx,[ebx+0x61],dword 0x45456949
000041A5  3138              xor [eax],edi
000041A7  5F                pop edi
000041A8  4D                dec ebp
000041A9  5F                pop edi
000041AA  66696C6C5F696E    imul bp,[esp+ebp*2+0x5f],word 0x6e69
000041B1  697469616C697A65  imul esi,[ecx+ebp*2+0x61],dword 0x657a696c
000041B9  45                inc ebp
000041BA  6A52              push byte +0x52
000041BC  4B                dec ebx
000041BD  69                db 0x69
000041BE  00                db 0x00
