00000000  7F45              jg 0x47
00000002  4C                dec esp
00000003  46                inc esi
00000004  0101              add [ecx],eax
00000006  0100              add [eax],eax
00000008  0000              add [eax],al
0000000A  0000              add [eax],al
0000000C  0000              add [eax],al
0000000E  0000              add [eax],al
00000010  0200              add al,[eax]
00000012  0300              add eax,[eax]
00000014  0100              add [eax],eax
00000016  0000              add [eax],al
00000018  308804083400      xor [eax+0x340804],cl
0000001E  0000              add [eax],al
00000020  A82A              test al,0x2a
00000022  0000              add [eax],al
00000024  0000              add [eax],al
00000026  0000              add [eax],al
00000028  3400              xor al,0x0
0000002A  2000              and [eax],al
0000002C  0800              or [eax],al
0000002E  2800              sub [eax],al
00000030  260023            add [es:ebx],ah
00000033  0006              add [esi],al
00000035  0000              add [eax],al
00000037  003400            add [eax+eax],dh
0000003A  0000              add [eax],al
0000003C  3480              xor al,0x80
0000003E  0408              add al,0x8
00000040  3480              xor al,0x80
00000042  0408              add al,0x8
00000044  0001              add [ecx],al
00000046  0000              add [eax],al
00000048  0001              add [ecx],al
0000004A  0000              add [eax],al
0000004C  0500000004        add eax,0x4000000
00000051  0000              add [eax],al
00000053  0003              add [ebx],al
00000055  0000              add [eax],al
00000057  003401            add [ecx+eax],dh
0000005A  0000              add [eax],al
0000005C  3481              xor al,0x81
0000005E  0408              add al,0x8
00000060  3481              xor al,0x81
00000062  0408              add al,0x8
00000064  1300              adc eax,[eax]
00000066  0000              add [eax],al
00000068  1300              adc eax,[eax]
0000006A  0000              add [eax],al
0000006C  0400              add al,0x0
0000006E  0000              add [eax],al
00000070  0100              add [eax],eax
00000072  0000              add [eax],al
00000074  0100              add [eax],eax
00000076  0000              add [eax],al
00000078  0000              add [eax],al
0000007A  0000              add [eax],al
0000007C  008004080080      add [eax+0x80000804],al
00000082  0408              add al,0x8
00000084  FC                cld
00000085  2000              and [eax],al
00000087  00FC              add ah,bh
00000089  2000              and [eax],al
0000008B  000500000000      add [0x0],al
00000091  1000              adc [eax],al
00000093  0001              add [ecx],al
00000095  0000              add [eax],al
00000097  00FC              add ah,bh
00000099  2000              and [eax],al
0000009B  00FC              add ah,bh
0000009D  B004              mov al,0x4
0000009F  08FC              or ah,bh
000000A1  B004              mov al,0x4
000000A3  085801            or [eax+0x1],bl
000000A6  0000              add [eax],al
000000A8  0002              add [edx],al
000000AA  0000              add [eax],al
000000AC  06                push es
000000AD  0000              add [eax],al
000000AF  0000              add [eax],al
000000B1  1000              adc [eax],al
000000B3  0002              add [edx],al
000000B5  0000              add [eax],al
000000B7  001421            add [ecx],dl
000000BA  0000              add [eax],al
000000BC  14B1              adc al,0xb1
000000BE  0408              add al,0x8
000000C0  14B1              adc al,0xb1
000000C2  0408              add al,0x8
000000C4  E000              loopne 0xc6
000000C6  0000              add [eax],al
000000C8  E000              loopne 0xca
000000CA  0000              add [eax],al
000000CC  06                push es
000000CD  0000              add [eax],al
000000CF  000400            add [eax+eax],al
000000D2  0000              add [eax],al
000000D4  0400              add al,0x0
000000D6  0000              add [eax],al
000000D8  48                dec eax
000000D9  0100              add [eax],eax
000000DB  004881            add [eax-0x7f],cl
000000DE  0408              add al,0x8
000000E0  48                dec eax
000000E1  81040820000000    add dword [eax+ecx],0x20
000000E8  2000              and [eax],al
000000EA  0000              add [eax],al
000000EC  0400              add al,0x0
000000EE  0000              add [eax],al
000000F0  0400              add al,0x0
000000F2  0000              add [eax],al
000000F4  50                push eax
000000F5  E574              in eax,0x74
000000F7  64C01600          rcl byte [fs:esi],0x0
000000FB  00C0              add al,al
000000FD  96                xchg eax,esi
000000FE  0408              add al,0x8
00000100  C0960408E40100    rcl byte [esi+0x1e40804],0x0
00000107  00E4              add ah,ah
00000109  0100              add [eax],eax
0000010B  000400            add [eax+eax],al
0000010E  0000              add [eax],al
00000110  0400              add al,0x0
00000112  0000              add [eax],al
00000114  51                push ecx
00000115  E574              in eax,0x74
00000117  640000            add [fs:eax],al
0000011A  0000              add [eax],al
0000011C  0000              add [eax],al
0000011E  0000              add [eax],al
00000120  0000              add [eax],al
00000122  0000              add [eax],al
00000124  0000              add [eax],al
00000126  0000              add [eax],al
00000128  0000              add [eax],al
0000012A  0000              add [eax],al
0000012C  06                push es
0000012D  0000              add [eax],al
0000012F  000400            add [eax+eax],al
00000132  0000              add [eax],al
00000134  2F                das
00000135  6C                insb
00000136  69622F6C642D6C    imul esp,[edx+0x2f],dword 0x6c2d646c
0000013D  696E75782E736F    imul ebp,[esi+0x75],dword 0x6f732e78
00000144  2E3200            xor al,[cs:eax]
00000147  000400            add [eax+eax],al
0000014A  0000              add [eax],al
0000014C  1000              adc [eax],al
0000014E  0000              add [eax],al
00000150  0100              add [eax],eax
00000152  0000              add [eax],al
00000154  47                inc edi
00000155  4E                dec esi
00000156  55                push ebp
00000157  0000              add [eax],al
00000159  0000              add [eax],al
0000015B  0002              add [edx],al
0000015D  0000              add [eax],al
0000015F  0000              add [eax],al
00000161  0000              add [eax],al
00000163  0000              add [eax],al
00000165  0000              add [eax],al
00000167  0011              add [ecx],dl
00000169  0000              add [eax],al
0000016B  0018              add [eax],bl
0000016D  0000              add [eax],al
0000016F  0010              add [eax],dl
00000171  0000              add [eax],al
00000173  0013              add [ebx],dl
00000175  0000              add [eax],al
00000177  0000              add [eax],al
00000179  0000              add [eax],al
0000017B  001400            add [eax+eax],dl
0000017E  0000              add [eax],al
00000180  16                push ss
00000181  0000              add [eax],al
00000183  0000              add [eax],al
00000185  0000              add [eax],al
00000187  0017              add [edi],dl
00000189  0000              add [eax],al
0000018B  001500000012      add [0x12000000],dl
00000191  0000              add [eax],al
00000193  0002              add [edx],al
00000195  0000              add [eax],al
00000197  000F              add [edi],cl
00000199  0000              add [eax],al
0000019B  0000              add [eax],al
0000019D  0000              add [eax],al
0000019F  000C00            add [eax+eax],cl
000001A2  0000              add [eax],al
000001A4  0D00000003        or eax,0x3000000
000001A9  0000              add [eax],al
000001AB  000500000000      add [0x0],al
000001B1  0000              add [eax],al
000001B3  0000              add [eax],al
000001B5  0000              add [eax],al
000001B7  0000              add [eax],al
000001B9  0000              add [eax],al
000001BB  0000              add [eax],al
000001BD  0000              add [eax],al
000001BF  0000              add [eax],al
000001C1  0000              add [eax],al
000001C3  0001              add [ecx],al
000001C5  0000              add [eax],al
000001C7  0000              add [eax],al
000001C9  0000              add [eax],al
000001CB  0000              add [eax],al
000001CD  0000              add [eax],al
000001CF  0000              add [eax],al
000001D1  0000              add [eax],al
000001D3  0006              add [esi],al
000001D5  0000              add [eax],al
000001D7  0000              add [eax],al
000001D9  0000              add [eax],al
000001DB  0007              add [edi],al
000001DD  0000              add [eax],al
000001DF  0000              add [eax],al
000001E1  0000              add [eax],al
000001E3  0009              add [ecx],cl
000001E5  0000              add [eax],al
000001E7  000B              add [ebx],cl
000001E9  0000              add [eax],al
000001EB  0008              add [eax],cl
000001ED  0000              add [eax],al
000001EF  0000              add [eax],al
000001F1  0000              add [eax],al
000001F3  0000              add [eax],al
000001F5  0000              add [eax],al
000001F7  0000              add [eax],al
000001F9  0000              add [eax],al
000001FB  0011              add [ecx],dl
000001FD  0000              add [eax],al
000001FF  0000              add [eax],al
00000201  0000              add [eax],al
00000203  000E              add [esi],cl
00000205  0000              add [eax],al
00000207  000A              add [edx],cl
00000209  0000              add [eax],al
0000020B  000400            add [eax+eax],al
0000020E  0000              add [eax],al
00000210  0000              add [eax],al
00000212  0000              add [eax],al
00000214  0000              add [eax],al
00000216  0000              add [eax],al
00000218  0000              add [eax],al
0000021A  0000              add [eax],al
0000021C  0000              add [eax],al
0000021E  0000              add [eax],al
00000220  0000              add [eax],al
00000222  0000              add [eax],al
00000224  A5                movsd
00000225  0000              add [eax],al
00000227  0060B2            add [eax-0x4e],ah
0000022A  0408              add al,0x8
0000022C  90                nop
0000022D  0000              add [eax],al
0000022F  0011              add [ecx],dl
00000231  0019              add [ecx],bl
00000233  00FF              add bh,bh
00000235  0000              add [eax],al
00000237  0000              add [eax],al
00000239  0000              add [eax],al
0000023B  0000              add [eax],al
0000023D  0000              add [eax],al
0000023F  0012              add [edx],dl
00000241  0000              add [eax],al
00000243  007D01            add [ebp+0x1],bh
00000246  0000              add [eax],al
00000248  0000              add [eax],al
0000024A  0000              add [eax],al
0000024C  0000              add [eax],al
0000024E  0000              add [eax],al
00000250  1200              adc al,[eax]
00000252  0000              add [eax],al
00000254  8A01              mov al,[ecx]
00000256  0000              add [eax],al
00000258  0000              add [eax],al
0000025A  0000              add [eax],al
0000025C  0000              add [eax],al
0000025E  0000              add [eax],al
00000260  1200              adc al,[eax]
00000262  0000              add [eax],al
00000264  61                popa
00000265  0000              add [eax],al
00000267  0000              add [eax],al
00000269  0000              add [eax],al
0000026B  0000              add [eax],al
0000026D  0000              add [eax],al
0000026F  0020              add [eax],ah
00000271  0000              add [eax],al
00000273  00C6              add dh,al
00000275  0000              add [eax],al
00000277  0000              add [eax],al
00000279  0000              add [eax],al
0000027B  0000              add [eax],al
0000027D  0000              add [eax],al
0000027F  0020              add [eax],ah
00000281  0000              add [eax],al
00000283  0010              add [eax],dl
00000285  0000              add [eax],al
00000287  0000              add [eax],al
00000289  0000              add [eax],al
0000028B  0000              add [eax],al
0000028D  0000              add [eax],al
0000028F  0012              add [edx],dl
00000291  0000              add [eax],al
00000293  009700000000      add [edi+0x0],dl
00000299  0000              add [eax],al
0000029B  0000              add [eax],al
0000029D  0000              add [eax],al
0000029F  0012              add [edx],dl
000002A1  0000              add [eax],al
000002A3  00AE00000000      add [esi+0x0],ch
000002A9  0000              add [eax],al
000002AB  0000              add [eax],al
000002AD  0000              add [eax],al
000002AF  0012              add [edx],dl
000002B1  0000              add [eax],al
000002B3  009A01000000      add [edx+0x1],bl
000002B9  0000              add [eax],al
000002BB  0000              add [eax],al
000002BD  0000              add [eax],al
000002BF  0012              add [edx],dl
000002C1  0000              add [eax],al
000002C3  004300            add [ebx+0x0],al
000002C6  0000              add [eax],al
000002C8  90                nop
000002C9  870408            xchg eax,[eax+ecx]
000002CC  0000              add [eax],al
000002CE  0000              add [eax],al
000002D0  1200              adc al,[eax]
000002D2  0000              add [eax],al
000002D4  17                pop ss
000002D5  0000              add [eax],al
000002D7  0000              add [eax],al
000002D9  0000              add [eax],al
000002DB  0000              add [eax],al
000002DD  0000              add [eax],al
000002DF  0020              add [eax],ah
000002E1  0000              add [eax],al
000002E3  006701            add [edi+0x1],ah
000002E6  0000              add [eax],al
000002E8  98                cwde
000002E9  96                xchg eax,esi
000002EA  0408              add al,0x8
000002EC  0400              add al,0x0
000002EE  0000              add [eax],al
000002F0  1100              adc [eax],eax
000002F2  0E                push cs
000002F3  00E5              add ch,ah
000002F5  0000              add [eax],al
000002F7  0000              add [eax],al
000002F9  0000              add [eax],al
000002FB  0000              add [eax],al
000002FD  0000              add [eax],al
000002FF  0020              add [eax],ah
00000301  0000              add [eax],al
00000303  007601            add [esi+0x1],dh
00000306  0000              add [eax],al
00000308  0000              add [eax],al
0000030A  0000              add [eax],al
0000030C  0000              add [eax],al
0000030E  0000              add [eax],al
00000310  1200              adc al,[eax]
00000312  0000              add [eax],al
00000314  5B                pop ebx
00000315  0000              add [eax],al
00000317  0000              add [eax],al
00000319  0000              add [eax],al
0000031B  0000              add [eax],al
0000031D  0000              add [eax],al
0000031F  0012              add [edx],dl
00000321  0000              add [eax],al
00000323  00DA              add dl,bl
00000325  0000              add [eax],al
00000327  0000              add [eax],al
00000329  0000              add [eax],al
0000032B  0000              add [eax],al
0000032D  0000              add [eax],al
0000032F  0012              add [edx],dl
00000331  0000              add [eax],al
00000333  009201000000      add [edx+0x1],dl
00000339  0000              add [eax],al
0000033B  0000              add [eax],al
0000033D  0000              add [eax],al
0000033F  0012              add [edx],dl
00000341  0000              add [eax],al
00000343  0033              add [ebx],dh
00000345  0000              add [eax],al
00000347  0000              add [eax],al
00000349  0000              add [eax],al
0000034B  0000              add [eax],al
0000034D  0000              add [eax],al
0000034F  0012              add [edx],dl
00000351  0000              add [eax],al
00000353  001D01000000      add [0x1],bl
00000359  0000              add [eax],al
0000035B  0000              add [eax],al
0000035D  0000              add [eax],al
0000035F  0012              add [edx],dl
00000361  0000              add [eax],al
00000363  008500000000      add [ebp+0x0],al
00000369  0000              add [eax],al
0000036B  0000              add [eax],al
0000036D  0000              add [eax],al
0000036F  0012              add [edx],dl
00000371  0000              add [eax],al
00000373  007000            add [eax+0x0],dh
00000376  0000              add [eax],al
00000378  108804080000      adc [eax+0x804],cl
0000037E  0000              add [eax],al
00000380  1200              adc al,[eax]
00000382  0000              add [eax],al
00000384  4E                dec esi
00000385  0100              add [eax],eax
00000387  0000              add [eax],al
00000389  0000              add [eax],al
0000038B  0000              add [eax],al
0000038D  0000              add [eax],al
0000038F  0012              add [edx],dl
00000391  0000              add [eax],al
00000393  0000              add [eax],al
00000395  6C                insb
00000396  6962737464632B    imul esp,[edx+0x73],dword 0x2b636474
0000039D  2B2E              sub ebp,[esi]
0000039F  736F              jnc 0x410
000003A1  2E36005F5A        add [ss:edi+0x5a],bl
000003A6  646C              fs insb
000003A8  50                push eax
000003A9  7600              jna 0x3ab
000003AB  5F                pop edi
000003AC  49                dec ecx
000003AD  54                push esp
000003AE  4D                dec ebp
000003AF  5F                pop edi
000003B0  64657265          gs jc 0x419
000003B4  676973746572544D  imul esi,[bp+di+0x74],dword 0x4d547265
000003BC  43                inc ebx
000003BD  6C                insb
000003BE  6F                outsd
000003BF  6E                outsb
000003C0  6554              gs push esp
000003C2  61                popa
000003C3  626C6500          bound ebp,[ebp+0x0]
000003C7  5F                pop edi
000003C8  5F                pop edi
000003C9  637861            arpl [eax+0x61],di
000003CC  5F                pop edi
000003CD  656E              gs outsb
000003CF  645F              fs pop edi
000003D1  636174            arpl [ecx+0x74],sp
000003D4  636800            arpl [eax+0x0],bp
000003D7  5F                pop edi
000003D8  5A                pop edx
000003D9  4E                dec esi
000003DA  53                push ebx
000003DB  7438              jz 0x415
000003DD  696F735F626173    imul ebp,[edi+0x73],dword 0x7361625f
000003E4  653449            gs xor al,0x49
000003E7  6E                outsb
000003E8  697444314576005F  imul esi,[esp+eax*2+0x31],dword 0x5f007645
000003F0  5A                pop edx
000003F1  6E                outsb
000003F2  776A              ja 0x45e
000003F4  005F5F            add [edi+0x5f],bl
000003F7  676D              a16 insd
000003F9  6F                outsd
000003FA  6E                outsb
000003FB  5F                pop edi
000003FC  7374              jnc 0x472
000003FE  61                popa
000003FF  7274              jc 0x475
00000401  5F                pop edi
00000402  5F                pop edi
00000403  005F5F            add [edi+0x5f],bl
00000406  677878            a16 js 0x481
00000409  5F                pop edi
0000040A  7065              jo 0x471
0000040C  7273              jc 0x481
0000040E  6F                outsd
0000040F  6E                outsb
00000410  61                popa
00000411  6C                insb
00000412  6974795F7630005F  imul esi,[ecx+edi*2+0x5f],dword 0x5f003076
0000041A  5F                pop edi
0000041B  637861            arpl [eax+0x61],di
0000041E  5F                pop edi
0000041F  626567            bound esp,[ebp+0x67]
00000422  696E5F63617463    imul ebp,[esi+0x5f],dword 0x63746163
00000429  68005F5F63        push dword 0x635f5f00
0000042E  7861              js 0x491
00000430  5F                pop edi
00000431  7265              jc 0x498
00000433  7468              jz 0x49d
00000435  726F              jc 0x4a6
00000437  7700              ja 0x439
00000439  5F                pop edi
0000043A  5A                pop edx
0000043B  53                push ebx
0000043C  7433              jz 0x471
0000043E  63696E            arpl [ecx+0x6e],bp
00000441  005F5A            add [edi+0x5a],bl
00000444  4E                dec esi
00000445  53                push ebx
00000446  7438              jz 0x480
00000448  696F735F626173    imul ebp,[edi+0x73],dword 0x7361625f
0000044F  653449            gs xor al,0x49
00000452  6E                outsb
00000453  697443314576005F  imul esi,[ebx+eax*2+0x31],dword 0x5f007645
0000045B  4A                dec edx
0000045C  765F              jna 0x4bd
0000045E  52                push edx
0000045F  6567697374657243  imul esi,[gs:bp+di+0x74],dword 0x6c437265
         -6C
00000468  61                popa
00000469  7373              jnc 0x4de
0000046B  657300            gs jnc 0x46e
0000046E  5F                pop edi
0000046F  5A                pop edx
00000470  4E                dec esi
00000471  53                push ebx
00000472  69727345526900    imul esi,[edx+0x73],dword 0x695245
00000479  5F                pop edi
0000047A  49                dec ecx
0000047B  54                push esp
0000047C  4D                dec ebp
0000047D  5F                pop edi
0000047E  7265              jc 0x4e5
00000480  676973746572544D  imul esi,[bp+di+0x74],dword 0x4d547265
00000488  43                inc ebx
00000489  6C                insb
0000048A  6F                outsd
0000048B  6E                outsb
0000048C  6554              gs push esp
0000048E  61                popa
0000048F  626C6500          bound ebp,[ebp+0x0]
00000493  5F                pop edi
00000494  5A                pop edx
00000495  53                push ebx
00000496  7432              jz 0x4ca
00000498  305F5F            xor [edi+0x5f],bl
0000049B  7468              jz 0x505
0000049D  726F              jc 0x50e
0000049F  775F              ja 0x500
000004A1  6C                insb
000004A2  656E              gs outsb
000004A4  677468            a16 jz 0x50f
000004A7  5F                pop edi
000004A8  657272            gs jc 0x51d
000004AB  6F                outsd
000004AC  7250              jc 0x4fe
000004AE  4B                dec ebx
000004AF  6300              arpl [eax],ax
000004B1  5F                pop edi
000004B2  5A                pop edx
000004B3  53                push ebx
000004B4  7431              jz 0x4e7
000004B6  37                aaa
000004B7  5F                pop edi
000004B8  5F                pop edi
000004B9  7468              jz 0x523
000004BB  726F              jc 0x52c
000004BD  775F              ja 0x51e
000004BF  626164            bound esp,[ecx+0x64]
000004C2  5F                pop edi
000004C3  61                popa
000004C4  6C                insb
000004C5  6C                insb
000004C6  6F                outsd
000004C7  637600            arpl [esi+0x0],si
000004CA  6C                insb
000004CB  69626D2E736F2E    imul esp,[edx+0x6d],dword 0x2e6f732e
000004D2  36006C6962        add [ss:ecx+ebp*2+0x62],ch
000004D7  6763635F          arpl [bp+di+0x5f],sp
000004DB  732E              jnc 0x50b
000004DD  736F              jnc 0x54e
000004DF  2E3100            xor [cs:eax],eax
000004E2  5F                pop edi
000004E3  55                push ebp
000004E4  6E                outsb
000004E5  7769              ja 0x550
000004E7  6E                outsb
000004E8  645F              fs pop edi
000004EA  52                push edx
000004EB  657375            gs jnc 0x563
000004EE  6D                insd
000004EF  65006C6962        add [gs:ecx+ebp*2+0x62],ch
000004F4  632E              arpl [esi],bp
000004F6  736F              jnc 0x567
000004F8  2E36005F49        add [ss:edi+0x49],bl
000004FD  4F                dec edi
000004FE  5F                pop edi
000004FF  7374              jnc 0x575
00000501  64696E5F75736564  imul ebp,[fs:esi+0x5f],dword 0x64657375
00000509  007072            add [eax+0x72],dh
0000050C  696E7466005F5F    imul ebp,[esi+0x74],dword 0x5f5f0066
00000513  637861            arpl [eax+0x61],di
00000516  5F                pop edi
00000517  61                popa
00000518  7465              jz 0x57f
0000051A  7869              js 0x585
0000051C  7400              jz 0x51e
0000051E  67657463          gs a16 jz 0x585
00000522  686172006D        push dword 0x6d007261
00000527  656D              gs insd
00000529  6D                insd
0000052A  6F                outsd
0000052B  7665              jna 0x592
0000052D  005F5F            add [edi+0x5f],bl
00000530  6C                insb
00000531  6962635F737461    imul esp,[edx+0x63],dword 0x6174735f
00000538  7274              jc 0x5ae
0000053A  5F                pop edi
0000053B  6D                insd
0000053C  61                popa
0000053D  696E004743435F    imul ebp,[esi+0x0],dword 0x5f434347
00000544  332E              xor ebp,[esi]
00000546  3000              xor [eax],al
00000548  47                inc edi
00000549  4C                dec esp
0000054A  49                dec ecx
0000054B  42                inc edx
0000054C  43                inc ebx
0000054D  5F                pop edi
0000054E  322E              xor ch,[esi]
00000550  3000              xor [eax],al
00000552  47                inc edi
00000553  4C                dec esp
00000554  49                dec ecx
00000555  42                inc edx
00000556  43                inc ebx
00000557  5F                pop edi
00000558  322E              xor ch,[esi]
0000055A  312E              xor [esi],ebp
0000055C  3300              xor eax,[eax]
0000055E  43                inc ebx
0000055F  58                pop eax
00000560  58                pop eax
00000561  41                inc ecx
00000562  42                inc edx
00000563  49                dec ecx
00000564  5F                pop edi
00000565  312E              xor [esi],ebp
00000567  3300              xor eax,[eax]
00000569  47                inc edi
0000056A  4C                dec esp
0000056B  49                dec ecx
0000056C  42                inc edx
0000056D  43                inc ebx
0000056E  58                pop eax
0000056F  58                pop eax
00000570  5F                pop edi
00000571  332E              xor ebp,[esi]
00000573  3400              xor al,0x0
00000575  0000              add [eax],al
00000577  0002              add [edx],al
00000579  0002              add [edx],al
0000057B  0003              add [ebx],al
0000057D  000400            add [eax+eax],al
00000580  0000              add [eax],al
00000582  0000              add [eax],al
00000584  0200              add al,[eax]
00000586  0500020004        add eax,0x4000200
0000058B  0002              add [edx],al
0000058D  0000              add [eax],al
0000058F  0001              add [ecx],al
00000591  0000              add [eax],al
00000593  000400            add [eax+eax],al
00000596  0200              add al,[eax]
00000598  0200              add al,[eax]
0000059A  0400              add al,0x0
0000059C  0500020005        add eax,0x5000200
000005A1  000500060000      add [0x600],al
000005A7  0001              add [ecx],al
000005A9  0001              add [ecx],al
000005AB  004001            add [eax+0x1],al
000005AE  0000              add [eax],al
000005B0  1000              adc [eax],al
000005B2  0000              add [eax],al
000005B4  2000              and [eax],al
000005B6  0000              add [eax],al
000005B8  50                push eax
000005B9  26790B            es jns 0x5c7
000005BC  0000              add [eax],al
000005BE  06                push es
000005BF  00AC0100000000    add [ecx+eax+0x0],ch
000005C6  0000              add [eax],al
000005C8  0100              add [eax],eax
000005CA  0200              add al,[eax]
000005CC  5D                pop ebp
000005CD  0100              add [eax],eax
000005CF  0010              add [eax],dl
000005D1  0000              add [eax],al
000005D3  0030              add [eax],dh
000005D5  0000              add [eax],al
000005D7  0010              add [eax],dl
000005D9  69690D00000400    imul ebp,[ecx+0xd],dword 0x40000
000005E0  B401              mov ah,0x1
000005E2  0000              add [eax],al
000005E4  1000              adc [eax],al
000005E6  0000              add [eax],al
000005E8  731F              jnc 0x609
000005EA  690900000300      imul ecx,[ecx],dword 0x30000
000005F0  BE01000000        mov esi,0x1
000005F5  0000              add [eax],al
000005F7  0001              add [ecx],al
000005F9  0002              add [edx],al
000005FB  0001              add [ecx],al
000005FD  0000              add [eax],al
000005FF  0010              add [eax],dl
00000601  0000              add [eax],al
00000603  0000              add [eax],al
00000605  0000              add [eax],al
00000607  00D3              add bl,dl
00000609  AF                scasd
0000060A  6B0500000500CA    imul eax,[0x50000],byte -0x36
00000611  0100              add [eax],eax
00000613  0010              add [eax],dl
00000615  0000              add [eax],al
00000617  00742992          add [ecx+ebp-0x6e],dh
0000061B  0800              or [eax],al
0000061D  0002              add [edx],al
0000061F  00D5              add ch,dl
00000621  0100              add [eax],eax
00000623  0000              add [eax],al
00000625  0000              add [eax],al
00000627  00F4              add ah,dh
00000629  B104              mov cl,0x4
0000062B  0806              or [esi],al
0000062D  05000060B2        add eax,0xb2600000
00000632  0408              add al,0x8
00000634  0501000004        add eax,0x4000001
00000639  B204              mov dl,0x4
0000063B  0807              or [edi],al
0000063D  0200              add al,[eax]
0000063F  0008              add [eax],cl
00000641  B204              mov dl,0x4
00000643  0807              or [edi],al
00000645  0300              add eax,[eax]
00000647  000CB2            add [edx+esi*4],cl
0000064A  0408              add al,0x8
0000064C  07                pop es
0000064D  0400              add al,0x0
0000064F  0010              add [eax],dl
00000651  B204              mov dl,0x4
00000653  0807              or [edi],al
00000655  05000014B2        add eax,0xb2140000
0000065A  0408              add al,0x8
0000065C  07                pop es
0000065D  07                pop es
0000065E  0000              add [eax],al
00000660  18B204080708      sbb [edx+0x8070804],dh
00000666  0000              add [eax],al
00000668  1CB2              sbb al,0xb2
0000066A  0408              add al,0x8
0000066C  07                pop es
0000066D  0900              or [eax],eax
0000066F  0020              add [eax],ah
00000671  B204              mov dl,0x4
00000673  0807              or [edi],al
00000675  0A00              or al,[eax]
00000677  0024B2            add [edx+esi*4],ah
0000067A  0408              add al,0x8
0000067C  07                pop es
0000067D  0B00              or eax,[eax]
0000067F  0028              add [eax],ch
00000681  B204              mov dl,0x4
00000683  0807              or [edi],al
00000685  0F0000            sldt [eax]
00000688  2CB2              sub al,0xb2
0000068A  0408              add al,0x8
0000068C  07                pop es
0000068D  1000              adc [eax],al
0000068F  0030              add [eax],dh
00000691  B204              mov dl,0x4
00000693  0807              or [edi],al
00000695  1100              adc [eax],eax
00000697  0034B2            add [edx+esi*4],dh
0000069A  0408              add al,0x8
0000069C  07                pop es
0000069D  1200              adc al,[eax]
0000069F  0038              add [eax],bh
000006A1  B204              mov dl,0x4
000006A3  0807              or [edi],al
000006A5  1300              adc eax,[eax]
000006A7  003CB2            add [edx+esi*4],bh
000006AA  0408              add al,0x8
000006AC  07                pop es
000006AD  1400              adc al,0x0
000006AF  0040B2            add [eax-0x4e],al
000006B2  0408              add al,0x8
000006B4  07                pop es
000006B5  15000044B2        adc eax,0xb2440000
000006BA  0408              add al,0x8
000006BC  07                pop es
000006BD  16                push ss
000006BE  0000              add [eax],al
000006C0  48                dec eax
000006C1  B204              mov dl,0x4
000006C3  0807              or [edi],al
000006C5  17                pop ss
000006C6  0000              add [eax],al
000006C8  55                push ebp
000006C9  89E5              mov ebp,esp
000006CB  53                push ebx
000006CC  83EC04            sub esp,byte +0x4
000006CF  E800000000        call 0x6d4
000006D4  5B                pop ebx
000006D5  81C3242B0000      add ebx,0x2b24
000006DB  8B93FCFFFFFF      mov edx,[ebx+0xfffffffc]
000006E1  85D2              test edx,edx
000006E3  7405              jz 0x6ea
000006E5  E856000000        call 0x740
000006EA  E831020000        call 0x920
000006EF  E85C0F0000        call 0x1650
000006F4  58                pop eax
000006F5  5B                pop ebx
000006F6  C9                leave
000006F7  C3                ret
000006F8  0000              add [eax],al
000006FA  0000              add [eax],al
000006FC  0000              add [eax],al
000006FE  0000              add [eax],al
00000700  FF35FCB10408      push dword [0x804b1fc]
00000706  FF2500B20408      jmp near [0x804b200]
0000070C  0000              add [eax],al
0000070E  0000              add [eax],al
00000710  FF2504B20408      jmp near [0x804b204]
00000716  6800000000        push dword 0x0
0000071B  E9E0FFFFFF        jmp 0x100000700
00000720  FF2508B20408      jmp near [0x804b208]
00000726  6808000000        push dword 0x8
0000072B  E9D0FFFFFF        jmp 0x100000700
00000730  FF250CB20408      jmp near [0x804b20c]
00000736  6810000000        push dword 0x10
0000073B  E9C0FFFFFF        jmp 0x100000700
00000740  FF2510B20408      jmp near [0x804b210]
00000746  6818000000        push dword 0x18
0000074B  E9B0FFFFFF        jmp 0x100000700
00000750  FF2514B20408      jmp near [0x804b214]
00000756  6820000000        push dword 0x20
0000075B  E9A0FFFFFF        jmp 0x100000700
00000760  FF2518B20408      jmp near [0x804b218]
00000766  6828000000        push dword 0x28
0000076B  E990FFFFFF        jmp 0x100000700
00000770  FF251CB20408      jmp near [0x804b21c]
00000776  6830000000        push dword 0x30
0000077B  E980FFFFFF        jmp 0x100000700
00000780  FF2520B20408      jmp near [0x804b220]
00000786  6838000000        push dword 0x38
0000078B  E970FFFFFF        jmp 0x100000700
00000790  FF2524B20408      jmp near [0x804b224]
00000796  6840000000        push dword 0x40
0000079B  E960FFFFFF        jmp 0x100000700
000007A0  FF2528B20408      jmp near [0x804b228]
000007A6  6848000000        push dword 0x48
000007AB  E950FFFFFF        jmp 0x100000700
000007B0  FF252CB20408      jmp near [0x804b22c]
000007B6  6850000000        push dword 0x50
000007BB  E940FFFFFF        jmp 0x100000700
000007C0  FF2530B20408      jmp near [0x804b230]
000007C6  6858000000        push dword 0x58
000007CB  E930FFFFFF        jmp 0x100000700
000007D0  FF2534B20408      jmp near [0x804b234]
000007D6  6860000000        push dword 0x60
000007DB  E920FFFFFF        jmp 0x100000700
000007E0  FF2538B20408      jmp near [0x804b238]
000007E6  6868000000        push dword 0x68
000007EB  E910FFFFFF        jmp 0x100000700
000007F0  FF253CB20408      jmp near [0x804b23c]
000007F6  6870000000        push dword 0x70
000007FB  E900FFFFFF        jmp 0x100000700
00000800  FF2540B20408      jmp near [0x804b240]
00000806  6878000000        push dword 0x78
0000080B  E9F0FEFFFF        jmp 0x100000700
00000810  FF2544B20408      jmp near [0x804b244]
00000816  6880000000        push dword 0x80
0000081B  E9E0FEFFFF        jmp 0x100000700
00000820  FF2548B20408      jmp near [0x804b248]
00000826  6888000000        push dword 0x88
0000082B  E9D0FEFFFF        jmp 0x100000700
00000830  31ED              xor ebp,ebp
00000832  5E                pop esi
00000833  89E1              mov ecx,esp
00000835  83E4F0            and esp,byte -0x10
00000838  50                push eax
00000839  54                push esp
0000083A  52                push edx
0000083B  68E0950408        push dword 0x80495e0
00000840  68F0950408        push dword 0x80495f0
00000845  51                push ecx
00000846  56                push esi
00000847  68AF890408        push dword 0x80489af
0000084C  E82FFFFFFF        call 0x100000780
00000851  F4                hlt
00000852  90                nop
00000853  90                nop
00000854  6690              o16 nop
00000856  6690              o16 nop
00000858  6690              o16 nop
0000085A  6690              o16 nop
0000085C  6690              o16 nop
0000085E  6690              o16 nop
00000860  B857B20408        mov eax,0x804b257
00000865  2D54B20408        sub eax,0x804b254
0000086A  83F806            cmp eax,byte +0x6
0000086D  7701              ja 0x870
0000086F  C3                ret
00000870  B800000000        mov eax,0x0
00000875  85C0              test eax,eax
00000877  74F6              jz 0x86f
00000879  55                push ebp
0000087A  89E5              mov ebp,esp
0000087C  83EC18            sub esp,byte +0x18
0000087F  C7042454B20408    mov dword [esp],0x804b254
00000886  FFD0              call eax
00000888  C9                leave
00000889  C3                ret
0000088A  8DB600000000      lea esi,[esi+0x0]
00000890  B854B20408        mov eax,0x804b254
00000895  2D54B20408        sub eax,0x804b254
0000089A  C1F802            sar eax,0x2
0000089D  89C2              mov edx,eax
0000089F  C1EA1F            shr edx,0x1f
000008A2  01D0              add eax,edx
000008A4  D1F8              sar eax,1
000008A6  7501              jnz 0x8a9
000008A8  C3                ret
000008A9  BA00000000        mov edx,0x0
000008AE  85D2              test edx,edx
000008B0  74F6              jz 0x8a8
000008B2  55                push ebp
000008B3  89E5              mov ebp,esp
000008B5  83EC18            sub esp,byte +0x18
000008B8  89442404          mov [esp+0x4],eax
000008BC  C7042454B20408    mov dword [esp],0x804b254
000008C3  FFD2              call edx
000008C5  C9                leave
000008C6  C3                ret
000008C7  89F6              mov esi,esi
000008C9  8DBC2700000000    lea edi,[edi+0x0]
000008D0  803DF0B2040800    cmp byte [0x804b2f0],0x0
000008D7  7544              jnz 0x91d
000008D9  55                push ebp
000008DA  89E5              mov ebp,esp
000008DC  53                push ebx
000008DD  BB0CB10408        mov ebx,0x804b10c
000008E2  52                push edx
000008E3  81EB08B10408      sub ebx,0x804b108
000008E9  A1F4B20408        mov eax,[0x804b2f4]
000008EE  C1FB02            sar ebx,0x2
000008F1  4B                dec ebx
000008F2  39D8              cmp eax,ebx
000008F4  7318              jnc 0x90e
000008F6  6690              o16 nop
000008F8  40                inc eax
000008F9  A3F4B20408        mov [0x804b2f4],eax
000008FE  FF148508B10408    call near [eax*4+0x804b108]
00000905  A1F4B20408        mov eax,[0x804b2f4]
0000090A  39D8              cmp eax,ebx
0000090C  72EA              jc 0x8f8
0000090E  E84DFFFFFF        call 0x100000860
00000913  C605F0B2040801    mov byte [0x804b2f0],0x1
0000091A  58                pop eax
0000091B  5B                pop ebx
0000091C  5D                pop ebp
0000091D  C3                ret
0000091E  6690              o16 nop
00000920  8B0D10B10408      mov ecx,[0x804b110]
00000926  85C9              test ecx,ecx
00000928  741E              jz 0x948
0000092A  B800000000        mov eax,0x0
0000092F  85C0              test eax,eax
00000931  7415              jz 0x948
00000933  55                push ebp
00000934  89E5              mov ebp,esp
00000936  83EC18            sub esp,byte +0x18
00000939  C7042410B10408    mov dword [esp],0x804b110
00000940  FFD0              call eax
00000942  C9                leave
00000943  E948FFFFFF        jmp 0x100000890
00000948  E943FFFFFF        jmp 0x100000890
0000094D  6690              o16 nop
0000094F  90                nop
00000950  55                push ebp
00000951  89E5              mov ebp,esp
00000953  83EC18            sub esp,byte +0x18
00000956  C745F000000000    mov dword [ebp-0x10],0x0
0000095D  90                nop
0000095E  E8CDFDFFFF        call 0x100000730
00000963  8845F7            mov [ebp-0x9],al
00000966  0FBE45F7          movsx eax,byte [ebp-0x9]
0000096A  83E830            sub eax,byte +0x30
0000096D  83F809            cmp eax,byte +0x9
00000970  0F97C0            seta al
00000973  84C0              test al,al
00000975  75E7              jnz 0x95e
00000977  8B55F0            mov edx,[ebp-0x10]
0000097A  89D0              mov eax,edx
0000097C  C1E002            shl eax,0x2
0000097F  01D0              add eax,edx
00000981  01C0              add eax,eax
00000983  89C2              mov edx,eax
00000985  0FBE45F7          movsx eax,byte [ebp-0x9]
00000989  01D0              add eax,edx
0000098B  83E830            sub eax,byte +0x30
0000098E  8945F0            mov [ebp-0x10],eax
00000991  E89AFDFFFF        call 0x100000730
00000996  8845F7            mov [ebp-0x9],al
00000999  0FBE45F7          movsx eax,byte [ebp-0x9]
0000099D  83E830            sub eax,byte +0x30
000009A0  83F809            cmp eax,byte +0x9
000009A3  0F96C0            setna al
000009A6  84C0              test al,al
000009A8  75CD              jnz 0x977
000009AA  8B45F0            mov eax,[ebp-0x10]
000009AD  C9                leave
000009AE  C3                ret
000009AF  55                push ebp
000009B0  89E5              mov ebp,esp
000009B2  53                push ebx
000009B3  83E4F0            and esp,byte -0x10
000009B6  83EC40            sub esp,byte +0x40
000009B9  C744242800000000  mov dword [esp+0x28],0x0
000009C1  8D442428          lea eax,[esp+0x28]
000009C5  89442404          mov [esp+0x4],eax
000009C9  C7042460B20408    mov dword [esp],0x804b260
000009D0  E8EBFDFFFF        call 0x1000007c0
000009D5  C744243C00000000  mov dword [esp+0x3c],0x0
000009DD  E954010000        jmp 0xb36
000009E2  8D442424          lea eax,[esp+0x24]
000009E6  89442404          mov [esp+0x4],eax
000009EA  C7042460B20408    mov dword [esp],0x804b260
000009F1  E8CAFDFFFF        call 0x1000007c0
000009F6  8D542420          lea edx,[esp+0x20]
000009FA  89542404          mov [esp+0x4],edx
000009FE  890424            mov [esp],eax
00000A01  E8BAFDFFFF        call 0x1000007c0
00000A06  8D54241C          lea edx,[esp+0x1c]
00000A0A  89542404          mov [esp+0x4],edx
00000A0E  890424            mov [esp],eax
00000A11  E8AAFDFFFF        call 0x1000007c0
00000A16  8D442410          lea eax,[esp+0x10]
00000A1A  890424            mov [esp],eax
00000A1D  E8B2010000        call 0xbd4
00000A22  C744243800000000  mov dword [esp+0x38],0x0
00000A2A  EB21              jmp short 0xa4d
00000A2C  E81FFFFFFF        call 0x100000950
00000A31  8944242C          mov [esp+0x2c],eax
00000A35  8D44242C          lea eax,[esp+0x2c]
00000A39  89442404          mov [esp+0x4],eax
00000A3D  8D442410          lea eax,[esp+0x10]
00000A41  890424            mov [esp],eax
00000A44  E8F7010000        call 0xc40
00000A49  FF442438          inc dword [esp+0x38]
00000A4D  8B442424          mov eax,[esp+0x24]
00000A51  39442438          cmp [esp+0x38],eax
00000A55  7CD5              jl 0xa2c
00000A57  C744243400000000  mov dword [esp+0x34],0x0
00000A5F  C744243000000000  mov dword [esp+0x30],0x0
00000A67  E98D000000        jmp 0xaf9
00000A6C  8B442430          mov eax,[esp+0x30]
00000A70  89442404          mov [esp+0x4],eax
00000A74  8D442410          lea eax,[esp+0x10]
00000A78  890424            mov [esp],eax
00000A7B  E834020000        call 0xcb4
00000A80  8B08              mov ecx,[eax]
00000A82  8B54241C          mov edx,[esp+0x1c]
00000A86  89D0              mov eax,edx
00000A88  01C0              add eax,eax
00000A8A  01D0              add eax,edx
00000A8C  83E802            sub eax,byte +0x2
00000A8F  39C1              cmp ecx,eax
00000A91  0F9DC0            setnl al
00000A94  84C0              test al,al
00000A96  7406              jz 0xa9e
00000A98  FF442434          inc dword [esp+0x34]
00000A9C  EB57              jmp short 0xaf5
00000A9E  8B54241C          mov edx,[esp+0x1c]
00000AA2  89D0              mov eax,edx
00000AA4  01C0              add eax,eax
00000AA6  01D0              add eax,edx
00000AA8  83E804            sub eax,byte +0x4
00000AAB  85C0              test eax,eax
00000AAD  7833              js 0xae2
00000AAF  8B442430          mov eax,[esp+0x30]
00000AB3  89442404          mov [esp+0x4],eax
00000AB7  8D442410          lea eax,[esp+0x10]
00000ABB  890424            mov [esp],eax
00000ABE  E8F1010000        call 0xcb4
00000AC3  8B08              mov ecx,[eax]
00000AC5  8B54241C          mov edx,[esp+0x1c]
00000AC9  89D0              mov eax,edx
00000ACB  01C0              add eax,eax
00000ACD  01D0              add eax,edx
00000ACF  83E804            sub eax,byte +0x4
00000AD2  39C1              cmp ecx,eax
00000AD4  7C0C              jl 0xae2
00000AD6  8B442420          mov eax,[esp+0x20]
00000ADA  85C0              test eax,eax
00000ADC  7E04              jng 0xae2
00000ADE  B001              mov al,0x1
00000AE0  EB02              jmp short 0xae4
00000AE2  B000              mov al,0x0
00000AE4  84C0              test al,al
00000AE6  740D              jz 0xaf5
00000AE8  FF442434          inc dword [esp+0x34]
00000AEC  8B442420          mov eax,[esp+0x20]
00000AF0  48                dec eax
00000AF1  89442420          mov [esp+0x20],eax
00000AF5  FF442430          inc dword [esp+0x30]
00000AF9  8B442424          mov eax,[esp+0x24]
00000AFD  39442430          cmp [esp+0x30],eax
00000B01  0F8C65FFFFFF      jl near 0x100000a6c
00000B07  8B44243C          mov eax,[esp+0x3c]
00000B0B  8D5001            lea edx,[eax+0x1]
00000B0E  8B442434          mov eax,[esp+0x34]
00000B12  89442408          mov [esp+0x8],eax
00000B16  89542404          mov [esp+0x4],edx
00000B1A  C704249C960408    mov dword [esp],0x804969c
00000B21  E87AFCFFFF        call 0x1000007a0
00000B26  8D442410          lea eax,[esp+0x10]
00000B2A  890424            mov [esp],eax
00000B2D  E8B6000000        call 0xbe8
00000B32  FF44243C          inc dword [esp+0x3c]
00000B36  8B442428          mov eax,[esp+0x28]
00000B3A  3944243C          cmp [esp+0x3c],eax
00000B3E  0F8C9EFEFFFF      jl near 0x1000009e2
00000B44  B800000000        mov eax,0x0
00000B49  EB20              jmp short 0xb6b
00000B4B  89C3              mov ebx,eax
00000B4D  EB02              jmp short 0xb51
00000B4F  89C3              mov ebx,eax
00000B51  8D442410          lea eax,[esp+0x10]
00000B55  890424            mov [esp],eax
00000B58  E88B000000        call 0xbe8
00000B5D  89D8              mov eax,ebx
00000B5F  EB02              jmp short 0xb63
00000B61  EB00              jmp short 0xb63
00000B63  890424            mov [esp],eax
00000B66  E8B5FCFFFF        call 0x100000820
00000B6B  8B5DFC            mov ebx,[ebp-0x4]
00000B6E  C9                leave
00000B6F  C3                ret
00000B70  55                push ebp
00000B71  89E5              mov ebp,esp
00000B73  83EC18            sub esp,byte +0x18
00000B76  837D0801          cmp dword [ebp+0x8],byte +0x1
00000B7A  7531              jnz 0xbad
00000B7C  817D0CFFFF0000    cmp dword [ebp+0xc],0xffff
00000B83  7528              jnz 0xbad
00000B85  C70424F8B20408    mov dword [esp],0x804b2f8
00000B8C  E8DFFBFFFF        call 0x100000770
00000B91  C744240850B20408  mov dword [esp+0x8],0x804b250
00000B99  C7442404F8B20408  mov dword [esp+0x4],0x804b2f8
00000BA1  C7042490870408    mov dword [esp],0x8048790
00000BA8  E873FBFFFF        call 0x100000720
00000BAD  C9                leave
00000BAE  C3                ret
00000BAF  55                push ebp
00000BB0  89E5              mov ebp,esp
00000BB2  83EC18            sub esp,byte +0x18
00000BB5  C7442404FFFF0000  mov dword [esp+0x4],0xffff
00000BBD  C7042401000000    mov dword [esp],0x1
00000BC4  E8A7FFFFFF        call 0x100000b70
00000BC9  C9                leave
00000BCA  C3                ret
00000BCB  55                push ebp
00000BCC  89E5              mov ebp,esp
00000BCE  8B450C            mov eax,[ebp+0xc]
00000BD1  5D                pop ebp
00000BD2  C3                ret
00000BD3  90                nop
00000BD4  55                push ebp
00000BD5  89E5              mov ebp,esp
00000BD7  83EC18            sub esp,byte +0x18
00000BDA  8B4508            mov eax,[ebp+0x8]
00000BDD  890424            mov [esp],eax
00000BE0  E8F5000000        call 0xcda
00000BE5  C9                leave
00000BE6  C3                ret
00000BE7  90                nop
00000BE8  55                push ebp
00000BE9  89E5              mov ebp,esp
00000BEB  53                push ebx
00000BEC  83EC14            sub esp,byte +0x14
00000BEF  8B4508            mov eax,[ebp+0x8]
00000BF2  890424            mov [esp],eax
00000BF5  E854010000        call 0xd4e
00000BFA  8B5508            mov edx,[ebp+0x8]
00000BFD  8B4A04            mov ecx,[edx+0x4]
00000C00  8B5508            mov edx,[ebp+0x8]
00000C03  8B12              mov edx,[edx]
00000C05  89442408          mov [esp+0x8],eax
00000C09  894C2404          mov [esp+0x4],ecx
00000C0D  891424            mov [esp],edx
00000C10  E841010000        call 0xd56
00000C15  8B4508            mov eax,[ebp+0x8]
00000C18  890424            mov [esp],eax
00000C1B  E8CE000000        call 0xcee
00000C20  EB17              jmp short 0xc39
00000C22  89C3              mov ebx,eax
00000C24  8B4508            mov eax,[ebp+0x8]
00000C27  890424            mov [esp],eax
00000C2A  E8BF000000        call 0xcee
00000C2F  89D8              mov eax,ebx
00000C31  890424            mov [esp],eax
00000C34  E8E7FBFFFF        call 0x100000820
00000C39  83C414            add esp,byte +0x14
00000C3C  5B                pop ebx
00000C3D  5D                pop ebp
00000C3E  C3                ret
00000C3F  90                nop
00000C40  55                push ebp
00000C41  89E5              mov ebp,esp
00000C43  83EC28            sub esp,byte +0x28
00000C46  8B4508            mov eax,[ebp+0x8]
00000C49  8B5004            mov edx,[eax+0x4]
00000C4C  8B4508            mov eax,[ebp+0x8]
00000C4F  8B4008            mov eax,[eax+0x8]
00000C52  39C2              cmp edx,eax
00000C54  742D              jz 0xc83
00000C56  8B4508            mov eax,[ebp+0x8]
00000C59  8B5004            mov edx,[eax+0x4]
00000C5C  8B4508            mov eax,[ebp+0x8]
00000C5F  8B4D0C            mov ecx,[ebp+0xc]
00000C62  894C2408          mov [esp+0x8],ecx
00000C66  89542404          mov [esp+0x4],edx
00000C6A  890424            mov [esp],eax
00000C6D  E8FE000000        call 0xd70
00000C72  8B4508            mov eax,[ebp+0x8]
00000C75  8B4004            mov eax,[eax+0x4]
00000C78  8D5004            lea edx,[eax+0x4]
00000C7B  8B4508            mov eax,[ebp+0x8]
00000C7E  895004            mov [eax+0x4],edx
00000C81  EB2E              jmp short 0xcb1
00000C83  8D45F4            lea eax,[ebp-0xc]
00000C86  8B5508            mov edx,[ebp+0x8]
00000C89  89542404          mov [esp+0x4],edx
00000C8D  890424            mov [esp],eax
00000C90  E89B030000        call 0x1030
00000C95  83EC04            sub esp,byte +0x4
00000C98  8B450C            mov eax,[ebp+0xc]
00000C9B  89442408          mov [esp+0x8],eax
00000C9F  8B45F4            mov eax,[ebp-0xc]
00000CA2  89442404          mov [esp+0x4],eax
00000CA6  8B4508            mov eax,[ebp+0x8]
00000CA9  890424            mov [esp],eax
00000CAC  E8E1000000        call 0xd92
00000CB1  C9                leave
00000CB2  C3                ret
00000CB3  90                nop
00000CB4  55                push ebp
00000CB5  89E5              mov ebp,esp
00000CB7  8B4508            mov eax,[ebp+0x8]
00000CBA  8B00              mov eax,[eax]
00000CBC  8B550C            mov edx,[ebp+0xc]
00000CBF  C1E202            shl edx,0x2
00000CC2  01D0              add eax,edx
00000CC4  5D                pop ebp
00000CC5  C3                ret
00000CC6  55                push ebp
00000CC7  89E5              mov ebp,esp
00000CC9  83EC18            sub esp,byte +0x18
00000CCC  8B4508            mov eax,[ebp+0x8]
00000CCF  890424            mov [esp],eax
00000CD2  E8AB030000        call 0x1082
00000CD7  C9                leave
00000CD8  C3                ret
00000CD9  90                nop
00000CDA  55                push ebp
00000CDB  89E5              mov ebp,esp
00000CDD  83EC18            sub esp,byte +0x18
00000CE0  8B4508            mov eax,[ebp+0x8]
00000CE3  890424            mov [esp],eax
00000CE6  E867030000        call 0x1052
00000CEB  C9                leave
00000CEC  C3                ret
00000CED  90                nop
00000CEE  55                push ebp
00000CEF  89E5              mov ebp,esp
00000CF1  53                push ebx
00000CF2  83EC14            sub esp,byte +0x14
00000CF5  8B4508            mov eax,[ebp+0x8]
00000CF8  8B4008            mov eax,[eax+0x8]
00000CFB  89C2              mov edx,eax
00000CFD  8B4508            mov eax,[ebp+0x8]
00000D00  8B00              mov eax,[eax]
00000D02  29C2              sub edx,eax
00000D04  89D0              mov eax,edx
00000D06  C1F802            sar eax,0x2
00000D09  89C2              mov edx,eax
00000D0B  8B4508            mov eax,[ebp+0x8]
00000D0E  8B00              mov eax,[eax]
00000D10  89542408          mov [esp+0x8],edx
00000D14  89442404          mov [esp+0x4],eax
00000D18  8B4508            mov eax,[ebp+0x8]
00000D1B  890424            mov [esp],eax
00000D1E  E873030000        call 0x1096
00000D23  8B4508            mov eax,[ebp+0x8]
00000D26  890424            mov [esp],eax
00000D29  E898FFFFFF        call 0x100000cc6
00000D2E  EB17              jmp short 0xd47
00000D30  89C3              mov ebx,eax
00000D32  8B4508            mov eax,[ebp+0x8]
00000D35  890424            mov [esp],eax
00000D38  E889FFFFFF        call 0x100000cc6
00000D3D  89D8              mov eax,ebx
00000D3F  890424            mov [esp],eax
00000D42  E8D9FAFFFF        call 0x100000820
00000D47  83C414            add esp,byte +0x14
00000D4A  5B                pop ebx
00000D4B  5D                pop ebp
00000D4C  C3                ret
00000D4D  90                nop
00000D4E  55                push ebp
00000D4F  89E5              mov ebp,esp
00000D51  8B4508            mov eax,[ebp+0x8]
00000D54  5D                pop ebp
00000D55  C3                ret
00000D56  55                push ebp
00000D57  89E5              mov ebp,esp
00000D59  83EC18            sub esp,byte +0x18
00000D5C  8B450C            mov eax,[ebp+0xc]
00000D5F  89442404          mov [esp+0x4],eax
00000D63  8B4508            mov eax,[ebp+0x8]
00000D66  890424            mov [esp],eax
00000D69  E84F030000        call 0x10bd
00000D6E  C9                leave
00000D6F  C3                ret
00000D70  55                push ebp
00000D71  89E5              mov ebp,esp
00000D73  83EC18            sub esp,byte +0x18
00000D76  8B4510            mov eax,[ebp+0x10]
00000D79  89442408          mov [esp+0x8],eax
00000D7D  8B450C            mov eax,[ebp+0xc]
00000D80  89442404          mov [esp+0x4],eax
00000D84  8B4508            mov eax,[ebp+0x8]
00000D87  890424            mov [esp],eax
00000D8A  E849030000        call 0x10d8
00000D8F  C9                leave
00000D90  C3                ret
00000D91  90                nop
00000D92  55                push ebp
00000D93  89E5              mov ebp,esp
00000D95  56                push esi
00000D96  53                push ebx
00000D97  83EC30            sub esp,byte +0x30
00000D9A  8B4508            mov eax,[ebp+0x8]
00000D9D  8B5004            mov edx,[eax+0x4]
00000DA0  8B4508            mov eax,[ebp+0x8]
00000DA3  8B4008            mov eax,[eax+0x8]
00000DA6  39C2              cmp edx,eax
00000DA8  747D              jz 0xe27
00000DAA  8B4508            mov eax,[ebp+0x8]
00000DAD  8B4004            mov eax,[eax+0x4]
00000DB0  8D48FC            lea ecx,[eax-0x4]
00000DB3  8B4508            mov eax,[ebp+0x8]
00000DB6  8B5004            mov edx,[eax+0x4]
00000DB9  8B4508            mov eax,[ebp+0x8]
00000DBC  894C2408          mov [esp+0x8],ecx
00000DC0  89542404          mov [esp+0x4],edx
00000DC4  890424            mov [esp],eax
00000DC7  E8A4FFFFFF        call 0x100000d70
00000DCC  8B4508            mov eax,[ebp+0x8]
00000DCF  8B4004            mov eax,[eax+0x4]
00000DD2  8D5004            lea edx,[eax+0x4]
00000DD5  8B4508            mov eax,[ebp+0x8]
00000DD8  895004            mov [eax+0x4],edx
00000DDB  8B4510            mov eax,[ebp+0x10]
00000DDE  8B00              mov eax,[eax]
00000DE0  8945F0            mov [ebp-0x10],eax
00000DE3  8B4508            mov eax,[ebp+0x8]
00000DE6  8B4004            mov eax,[eax+0x4]
00000DE9  8D70FC            lea esi,[eax-0x4]
00000DEC  8B4508            mov eax,[ebp+0x8]
00000DEF  8B4004            mov eax,[eax+0x4]
00000DF2  8D58F8            lea ebx,[eax-0x8]
00000DF5  8D450C            lea eax,[ebp+0xc]
00000DF8  890424            mov [esp],eax
00000DFB  E8FE020000        call 0x10fe
00000E00  8B00              mov eax,[eax]
00000E02  89742408          mov [esp+0x8],esi
00000E06  895C2404          mov [esp+0x4],ebx
00000E0A  890424            mov [esp],eax
00000E0D  E8F4020000        call 0x1106
00000E12  8D450C            lea eax,[ebp+0xc]
00000E15  890424            mov [esp],eax
00000E18  E821030000        call 0x113e
00000E1D  8B55F0            mov edx,[ebp-0x10]
00000E20  8910              mov [eax],edx
00000E22  E901020000        jmp 0x1028
00000E27  C7442408AA960408  mov dword [esp+0x8],0x80496aa
00000E2F  C744240401000000  mov dword [esp+0x4],0x1
00000E37  8B4508            mov eax,[ebp+0x8]
00000E3A  890424            mov [esp],eax
00000E3D  E806030000        call 0x1148
00000E42  8945EC            mov [ebp-0x14],eax
00000E45  8D45E0            lea eax,[ebp-0x20]
00000E48  8B5508            mov edx,[ebp+0x8]
00000E4B  89542404          mov [esp+0x4],edx
00000E4F  890424            mov [esp],eax
00000E52  E895030000        call 0x11ec
00000E57  83EC04            sub esp,byte +0x4
00000E5A  8D45E0            lea eax,[ebp-0x20]
00000E5D  89442404          mov [esp+0x4],eax
00000E61  8D450C            lea eax,[ebp+0xc]
00000E64  890424            mov [esp],eax
00000E67  E89F030000        call 0x120b
00000E6C  8945E8            mov [ebp-0x18],eax
00000E6F  8B4508            mov eax,[ebp+0x8]
00000E72  8B55EC            mov edx,[ebp-0x14]
00000E75  89542404          mov [esp+0x4],edx
00000E79  890424            mov [esp],eax
00000E7C  E8BB030000        call 0x123c
00000E81  8945E4            mov [ebp-0x1c],eax
00000E84  8B45E4            mov eax,[ebp-0x1c]
00000E87  8945F4            mov [ebp-0xc],eax
00000E8A  8B45E8            mov eax,[ebp-0x18]
00000E8D  8D148500000000    lea edx,[eax*4+0x0]
00000E94  8B45E4            mov eax,[ebp-0x1c]
00000E97  8D0C02            lea ecx,[edx+eax]
00000E9A  8B4508            mov eax,[ebp+0x8]
00000E9D  8B5510            mov edx,[ebp+0x10]
00000EA0  89542408          mov [esp+0x8],edx
00000EA4  894C2404          mov [esp+0x4],ecx
00000EA8  890424            mov [esp],eax
00000EAB  E8C0FEFFFF        call 0x100000d70
00000EB0  C745F400000000    mov dword [ebp-0xc],0x0
00000EB7  8B4508            mov eax,[ebp+0x8]
00000EBA  890424            mov [esp],eax
00000EBD  E88CFEFFFF        call 0x100000d4e
00000EC2  89C3              mov ebx,eax
00000EC4  8D450C            lea eax,[ebp+0xc]
00000EC7  890424            mov [esp],eax
00000ECA  E82F020000        call 0x10fe
00000ECF  8B10              mov edx,[eax]
00000ED1  8B4508            mov eax,[ebp+0x8]
00000ED4  8B00              mov eax,[eax]
00000ED6  895C240C          mov [esp+0xc],ebx
00000EDA  8B4DE4            mov ecx,[ebp-0x1c]
00000EDD  894C2408          mov [esp+0x8],ecx
00000EE1  89542404          mov [esp+0x4],edx
00000EE5  890424            mov [esp],eax
00000EE8  E87E030000        call 0x126b
00000EED  8945F4            mov [ebp-0xc],eax
00000EF0  8345F404          add dword [ebp-0xc],byte +0x4
00000EF4  8B4508            mov eax,[ebp+0x8]
00000EF7  890424            mov [esp],eax
00000EFA  E84FFEFFFF        call 0x100000d4e
00000EFF  89C3              mov ebx,eax
00000F01  8B4508            mov eax,[ebp+0x8]
00000F04  8B7004            mov esi,[eax+0x4]
00000F07  8D450C            lea eax,[ebp+0xc]
00000F0A  890424            mov [esp],eax
00000F0D  E8EC010000        call 0x10fe
00000F12  8B00              mov eax,[eax]
00000F14  895C240C          mov [esp+0xc],ebx
00000F18  8B55F4            mov edx,[ebp-0xc]
00000F1B  89542408          mov [esp+0x8],edx
00000F1F  89742404          mov [esp+0x4],esi
00000F23  890424            mov [esp],eax
00000F26  E840030000        call 0x126b
00000F2B  8945F4            mov [ebp-0xc],eax
00000F2E  8B4508            mov eax,[ebp+0x8]
00000F31  890424            mov [esp],eax
00000F34  E815FEFFFF        call 0x100000d4e
00000F39  8B5508            mov edx,[ebp+0x8]
00000F3C  8B4A04            mov ecx,[edx+0x4]
00000F3F  8B5508            mov edx,[ebp+0x8]
00000F42  8B12              mov edx,[edx]
00000F44  89442408          mov [esp+0x8],eax
00000F48  894C2404          mov [esp+0x4],ecx
00000F4C  891424            mov [esp],edx
00000F4F  E802FEFFFF        call 0x100000d56
00000F54  8B4508            mov eax,[ebp+0x8]
00000F57  8B4008            mov eax,[eax+0x8]
00000F5A  89C2              mov edx,eax
00000F5C  8B4508            mov eax,[ebp+0x8]
00000F5F  8B00              mov eax,[eax]
00000F61  29C2              sub edx,eax
00000F63  89D0              mov eax,edx
00000F65  C1F802            sar eax,0x2
00000F68  89C1              mov ecx,eax
00000F6A  8B4508            mov eax,[ebp+0x8]
00000F6D  8B10              mov edx,[eax]
00000F6F  8B4508            mov eax,[ebp+0x8]
00000F72  894C2408          mov [esp+0x8],ecx
00000F76  89542404          mov [esp+0x4],edx
00000F7A  890424            mov [esp],eax
00000F7D  E814010000        call 0x1096
00000F82  8B4508            mov eax,[ebp+0x8]
00000F85  8B55E4            mov edx,[ebp-0x1c]
00000F88  8910              mov [eax],edx
00000F8A  8B4508            mov eax,[ebp+0x8]
00000F8D  8B55F4            mov edx,[ebp-0xc]
00000F90  895004            mov [eax+0x4],edx
00000F93  8B45EC            mov eax,[ebp-0x14]
00000F96  8D148500000000    lea edx,[eax*4+0x0]
00000F9D  8B45E4            mov eax,[ebp-0x1c]
00000FA0  01C2              add edx,eax
00000FA2  8B4508            mov eax,[ebp+0x8]
00000FA5  895008            mov [eax+0x8],edx
00000FA8  EB7E              jmp short 0x1028
00000FAA  89C3              mov ebx,eax
00000FAC  E82FF8FFFF        call 0x1000007e0
00000FB1  89D8              mov eax,ebx
00000FB3  890424            mov [esp],eax
00000FB6  E865F8FFFF        call 0x100000820
00000FBB  890424            mov [esp],eax
00000FBE  E83DF8FFFF        call 0x100000800
00000FC3  837DF400          cmp dword [ebp-0xc],byte +0x0
00000FC7  7520              jnz 0xfe9
00000FC9  8B45E8            mov eax,[ebp-0x18]
00000FCC  8D148500000000    lea edx,[eax*4+0x0]
00000FD3  8B45E4            mov eax,[ebp-0x1c]
00000FD6  01C2              add edx,eax
00000FD8  8B4508            mov eax,[ebp+0x8]
00000FDB  89542404          mov [esp+0x4],edx
00000FDF  890424            mov [esp],eax
00000FE2  E8AC020000        call 0x1293
00000FE7  EB21              jmp short 0x100a
00000FE9  8B4508            mov eax,[ebp+0x8]
00000FEC  890424            mov [esp],eax
00000FEF  E85AFDFFFF        call 0x100000d4e
00000FF4  89442408          mov [esp+0x8],eax
00000FF8  8B45F4            mov eax,[ebp-0xc]
00000FFB  89442404          mov [esp+0x4],eax
00000FFF  8B45E4            mov eax,[ebp-0x1c]
00001002  890424            mov [esp],eax
00001005  E84CFDFFFF        call 0x100000d56
0000100A  8B4508            mov eax,[ebp+0x8]
0000100D  8B55EC            mov edx,[ebp-0x14]
00001010  89542408          mov [esp+0x8],edx
00001014  8B55E4            mov edx,[ebp-0x1c]
00001017  89542404          mov [esp+0x4],edx
0000101B  890424            mov [esp],eax
0000101E  E873000000        call 0x1096
00001023  E838F7FFFF        call 0x100000760
00001028  8D65F8            lea esp,[ebp-0x8]
0000102B  5B                pop ebx
0000102C  5E                pop esi
0000102D  5D                pop ebp
0000102E  C3                ret
0000102F  90                nop
00001030  55                push ebp
00001031  89E5              mov ebp,esp
00001033  83EC18            sub esp,byte +0x18
00001036  8B450C            mov eax,[ebp+0xc]
00001039  83C004            add eax,byte +0x4
0000103C  89442404          mov [esp+0x4],eax
00001040  8B4508            mov eax,[ebp+0x8]
00001043  890424            mov [esp],eax
00001046  E863020000        call 0x12ae
0000104B  8B4508            mov eax,[ebp+0x8]
0000104E  C9                leave
0000104F  C20400            ret 0x4
00001052  55                push ebp
00001053  89E5              mov ebp,esp
00001055  83EC18            sub esp,byte +0x18
00001058  8B4508            mov eax,[ebp+0x8]
0000105B  890424            mov [esp],eax
0000105E  E85B020000        call 0x12be
00001063  8B4508            mov eax,[ebp+0x8]
00001066  C70000000000      mov dword [eax],0x0
0000106C  8B4508            mov eax,[ebp+0x8]
0000106F  C7400400000000    mov dword [eax+0x4],0x0
00001076  8B4508            mov eax,[ebp+0x8]
00001079  C7400800000000    mov dword [eax+0x8],0x0
00001080  C9                leave
00001081  C3                ret
00001082  55                push ebp
00001083  89E5              mov ebp,esp
00001085  83EC18            sub esp,byte +0x18
00001088  8B4508            mov eax,[ebp+0x8]
0000108B  890424            mov [esp],eax
0000108E  E83F020000        call 0x12d2
00001093  C9                leave
00001094  C3                ret
00001095  90                nop
00001096  55                push ebp
00001097  89E5              mov ebp,esp
00001099  83EC18            sub esp,byte +0x18
0000109C  837D0C00          cmp dword [ebp+0xc],byte +0x0
000010A0  7419              jz 0x10bb
000010A2  8B4508            mov eax,[ebp+0x8]
000010A5  8B5510            mov edx,[ebp+0x10]
000010A8  89542408          mov [esp+0x8],edx
000010AC  8B550C            mov edx,[ebp+0xc]
000010AF  89542404          mov [esp+0x4],edx
000010B3  890424            mov [esp],eax
000010B6  E81D020000        call 0x12d8
000010BB  C9                leave
000010BC  C3                ret
000010BD  55                push ebp
000010BE  89E5              mov ebp,esp
000010C0  83EC18            sub esp,byte +0x18
000010C3  8B450C            mov eax,[ebp+0xc]
000010C6  89442404          mov [esp+0x4],eax
000010CA  8B4508            mov eax,[ebp+0x8]
000010CD  890424            mov [esp],eax
000010D0  E816020000        call 0x12eb
000010D5  C9                leave
000010D6  C3                ret
000010D7  90                nop
000010D8  55                push ebp
000010D9  89E5              mov ebp,esp
000010DB  83EC18            sub esp,byte +0x18
000010DE  8B450C            mov eax,[ebp+0xc]
000010E1  89442404          mov [esp+0x4],eax
000010E5  C7042404000000    mov dword [esp],0x4
000010EC  E8DAFAFFFF        call 0x100000bcb
000010F1  85C0              test eax,eax
000010F3  7407              jz 0x10fc
000010F5  8B5510            mov edx,[ebp+0x10]
000010F8  8B12              mov edx,[edx]
000010FA  8910              mov [eax],edx
000010FC  C9                leave
000010FD  C3                ret
000010FE  55                push ebp
000010FF  89E5              mov ebp,esp
00001101  8B4508            mov eax,[ebp+0x8]
00001104  5D                pop ebp
00001105  C3                ret
00001106  55                push ebp
00001107  89E5              mov ebp,esp
00001109  53                push ebx
0000110A  83EC14            sub esp,byte +0x14
0000110D  8B450C            mov eax,[ebp+0xc]
00001110  890424            mov [esp],eax
00001113  E8D8010000        call 0x12f0
00001118  89C3              mov ebx,eax
0000111A  8B4508            mov eax,[ebp+0x8]
0000111D  890424            mov [esp],eax
00001120  E8CB010000        call 0x12f0
00001125  8B5510            mov edx,[ebp+0x10]
00001128  89542408          mov [esp+0x8],edx
0000112C  895C2404          mov [esp+0x4],ebx
00001130  890424            mov [esp],eax
00001133  E8CB010000        call 0x1303
00001138  83C414            add esp,byte +0x14
0000113B  5B                pop ebx
0000113C  5D                pop ebp
0000113D  C3                ret
0000113E  55                push ebp
0000113F  89E5              mov ebp,esp
00001141  8B4508            mov eax,[ebp+0x8]
00001144  8B00              mov eax,[eax]
00001146  5D                pop ebp
00001147  C3                ret
00001148  55                push ebp
00001149  89E5              mov ebp,esp
0000114B  53                push ebx
0000114C  83EC24            sub esp,byte +0x24
0000114F  8B4508            mov eax,[ebp+0x8]
00001152  890424            mov [esp],eax
00001155  E808020000        call 0x1362
0000115A  89C3              mov ebx,eax
0000115C  8B4508            mov eax,[ebp+0x8]
0000115F  890424            mov [esp],eax
00001162  E8E1010000        call 0x1348
00001167  89DA              mov edx,ebx
00001169  29C2              sub edx,eax
0000116B  8B450C            mov eax,[ebp+0xc]
0000116E  39C2              cmp edx,eax
00001170  0F92C0            setc al
00001173  84C0              test al,al
00001175  740B              jz 0x1182
00001177  8B4510            mov eax,[ebp+0x10]
0000117A  890424            mov [esp],eax
0000117D  E88EF5FFFF        call 0x100000710
00001182  8B4508            mov eax,[ebp+0x8]
00001185  890424            mov [esp],eax
00001188  E8BB010000        call 0x1348
0000118D  89C3              mov ebx,eax
0000118F  8B4508            mov eax,[ebp+0x8]
00001192  890424            mov [esp],eax
00001195  E8AE010000        call 0x1348
0000119A  8945F0            mov [ebp-0x10],eax
0000119D  8D450C            lea eax,[ebp+0xc]
000011A0  89442404          mov [esp+0x4],eax
000011A4  8D45F0            lea eax,[ebp-0x10]
000011A7  890424            mov [esp],eax
000011AA  E8CE010000        call 0x137d
000011AF  8B00              mov eax,[eax]
000011B1  01D8              add eax,ebx
000011B3  8945F4            mov [ebp-0xc],eax
000011B6  8B4508            mov eax,[ebp+0x8]
000011B9  890424            mov [esp],eax
000011BC  E887010000        call 0x1348
000011C1  3B45F4            cmp eax,[ebp-0xc]
000011C4  7710              ja 0x11d6
000011C6  8B4508            mov eax,[ebp+0x8]
000011C9  890424            mov [esp],eax
000011CC  E891010000        call 0x1362
000011D1  3B45F4            cmp eax,[ebp-0xc]
000011D4  730D              jnc 0x11e3
000011D6  8B4508            mov eax,[ebp+0x8]
000011D9  890424            mov [esp],eax
000011DC  E881010000        call 0x1362
000011E1  EB03              jmp short 0x11e6
000011E3  8B45F4            mov eax,[ebp-0xc]
000011E6  83C424            add esp,byte +0x24
000011E9  5B                pop ebx
000011EA  5D                pop ebp
000011EB  C3                ret
000011EC  55                push ebp
000011ED  89E5              mov ebp,esp
000011EF  83EC18            sub esp,byte +0x18
000011F2  8B450C            mov eax,[ebp+0xc]
000011F5  89442404          mov [esp+0x4],eax
000011F9  8B4508            mov eax,[ebp+0x8]
000011FC  890424            mov [esp],eax
000011FF  E8AA000000        call 0x12ae
00001204  8B4508            mov eax,[ebp+0x8]
00001207  C9                leave
00001208  C20400            ret 0x4
0000120B  55                push ebp
0000120C  89E5              mov ebp,esp
0000120E  53                push ebx
0000120F  83EC14            sub esp,byte +0x14
00001212  8B4508            mov eax,[ebp+0x8]
00001215  890424            mov [esp],eax
00001218  E8E1FEFFFF        call 0x1000010fe
0000121D  8B00              mov eax,[eax]
0000121F  89C3              mov ebx,eax
00001221  8B450C            mov eax,[ebp+0xc]
00001224  890424            mov [esp],eax
00001227  E8D2FEFFFF        call 0x1000010fe
0000122C  8B00              mov eax,[eax]
0000122E  29C3              sub ebx,eax
00001230  89D8              mov eax,ebx
00001232  C1F802            sar eax,0x2
00001235  83C414            add esp,byte +0x14
00001238  5B                pop ebx
00001239  5D                pop ebp
0000123A  C3                ret
0000123B  90                nop
0000123C  55                push ebp
0000123D  89E5              mov ebp,esp
0000123F  83EC18            sub esp,byte +0x18
00001242  837D0C00          cmp dword [ebp+0xc],byte +0x0
00001246  741C              jz 0x1264
00001248  8B4508            mov eax,[ebp+0x8]
0000124B  C744240800000000  mov dword [esp+0x8],0x0
00001253  8B550C            mov edx,[ebp+0xc]
00001256  89542404          mov [esp+0x4],edx
0000125A  890424            mov [esp],eax
0000125D  E836010000        call 0x1398
00001262  EB05              jmp short 0x1269
00001264  B800000000        mov eax,0x0
00001269  C9                leave
0000126A  C3                ret
0000126B  55                push ebp
0000126C  89E5              mov ebp,esp
0000126E  83EC18            sub esp,byte +0x18
00001271  8B4514            mov eax,[ebp+0x14]
00001274  8944240C          mov [esp+0xc],eax
00001278  8B4510            mov eax,[ebp+0x10]
0000127B  89442408          mov [esp+0x8],eax
0000127F  8B450C            mov eax,[ebp+0xc]
00001282  89442404          mov [esp+0x4],eax
00001286  8B4508            mov eax,[ebp+0x8]
00001289  890424            mov [esp],eax
0000128C  E837010000        call 0x13c8
00001291  C9                leave
00001292  C3                ret
00001293  55                push ebp
00001294  89E5              mov ebp,esp
00001296  83EC18            sub esp,byte +0x18
00001299  8B450C            mov eax,[ebp+0xc]
0000129C  89442404          mov [esp+0x4],eax
000012A0  8B4508            mov eax,[ebp+0x8]
000012A3  890424            mov [esp],eax
000012A6  E83F010000        call 0x13ea
000012AB  C9                leave
000012AC  C3                ret
000012AD  90                nop
000012AE  55                push ebp
000012AF  89E5              mov ebp,esp
000012B1  8B450C            mov eax,[ebp+0xc]
000012B4  8B10              mov edx,[eax]
000012B6  8B4508            mov eax,[ebp+0x8]
000012B9  8910              mov [eax],edx
000012BB  5D                pop ebp
000012BC  C3                ret
000012BD  90                nop
000012BE  55                push ebp
000012BF  89E5              mov ebp,esp
000012C1  83EC18            sub esp,byte +0x18
000012C4  8B4508            mov eax,[ebp+0x8]
000012C7  890424            mov [esp],eax
000012CA  E821010000        call 0x13f0
000012CF  C9                leave
000012D0  C3                ret
000012D1  90                nop
000012D2  55                push ebp
000012D3  89E5              mov ebp,esp
000012D5  5D                pop ebp
000012D6  C3                ret
000012D7  90                nop
000012D8  55                push ebp
000012D9  89E5              mov ebp,esp
000012DB  83EC18            sub esp,byte +0x18
000012DE  8B450C            mov eax,[ebp+0xc]
000012E1  890424            mov [esp],eax
000012E4  E867F4FFFF        call 0x100000750
000012E9  C9                leave
000012EA  C3                ret
000012EB  55                push ebp
000012EC  89E5              mov ebp,esp
000012EE  5D                pop ebp
000012EF  C3                ret
000012F0  55                push ebp
000012F1  89E5              mov ebp,esp
000012F3  83EC18            sub esp,byte +0x18
000012F6  8B4508            mov eax,[ebp+0x8]
000012F9  890424            mov [esp],eax
000012FC  E8F4000000        call 0x13f5
00001301  C9                leave
00001302  C3                ret
00001303  55                push ebp
00001304  89E5              mov ebp,esp
00001306  56                push esi
00001307  53                push ebx
00001308  83EC10            sub esp,byte +0x10
0000130B  8B4510            mov eax,[ebp+0x10]
0000130E  890424            mov [esp],eax
00001311  E8E7000000        call 0x13fd
00001316  89C6              mov esi,eax
00001318  8B450C            mov eax,[ebp+0xc]
0000131B  890424            mov [esp],eax
0000131E  E8DA000000        call 0x13fd
00001323  89C3              mov ebx,eax
00001325  8B4508            mov eax,[ebp+0x8]
00001328  890424            mov [esp],eax
0000132B  E8CD000000        call 0x13fd
00001330  89742408          mov [esp+0x8],esi
00001334  895C2404          mov [esp+0x4],ebx
00001338  890424            mov [esp],eax
0000133B  E8D0000000        call 0x1410
00001340  83C410            add esp,byte +0x10
00001343  5B                pop ebx
00001344  5E                pop esi
00001345  5D                pop ebp
00001346  C3                ret
00001347  90                nop
00001348  55                push ebp
00001349  89E5              mov ebp,esp
0000134B  8B4508            mov eax,[ebp+0x8]
0000134E  8B4004            mov eax,[eax+0x4]
00001351  89C2              mov edx,eax
00001353  8B4508            mov eax,[ebp+0x8]
00001356  8B00              mov eax,[eax]
00001358  29C2              sub edx,eax
0000135A  89D0              mov eax,edx
0000135C  C1F802            sar eax,0x2
0000135F  5D                pop ebp
00001360  C3                ret
00001361  90                nop
00001362  55                push ebp
00001363  89E5              mov ebp,esp
00001365  83EC18            sub esp,byte +0x18
00001368  8B4508            mov eax,[ebp+0x8]
0000136B  890424            mov [esp],eax
0000136E  E8D5000000        call 0x1448
00001373  890424            mov [esp],eax
00001376  E8BA000000        call 0x1435
0000137B  C9                leave
0000137C  C3                ret
0000137D  55                push ebp
0000137E  89E5              mov ebp,esp
00001380  8B4508            mov eax,[ebp+0x8]
00001383  8B10              mov edx,[eax]
00001385  8B450C            mov eax,[ebp+0xc]
00001388  8B00              mov eax,[eax]
0000138A  39C2              cmp edx,eax
0000138C  7305              jnc 0x1393
0000138E  8B450C            mov eax,[ebp+0xc]
00001391  EB03              jmp short 0x1396
00001393  8B4508            mov eax,[ebp+0x8]
00001396  5D                pop ebp
00001397  C3                ret
00001398  55                push ebp
00001399  89E5              mov ebp,esp
0000139B  83EC18            sub esp,byte +0x18
0000139E  8B4508            mov eax,[ebp+0x8]
000013A1  890424            mov [esp],eax
000013A4  E8A7000000        call 0x1450
000013A9  3B450C            cmp eax,[ebp+0xc]
000013AC  0F92C0            setc al
000013AF  84C0              test al,al
000013B1  7405              jz 0x13b8
000013B3  E838F4FFFF        call 0x1000007f0
000013B8  8B450C            mov eax,[ebp+0xc]
000013BB  C1E002            shl eax,0x2
000013BE  890424            mov [esp],eax
000013C1  E8EAF3FFFF        call 0x1000007b0
000013C6  C9                leave
000013C7  C3                ret
000013C8  55                push ebp
000013C9  89E5              mov ebp,esp
000013CB  83EC18            sub esp,byte +0x18
000013CE  8B4510            mov eax,[ebp+0x10]
000013D1  89442408          mov [esp+0x8],eax
000013D5  8B450C            mov eax,[ebp+0xc]
000013D8  89442404          mov [esp+0x4],eax
000013DC  8B4508            mov eax,[ebp+0x8]
000013DF  890424            mov [esp],eax
000013E2  E873000000        call 0x145a
000013E7  C9                leave
000013E8  C3                ret
000013E9  90                nop
000013EA  55                push ebp
000013EB  89E5              mov ebp,esp
000013ED  5D                pop ebp
000013EE  C3                ret
000013EF  90                nop
000013F0  55                push ebp
000013F1  89E5              mov ebp,esp
000013F3  5D                pop ebp
000013F4  C3                ret
000013F5  55                push ebp
000013F6  89E5              mov ebp,esp
000013F8  8B4508            mov eax,[ebp+0x8]
000013FB  5D                pop ebp
000013FC  C3                ret
000013FD  55                push ebp
000013FE  89E5              mov ebp,esp
00001400  83EC18            sub esp,byte +0x18
00001403  8B4508            mov eax,[ebp+0x8]
00001406  890424            mov [esp],eax
00001409  E8E7FFFFFF        call 0x1000013f5
0000140E  C9                leave
0000140F  C3                ret
00001410  55                push ebp
00001411  89E5              mov ebp,esp
00001413  83EC28            sub esp,byte +0x28
00001416  C645F701          mov byte [ebp-0x9],0x1
0000141A  8B4510            mov eax,[ebp+0x10]
0000141D  89442408          mov [esp+0x8],eax
00001421  8B450C            mov eax,[ebp+0xc]
00001424  89442404          mov [esp+0x4],eax
00001428  8B4508            mov eax,[ebp+0x8]
0000142B  890424            mov [esp],eax
0000142E  E848000000        call 0x147b
00001433  C9                leave
00001434  C3                ret
00001435  55                push ebp
00001436  89E5              mov ebp,esp
00001438  83EC18            sub esp,byte +0x18
0000143B  8B4508            mov eax,[ebp+0x8]
0000143E  890424            mov [esp],eax
00001441  E80A000000        call 0x1450
00001446  C9                leave
00001447  C3                ret
00001448  55                push ebp
00001449  89E5              mov ebp,esp
0000144B  8B4508            mov eax,[ebp+0x8]
0000144E  5D                pop ebp
0000144F  C3                ret
00001450  55                push ebp
00001451  89E5              mov ebp,esp
00001453  B8FFFFFF3F        mov eax,0x3fffffff
00001458  5D                pop ebp
00001459  C3                ret
0000145A  55                push ebp
0000145B  89E5              mov ebp,esp
0000145D  83EC18            sub esp,byte +0x18
00001460  8B4510            mov eax,[ebp+0x10]
00001463  89442408          mov [esp+0x8],eax
00001467  8B450C            mov eax,[ebp+0xc]
0000146A  89442404          mov [esp+0x4],eax
0000146E  8B4508            mov eax,[ebp+0x8]
00001471  890424            mov [esp],eax
00001474  E857000000        call 0x14d0
00001479  C9                leave
0000147A  C3                ret
0000147B  55                push ebp
0000147C  89E5              mov ebp,esp
0000147E  83EC28            sub esp,byte +0x28
00001481  8B550C            mov edx,[ebp+0xc]
00001484  8B4508            mov eax,[ebp+0x8]
00001487  29C2              sub edx,eax
00001489  89D0              mov eax,edx
0000148B  C1F802            sar eax,0x2
0000148E  8945F4            mov [ebp-0xc],eax
00001491  837DF400          cmp dword [ebp-0xc],byte +0x0
00001495  7428              jz 0x14bf
00001497  8B45F4            mov eax,[ebp-0xc]
0000149A  C1E002            shl eax,0x2
0000149D  8B55F4            mov edx,[ebp-0xc]
000014A0  C1E202            shl edx,0x2
000014A3  89D1              mov ecx,edx
000014A5  F7D9              neg ecx
000014A7  8B5510            mov edx,[ebp+0x10]
000014AA  01CA              add edx,ecx
000014AC  89442408          mov [esp+0x8],eax
000014B0  8B4508            mov eax,[ebp+0x8]
000014B3  89442404          mov [esp+0x4],eax
000014B7  891424            mov [esp],edx
000014BA  E811F3FFFF        call 0x1000007d0
000014BF  8B45F4            mov eax,[ebp-0xc]
000014C2  C1E002            shl eax,0x2
000014C5  F7D8              neg eax
000014C7  89C2              mov edx,eax
000014C9  8B4510            mov eax,[ebp+0x10]
000014CC  01D0              add eax,edx
000014CE  C9                leave
000014CF  C3                ret
000014D0  55                push ebp
000014D1  89E5              mov ebp,esp
000014D3  83EC18            sub esp,byte +0x18
000014D6  8B4510            mov eax,[ebp+0x10]
000014D9  89442408          mov [esp+0x8],eax
000014DD  8B450C            mov eax,[ebp+0xc]
000014E0  89442404          mov [esp+0x4],eax
000014E4  8B4508            mov eax,[ebp+0x8]
000014E7  890424            mov [esp],eax
000014EA  E802000000        call 0x14f1
000014EF  C9                leave
000014F0  C3                ret
000014F1  55                push ebp
000014F2  89E5              mov ebp,esp
000014F4  53                push ebx
000014F5  83EC14            sub esp,byte +0x14
000014F8  8B450C            mov eax,[ebp+0xc]
000014FB  890424            mov [esp],eax
000014FE  E8EDFDFFFF        call 0x1000012f0
00001503  89C3              mov ebx,eax
00001505  8B4508            mov eax,[ebp+0x8]
00001508  890424            mov [esp],eax
0000150B  E8E0FDFFFF        call 0x1000012f0
00001510  8B5510            mov edx,[ebp+0x10]
00001513  89542408          mov [esp+0x8],edx
00001517  895C2404          mov [esp+0x4],ebx
0000151B  890424            mov [esp],eax
0000151E  E806000000        call 0x1529
00001523  83C414            add esp,byte +0x14
00001526  5B                pop ebx
00001527  5D                pop ebp
00001528  C3                ret
00001529  55                push ebp
0000152A  89E5              mov ebp,esp
0000152C  56                push esi
0000152D  53                push ebx
0000152E  83EC10            sub esp,byte +0x10
00001531  8B4510            mov eax,[ebp+0x10]
00001534  890424            mov [esp],eax
00001537  E8C1FEFFFF        call 0x1000013fd
0000153C  89C6              mov esi,eax
0000153E  8B450C            mov eax,[ebp+0xc]
00001541  890424            mov [esp],eax
00001544  E8B4FEFFFF        call 0x1000013fd
00001549  89C3              mov ebx,eax
0000154B  8B4508            mov eax,[ebp+0x8]
0000154E  890424            mov [esp],eax
00001551  E8A7FEFFFF        call 0x1000013fd
00001556  89742408          mov [esp+0x8],esi
0000155A  895C2404          mov [esp+0x4],ebx
0000155E  890424            mov [esp],eax
00001561  E807000000        call 0x156d
00001566  83C410            add esp,byte +0x10
00001569  5B                pop ebx
0000156A  5E                pop esi
0000156B  5D                pop ebp
0000156C  C3                ret
0000156D  55                push ebp
0000156E  89E5              mov ebp,esp
00001570  83EC28            sub esp,byte +0x28
00001573  C645F701          mov byte [ebp-0x9],0x1
00001577  8B4510            mov eax,[ebp+0x10]
0000157A  89442408          mov [esp+0x8],eax
0000157E  8B450C            mov eax,[ebp+0xc]
00001581  89442404          mov [esp+0x4],eax
00001585  8B4508            mov eax,[ebp+0x8]
00001588  890424            mov [esp],eax
0000158B  E802000000        call 0x1592
00001590  C9                leave
00001591  C3                ret
00001592  55                push ebp
00001593  89E5              mov ebp,esp
00001595  83EC28            sub esp,byte +0x28
00001598  8B550C            mov edx,[ebp+0xc]
0000159B  8B4508            mov eax,[ebp+0x8]
0000159E  29C2              sub edx,eax
000015A0  89D0              mov eax,edx
000015A2  C1F802            sar eax,0x2
000015A5  8945F4            mov [ebp-0xc],eax
000015A8  837DF400          cmp dword [ebp-0xc],byte +0x0
000015AC  741C              jz 0x15ca
000015AE  8B45F4            mov eax,[ebp-0xc]
000015B1  C1E002            shl eax,0x2
000015B4  89442408          mov [esp+0x8],eax
000015B8  8B4508            mov eax,[ebp+0x8]
000015BB  89442404          mov [esp+0x4],eax
000015BF  8B4510            mov eax,[ebp+0x10]
000015C2  890424            mov [esp],eax
000015C5  E806F2FFFF        call 0x1000007d0
000015CA  8B45F4            mov eax,[ebp-0xc]
000015CD  8D148500000000    lea edx,[eax*4+0x0]
000015D4  8B4510            mov eax,[ebp+0x10]
000015D7  01D0              add eax,edx
000015D9  C9                leave
000015DA  C3                ret
000015DB  6690              o16 nop
000015DD  6690              o16 nop
000015DF  90                nop
000015E0  55                push ebp
000015E1  89E5              mov ebp,esp
000015E3  5D                pop ebp
000015E4  C3                ret
000015E5  66                db 0x66
000015E6  66                db 0x66
000015E7  2E                db 0x2E
000015E8  0F                db 0x0F
000015E9  1F                pop ds
000015EA  8400              test [eax],al
000015EC  0000              add [eax],al
000015EE  0000              add [eax],al
000015F0  55                push ebp
000015F1  89E5              mov ebp,esp
000015F3  57                push edi
000015F4  56                push esi
000015F5  53                push ebx
000015F6  E84F000000        call 0x164a
000015FB  81C3FD1B0000      add ebx,0x1bfd
00001601  83EC1C            sub esp,byte +0x1c
00001604  E8BFF0FFFF        call 0x1000006c8
00001609  8DBB04FFFFFF      lea edi,[ebx+0xffffff04]
0000160F  8D8304FFFFFF      lea eax,[ebx+0xffffff04]
00001615  29C7              sub edi,eax
00001617  C1FF02            sar edi,0x2
0000161A  85FF              test edi,edi
0000161C  7424              jz 0x1642
0000161E  31F6              xor esi,esi
00001620  8B4510            mov eax,[ebp+0x10]
00001623  89442408          mov [esp+0x8],eax
00001627  8B450C            mov eax,[ebp+0xc]
0000162A  89442404          mov [esp+0x4],eax
0000162E  8B4508            mov eax,[ebp+0x8]
00001631  890424            mov [esp],eax
00001634  FF94B304FFFFFF    call near [ebx+esi*4+0xffffff04]
0000163B  83C601            add esi,byte +0x1
0000163E  39FE              cmp esi,edi
00001640  72DE              jc 0x1620
00001642  83C41C            add esp,byte +0x1c
00001645  5B                pop ebx
00001646  5E                pop esi
00001647  5F                pop edi
00001648  5D                pop ebp
00001649  C3                ret
0000164A  8B1C24            mov ebx,[esp]
0000164D  C3                ret
0000164E  6690              o16 nop
00001650  55                push ebp
00001651  89E5              mov ebp,esp
00001653  53                push ebx
00001654  52                push edx
00001655  BB00B10408        mov ebx,0x804b100
0000165A  A100B10408        mov eax,[0x804b100]
0000165F  83F8FF            cmp eax,byte -0x1
00001662  7410              jz 0x1674
00001664  8D742600          lea esi,[esi+0x0]
00001668  83EB04            sub ebx,byte +0x4
0000166B  FFD0              call eax
0000166D  8B03              mov eax,[ebx]
0000166F  83F8FF            cmp eax,byte -0x1
00001672  75F4              jnz 0x1668
00001674  58                pop eax
00001675  5B                pop ebx
00001676  5D                pop ebp
00001677  C3                ret
00001678  55                push ebp
00001679  89E5              mov ebp,esp
0000167B  53                push ebx
0000167C  83EC04            sub esp,byte +0x4
0000167F  E800000000        call 0x1684
00001684  5B                pop ebx
00001685  81C3741B0000      add ebx,0x1b74
0000168B  E840F2FFFF        call 0x1000008d0
00001690  59                pop ecx
00001691  5B                pop ebx
00001692  C9                leave
00001693  C3                ret
00001694  0300              add eax,[eax]
00001696  0000              add [eax],al
00001698  0100              add [eax],eax
0000169A  0200              add al,[eax]
0000169C  43                inc ebx
0000169D  61                popa
0000169E  7365              jnc 0x1705
000016A0  2023              and [ebx],ah
000016A2  25643A2025        and eax,0x25203a64
000016A7  640A00            or al,[fs:eax]
000016AA  7665              jna 0x1711
000016AC  63746F72          arpl [edi+ebp*2+0x72],si
000016B0  3A3A              cmp bh,[edx]
000016B2  5F                pop edi
000016B3  4D                dec ebp
000016B4  5F                pop edi
000016B5  696E736572745F    imul ebp,[esi+0x73],dword 0x5f747265
000016BC  61                popa
000016BD  7578              jnz 0x1737
000016BF  0001              add [ecx],al
000016C1  1B03              sbb eax,[ebx]
000016C3  3BE0              cmp esp,eax
000016C5  0100              add [eax],eax
000016C7  003B              add [ebx],bh
000016C9  0000              add [eax],al
000016CB  0040F0            add [eax-0x10],al
000016CE  FF                db 0xFF
000016CF  FF                db 0xFF
000016D0  FC                cld
000016D1  0100              add [eax],eax
000016D3  0090F2FFFF40      add [eax+0x40fffff2],dl
000016D9  0200              add al,[eax]
000016DB  00EF              add bh,ch
000016DD  F2                db 0xF2
000016DE  FF                db 0xFF
000016DF  FF80020000B0      inc dword [eax+0xb0000002]
000016E5  F4                hlt
000016E6  FF                db 0xFF
000016E7  FF88090000EF      dec dword [eax+0xef000009]
000016ED  F4                hlt
000016EE  FF                db 0xFF
000016EF  FFA80900000B      jmp far [eax+0xb000009]
000016F5  F5                cmc
000016F6  FF                db 0xFF
000016F7  FF20              jmp near [eax]
000016F9  0200              add al,[eax]
000016FB  0014F5FFFFA802    add [esi*8+0x2a8ffff],dl
00001702  0000              add [eax],al
00001704  28F5              sub ch,dh
00001706  FF                db 0xFF
00001707  FFC8              dec eax
00001709  0200              add al,[eax]
0000170B  0080F5FFFFF0      add [eax+0xf0fffff5],al
00001711  0200              add al,[eax]
00001713  00F4              add ah,dh
00001715  F5                cmc
00001716  FF                db 0xFF
00001717  FF10              call near [eax]
00001719  0300              add eax,[eax]
0000171B  0006              add [esi],al
0000171D  F6FF              idiv bh
0000171F  FF30              push dword [eax]
00001721  0300              add eax,[eax]
00001723  001A              add [edx],bl
00001725  F6FF              idiv bh
00001727  FF5003            call near [eax+0x3]
0000172A  0000              add [eax],al
0000172C  2EF6FF            cs idiv bh
0000172F  FF7003            push dword [eax+0x3]
00001732  0000              add [eax],al
00001734  8EF6              mov segr6,si
00001736  FF                db 0xFF
00001737  FF9803000096      call far [eax+0x96000003]
0000173D  F6FF              idiv bh
0000173F  FF                db 0xFF
00001740  B8030000B0        mov eax,0xb0000003
00001745  F6FF              idiv bh
00001747  FF                db 0xFF
00001748  D803              fadd dword [ebx]
0000174A  0000              add [eax],al
0000174C  D2                db 0xD2
0000174D  F6FF              idiv bh
0000174F  FF                db 0xFF
00001750  F8                clc
00001751  0300              add eax,[eax]
00001753  0070F9            add [eax-0x7],dh
00001756  FF                db 0xFF
00001757  FF28              jmp far [eax]
00001759  0400              add al,0x0
0000175B  0092F9FFFF48      add [edx+0x48fffff9],dl
00001761  0400              add al,0x0
00001763  00C2              add dl,al
00001765  F9                stc
00001766  FF                db 0xFF
00001767  FF6804            jmp far [eax+0x4]
0000176A  0000              add [eax],al
0000176C  D6                salc
0000176D  F9                stc
0000176E  FF                db 0xFF
0000176F  FF88040000FD      dec dword [eax+0xfd000004]
00001775  F9                stc
00001776  FF                db 0xFF
00001777  FFA804000018      jmp far [eax+0x18000004]
0000177D  FA                cli
0000177E  FF                db 0xFF
0000177F  FFC8              dec eax
00001781  0400              add al,0x0
00001783  003E              add [esi],bh
00001785  FA                cli
00001786  FF                db 0xFF
00001787  FF                db 0xFF
00001788  E804000046        call 0x46001791
0000178D  FA                cli
0000178E  FF                db 0xFF
0000178F  FF08              dec dword [eax]
00001791  0500007EFA        add eax,0xfa7e0000
00001796  FF                db 0xFF
00001797  FF2C05000088FA    jmp far [eax+0xfa880000]
0000179E  FF                db 0xFF
0000179F  FF4C0500          dec dword [ebp+eax+0x0]
000017A3  002CFB            add [ebx+edi*8],ch
000017A6  FF                db 0xFF
000017A7  FF7005            push dword [eax+0x5]
000017AA  0000              add [eax],al
000017AC  4B                dec ebx
000017AD  FB                sti
000017AE  FF                db 0xFF
000017AF  FF900500007C      call near [eax+0x7c000005]
000017B5  FB                sti
000017B6  FF                db 0xFF
000017B7  FFB4050000ABFB    push dword [ebp+eax+0xfbab0000]
000017BE  FF                db 0xFF
000017BF  FFD4              call esp
000017C1  050000D3FB        add eax,0xfbd30000
000017C6  FF                db 0xFF
000017C7  FFF4              push esp
000017C9  050000EEFB        add eax,0xfbee0000
000017CE  FF                db 0xFF
000017CF  FF1406            call near [esi+eax]
000017D2  0000              add [eax],al
000017D4  FE                db 0xFE
000017D5  FB                sti
000017D6  FF                db 0xFF
000017D7  FF3406            push dword [esi+eax]
000017DA  0000              add [eax],al
000017DC  12FC              adc bh,ah
000017DE  FF                db 0xFF
000017DF  FF540600          call near [esi+eax+0x0]
000017E3  0018              add [eax],bl
000017E5  FC                cld
000017E6  FF                db 0xFF
000017E7  FF740600          push dword [esi+eax+0x0]
000017EB  002B              add [ebx],ch
000017ED  FC                cld
000017EE  FF                db 0xFF
000017EF  FF9406000030FC    call near [esi+eax+0xfc300000]
000017F6  FF                db 0xFF
000017F7  FFB406000043FC    push dword [esi+eax+0xfc430000]
000017FE  FF                db 0xFF
000017FF  FFD4              call esp
00001801  06                push es
00001802  0000              add [eax],al
00001804  88FC              mov ah,bh
00001806  FF                db 0xFF
00001807  FF                db 0xFF
00001808  FC                cld
00001809  06                push es
0000180A  0000              add [eax],al
0000180C  A2FCFFFF1C        mov [0x1cfffffc],al
00001811  07                pop es
00001812  0000              add [eax],al
00001814  BDFCFFFF3C        mov ebp,0x3cfffffc
00001819  07                pop es
0000181A  0000              add [eax],al
0000181C  D8FC              fdivr st4
0000181E  FF                db 0xFF
0000181F  FF5C0700          call far [edi+eax+0x0]
00001823  0008              add [eax],cl
00001825  FD                std
00001826  FF                db 0xFF
00001827  FF                db 0xFF
00001828  7C07              jl 0x1831
0000182A  0000              add [eax],al
0000182C  2AFD              sub bh,ch
0000182E  FF                db 0xFF
0000182F  FF9C07000030FD    call far [edi+eax+0xfd300000]
00001836  FF                db 0xFF
00001837  FF                db 0xFF
00001838  BC07000035        mov esp,0x35000007
0000183D  FD                std
0000183E  FF                db 0xFF
0000183F  FF                db 0xFF
00001840  DC07              fadd qword [edi]
00001842  0000              add [eax],al
00001844  3DFDFFFFFC        cmp eax,0xfcfffffd
00001849  07                pop es
0000184A  0000              add [eax],al
0000184C  50                push eax
0000184D  FD                std
0000184E  FF                db 0xFF
0000184F  FF1C08            call far [eax+ecx]
00001852  0000              add [eax],al
00001854  75FD              jnz 0x1853
00001856  FF                db 0xFF
00001857  FF                db 0xFF
00001858  3C08              cmp al,0x8
0000185A  0000              add [eax],al
0000185C  88FD              mov ch,bh
0000185E  FF                db 0xFF
0000185F  FF5C0800          call far [eax+ecx+0x0]
00001863  0090FDFFFF7C      add [eax+0x7cfffffd],dl
00001869  0800              or [eax],al
0000186B  009AFDFFFF9C      add [edx+0x9cfffffd],bl
00001871  0800              or [eax],al
00001873  00BBFDFFFFBC      add [ebx+0xbcfffffd],bh
00001879  0800              or [eax],al
0000187B  0010              add [eax],dl
0000187D  FE                db 0xFE
0000187E  FF                db 0xFF
0000187F  FF                db 0xFF
00001880  DC08              fmul qword [eax]
00001882  0000              add [eax],al
00001884  31FE              xor esi,edi
00001886  FF                db 0xFF
00001887  FF                db 0xFF
00001888  FC                cld
00001889  0800              or [eax],al
0000188B  0069FE            add [ecx-0x2],ch
0000188E  FF                db 0xFF
0000188F  FF20              jmp near [eax]
00001891  0900              or [eax],eax
00001893  00ADFEFFFF48      add [ebp+0x48fffffe],ch
00001899  0900              or [eax],eax
0000189B  00D2              add dl,dl
0000189D  FE                db 0xFE
0000189E  FF                db 0xFF
0000189F  FF6809            jmp far [eax+0x9]
000018A2  0000              add [eax],al
000018A4  1400              adc al,0x0
000018A6  0000              add [eax],al
000018A8  0000              add [eax],al
000018AA  0000              add [eax],al
000018AC  017A52            add [edx+0x52],edi
000018AF  0001              add [ecx],al
000018B1  7C08              jl 0x18bb
000018B3  011B              add [ebx],ebx
000018B5  0C04              or al,0x4
000018B7  0488              add al,0x88
000018B9  0100              add [eax],eax
000018BB  0020              add [eax],ah
000018BD  0000              add [eax],al
000018BF  001C00            add [eax+eax],bl
000018C2  0000              add [eax],al
000018C4  3CEE              cmp al,0xee
000018C6  FF                db 0xFF
000018C7  FF30              push dword [eax]
000018C9  0100              add [eax],eax
000018CB  0000              add [eax],al
000018CD  0E                push cs
000018CE  08460E            or [esi+0xe],al
000018D1  0C4A              or al,0x4a
000018D3  0F0B              ud2
000018D5  7404              jz 0x18db
000018D7  7800              js 0x18d9
000018D9  3F                aas
000018DA  1A3B              sbb bh,[ebx]
000018DC  2A32              sub dh,[edx]
000018DE  2422              and al,0x22
000018E0  1C00              sbb al,0x0
000018E2  0000              add [eax],al
000018E4  40                inc eax
000018E5  0000              add [eax],al
000018E7  00E3              add bl,ah
000018E9  F2                db 0xF2
000018EA  FF                db 0xFF
000018EB  FF08              dec dword [eax]
000018ED  0000              add [eax],al
000018EF  0000              add [eax],al
000018F1  41                inc ecx
000018F2  0E                push cs
000018F3  088502420D05      or [ebp+0x50d4202],al
000018F9  44                inc esp
000018FA  C50C04            lds ecx,[esp+eax]
000018FD  0400              add al,0x0
000018FF  001C00            add [eax+eax],bl
00001902  0000              add [eax],al
00001904  60                pusha
00001905  0000              add [eax],al
00001907  0048F0            add [eax-0x10],cl
0000190A  FF                db 0xFF
0000190B  FF5F00            call far [edi+0x0]
0000190E  0000              add [eax],al
00001910  00410E            add [ecx+0xe],al
00001913  088502420D05      or [ebp+0x50d4202],al
00001919  025BC5            add bl,[ebx-0x3b]
0000191C  0C04              or al,0x4
0000191E  0400              add al,0x0
00001920  1C00              sbb al,0x0
00001922  0000              add [eax],al
00001924  0000              add [eax],al
00001926  0000              add [eax],al
00001928  017A50            add [edx+0x50],edi
0000192B  4C                dec esp
0000192C  52                push edx
0000192D  0001              add [ecx],al
0000192F  7C08              jl 0x1939
00001931  07                pop es
00001932  0010              add [eax],dl
00001934  880408            mov [eax+ecx],al
00001937  001B              add [ebx],bl
00001939  0C04              or al,0x4
0000193B  0488              add al,0x88
0000193D  0100              add [eax],eax
0000193F  002400            add [eax+eax],ah
00001942  0000              add [eax],al
00001944  2400              and al,0x0
00001946  0000              add [eax],al
00001948  67                db 0x67
00001949  F0                db 0xF0
0000194A  FF                db 0xFF
0000194B  FFC1              inc ecx
0000194D  0100              add [eax],eax
0000194F  00048C            add [esp+ecx*4],al
00001952  A00408410E        mov al,[0xe410804]
00001957  088502420D05      or [ebp+0x50d4202],al
0000195D  47                inc edi
0000195E  830303            add dword [ebx],byte +0x3
00001961  B601              mov dh,0x1
00001963  C5                db 0xC5
00001964  C3                ret
00001965  0C04              or al,0x4
00001967  041C              add al,0x1c
00001969  0000              add [eax],al
0000196B  00C8              add al,cl
0000196D  0000              add [eax],al
0000196F  0064F2FF          add [edx+esi*8-0x1],ah
00001973  FF13              call near [ebx]
00001975  0000              add [eax],al
00001977  0000              add [eax],al
00001979  41                inc ecx
0000197A  0E                push cs
0000197B  088502420D05      or [ebp+0x50d4202],al
00001981  4F                dec edi
00001982  C50C04            lds ecx,[esp+eax]
00001985  0400              add al,0x0
00001987  002400            add [eax+eax],ah
0000198A  0000              add [eax],al
0000198C  6C                insb
0000198D  0000              add [eax],al
0000198F  0058F2            add [eax-0xe],bl
00001992  FF                db 0xFF
00001993  FF5700            call near [edi+0x0]
00001996  0000              add [eax],al
00001998  04B6              add al,0xb6
0000199A  A00408410E        mov al,[0xe410804]
0000199F  088502420D05      or [ebp+0x50d4202],al
000019A5  44                inc esp
000019A6  830302            add dword [ebx],byte +0x2
000019A9  4E                dec esi
000019AA  C3                ret
000019AB  41                inc ecx
000019AC  C50C04            lds ecx,[esp+eax]
000019AF  041C              add al,0x1c
000019B1  0000              add [eax],al
000019B3  0010              add [eax],dl
000019B5  0100              add [eax],eax
000019B7  0088F2FFFF73      add [eax+0x73fffff2],cl
000019BD  0000              add [eax],al
000019BF  0000              add [eax],al
000019C1  41                inc ecx
000019C2  0E                push cs
000019C3  088502420D05      or [ebp+0x50d4202],al
000019C9  026FC5            add ch,[edi-0x3b]
000019CC  0C04              or al,0x4
000019CE  0400              add al,0x0
000019D0  1C00              sbb al,0x0
000019D2  0000              add [eax],al
000019D4  3001              xor [ecx],al
000019D6  0000              add [eax],al
000019D8  DCF2              fdivr to st2
000019DA  FF                db 0xFF
000019DB  FF12              call near [edx]
000019DD  0000              add [eax],al
000019DF  0000              add [eax],al
000019E1  41                inc ecx
000019E2  0E                push cs
000019E3  088502420D05      or [ebp+0x50d4202],al
000019E9  4E                dec esi
000019EA  C50C04            lds ecx,[esp+eax]
000019ED  0400              add al,0x0
000019EF  001C00            add [eax+eax],bl
000019F2  0000              add [eax],al
000019F4  50                push eax
000019F5  0100              add [eax],eax
000019F7  00CE              add dh,cl
000019F9  F2                db 0xF2
000019FA  FF                db 0xFF
000019FB  FF13              call near [ebx]
000019FD  0000              add [eax],al
000019FF  0000              add [eax],al
00001A01  41                inc ecx
00001A02  0E                push cs
00001A03  088502420D05      or [ebp+0x50d4202],al
00001A09  4F                dec edi
00001A0A  C50C04            lds ecx,[esp+eax]
00001A0D  0400              add al,0x0
00001A0F  001C00            add [eax+eax],bl
00001A12  0000              add [eax],al
00001A14  7001              jo 0x1a17
00001A16  0000              add [eax],al
00001A18  C2F2FF            ret 0xfff2
00001A1B  FF13              call near [ebx]
00001A1D  0000              add [eax],al
00001A1F  0000              add [eax],al
00001A21  41                inc ecx
00001A22  0E                push cs
00001A23  088502420D05      or [ebp+0x50d4202],al
00001A29  4F                dec edi
00001A2A  C50C04            lds ecx,[esp+eax]
00001A2D  0400              add al,0x0
00001A2F  002400            add [eax+eax],ah
00001A32  0000              add [eax],al
00001A34  1401              adc al,0x1
00001A36  0000              add [eax],al
00001A38  B6F2              mov dh,0xf2
00001A3A  FF                db 0xFF
00001A3B  FF5F00            call far [edi+0x0]
00001A3E  0000              add [eax],al
00001A40  04C6              add al,0xc6
00001A42  A00408410E        mov al,[0xe410804]
00001A47  088502420D05      or [ebp+0x50d4202],al
00001A4D  44                inc esp
00001A4E  830302            add dword [ebx],byte +0x2
00001A51  56                push esi
00001A52  C3                ret
00001A53  41                inc ecx
00001A54  C50C04            lds ecx,[esp+eax]
00001A57  041C              add al,0x1c
00001A59  0000              add [eax],al
00001A5B  00B8010000EE      add [eax+0xee000001],bh
00001A61  F2                db 0xF2
00001A62  FF                db 0xFF
00001A63  FF08              dec dword [eax]
00001A65  0000              add [eax],al
00001A67  0000              add [eax],al
00001A69  41                inc ecx
00001A6A  0E                push cs
00001A6B  088502420D05      or [ebp+0x50d4202],al
00001A71  44                inc esp
00001A72  C50C04            lds ecx,[esp+eax]
00001A75  0400              add al,0x0
00001A77  001C00            add [eax+eax],bl
00001A7A  0000              add [eax],al
00001A7C  D801              fadd dword [ecx]
00001A7E  0000              add [eax],al
00001A80  D6                salc
00001A81  F2                db 0xF2
00001A82  FF                db 0xFF
00001A83  FF1A              call far [edx]
00001A85  0000              add [eax],al
00001A87  0000              add [eax],al
00001A89  41                inc ecx
00001A8A  0E                push cs
00001A8B  088502420D05      or [ebp+0x50d4202],al
00001A91  56                push esi
00001A92  C50C04            lds ecx,[esp+eax]
00001A95  0400              add al,0x0
00001A97  001C00            add [eax+eax],bl
00001A9A  0000              add [eax],al
00001A9C  F8                clc
00001A9D  0100              add [eax],eax
00001A9F  00D0              add al,dl
00001AA1  F2                db 0xF2
00001AA2  FF                db 0xFF
00001AA3  FF21              jmp near [ecx]
00001AA5  0000              add [eax],al
00001AA7  0000              add [eax],al
00001AA9  41                inc ecx
00001AAA  0E                push cs
00001AAB  088502420D05      or [ebp+0x50d4202],al
00001AB1  5D                pop ebp
00001AB2  C50C04            lds ecx,[esp+eax]
00001AB5  0400              add al,0x0
00001AB7  002C00            add [eax+eax],ch
00001ABA  0000              add [eax],al
00001ABC  9C                pushf
00001ABD  0100              add [eax],eax
00001ABF  00D2              add dl,dl
00001AC1  F2                db 0xF2
00001AC2  FF                db 0xFF
00001AC3  FF9D02000004      call far [ebp+0x4000002]
00001AC9  D4A0              aam 0xa0
00001ACB  0408              add al,0x8
00001ACD  41                inc ecx
00001ACE  0E                push cs
00001ACF  088502420D05      or [ebp+0x50d4202],al
00001AD5  45                inc ebp
00001AD6  8603              xchg al,[ebx]
00001AD8  83040392          add dword [ebx+eax],byte -0x6e
00001ADC  02C3              add al,bl
00001ADE  41                inc ecx
00001ADF  C641C50C          mov byte [ecx-0x3b],0xc
00001AE3  0404              add al,0x4
00001AE5  0000              add [eax],al
00001AE7  001C00            add [eax+eax],bl
00001AEA  0000              add [eax],al
00001AEC  48                dec eax
00001AED  0200              add al,[eax]
00001AEF  0040F5            add [eax-0xb],al
00001AF2  FF                db 0xFF
00001AF3  FF22              jmp near [edx]
00001AF5  0000              add [eax],al
00001AF7  0000              add [eax],al
00001AF9  41                inc ecx
00001AFA  0E                push cs
00001AFB  088502420D05      or [ebp+0x50d4202],al
00001B01  5C                pop esp
00001B02  C50C04            lds ecx,[esp+eax]
00001B05  0400              add al,0x0
00001B07  001C00            add [eax+eax],bl
00001B0A  0000              add [eax],al
00001B0C  6802000042        push dword 0x42000002
00001B11  F5                cmc
00001B12  FF                db 0xFF
00001B13  FF30              push dword [eax]
00001B15  0000              add [eax],al
00001B17  0000              add [eax],al
00001B19  41                inc ecx
00001B1A  0E                push cs
00001B1B  088502420D05      or [ebp+0x50d4202],al
00001B21  6C                insb
00001B22  C50C04            lds ecx,[esp+eax]
00001B25  0400              add al,0x0
00001B27  001C00            add [eax+eax],bl
00001B2A  0000              add [eax],al
00001B2C  8802              mov [edx],al
00001B2E  0000              add [eax],al
00001B30  52                push edx
00001B31  F5                cmc
00001B32  FF                db 0xFF
00001B33  FF13              call near [ebx]
00001B35  0000              add [eax],al
00001B37  0000              add [eax],al
00001B39  41                inc ecx
00001B3A  0E                push cs
00001B3B  088502420D05      or [ebp+0x50d4202],al
00001B41  4F                dec edi
00001B42  C50C04            lds ecx,[esp+eax]
00001B45  0400              add al,0x0
00001B47  001C00            add [eax+eax],bl
00001B4A  0000              add [eax],al
00001B4C  A802              test al,0x2
00001B4E  0000              add [eax],al
00001B50  46                inc esi
00001B51  F5                cmc
00001B52  FF                db 0xFF
00001B53  FF27              jmp near [edi]
00001B55  0000              add [eax],al
00001B57  0000              add [eax],al
00001B59  41                inc ecx
00001B5A  0E                push cs
00001B5B  088502420D05      or [ebp+0x50d4202],al
00001B61  63C5              arpl bp,ax
00001B63  0C04              or al,0x4
00001B65  0400              add al,0x0
00001B67  001C00            add [eax+eax],bl
00001B6A  0000              add [eax],al
00001B6C  C8020000          enter 0x2,0x0
00001B70  4D                dec ebp
00001B71  F5                cmc
00001B72  FF                db 0xFF
00001B73  FF1A              call far [edx]
00001B75  0000              add [eax],al
00001B77  0000              add [eax],al
00001B79  41                inc ecx
00001B7A  0E                push cs
00001B7B  088502420D05      or [ebp+0x50d4202],al
00001B81  56                push esi
00001B82  C50C04            lds ecx,[esp+eax]
00001B85  0400              add al,0x0
00001B87  001C00            add [eax+eax],bl
00001B8A  0000              add [eax],al
00001B8C  E802000048        call 0x48001b93
00001B91  F5                cmc
00001B92  FF                db 0xFF
00001B93  FF26              jmp near [esi]
00001B95  0000              add [eax],al
00001B97  0000              add [eax],al
00001B99  41                inc ecx
00001B9A  0E                push cs
00001B9B  088502420D05      or [ebp+0x50d4202],al
00001BA1  62                db 0x62
00001BA2  C50C04            lds ecx,[esp+eax]
00001BA5  0400              add al,0x0
00001BA7  001C00            add [eax+eax],bl
00001BAA  0000              add [eax],al
00001BAC  0803              or [ebx],al
00001BAE  0000              add [eax],al
00001BB0  4E                dec esi
00001BB1  F5                cmc
00001BB2  FF                db 0xFF
00001BB3  FF08              dec dword [eax]
00001BB5  0000              add [eax],al
00001BB7  0000              add [eax],al
00001BB9  41                inc ecx
00001BBA  0E                push cs
00001BBB  088502420D05      or [ebp+0x50d4202],al
00001BC1  44                inc esp
00001BC2  C50C04            lds ecx,[esp+eax]
00001BC5  0400              add al,0x0
00001BC7  0020              add [eax],ah
00001BC9  0000              add [eax],al
00001BCB  0028              add [eax],ch
00001BCD  0300              add eax,[eax]
00001BCF  0036              add [esi],dh
00001BD1  F5                cmc
00001BD2  FF                db 0xFF
00001BD3  FF                db 0xFF
00001BD4  3800              cmp [eax],al
00001BD6  0000              add [eax],al
00001BD8  00410E            add [ecx+0xe],al
00001BDB  088502420D05      or [ebp+0x50d4202],al
00001BE1  44                inc esp
00001BE2  83036F            add dword [ebx],byte +0x6f
00001BE5  C3                ret
00001BE6  41                inc ecx
00001BE7  C50C04            lds ecx,[esp+eax]
00001BEA  0400              add al,0x0
00001BEC  1C00              sbb al,0x0
00001BEE  0000              add [eax],al
00001BF0  4C                dec esp
00001BF1  0300              add eax,[eax]
00001BF3  004AF5            add [edx-0xb],cl
00001BF6  FF                db 0xFF
00001BF7  FF0A              dec dword [edx]
00001BF9  0000              add [eax],al
00001BFB  0000              add [eax],al
00001BFD  41                inc ecx
00001BFE  0E                push cs
00001BFF  088502420D05      or [ebp+0x50d4202],al
00001C05  46                inc esi
00001C06  C50C04            lds ecx,[esp+eax]
00001C09  0400              add al,0x0
00001C0B  0020              add [eax],ah
00001C0D  0000              add [eax],al
00001C0F  006C0300          add [ebx+eax+0x0],ch
00001C13  0034F5FFFFA400    add [esi*8+0xa4ffff],dh
00001C1A  0000              add [eax],al
00001C1C  00410E            add [ecx+0xe],al
00001C1F  088502420D05      or [ebp+0x50d4202],al
00001C25  44                inc esp
00001C26  830302            add dword [ebx],byte +0x2
00001C29  9B                wait
00001C2A  C3                ret
00001C2B  41                inc ecx
00001C2C  C50C04            lds ecx,[esp+eax]
00001C2F  041C              add al,0x1c
00001C31  0000              add [eax],al
00001C33  0090030000B4      add [eax+0xb4000003],dl
00001C39  F5                cmc
00001C3A  FF                db 0xFF
00001C3B  FF1F              call far [edi]
00001C3D  0000              add [eax],al
00001C3F  0000              add [eax],al
00001C41  41                inc ecx
00001C42  0E                push cs
00001C43  088502420D05      or [ebp+0x50d4202],al
00001C49  59                pop ecx
00001C4A  C50C04            lds ecx,[esp+eax]
00001C4D  0400              add al,0x0
00001C4F  0020              add [eax],ah
00001C51  0000              add [eax],al
00001C53  00B0030000B3      add [eax+0xb3000003],dh
00001C59  F5                cmc
00001C5A  FF                db 0xFF
00001C5B  FF30              push dword [eax]
00001C5D  0000              add [eax],al
00001C5F  0000              add [eax],al
00001C61  41                inc ecx
00001C62  0E                push cs
00001C63  088502420D05      or [ebp+0x50d4202],al
00001C69  44                inc esp
00001C6A  830367            add dword [ebx],byte +0x67
00001C6D  C3                ret
00001C6E  41                inc ecx
00001C6F  C50C04            lds ecx,[esp+eax]
00001C72  0400              add al,0x0
00001C74  1C00              sbb al,0x0
00001C76  0000              add [eax],al
00001C78  D403              aam 0x3
00001C7A  0000              add [eax],al
00001C7C  C0                db 0xC0
00001C7D  F5                cmc
00001C7E  FF                db 0xFF
00001C7F  FF2F              jmp far [edi]
00001C81  0000              add [eax],al
00001C83  0000              add [eax],al
00001C85  41                inc ecx
00001C86  0E                push cs
00001C87  088502420D05      or [ebp+0x50d4202],al
00001C8D  6BC50C            imul eax,ebp,byte +0xc
00001C90  0404              add al,0x4
00001C92  0000              add [eax],al
00001C94  1C00              sbb al,0x0
00001C96  0000              add [eax],al
00001C98  F4                hlt
00001C99  0300              add eax,[eax]
00001C9B  00CF              add bh,cl
00001C9D  F5                cmc
00001C9E  FF                db 0xFF
00001C9F  FF28              jmp far [eax]
00001CA1  0000              add [eax],al
00001CA3  0000              add [eax],al
00001CA5  41                inc ecx
00001CA6  0E                push cs
00001CA7  088502420D05      or [ebp+0x50d4202],al
00001CAD  64C50C04          lds ecx,[fs:esp+eax]
00001CB1  0400              add al,0x0
00001CB3  001C00            add [eax+eax],bl
00001CB6  0000              add [eax],al
00001CB8  1404              adc al,0x4
00001CBA  0000              add [eax],al
00001CBC  D7                xlatb
00001CBD  F5                cmc
00001CBE  FF                db 0xFF
00001CBF  FF1A              call far [edx]
00001CC1  0000              add [eax],al
00001CC3  0000              add [eax],al
00001CC5  41                inc ecx
00001CC6  0E                push cs
00001CC7  088502420D05      or [ebp+0x50d4202],al
00001CCD  56                push esi
00001CCE  C50C04            lds ecx,[esp+eax]
00001CD1  0400              add al,0x0
00001CD3  001C00            add [eax+eax],bl
00001CD6  0000              add [eax],al
00001CD8  3404              xor al,0x4
00001CDA  0000              add [eax],al
00001CDC  D2                db 0xD2
00001CDD  F5                cmc
00001CDE  FF                db 0xFF
00001CDF  FF0F              dec dword [edi]
00001CE1  0000              add [eax],al
00001CE3  0000              add [eax],al
00001CE5  41                inc ecx
00001CE6  0E                push cs
00001CE7  088502420D05      or [ebp+0x50d4202],al
00001CED  4B                dec ebx
00001CEE  C50C04            lds ecx,[esp+eax]
00001CF1  0400              add al,0x0
00001CF3  001C00            add [eax+eax],bl
00001CF6  0000              add [eax],al
00001CF8  54                push esp
00001CF9  0400              add al,0x0
00001CFB  00C2              add dl,al
00001CFD  F5                cmc
00001CFE  FF                db 0xFF
00001CFF  FF13              call near [ebx]
00001D01  0000              add [eax],al
00001D03  0000              add [eax],al
00001D05  41                inc ecx
00001D06  0E                push cs
00001D07  088502420D05      or [ebp+0x50d4202],al
00001D0D  4F                dec edi
00001D0E  C50C04            lds ecx,[esp+eax]
00001D11  0400              add al,0x0
00001D13  001C00            add [eax+eax],bl
00001D16  0000              add [eax],al
00001D18  7404              jz 0x1d1e
00001D1A  0000              add [eax],al
00001D1C  B6F5              mov dh,0xf5
00001D1E  FF                db 0xFF
00001D1F  FF0500000000      inc dword [0x0]
00001D25  41                inc ecx
00001D26  0E                push cs
00001D27  088502420D05      or [ebp+0x50d4202],al
00001D2D  41                inc ecx
00001D2E  C50C04            lds ecx,[esp+eax]
00001D31  0400              add al,0x0
00001D33  001C00            add [eax+eax],bl
00001D36  0000              add [eax],al
00001D38  94                xchg eax,esp
00001D39  0400              add al,0x0
00001D3B  009CF5FFFF1300    add [ebp+esi*8+0x13ffff],bl
00001D42  0000              add [eax],al
00001D44  00410E            add [ecx+0xe],al
00001D47  088502420D05      or [ebp+0x50d4202],al
00001D4D  4F                dec edi
00001D4E  C50C04            lds ecx,[esp+eax]
00001D51  0400              add al,0x0
00001D53  001C00            add [eax+eax],bl
00001D56  0000              add [eax],al
00001D58  B404              mov ah,0x4
00001D5A  0000              add [eax],al
00001D5C  8F                db 0x8F
00001D5D  F5                cmc
00001D5E  FF                db 0xFF
00001D5F  FF0500000000      inc dword [0x0]
00001D65  41                inc ecx
00001D66  0E                push cs
00001D67  088502420D05      or [ebp+0x50d4202],al
00001D6D  41                inc ecx
00001D6E  C50C04            lds ecx,[esp+eax]
00001D71  0400              add al,0x0
00001D73  001C00            add [eax+eax],bl
00001D76  0000              add [eax],al
00001D78  D404              aam 0x4
00001D7A  0000              add [eax],al
00001D7C  74F5              jz 0x1d73
00001D7E  FF                db 0xFF
00001D7F  FF13              call near [ebx]
00001D81  0000              add [eax],al
00001D83  0000              add [eax],al
00001D85  41                inc ecx
00001D86  0E                push cs
00001D87  088502420D05      or [ebp+0x50d4202],al
00001D8D  4F                dec edi
00001D8E  C50C04            lds ecx,[esp+eax]
00001D91  0400              add al,0x0
00001D93  002400            add [eax+eax],ah
00001D96  0000              add [eax],al
00001D98  F4                hlt
00001D99  0400              add al,0x0
00001D9B  0067F5            add [edi-0xb],ah
00001D9E  FF                db 0xFF
00001D9F  FF440000          inc dword [eax+eax+0x0]
00001DA3  0000              add [eax],al
00001DA5  41                inc ecx
00001DA6  0E                push cs
00001DA7  088502420D05      or [ebp+0x50d4202],al
00001DAD  45                inc ebp
00001DAE  8603              xchg al,[ebx]
00001DB0  830479C3          add dword [ecx+edi*2],byte -0x3d
00001DB4  41                inc ecx
00001DB5  C641C50C          mov byte [ecx-0x3b],0xc
00001DB9  0404              add al,0x4
00001DBB  001C00            add [eax+eax],bl
00001DBE  0000              add [eax],al
00001DC0  1C05              sbb al,0x5
00001DC2  0000              add [eax],al
00001DC4  84F5              test ch,dh
00001DC6  FF                db 0xFF
00001DC7  FF19              call far [ecx]
00001DC9  0000              add [eax],al
00001DCB  0000              add [eax],al
00001DCD  41                inc ecx
00001DCE  0E                push cs
00001DCF  088502420D05      or [ebp+0x50d4202],al
00001DD5  55                push ebp
00001DD6  C50C04            lds ecx,[esp+eax]
00001DD9  0400              add al,0x0
00001DDB  001C00            add [eax+eax],bl
00001DDE  0000              add [eax],al
00001DE0  3C05              cmp al,0x5
00001DE2  0000              add [eax],al
00001DE4  7EF5              jng 0x1ddb
00001DE6  FF                db 0xFF
00001DE7  FF1B              call far [ebx]
00001DE9  0000              add [eax],al
00001DEB  0000              add [eax],al
00001DED  41                inc ecx
00001DEE  0E                push cs
00001DEF  088502420D05      or [ebp+0x50d4202],al
00001DF5  57                push edi
00001DF6  C50C04            lds ecx,[esp+eax]
00001DF9  0400              add al,0x0
00001DFB  001C00            add [eax+eax],bl
00001DFE  0000              add [eax],al
00001E00  5C                pop esp
00001E01  05000079F5        add eax,0xf5790000
00001E06  FF                db 0xFF
00001E07  FF1B              call far [ebx]
00001E09  0000              add [eax],al
00001E0B  0000              add [eax],al
00001E0D  41                inc ecx
00001E0E  0E                push cs
00001E0F  088502420D05      or [ebp+0x50d4202],al
00001E15  57                push edi
00001E16  C50C04            lds ecx,[esp+eax]
00001E19  0400              add al,0x0
00001E1B  001C00            add [eax+eax],bl
00001E1E  0000              add [eax],al
00001E20  7C05              jl 0x1e27
00001E22  0000              add [eax],al
00001E24  74F5              jz 0x1e1b
00001E26  FF                db 0xFF
00001E27  FF30              push dword [eax]
00001E29  0000              add [eax],al
00001E2B  0000              add [eax],al
00001E2D  41                inc ecx
00001E2E  0E                push cs
00001E2F  088502420D05      or [ebp+0x50d4202],al
00001E35  6C                insb
00001E36  C50C04            lds ecx,[esp+eax]
00001E39  0400              add al,0x0
00001E3B  001C00            add [eax+eax],bl
00001E3E  0000              add [eax],al
00001E40  9C                pushf
00001E41  05000084F5        add eax,0xf5840000
00001E46  FF                db 0xFF
00001E47  FF21              jmp near [ecx]
00001E49  0000              add [eax],al
00001E4B  0000              add [eax],al
00001E4D  41                inc ecx
00001E4E  0E                push cs
00001E4F  088502420D05      or [ebp+0x50d4202],al
00001E55  5D                pop ebp
00001E56  C50C04            lds ecx,[esp+eax]
00001E59  0400              add al,0x0
00001E5B  001C00            add [eax+eax],bl
00001E5E  0000              add [eax],al
00001E60  BC05000086        mov esp,0x86000005
00001E65  F5                cmc
00001E66  FF                db 0xFF
00001E67  FF0500000000      inc dword [0x0]
00001E6D  41                inc ecx
00001E6E  0E                push cs
00001E6F  088502420D05      or [ebp+0x50d4202],al
00001E75  41                inc ecx
00001E76  C50C04            lds ecx,[esp+eax]
00001E79  0400              add al,0x0
00001E7B  001C00            add [eax+eax],bl
00001E7E  0000              add [eax],al
00001E80  DC0500006CF5      fadd qword [0xf56c0000]
00001E86  FF                db 0xFF
00001E87  FF0500000000      inc dword [0x0]
00001E8D  41                inc ecx
00001E8E  0E                push cs
00001E8F  088502420D05      or [ebp+0x50d4202],al
00001E95  41                inc ecx
00001E96  C50C04            lds ecx,[esp+eax]
00001E99  0400              add al,0x0
00001E9B  001C00            add [eax+eax],bl
00001E9E  0000              add [eax],al
00001EA0  FC                cld
00001EA1  05000051F5        add eax,0xf5510000
00001EA6  FF                db 0xFF
00001EA7  FF08              dec dword [eax]
00001EA9  0000              add [eax],al
00001EAB  0000              add [eax],al
00001EAD  41                inc ecx
00001EAE  0E                push cs
00001EAF  088502420D05      or [ebp+0x50d4202],al
00001EB5  44                inc esp
00001EB6  C50C04            lds ecx,[esp+eax]
00001EB9  0400              add al,0x0
00001EBB  001C00            add [eax+eax],bl
00001EBE  0000              add [eax],al
00001EC0  1C06              sbb al,0x6
00001EC2  0000              add [eax],al
00001EC4  39F5              cmp ebp,esi
00001EC6  FF                db 0xFF
00001EC7  FF13              call near [ebx]
00001EC9  0000              add [eax],al
00001ECB  0000              add [eax],al
00001ECD  41                inc ecx
00001ECE  0E                push cs
00001ECF  088502420D05      or [ebp+0x50d4202],al
00001ED5  4F                dec edi
00001ED6  C50C04            lds ecx,[esp+eax]
00001ED9  0400              add al,0x0
00001EDB  001C00            add [eax+eax],bl
00001EDE  0000              add [eax],al
00001EE0  3C06              cmp al,0x6
00001EE2  0000              add [eax],al
00001EE4  2CF5              sub al,0xf5
00001EE6  FF                db 0xFF
00001EE7  FF2500000000      jmp near [0x0]
00001EED  41                inc ecx
00001EEE  0E                push cs
00001EEF  088502420D05      or [ebp+0x50d4202],al
00001EF5  61                popa
00001EF6  C50C04            lds ecx,[esp+eax]
00001EF9  0400              add al,0x0
00001EFB  001C00            add [eax+eax],bl
00001EFE  0000              add [eax],al
00001F00  5C                pop esp
00001F01  06                push es
00001F02  0000              add [eax],al
00001F04  31F5              xor ebp,esi
00001F06  FF                db 0xFF
00001F07  FF13              call near [ebx]
00001F09  0000              add [eax],al
00001F0B  0000              add [eax],al
00001F0D  41                inc ecx
00001F0E  0E                push cs
00001F0F  088502420D05      or [ebp+0x50d4202],al
00001F15  4F                dec edi
00001F16  C50C04            lds ecx,[esp+eax]
00001F19  0400              add al,0x0
00001F1B  001C00            add [eax+eax],bl
00001F1E  0000              add [eax],al
00001F20  7C06              jl 0x1f28
00001F22  0000              add [eax],al
00001F24  24F5              and al,0xf5
00001F26  FF                db 0xFF
00001F27  FF08              dec dword [eax]
00001F29  0000              add [eax],al
00001F2B  0000              add [eax],al
00001F2D  41                inc ecx
00001F2E  0E                push cs
00001F2F  088502420D05      or [ebp+0x50d4202],al
00001F35  44                inc esp
00001F36  C50C04            lds ecx,[esp+eax]
00001F39  0400              add al,0x0
00001F3B  001C00            add [eax+eax],bl
00001F3E  0000              add [eax],al
00001F40  9C                pushf
00001F41  06                push es
00001F42  0000              add [eax],al
00001F44  0CF5              or al,0xf5
00001F46  FF                db 0xFF
00001F47  FF0A              dec dword [edx]
00001F49  0000              add [eax],al
00001F4B  0000              add [eax],al
00001F4D  41                inc ecx
00001F4E  0E                push cs
00001F4F  088502420D05      or [ebp+0x50d4202],al
00001F55  46                inc esi
00001F56  C50C04            lds ecx,[esp+eax]
00001F59  0400              add al,0x0
00001F5B  001C00            add [eax+eax],bl
00001F5E  0000              add [eax],al
00001F60  BC060000F6        mov esp,0xf6000006
00001F65  F4                hlt
00001F66  FF                db 0xFF
00001F67  FF21              jmp near [ecx]
00001F69  0000              add [eax],al
00001F6B  0000              add [eax],al
00001F6D  41                inc ecx
00001F6E  0E                push cs
00001F6F  088502420D05      or [ebp+0x50d4202],al
00001F75  5D                pop ebp
00001F76  C50C04            lds ecx,[esp+eax]
00001F79  0400              add al,0x0
00001F7B  001C00            add [eax+eax],bl
00001F7E  0000              add [eax],al
00001F80  DC06              fadd qword [esi]
00001F82  0000              add [eax],al
00001F84  F7F4              div esp
00001F86  FF                db 0xFF
00001F87  FF5500            call near [ebp+0x0]
00001F8A  0000              add [eax],al
00001F8C  00410E            add [ecx+0xe],al
00001F8F  088502420D05      or [ebp+0x50d4202],al
00001F95  0251C5            add dl,[ecx-0x3b]
00001F98  0C04              or al,0x4
00001F9A  0400              add al,0x0
00001F9C  1C00              sbb al,0x0
00001F9E  0000              add [eax],al
00001FA0  FC                cld
00001FA1  06                push es
00001FA2  0000              add [eax],al
00001FA4  2CF5              sub al,0xf5
00001FA6  FF                db 0xFF
00001FA7  FF21              jmp near [ecx]
00001FA9  0000              add [eax],al
00001FAB  0000              add [eax],al
00001FAD  41                inc ecx
00001FAE  0E                push cs
00001FAF  088502420D05      or [ebp+0x50d4202],al
00001FB5  5D                pop ebp
00001FB6  C50C04            lds ecx,[esp+eax]
00001FB9  0400              add al,0x0
00001FBB  0020              add [eax],ah
00001FBD  0000              add [eax],al
00001FBF  001C07            add [edi+eax],bl
00001FC2  0000              add [eax],al
00001FC4  2DF5FFFF38        sub eax,0x38fffff5
00001FC9  0000              add [eax],al
00001FCB  0000              add [eax],al
00001FCD  41                inc ecx
00001FCE  0E                push cs
00001FCF  088502420D05      or [ebp+0x50d4202],al
00001FD5  44                inc esp
00001FD6  83036F            add dword [ebx],byte +0x6f
00001FD9  C3                ret
00001FDA  41                inc ecx
00001FDB  C50C04            lds ecx,[esp+eax]
00001FDE  0400              add al,0x0
00001FE0  2400              and al,0x0
00001FE2  0000              add [eax],al
00001FE4  40                inc eax
00001FE5  07                pop es
00001FE6  0000              add [eax],al
00001FE8  41                inc ecx
00001FE9  F5                cmc
00001FEA  FF                db 0xFF
00001FEB  FF440000          inc dword [eax+eax+0x0]
00001FEF  0000              add [eax],al
00001FF1  41                inc ecx
00001FF2  0E                push cs
00001FF3  088502420D05      or [ebp+0x50d4202],al
00001FF9  45                inc ebp
00001FFA  8603              xchg al,[ebx]
00001FFC  830479C3          add dword [ecx+edi*2],byte -0x3d
00002000  41                inc ecx
00002001  C641C50C          mov byte [ecx-0x3b],0xc
00002005  0404              add al,0x4
00002007  001C00            add [eax+eax],bl
0000200A  0000              add [eax],al
0000200C  680700005D        push dword 0x5d000007
00002011  F5                cmc
00002012  FF                db 0xFF
00002013  FF2500000000      jmp near [0x0]
00002019  41                inc ecx
0000201A  0E                push cs
0000201B  088502420D05      or [ebp+0x50d4202],al
00002021  61                popa
00002022  C50C04            lds ecx,[esp+eax]
00002025  0400              add al,0x0
00002027  001C00            add [eax+eax],bl
0000202A  0000              add [eax],al
0000202C  8807              mov [edi],al
0000202E  0000              add [eax],al
00002030  62                db 0x62
00002031  F5                cmc
00002032  FF                db 0xFF
00002033  FF4900            dec dword [ecx+0x0]
00002036  0000              add [eax],al
00002038  00410E            add [ecx+0xe],al
0000203B  088502420D05      or [ebp+0x50d4202],al
00002041  0245C5            add al,[ebp-0x3b]
00002044  0C04              or al,0x4
00002046  0400              add al,0x0
00002048  1C00              sbb al,0x0
0000204A  0000              add [eax],al
0000204C  A807              test al,0x7
0000204E  0000              add [eax],al
00002050  20EB              and bl,ch
00002052  FF                db 0xFF
00002053  FF                db 0xFF
00002054  3F                aas
00002055  0000              add [eax],al
00002057  0000              add [eax],al
00002059  41                inc ecx
0000205A  0E                push cs
0000205B  088502420D05      or [ebp+0x50d4202],al
00002061  7BC5              jpo 0x2028
00002063  0C04              or al,0x4
00002065  0400              add al,0x0
00002067  001C00            add [eax+eax],bl
0000206A  0000              add [eax],al
0000206C  C8070000          enter 0x7,0x0
00002070  3F                aas
00002071  EBFF              jmp short 0x2072
00002073  FF1C00            call far [eax+eax]
00002076  0000              add [eax],al
00002078  00410E            add [ecx+0xe],al
0000207B  088502420D05      or [ebp+0x50d4202],al
00002081  58                pop eax
00002082  C50C04            lds ecx,[esp+eax]
00002085  0400              add al,0x0
00002087  0000              add [eax],al
00002089  0000              add [eax],al
0000208B  00FF              add bh,bh
0000208D  FF01              inc dword [ecx]
0000208F  262105B4030042    and [es:0x420003b4],eax
00002096  31B203007D05      xor [edx+0x57d0003],esi
0000209C  A003009501        mov al,[0x1950003]
000020A1  059C0300F2        add eax,0xf200039c
000020A6  0205A00300FE      add al,[0xfe0003a0]
000020AC  0205B20300B7      add al,[0xb70003b2]
000020B2  03050000FFFF      add eax,[0xffff0000]
000020B8  010C28            add [eax+ebp],ecx
000020BB  053A003305        add eax,0x533003a
000020C0  0000              add [eax],al
000020C2  4C                dec esp
000020C3  050000FFFF        add eax,0xffff0000
000020C8  0108              add [eax],ecx
000020CA  300542005405      xor [0x5540042],al
000020D0  0000              add [eax],al
000020D2  0000              add [eax],al
000020D4  FF00              inc dword [eax]
000020D6  25011A7B74        and eax,0x747b1a01
000020DB  0000              add [eax],al
000020DD  D6                salc
000020DE  0243A9            add al,[ebx-0x57]
000020E1  0401              add al,0x1
000020E3  BD03330000        mov ebp,0x3303
000020E8  A4                movsb
000020E9  0405              add al,0x5
000020EB  0000              add [eax],al
000020ED  D00446            rol byte [esi+eax*2],1
000020F0  98                cwde
000020F1  0400              add al,0x0
000020F3  0100              add [eax],eax
000020F5  0000              add [eax],al
000020F7  0000              add [eax],al
000020F9  0000              add [eax],al
000020FB  00FF              add bh,bh
000020FD  FF                db 0xFF
000020FE  FF                db 0xFF
000020FF  FFAF8B040800      jmp far [edi+0x8048b]
00002105  0000              add [eax],al
00002107  00FF              add bh,bh
00002109  FF                db 0xFF
0000210A  FF                db 0xFF
0000210B  FF00              inc dword [eax]
0000210D  0000              add [eax],al
0000210F  0000              add [eax],al
00002111  0000              add [eax],al
00002113  0001              add [ecx],al
00002115  0000              add [eax],al
00002117  0001              add [ecx],al
00002119  0000              add [eax],al
0000211B  0001              add [ecx],al
0000211D  0000              add [eax],al
0000211F  0036              add [esi],dh
00002121  0100              add [eax],eax
00002123  0001              add [ecx],al
00002125  0000              add [eax],al
00002127  004001            add [eax+0x1],al
0000212A  0000              add [eax],al
0000212C  0100              add [eax],eax
0000212E  0000              add [eax],al
00002130  5D                pop ebp
00002131  0100              add [eax],eax
00002133  000C00            add [eax+eax],cl
00002136  0000              add [eax],al
00002138  C8860408          enter 0x486,0x8
0000213C  0D00000078        or eax,0x78000000
00002141  96                xchg eax,esi
00002142  0408              add al,0x8
00002144  0400              add al,0x0
00002146  0000              add [eax],al
00002148  6881040805        push dword 0x5080481
0000214D  0000              add [eax],al
0000214F  00948304080600    add [ebx+eax*4+0x60804],dl
00002156  0000              add [eax],al
00002158  1482              adc al,0x82
0000215A  0408              add al,0x8
0000215C  0A00              or al,[eax]
0000215E  0000              add [eax],al
00002160  E101              loope 0x2163
00002162  0000              add [eax],al
00002164  0B00              or eax,[eax]
00002166  0000              add [eax],al
00002168  1000              adc [eax],al
0000216A  0000              add [eax],al
0000216C  1500000000        adc eax,0x0
00002171  0000              add [eax],al
00002173  0003              add [ebx],al
00002175  0000              add [eax],al
00002177  00F8              add al,bh
00002179  B104              mov cl,0x4
0000217B  0802              or [edx],al
0000217D  0000              add [eax],al
0000217F  009000000014      add [eax+0x14000000],dl
00002185  0000              add [eax],al
00002187  0011              add [ecx],dl
00002189  0000              add [eax],al
0000218B  0017              add [edi],dl
0000218D  0000              add [eax],al
0000218F  0038              add [eax],bh
00002191  860408            xchg al,[eax+ecx]
00002194  1100              adc [eax],eax
00002196  0000              add [eax],al
00002198  288604081200      sub [esi+0x120804],al
0000219E  0000              add [eax],al
000021A0  1000              adc [eax],al
000021A2  0000              add [eax],al
000021A4  1300              adc eax,[eax]
000021A6  0000              add [eax],al
000021A8  0800              or [eax],al
000021AA  0000              add [eax],al
000021AC  FE                db 0xFE
000021AD  FF                db 0xFF
000021AE  FF6FA8            jmp far [edi-0x58]
000021B1  850408            test [eax+ecx],eax
000021B4  FF                db 0xFF
000021B5  FF                db 0xFF
000021B6  FF6F03            jmp far [edi+0x3]
000021B9  0000              add [eax],al
000021BB  00F0              add al,dh
000021BD  FF                db 0xFF
000021BE  FF6F76            jmp far [edi+0x76]
000021C1  850408            test [eax+ecx],eax
000021C4  0000              add [eax],al
000021C6  0000              add [eax],al
000021C8  0000              add [eax],al
000021CA  0000              add [eax],al
000021CC  0000              add [eax],al
000021CE  0000              add [eax],al
000021D0  0000              add [eax],al
000021D2  0000              add [eax],al
000021D4  0000              add [eax],al
000021D6  0000              add [eax],al
000021D8  0000              add [eax],al
000021DA  0000              add [eax],al
000021DC  0000              add [eax],al
000021DE  0000              add [eax],al
000021E0  0000              add [eax],al
000021E2  0000              add [eax],al
000021E4  0000              add [eax],al
000021E6  0000              add [eax],al
000021E8  0000              add [eax],al
000021EA  0000              add [eax],al
000021EC  0000              add [eax],al
000021EE  0000              add [eax],al
000021F0  0000              add [eax],al
000021F2  0000              add [eax],al
000021F4  0000              add [eax],al
000021F6  0000              add [eax],al
000021F8  14B1              adc al,0xb1
000021FA  0408              add al,0x8
000021FC  0000              add [eax],al
000021FE  0000              add [eax],al
00002200  0000              add [eax],al
00002202  0000              add [eax],al
00002204  16                push ss
00002205  870408            xchg eax,[eax+ecx]
00002208  26870408          xchg eax,[es:eax+ecx]
0000220C  36870408          xchg eax,[ss:eax+ecx]
00002210  46                inc esi
00002211  870408            xchg eax,[eax+ecx]
00002214  56                push esi
00002215  870408            xchg eax,[eax+ecx]
00002218  66870408          xchg ax,[eax+ecx]
0000221C  7687              jna 0x21a5
0000221E  0408              add al,0x8
00002220  868704089687      xchg al,[edi+0x87960804]
00002226  0408              add al,0x8
00002228  A6                cmpsb
00002229  870408            xchg eax,[eax+ecx]
0000222C  B687              mov dh,0x87
0000222E  0408              add al,0x8
00002230  C6870408D68704    mov byte [edi+0x87d60804],0x4
00002237  08E6              or dh,ah
00002239  870408            xchg eax,[eax+ecx]
0000223C  F6870408068804    test byte [edi+0x88060804],0x4
00002243  0816              or [esi],dl
00002245  880408            mov [eax+ecx],al
00002248  26880408          mov [es:eax+ecx],al
0000224C  0000              add [eax],al
0000224E  0000              add [eax],al
00002250  0000              add [eax],al
00002252  0000              add [eax],al
00002254  47                inc edi
00002255  43                inc ebx
00002256  43                inc ebx
00002257  3A20              cmp ah,[eax]
00002259  285562            sub [ebp+0x62],dl
0000225C  756E              jnz 0x22cc
0000225E  7475              jz 0x22d5
00002260  20342E            and [esi+ebp],dh
00002263  342E              xor al,0x2e
00002265  332D34756275      xor ebp,[0x75627534]
0000226B  6E                outsb
0000226C  7475              jz 0x22e3
0000226E  352920342E        xor eax,0x2e342029
00002273  342E              xor al,0x2e
00002275  3300              xor eax,[eax]
00002277  47                inc edi
00002278  43                inc ebx
00002279  43                inc ebx
0000227A  3A20              cmp ah,[eax]
0000227C  28474E            sub [edi+0x4e],al
0000227F  55                push ebp
00002280  2920              sub [eax],esp
00002282  342E              xor al,0x2e
00002284  382E              cmp [esi],ch
00002286  3100              xor [eax],eax
00002288  1C00              sbb al,0x0
0000228A  0000              add [eax],al
0000228C  0200              add al,[eax]
0000228E  0000              add [eax],al
00002290  0000              add [eax],al
00002292  0400              add al,0x0
00002294  0000              add [eax],al
00002296  0000              add [eax],al
00002298  308804082200      xor [eax+0x220804],cl
0000229E  0000              add [eax],al
000022A0  0000              add [eax],al
000022A2  0000              add [eax],al
000022A4  0000              add [eax],al
000022A6  0000              add [eax],al
000022A8  1C00              sbb al,0x0
000022AA  0000              add [eax],al
000022AC  0200              add al,[eax]
000022AE  0E                push cs
000022AF  0100              add [eax],eax
000022B1  000400            add [eax+eax],al
000022B4  0000              add [eax],al
000022B6  0000              add [eax],al
000022B8  E095              loopne 0x224f
000022BA  0408              add al,0x8
000022BC  6A00              push byte +0x0
000022BE  0000              add [eax],al
000022C0  0000              add [eax],al
000022C2  0000              add [eax],al
000022C4  0000              add [eax],al
000022C6  0000              add [eax],al
000022C8  2100              and [eax],eax
000022CA  0000              add [eax],al
000022CC  0200              add al,[eax]
000022CE  810000008D00      add dword [eax],0x8d0000
000022D4  0000              add [eax],al
000022D6  7500              jnz 0x22d8
000022D8  0000              add [eax],al
000022DA  5F                pop edi
000022DB  49                dec ecx
000022DC  4F                dec edi
000022DD  5F                pop edi
000022DE  7374              jnc 0x2354
000022E0  64696E5F75736564  imul ebp,[fs:esi+0x5f],dword 0x64657375
000022E8  0000              add [eax],al
000022EA  0000              add [eax],al
000022EC  0036              add [esi],dh
000022EE  0000              add [eax],al
000022F0  0002              add [edx],al
000022F2  000E              add [esi],cl
000022F4  0100              add [eax],eax
000022F6  0013              add [ebx],dl
000022F8  0100              add [eax],eax
000022FA  003E              add [esi],bh
000022FC  0000              add [eax],al
000022FE  005F5F            add [edi+0x5f],bl
00002301  6C                insb
00002302  6962635F637375    imul esp,[edx+0x63],dword 0x7573635f
00002309  5F                pop edi
0000230A  66696E690053      imul bp,[esi+0x69],word 0x5300
00002310  0000              add [eax],al
00002312  005F5F            add [edi+0x5f],bl
00002315  6C                insb
00002316  6962635F637375    imul esp,[edx+0x63],dword 0x7573635f
0000231D  5F                pop edi
0000231E  696E6974000000    imul ebp,[esi+0x69],dword 0x74
00002325  0000              add [eax],al
00002327  7D00              jnl 0x2329
00002329  0000              add [eax],al
0000232B  0200              add al,[eax]
0000232D  0000              add [eax],al
0000232F  0000              add [eax],al
00002331  0401              add al,0x1
00002333  0000              add [eax],al
00002335  0000              add [eax],al
00002337  308804085288      xor [eax+0x88520804],cl
0000233D  0408              add al,0x8
0000233F  2E2E2F            cs das
00002342  7379              jnc 0x23bd
00002344  7364              jnc 0x23aa
00002346  657073            gs jo 0x23bc
00002349  2F                das
0000234A  693338362F65      imul esi,[ebx],dword 0x652f3638
00002350  6C                insb
00002351  662F              o16 das
00002353  7374              jnc 0x23c9
00002355  61                popa
00002356  7274              jc 0x23cc
00002358  2E53              cs push ebx
0000235A  002F              add [edi],ch
0000235C  686F6D652F        push dword 0x2f656d6f
00002361  7069              jo 0x23cc
00002363  657272            gs jc 0x23d8
00002366  652F              gs das
00002368  42                inc edx
00002369  7572              jnz 0x23dd
0000236B  6561              gs popa
0000236D  752F              jnz 0x239e
0000236F  6865616465        push dword 0x65646165
00002374  7273              jc 0x23e9
00002376  2D676C6962        sub eax,0x62696c67
0000237B  632D666F722D      arpl [0x2d726f66],bp
00002381  6C                insb
00002382  696E75782F676C    imul ebp,[esi+0x75],dword 0x6c672f78
00002389  6962632D322E31    imul esp,[edx+0x63],dword 0x312e322d
00002390  322E              xor ch,[esi]
00002392  322F              xor ch,[edi]
00002394  637375            arpl [ebx+0x75],si
00002397  00474E            add [edi+0x4e],al
0000239A  55                push ebp
0000239B  204153            and [ecx+0x53],al
0000239E  2032              and [edx],dh
000023A0  2E3230            xor dh,[cs:eax]
000023A3  2E3100            xor [cs:eax],eax
000023A6  018089000000      add [eax+0x89],eax
000023AC  0200              add al,[eax]
000023AE  1400              adc al,0x0
000023B0  0000              add [eax],al
000023B2  0401              add al,0x1
000023B4  8E00              mov es,[eax]
000023B6  0000              add [eax],al
000023B8  01CD              add ebp,ecx
000023BA  0000              add [eax],al
000023BC  004300            add [ebx+0x0],al
000023BF  0000              add [eax],al
000023C1  54                push esp
000023C2  880408            mov [eax+ecx],al
000023C5  54                push esp
000023C6  880408            mov [eax+ecx],al
000023C9  5B                pop ebx
000023CA  0000              add [eax],al
000023CC  0002              add [edx],al
000023CE  0108              add [eax],ecx
000023D0  800000            add byte [eax],0x0
000023D3  0002              add [edx],al
000023D5  0207              add al,[edi]
000023D7  0000              add [eax],al
000023D9  0000              add [eax],al
000023DB  020407            add al,[edi+eax]
000023DE  360000            add [ss:eax],al
000023E1  0002              add [edx],al
000023E3  0407              add al,0x7
000023E5  3100              xor [eax],eax
000023E7  0000              add [eax],al
000023E9  0201              add al,[ecx]
000023EB  06                push es
000023EC  82                db 0x82
000023ED  0000              add [eax],al
000023EF  0002              add [edx],al
000023F1  020513000000      add al,[0x13]
000023F7  030405696E7400    add eax,[eax+0x746e69]
000023FE  0208              add cl,[eax]
00002400  059A000000        add eax,0x9a
00002405  0208              add cl,[eax]
00002407  07                pop es
00002408  2C00              sub al,0x0
0000240A  0000              add [eax],al
0000240C  0204059F000000    add al,[eax+0x9f]
00002413  0404              add al,0x4
00002415  07                pop es
00002416  0201              add al,[ecx]
00002418  06                push es
00002419  8900              mov [eax],eax
0000241B  0000              add [eax],al
0000241D  051D000000        add eax,0x1d
00002422  0119              add [ecx],ebx
00002424  8700              xchg eax,[eax]
00002426  0000              add [eax],al
00002428  010503989604      add [0x4969803],eax
0000242E  0806              or [esi],al
00002430  4F                dec edi
00002431  0000              add [eax],al
00002433  0000              add [eax],al
00002435  0F0100            sgdt [eax]
00002438  0002              add [edx],al
0000243A  005F00            add [edi+0x0],bl
0000243D  0000              add [eax],al
0000243F  0401              add al,0x1
00002441  8E00              mov es,[eax]
00002443  0000              add [eax],al
00002445  01C9              add ecx,ecx
00002447  0000              add [eax],al
00002449  004300            add [ebx+0x0],al
0000244C  0000              add [eax],al
0000244E  E095              loopne 0x23e5
00002450  0408              add al,0x8
00002452  4A                dec edx
00002453  96                xchg eax,esi
00002454  0408              add al,0x8
00002456  82                db 0x82
00002457  0000              add [eax],al
00002459  0002              add [edx],al
0000245B  0405              add al,0x5
0000245D  696E740003AD00    imul ebp,[esi+0x74],dword 0xad0300
00002464  0000              add [eax],al
00002466  02D3              add dl,bl
00002468  37                aaa
00002469  0000              add [eax],al
0000246B  000404            add [esp+eax],al
0000246E  07                pop es
0000246F  360000            add [ss:eax],al
00002472  000501FD0000      add [0xfd01],al
00002478  0001              add [ecx],al
0000247A  8301E0            add dword [ecx],byte -0x20
0000247D  95                xchg eax,ebp
0000247E  0408              add al,0x8
00002480  E595              in eax,0x95
00002482  0408              add al,0x8
00002484  0000              add [eax],al
00002486  0000              add [eax],al
00002488  06                push es
00002489  01B900000001      add [ecx+0x1000000],edi
0000248F  6901F0950408      imul eax,[ecx],dword 0x80495f0
00002495  4A                dec edx
00002496  96                xchg eax,esi
00002497  0408              add al,0x8
00002499  2C00              sub al,0x0
0000249B  0000              add [eax],al
0000249D  B900000007        mov ecx,0x7000000
000024A2  B400              mov ah,0x0
000024A4  0000              add [eax],al
000024A6  016925            add [ecx+0x25],ebp
000024A9  0000              add [eax],al
000024AB  0002              add [edx],al
000024AD  91                xchg eax,ecx
000024AE  0007              add [edi],al
000024B0  0D01000001        or eax,0x1000001
000024B5  69B9000000029104  imul edi,[ecx+0x2000000],dword 0xa8070491
         -07A8
000024BF  0000              add [eax],al
000024C1  0001              add [ecx],al
000024C3  69B9000000029108  imul edi,[ecx+0x2000000],dword 0xe7080891
         -08E7
000024CD  0000              add [eax],al
000024CF  0001              add [ecx],al
000024D1  7ACC              jpe 0x249f
000024D3  0000              add [eax],al
000024D5  0009              add [ecx],cl
000024D7  099604084296      or [esi+0x96420804],edx
000024DD  0408              add al,0x8
000024DF  0A6900            or ch,[ecx+0x0]
000024E2  017B2C            add [ebx+0x2c],edi
000024E5  0000              add [eax],al
000024E7  005800            add [eax+0x0],bl
000024EA  0000              add [eax],al
000024EC  0000              add [eax],al
000024EE  0B04BF            or eax,[edi+edi*4]
000024F1  0000              add [eax],al
000024F3  000B              add [ebx],cl
000024F5  04C5              add al,0xc5
000024F7  0000              add [eax],al
000024F9  000401            add [ecx+eax],al
000024FC  06                push es
000024FD  8900              mov [eax],eax
000024FF  0000              add [eax],al
00002501  0C2C              or al,0x2c
00002503  0000              add [eax],al
00002505  000DF2000000      add [0xf2],cl
0000250B  DC00              fadd qword [eax]
0000250D  0000              add [eax],al
0000250F  0E                push cs
00002510  000F              add [edi],cl
00002512  01F2              add edx,esi
00002514  0000              add [eax],al
00002516  0010              add [eax],dl
00002518  2500000010        and eax,0x10000000
0000251D  B900000010        mov ecx,0x10000000
00002522  B900000000        mov ecx,0x0
00002527  0B04DC            or eax,[esp+ebx*8]
0000252A  0000              add [eax],al
0000252C  0011              add [ecx],dl
0000252E  D400              aam 0x0
00002530  0000              add [eax],al
00002532  013B              add [ebx],edi
00002534  D100              rol dword [eax],1
00002536  0000              add [eax],al
00002538  0101              add [ecx],eax
0000253A  11EC              adc esp,ebp
0000253C  0000              add [eax],al
0000253E  0001              add [ecx],al
00002540  3DD1000000        cmp eax,0xd1
00002545  0101              add [ecx],eax
00002547  0001              add [ecx],al
00002549  1100              adc [eax],eax
0000254B  1006              adc [esi],al
0000254D  1101              adc [ecx],eax
0000254F  1201              adc al,[ecx]
00002551  0308              add ecx,[eax]
00002553  1B08              sbb ecx,[eax]
00002555  2508130500        and eax,0x51308
0000255A  0000              add [eax],al
0000255C  0111              add [ecx],edx
0000255E  01250E130B03      add [0x30b130e],esp
00002564  0E                push cs
00002565  1B0E              sbb ecx,[esi]
00002567  1101              adc [ecx],eax
00002569  1201              adc al,[ecx]
0000256B  1006              adc [esi],al
0000256D  0000              add [eax],al
0000256F  022400            add ah,[eax+eax]
00002572  0B0B              or ecx,[ebx]
00002574  3E0B03            or eax,[ds:ebx]
00002577  0E                push cs
00002578  0000              add [eax],al
0000257A  032400            add esp,[eax+eax]
0000257D  0B0B              or ecx,[ebx]
0000257F  3E0B03            or eax,[ds:ebx]
00002582  0800              or [eax],al
00002584  000424            add [esp],al
00002587  000B              add [ebx],cl
00002589  0B3E              or edi,[esi]
0000258B  0B00              or eax,[eax]
0000258D  00053400030E      add [0xe030034],al
00002593  3A0B              cmp cl,[ebx]
00002595  3B0B              cmp ecx,[ebx]
00002597  49                dec ecx
00002598  133F              adc edi,[edi]
0000259A  0C02              or al,0x2
0000259C  0A00              or al,[eax]
0000259E  0006              add [esi],al
000025A0  26004913          add [es:ecx+0x13],cl
000025A4  0000              add [eax],al
000025A6  0001              add [ecx],al
000025A8  1101              adc [ecx],eax
000025AA  250E130B03        and eax,0x30b130e
000025AF  0E                push cs
000025B0  1B0E              sbb ecx,[esi]
000025B2  1101              adc [ecx],eax
000025B4  1201              adc al,[ecx]
000025B6  1006              adc [esi],al
000025B8  0000              add [eax],al
000025BA  022400            add ah,[eax+eax]
000025BD  0B0B              or ecx,[ebx]
000025BF  3E0B03            or eax,[ds:ebx]
000025C2  0800              or [eax],al
000025C4  0003              add [ebx],al
000025C6  16                push ss
000025C7  0003              add [ebx],al
000025C9  0E                push cs
000025CA  3A0B              cmp cl,[ebx]
000025CC  3B0B              cmp ecx,[ebx]
000025CE  49                dec ecx
000025CF  1300              adc eax,[eax]
000025D1  000424            add [esp],al
000025D4  000B              add [ebx],cl
000025D6  0B3E              or edi,[esi]
000025D8  0B03              or eax,[ebx]
000025DA  0E                push cs
000025DB  0000              add [eax],al
000025DD  052E003F0C        add eax,0xc3f002e
000025E2  030E              add ecx,[esi]
000025E4  3A0B              cmp cl,[ebx]
000025E6  3B0B              cmp ecx,[ebx]
000025E8  27                daa
000025E9  0C11              or al,0x11
000025EB  0112              add [edx],edx
000025ED  014006            add [eax+0x6],eax
000025F0  0000              add [eax],al
000025F2  06                push es
000025F3  2E013F            add [cs:edi],edi
000025F6  0C03              or al,0x3
000025F8  0E                push cs
000025F9  3A0B              cmp cl,[ebx]
000025FB  3B0B              cmp ecx,[ebx]
000025FD  27                daa
000025FE  0C11              or al,0x11
00002600  0112              add [edx],edx
00002602  014006            add [eax+0x6],eax
00002605  0113              add [ebx],edx
00002607  0000              add [eax],al
00002609  07                pop es
0000260A  0500030E3A        add eax,0x3a0e0300
0000260F  0B3B              or edi,[ebx]
00002611  0B4913            or ecx,[ecx+0x13]
00002614  020A              add cl,[edx]
00002616  0000              add [eax],al
00002618  083400            or [eax+eax],dh
0000261B  030E              add ecx,[esi]
0000261D  3A0B              cmp cl,[ebx]
0000261F  3B0B              cmp ecx,[ebx]
00002621  49                dec ecx
00002622  1300              adc eax,[eax]
00002624  0009              add [ecx],cl
00002626  0B01              or eax,[ecx]
00002628  1101              adc [ecx],eax
0000262A  1201              adc al,[ecx]
0000262C  0000              add [eax],al
0000262E  0A3400            or dh,[eax+eax]
00002631  0308              add ecx,[eax]
00002633  3A0B              cmp cl,[ebx]
00002635  3B0B              cmp ecx,[ebx]
00002637  49                dec ecx
00002638  1302              adc eax,[edx]
0000263A  06                push es
0000263B  0000              add [eax],al
0000263D  0B0F              or ecx,[edi]
0000263F  000B              add [ebx],cl
00002641  0B4913            or ecx,[ecx+0x13]
00002644  0000              add [eax],al
00002646  0C26              or al,0x26
00002648  004913            add [ecx+0x13],cl
0000264B  0000              add [eax],al
0000264D  0D01014913        or eax,0x13490101
00002652  0113              add [ebx],edx
00002654  0000              add [eax],al
00002656  0E                push cs
00002657  2100              and [eax],eax
00002659  0000              add [eax],al
0000265B  0F1501            unpckhps xmm0,[ecx]
0000265E  27                daa
0000265F  0C01              or al,0x1
00002661  1300              adc eax,[eax]
00002663  0010              add [eax],dl
00002665  0500491300        add eax,0x134900
0000266A  0011              add [ecx],dl
0000266C  3400              xor al,0x0
0000266E  030E              add ecx,[esi]
00002670  3A0B              cmp cl,[ebx]
00002672  3B0B              cmp ecx,[ebx]
00002674  49                dec ecx
00002675  133F              adc edi,[edi]
00002677  0C3C              or al,0x3c
00002679  0C00              or al,0x0
0000267B  0000              add [eax],al
0000267D  57                push edi
0000267E  0000              add [eax],al
00002680  0002              add [edx],al
00002682  0032              add [edx],dh
00002684  0000              add [eax],al
00002686  0001              add [ecx],al
00002688  01FB              add ebx,edi
0000268A  0E                push cs
0000268B  0D00010101        or eax,0x1010100
00002690  0100              add [eax],eax
00002692  0000              add [eax],al
00002694  0100              add [eax],eax
00002696  0001              add [ecx],al
00002698  2E2E2F            cs das
0000269B  7379              jnc 0x2716
0000269D  7364              jnc 0x2703
0000269F  657073            gs jo 0x2715
000026A2  2F                das
000026A3  693338362F65      imul esi,[ebx],dword 0x652f3638
000026A9  6C                insb
000026AA  660000            o16 add [eax],al
000026AD  7374              jnc 0x2723
000026AF  61                popa
000026B0  7274              jc 0x2726
000026B2  2E53              cs push ebx
000026B4  0001              add [ecx],al
000026B6  0000              add [eax],al
000026B8  0000              add [eax],al
000026BA  0502308804        add eax,0x4883002
000026BF  0803              or [ebx],al
000026C1  C00001            rol byte [eax],0x1
000026C4  3321              xor esp,[ecx]
000026C6  343D              xor al,0x3d
000026C8  2522031820        and eax,0x20180322
000026CD  59                pop ecx
000026CE  5A                pop edx
000026CF  2122              and [edx],esp
000026D1  5C                pop esp
000026D2  5B                pop ebx
000026D3  0201              add al,[ecx]
000026D5  0001              add [ecx],al
000026D7  0123              add [ebx],esp
000026D9  0000              add [eax],al
000026DB  0002              add [edx],al
000026DD  001D00000001      add [0x1000000],bl
000026E3  01FB              add ebx,edi
000026E5  0E                push cs
000026E6  0D00010101        or eax,0x1010100
000026EB  0100              add [eax],eax
000026ED  0000              add [eax],al
000026EF  0100              add [eax],eax
000026F1  0001              add [ecx],al
000026F3  00696E            add [ecx+0x6e],ch
000026F6  69742E6300000000  imul esi,[esi+ebp+0x63],dword 0x0
000026FE  007B00            add [ebx+0x0],bh
00002701  0000              add [eax],al
00002703  0200              add al,[eax]
00002705  57                push edi
00002706  0000              add [eax],al
00002708  0001              add [ecx],al
0000270A  01FB              add ebx,edi
0000270C  0E                push cs
0000270D  0D00010101        or eax,0x1010100
00002712  0100              add [eax],eax
00002714  0000              add [eax],al
00002716  0100              add [eax],eax
00002718  0001              add [ecx],al
0000271A  2F                das
0000271B  7573              jnz 0x2790
0000271D  722F              jc 0x274e
0000271F  6C                insb
00002720  69622F6763632F    imul esp,[edx+0x2f],dword 0x2f636367
00002727  693438362D6C69    imul esi,[eax+edi],dword 0x696c2d36
0000272E  6E                outsb
0000272F  7578              jnz 0x27a9
00002731  2D676E752F        sub eax,0x2f756e67
00002736  342E              xor al,0x2e
00002738  342E              xor al,0x2e
0000273A  332F              xor ebp,[edi]
0000273C  696E636C756465    imul ebp,[esi+0x63],dword 0x6564756c
00002743  0000              add [eax],al
00002745  656C              gs insb
00002747  662D696E          sub ax,0x6e69
0000274B  69742E6300000000  imul esi,[esi+ebp+0x63],dword 0x0
00002753  7374              jnc 0x27c9
00002755  646465662E680001  cs push word 0x100
0000275D  0000              add [eax],al
0000275F  0000              add [eax],al
00002761  0502E09504        add eax,0x495e002
00002766  0803              or [ebx],al
00002768  830101            add dword [ecx],byte +0x1
0000276B  44                inc esp
0000276C  035EC8            add ebx,[esi-0x38]
0000276F  030E              add ecx,[esi]
00002771  083C5B            or [ebx+ebx*2],bh
00002774  086708            or [edi+0x8],ah
00002777  9D                popf
00002778  7602              jna 0x277c
0000277A  0800              or [eax],al
0000277C  0101              add [ecx],eax
0000277E  0000              add [eax],al
00002780  1000              adc [eax],al
00002782  0000              add [eax],al
00002784  FF                db 0xFF
00002785  FF                db 0xFF
00002786  FF                db 0xFF
00002787  FF01              inc dword [ecx]
00002789  0001              add [ecx],al
0000278B  7C08              jl 0x2795
0000278D  0C04              or al,0x4
0000278F  0488              add al,0x88
00002791  0100              add [eax],eax
00002793  001400            add [eax+eax],dl
00002796  0000              add [eax],al
00002798  0000              add [eax],al
0000279A  0000              add [eax],al
0000279C  E095              loopne 0x2733
0000279E  0408              add al,0x8
000027A0  0500000041        add eax,0x41000000
000027A5  0E                push cs
000027A6  084285            or [edx-0x7b],al
000027A9  020D051C0000      add cl,[0x1c05]
000027AF  0000              add [eax],al
000027B1  0000              add [eax],al
000027B3  00F0              add al,dh
000027B5  95                xchg eax,ebp
000027B6  0408              add al,0x8
000027B8  5A                pop edx
000027B9  0000              add [eax],al
000027BB  00410E            add [ecx+0xe],al
000027BE  084285            or [edx-0x7b],al
000027C1  020D054E8305      add cl,[0x5834e05]
000027C7  860487            xchg al,[edi+eax*4]
000027CA  0300              add eax,[eax]
000027CC  7368              jnc 0x2836
000027CE  6F                outsd
000027CF  7274              jc 0x2845
000027D1  20756E            and [ebp+0x6e],dh
000027D4  7369              jnc 0x283f
000027D6  676E              a16 outsb
000027D8  656420696E        and [fs:ecx+0x6e],ch
000027DD  7400              jz 0x27df
000027DF  7368              jnc 0x2849
000027E1  6F                outsd
000027E2  7274              jc 0x2858
000027E4  20696E            and [ecx+0x6e],ch
000027E7  7400              jz 0x27e9
000027E9  5F                pop edi
000027EA  49                dec ecx
000027EB  4F                dec edi
000027EC  5F                pop edi
000027ED  7374              jnc 0x2863
000027EF  64696E5F75736564  imul ebp,[fs:esi+0x5f],dword 0x64657375
000027F7  006C6F6E          add [edi+ebp*2+0x6e],ch
000027FB  67206C6F          and [si+0x6f],ch
000027FF  6E                outsb
00002800  6720756E          and [di+0x6e],dh
00002804  7369              jnc 0x286f
00002806  676E              a16 outsb
00002808  656420696E        and [fs:ecx+0x6e],ch
0000280D  7400              jz 0x280f
0000280F  2F                das
00002810  686F6D652F        push dword 0x2f656d6f
00002815  7069              jo 0x2880
00002817  657272            gs jc 0x288c
0000281A  652F              gs das
0000281C  42                inc edx
0000281D  7572              jnz 0x2891
0000281F  6561              gs popa
00002821  752F              jnz 0x2852
00002823  6865616465        push dword 0x65646165
00002828  7273              jc 0x289d
0000282A  2D676C6962        sub eax,0x62696c67
0000282F  632D666F722D      arpl [0x2d726f66],bp
00002835  6C                insb
00002836  696E75782F676C    imul ebp,[esi+0x75],dword 0x6c672f78
0000283D  6962632D322E31    imul esp,[edx+0x63],dword 0x312e322d
00002844  322E              xor ch,[esi]
00002846  322F              xor ch,[edi]
00002848  637375            arpl [ebx+0x75],si
0000284B  00756E            add [ebp+0x6e],dh
0000284E  7369              jnc 0x28b9
00002850  676E              a16 outsb
00002852  6564206368        and [fs:ebx+0x68],ah
00002857  61                popa
00002858  7200              jc 0x285a
0000285A  47                inc edi
0000285B  4E                dec esi
0000285C  55                push ebp
0000285D  204320            and [ebx+0x20],al
00002860  342E              xor al,0x2e
00002862  342E              xor al,0x2e
00002864  3300              xor eax,[eax]
00002866  6C                insb
00002867  6F                outsd
00002868  6E                outsb
00002869  67206C6F          and [si+0x6f],ch
0000286D  6E                outsb
0000286E  6720696E          and [bx+di+0x6e],ch
00002872  7400              jz 0x2874
00002874  656E              gs outsb
00002876  7670              jna 0x28e8
00002878  007369            add [ebx+0x69],dh
0000287B  7A65              jpe 0x28e2
0000287D  5F                pop edi
0000287E  7400              jz 0x2880
00002880  61                popa
00002881  7267              jc 0x28ea
00002883  6300              arpl [eax],ax
00002885  5F                pop edi
00002886  5F                pop edi
00002887  6C                insb
00002888  6962635F637375    imul esp,[edx+0x63],dword 0x7573635f
0000288F  5F                pop edi
00002890  696E697400656C    imul ebp,[esi+0x69],dword 0x6c650074
00002897  662D696E          sub ax,0x6e69
0000289B  69742E63005F5F69  imul esi,[esi+ebp+0x63],dword 0x695f5f00
000028A3  6E                outsb
000028A4  69745F6172726179  imul esi,[edi+ebx*2+0x61],dword 0x79617272
000028AC  5F                pop edi
000028AD  7374              jnc 0x2923
000028AF  61                popa
000028B0  7274              jc 0x2926
000028B2  007369            add [ebx+0x69],dh
000028B5  7A65              jpe 0x291c
000028B7  005F5F            add [edi+0x5f],bl
000028BA  696E69745F6172    imul ebp,[esi+0x69],dword 0x72615f74
000028C1  7261              jc 0x2924
000028C3  795F              jns 0x2924
000028C5  656E              gs outsb
000028C7  64005F5F          add [fs:edi+0x5f],bl
000028CB  6C                insb
000028CC  6962635F637375    imul esp,[edx+0x63],dword 0x7573635f
000028D3  5F                pop edi
000028D4  66696E690061      imul bp,[esi+0x69],word 0x6100
000028DA  7267              jc 0x2943
000028DC  7600              jna 0x28de
000028DE  0000              add [eax],al
000028E0  0000              add [eax],al
000028E2  0100              add [eax],eax
000028E4  0000              add [eax],al
000028E6  0200              add al,[eax]
000028E8  7404              jz 0x28ee
000028EA  0100              add [eax],eax
000028EC  0000              add [eax],al
000028EE  0300              add eax,[eax]
000028F0  0000              add [eax],al
000028F2  0200              add al,[eax]
000028F4  7408              jz 0x28fe
000028F6  0300              add eax,[eax]
000028F8  0000              add [eax],al
000028FA  0500000002        add eax,0x2000000
000028FF  007508            add [ebp+0x8],dh
00002902  0000              add [eax],al
00002904  0000              add [eax],al
00002906  0000              add [eax],al
00002908  0000              add [eax],al
0000290A  1000              adc [eax],al
0000290C  0000              add [eax],al
0000290E  1100              adc [eax],eax
00002910  0000              add [eax],al
00002912  0200              add al,[eax]
00002914  7404              jz 0x291a
00002916  1100              adc [eax],eax
00002918  0000              add [eax],al
0000291A  1300              adc eax,[eax]
0000291C  0000              add [eax],al
0000291E  0200              add al,[eax]
00002920  7408              jz 0x292a
00002922  1300              adc eax,[eax]
00002924  0000              add [eax],al
00002926  6A00              push byte +0x0
00002928  0000              add [eax],al
0000292A  0200              add al,[eax]
0000292C  7508              jnz 0x2936
0000292E  0000              add [eax],al
00002930  0000              add [eax],al
00002932  0000              add [eax],al
00002934  0000              add [eax],al
00002936  40                inc eax
00002937  0000              add [eax],al
00002939  006700            add [edi+0x0],ah
0000293C  0000              add [eax],al
0000293E  0100              add [eax],eax
00002940  56                push esi
00002941  0000              add [eax],al
00002943  0000              add [eax],al
00002945  0000              add [eax],al
00002947  0000              add [eax],al
00002949  002E              add [esi],ch
0000294B  7379              jnc 0x29c6
0000294D  6D                insd
0000294E  7461              jz 0x29b1
00002950  6200              bound eax,[eax]
00002952  2E7374            cs jnc 0x29c9
00002955  7274              jc 0x29cb
00002957  61                popa
00002958  6200              bound eax,[eax]
0000295A  2E7368            cs jnc 0x29c5
0000295D  7374              jnc 0x29d3
0000295F  7274              jc 0x29d5
00002961  61                popa
00002962  6200              bound eax,[eax]
00002964  2E696E7465727000  imul ebp,[cs:esi+0x74],dword 0x707265
0000296C  2E6E              cs outsb
0000296E  6F                outsd
0000296F  7465              jz 0x29d6
00002971  2E41              cs inc ecx
00002973  42                inc edx
00002974  49                dec ecx
00002975  2D74616700        sub eax,0x676174
0000297A  2E6861736800      cs push dword 0x687361
00002980  2E64796E          fs jns 0x29f2
00002984  7379              jnc 0x29ff
00002986  6D                insd
00002987  002E              add [esi],ch
00002989  64796E            fs jns 0x29fa
0000298C  7374              jnc 0x2a02
0000298E  7200              jc 0x2990
00002990  2E676E            cs a16 outsb
00002993  752E              jnz 0x29c3
00002995  7665              jna 0x29fc
00002997  7273              jc 0x2a0c
00002999  696F6E002E676E    imul ebp,[edi+0x6e],dword 0x6e672e00
000029A0  752E              jnz 0x29d0
000029A2  7665              jna 0x2a09
000029A4  7273              jc 0x2a19
000029A6  696F6E5F72002E    imul ebp,[edi+0x6e],dword 0x2e00725f
000029AD  7265              jc 0x2a14
000029AF  6C                insb
000029B0  2E64796E          fs jns 0x2a22
000029B4  002E              add [esi],ch
000029B6  7265              jc 0x2a1d
000029B8  6C                insb
000029B9  2E706C            cs jo 0x2a28
000029BC  7400              jz 0x29be
000029BE  2E696E6974002E74  imul ebp,[cs:esi+0x69],dword 0x742e0074
000029C6  657874            gs js 0x2a3d
000029C9  002E              add [esi],ch
000029CB  66696E69002E      imul bp,[esi+0x69],word 0x2e00
000029D1  726F              jc 0x2a42
000029D3  6461              fs popa
000029D5  7461              jz 0x2a38
000029D7  002E              add [esi],ch
000029D9  65685F667261      gs push dword 0x6172665f
000029DF  6D                insd
000029E0  655F              gs pop edi
000029E2  686472002E        push dword 0x2e007264
000029E7  65685F667261      gs push dword 0x6172665f
000029ED  6D                insd
000029EE  65002E            add [gs:esi],ch
000029F1  6763635F          arpl [bp+di+0x5f],sp
000029F5  657863            gs js 0x2a5b
000029F8  657074            gs jo 0x2a6f
000029FB  5F                pop edi
000029FC  7461              jz 0x2a5f
000029FE  626C6500          bound ebp,[ebp+0x0]
00002A02  2E63746F72        arpl [cs:edi+ebp*2+0x72],si
00002A07  7300              jnc 0x2a09
00002A09  2E64746F          fs jz 0x2a7c
00002A0D  7273              jc 0x2a82
00002A0F  002E              add [esi],ch
00002A11  6A63              push byte +0x63
00002A13  7200              jc 0x2a15
00002A15  2E64796E          fs jns 0x2a87
00002A19  61                popa
00002A1A  6D                insd
00002A1B  6963002E676F74    imul esp,[ebx+0x0],dword 0x746f672e
00002A22  002E              add [esi],ch
00002A24  676F              a16 outsd
00002A26  742E              jz 0x2a56
00002A28  706C              jo 0x2a96
00002A2A  7400              jz 0x2a2c
00002A2C  2E6461            fs popa
00002A2F  7461              jz 0x2a92
00002A31  002E              add [esi],ch
00002A33  627373            bound esi,[ebx+0x73]
00002A36  002E              add [esi],ch
00002A38  636F6D            arpl [edi+0x6d],bp
00002A3B  6D                insd
00002A3C  656E              gs outsb
00002A3E  7400              jz 0x2a40
00002A40  2E6465627567      bound esi,[gs:ebp+0x67]
00002A46  5F                pop edi
00002A47  61                popa
00002A48  7261              jc 0x2aab
00002A4A  6E                outsb
00002A4B  67657300          gs a16 jnc 0x2a4f
00002A4F  2E6465627567      bound esi,[gs:ebp+0x67]
00002A55  5F                pop edi
00002A56  7075              jo 0x2acd
00002A58  626E61            bound ebp,[esi+0x61]
00002A5B  6D                insd
00002A5C  657300            gs jnc 0x2a5f
00002A5F  2E6465627567      bound esi,[gs:ebp+0x67]
00002A65  5F                pop edi
00002A66  696E666F002E64    imul ebp,[esi+0x66],dword 0x642e006f
00002A6D  65627567          bound esi,[gs:ebp+0x67]
00002A71  5F                pop edi
00002A72  61                popa
00002A73  626272            bound esp,[edx+0x72]
00002A76  657600            gs jna 0x2a79
00002A79  2E6465627567      bound esi,[gs:ebp+0x67]
00002A7F  5F                pop edi
00002A80  6C                insb
00002A81  696E65002E6465    imul ebp,[esi+0x65],dword 0x65642e00
00002A88  627567            bound esi,[ebp+0x67]
00002A8B  5F                pop edi
00002A8C  667261            o16 jc 0x2af0
00002A8F  6D                insd
00002A90  65002E            add [gs:esi],ch
00002A93  6465627567        bound esi,[gs:ebp+0x67]
00002A98  5F                pop edi
00002A99  7374              jnc 0x2b0f
00002A9B  7200              jc 0x2a9d
00002A9D  2E6465627567      bound esi,[gs:ebp+0x67]
00002AA3  5F                pop edi
00002AA4  6C                insb
00002AA5  6F                outsd
00002AA6  6300              arpl [eax],ax
00002AA8  0000              add [eax],al
00002AAA  0000              add [eax],al
00002AAC  0000              add [eax],al
00002AAE  0000              add [eax],al
00002AB0  0000              add [eax],al
00002AB2  0000              add [eax],al
00002AB4  0000              add [eax],al
00002AB6  0000              add [eax],al
00002AB8  0000              add [eax],al
00002ABA  0000              add [eax],al
00002ABC  0000              add [eax],al
00002ABE  0000              add [eax],al
00002AC0  0000              add [eax],al
00002AC2  0000              add [eax],al
00002AC4  0000              add [eax],al
00002AC6  0000              add [eax],al
00002AC8  0000              add [eax],al
00002ACA  0000              add [eax],al
00002ACC  0000              add [eax],al
00002ACE  0000              add [eax],al
00002AD0  1B00              sbb eax,[eax]
00002AD2  0000              add [eax],al
00002AD4  0100              add [eax],eax
00002AD6  0000              add [eax],al
00002AD8  0200              add al,[eax]
00002ADA  0000              add [eax],al
00002ADC  3481              xor al,0x81
00002ADE  0408              add al,0x8
00002AE0  3401              xor al,0x1
00002AE2  0000              add [eax],al
00002AE4  1300              adc eax,[eax]
00002AE6  0000              add [eax],al
00002AE8  0000              add [eax],al
00002AEA  0000              add [eax],al
00002AEC  0000              add [eax],al
00002AEE  0000              add [eax],al
00002AF0  0100              add [eax],eax
00002AF2  0000              add [eax],al
00002AF4  0000              add [eax],al
00002AF6  0000              add [eax],al
00002AF8  2300              and eax,[eax]
00002AFA  0000              add [eax],al
00002AFC  07                pop es
00002AFD  0000              add [eax],al
00002AFF  0002              add [edx],al
00002B01  0000              add [eax],al
00002B03  004881            add [eax-0x7f],cl
00002B06  0408              add al,0x8
00002B08  48                dec eax
00002B09  0100              add [eax],eax
00002B0B  0020              add [eax],ah
00002B0D  0000              add [eax],al
00002B0F  0000              add [eax],al
00002B11  0000              add [eax],al
00002B13  0000              add [eax],al
00002B15  0000              add [eax],al
00002B17  000400            add [eax+eax],al
00002B1A  0000              add [eax],al
00002B1C  0000              add [eax],al
00002B1E  0000              add [eax],al
00002B20  3100              xor [eax],eax
00002B22  0000              add [eax],al
00002B24  0500000002        add eax,0x2000000
00002B29  0000              add [eax],al
00002B2B  006881            add [eax-0x7f],ch
00002B2E  0408              add al,0x8
00002B30  68010000AC        push dword 0xac000001
00002B35  0000              add [eax],al
00002B37  000400            add [eax+eax],al
00002B3A  0000              add [eax],al
00002B3C  0000              add [eax],al
00002B3E  0000              add [eax],al
00002B40  0400              add al,0x0
00002B42  0000              add [eax],al
00002B44  0400              add al,0x0
00002B46  0000              add [eax],al
00002B48  37                aaa
00002B49  0000              add [eax],al
00002B4B  000B              add [ebx],cl
00002B4D  0000              add [eax],al
00002B4F  0002              add [edx],al
00002B51  0000              add [eax],al
00002B53  001482            add [edx+eax*4],dl
00002B56  0408              add al,0x8
00002B58  1402              adc al,0x2
00002B5A  0000              add [eax],al
00002B5C  800100            add byte [ecx],0x0
00002B5F  000500000001      add [0x1000000],al
00002B65  0000              add [eax],al
00002B67  000400            add [eax+eax],al
00002B6A  0000              add [eax],al
00002B6C  1000              adc [eax],al
00002B6E  0000              add [eax],al
00002B70  3F                aas
00002B71  0000              add [eax],al
00002B73  0003              add [ebx],al
00002B75  0000              add [eax],al
00002B77  0002              add [edx],al
00002B79  0000              add [eax],al
00002B7B  00948304089403    add [ebx+eax*4+0x3940804],dl
00002B82  0000              add [eax],al
00002B84  E101              loope 0x2b87
00002B86  0000              add [eax],al
00002B88  0000              add [eax],al
00002B8A  0000              add [eax],al
00002B8C  0000              add [eax],al
00002B8E  0000              add [eax],al
00002B90  0100              add [eax],eax
00002B92  0000              add [eax],al
00002B94  0000              add [eax],al
00002B96  0000              add [eax],al
00002B98  47                inc edi
00002B99  0000              add [eax],al
00002B9B  00FF              add bh,bh
00002B9D  FF                db 0xFF
00002B9E  FF6F02            jmp far [edi+0x2]
00002BA1  0000              add [eax],al
00002BA3  007685            add [esi-0x7b],dh
00002BA6  0408              add al,0x8
00002BA8  7605              jna 0x2baf
00002BAA  0000              add [eax],al
00002BAC  3000              xor [eax],al
00002BAE  0000              add [eax],al
00002BB0  0400              add al,0x0
00002BB2  0000              add [eax],al
00002BB4  0000              add [eax],al
00002BB6  0000              add [eax],al
00002BB8  0200              add al,[eax]
00002BBA  0000              add [eax],al
00002BBC  0200              add al,[eax]
00002BBE  0000              add [eax],al
00002BC0  54                push esp
00002BC1  0000              add [eax],al
00002BC3  00FE              add dh,bh
00002BC5  FF                db 0xFF
00002BC6  FF6F02            jmp far [edi+0x2]
00002BC9  0000              add [eax],al
00002BCB  00A8850408A8      add [eax+0xa8080485],ch
00002BD1  0500008000        add eax,0x800000
00002BD6  0000              add [eax],al
00002BD8  0500000003        add eax,0x3000000
00002BDD  0000              add [eax],al
00002BDF  000400            add [eax+eax],al
00002BE2  0000              add [eax],al
00002BE4  0000              add [eax],al
00002BE6  0000              add [eax],al
00002BE8  6300              arpl [eax],ax
00002BEA  0000              add [eax],al
00002BEC  0900              or [eax],eax
00002BEE  0000              add [eax],al
00002BF0  0200              add al,[eax]
00002BF2  0000              add [eax],al
00002BF4  288604082806      sub [esi+0x6280804],al
00002BFA  0000              add [eax],al
00002BFC  1000              adc [eax],al
00002BFE  0000              add [eax],al
00002C00  0400              add al,0x0
00002C02  0000              add [eax],al
00002C04  0000              add [eax],al
00002C06  0000              add [eax],al
00002C08  0400              add al,0x0
00002C0A  0000              add [eax],al
00002C0C  0800              or [eax],al
00002C0E  0000              add [eax],al
00002C10  6C                insb
00002C11  0000              add [eax],al
00002C13  0009              add [ecx],cl
00002C15  0000              add [eax],al
00002C17  0002              add [edx],al
00002C19  0000              add [eax],al
00002C1B  0038              add [eax],bh
00002C1D  860408            xchg al,[eax+ecx]
00002C20  3806              cmp [esi],al
00002C22  0000              add [eax],al
00002C24  90                nop
00002C25  0000              add [eax],al
00002C27  000400            add [eax+eax],al
00002C2A  0000              add [eax],al
00002C2C  0B00              or eax,[eax]
00002C2E  0000              add [eax],al
00002C30  0400              add al,0x0
00002C32  0000              add [eax],al
00002C34  0800              or [eax],al
00002C36  0000              add [eax],al
00002C38  7500              jnz 0x2c3a
00002C3A  0000              add [eax],al
00002C3C  0100              add [eax],eax
00002C3E  0000              add [eax],al
00002C40  06                push es
00002C41  0000              add [eax],al
00002C43  00C8              add al,cl
00002C45  860408            xchg al,[eax+ecx]
00002C48  C8060000          enter 0x6,0x0
00002C4C  3000              xor [eax],al
00002C4E  0000              add [eax],al
00002C50  0000              add [eax],al
00002C52  0000              add [eax],al
00002C54  0000              add [eax],al
00002C56  0000              add [eax],al
00002C58  0400              add al,0x0
00002C5A  0000              add [eax],al
00002C5C  0000              add [eax],al
00002C5E  0000              add [eax],al
00002C60  7000              jo 0x2c62
00002C62  0000              add [eax],al
00002C64  0100              add [eax],eax
00002C66  0000              add [eax],al
00002C68  06                push es
00002C69  0000              add [eax],al
00002C6B  0000              add [eax],al
00002C6D  870408            xchg eax,[eax+ecx]
00002C70  0007              add [edi],al
00002C72  0000              add [eax],al
00002C74  3001              xor [ecx],al
00002C76  0000              add [eax],al
00002C78  0000              add [eax],al
00002C7A  0000              add [eax],al
00002C7C  0000              add [eax],al
00002C7E  0000              add [eax],al
00002C80  1000              adc [eax],al
00002C82  0000              add [eax],al
00002C84  0400              add al,0x0
00002C86  0000              add [eax],al
00002C88  7B00              jpo 0x2c8a
00002C8A  0000              add [eax],al
00002C8C  0100              add [eax],eax
00002C8E  0000              add [eax],al
00002C90  06                push es
00002C91  0000              add [eax],al
00002C93  0030              add [eax],dh
00002C95  880408            mov [eax+ecx],al
00002C98  3008              xor [eax],cl
00002C9A  0000              add [eax],al
00002C9C  48                dec eax
00002C9D  0E                push cs
00002C9E  0000              add [eax],al
00002CA0  0000              add [eax],al
00002CA2  0000              add [eax],al
00002CA4  0000              add [eax],al
00002CA6  0000              add [eax],al
00002CA8  1000              adc [eax],al
00002CAA  0000              add [eax],al
00002CAC  0000              add [eax],al
00002CAE  0000              add [eax],al
00002CB0  810000000100      add dword [eax],0x10000
00002CB6  0000              add [eax],al
00002CB8  06                push es
00002CB9  0000              add [eax],al
00002CBB  007896            add [eax-0x6a],bh
00002CBE  0408              add al,0x8
00002CC0  7816              js 0x2cd8
00002CC2  0000              add [eax],al
00002CC4  1C00              sbb al,0x0
00002CC6  0000              add [eax],al
00002CC8  0000              add [eax],al
00002CCA  0000              add [eax],al
00002CCC  0000              add [eax],al
00002CCE  0000              add [eax],al
00002CD0  0400              add al,0x0
00002CD2  0000              add [eax],al
00002CD4  0000              add [eax],al
00002CD6  0000              add [eax],al
00002CD8  8700              xchg eax,[eax]
00002CDA  0000              add [eax],al
00002CDC  0100              add [eax],eax
00002CDE  0000              add [eax],al
00002CE0  0200              add al,[eax]
00002CE2  0000              add [eax],al
00002CE4  94                xchg eax,esp
00002CE5  96                xchg eax,esi
00002CE6  0408              add al,0x8
00002CE8  94                xchg eax,esp
00002CE9  16                push ss
00002CEA  0000              add [eax],al
00002CEC  2C00              sub al,0x0
00002CEE  0000              add [eax],al
00002CF0  0000              add [eax],al
00002CF2  0000              add [eax],al
00002CF4  0000              add [eax],al
00002CF6  0000              add [eax],al
00002CF8  0400              add al,0x0
00002CFA  0000              add [eax],al
00002CFC  0000              add [eax],al
00002CFE  0000              add [eax],al
00002D00  8F00              pop dword [eax]
00002D02  0000              add [eax],al
00002D04  0100              add [eax],eax
00002D06  0000              add [eax],al
00002D08  0200              add al,[eax]
00002D0A  0000              add [eax],al
00002D0C  C0960408C01600    rcl byte [esi+0x16c00804],0x0
00002D13  00E4              add ah,ah
00002D15  0100              add [eax],eax
00002D17  0000              add [eax],al
00002D19  0000              add [eax],al
00002D1B  0000              add [eax],al
00002D1D  0000              add [eax],al
00002D1F  000400            add [eax+eax],al
00002D22  0000              add [eax],al
00002D24  0000              add [eax],al
00002D26  0000              add [eax],al
00002D28  9D                popf
00002D29  0000              add [eax],al
00002D2B  0001              add [ecx],al
00002D2D  0000              add [eax],al
00002D2F  0002              add [edx],al
00002D31  0000              add [eax],al
00002D33  00A4980408A418    add [eax+ebx*4+0x18a40804],ah
00002D3A  0000              add [eax],al
00002D3C  E807000000        call 0x2d48
00002D41  0000              add [eax],al
00002D43  0000              add [eax],al
00002D45  0000              add [eax],al
00002D47  000400            add [eax+eax],al
00002D4A  0000              add [eax],al
00002D4C  0000              add [eax],al
00002D4E  0000              add [eax],al
00002D50  A7                cmpsd
00002D51  0000              add [eax],al
00002D53  0001              add [ecx],al
00002D55  0000              add [eax],al
00002D57  0002              add [edx],al
00002D59  0000              add [eax],al
00002D5B  008CA004088C20    add [eax+0x208c0804],cl
00002D62  0000              add [eax],al
00002D64  7000              jo 0x2d66
00002D66  0000              add [eax],al
00002D68  0000              add [eax],al
00002D6A  0000              add [eax],al
00002D6C  0000              add [eax],al
00002D6E  0000              add [eax],al
00002D70  0400              add al,0x0
00002D72  0000              add [eax],al
00002D74  0000              add [eax],al
00002D76  0000              add [eax],al
00002D78  B900000001        mov ecx,0x1000000
00002D7D  0000              add [eax],al
00002D7F  0003              add [ebx],al
00002D81  0000              add [eax],al
00002D83  00FC              add ah,bh
00002D85  B004              mov al,0x4
00002D87  08FC              or ah,bh
00002D89  2000              and [eax],al
00002D8B  000C00            add [eax+eax],cl
00002D8E  0000              add [eax],al
00002D90  0000              add [eax],al
00002D92  0000              add [eax],al
00002D94  0000              add [eax],al
00002D96  0000              add [eax],al
00002D98  0400              add al,0x0
00002D9A  0000              add [eax],al
00002D9C  0000              add [eax],al
00002D9E  0000              add [eax],al
00002DA0  C00000            rol byte [eax],0x0
00002DA3  0001              add [ecx],al
00002DA5  0000              add [eax],al
00002DA7  0003              add [ebx],al
00002DA9  0000              add [eax],al
00002DAB  0008              add [eax],cl
00002DAD  B104              mov cl,0x4
00002DAF  0808              or [eax],cl
00002DB1  2100              and [eax],eax
00002DB3  0008              add [eax],cl
00002DB5  0000              add [eax],al
00002DB7  0000              add [eax],al
00002DB9  0000              add [eax],al
00002DBB  0000              add [eax],al
00002DBD  0000              add [eax],al
00002DBF  000400            add [eax+eax],al
00002DC2  0000              add [eax],al
00002DC4  0000              add [eax],al
00002DC6  0000              add [eax],al
00002DC8  C70000000100      mov dword [eax],0x10000
00002DCE  0000              add [eax],al
00002DD0  0300              add eax,[eax]
00002DD2  0000              add [eax],al
00002DD4  10B104081021      adc [ecx+0x21100804],dh
00002DDA  0000              add [eax],al
00002DDC  0400              add al,0x0
00002DDE  0000              add [eax],al
00002DE0  0000              add [eax],al
00002DE2  0000              add [eax],al
00002DE4  0000              add [eax],al
00002DE6  0000              add [eax],al
00002DE8  0400              add al,0x0
00002DEA  0000              add [eax],al
00002DEC  0000              add [eax],al
00002DEE  0000              add [eax],al
00002DF0  CC                int3
00002DF1  0000              add [eax],al
00002DF3  0006              add [esi],al
00002DF5  0000              add [eax],al
00002DF7  0003              add [ebx],al
00002DF9  0000              add [eax],al
00002DFB  0014B1            add [ecx+esi*4],dl
00002DFE  0408              add al,0x8
00002E00  1421              adc al,0x21
00002E02  0000              add [eax],al
00002E04  E000              loopne 0x2e06
00002E06  0000              add [eax],al
00002E08  0500000000        add eax,0x0
00002E0D  0000              add [eax],al
00002E0F  000400            add [eax+eax],al
00002E12  0000              add [eax],al
00002E14  0800              or [eax],al
00002E16  0000              add [eax],al
00002E18  D500              aad 0x0
00002E1A  0000              add [eax],al
00002E1C  0100              add [eax],eax
00002E1E  0000              add [eax],al
00002E20  0300              add eax,[eax]
00002E22  0000              add [eax],al
00002E24  F4                hlt
00002E25  B104              mov cl,0x4
00002E27  08F4              or ah,dh
00002E29  2100              and [eax],eax
00002E2B  000400            add [eax+eax],al
00002E2E  0000              add [eax],al
00002E30  0000              add [eax],al
00002E32  0000              add [eax],al
00002E34  0000              add [eax],al
00002E36  0000              add [eax],al
00002E38  0400              add al,0x0
00002E3A  0000              add [eax],al
00002E3C  0400              add al,0x0
00002E3E  0000              add [eax],al
00002E40  DA00              fiadd dword [eax]
00002E42  0000              add [eax],al
00002E44  0100              add [eax],eax
00002E46  0000              add [eax],al
00002E48  0300              add eax,[eax]
00002E4A  0000              add [eax],al
00002E4C  F8                clc
00002E4D  B104              mov cl,0x4
00002E4F  08F8              or al,bh
00002E51  2100              and [eax],eax
00002E53  00540000          add [eax+eax+0x0],dl
00002E57  0000              add [eax],al
00002E59  0000              add [eax],al
00002E5B  0000              add [eax],al
00002E5D  0000              add [eax],al
00002E5F  000400            add [eax+eax],al
00002E62  0000              add [eax],al
00002E64  0400              add al,0x0
00002E66  0000              add [eax],al
00002E68  E300              jecxz 0x2e6a
00002E6A  0000              add [eax],al
00002E6C  0100              add [eax],eax
00002E6E  0000              add [eax],al
00002E70  0300              add eax,[eax]
00002E72  0000              add [eax],al
00002E74  4C                dec esp
00002E75  B204              mov dl,0x4
00002E77  084C2200          or [edx+0x0],cl
00002E7B  0008              add [eax],cl
00002E7D  0000              add [eax],al
00002E7F  0000              add [eax],al
00002E81  0000              add [eax],al
00002E83  0000              add [eax],al
00002E85  0000              add [eax],al
00002E87  000400            add [eax+eax],al
00002E8A  0000              add [eax],al
00002E8C  0000              add [eax],al
00002E8E  0000              add [eax],al
00002E90  E900000008        jmp 0x8002e95
00002E95  0000              add [eax],al
00002E97  0003              add [ebx],al
00002E99  0000              add [eax],al
00002E9B  0060B2            add [eax-0x4e],ah
00002E9E  0408              add al,0x8
00002EA0  54                push esp
00002EA1  2200              and al,[eax]
00002EA3  009C0000000000    add [eax+eax+0x0],bl
00002EAA  0000              add [eax],al
00002EAC  0000              add [eax],al
00002EAE  0000              add [eax],al
00002EB0  2000              and [eax],al
00002EB2  0000              add [eax],al
00002EB4  0000              add [eax],al
00002EB6  0000              add [eax],al
00002EB8  EE                out dx,al
00002EB9  0000              add [eax],al
00002EBB  0001              add [ecx],al
00002EBD  0000              add [eax],al
00002EBF  0030              add [eax],dh
00002EC1  0000              add [eax],al
00002EC3  0000              add [eax],al
00002EC5  0000              add [eax],al
00002EC7  00542200          add [edx+0x0],dl
00002ECB  003400            add [eax+eax],dh
00002ECE  0000              add [eax],al
00002ED0  0000              add [eax],al
00002ED2  0000              add [eax],al
00002ED4  0000              add [eax],al
00002ED6  0000              add [eax],al
00002ED8  0100              add [eax],eax
00002EDA  0000              add [eax],al
00002EDC  0100              add [eax],eax
00002EDE  0000              add [eax],al
00002EE0  F70000000100      test dword [eax],0x10000
00002EE6  0000              add [eax],al
00002EE8  0000              add [eax],al
00002EEA  0000              add [eax],al
00002EEC  0000              add [eax],al
00002EEE  0000              add [eax],al
00002EF0  8822              mov [edx],ah
00002EF2  0000              add [eax],al
00002EF4  40                inc eax
00002EF5  0000              add [eax],al
00002EF7  0000              add [eax],al
00002EF9  0000              add [eax],al
00002EFB  0000              add [eax],al
00002EFD  0000              add [eax],al
00002EFF  0008              add [eax],cl
00002F01  0000              add [eax],al
00002F03  0000              add [eax],al
00002F05  0000              add [eax],al
00002F07  0006              add [esi],al
00002F09  0100              add [eax],eax
00002F0B  0001              add [ecx],al
00002F0D  0000              add [eax],al
00002F0F  0000              add [eax],al
00002F11  0000              add [eax],al
00002F13  0000              add [eax],al
00002F15  0000              add [eax],al
00002F17  00C8              add al,cl
00002F19  2200              and al,[eax]
00002F1B  005F00            add [edi+0x0],bl
00002F1E  0000              add [eax],al
00002F20  0000              add [eax],al
00002F22  0000              add [eax],al
00002F24  0000              add [eax],al
00002F26  0000              add [eax],al
00002F28  0100              add [eax],eax
00002F2A  0000              add [eax],al
00002F2C  0000              add [eax],al
00002F2E  0000              add [eax],al
00002F30  16                push ss
00002F31  0100              add [eax],eax
00002F33  0001              add [ecx],al
00002F35  0000              add [eax],al
00002F37  0000              add [eax],al
00002F39  0000              add [eax],al
00002F3B  0000              add [eax],al
00002F3D  0000              add [eax],al
00002F3F  0027              add [edi],ah
00002F41  2300              and eax,[eax]
00002F43  0021              add [ecx],ah
00002F45  0200              add al,[eax]
00002F47  0000              add [eax],al
00002F49  0000              add [eax],al
00002F4B  0000              add [eax],al
00002F4D  0000              add [eax],al
00002F4F  0001              add [ecx],al
00002F51  0000              add [eax],al
00002F53  0000              add [eax],al
00002F55  0000              add [eax],al
00002F57  0022              add [edx],ah
00002F59  0100              add [eax],eax
00002F5B  0001              add [ecx],al
00002F5D  0000              add [eax],al
00002F5F  0000              add [eax],al
00002F61  0000              add [eax],al
00002F63  0000              add [eax],al
00002F65  0000              add [eax],al
00002F67  004825            add [eax+0x25],cl
00002F6A  0000              add [eax],al
00002F6C  3501000000        xor eax,0x1
00002F71  0000              add [eax],al
00002F73  0000              add [eax],al
00002F75  0000              add [eax],al
00002F77  0001              add [ecx],al
00002F79  0000              add [eax],al
00002F7B  0000              add [eax],al
00002F7D  0000              add [eax],al
00002F7F  0030              add [eax],dh
00002F81  0100              add [eax],eax
00002F83  0001              add [ecx],al
00002F85  0000              add [eax],al
00002F87  0000              add [eax],al
00002F89  0000              add [eax],al
00002F8B  0000              add [eax],al
00002F8D  0000              add [eax],al
00002F8F  007D26            add [ebp+0x26],bh
00002F92  0000              add [eax],al
00002F94  0101              add [ecx],eax
00002F96  0000              add [eax],al
00002F98  0000              add [eax],al
00002F9A  0000              add [eax],al
00002F9C  0000              add [eax],al
00002F9E  0000              add [eax],al
00002FA0  0100              add [eax],eax
00002FA2  0000              add [eax],al
00002FA4  0000              add [eax],al
00002FA6  0000              add [eax],al
00002FA8  3C01              cmp al,0x1
00002FAA  0000              add [eax],al
00002FAC  0100              add [eax],eax
00002FAE  0000              add [eax],al
00002FB0  0000              add [eax],al
00002FB2  0000              add [eax],al
00002FB4  0000              add [eax],al
00002FB6  0000              add [eax],al
00002FB8  802700            and byte [edi],0x0
00002FBB  004C0000          add [eax+eax+0x0],cl
00002FBF  0000              add [eax],al
00002FC1  0000              add [eax],al
00002FC3  0000              add [eax],al
00002FC5  0000              add [eax],al
00002FC7  000400            add [eax+eax],al
00002FCA  0000              add [eax],al
00002FCC  0000              add [eax],al
00002FCE  0000              add [eax],al
00002FD0  49                dec ecx
00002FD1  0100              add [eax],eax
00002FD3  0001              add [ecx],al
00002FD5  0000              add [eax],al
00002FD7  0030              add [eax],dh
00002FD9  0000              add [eax],al
00002FDB  0000              add [eax],al
00002FDD  0000              add [eax],al
00002FDF  00CC              add ah,cl
00002FE1  27                daa
00002FE2  0000              add [eax],al
00002FE4  1201              adc al,[ecx]
00002FE6  0000              add [eax],al
00002FE8  0000              add [eax],al
00002FEA  0000              add [eax],al
00002FEC  0000              add [eax],al
00002FEE  0000              add [eax],al
00002FF0  0100              add [eax],eax
00002FF2  0000              add [eax],al
00002FF4  0100              add [eax],eax
00002FF6  0000              add [eax],al
00002FF8  54                push esp
00002FF9  0100              add [eax],eax
00002FFB  0001              add [ecx],al
00002FFD  0000              add [eax],al
00002FFF  0000              add [eax],al
00003001  0000              add [eax],al
00003003  0000              add [eax],al
00003005  0000              add [eax],al
00003007  00DE              add dh,bl
00003009  2800              sub [eax],al
0000300B  006B00            add [ebx+0x0],ch
0000300E  0000              add [eax],al
00003010  0000              add [eax],al
00003012  0000              add [eax],al
00003014  0000              add [eax],al
00003016  0000              add [eax],al
00003018  0100              add [eax],eax
0000301A  0000              add [eax],al
0000301C  0000              add [eax],al
0000301E  0000              add [eax],al
00003020  1100              adc [eax],eax
00003022  0000              add [eax],al
00003024  0300              add eax,[eax]
00003026  0000              add [eax],al
00003028  0000              add [eax],al
0000302A  0000              add [eax],al
0000302C  0000              add [eax],al
0000302E  0000              add [eax],al
00003030  49                dec ecx
00003031  2900              sub [eax],eax
00003033  005F01            add [edi+0x1],bl
00003036  0000              add [eax],al
00003038  0000              add [eax],al
0000303A  0000              add [eax],al
0000303C  0000              add [eax],al
0000303E  0000              add [eax],al
00003040  0100              add [eax],eax
00003042  0000              add [eax],al
00003044  0000              add [eax],al
00003046  0000              add [eax],al
00003048  0100              add [eax],eax
0000304A  0000              add [eax],al
0000304C  0200              add al,[eax]
0000304E  0000              add [eax],al
00003050  0000              add [eax],al
00003052  0000              add [eax],al
00003054  0000              add [eax],al
00003056  0000              add [eax],al
00003058  98                cwde
00003059  3000              xor [eax],al
0000305B  00800A000025      add [eax+0x2500000a],al
00003061  0000              add [eax],al
00003063  003F              add [edi],bh
00003065  0000              add [eax],al
00003067  000400            add [eax+eax],al
0000306A  0000              add [eax],al
0000306C  1000              adc [eax],al
0000306E  0000              add [eax],al
00003070  0900              or [eax],eax
00003072  0000              add [eax],al
00003074  0300              add eax,[eax]
00003076  0000              add [eax],al
00003078  0000              add [eax],al
0000307A  0000              add [eax],al
0000307C  0000              add [eax],al
0000307E  0000              add [eax],al
00003080  183B              sbb [ebx],bh
00003082  0000              add [eax],al
00003084  B10F              mov cl,0xf
00003086  0000              add [eax],al
00003088  0000              add [eax],al
0000308A  0000              add [eax],al
0000308C  0000              add [eax],al
0000308E  0000              add [eax],al
00003090  0100              add [eax],eax
00003092  0000              add [eax],al
00003094  0000              add [eax],al
00003096  0000              add [eax],al
00003098  0000              add [eax],al
0000309A  0000              add [eax],al
0000309C  0000              add [eax],al
0000309E  0000              add [eax],al
000030A0  0000              add [eax],al
000030A2  0000              add [eax],al
000030A4  0000              add [eax],al
000030A6  0000              add [eax],al
000030A8  0000              add [eax],al
000030AA  0000              add [eax],al
000030AC  3481              xor al,0x81
000030AE  0408              add al,0x8
000030B0  0000              add [eax],al
000030B2  0000              add [eax],al
000030B4  0300              add eax,[eax]
000030B6  0100              add [eax],eax
000030B8  0000              add [eax],al
000030BA  0000              add [eax],al
000030BC  48                dec eax
000030BD  81040800000000    add dword [eax+ecx],0x0
000030C4  0300              add eax,[eax]
000030C6  0200              add al,[eax]
000030C8  0000              add [eax],al
000030CA  0000              add [eax],al
000030CC  6881040800        push dword 0x80481
000030D1  0000              add [eax],al
000030D3  0003              add [ebx],al
000030D5  0003              add [ebx],al
000030D7  0000              add [eax],al
000030D9  0000              add [eax],al
000030DB  001482            add [edx+eax*4],dl
000030DE  0408              add al,0x8
000030E0  0000              add [eax],al
000030E2  0000              add [eax],al
000030E4  0300              add eax,[eax]
000030E6  0400              add al,0x0
000030E8  0000              add [eax],al
000030EA  0000              add [eax],al
000030EC  94                xchg eax,esp
000030ED  83040800          add dword [eax+ecx],byte +0x0
000030F1  0000              add [eax],al
000030F3  0003              add [ebx],al
000030F5  000500000000      add [0x0],al
000030FB  007685            add [esi-0x7b],dh
000030FE  0408              add al,0x8
00003100  0000              add [eax],al
00003102  0000              add [eax],al
00003104  0300              add eax,[eax]
00003106  06                push es
00003107  0000              add [eax],al
00003109  0000              add [eax],al
0000310B  00A885040800      add [eax+0x80485],ch
00003111  0000              add [eax],al
00003113  0003              add [ebx],al
00003115  0007              add [edi],al
00003117  0000              add [eax],al
00003119  0000              add [eax],al
0000311B  0028              add [eax],ch
0000311D  860408            xchg al,[eax+ecx]
00003120  0000              add [eax],al
00003122  0000              add [eax],al
00003124  0300              add eax,[eax]
00003126  0800              or [eax],al
00003128  0000              add [eax],al
0000312A  0000              add [eax],al
0000312C  388604080000      cmp [esi+0x804],al
00003132  0000              add [eax],al
00003134  0300              add eax,[eax]
00003136  0900              or [eax],eax
00003138  0000              add [eax],al
0000313A  0000              add [eax],al
0000313C  C8860408          enter 0x486,0x8
00003140  0000              add [eax],al
00003142  0000              add [eax],al
00003144  0300              add eax,[eax]
00003146  0A00              or al,[eax]
00003148  0000              add [eax],al
0000314A  0000              add [eax],al
0000314C  008704080000      add [edi+0x804],al
00003152  0000              add [eax],al
00003154  0300              add eax,[eax]
00003156  0B00              or eax,[eax]
00003158  0000              add [eax],al
0000315A  0000              add [eax],al
0000315C  308804080000      xor [eax+0x804],cl
00003162  0000              add [eax],al
00003164  0300              add eax,[eax]
00003166  0C00              or al,0x0
00003168  0000              add [eax],al
0000316A  0000              add [eax],al
0000316C  7896              js 0x3104
0000316E  0408              add al,0x8
00003170  0000              add [eax],al
00003172  0000              add [eax],al
00003174  0300              add eax,[eax]
00003176  0D00000000        or eax,0x0
0000317B  00949604080000    add [esi+edx*4+0x804],dl
00003182  0000              add [eax],al
00003184  0300              add eax,[eax]
00003186  0E                push cs
00003187  0000              add [eax],al
00003189  0000              add [eax],al
0000318B  00C0              add al,al
0000318D  96                xchg eax,esi
0000318E  0408              add al,0x8
00003190  0000              add [eax],al
00003192  0000              add [eax],al
00003194  0300              add eax,[eax]
00003196  0F0000            sldt [eax]
00003199  0000              add [eax],al
0000319B  00A49804080000    add [eax+ebx*4+0x804],ah
000031A2  0000              add [eax],al
000031A4  0300              add eax,[eax]
000031A6  1000              adc [eax],al
000031A8  0000              add [eax],al
000031AA  0000              add [eax],al
000031AC  8CA004080000      mov [eax+0x804],fs
000031B2  0000              add [eax],al
000031B4  0300              add eax,[eax]
000031B6  1100              adc [eax],eax
000031B8  0000              add [eax],al
000031BA  0000              add [eax],al
000031BC  FC                cld
000031BD  B004              mov al,0x4
000031BF  0800              or [eax],al
000031C1  0000              add [eax],al
000031C3  0003              add [ebx],al
000031C5  0012              add [edx],dl
000031C7  0000              add [eax],al
000031C9  0000              add [eax],al
000031CB  0008              add [eax],cl
000031CD  B104              mov cl,0x4
000031CF  0800              or [eax],al
000031D1  0000              add [eax],al
000031D3  0003              add [ebx],al
000031D5  0013              add [ebx],dl
000031D7  0000              add [eax],al
000031D9  0000              add [eax],al
000031DB  0010              add [eax],dl
000031DD  B104              mov cl,0x4
000031DF  0800              or [eax],al
000031E1  0000              add [eax],al
000031E3  0003              add [ebx],al
000031E5  001400            add [eax+eax],dl
000031E8  0000              add [eax],al
000031EA  0000              add [eax],al
000031EC  14B1              adc al,0xb1
000031EE  0408              add al,0x8
000031F0  0000              add [eax],al
000031F2  0000              add [eax],al
000031F4  0300              add eax,[eax]
000031F6  1500000000        adc eax,0x0
000031FB  00F4              add ah,dh
000031FD  B104              mov cl,0x4
000031FF  0800              or [eax],al
00003201  0000              add [eax],al
00003203  0003              add [ebx],al
00003205  0016              add [esi],dl
00003207  0000              add [eax],al
00003209  0000              add [eax],al
0000320B  00F8              add al,bh
0000320D  B104              mov cl,0x4
0000320F  0800              or [eax],al
00003211  0000              add [eax],al
00003213  0003              add [ebx],al
00003215  0017              add [edi],dl
00003217  0000              add [eax],al
00003219  0000              add [eax],al
0000321B  004CB204          add [edx+esi*4+0x4],cl
0000321F  0800              or [eax],al
00003221  0000              add [eax],al
00003223  0003              add [ebx],al
00003225  0018              add [eax],bl
00003227  0000              add [eax],al
00003229  0000              add [eax],al
0000322B  0060B2            add [eax-0x4e],ah
0000322E  0408              add al,0x8
00003230  0000              add [eax],al
00003232  0000              add [eax],al
00003234  0300              add eax,[eax]
00003236  1900              sbb [eax],eax
00003238  0000              add [eax],al
0000323A  0000              add [eax],al
0000323C  0000              add [eax],al
0000323E  0000              add [eax],al
00003240  0000              add [eax],al
00003242  0000              add [eax],al
00003244  0300              add eax,[eax]
00003246  1A00              sbb al,[eax]
00003248  0000              add [eax],al
0000324A  0000              add [eax],al
0000324C  0000              add [eax],al
0000324E  0000              add [eax],al
00003250  0000              add [eax],al
00003252  0000              add [eax],al
00003254  0300              add eax,[eax]
00003256  1B00              sbb eax,[eax]
00003258  0000              add [eax],al
0000325A  0000              add [eax],al
0000325C  0000              add [eax],al
0000325E  0000              add [eax],al
00003260  0000              add [eax],al
00003262  0000              add [eax],al
00003264  0300              add eax,[eax]
00003266  1C00              sbb al,0x0
00003268  0000              add [eax],al
0000326A  0000              add [eax],al
0000326C  0000              add [eax],al
0000326E  0000              add [eax],al
00003270  0000              add [eax],al
00003272  0000              add [eax],al
00003274  0300              add eax,[eax]
00003276  1D00000000        sbb eax,0x0
0000327B  0000              add [eax],al
0000327D  0000              add [eax],al
0000327F  0000              add [eax],al
00003281  0000              add [eax],al
00003283  0003              add [ebx],al
00003285  001E              add [esi],bl
00003287  0000              add [eax],al
00003289  0000              add [eax],al
0000328B  0000              add [eax],al
0000328D  0000              add [eax],al
0000328F  0000              add [eax],al
00003291  0000              add [eax],al
00003293  0003              add [ebx],al
00003295  001F              add [edi],bl
00003297  0000              add [eax],al
00003299  0000              add [eax],al
0000329B  0000              add [eax],al
0000329D  0000              add [eax],al
0000329F  0000              add [eax],al
000032A1  0000              add [eax],al
000032A3  0003              add [ebx],al
000032A5  0020              add [eax],ah
000032A7  0000              add [eax],al
000032A9  0000              add [eax],al
000032AB  0000              add [eax],al
000032AD  0000              add [eax],al
000032AF  0000              add [eax],al
000032B1  0000              add [eax],al
000032B3  0003              add [ebx],al
000032B5  0021              add [ecx],ah
000032B7  0000              add [eax],al
000032B9  0000              add [eax],al
000032BB  0000              add [eax],al
000032BD  0000              add [eax],al
000032BF  0000              add [eax],al
000032C1  0000              add [eax],al
000032C3  0003              add [ebx],al
000032C5  0022              add [edx],ah
000032C7  0001              add [ecx],al
000032C9  0000              add [eax],al
000032CB  0000              add [eax],al
000032CD  0000              add [eax],al
000032CF  0000              add [eax],al
000032D1  0000              add [eax],al
000032D3  000400            add [eax+eax],al
000032D6  F1                int1
000032D7  FF08              dec dword [eax]
000032D9  0000              add [eax],al
000032DB  0000              add [eax],al
000032DD  0000              add [eax],al
000032DF  0000              add [eax],al
000032E1  0000              add [eax],al
000032E3  000400            add [eax+eax],al
000032E6  F1                int1
000032E7  FF13              call near [ebx]
000032E9  0000              add [eax],al
000032EB  0000              add [eax],al
000032ED  0000              add [eax],al
000032EF  0000              add [eax],al
000032F1  0000              add [eax],al
000032F3  000400            add [eax+eax],al
000032F6  F1                int1
000032F7  FF1E              call far [esi]
000032F9  0000              add [eax],al
000032FB  00FC              add ah,bh
000032FD  B004              mov al,0x4
000032FF  0800              or [eax],al
00003301  0000              add [eax],al
00003303  0001              add [ecx],al
00003305  0012              add [edx],dl
00003307  002C00            add [eax+eax],ch
0000330A  0000              add [eax],al
0000330C  08B104080000      or [ecx+0x804],dh
00003312  0000              add [eax],al
00003314  0100              add [eax],eax
00003316  1300              adc eax,[eax]
00003318  3A00              cmp al,[eax]
0000331A  0000              add [eax],al
0000331C  10B104080000      adc [ecx+0x804],dh
00003322  0000              add [eax],al
00003324  0100              add [eax],eax
00003326  1400              adc al,0x0
00003328  47                inc edi
00003329  0000              add [eax],al
0000332B  006088            add [eax-0x78],ah
0000332E  0408              add al,0x8
00003330  0000              add [eax],al
00003332  0000              add [eax],al
00003334  0200              add al,[eax]
00003336  0C00              or al,0x0
00003338  5C                pop esp
00003339  0000              add [eax],al
0000333B  009088040800      add [eax+0x80488],dl
00003341  0000              add [eax],al
00003343  0002              add [edx],al
00003345  000C00            add [eax+eax],cl
00003348  6F                outsd
00003349  0000              add [eax],al
0000334B  00D0              add al,dl
0000334D  880408            mov [eax+ecx],al
00003350  0000              add [eax],al
00003352  0000              add [eax],al
00003354  0200              add al,[eax]
00003356  0C00              or al,0x0
00003358  8500              test [eax],eax
0000335A  0000              add [eax],al
0000335C  F0B204            lock mov dl,0x4
0000335F  0801              or [ecx],al
00003361  0000              add [eax],al
00003363  0001              add [ecx],al
00003365  0019              add [ecx],bl
00003367  0094000000F4B2    add [eax+eax+0xb2f40000],dl
0000336E  0408              add al,0x8
00003370  0400              add al,0x0
00003372  0000              add [eax],al
00003374  0100              add [eax],eax
00003376  1900              sbb [eax],eax
00003378  A200000020        mov [0x20000000],al
0000337D  890408            mov [eax+ecx],eax
00003380  0000              add [eax],al
00003382  0000              add [eax],al
00003384  0200              add al,[eax]
00003386  0C00              or al,0x0
00003388  1300              adc eax,[eax]
0000338A  0000              add [eax],al
0000338C  0000              add [eax],al
0000338E  0000              add [eax],al
00003390  0000              add [eax],al
00003392  0000              add [eax],al
00003394  0400              add al,0x0
00003396  F1                int1
00003397  FFAE00000004      jmp far [esi+0x4000000]
0000339D  B104              mov cl,0x4
0000339F  0800              or [eax],al
000033A1  0000              add [eax],al
000033A3  0001              add [ecx],al
000033A5  0012              add [edx],dl
000033A7  00BB00000088      add [ebx+0x88000000],bh
000033AD  A004080000        mov al,[0x804]
000033B2  0000              add [eax],al
000033B4  0100              add [eax],eax
000033B6  1000              adc [eax],al
000033B8  C9                leave
000033B9  0000              add [eax],al
000033BB  0010              add [eax],dl
000033BD  B104              mov cl,0x4
000033BF  0800              or [eax],al
000033C1  0000              add [eax],al
000033C3  0001              add [ecx],al
000033C5  001400            add [eax+eax],dl
000033C8  D500              aad 0x0
000033CA  0000              add [eax],al
000033CC  50                push eax
000033CD  96                xchg eax,esi
000033CE  0408              add al,0x8
000033D0  0000              add [eax],al
000033D2  0000              add [eax],al
000033D4  0200              add al,[eax]
000033D6  0C00              or al,0x0
000033D8  0800              or [eax],al
000033DA  0000              add [eax],al
000033DC  0000              add [eax],al
000033DE  0000              add [eax],al
000033E0  0000              add [eax],al
000033E2  0000              add [eax],al
000033E4  0400              add al,0x0
000033E6  F1                int1
000033E7  FF                db 0xFF
000033E8  EB00              jmp short 0x33ea
000033EA  0000              add [eax],al
000033EC  0000              add [eax],al
000033EE  0000              add [eax],al
000033F0  0000              add [eax],al
000033F2  0000              add [eax],al
000033F4  0400              add al,0x0
000033F6  F1                int1
000033F7  FF06              inc dword [esi]
000033F9  0100              add [eax],eax
000033FB  00F8              add al,bh
000033FD  B204              mov dl,0x4
000033FF  0801              or [ecx],al
00003401  0000              add [eax],al
00003403  0001              add [ecx],al
00003405  0019              add [ecx],bl
00003407  001501000070      add [0x70000001],dl
0000340D  8B0408            mov eax,[eax+ecx]
00003410  3F                aas
00003411  0000              add [eax],al
00003413  0002              add [edx],al
00003415  000C00            add [eax+eax],cl
00003418  45                inc ebp
00003419  0100              add [eax],eax
0000341B  00AF8B04081C      add [edi+0x1c08048b],ch
00003421  0000              add [eax],al
00003423  0002              add [edx],al
00003425  000C00            add [eax+eax],cl
00003428  60                pusha
00003429  0100              add [eax],eax
0000342B  0000              add [eax],al
0000342D  0000              add [eax],al
0000342F  0000              add [eax],al
00003431  0000              add [eax],al
00003433  000400            add [eax+eax],al
00003436  F1                int1
00003437  FF00              inc dword [eax]
00003439  0000              add [eax],al
0000343B  0000              add [eax],al
0000343D  0000              add [eax],al
0000343F  0000              add [eax],al
00003441  0000              add [eax],al
00003443  000400            add [eax+eax],al
00003446  F1                int1
00003447  FF6B01            jmp far [ebx+0x1]
0000344A  0000              add [eax],al
0000344C  F8                clc
0000344D  B104              mov cl,0x4
0000344F  0800              or [eax],al
00003451  0000              add [eax],al
00003453  0001              add [ecx],al
00003455  0017              add [edi],dl
00003457  0081010000FC      add [ecx+0xfc000001],al
0000345D  B004              mov al,0x4
0000345F  0800              or [eax],al
00003461  0000              add [eax],al
00003463  0000              add [eax],al
00003465  0012              add [edx],dl
00003467  0092010000FC      add [edx+0xfc000001],dl
0000346D  B004              mov al,0x4
0000346F  0800              or [eax],al
00003471  0000              add [eax],al
00003473  0000              add [eax],al
00003475  0012              add [edx],dl
00003477  00A501000014      add [ebp+0x14000001],ah
0000347D  B104              mov cl,0x4
0000347F  0800              or [eax],al
00003481  0000              add [eax],al
00003483  0001              add [ecx],al
00003485  001500AE0100      add [0x1ae00],dl
0000348B  004CB204          add [edx+esi*4+0x4],cl
0000348F  0800              or [eax],al
00003491  0000              add [eax],al
00003493  0020              add [eax],ah
00003495  0018              add [eax],bl
00003497  00B901000060      add [ecx+0x60000001],bh
0000349D  B204              mov dl,0x4
0000349F  089000000011      or [eax+0x11000000],dl
000034A5  0019              add [ecx],bl
000034A7  00CF              add bh,cl
000034A9  0100              add [eax],eax
000034AB  00F0              add al,dh
000034AD  92                xchg eax,edx
000034AE  0408              add al,0x8
000034B0  1300              adc eax,[eax]
000034B2  0000              add [eax],al
000034B4  2200              and al,[eax]
000034B6  0C00              or al,0x0
000034B8  0D02000000        or eax,0x2
000034BD  0000              add [eax],al
000034BF  0000              add [eax],al
000034C1  0000              add [eax],al
000034C3  0012              add [edx],dl
000034C5  0000              add [eax],al
000034C7  0038              add [eax],bh
000034C9  0200              add al,[eax]
000034CB  0029              add [ecx],ch
000034CD  95                xchg eax,ebp
000034CE  0408              add al,0x8
000034D0  44                inc esp
000034D1  0000              add [eax],al
000034D3  0022              add [edx],ah
000034D5  000C00            add [eax+eax],cl
000034D8  640200            add al,[fs:eax]
000034DB  006B92            add [ebx-0x6e],ch
000034DE  0408              add al,0x8
000034E0  2800              sub [eax],al
000034E2  0000              add [eax],al
000034E4  2200              and al,[eax]
000034E6  0C00              or al,0x0
000034E8  A802              test al,0x2
000034EA  0000              add [eax],al
000034EC  0000              add [eax],al
000034EE  0000              add [eax],al
000034F0  0000              add [eax],al
000034F2  0000              add [eax],al
000034F4  1200              adc al,[eax]
000034F6  0000              add [eax],al
000034F8  C20200            ret 0x2
000034FB  00E0              add al,ah
000034FD  95                xchg eax,ebp
000034FE  0408              add al,0x8
00003500  0500000012        add eax,0x12000000
00003505  000C00            add [eax+eax],cl
00003508  D202              rol byte [edx],cl
0000350A  0000              add [eax],al
0000350C  308804080000      xor [eax+0x804],cl
00003512  0000              add [eax],al
00003514  1200              adc al,[eax]
00003516  0C00              or al,0x0
00003518  D902              fld dword [edx]
0000351A  0000              add [eax],al
0000351C  0000              add [eax],al
0000351E  0000              add [eax],al
00003520  0000              add [eax],al
00003522  0000              add [eax],al
00003524  1200              adc al,[eax]
00003526  0000              add [eax],al
00003528  EC                in al,dx
00003529  0200              add al,[eax]
0000352B  009690040827      add [esi+0x27080490],dl
00003531  0000              add [eax],al
00003533  0022              add [edx],ah
00003535  000C00            add [eax+eax],cl
00003538  1B03              sbb eax,[ebx]
0000353A  0000              add [eax],al
0000353C  92                xchg eax,edx
0000353D  95                xchg eax,ebp
0000353E  0408              add al,0x8
00003540  49                dec ecx
00003541  0000              add [eax],al
00003543  0022              add [edx],ah
00003545  000C00            add [eax+eax],cl
00003548  7103              jno 0x354d
0000354A  0000              add [eax],al
0000354C  EE                out dx,al
0000354D  8C0408            mov [eax+ecx],es
00003550  5F                pop edi
00003551  0000              add [eax],al
00003553  0022              add [edx],ah
00003555  000C00            add [eax+eax],cl
00003558  91                xchg eax,ecx
00003559  0300              add eax,[eax]
0000355B  00D0              add al,dl
0000355D  94                xchg eax,esp
0000355E  0408              add al,0x8
00003560  2100              and [eax],eax
00003562  0000              add [eax],al
00003564  2200              and al,[eax]
00003566  0C00              or al,0x0
00003568  D503              aad 0x3
0000356A  0000              add [eax],al
0000356C  48                dec eax
0000356D  93                xchg eax,ebx
0000356E  0408              add al,0x8
00003570  1900              sbb [eax],eax
00003572  0000              add [eax],al
00003574  2200              and al,[eax]
00003576  0C00              or al,0x0
00003578  F20300            repne add eax,[eax]
0000357B  0000              add [eax],al
0000357D  0000              add [eax],al
0000357F  0000              add [eax],al
00003581  0000              add [eax],al
00003583  0020              add [eax],ah
00003585  0000              add [eax],al
00003587  0001              add [ecx],al
00003589  0400              add al,0x0
0000358B  0000              add [eax],al
0000358D  0000              add [eax],al
0000358F  0000              add [eax],al
00003591  0000              add [eax],al
00003593  0020              add [eax],ah
00003595  0000              add [eax],al
00003597  00150400003C      add [0x3c000004],dl
0000359D  92                xchg eax,edx
0000359E  0408              add al,0x8
000035A0  2F                das
000035A1  0000              add [eax],al
000035A3  0022              add [edx],ah
000035A5  000C00            add [eax+eax],cl
000035A8  40                inc eax
000035A9  0400              add al,0x0
000035AB  00949604080400    add [esi+edx*4+0x40804],dl
000035B2  0000              add [eax],al
000035B4  1100              adc [eax],eax
000035B6  0E                push cs
000035B7  004704            add [edi+0x4],al
000035BA  0000              add [eax],al
000035BC  0000              add [eax],al
000035BE  0000              add [eax],al
000035C0  0000              add [eax],al
000035C2  0000              add [eax],al
000035C4  1200              adc al,[eax]
000035C6  0000              add [eax],al
000035C8  5B                pop ebx
000035C9  0400              add al,0x0
000035CB  00D2              add dl,dl
000035CD  92                xchg eax,edx
000035CE  0408              add al,0x8
000035D0  0500000022        add eax,0x22000000
000035D5  000C00            add [eax+eax],cl
000035D8  7F04              jg 0x35de
000035DA  0000              add [eax],al
000035DC  309004082200      xor [eax+0x220804],dl
000035E2  0000              add [eax],al
000035E4  2200              and al,[eax]
000035E6  0C00              or al,0x0
000035E8  9A040000789604    call 0x496:0x78000004
000035EF  0800              or [eax],al
000035F1  0000              add [eax],al
000035F3  0012              add [edx],dl
000035F5  000D00A00400      add [0x4a000],cl
000035FB  00BE92040813      add [esi+0x13080492],bh
00003601  0000              add [eax],al
00003603  0022              add [edx],ah
00003605  000C00            add [eax+eax],cl
00003608  AD                lodsd
00003609  0400              add al,0x0
0000360B  0000              add [eax],al
0000360D  0000              add [eax],al
0000360F  0000              add [eax],al
00003611  0000              add [eax],al
00003613  0012              add [edx],dl
00003615  0000              add [eax],al
00003617  00C7              add bh,al
00003619  0400              add al,0x0
0000361B  0000              add [eax],al
0000361D  0000              add [eax],al
0000361F  0000              add [eax],al
00003621  0000              add [eax],al
00003623  0012              add [edx],dl
00003625  0000              add [eax],al
00003627  00EC              add ah,ch
00003629  0400              add al,0x0
0000362B  00FE              add dh,bh
0000362D  90                nop
0000362E  0408              add al,0x8
00003630  0800              or [eax],al
00003632  0000              add [eax],al
00003634  2200              and al,[eax]
00003636  0C00              or al,0x0
00003638  2A0500001094      sub al,[0x94100000]
0000363E  0408              add al,0x8
00003640  2500000022        and eax,0x22000000
00003645  000C00            add [eax+eax],cl
00003648  5E                pop esi
00003649  0500006D95        add eax,0x956d0000
0000364E  0408              add al,0x8
00003650  2500000022        and eax,0x22000000
00003655  000C00            add [eax+eax],cl
00003658  89050000D292      mov [0x92d20000],eax
0000365E  0408              add al,0x8
00003660  0500000022        add eax,0x22000000
00003665  000C00            add [eax+eax],cl
00003668  AD                lodsd
00003669  0500000000        add eax,0x0
0000366E  0000              add [eax],al
00003670  0000              add [eax],al
00003672  0000              add [eax],al
00003674  1200              adc al,[eax]
00003676  0000              add [eax],al
00003678  CA0500            retf 0x5
0000367B  00568D            add [esi-0x73],dl
0000367E  0408              add al,0x8
00003680  1A00              sbb al,[eax]
00003682  0000              add [eax],al
00003684  2200              and al,[eax]
00003686  0C00              or al,0x0
00003688  EB05              jmp short 0x368f
0000368A  0000              add [eax],al
0000368C  7B94              jpo 0x3622
0000368E  0408              add al,0x8
00003690  55                push ebp
00003691  0000              add [eax],al
00003693  0022              add [edx],ah
00003695  000C00            add [eax+eax],cl
00003698  50                push eax
00003699  06                push es
0000369A  0000              add [eax],al
0000369C  52                push edx
0000369D  90                nop
0000369E  0408              add al,0x8
000036A0  3000              xor [eax],al
000036A2  0000              add [eax],al
000036A4  2200              and al,[eax]
000036A6  0C00              or al,0x0
000036A8  7E06              jng 0x36b0
000036AA  0000              add [eax],al
000036AC  629304081B00      bound edx,[ebx+0x1b0804]
000036B2  0000              add [eax],al
000036B4  2200              and al,[eax]
000036B6  0C00              or al,0x0
000036B8  9F                lahf
000036B9  06                push es
000036BA  0000              add [eax],al
000036BC  E88B040857        call 0x57083b4c
000036C1  0000              add [eax],al
000036C3  0022              add [edx],ah
000036C5  000C00            add [eax+eax],cl
000036C8  B8060000D8        mov eax,0xd8000006
000036CD  92                xchg eax,edx
000036CE  0408              add al,0x8
000036D0  1300              adc eax,[eax]
000036D2  0000              add [eax],al
000036D4  2200              and al,[eax]
000036D6  0C00              or al,0x0
000036D8  E806000090        call 0x900036e3
000036DD  870408            xchg eax,[eax+ecx]
000036E0  0000              add [eax],al
000036E2  0000              add [eax],al
000036E4  1200              adc al,[eax]
000036E6  0000              add [eax],al
000036E8  0D070000C6        or eax,0xc6000007
000036ED  8C0408            mov [eax+ecx],es
000036F0  1300              adc eax,[eax]
000036F2  0000              add [eax],al
000036F4  2200              and al,[eax]
000036F6  0C00              or al,0x0
000036F8  3B07              cmp eax,[edi]
000036FA  0000              add [eax],al
000036FC  0000              add [eax],al
000036FE  0000              add [eax],al
00003700  0000              add [eax],al
00003702  0000              add [eax],al
00003704  2000              and [eax],al
00003706  0000              add [eax],al
00003708  57                push edi
00003709  07                pop es
0000370A  0000              add [eax],al
0000370C  DA8C0408130000    fimul dword [esp+eax+0x1308]
00003713  0022              add [edx],ah
00003715  000C00            add [eax+eax],cl
00003718  7707              ja 0x3721
0000371A  0000              add [eax],al
0000371C  98                cwde
0000371D  96                xchg eax,esi
0000371E  0408              add al,0x8
00003720  0400              add al,0x0
00003722  0000              add [eax],al
00003724  1100              adc [eax],eax
00003726  0E                push cs
00003727  00860700004E      add [esi+0x4e000007],al
0000372D  8D0408            lea eax,[eax+ecx]
00003730  0800              or [eax],al
00003732  0000              add [eax],al
00003734  2200              and al,[eax]
00003736  0C00              or al,0x0
00003738  B9070000CB        mov ecx,0xcb000007
0000373D  8B0408            mov eax,[eax+ecx]
00003740  0800              or [eax],al
00003742  0000              add [eax],al
00003744  2200              and al,[eax]
00003746  0C00              or al,0x0
00003748  C10700            rol dword [edi],0x0
0000374B  0000              add [eax],al
0000374D  0000              add [eax],al
0000374F  0000              add [eax],al
00003751  0000              add [eax],al
00003753  0020              add [eax],ah
00003755  0000              add [eax],al
00003757  00DB              add bl,bl
00003759  07                pop es
0000375A  0000              add [eax],al
0000375C  4C                dec esp
0000375D  B204              mov dl,0x4
0000375F  0800              or [eax],al
00003761  0000              add [eax],al
00003763  0010              add [eax],dl
00003765  0018              add [eax],bl
00003767  00E8              add al,ch
00003769  07                pop es
0000376A  0000              add [eax],al
0000376C  708D              jo 0x36fb
0000376E  0408              add al,0x8
00003770  2100              and [eax],eax
00003772  0000              add [eax],al
00003774  2200              and al,[eax]
00003776  0C00              or al,0x0
00003778  260800            or [es:eax],al
0000377B  005A94            add [edx-0x6c],bl
0000377E  0408              add al,0x8
00003780  2100              and [eax],eax
00003782  0000              add [eax],al
00003784  2200              and al,[eax]
00003786  0C00              or al,0x0
00003788  51                push ecx
00003789  0800              or [eax],al
0000378B  00D4              add ah,dl
0000378D  8B0408            mov eax,[eax+ecx]
00003790  1300              adc eax,[eax]
00003792  0000              add [eax],al
00003794  2200              and al,[eax]
00003796  0C00              or al,0x0
00003798  6A08              push byte +0x8
0000379A  0000              add [eax],al
0000379C  EB92              jmp short 0x3730
0000379E  0408              add al,0x8
000037A0  0500000022        add eax,0x22000000
000037A5  000C00            add [eax+eax],cl
000037A8  99                cdq
000037A9  0800              or [eax],al
000037AB  005089            add [eax-0x77],dl
000037AE  0408              add al,0x8
000037B0  5F                pop edi
000037B1  0000              add [eax],al
000037B3  0012              add [edx],dl
000037B5  000C00            add [eax+eax],cl
000037B8  A5                movsd
000037B9  0800              or [eax],al
000037BB  00EE              add dh,ch
000037BD  8C0408            mov [eax+ecx],es
000037C0  5F                pop edi
000037C1  0000              add [eax],al
000037C3  0022              add [edx],ah
000037C5  000C00            add [eax+eax],cl
000037C8  C508              lds ecx,[eax]
000037CA  0000              add [eax],al
000037CC  F093              lock xchg eax,ebx
000037CE  0408              add al,0x8
000037D0  0500000022        add eax,0x22000000
000037D5  000C00            add [eax+eax],cl
000037D8  E9080000DA        jmp 0xda0037e5
000037DD  8C0408            mov [eax+ecx],es
000037E0  1300              adc eax,[eax]
000037E2  0000              add [eax],al
000037E4  2200              and al,[eax]
000037E6  0C00              or al,0x0
000037E8  0909              or [ecx],ecx
000037EA  0000              add [eax],al
000037EC  B48C              mov ah,0x8c
000037EE  0408              add al,0x8
000037F0  1200              adc al,[eax]
000037F2  0000              add [eax],al
000037F4  2200              and al,[eax]
000037F6  0C00              or al,0x0
000037F8  2209              and cl,[ecx]
000037FA  0000              add [eax],al
000037FC  54                push esp
000037FD  B204              mov dl,0x4
000037FF  0800              or [eax],al
00003801  0000              add [eax],al
00003803  0011              add [ecx],dl
00003805  0218              add bl,[eax]
00003807  002E              add [esi],ch
00003809  0900              or [eax],eax
0000380B  00BD9004081A      add [ebp+0x1a080490],bh
00003811  0000              add [eax],al
00003813  0022              add [edx],ah
00003815  000C00            add [eax+eax],cl
00003818  46                inc esi
00003819  0900              or [eax],eax
0000381B  0050B2            add [eax-0x4e],dl
0000381E  0408              add al,0x8
00003820  0000              add [eax],al
00003822  0000              add [eax],al
00003824  1102              adc [edx],eax
00003826  1800              sbb [eax],al
00003828  53                push ebx
00003829  0900              or [eax],eax
0000382B  004891            add [eax-0x6f],cl
0000382E  0408              add al,0x8
00003830  A4                movsb
00003831  0000              add [eax],al
00003833  0022              add [edx],ah
00003835  000C00            add [eax+eax],cl
00003838  7C09              jl 0x3843
0000383A  0000              add [eax],al
0000383C  AE                scasb
0000383D  92                xchg eax,edx
0000383E  0408              add al,0x8
00003840  0F0000            sldt [eax]
00003843  0022              add [edx],ah
00003845  000C00            add [eax+eax],cl
00003848  BA0900000C        mov edx,0xc000009
0000384D  B104              mov cl,0x4
0000384F  0800              or [eax],al
00003851  0000              add [eax],al
00003853  0011              add [ecx],dl
00003855  0213              add dl,[ebx]
00003857  00C7              add bh,al
00003859  0900              or [eax],eax
0000385B  00EC              add ah,ch
0000385D  91                xchg eax,ecx
0000385E  0408              add al,0x8
00003860  1F                pop ds
00003861  0000              add [eax],al
00003863  0022              add [edx],ah
00003865  000C00            add [eax+eax],cl
00003868  E409              in al,0x9
0000386A  0000              add [eax],al
0000386C  F5                cmc
0000386D  93                xchg eax,ebx
0000386E  0408              add al,0x8
00003870  0800              or [eax],al
00003872  0000              add [eax],al
00003874  2200              and al,[eax]
00003876  0C00              or al,0x0
00003878  0A0A              or cl,[edx]
0000387A  0000              add [eax],al
0000387C  92                xchg eax,edx
0000387D  8D0408            lea eax,[eax+ecx]
00003880  9D                popf
00003881  0200              add al,[eax]
00003883  0022              add [edx],ah
00003885  000C00            add [eax+eax],cl
00003888  58                pop eax
00003889  0A00              or al,[eax]
0000388B  00F0              add al,dh
0000388D  95                xchg eax,ebp
0000388E  0408              add al,0x8
00003890  5A                pop edx
00003891  0000              add [eax],al
00003893  0012              add [edx],dl
00003895  000C00            add [eax+eax],cl
00003898  680A000000        push dword 0xa
0000389D  0000              add [eax],al
0000389F  0000              add [eax],al
000038A1  0000              add [eax],al
000038A3  0012              add [edx],dl
000038A5  0000              add [eax],al
000038A7  007A0A            add [edx+0xa],bh
000038AA  0000              add [eax],al
000038AC  82                db 0x82
000038AD  90                nop
000038AE  0408              add al,0x8
000038B0  1300              adc eax,[eax]
000038B2  0000              add [eax],al
000038B4  2200              and al,[eax]
000038B6  0C00              or al,0x0
000038B8  870A              xchg ecx,[edx]
000038BA  0000              add [eax],al
000038BC  BE92040813        mov esi,0x13080492
000038C1  0000              add [eax],al
000038C3  0022              add [edx],ah
000038C5  000C00            add [eax+eax],cl
000038C8  94                xchg eax,esp
000038C9  0A00              or al,[eax]
000038CB  00AE9204080F      add [esi+0xf080492],ch
000038D1  0000              add [eax],al
000038D3  0022              add [edx],ah
000038D5  000C00            add [eax+eax],cl
000038D8  D20A              ror byte [edx],cl
000038DA  0000              add [eax],al
000038DC  C8930408          enter 0x493,0x8
000038E0  2100              and [eax],eax
000038E2  0000              add [eax],al
000038E4  2200              and al,[eax]
000038E6  0C00              or al,0x0
000038E8  0A0B              or cl,[ebx]
000038EA  0000              add [eax],al
000038EC  0000              add [eax],al
000038EE  0000              add [eax],al
000038F0  0000              add [eax],al
000038F2  0000              add [eax],al
000038F4  1200              adc al,[eax]
000038F6  0000              add [eax],al
000038F8  1D0B0000E8        sbb eax,0xe800000b
000038FD  8B0408            mov eax,[eax+ecx]
00003900  57                push edi
00003901  0000              add [eax],al
00003903  0022              add [edx],ah
00003905  000C00            add [eax+eax],cl
00003908  360B00            or eax,[ss:eax]
0000390B  00D4              add ah,dl
0000390D  8B0408            mov eax,[eax+ecx]
00003910  1300              adc eax,[eax]
00003912  0000              add [eax],al
00003914  2200              and al,[eax]
00003916  0C00              or al,0x0
00003918  4F                dec edi
00003919  0B00              or eax,[eax]
0000391B  0054B204          add [edx+esi*4+0x4],dl
0000391F  0800              or [eax],al
00003921  0000              add [eax],al
00003923  0010              add [eax],dl
00003925  0019              add [ecx],bl
00003927  005B0B            add [ebx+0xb],bl
0000392A  0000              add [eax],al
0000392C  7D93              jnl 0x38c1
0000392E  0408              add al,0x8
00003930  1B00              sbb eax,[eax]
00003932  0000              add [eax],al
00003934  2200              and al,[eax]
00003936  0C00              or al,0x0
00003938  710B              jno 0x3945
0000393A  0000              add [eax],al
0000393C  52                push edx
0000393D  90                nop
0000393E  0408              add al,0x8
00003940  3000              xor [eax],al
00003942  0000              add [eax],al
00003944  2200              and al,[eax]
00003946  0C00              or al,0x0
00003948  9F                lahf
00003949  0B00              or eax,[eax]
0000394B  00EA              add dl,ch
0000394D  93                xchg eax,ebx
0000394E  0408              add al,0x8
00003950  0500000022        add eax,0x22000000
00003955  000C00            add [eax+eax],cl
00003958  CA0B00            retf 0xb
0000395B  0000              add [eax],al
0000395D  0000              add [eax],al
0000395F  0000              add [eax],al
00003961  0000              add [eax],al
00003963  0012              add [edx],dl
00003965  0000              add [eax],al
00003967  00E2              add dl,ah
00003969  0B00              or eax,[eax]
0000396B  003594040813      add [0x13080494],dh
00003971  0000              add [eax],al
00003973  0022              add [edx],ah
00003975  000C00            add [eax+eax],cl
00003978  16                push ss
00003979  0C00              or al,0x0
0000397B  0000              add [eax],al
0000397D  0000              add [eax],al
0000397F  0000              add [eax],al
00003981  0000              add [eax],al
00003983  0012              add [edx],dl
00003985  0000              add [eax],al
00003987  0029              add [ecx],ch
00003989  0C00              or al,0x0
0000398B  009893040830      add [eax+0x30080493],bl
00003991  0000              add [eax],al
00003993  0022              add [edx],ah
00003995  000C00            add [eax+eax],cl
00003998  57                push edi
00003999  0C00              or al,0x0
0000399B  0003              add [ebx],al
0000399D  93                xchg eax,ebx
0000399E  0408              add al,0x8
000039A0  44                inc esp
000039A1  0000              add [eax],al
000039A3  0022              add [edx],ah
000039A5  000C00            add [eax+eax],cl
000039A8  8C0C00            mov [eax+eax],cs
000039AB  0006              add [esi],al
000039AD  91                xchg eax,ecx
000039AE  0408              add al,0x8
000039B0  3800              cmp [eax],al
000039B2  0000              add [eax],al
000039B4  2200              and al,[eax]
000039B6  0C00              or al,0x0
000039B8  B20C              mov dl,0xc
000039BA  0000              add [eax],al
000039BC  3E91              ds xchg eax,ecx
000039BE  0408              add al,0x8
000039C0  0A00              or al,[eax]
000039C2  0000              add [eax],al
000039C4  2200              and al,[eax]
000039C6  0C00              or al,0x0
000039C8  ED                in eax,dx
000039C9  0C00              or al,0x0
000039CB  00FC              add ah,bh
000039CD  B204              mov dl,0x4
000039CF  0800              or [eax],al
000039D1  0000              add [eax],al
000039D3  0010              add [eax],dl
000039D5  0019              add [ecx],bl
000039D7  00F2              add dl,dh
000039D9  0C00              or al,0x0
000039DB  0000              add [eax],al
000039DD  0000              add [eax],al
000039DF  0000              add [eax],al
000039E1  0000              add [eax],al
000039E3  0012              add [edx],dl
000039E5  0000              add [eax],al
000039E7  000E              add [esi],cl
000039E9  0D00000000        or eax,0x0
000039EE  0000              add [eax],al
000039F0  0000              add [eax],al
000039F2  0000              add [eax],al
000039F4  1200              adc al,[eax]
000039F6  0000              add [eax],al
000039F8  340D              xor al,0xd
000039FA  0000              add [eax],al
000039FC  93                xchg eax,ebx
000039FD  92                xchg eax,edx
000039FE  0408              add al,0x8
00003A00  1A00              sbb al,[eax]
00003A02  0000              add [eax],al
00003A04  2200              and al,[eax]
00003A06  0C00              or al,0x0
00003A08  680D000000        push dword 0xd
00003A0D  0000              add [eax],al
00003A0F  0000              add [eax],al
00003A11  0000              add [eax],al
00003A13  0012              add [edx],dl
00003A15  0000              add [eax],al
00003A17  00860D000048      add [esi+0x4800000d],al
00003A1D  94                xchg eax,esp
00003A1E  0408              add al,0x8
00003A20  0800              or [eax],al
00003A22  0000              add [eax],al
00003A24  2200              and al,[eax]
00003A26  0C00              or al,0x0
00003A28  BA0D0000C6        mov edx,0xc600000d
00003A2D  8C0408            mov [eax+ecx],es
00003A30  1300              adc eax,[eax]
00003A32  0000              add [eax],al
00003A34  2200              and al,[eax]
00003A36  0C00              or al,0x0
00003A38  E80D0000D8        call 0xd8003a4a
00003A3D  90                nop
00003A3E  0408              add al,0x8
00003A40  260000            add [es:eax],al
00003A43  0022              add [edx],ah
00003A45  000C00            add [eax+eax],cl
00003A48  180E              sbb [esi],cl
00003A4A  0000              add [eax],al
00003A4C  54                push esp
00003A4D  B204              mov dl,0x4
00003A4F  0800              or [eax],al
00003A51  0000              add [eax],al
00003A53  0010              add [eax],dl
00003A55  0018              add [eax],bl
00003A57  001F              add [edi],bl
00003A59  0E                push cs
00003A5A  0000              add [eax],al
00003A5C  108804080000      adc [eax+0x804],cl
00003A62  0000              add [eax],al
00003A64  1200              adc al,[eax]
00003A66  0000              add [eax],al
00003A68  40                inc eax
00003A69  0E                push cs
00003A6A  0000              add [eax],al
00003A6C  82                db 0x82
00003A6D  90                nop
00003A6E  0408              add al,0x8
00003A70  1300              adc eax,[eax]
00003A72  0000              add [eax],al
00003A74  2200              and al,[eax]
00003A76  0C00              or al,0x0
00003A78  4D                dec ebp
00003A79  0E                push cs
00003A7A  0000              add [eax],al
00003A7C  50                push eax
00003A7D  94                xchg eax,esp
00003A7E  0408              add al,0x8
00003A80  0A00              or al,[eax]
00003A82  0000              add [eax],al
00003A84  2200              and al,[eax]
00003A86  0C00              or al,0x0
00003A88  790E              jns 0x3a98
00003A8A  0000              add [eax],al
00003A8C  0000              add [eax],al
00003A8E  0000              add [eax],al
00003A90  0000              add [eax],al
00003A92  0000              add [eax],al
00003A94  1200              adc al,[eax]
00003A96  0000              add [eax],al
00003A98  91                xchg eax,ecx
00003A99  0E                push cs
00003A9A  0000              add [eax],al
00003A9C  40                inc eax
00003A9D  8C0408            mov [eax+ecx],es
00003AA0  7300              jnc 0x3aa2
00003AA2  0000              add [eax],al
00003AA4  2200              and al,[eax]
00003AA6  0C00              or al,0x0
00003AA8  B40E              mov ah,0xe
00003AAA  0000              add [eax],al
00003AAC  F1                int1
00003AAD  94                xchg eax,esp
00003AAE  0408              add al,0x8
00003AB0  3800              cmp [eax],al
00003AB2  0000              add [eax],al
00003AB4  2200              and al,[eax]
00003AB6  0C00              or al,0x0
00003AB8  D00E              ror byte [esi],1
00003ABA  0000              add [eax],al
00003ABC  4A                dec edx
00003ABD  96                xchg eax,esi
00003ABE  0408              add al,0x8
00003AC0  0000              add [eax],al
00003AC2  0000              add [eax],al
00003AC4  1202              adc al,[edx]
00003AC6  0C00              or al,0x0
00003AC8  E70E              out 0xe,eax
00003ACA  0000              add [eax],al
00003ACC  FD                std
00003ACD  93                xchg eax,ebx
00003ACE  0408              add al,0x8
00003AD0  1300              adc eax,[eax]
00003AD2  0000              add [eax],al
00003AD4  2200              and al,[eax]
00003AD6  0C00              or al,0x0
00003AD8  250F0000AF        and eax,0xaf00000f
00003ADD  890408            mov [eax+ecx],eax
00003AE0  C10100            rol dword [ecx],0x0
00003AE3  0012              add [edx],dl
00003AE5  000C00            add [eax+eax],cl
00003AE8  2A0F              sub cl,[edi]
00003AEA  0000              add [eax],al
00003AEC  C8860408          enter 0x486,0x8
00003AF0  0000              add [eax],al
00003AF2  0000              add [eax],al
00003AF4  1200              adc al,[eax]
00003AF6  0A00              or al,[eax]
00003AF8  300F              xor [edi],cl
00003AFA  0000              add [eax],al
00003AFC  F093              lock xchg eax,ebx
00003AFE  0408              add al,0x8
00003B00  0500000022        add eax,0x22000000
00003B05  000C00            add [eax+eax],cl
00003B08  54                push esp
00003B09  0F0000            sldt [eax]
00003B0C  0B9204083000      or edx,[edx+0x300804]
00003B12  0000              add [eax],al
00003B14  2200              and al,[eax]
00003B16  0C00              or al,0x0
00003B18  00696E            add [ecx+0x6e],ch
00003B1B  69742E6300696E69  imul esi,[esi+ebp+0x63],dword 0x696e6900
00003B23  7466              jz 0x3b8b
00003B25  696E692E630063    imul ebp,[esi+0x69],dword 0x6300632e
00003B2C  7274              jc 0x3ba2
00003B2E  7374              jnc 0x3ba4
00003B30  7566              jnz 0x3b98
00003B32  662E6300          o16 arpl [cs:eax],ax
00003B36  5F                pop edi
00003B37  5F                pop edi
00003B38  43                inc ebx
00003B39  54                push esp
00003B3A  4F                dec edi
00003B3B  52                push edx
00003B3C  5F                pop edi
00003B3D  4C                dec esp
00003B3E  49                dec ecx
00003B3F  53                push ebx
00003B40  54                push esp
00003B41  5F                pop edi
00003B42  5F                pop edi
00003B43  005F5F            add [edi+0x5f],bl
00003B46  44                inc esp
00003B47  54                push esp
00003B48  4F                dec edi
00003B49  52                push edx
00003B4A  5F                pop edi
00003B4B  4C                dec esp
00003B4C  49                dec ecx
00003B4D  53                push ebx
00003B4E  54                push esp
00003B4F  5F                pop edi
00003B50  5F                pop edi
00003B51  005F5F            add [edi+0x5f],bl
00003B54  4A                dec edx
00003B55  43                inc ebx
00003B56  52                push edx
00003B57  5F                pop edi
00003B58  4C                dec esp
00003B59  49                dec ecx
00003B5A  53                push ebx
00003B5B  54                push esp
00003B5C  5F                pop edi
00003B5D  5F                pop edi
00003B5E  00646572          add [ebp+0x72],ah
00003B62  656769737465725F  imul esi,[gs:bp+di+0x74],dword 0x745f7265
         -74
00003B6B  6D                insd
00003B6C  5F                pop edi
00003B6D  636C6F6E          arpl [edi+ebp*2+0x6e],bp
00003B71  657300            gs jnc 0x3b74
00003B74  7265              jc 0x3bdb
00003B76  6769737465725F74  imul esi,[bp+di+0x74],dword 0x745f7265
00003B7E  6D                insd
00003B7F  5F                pop edi
00003B80  636C6F6E          arpl [edi+ebp*2+0x6e],bp
00003B84  657300            gs jnc 0x3b87
00003B87  5F                pop edi
00003B88  5F                pop edi
00003B89  646F              fs outsd
00003B8B  5F                pop edi
00003B8C  676C              a16 insb
00003B8E  6F                outsd
00003B8F  62616C            bound esp,[ecx+0x6c]
00003B92  5F                pop edi
00003B93  64746F            fs jz 0x3c05
00003B96  7273              jc 0x3c0b
00003B98  5F                pop edi
00003B99  61                popa
00003B9A  7578              jnz 0x3c14
00003B9C  00636F            add [ebx+0x6f],ah
00003B9F  6D                insd
00003BA0  706C              jo 0x3c0e
00003BA2  657465            gs jz 0x3c0a
00003BA5  642E3333          xor esi,[cs:ebx]
00003BA9  3238              xor bh,[eax]
00003BAB  0064746F          add [esp+esi*2+0x6f],ah
00003BAF  725F              jc 0x3c10
00003BB1  6964782E33333330  imul esp,[eax+edi*2+0x2e],dword 0x30333333
00003BB9  006672            add [esi+0x72],ah
00003BBC  61                popa
00003BBD  6D                insd
00003BBE  655F              gs pop edi
00003BC0  64756D            fs jnz 0x3c30
00003BC3  6D                insd
00003BC4  7900              jns 0x3bc6
00003BC6  5F                pop edi
00003BC7  5F                pop edi
00003BC8  43                inc ebx
00003BC9  54                push esp
00003BCA  4F                dec edi
00003BCB  52                push edx
00003BCC  5F                pop edi
00003BCD  45                inc ebp
00003BCE  4E                dec esi
00003BCF  44                inc esp
00003BD0  5F                pop edi
00003BD1  5F                pop edi
00003BD2  005F5F            add [edi+0x5f],bl
00003BD5  46                inc esi
00003BD6  52                push edx
00003BD7  41                inc ecx
00003BD8  4D                dec ebp
00003BD9  45                inc ebp
00003BDA  5F                pop edi
00003BDB  45                inc ebp
00003BDC  4E                dec esi
00003BDD  44                inc esp
00003BDE  5F                pop edi
00003BDF  5F                pop edi
00003BE0  005F5F            add [edi+0x5f],bl
00003BE3  4A                dec edx
00003BE4  43                inc ebx
00003BE5  52                push edx
00003BE6  5F                pop edi
00003BE7  45                inc ebp
00003BE8  4E                dec esi
00003BE9  44                inc esp
00003BEA  5F                pop edi
00003BEB  5F                pop edi
00003BEC  005F5F            add [edi+0x5f],bl
00003BEF  646F              fs outsd
00003BF1  5F                pop edi
00003BF2  676C              a16 insb
00003BF4  6F                outsd
00003BF5  62616C            bound esp,[ecx+0x6c]
00003BF8  5F                pop edi
00003BF9  63746F72          arpl [edi+ebp*2+0x72],si
00003BFD  735F              jnc 0x3c5e
00003BFF  61                popa
00003C00  7578              jnz 0x3c7a
00003C02  0031              add [ecx],dh
00003C04  3436              xor al,0x36
00003C06  303438            xor [eax+edi],dh
00003C09  385F31            cmp [edi+0x31],bl
00003C0C  3539353439        xor eax,0x39343539
00003C11  315F6F            xor [edi+0x6f],ebx
00003C14  726F              jc 0x3c85
00003C16  726F              jc 0x3c87
00003C18  672E637070        arpl [cs:bx+si+0x70],si
00003C1D  005F5A            add [edi+0x5a],bl
00003C20  53                push ebx
00003C21  744C              jz 0x3c6f
00003C23  385F5F            cmp [edi+0x5f],bl
00003C26  696F696E697400    imul ebp,[edi+0x69],dword 0x74696e
00003C2D  5F                pop edi
00003C2E  5A                pop edx
00003C2F  3431              xor al,0x31
00003C31  5F                pop edi
00003C32  5F                pop edi
00003C33  7374              jnc 0x3ca9
00003C35  61                popa
00003C36  7469              jz 0x3ca1
00003C38  635F69            arpl [edi+0x69],bx
00003C3B  6E                outsb
00003C3C  697469616C697A61  imul esi,[ecx+ebp*2+0x61],dword 0x617a696c
00003C44  7469              jz 0x3caf
00003C46  6F                outsd
00003C47  6E                outsb
00003C48  5F                pop edi
00003C49  61                popa
00003C4A  6E                outsb
00003C4B  645F              fs pop edi
00003C4D  64657374          gs jnc 0x3cc5
00003C51  7275              jc 0x3cc8
00003C53  6374696F          arpl [ecx+ebp*2+0x6f],si
00003C57  6E                outsb
00003C58  5F                pop edi
00003C59  306969            xor [ecx+0x69],ch
00003C5C  005F47            add [edi+0x47],bl
00003C5F  4C                dec esp
00003C60  4F                dec edi
00003C61  42                inc edx
00003C62  41                inc ecx
00003C63  4C                dec esp
00003C64  5F                pop edi
00003C65  5F                pop edi
00003C66  7375              jnc 0x3cdd
00003C68  625F49            bound ebx,[edi+0x49]
00003C6B  5F                pop edi
00003C6C  5F                pop edi
00003C6D  5A                pop edx
00003C6E  37                aaa
00003C6F  6E                outsb
00003C70  657874            gs js 0x3ce7
00003C73  49                dec ecx
00003C74  6E                outsb
00003C75  7476              jz 0x3ced
00003C77  00656C            add [ebp+0x6c],ah
00003C7A  662D696E          sub ax,0x6e69
00003C7E  69742E63005F474C  imul esi,[esi+ebp+0x63],dword 0x4c475f00
00003C86  4F                dec edi
00003C87  42                inc edx
00003C88  41                inc ecx
00003C89  4C                dec esp
00003C8A  5F                pop edi
00003C8B  4F                dec edi
00003C8C  46                inc esi
00003C8D  46                inc esi
00003C8E  53                push ebx
00003C8F  45                inc ebp
00003C90  54                push esp
00003C91  5F                pop edi
00003C92  54                push esp
00003C93  41                inc ecx
00003C94  42                inc edx
00003C95  4C                dec esp
00003C96  45                inc ebp
00003C97  5F                pop edi
00003C98  005F5F            add [edi+0x5f],bl
00003C9B  696E69745F6172    imul ebp,[esi+0x69],dword 0x72615f74
00003CA2  7261              jc 0x3d05
00003CA4  795F              jns 0x3d05
00003CA6  656E              gs outsb
00003CA8  64005F5F          add [fs:edi+0x5f],bl
00003CAC  696E69745F6172    imul ebp,[esi+0x69],dword 0x72615f74
00003CB3  7261              jc 0x3d16
00003CB5  795F              jns 0x3d16
00003CB7  7374              jnc 0x3d2d
00003CB9  61                popa
00003CBA  7274              jc 0x3d30
00003CBC  005F44            add [edi+0x44],bl
00003CBF  59                pop ecx
00003CC0  4E                dec esi
00003CC1  41                inc ecx
00003CC2  4D                dec ebp
00003CC3  49                dec ecx
00003CC4  43                inc ebx
00003CC5  00646174          add [ecx+0x74],ah
00003CC9  61                popa
00003CCA  5F                pop edi
00003CCB  7374              jnc 0x3d41
00003CCD  61                popa
00003CCE  7274              jc 0x3d44
00003CD0  005F5A            add [edi+0x5a],bl
00003CD3  53                push ebx
00003CD4  7433              jz 0x3d09
00003CD6  63696E            arpl [ecx+0x6e],bp
00003CD9  40                inc eax
00003CDA  40                inc eax
00003CDB  47                inc edi
00003CDC  4C                dec esp
00003CDD  49                dec ecx
00003CDE  42                inc edx
00003CDF  43                inc ebx
00003CE0  58                pop eax
00003CE1  58                pop eax
00003CE2  5F                pop edi
00003CE3  332E              xor ebp,[esi]
00003CE5  3400              xor al,0x0
00003CE7  5F                pop edi
00003CE8  5A                pop edx
00003CE9  53                push ebx
00003CEA  7431              jz 0x3d1d
00003CEC  325F5F            xor bl,[edi+0x5f]
00003CEF  6D                insd
00003CF0  697465725F626173  imul esi,[ebp+0x72],dword 0x7361625f
00003CF8  6549              gs dec ecx
00003CFA  50                push eax
00003CFB  69454E53743131    imul eax,[ebp+0x4e],dword 0x31317453
00003D02  5F                pop edi
00003D03  4D                dec ebp
00003D04  697465725F626173  imul esi,[ebp+0x72],dword 0x7361625f
00003D0C  6549              gs dec ecx
00003D0E  54                push esp
00003D0F  5F                pop edi
00003D10  45                inc ebp
00003D11  3133              xor [ebx],esi
00003D13  6974657261746F72  imul esi,[ebp+0x72],dword 0x726f7461
00003D1B  5F                pop edi
00003D1C  7479              jz 0x3d97
00003D1E  7065              jo 0x3d85
00003D20  45                inc ebp
00003D21  53                push ebx
00003D22  325F00            xor bl,[edi+0x0]
00003D25  5F                pop edi
00003D26  5A                pop edx
00003D27  53                push ebx
00003D28  7432              jz 0x3d5c
00003D2A  305F5F            xor [edi+0x5f],bl
00003D2D  7468              jz 0x3d97
00003D2F  726F              jc 0x3da0
00003D31  775F              ja 0x3d92
00003D33  6C                insb
00003D34  656E              gs outsb
00003D36  677468            a16 jz 0x3da1
00003D39  5F                pop edi
00003D3A  657272            gs jc 0x3daf
00003D3D  6F                outsd
00003D3E  7250              jc 0x3d90
00003D40  4B                dec ebx
00003D41  634040            arpl [eax+0x40],ax
00003D44  47                inc edi
00003D45  4C                dec esp
00003D46  49                dec ecx
00003D47  42                inc edx
00003D48  43                inc ebx
00003D49  58                pop eax
00003D4A  58                pop eax
00003D4B  5F                pop edi
00003D4C  332E              xor ebp,[esi]
00003D4E  3400              xor al,0x0
00003D50  5F                pop edi
00003D51  5A                pop edx
00003D52  53                push ebx
00003D53  7431              jz 0x3d86
00003D55  345F              xor al,0x5f
00003D57  5F                pop edi
00003D58  636F70            arpl [edi+0x70],bp
00003D5B  795F              jns 0x3dbc
00003D5D  6D                insd
00003D5E  6F                outsd
00003D5F  7665              jna 0x3dc6
00003D61  5F                pop edi
00003D62  61                popa
00003D63  32494C            xor cl,[ecx+0x4c]
00003D66  6230              bound esi,[eax]
00003D68  45                inc ebp
00003D69  50                push eax
00003D6A  6953305F455431    imul edx,[ebx+0x30],dword 0x3154455f
00003D71  5F                pop edi
00003D72  54                push esp
00003D73  305F53            xor [edi+0x53],bl
00003D76  325F53            xor bl,[edi+0x53]
00003D79  315F00            xor [edi+0x0],ebx
00003D7C  5F                pop edi
00003D7D  5A                pop edx
00003D7E  53                push ebx
00003D7F  7433              jz 0x3db4
00003D81  345F              xor al,0x5f
00003D83  5F                pop edi
00003D84  756E              jnz 0x3df4
00003D86  696E697469616C    imul ebp,[esi+0x69],dword 0x6c616974
00003D8D  697A65645F6D6F    imul edi,[edx+0x65],dword 0x6f6d5f64
00003D94  7665              jna 0x3dfb
00003D96  5F                pop edi
00003D97  69665F6E6F6578    imul esp,[esi+0x5f],dword 0x78656f6e
00003D9E  636570            arpl [ebp+0x70],sp
00003DA1  745F              jz 0x3e02
00003DA3  61                popa
00003DA4  49                dec ecx
00003DA5  50                push eax
00003DA6  6953305F536149    imul edx,[ebx+0x30],dword 0x4961535f
00003DAD  69454554305F54    imul eax,[ebp+0x45],dword 0x545f3054
00003DB4  5F                pop edi
00003DB5  53                push ebx
00003DB6  335F53            xor ebx,[edi+0x53]
00003DB9  325F52            xor bl,[edi+0x52]
00003DBC  54                push esp
00003DBD  315F00            xor [edi+0x0],ebx
00003DC0  5F                pop edi
00003DC1  5F                pop edi
00003DC2  637861            arpl [eax+0x61],di
00003DC5  5F                pop edi
00003DC6  61                popa
00003DC7  7465              jz 0x3e2e
00003DC9  7869              js 0x3e34
00003DCB  7440              jz 0x3e0d
00003DCD  40                inc eax
00003DCE  47                inc edi
00003DCF  4C                dec esp
00003DD0  49                dec ecx
00003DD1  42                inc edx
00003DD2  43                inc ebx
00003DD3  5F                pop edi
00003DD4  322E              xor ch,[esi]
00003DD6  312E              xor [esi],ebp
00003DD8  3300              xor eax,[eax]
00003DDA  5F                pop edi
00003DDB  5F                pop edi
00003DDC  6C                insb
00003DDD  6962635F637375    imul esp,[edx+0x63],dword 0x7573635f
00003DE4  5F                pop edi
00003DE5  66696E69005F      imul bp,[esi+0x69],word 0x5f00
00003DEB  7374              jnc 0x3e61
00003DED  61                popa
00003DEE  7274              jc 0x3e64
00003DF0  006765            add [edi+0x65],ah
00003DF3  7463              jz 0x3e58
00003DF5  6861724040        push dword 0x40407261
00003DFA  47                inc edi
00003DFB  4C                dec esp
00003DFC  49                dec ecx
00003DFD  42                inc edx
00003DFE  43                inc ebx
00003DFF  5F                pop edi
00003E00  322E              xor ch,[esi]
00003E02  3000              xor [eax],al
00003E04  5F                pop edi
00003E05  5A                pop edx
00003E06  4E                dec esi
00003E07  53                push ebx
00003E08  7431              jz 0x3e3b
00003E0A  325F56            xor bl,[edi+0x56]
00003E0D  6563746F72        arpl [gs:edi+ebp*2+0x72],si
00003E12  5F                pop edi
00003E13  626173            bound esp,[ecx+0x73]
00003E16  6549              gs dec ecx
00003E18  69536149694545    imul edx,[ebx+0x61],dword 0x45456949
00003E1F  3133              xor [ebx],esi
00003E21  5F                pop edi
00003E22  4D                dec ebp
00003E23  5F                pop edi
00003E24  646561            gs popa
00003E27  6C                insb
00003E28  6C                insb
00003E29  6F                outsd
00003E2A  636174            arpl [ecx+0x74],sp
00003E2D  6545              gs inc ebp
00003E2F  50                push eax
00003E30  696A005F5A4E53    imul ebp,[edx+0x0],dword 0x534e5a5f
00003E37  7431              jz 0x3e6a
00003E39  315F5F            xor [edi+0x5f],ebx
00003E3C  636F70            arpl [edi+0x70],bp
00003E3F  795F              jns 0x3ea0
00003E41  6D                insd
00003E42  6F                outsd
00003E43  7665              jna 0x3eaa
00003E45  49                dec ecx
00003E46  4C                dec esp
00003E47  6230              bound esi,[eax]
00003E49  45                inc ebp
00003E4A  4C                dec esp
00003E4B  6231              bound esi,[ecx]
00003E4D  45                inc ebp
00003E4E  53                push ebx
00003E4F  7432              jz 0x3e83
00003E51  367261            ss jc 0x3eb5
00003E54  6E                outsb
00003E55  646F              fs outsd
00003E57  6D                insd
00003E58  5F                pop edi
00003E59  61                popa
00003E5A  636365            arpl [ebx+0x65],sp
00003E5D  7373              jnc 0x3ed2
00003E5F  5F                pop edi
00003E60  6974657261746F72  imul esi,[ebp+0x72],dword 0x726f7461
00003E68  5F                pop edi
00003E69  7461              jz 0x3ecc
00003E6B  6745              a16 inc ebp
00003E6D  385F5F            cmp [edi+0x5f],bl
00003E70  636F70            arpl [edi+0x70],bp
00003E73  795F              jns 0x3ed4
00003E75  6D                insd
00003E76  49                dec ecx
00003E77  69454550545F50    imul eax,[ebp+0x45],dword 0x505f5450
00003E7E  4B                dec ebx
00003E7F  53                push ebx
00003E80  335F53            xor ebx,[edi+0x53]
00003E83  365F              ss pop edi
00003E85  53                push ebx
00003E86  345F              xor al,0x5f
00003E88  005F5A            add [edi+0x5a],bl
00003E8B  4E                dec esi
00003E8C  53                push ebx
00003E8D  7431              jz 0x3ec0
00003E8F  325F56            xor bl,[edi+0x56]
00003E92  6563746F72        arpl [gs:edi+ebp*2+0x72],si
00003E97  5F                pop edi
00003E98  626173            bound esp,[ecx+0x73]
00003E9B  6549              gs dec ecx
00003E9D  69536149694545    imul edx,[ebx+0x61],dword 0x45456949
00003EA4  44                inc esp
00003EA5  324576            xor al,[ebp+0x76]
00003EA8  005F5A            add [edi+0x5a],bl
00003EAB  4E                dec esi
00003EAC  53                push ebx
00003EAD  7432              jz 0x3ee1
00003EAF  305F5F            xor [edi+0x5f],bl
00003EB2  756E              jnz 0x3f22
00003EB4  696E697469616C    imul ebp,[esi+0x69],dword 0x6c616974
00003EBB  697A65645F636F    imul edi,[edx+0x65],dword 0x6f635f64
00003EC2  7079              jo 0x3f3d
00003EC4  49                dec ecx
00003EC5  4C                dec esp
00003EC6  6231              bound esi,[ecx]
00003EC8  45                inc ebp
00003EC9  45                inc ebp
00003ECA  3133              xor [ebx],esi
00003ECC  5F                pop edi
00003ECD  5F                pop edi
00003ECE  756E              jnz 0x3f3e
00003ED0  696E69745F636F    imul ebp,[esi+0x69],dword 0x6f635f74
00003ED7  7079              jo 0x3f52
00003ED9  49                dec ecx
00003EDA  50                push eax
00003EDB  6953325F454554    imul edx,[ebx+0x32],dword 0x5445455f
00003EE2  305F54            xor [edi+0x54],bl
00003EE5  5F                pop edi
00003EE6  53                push ebx
00003EE7  345F              xor al,0x5f
00003EE9  53                push ebx
00003EEA  335F00            xor ebx,[edi+0x0]
00003EED  5F                pop edi
00003EEE  5A                pop edx
00003EEF  4E                dec esi
00003EF0  4B                dec ebx
00003EF1  53                push ebx
00003EF2  7436              jz 0x3f2a
00003EF4  7665              jna 0x3f5b
00003EF6  63746F72          arpl [edi+ebp*2+0x72],si
00003EFA  49                dec ecx
00003EFB  69536149694545    imul edx,[ebx+0x61],dword 0x45456949
00003F02  3473              xor al,0x73
00003F04  697A654576005F    imul edi,[edx+0x65],dword 0x5f007645
00003F0B  5F                pop edi
00003F0C  676D              a16 insd
00003F0E  6F                outsd
00003F0F  6E                outsb
00003F10  5F                pop edi
00003F11  7374              jnc 0x3f87
00003F13  61                popa
00003F14  7274              jc 0x3f8a
00003F16  5F                pop edi
00003F17  5F                pop edi
00003F18  005F4A            add [edi+0x4a],bl
00003F1B  765F              jna 0x3f7c
00003F1D  52                push edx
00003F1E  6567697374657243  imul esi,[gs:bp+di+0x74],dword 0x6c437265
         -6C
00003F27  61                popa
00003F28  7373              jnc 0x3f9d
00003F2A  657300            gs jnc 0x3f2d
00003F2D  5F                pop edi
00003F2E  5A                pop edx
00003F2F  4E                dec esi
00003F30  53                push ebx
00003F31  7431              jz 0x3f64
00003F33  325F56            xor bl,[edi+0x56]
00003F36  6563746F72        arpl [gs:edi+ebp*2+0x72],si
00003F3B  5F                pop edi
00003F3C  626173            bound esp,[ecx+0x73]
00003F3F  6549              gs dec ecx
00003F41  69536149694545    imul edx,[ebx+0x61],dword 0x45456949
00003F48  3131              xor [ecx],esi
00003F4A  5F                pop edi
00003F4B  4D                dec ebp
00003F4C  5F                pop edi
00003F4D  61                popa
00003F4E  6C                insb
00003F4F  6C                insb
00003F50  6F                outsd
00003F51  636174            arpl [ecx+0x74],sp
00003F54  6545              gs inc ebp
00003F56  6A00              push byte +0x0
00003F58  5F                pop edi
00003F59  66705F            o16 jo 0x3fbb
00003F5C  6877005F5A        push dword 0x5a5f0077
00003F61  646C              fs insb
00003F63  50                push eax
00003F64  7640              jna 0x3fa6
00003F66  40                inc eax
00003F67  47                inc edi
00003F68  4C                dec esp
00003F69  49                dec ecx
00003F6A  42                inc edx
00003F6B  43                inc ebx
00003F6C  58                pop eax
00003F6D  58                pop eax
00003F6E  5F                pop edi
00003F6F  332E              xor ebp,[esi]
00003F71  3400              xor al,0x0
00003F73  5F                pop edi
00003F74  5A                pop edx
00003F75  4E                dec esi
00003F76  395F5F            cmp [edi+0x5f],ebx
00003F79  676E              a16 outsb
00003F7B  755F              jnz 0x3fdc
00003F7D  637878            arpl [eax+0x78],di
00003F80  3133              xor [ebx],esi
00003F82  6E                outsb
00003F83  65775F            gs ja 0x3fe5
00003F86  61                popa
00003F87  6C                insb
00003F88  6C                insb
00003F89  6F                outsd
00003F8A  636174            arpl [ecx+0x74],sp
00003F8D  6F                outsd
00003F8E  7249              jc 0x3fd9
00003F90  69454431457600    imul eax,[ebp+0x44],dword 0x764531
00003F97  5F                pop edi
00003F98  5A                pop edx
00003F99  4E                dec esi
00003F9A  53                push ebx
00003F9B  7436              jz 0x3fd3
00003F9D  7665              jna 0x4004
00003F9F  63746F72          arpl [edi+ebp*2+0x72],si
00003FA3  49                dec ecx
00003FA4  69536149694545    imul edx,[ebx+0x61],dword 0x45456949
00003FAB  33656E            xor esp,[ebp+0x6e]
00003FAE  6445              fs inc ebp
00003FB0  7600              jna 0x3fb2
00003FB2  5F                pop edi
00003FB3  66696E69005F      imul bp,[esi+0x69],word 0x5f00
00003FB9  5A                pop edx
00003FBA  4E                dec esi
00003FBB  53                push ebx
00003FBC  61                popa
00003FBD  49                dec ecx
00003FBE  69454332457600    imul eax,[ebp+0x43],dword 0x764532
00003FC5  5F                pop edi
00003FC6  5F                pop edi
00003FC7  637861            arpl [eax+0x61],di
00003FCA  5F                pop edi
00003FCB  7265              jc 0x4032
00003FCD  7468              jz 0x4037
00003FCF  726F              jc 0x4040
00003FD1  7740              ja 0x4013
00003FD3  40                inc eax
00003FD4  43                inc ebx
00003FD5  58                pop eax
00003FD6  58                pop eax
00003FD7  41                inc ecx
00003FD8  42                inc edx
00003FD9  49                dec ecx
00003FDA  5F                pop edi
00003FDB  312E              xor [esi],ebp
00003FDD  3300              xor eax,[eax]
00003FDF  5F                pop edi
00003FE0  5A                pop edx
00003FE1  4E                dec esi
00003FE2  53                push ebx
00003FE3  7438              jz 0x401d
00003FE5  696F735F626173    imul ebp,[edi+0x73],dword 0x7361625f
00003FEC  653449            gs xor al,0x49
00003FEF  6E                outsb
00003FF0  6974433145764040  imul esi,[ebx+eax*2+0x31],dword 0x40407645
00003FF8  47                inc edi
00003FF9  4C                dec esp
00003FFA  49                dec ecx
00003FFB  42                inc edx
00003FFC  43                inc ebx
00003FFD  58                pop eax
00003FFE  58                pop eax
00003FFF  5F                pop edi
00004000  332E              xor ebp,[esi]
00004002  3400              xor al,0x0
00004004  5F                pop edi
00004005  5A                pop edx
00004006  4E                dec esi
00004007  4B                dec ebx
00004008  395F5F            cmp [edi+0x5f],ebx
0000400B  676E              a16 outsb
0000400D  755F              jnz 0x406e
0000400F  637878            arpl [eax+0x78],di
00004012  3137              xor [edi],esi
00004014  5F                pop edi
00004015  5F                pop edi
00004016  6E                outsb
00004017  6F                outsd
00004018  726D              jc 0x4087
0000401A  61                popa
0000401B  6C                insb
0000401C  5F                pop edi
0000401D  6974657261746F72  imul esi,[ebp+0x72],dword 0x726f7461
00004025  49                dec ecx
00004026  50                push eax
00004027  69537436766563    imul edx,[ebx+0x74],dword 0x63657636
0000402E  746F              jz 0x409f
00004030  7249              jc 0x407b
00004032  69536149694545    imul edx,[ebx+0x61],dword 0x45456949
00004039  45                inc ebp
0000403A  3462              xor al,0x62
0000403C  61                popa
0000403D  7365              jnc 0x40a4
0000403F  45                inc ebp
00004040  7600              jna 0x4042
00004042  5F                pop edi
00004043  5A                pop edx
00004044  53                push ebx
00004045  7432              jz 0x4079
00004047  325F5F            xor bl,[edi+0x5f]
0000404A  636F70            arpl [edi+0x70],bp
0000404D  795F              jns 0x40ae
0000404F  6D                insd
00004050  6F                outsd
00004051  7665              jna 0x40b8
00004053  5F                pop edi
00004054  626163            bound esp,[ecx+0x63]
00004057  6B776172          imul esi,[edi+0x61],byte +0x72
0000405B  645F              fs pop edi
0000405D  61                popa
0000405E  49                dec ecx
0000405F  4C                dec esp
00004060  6230              bound esi,[eax]
00004062  45                inc ebp
00004063  50                push eax
00004064  6953305F455431    imul edx,[ebx+0x30],dword 0x3154455f
0000406B  5F                pop edi
0000406C  54                push esp
0000406D  305F53            xor [edi+0x53],bl
00004070  325F53            xor bl,[edi+0x53]
00004073  315F00            xor [edi+0x0],ebx
00004076  5F                pop edi
00004077  5A                pop edx
00004078  53                push ebx
00004079  7431              jz 0x40ac
0000407B  335F5F            xor ebx,[edi+0x5f]
0000407E  636F70            arpl [edi+0x70],bp
00004081  795F              jns 0x40e2
00004083  6D                insd
00004084  6F                outsd
00004085  7665              jna 0x40ec
00004087  5F                pop edi
00004088  61                popa
00004089  49                dec ecx
0000408A  4C                dec esp
0000408B  6230              bound esi,[eax]
0000408D  45                inc ebp
0000408E  50                push eax
0000408F  6953305F455431    imul edx,[ebx+0x30],dword 0x3154455f
00004096  5F                pop edi
00004097  54                push esp
00004098  305F53            xor [edi+0x53],bl
0000409B  325F53            xor bl,[edi+0x53]
0000409E  315F00            xor [edi+0x0],ebx
000040A1  5F                pop edi
000040A2  5A                pop edx
000040A3  4E                dec esi
000040A4  395F5F            cmp [edi+0x5f],ebx
000040A7  676E              a16 outsb
000040A9  755F              jnz 0x410a
000040AB  637878            arpl [eax+0x78],di
000040AE  3133              xor [ebx],esi
000040B0  6E                outsb
000040B1  65775F            gs ja 0x4113
000040B4  61                popa
000040B5  6C                insb
000040B6  6C                insb
000040B7  6F                outsd
000040B8  636174            arpl [ecx+0x74],sp
000040BB  6F                outsd
000040BC  7249              jc 0x4107
000040BE  69454432457600    imul eax,[ebp+0x44],dword 0x764532
000040C5  5F                pop edi
000040C6  5F                pop edi
000040C7  6C                insb
000040C8  6962635F737461    imul esp,[edx+0x63],dword 0x6174735f
000040CF  7274              jc 0x4145
000040D1  5F                pop edi
000040D2  6D                insd
000040D3  61                popa
000040D4  696E4040474C49    imul ebp,[esi+0x40],dword 0x494c4740
000040DB  42                inc edx
000040DC  43                inc ebx
000040DD  5F                pop edi
000040DE  322E              xor ch,[esi]
000040E0  3000              xor [eax],al
000040E2  5F                pop edi
000040E3  5A                pop edx
000040E4  53                push ebx
000040E5  7438              jz 0x411f
000040E7  5F                pop edi
000040E8  44                inc esp
000040E9  657374            gs jnc 0x4160
000040EC  726F              jc 0x415d
000040EE  7949              jns 0x4139
000040F0  50                push eax
000040F1  69694576545F53    imul ebp,[ecx+0x45],dword 0x535f5476
000040F8  315F52            xor [edi+0x52],ebx
000040FB  53                push ebx
000040FC  61                popa
000040FD  49                dec ecx
000040FE  54                push esp
000040FF  305F45            xor [edi+0x45],bl
00004102  005F5A            add [edi+0x5a],bl
00004105  4E                dec esi
00004106  53                push ebx
00004107  7432              jz 0x413b
00004109  305F5F            xor [edi+0x5f],bl
0000410C  636F70            arpl [edi+0x70],bp
0000410F  795F              jns 0x4170
00004111  6D                insd
00004112  6F                outsd
00004113  7665              jna 0x417a
00004115  5F                pop edi
00004116  626163            bound esp,[ecx+0x63]
00004119  6B776172          imul esi,[edi+0x61],byte +0x72
0000411D  6449              fs dec ecx
0000411F  4C                dec esp
00004120  6230              bound esi,[eax]
00004122  45                inc ebp
00004123  4C                dec esp
00004124  6231              bound esi,[ecx]
00004126  45                inc ebp
00004127  53                push ebx
00004128  7432              jz 0x415c
0000412A  367261            ss jc 0x418e
0000412D  6E                outsb
0000412E  646F              fs outsd
00004130  6D                insd
00004131  5F                pop edi
00004132  61                popa
00004133  636365            arpl [ebx+0x65],sp
00004136  7373              jnc 0x41ab
00004138  5F                pop edi
00004139  6974657261746F72  imul esi,[ebp+0x72],dword 0x726f7461
00004141  5F                pop edi
00004142  7461              jz 0x41a5
00004144  6745              a16 inc ebp
00004146  3133              xor [ebx],esi
00004148  5F                pop edi
00004149  5F                pop edi
0000414A  636F70            arpl [edi+0x70],bp
0000414D  795F              jns 0x41ae
0000414F  6D                insd
00004150  6F                outsd
00004151  7665              jna 0x41b8
00004153  5F                pop edi
00004154  624969            bound ecx,[ecx+0x69]
00004157  45                inc ebp
00004158  45                inc ebp
00004159  50                push eax
0000415A  54                push esp
0000415B  5F                pop edi
0000415C  50                push eax
0000415D  4B                dec ebx
0000415E  53                push ebx
0000415F  335F53            xor ebx,[edi+0x53]
00004162  365F              ss pop edi
00004164  53                push ebx
00004165  345F              xor al,0x5f
00004167  005F5A            add [edi+0x5a],bl
0000416A  4E                dec esi
0000416B  53                push ebx
0000416C  7431              jz 0x419f
0000416E  325F56            xor bl,[edi+0x56]
00004171  6563746F72        arpl [gs:edi+ebp*2+0x72],si
00004176  5F                pop edi
00004177  626173            bound esp,[ecx+0x73]
0000417A  6549              gs dec ecx
0000417C  69536149694545    imul edx,[ebx+0x61],dword 0x45456949
00004183  3132              xor [edx],esi
00004185  5F                pop edi
00004186  56                push esi
00004187  6563746F72        arpl [gs:edi+ebp*2+0x72],si
0000418C  5F                pop edi
0000418D  696D706C433245    imul ebp,[ebp+0x70],dword 0x4532436c
00004194  7600              jna 0x4196
00004196  5F                pop edi
00004197  5A                pop edx
00004198  4E                dec esi
00004199  4B                dec ebx
0000419A  53                push ebx
0000419B  7436              jz 0x41d3
0000419D  7665              jna 0x4204
0000419F  63746F72          arpl [edi+ebp*2+0x72],si
000041A3  49                dec ecx
000041A4  69536149694545    imul edx,[ebx+0x61],dword 0x45456949
000041AB  386D61            cmp [ebp+0x61],ch
000041AE  785F              js 0x420f
000041B0  7369              jnc 0x421b
000041B2  7A65              jpe 0x4219
000041B4  45                inc ebp
000041B5  7600              jna 0x41b7
000041B7  5F                pop edi
000041B8  5A                pop edx
000041B9  4E                dec esi
000041BA  53                push ebx
000041BB  7436              jz 0x41f3
000041BD  7665              jna 0x4224
000041BF  63746F72          arpl [edi+ebp*2+0x72],si
000041C3  49                dec ecx
000041C4  69536149694545    imul edx,[ebx+0x61],dword 0x45456949
000041CB  44                inc esp
000041CC  314576            xor [ebp+0x76],eax
000041CF  005F5A            add [edi+0x5a],bl
000041D2  4E                dec esi
000041D3  395F5F            cmp [edi+0x5f],ebx
000041D6  676E              a16 outsb
000041D8  755F              jnz 0x4239
000041DA  637878            arpl [eax+0x78],di
000041DD  3133              xor [ebx],esi
000041DF  6E                outsb
000041E0  65775F            gs ja 0x4242
000041E3  61                popa
000041E4  6C                insb
000041E5  6C                insb
000041E6  6F                outsd
000041E7  636174            arpl [ecx+0x74],sp
000041EA  6F                outsd
000041EB  7249              jc 0x4236
000041ED  69453130646561    imul eax,[ebp+0x31],dword 0x61656430
000041F4  6C                insb
000041F5  6C                insb
000041F6  6F                outsd
000041F7  636174            arpl [ecx+0x74],sp
000041FA  6545              gs inc ebp
000041FC  50                push eax
000041FD  696A005F5A4E53    imul ebp,[edx+0x0],dword 0x534e5a5f
00004204  7438              jz 0x423e
00004206  696F735F626173    imul ebp,[edi+0x73],dword 0x7361625f
0000420D  653449            gs xor al,0x49
00004210  6E                outsb
00004211  6974443145764040  imul esi,[esp+eax*2+0x31],dword 0x40407645
00004219  47                inc edi
0000421A  4C                dec esp
0000421B  49                dec ecx
0000421C  42                inc edx
0000421D  43                inc ebx
0000421E  58                pop eax
0000421F  58                pop eax
00004220  5F                pop edi
00004221  332E              xor ebp,[esi]
00004223  3400              xor al,0x0
00004225  5F                pop edi
00004226  5A                pop edx
00004227  4E                dec esi
00004228  53                push ebx
00004229  7431              jz 0x425c
0000422B  325F56            xor bl,[edi+0x56]
0000422E  6563746F72        arpl [gs:edi+ebp*2+0x72],si
00004233  5F                pop edi
00004234  626173            bound esp,[ecx+0x73]
00004237  6549              gs dec ecx
00004239  69536149694545    imul edx,[ebx+0x61],dword 0x45456949
00004240  3132              xor [edx],esi
00004242  5F                pop edi
00004243  56                push esi
00004244  6563746F72        arpl [gs:edi+ebp*2+0x72],si
00004249  5F                pop edi
0000424A  696D706C443245    imul ebp,[ebp+0x70],dword 0x4532446c
00004251  7600              jna 0x4253
00004253  5F                pop edi
00004254  49                dec ecx
00004255  54                push esp
00004256  4D                dec ebp
00004257  5F                pop edi
00004258  64657265          gs jc 0x42c1
0000425C  676973746572544D  imul esi,[bp+di+0x74],dword 0x4d547265
00004264  43                inc ebx
00004265  6C                insb
00004266  6F                outsd
00004267  6E                outsb
00004268  6554              gs push esp
0000426A  61                popa
0000426B  626C6500          bound ebp,[ebp+0x0]
0000426F  5F                pop edi
00004270  5A                pop edx
00004271  4E                dec esi
00004272  53                push ebx
00004273  7431              jz 0x42a6
00004275  325F56            xor bl,[edi+0x56]
00004278  6563746F72        arpl [gs:edi+ebp*2+0x72],si
0000427D  5F                pop edi
0000427E  626173            bound esp,[ecx+0x73]
00004281  6549              gs dec ecx
00004283  69536149694545    imul edx,[ebx+0x61],dword 0x45456949
0000428A  43                inc ebx
0000428B  314576            xor [ebp+0x76],eax
0000428E  005F49            add [edi+0x49],bl
00004291  4F                dec edi
00004292  5F                pop edi
00004293  7374              jnc 0x4309
00004295  64696E5F75736564  imul ebp,[fs:esi+0x5f],dword 0x64657375
0000429D  005F5A            add [edi+0x5a],bl
000042A0  4E                dec esi
000042A1  53                push ebx
000042A2  7431              jz 0x42d5
000042A4  325F56            xor bl,[edi+0x56]
000042A7  6563746F72        arpl [gs:edi+ebp*2+0x72],si
000042AC  5F                pop edi
000042AD  626173            bound esp,[ecx+0x73]
000042B0  6549              gs dec ecx
000042B2  69536149694545    imul edx,[ebx+0x61],dword 0x45456949
000042B9  3139              xor [ecx],edi
000042BB  5F                pop edi
000042BC  4D                dec ebp
000042BD  5F                pop edi
000042BE  6765745F          gs a16 jz 0x4321
000042C2  54                push esp
000042C3  705F              jo 0x4324
000042C5  61                popa
000042C6  6C                insb
000042C7  6C                insb
000042C8  6F                outsd
000042C9  636174            arpl [ecx+0x74],sp
000042CC  6F                outsd
000042CD  7245              jc 0x4314
000042CF  7600              jna 0x42d1
000042D1  5F                pop edi
000042D2  5A                pop edx
000042D3  6E                outsb
000042D4  776A              ja 0x4340
000042D6  50                push eax
000042D7  7600              jna 0x42d9
000042D9  5F                pop edi
000042DA  49                dec ecx
000042DB  54                push esp
000042DC  4D                dec ebp
000042DD  5F                pop edi
000042DE  7265              jc 0x4345
000042E0  676973746572544D  imul esi,[bp+di+0x74],dword 0x4d547265
000042E8  43                inc ebx
000042E9  6C                insb
000042EA  6F                outsd
000042EB  6E                outsb
000042EC  6554              gs push esp
000042EE  61                popa
000042EF  626C6500          bound ebp,[ebp+0x0]
000042F3  5F                pop edi
000042F4  5F                pop edi
000042F5  6461              fs popa
000042F7  7461              jz 0x435a
000042F9  5F                pop edi
000042FA  7374              jnc 0x4370
000042FC  61                popa
000042FD  7274              jc 0x4373
000042FF  005F5A            add [edi+0x5a],bl
00004302  4E                dec esi
00004303  395F5F            cmp [edi+0x5f],ebx
00004306  676E              a16 outsb
00004308  755F              jnz 0x4369
0000430A  637878            arpl [eax+0x78],di
0000430D  31345F            xor [edi+ebx*2],esi
00004310  5F                pop edi
00004311  61                popa
00004312  6C                insb
00004313  6C                insb
00004314  6F                outsd
00004315  635F74            arpl [edi+0x74],bx
00004318  7261              jc 0x437b
0000431A  6974734953614969  imul esi,[ebx+esi*2+0x49],dword 0x69496153
00004322  45                inc ebp
00004323  45                inc ebp
00004324  39636F            cmp [ebx+0x6f],esp
00004327  6E                outsb
00004328  7374              jnc 0x439e
0000432A  7275              jc 0x43a1
0000432C  63744969          arpl [ecx+ecx*2+0x69],si
00004330  45                inc ebp
00004331  45                inc ebp
00004332  7652              jna 0x4386
00004334  53                push ebx
00004335  315F50            xor [edi+0x50],ebx
00004338  69524B545F005F    imul edx,[edx+0x4b],dword 0x5f005f54
0000433F  5A                pop edx
00004340  53                push ebx
00004341  7431              jz 0x4374
00004343  38756E            cmp [ebp+0x6e],dh
00004346  696E697469616C    imul ebp,[esi+0x69],dword 0x6c616974
0000434D  697A65645F636F    imul edi,[edx+0x65],dword 0x6f635f64
00004354  7079              jo 0x43cf
00004356  49                dec ecx
00004357  50                push eax
00004358  6953305F455430    imul edx,[ebx+0x30],dword 0x3054455f
0000435F  5F                pop edi
00004360  54                push esp
00004361  5F                pop edi
00004362  53                push ebx
00004363  325F53            xor bl,[edi+0x53]
00004366  315F00            xor [edi+0x0],ebx
00004369  5F                pop edi
0000436A  5A                pop edx
0000436B  4E                dec esi
0000436C  53                push ebx
0000436D  7436              jz 0x43a5
0000436F  7665              jna 0x43d6
00004371  63746F72          arpl [edi+ebp*2+0x72],si
00004375  49                dec ecx
00004376  69536149694545    imul edx,[ebx+0x61],dword 0x45456949
0000437D  43                inc ebx
0000437E  324576            xor al,[ebp+0x76]
00004381  005F5A            add [edi+0x5a],bl
00004384  4E                dec esi
00004385  53                push ebx
00004386  7431              jz 0x43b9
00004388  325F44            xor bl,[edi+0x44]
0000438B  657374            gs jnc 0x4402
0000438E  726F              jc 0x43ff
00004390  795F              jns 0x43f1
00004392  61                popa
00004393  7578              jnz 0x440d
00004395  49                dec ecx
00004396  4C                dec esp
00004397  6231              bound esi,[ecx]
00004399  45                inc ebp
0000439A  45                inc ebp
0000439B  395F5F            cmp [edi+0x5f],ebx
0000439E  64657374          gs jnc 0x4416
000043A2  726F              jc 0x4413
000043A4  7949              jns 0x43ef
000043A6  50                push eax
000043A7  69454576545F53    imul eax,[ebp+0x45],dword 0x535f5476
000043AE  335F00            xor ebx,[edi+0x0]
000043B1  5F                pop edi
000043B2  5A                pop edx
000043B3  37                aaa
000043B4  6E                outsb
000043B5  657874            gs js 0x442c
000043B8  49                dec ecx
000043B9  6E                outsb
000043BA  7476              jz 0x4432
000043BC  005F5A            add [edi+0x5a],bl
000043BF  4E                dec esi
000043C0  53                push ebx
000043C1  7431              jz 0x43f4
000043C3  325F56            xor bl,[edi+0x56]
000043C6  6563746F72        arpl [gs:edi+ebp*2+0x72],si
000043CB  5F                pop edi
000043CC  626173            bound esp,[ecx+0x73]
000043CF  6549              gs dec ecx
000043D1  69536149694545    imul edx,[ebx+0x61],dword 0x45456949
000043D8  44                inc esp
000043D9  314576            xor [ebp+0x76],eax
000043DC  005F5A            add [edi+0x5a],bl
000043DF  4E                dec esi
000043E0  395F5F            cmp [edi+0x5f],ebx
000043E3  676E              a16 outsb
000043E5  755F              jnz 0x4446
000043E7  637878            arpl [eax+0x78],di
000043EA  3133              xor [ebx],esi
000043EC  6E                outsb
000043ED  65775F            gs ja 0x444f
000043F0  61                popa
000043F1  6C                insb
000043F2  6C                insb
000043F3  6F                outsd
000043F4  636174            arpl [ecx+0x74],sp
000043F7  6F                outsd
000043F8  7249              jc 0x4443
000043FA  69454331457600    imul eax,[ebp+0x43],dword 0x764531
00004401  5F                pop edi
00004402  5A                pop edx
00004403  4E                dec esi
00004404  53                push ebx
00004405  7431              jz 0x4438
00004407  325F56            xor bl,[edi+0x56]
0000440A  6563746F72        arpl [gs:edi+ebp*2+0x72],si
0000440F  5F                pop edi
00004410  626173            bound esp,[ecx+0x73]
00004413  6549              gs dec ecx
00004415  69536149694545    imul edx,[ebx+0x61],dword 0x45456949
0000441C  43                inc ebx
0000441D  324576            xor al,[ebp+0x76]
00004420  005F5A            add [edi+0x5a],bl
00004423  4E                dec esi
00004424  53                push ebx
00004425  7436              jz 0x445d
00004427  7665              jna 0x448e
00004429  63746F72          arpl [edi+ebp*2+0x72],si
0000442D  49                dec ecx
0000442E  69536149694545    imul edx,[ebx+0x61],dword 0x45456949
00004435  6978456A005F5F    imul edi,[eax+0x45],dword 0x5f5f006a
0000443C  54                push esp
0000443D  4D                dec ebp
0000443E  43                inc ebx
0000443F  5F                pop edi
00004440  45                inc ebp
00004441  4E                dec esi
00004442  44                inc esp
00004443  5F                pop edi
00004444  5F                pop edi
00004445  005F5A            add [edi+0x5a],bl
00004448  53                push ebx
00004449  7438              jz 0x4483
0000444B  5F                pop edi
0000444C  44                inc esp
0000444D  657374            gs jnc 0x44c4
00004450  726F              jc 0x44c1
00004452  7949              jns 0x449d
00004454  50                push eax
00004455  694576545F5331    imul eax,[ebp+0x76],dword 0x31535f54
0000445C  5F                pop edi
0000445D  005F5F            add [edi+0x5f],bl
00004460  64736F            fs jnc 0x44d2
00004463  5F                pop edi
00004464  68616E646C        push dword 0x6c646e61
00004469  65005F5A          add [gs:edi+0x5a],bl
0000446D  4E                dec esi
0000446E  4B                dec ebx
0000446F  53                push ebx
00004470  7436              jz 0x44a8
00004472  7665              jna 0x44d9
00004474  63746F72          arpl [edi+ebp*2+0x72],si
00004478  49                dec ecx
00004479  69536149694545    imul edx,[ebx+0x61],dword 0x45456949
00004480  3132              xor [edx],esi
00004482  5F                pop edi
00004483  4D                dec ebp
00004484  5F                pop edi
00004485  636865            arpl [eax+0x65],bp
00004488  636B5F            arpl [ebx+0x5f],bp
0000448B  6C                insb
0000448C  656E              gs outsb
0000448E  45                inc ebp
0000448F  6A50              push byte +0x50
00004491  4B                dec ebx
00004492  6300              arpl [eax],ax
00004494  5F                pop edi
00004495  5A                pop edx
00004496  4E                dec esi
00004497  395F5F            cmp [edi+0x5f],ebx
0000449A  676E              a16 outsb
0000449C  755F              jnz 0x44fd
0000449E  637878            arpl [eax+0x78],di
000044A1  3137              xor [edi],esi
000044A3  5F                pop edi
000044A4  5F                pop edi
000044A5  6E                outsb
000044A6  6F                outsd
000044A7  726D              jc 0x4516
000044A9  61                popa
000044AA  6C                insb
000044AB  5F                pop edi
000044AC  6974657261746F72  imul esi,[ebp+0x72],dword 0x726f7461
000044B4  49                dec ecx
000044B5  50                push eax
000044B6  69537436766563    imul edx,[ebx+0x74],dword 0x63657636
000044BD  746F              jz 0x452e
000044BF  7249              jc 0x450a
000044C1  69536149694545    imul edx,[ebx+0x61],dword 0x45456949
000044C8  45                inc ebp
000044C9  43                inc ebx
000044CA  314552            xor [ebp+0x52],eax
000044CD  4B                dec ebx
000044CE  53                push ebx
000044CF  315F00            xor [edi+0x0],ebx
000044D2  5F                pop edi
000044D3  5F                pop edi
000044D4  44                inc esp
000044D5  54                push esp
000044D6  4F                dec edi
000044D7  52                push edx
000044D8  5F                pop edi
000044D9  45                inc ebp
000044DA  4E                dec esi
000044DB  44                inc esp
000044DC  5F                pop edi
000044DD  5F                pop edi
000044DE  005F5A            add [edi+0x5a],bl
000044E1  4E                dec esi
000044E2  53                push ebx
000044E3  7436              jz 0x451b
000044E5  7665              jna 0x454c
000044E7  63746F72          arpl [edi+ebp*2+0x72],si
000044EB  49                dec ecx
000044EC  69536149694545    imul edx,[ebx+0x61],dword 0x45456949
000044F3  3562656769        xor eax,0x69676562
000044F8  6E                outsb
000044F9  45                inc ebp
000044FA  7600              jna 0x44fc
000044FC  5F                pop edi
000044FD  5A                pop edx
000044FE  4E                dec esi
000044FF  53                push ebx
00004500  7431              jz 0x4533
00004502  305F49            xor [edi+0x49],bl
00004505  7465              jz 0x456c
00004507  725F              jc 0x4568
00004509  626173            bound esp,[ecx+0x73]
0000450C  6549              gs dec ecx
0000450E  50                push eax
0000450F  694C62304545375F  imul ecx,[edx+0x30],dword 0x5f374545
00004517  53                push ebx
00004518  5F                pop edi
00004519  626173            bound esp,[ecx+0x73]
0000451C  6545              gs inc ebp
0000451E  53                push ebx
0000451F  305F00            xor [edi+0x0],bl
00004522  5F                pop edi
00004523  5A                pop edx
00004524  4E                dec esi
00004525  53                push ebx
00004526  7436              jz 0x455e
00004528  7665              jna 0x458f
0000452A  63746F72          arpl [edi+ebp*2+0x72],si
0000452E  49                dec ecx
0000452F  69536149694545    imul edx,[ebx+0x61],dword 0x45456949
00004536  3133              xor [ebx],esi
00004538  5F                pop edi
00004539  4D                dec ebp
0000453A  5F                pop edi
0000453B  696E736572745F    imul ebp,[esi+0x73],dword 0x5f747265
00004542  61                popa
00004543  7578              jnz 0x45bd
00004545  45                inc ebp
00004546  4E                dec esi
00004547  395F5F            cmp [edi+0x5f],ebx
0000454A  676E              a16 outsb
0000454C  755F              jnz 0x45ad
0000454E  637878            arpl [eax+0x78],di
00004551  3137              xor [edi],esi
00004553  5F                pop edi
00004554  5F                pop edi
00004555  6E                outsb
00004556  6F                outsd
00004557  726D              jc 0x45c6
00004559  61                popa
0000455A  6C                insb
0000455B  5F                pop edi
0000455C  6974657261746F72  imul esi,[ebp+0x72],dword 0x726f7461
00004564  49                dec ecx
00004565  50                push eax
00004566  6953315F454552    imul edx,[ebx+0x31],dword 0x5245455f
0000456D  4B                dec ebx
0000456E  69005F5F6C69      imul eax,[eax],dword 0x696c5f5f
00004574  62635F            bound esp,[ebx+0x5f]
00004577  637375            arpl [ebx+0x75],si
0000457A  5F                pop edi
0000457B  696E6974007072    imul ebp,[esi+0x69],dword 0x72700074
00004582  696E7466404047    imul ebp,[esi+0x74],dword 0x47404066
00004589  4C                dec esp
0000458A  49                dec ecx
0000458B  42                inc edx
0000458C  43                inc ebx
0000458D  5F                pop edi
0000458E  322E              xor ch,[esi]
00004590  3000              xor [eax],al
00004592  5F                pop edi
00004593  5A                pop edx
00004594  4E                dec esi
00004595  53                push ebx
00004596  61                popa
00004597  49                dec ecx
00004598  69454432457600    imul eax,[ebp+0x44],dword 0x764532
0000459F  5F                pop edi
000045A0  5A                pop edx
000045A1  4E                dec esi
000045A2  53                push ebx
000045A3  61                popa
000045A4  49                dec ecx
000045A5  69454331457600    imul eax,[ebp+0x43],dword 0x764531
000045AC  5F                pop edi
000045AD  5A                pop edx
000045AE  4E                dec esi
000045AF  395F5F            cmp [edi+0x5f],ebx
000045B2  676E              a16 outsb
000045B4  755F              jnz 0x4615
000045B6  637878            arpl [eax+0x78],di
000045B9  3137              xor [edi],esi
000045BB  5F                pop edi
000045BC  5F                pop edi
000045BD  6E                outsb
000045BE  6F                outsd
000045BF  726D              jc 0x462e
000045C1  61                popa
000045C2  6C                insb
000045C3  5F                pop edi
000045C4  6974657261746F72  imul esi,[ebp+0x72],dword 0x726f7461
000045CC  49                dec ecx
000045CD  50                push eax
000045CE  69537436766563    imul edx,[ebx+0x74],dword 0x63657636
000045D5  746F              jz 0x4646
000045D7  7249              jc 0x4622
000045D9  69536149694545    imul edx,[ebx+0x61],dword 0x45456949
000045E0  45                inc ebp
000045E1  43                inc ebx
000045E2  324552            xor al,[ebp+0x52]
000045E5  4B                dec ebx
000045E6  53                push ebx
000045E7  315F00            xor [edi+0x0],ebx
000045EA  5F                pop edi
000045EB  5A                pop edx
000045EC  53                push ebx
000045ED  7432              jz 0x4621
000045EF  325F5F            xor bl,[edi+0x5f]
000045F2  756E              jnz 0x4662
000045F4  696E697469616C    imul ebp,[esi+0x69],dword 0x6c616974
000045FB  697A65645F636F    imul edi,[edx+0x65],dword 0x6f635f64
00004602  7079              jo 0x467d
00004604  5F                pop edi
00004605  61                popa
00004606  49                dec ecx
00004607  50                push eax
00004608  6953305F694554    imul edx,[ebx+0x30],dword 0x5445695f
0000460F  305F54            xor [edi+0x54],bl
00004612  5F                pop edi
00004613  53                push ebx
00004614  325F53            xor bl,[edi+0x53]
00004617  315F52            xor [edi+0x52],ebx
0000461A  53                push ebx
0000461B  61                popa
0000461C  49                dec ecx
0000461D  54                push esp
0000461E  315F45            xor [edi+0x45],ebx
00004621  005F5A            add [edi+0x5a],bl
00004624  6E                outsb
00004625  776A              ja 0x4691
00004627  40                inc eax
00004628  40                inc eax
00004629  47                inc edi
0000462A  4C                dec esp
0000462B  49                dec ecx
0000462C  42                inc edx
0000462D  43                inc ebx
0000462E  58                pop eax
0000462F  58                pop eax
00004630  5F                pop edi
00004631  332E              xor ebp,[esi]
00004633  3400              xor al,0x0
00004635  5F                pop edi
00004636  5A                pop edx
00004637  4E                dec esi
00004638  53                push ebx
00004639  7436              jz 0x4671
0000463B  7665              jna 0x46a2
0000463D  63746F72          arpl [edi+ebp*2+0x72],si
00004641  49                dec ecx
00004642  69536149694545    imul edx,[ebx+0x61],dword 0x45456949
00004649  44                inc esp
0000464A  324576            xor al,[ebp+0x76]
0000464D  005F5A            add [edi+0x5a],bl
00004650  4E                dec esi
00004651  53                push ebx
00004652  7436              jz 0x468a
00004654  7665              jna 0x46bb
00004656  63746F72          arpl [edi+ebp*2+0x72],si
0000465A  49                dec ecx
0000465B  69536149694545    imul edx,[ebx+0x61],dword 0x45456949
00004662  43                inc ebx
00004663  314576            xor [ebp+0x76],eax
00004666  005F5F            add [edi+0x5f],bl
00004669  627373            bound esi,[ebx+0x73]
0000466C  5F                pop edi
0000466D  7374              jnc 0x46e3
0000466F  61                popa
00004670  7274              jc 0x46e6
00004672  005F5A            add [edi+0x5a],bl
00004675  53                push ebx
00004676  7433              jz 0x46ab
00004678  6D                insd
00004679  61                popa
0000467A  7849              js 0x46c5
0000467C  6A45              push byte +0x45
0000467E  52                push edx
0000467F  4B                dec ebx
00004680  54                push esp
00004681  5F                pop edi
00004682  53                push ebx
00004683  325F53            xor bl,[edi+0x53]
00004686  325F00            xor bl,[edi+0x0]
00004689  5F                pop edi
0000468A  5A                pop edx
0000468B  4E                dec esi
0000468C  53                push ebx
0000468D  7431              jz 0x46c0
0000468F  325F56            xor bl,[edi+0x56]
00004692  6563746F72        arpl [gs:edi+ebp*2+0x72],si
00004697  5F                pop edi
00004698  626173            bound esp,[ecx+0x73]
0000469B  6549              gs dec ecx
0000469D  69536149694545    imul edx,[ebx+0x61],dword 0x45456949
000046A4  3132              xor [edx],esi
000046A6  5F                pop edi
000046A7  56                push esi
000046A8  6563746F72        arpl [gs:edi+ebp*2+0x72],si
000046AD  5F                pop edi
000046AE  696D706C433145    imul ebp,[ebp+0x70],dword 0x4531436c
000046B5  7600              jna 0x46b7
000046B7  5F                pop edi
000046B8  5A                pop edx
000046B9  4E                dec esi
000046BA  395F5F            cmp [edi+0x5f],ebx
000046BD  676E              a16 outsb
000046BF  755F              jnz 0x4720
000046C1  637878            arpl [eax+0x78],di
000046C4  3133              xor [ebx],esi
000046C6  6E                outsb
000046C7  65775F            gs ja 0x4729
000046CA  61                popa
000046CB  6C                insb
000046CC  6C                insb
000046CD  6F                outsd
000046CE  636174            arpl [ecx+0x74],sp
000046D1  6F                outsd
000046D2  7249              jc 0x471d
000046D4  69453764657374    imul eax,[ebp+0x37],dword 0x74736564
000046DB  726F              jc 0x474c
000046DD  7945              jns 0x4724
000046DF  50                push eax
000046E0  69005F5A4E53      imul eax,[eax],dword 0x534e5a5f
000046E6  69727345526940    imul esi,[edx+0x73],dword 0x40695245
000046ED  40                inc eax
000046EE  47                inc edi
000046EF  4C                dec esp
000046F0  49                dec ecx
000046F1  42                inc edx
000046F2  43                inc ebx
000046F3  58                pop eax
000046F4  58                pop eax
000046F5  5F                pop edi
000046F6  332E              xor ebp,[esi]
000046F8  3400              xor al,0x0
000046FA  5F                pop edi
000046FB  5A                pop edx
000046FC  4E                dec esi
000046FD  395F5F            cmp [edi+0x5f],ebx
00004700  676E              a16 outsb
00004702  755F              jnz 0x4763
00004704  637878            arpl [eax+0x78],di
00004707  31345F            xor [edi+ebx*2],esi
0000470A  5F                pop edi
0000470B  61                popa
0000470C  6C                insb
0000470D  6C                insb
0000470E  6F                outsd
0000470F  635F74            arpl [edi+0x74],bx
00004712  7261              jc 0x4775
00004714  6974734953614969  imul esi,[ebx+esi*2+0x49],dword 0x69496153
0000471C  45                inc ebp
0000471D  45                inc ebp
0000471E  386D61            cmp [ebp+0x61],ch
00004721  785F              js 0x4782
00004723  7369              jnc 0x478e
00004725  7A65              jpe 0x478c
00004727  45                inc ebp
00004728  52                push edx
00004729  4B                dec ebx
0000472A  53                push ebx
0000472B  315F00            xor [edi+0x0],ebx
0000472E  6D                insd
0000472F  656D              gs insd
00004731  6D                insd
00004732  6F                outsd
00004733  7665              jna 0x479a
00004735  40                inc eax
00004736  40                inc eax
00004737  47                inc edi
00004738  4C                dec esp
00004739  49                dec ecx
0000473A  42                inc edx
0000473B  43                inc ebx
0000473C  5F                pop edi
0000473D  322E              xor ch,[esi]
0000473F  3000              xor [eax],al
00004741  5F                pop edi
00004742  5A                pop edx
00004743  4E                dec esi
00004744  395F5F            cmp [edi+0x5f],ebx
00004747  676E              a16 outsb
00004749  755F              jnz 0x47aa
0000474B  637878            arpl [eax+0x78],di
0000474E  3133              xor [ebx],esi
00004750  6E                outsb
00004751  65775F            gs ja 0x47b3
00004754  61                popa
00004755  6C                insb
00004756  6C                insb
00004757  6F                outsd
00004758  636174            arpl [ecx+0x74],sp
0000475B  6F                outsd
0000475C  7249              jc 0x47a7
0000475E  694538616C6C6F    imul eax,[ebp+0x38],dword 0x6f6c6c61
00004765  636174            arpl [ecx+0x74],sp
00004768  6545              gs inc ebp
0000476A  6A50              push byte +0x50
0000476C  4B                dec ebx
0000476D  7600              jna 0x476f
0000476F  5F                pop edi
00004770  5A                pop edx
00004771  53                push ebx
00004772  7432              jz 0x47a6
00004774  335F5F            xor ebx,[edi+0x5f]
00004777  636F70            arpl [edi+0x70],bp
0000477A  795F              jns 0x47db
0000477C  6D                insd
0000477D  6F                outsd
0000477E  7665              jna 0x47e5
00004780  5F                pop edi
00004781  626163            bound esp,[ecx+0x63]
00004784  6B776172          imul esi,[edi+0x61],byte +0x72
00004788  645F              fs pop edi
0000478A  61                popa
0000478B  32494C            xor cl,[ecx+0x4c]
0000478E  6230              bound esi,[eax]
00004790  45                inc ebp
00004791  50                push eax
00004792  6953305F455431    imul edx,[ebx+0x30],dword 0x3154455f
00004799  5F                pop edi
0000479A  54                push esp
0000479B  305F53            xor [edi+0x53],bl
0000479E  325F53            xor bl,[edi+0x53]
000047A1  315F00            xor [edi+0x0],ebx
000047A4  5F                pop edi
000047A5  5A                pop edx
000047A6  53                push ebx
000047A7  7431              jz 0x47da
000047A9  33636F            xor esp,[ebx+0x6f]
000047AC  7079              jo 0x4827
000047AE  5F                pop edi
000047AF  626163            bound esp,[ecx+0x63]
000047B2  6B776172          imul esi,[edi+0x61],byte +0x72
000047B6  6449              fs dec ecx
000047B8  50                push eax
000047B9  6953305F455430    imul edx,[ebx+0x30],dword 0x3054455f
000047C0  5F                pop edi
000047C1  54                push esp
000047C2  5F                pop edi
000047C3  53                push ebx
000047C4  325F53            xor bl,[edi+0x53]
000047C7  315F00            xor [edi+0x0],ebx
000047CA  5F                pop edi
000047CB  5A                pop edx
000047CC  4E                dec esi
000047CD  4B                dec ebx
000047CE  395F5F            cmp [edi+0x5f],ebx
000047D1  676E              a16 outsb
000047D3  755F              jnz 0x4834
000047D5  637878            arpl [eax+0x78],di
000047D8  3137              xor [edi],esi
000047DA  5F                pop edi
000047DB  5F                pop edi
000047DC  6E                outsb
000047DD  6F                outsd
000047DE  726D              jc 0x484d
000047E0  61                popa
000047E1  6C                insb
000047E2  5F                pop edi
000047E3  6974657261746F72  imul esi,[ebp+0x72],dword 0x726f7461
000047EB  49                dec ecx
000047EC  50                push eax
000047ED  69537436766563    imul edx,[ebx+0x74],dword 0x63657636
000047F4  746F              jz 0x4865
000047F6  7249              jc 0x4841
000047F8  69536149694545    imul edx,[ebx+0x61],dword 0x45456949
000047FF  45                inc ebp
00004800  646545            gs inc ebp
00004803  7600              jna 0x4805
00004805  5F                pop edi
00004806  656E              gs outsb
00004808  64005F5F          add [fs:edi+0x5f],bl
0000480C  637861            arpl [eax+0x61],di
0000480F  5F                pop edi
00004810  656E              gs outsb
00004812  645F              fs pop edi
00004814  636174            arpl [ecx+0x74],sp
00004817  636840            arpl [eax+0x40],bp
0000481A  40                inc eax
0000481B  43                inc ebx
0000481C  58                pop eax
0000481D  58                pop eax
0000481E  41                inc ecx
0000481F  42                inc edx
00004820  49                dec ecx
00004821  5F                pop edi
00004822  312E              xor [esi],ebp
00004824  3300              xor eax,[eax]
00004826  5F                pop edi
00004827  5A                pop edx
00004828  53                push ebx
00004829  7431              jz 0x485c
0000482B  37                aaa
0000482C  5F                pop edi
0000482D  5F                pop edi
0000482E  7468              jz 0x4898
00004830  726F              jc 0x48a1
00004832  775F              ja 0x4893
00004834  626164            bound esp,[ecx+0x64]
00004837  5F                pop edi
00004838  61                popa
00004839  6C                insb
0000483A  6C                insb
0000483B  6F                outsd
0000483C  637640            arpl [esi+0x40],si
0000483F  40                inc eax
00004840  47                inc edi
00004841  4C                dec esp
00004842  49                dec ecx
00004843  42                inc edx
00004844  43                inc ebx
00004845  58                pop eax
00004846  58                pop eax
00004847  5F                pop edi
00004848  332E              xor ebp,[esi]
0000484A  3400              xor al,0x0
0000484C  5F                pop edi
0000484D  5A                pop edx
0000484E  4E                dec esi
0000484F  395F5F            cmp [edi+0x5f],ebx
00004852  676E              a16 outsb
00004854  755F              jnz 0x48b5
00004856  637878            arpl [eax+0x78],di
00004859  31345F            xor [edi+ebx*2],esi
0000485C  5F                pop edi
0000485D  61                popa
0000485E  6C                insb
0000485F  6C                insb
00004860  6F                outsd
00004861  635F74            arpl [edi+0x74],bx
00004864  7261              jc 0x48c7
00004866  6974734953614969  imul esi,[ebx+esi*2+0x49],dword 0x69496153
0000486E  45                inc ebp
0000486F  45                inc ebp
00004870  37                aaa
00004871  64657374          gs jnc 0x48e9
00004875  726F              jc 0x48e6
00004877  7945              jns 0x48be
00004879  52                push edx
0000487A  53                push ebx
0000487B  315F50            xor [edi+0x50],ebx
0000487E  69005F5F6378      imul eax,[eax],dword 0x78635f5f
00004884  61                popa
00004885  5F                pop edi
00004886  626567            bound esp,[ebp+0x67]
00004889  696E5F63617463    imul ebp,[esi+0x5f],dword 0x63746163
00004890  6840404358        push dword 0x58434040
00004895  58                pop eax
00004896  41                inc ecx
00004897  42                inc edx
00004898  49                dec ecx
00004899  5F                pop edi
0000489A  312E              xor [esi],ebp
0000489C  3300              xor eax,[eax]
0000489E  5F                pop edi
0000489F  5A                pop edx
000048A0  4E                dec esi
000048A1  4B                dec ebx
000048A2  53                push ebx
000048A3  7431              jz 0x48d6
000048A5  325F56            xor bl,[edi+0x56]
000048A8  6563746F72        arpl [gs:edi+ebp*2+0x72],si
000048AD  5F                pop edi
000048AE  626173            bound esp,[ecx+0x73]
000048B1  6549              gs dec ecx
000048B3  69536149694545    imul edx,[ebx+0x61],dword 0x45456949
000048BA  3139              xor [ecx],edi
000048BC  5F                pop edi
000048BD  4D                dec ebp
000048BE  5F                pop edi
000048BF  6765745F          gs a16 jz 0x4922
000048C3  54                push esp
000048C4  705F              jo 0x4925
000048C6  61                popa
000048C7  6C                insb
000048C8  6C                insb
000048C9  6F                outsd
000048CA  636174            arpl [ecx+0x74],sp
000048CD  6F                outsd
000048CE  7245              jc 0x4915
000048D0  7600              jna 0x48d2
000048D2  5F                pop edi
000048D3  5A                pop edx
000048D4  4E                dec esi
000048D5  53                push ebx
000048D6  7431              jz 0x4909
000048D8  325F56            xor bl,[edi+0x56]
000048DB  6563746F72        arpl [gs:edi+ebp*2+0x72],si
000048E0  5F                pop edi
000048E1  626173            bound esp,[ecx+0x73]
000048E4  6549              gs dec ecx
000048E6  69536149694545    imul edx,[ebx+0x61],dword 0x45456949
000048ED  3132              xor [edx],esi
000048EF  5F                pop edi
000048F0  56                push esi
000048F1  6563746F72        arpl [gs:edi+ebp*2+0x72],si
000048F6  5F                pop edi
000048F7  696D706C443145    imul ebp,[ebp+0x70],dword 0x4531446c
000048FE  7600              jna 0x4900
00004900  5F                pop edi
00004901  5A                pop edx
00004902  4E                dec esi
00004903  395F5F            cmp [edi+0x5f],ebx
00004906  676E              a16 outsb
00004908  755F              jnz 0x4969
0000490A  637878            arpl [eax+0x78],di
0000490D  3133              xor [ebx],esi
0000490F  6E                outsb
00004910  65775F            gs ja 0x4972
00004913  61                popa
00004914  6C                insb
00004915  6C                insb
00004916  6F                outsd
00004917  636174            arpl [ecx+0x74],sp
0000491A  6F                outsd
0000491B  7249              jc 0x4966
0000491D  694539636F6E73    imul eax,[ebp+0x39],dword 0x736e6f63
00004924  7472              jz 0x4998
00004926  7563              jnz 0x498b
00004928  7445              jz 0x496f
0000492A  50                push eax
0000492B  69524B69005F65    imul edx,[edx+0x4b],dword 0x655f0069
00004932  6461              fs popa
00004934  7461              jz 0x4997
00004936  005F5F            add [edi+0x5f],bl
00004939  677878            a16 js 0x49b4
0000493C  5F                pop edi
0000493D  7065              jo 0x49a4
0000493F  7273              jc 0x49b4
00004941  6F                outsd
00004942  6E                outsb
00004943  61                popa
00004944  6C                insb
00004945  6974795F76304040  imul esi,[ecx+edi*2+0x5f],dword 0x40403076
0000494D  43                inc ebx
0000494E  58                pop eax
0000494F  58                pop eax
00004950  41                inc ecx
00004951  42                inc edx
00004952  49                dec ecx
00004953  5F                pop edi
00004954  312E              xor [esi],ebp
00004956  3300              xor eax,[eax]
00004958  5F                pop edi
00004959  5A                pop edx
0000495A  4E                dec esi
0000495B  53                push ebx
0000495C  61                popa
0000495D  49                dec ecx
0000495E  69454431457600    imul eax,[ebp+0x44],dword 0x764531
00004965  5F                pop edi
00004966  5A                pop edx
00004967  4E                dec esi
00004968  4B                dec ebx
00004969  395F5F            cmp [edi+0x5f],ebx
0000496C  676E              a16 outsb
0000496E  755F              jnz 0x49cf
00004970  637878            arpl [eax+0x78],di
00004973  3133              xor [ebx],esi
00004975  6E                outsb
00004976  65775F            gs ja 0x49d8
00004979  61                popa
0000497A  6C                insb
0000497B  6C                insb
0000497C  6F                outsd
0000497D  636174            arpl [ecx+0x74],sp
00004980  6F                outsd
00004981  7249              jc 0x49cc
00004983  6945386D61785F    imul eax,[ebp+0x38],dword 0x5f78616d
0000498A  7369              jnc 0x49f5
0000498C  7A65              jpe 0x49f3
0000498E  45                inc ebp
0000498F  7600              jna 0x4991
00004991  5F                pop edi
00004992  55                push ebp
00004993  6E                outsb
00004994  7769              ja 0x49ff
00004996  6E                outsb
00004997  645F              fs pop edi
00004999  52                push edx
0000499A  657375            gs jnc 0x4a12
0000499D  6D                insd
0000499E  6540              gs inc eax
000049A0  40                inc eax
000049A1  47                inc edi
000049A2  43                inc ebx
000049A3  43                inc ebx
000049A4  5F                pop edi
000049A5  332E              xor ebp,[esi]
000049A7  3000              xor [eax],al
000049A9  5F                pop edi
000049AA  5A                pop edx
000049AB  4E                dec esi
000049AC  53                push ebx
000049AD  7436              jz 0x49e5
000049AF  7665              jna 0x4a16
000049B1  63746F72          arpl [edi+ebp*2+0x72],si
000049B5  49                dec ecx
000049B6  69536149694545    imul edx,[ebx+0x61],dword 0x45456949
000049BD  397075            cmp [eax+0x75],esi
000049C0  7368              jnc 0x4a2a
000049C2  5F                pop edi
000049C3  626163            bound esp,[ecx+0x63]
000049C6  6B45524B          imul eax,[ebp+0x52],byte +0x4b
000049CA  69005F5A5374      imul eax,[eax],dword 0x74535a5f
000049D0  3463              xor al,0x63
000049D2  6F                outsd
000049D3  7079              jo 0x4a4e
000049D5  49                dec ecx
000049D6  50                push eax
000049D7  6953305F455430    imul edx,[ebx+0x30],dword 0x3054455f
000049DE  5F                pop edi
000049DF  54                push esp
000049E0  5F                pop edi
000049E1  53                push ebx
000049E2  325F53            xor bl,[edi+0x53]
000049E5  315F00            xor [edi+0x0],ebx
000049E8  5F                pop edi
000049E9  5F                pop edi
000049EA  693638362E67      imul esi,[esi],dword 0x672e3638
000049F0  65745F            gs jz 0x4a52
000049F3  7063              jo 0x4a58
000049F5  5F                pop edi
000049F6  7468              jz 0x4a60
000049F8  756E              jnz 0x4a68
000049FA  6B2E62            imul ebp,[esi],byte +0x62
000049FD  7800              js 0x49ff
000049FF  5F                pop edi
00004A00  5A                pop edx
00004A01  53                push ebx
00004A02  7431              jz 0x4a35
00004A04  325F5F            xor bl,[edi+0x5f]
00004A07  6E                outsb
00004A08  697465725F626173  imul esi,[ebp+0x72],dword 0x7361625f
00004A10  6549              gs dec ecx
00004A12  50                push eax
00004A13  69454E53743131    imul eax,[ebp+0x4e],dword 0x31317453
00004A1A  5F                pop edi
00004A1B  4E                dec esi
00004A1C  697465725F626173  imul esi,[ebp+0x72],dword 0x7361625f
00004A24  6549              gs dec ecx
00004A26  54                push esp
00004A27  5F                pop edi
00004A28  45                inc ebp
00004A29  3133              xor [ebx],esi
00004A2B  6974657261746F72  imul esi,[ebp+0x72],dword 0x726f7461
00004A33  5F                pop edi
00004A34  7479              jz 0x4aaf
00004A36  7065              jo 0x4a9d
00004A38  45                inc ebp
00004A39  53                push ebx
00004A3A  325F00            xor bl,[edi+0x0]
00004A3D  6D                insd
00004A3E  61                popa
00004A3F  696E005F696E69    imul ebp,[esi+0x0],dword 0x696e695f
00004A46  7400              jz 0x4a48
00004A48  5F                pop edi
00004A49  5A                pop edx
00004A4A  4E                dec esi
00004A4B  395F5F            cmp [edi+0x5f],ebx
00004A4E  676E              a16 outsb
00004A50  755F              jnz 0x4ab1
00004A52  637878            arpl [eax+0x78],di
00004A55  3133              xor [ebx],esi
00004A57  6E                outsb
00004A58  65775F            gs ja 0x4aba
00004A5B  61                popa
00004A5C  6C                insb
00004A5D  6C                insb
00004A5E  6F                outsd
00004A5F  636174            arpl [ecx+0x74],sp
00004A62  6F                outsd
00004A63  7249              jc 0x4aae
00004A65  69454332457600    imul eax,[ebp+0x43],dword 0x764532
00004A6C  5F                pop edi
00004A6D  5A                pop edx
00004A6E  4E                dec esi
00004A6F  395F5F            cmp [edi+0x5f],ebx
00004A72  676E              a16 outsb
00004A74  755F              jnz 0x4ad5
00004A76  637878            arpl [eax+0x78],di
00004A79  6D                insd
00004A7A  69495069537436    imul ecx,[ecx+0x50],dword 0x36745369
00004A81  7665              jna 0x4ae8
00004A83  63746F72          arpl [edi+ebp*2+0x72],si
00004A87  49                dec ecx
00004A88  69536149694545    imul edx,[ebx+0x61],dword 0x45456949
00004A8F  45                inc ebp
00004A90  45                inc ebp
00004A91  4E                dec esi
00004A92  53                push ebx
00004A93  5F                pop edi
00004A94  3137              xor [edi],esi
00004A96  5F                pop edi
00004A97  5F                pop edi
00004A98  6E                outsb
00004A99  6F                outsd
00004A9A  726D              jc 0x4b09
00004A9C  61                popa
00004A9D  6C                insb
00004A9E  5F                pop edi
00004A9F  6974657261746F72  imul esi,[ebp+0x72],dword 0x726f7461
00004AA7  49                dec ecx
00004AA8  54                push esp
00004AA9  5F                pop edi
00004AAA  54                push esp
00004AAB  305F45            xor [edi+0x45],bl
00004AAE  313564696666      xor [0x66666964],esi
00004AB4  657265            gs jc 0x4b1c
00004AB7  6E                outsb
00004AB8  63655F            arpl [ebp+0x5f],sp
00004ABB  7479              jz 0x4b36
00004ABD  7065              jo 0x4b24
00004ABF  45                inc ebp
00004AC0  52                push edx
00004AC1  4B                dec ebx
00004AC2  53                push ebx
00004AC3  385F53            cmp [edi+0x53],bl
00004AC6  42                inc edx
00004AC7  5F                pop edi
00004AC8  00                db 0x00
