00000000  7F45              jg 0x47
00000002  4C                dec esp
00000003  46                inc esi
00000004  0101              add [ecx],eax
00000006  0100              add [eax],eax
00000008  0000              add [eax],al
0000000A  0000              add [eax],al
0000000C  0000              add [eax],al
0000000E  0000              add [eax],al
00000010  0200              add al,[eax]
00000012  0300              add eax,[eax]
00000014  0100              add [eax],eax
00000016  0000              add [eax],al
00000018  D08804083400      ror byte [eax+0x340804],1
0000001E  0000              add [eax],al
00000020  B839000000        mov eax,0x39
00000025  0000              add [eax],al
00000027  003400            add [eax+eax],dh
0000002A  2000              and [eax],al
0000002C  0800              or [eax],al
0000002E  2800              sub [eax],al
00000030  260023            add [es:ebx],ah
00000033  0006              add [esi],al
00000035  0000              add [eax],al
00000037  003400            add [eax+eax],dh
0000003A  0000              add [eax],al
0000003C  3480              xor al,0x80
0000003E  0408              add al,0x8
00000040  3480              xor al,0x80
00000042  0408              add al,0x8
00000044  0001              add [ecx],al
00000046  0000              add [eax],al
00000048  0001              add [ecx],al
0000004A  0000              add [eax],al
0000004C  0500000004        add eax,0x4000000
00000051  0000              add [eax],al
00000053  0003              add [ebx],al
00000055  0000              add [eax],al
00000057  003401            add [ecx+eax],dh
0000005A  0000              add [eax],al
0000005C  3481              xor al,0x81
0000005E  0408              add al,0x8
00000060  3481              xor al,0x81
00000062  0408              add al,0x8
00000064  1300              adc eax,[eax]
00000066  0000              add [eax],al
00000068  1300              adc eax,[eax]
0000006A  0000              add [eax],al
0000006C  0400              add al,0x0
0000006E  0000              add [eax],al
00000070  0100              add [eax],eax
00000072  0000              add [eax],al
00000074  0100              add [eax],eax
00000076  0000              add [eax],al
00000078  0000              add [eax],al
0000007A  0000              add [eax],al
0000007C  008004080080      add [eax+0x80000804],al
00000082  0408              add al,0x8
00000084  8F                db 0x8F
00000085  2A00              sub al,[eax]
00000087  008F2A000005      add [edi+0x500002a],cl
0000008D  0000              add [eax],al
0000008F  0000              add [eax],al
00000091  1000              adc [eax],al
00000093  0001              add [ecx],al
00000095  0000              add [eax],al
00000097  0000              add [eax],al
00000099  3000              xor [eax],al
0000009B  0000              add [eax],al
0000009D  B004              mov al,0x4
0000009F  0800              or [eax],al
000000A1  B004              mov al,0x4
000000A3  086001            or [eax+0x1],ah
000000A6  0000              add [eax],al
000000A8  A4                movsb
000000A9  59                pop ecx
000000AA  0000              add [eax],al
000000AC  06                push es
000000AD  0000              add [eax],al
000000AF  0000              add [eax],al
000000B1  1000              adc [eax],al
000000B3  0002              add [edx],al
000000B5  0000              add [eax],al
000000B7  0018              add [eax],bl
000000B9  3000              xor [eax],al
000000BB  0018              add [eax],bl
000000BD  B004              mov al,0x4
000000BF  0818              or [eax],bl
000000C1  B004              mov al,0x4
000000C3  08E0              or al,ah
000000C5  0000              add [eax],al
000000C7  00E0              add al,ah
000000C9  0000              add [eax],al
000000CB  0006              add [esi],al
000000CD  0000              add [eax],al
000000CF  000400            add [eax+eax],al
000000D2  0000              add [eax],al
000000D4  0400              add al,0x0
000000D6  0000              add [eax],al
000000D8  48                dec eax
000000D9  0100              add [eax],eax
000000DB  004881            add [eax-0x7f],cl
000000DE  0408              add al,0x8
000000E0  48                dec eax
000000E1  81040820000000    add dword [eax+ecx],0x20
000000E8  2000              and [eax],al
000000EA  0000              add [eax],al
000000EC  0400              add al,0x0
000000EE  0000              add [eax],al
000000F0  0400              add al,0x0
000000F2  0000              add [eax],al
000000F4  50                push eax
000000F5  E574              in eax,0x74
000000F7  64E8200000E8      fs call 0xe800011d
000000FD  A00408E8A0        mov al,[0xa0e80804]
00000102  0408              add al,0x8
00000104  CC                int3
00000105  0100              add [eax],eax
00000107  00CC              add ah,cl
00000109  0100              add [eax],eax
0000010B  000400            add [eax+eax],al
0000010E  0000              add [eax],al
00000110  0400              add al,0x0
00000112  0000              add [eax],al
00000114  51                push ecx
00000115  E574              in eax,0x74
00000117  640000            add [fs:eax],al
0000011A  0000              add [eax],al
0000011C  0000              add [eax],al
0000011E  0000              add [eax],al
00000120  0000              add [eax],al
00000122  0000              add [eax],al
00000124  0000              add [eax],al
00000126  0000              add [eax],al
00000128  0000              add [eax],al
0000012A  0000              add [eax],al
0000012C  06                push es
0000012D  0000              add [eax],al
0000012F  000400            add [eax+eax],al
00000132  0000              add [eax],al
00000134  2F                das
00000135  6C                insb
00000136  69622F6C642D6C    imul esp,[edx+0x2f],dword 0x6c2d646c
0000013D  696E75782E736F    imul ebp,[esi+0x75],dword 0x6f732e78
00000144  2E3200            xor al,[cs:eax]
00000147  000400            add [eax+eax],al
0000014A  0000              add [eax],al
0000014C  1000              adc [eax],al
0000014E  0000              add [eax],al
00000150  0100              add [eax],eax
00000152  0000              add [eax],al
00000154  47                inc edi
00000155  4E                dec esi
00000156  55                push ebp
00000157  0000              add [eax],al
00000159  0000              add [eax],al
0000015B  0002              add [edx],al
0000015D  0000              add [eax],al
0000015F  0000              add [eax],al
00000161  0000              add [eax],al
00000163  0000              add [eax],al
00000165  0000              add [eax],al
00000167  0011              add [ecx],dl
00000169  0000              add [eax],al
0000016B  0019              add [ecx],bl
0000016D  0000              add [eax],al
0000016F  0010              add [eax],dl
00000171  0000              add [eax],al
00000173  0000              add [eax],al
00000175  0000              add [eax],al
00000177  0000              add [eax],al
00000179  0000              add [eax],al
0000017B  000F              add [edi],cl
0000017D  0000              add [eax],al
0000017F  0017              add [edi],dl
00000181  0000              add [eax],al
00000183  0000              add [eax],al
00000185  0000              add [eax],al
00000187  0018              add [eax],bl
00000189  0000              add [eax],al
0000018B  000E              add [esi],cl
0000018D  0000              add [eax],al
0000018F  001400            add [eax+eax],dl
00000192  0000              add [eax],al
00000194  0000              add [eax],al
00000196  0000              add [eax],al
00000198  1200              adc al,[eax]
0000019A  0000              add [eax],al
0000019C  0000              add [eax],al
0000019E  0000              add [eax],al
000001A0  0C00              or al,0x0
000001A2  0000              add [eax],al
000001A4  0D0000000A        or eax,0xa000000
000001A9  0000              add [eax],al
000001AB  0011              add [ecx],dl
000001AD  0000              add [eax],al
000001AF  0016              add [esi],dl
000001B1  0000              add [eax],al
000001B3  0000              add [eax],al
000001B5  0000              add [eax],al
000001B7  0000              add [eax],al
000001B9  0000              add [eax],al
000001BB  0000              add [eax],al
000001BD  0000              add [eax],al
000001BF  0002              add [edx],al
000001C1  0000              add [eax],al
000001C3  0000              add [eax],al
000001C5  0000              add [eax],al
000001C7  0001              add [ecx],al
000001C9  0000              add [eax],al
000001CB  0000              add [eax],al
000001CD  0000              add [eax],al
000001CF  000400            add [eax+eax],al
000001D2  0000              add [eax],al
000001D4  0000              add [eax],al
000001D6  0000              add [eax],al
000001D8  0000              add [eax],al
000001DA  0000              add [eax],al
000001DC  0300              add eax,[eax]
000001DE  0000              add [eax],al
000001E0  0000              add [eax],al
000001E2  0000              add [eax],al
000001E4  0800              or [eax],al
000001E6  0000              add [eax],al
000001E8  0B00              or eax,[eax]
000001EA  0000              add [eax],al
000001EC  0900              or [eax],eax
000001EE  0000              add [eax],al
000001F0  07                pop es
000001F1  0000              add [eax],al
000001F3  0000              add [eax],al
000001F5  0000              add [eax],al
000001F7  0006              add [esi],al
000001F9  0000              add [eax],al
000001FB  0000              add [eax],al
000001FD  0000              add [eax],al
000001FF  0000              add [eax],al
00000201  0000              add [eax],al
00000203  0013              add [ebx],dl
00000205  0000              add [eax],al
00000207  000500000000      add [0x0],al
0000020D  0000              add [eax],al
0000020F  001500000000      add [0x0],dl
00000215  0000              add [eax],al
00000217  0000              add [eax],al
00000219  0000              add [eax],al
0000021B  0000              add [eax],al
0000021D  0000              add [eax],al
0000021F  0000              add [eax],al
00000221  0000              add [eax],al
00000223  0000              add [eax],al
00000225  0000              add [eax],al
00000227  00D3              add bl,dl
00000229  0000              add [eax],al
0000022B  0060B1            add [eax-0x4f],ah
0000022E  0408              add al,0x8
00000230  90                nop
00000231  0000              add [eax],al
00000233  0011              add [ecx],dl
00000235  0019              add [ecx],bl
00000237  00A500000000      add [ebp+0x0],ah
0000023D  0000              add [eax],al
0000023F  0000              add [eax],al
00000241  0000              add [eax],al
00000243  0012              add [edx],dl
00000245  0000              add [eax],al
00000247  00B801000000      add [eax+0x1],bh
0000024D  0000              add [eax],al
0000024F  0000              add [eax],al
00000251  0000              add [eax],al
00000253  0012              add [edx],dl
00000255  0000              add [eax],al
00000257  009A00000000      add [edx+0x0],bl
0000025D  0000              add [eax],al
0000025F  0000              add [eax],al
00000261  0000              add [eax],al
00000263  0012              add [edx],dl
00000265  0000              add [eax],al
00000267  00C5              add ch,al
00000269  0100              add [eax],eax
0000026B  0000              add [eax],al
0000026D  0000              add [eax],al
0000026F  0000              add [eax],al
00000271  0000              add [eax],al
00000273  0012              add [edx],dl
00000275  0000              add [eax],al
00000277  00AF00000000      add [edi+0x0],ch
0000027D  0000              add [eax],al
0000027F  0000              add [eax],al
00000281  0000              add [eax],al
00000283  0020              add [eax],ah
00000285  0000              add [eax],al
00000287  00F4              add ah,dh
00000289  0000              add [eax],al
0000028B  0000              add [eax],al
0000028D  0000              add [eax],al
0000028F  0000              add [eax],al
00000291  0000              add [eax],al
00000293  0020              add [eax],ah
00000295  0000              add [eax],al
00000297  00DC              add ah,bl
00000299  0000              add [eax],al
0000029B  0000              add [eax],al
0000029D  0000              add [eax],al
0000029F  0000              add [eax],al
000002A1  0000              add [eax],al
000002A3  0012              add [edx],dl
000002A5  0000              add [eax],al
000002A7  00D5              add ch,dl
000002A9  0100              add [eax],eax
000002AB  0000              add [eax],al
000002AD  0000              add [eax],al
000002AF  0000              add [eax],al
000002B1  0000              add [eax],al
000002B3  0012              add [edx],dl
000002B5  0000              add [eax],al
000002B7  002D01000000      add [0x1],ch
000002BD  0000              add [eax],al
000002BF  0000              add [eax],al
000002C1  0000              add [eax],al
000002C3  0012              add [edx],dl
000002C5  0000              add [eax],al
000002C7  008200000030      add [edx+0x30000000],al
000002CD  880408            mov [eax+ecx],al
000002D0  0000              add [eax],al
000002D2  0000              add [eax],al
000002D4  1200              adc al,[eax]
000002D6  0000              add [eax],al
000002D8  5C                pop esp
000002D9  0000              add [eax],al
000002DB  0000              add [eax],al
000002DD  0000              add [eax],al
000002DF  0000              add [eax],al
000002E1  0000              add [eax],al
000002E3  0020              add [eax],ah
000002E5  0000              add [eax],al
000002E7  00A2010000CC      add [edx+0xcc000001],ah
000002ED  A004080400        mov al,[0x40804]
000002F2  0000              add [eax],al
000002F4  1100              adc [eax],eax
000002F6  0E                push cs
000002F7  008001000000      add [eax+0x1],al
000002FD  0000              add [eax],al
000002FF  0000              add [eax],al
00000301  0000              add [eax],al
00000303  0012              add [edx],dl
00000305  0000              add [eax],al
00000307  0013              add [ebx],dl
00000309  0100              add [eax],eax
0000030B  0000              add [eax],al
0000030D  0000              add [eax],al
0000030F  0000              add [eax],al
00000311  0000              add [eax],al
00000313  0020              add [eax],ah
00000315  0000              add [eax],al
00000317  007800            add [eax+0x0],bh
0000031A  0000              add [eax],al
0000031C  00B204088C00      add [edx+0x8c0804],dh
00000322  0000              add [eax],al
00000324  1100              adc [eax],eax
00000326  1900              sbb [eax],eax
00000328  6D                insd
00000329  0100              add [eax],eax
0000032B  0000              add [eax],al
0000032D  0000              add [eax],al
0000032F  0000              add [eax],al
00000331  0000              add [eax],al
00000333  0012              add [edx],dl
00000335  0000              add [eax],al
00000337  00B101000000      add [ecx+0x1],dh
0000033D  0000              add [eax],al
0000033F  0000              add [eax],al
00000341  0000              add [eax],al
00000343  0012              add [edx],dl
00000345  0000              add [eax],al
00000347  0008              add [eax],cl
00000349  0100              add [eax],eax
0000034B  0000              add [eax],al
0000034D  0000              add [eax],al
0000034F  0000              add [eax],al
00000351  0000              add [eax],al
00000353  0012              add [edx],dl
00000355  0000              add [eax],al
00000357  00CD              add ch,cl
00000359  0100              add [eax],eax
0000035B  0000              add [eax],al
0000035D  0000              add [eax],al
0000035F  0000              add [eax],al
00000361  0000              add [eax],al
00000363  0012              add [edx],dl
00000365  0000              add [eax],al
00000367  0010              add [eax],dl
00000369  0000              add [eax],al
0000036B  0000              add [eax],al
0000036D  0000              add [eax],al
0000036F  0000              add [eax],al
00000371  0000              add [eax],al
00000373  0012              add [edx],dl
00000375  0000              add [eax],al
00000377  0021              add [ecx],ah
00000379  0000              add [eax],al
0000037B  00A088040800      add [eax+0x80488],ah
00000381  0000              add [eax],al
00000383  0012              add [edx],dl
00000385  0000              add [eax],al
00000387  00BE000000B0      add [esi+0xb0000000],bh
0000038D  880408            mov [eax+ecx],al
00000390  0000              add [eax],al
00000392  0000              add [eax],al
00000394  1200              adc al,[eax]
00000396  0000              add [eax],al
00000398  8901              mov [ecx],eax
0000039A  0000              add [eax],al
0000039C  0000              add [eax],al
0000039E  0000              add [eax],al
000003A0  0000              add [eax],al
000003A2  0000              add [eax],al
000003A4  1200              adc al,[eax]
000003A6  0000              add [eax],al
000003A8  006C6962          add [ecx+ebp*2+0x62],ch
000003AC  7374              jnc 0x422
000003AE  64632B            arpl [fs:ebx],bp
000003B1  2B2E              sub ebp,[esi]
000003B3  736F              jnc 0x424
000003B5  2E36005F5A        add [ss:edi+0x5a],bl
000003BA  4E                dec esi
000003BB  53                push ebx
000003BC  6F                outsd
000003BD  6C                insb
000003BE  7345              jnc 0x405
000003C0  50                push eax
000003C1  46                inc esi
000003C2  52                push edx
000003C3  53                push ebx
000003C4  6F                outsd
000003C5  53                push ebx
000003C6  5F                pop edi
000003C7  45                inc ebp
000003C8  005F5A            add [edi+0x5a],bl
000003CB  53                push ebx
000003CC  7434              jz 0x402
000003CE  656E              gs outsb
000003D0  646C              fs insb
000003D2  49                dec ecx
000003D3  635374            arpl [ebx+0x74],dx
000003D6  3131              xor [ecx],esi
000003D8  636861            arpl [eax+0x61],bp
000003DB  725F              jc 0x43c
000003DD  7472              jz 0x451
000003DF  61                popa
000003E0  6974734963454552  imul esi,[ebx+esi*2+0x49],dword 0x52454563
000003E8  53                push ebx
000003E9  7431              jz 0x41c
000003EB  336261            xor esp,[edx+0x61]
000003EE  7369              jnc 0x459
000003F0  635F6F            arpl [edi+0x6f],bx
000003F3  7374              jnc 0x469
000003F5  7265              jc 0x45c
000003F7  61                popa
000003F8  6D                insd
000003F9  49                dec ecx
000003FA  54                push esp
000003FB  5F                pop edi
000003FC  54                push esp
000003FD  305F45            xor [edi+0x45],bl
00000400  53                push ebx
00000401  365F              ss pop edi
00000403  005F49            add [edi+0x49],bl
00000406  54                push esp
00000407  4D                dec ebp
00000408  5F                pop edi
00000409  64657265          gs jc 0x472
0000040D  676973746572544D  imul esi,[bp+di+0x74],dword 0x4d547265
00000415  43                inc ebx
00000416  6C                insb
00000417  6F                outsd
00000418  6E                outsb
00000419  6554              gs push esp
0000041B  61                popa
0000041C  626C6500          bound ebp,[ebp+0x0]
00000420  5F                pop edi
00000421  5A                pop edx
00000422  53                push ebx
00000423  7434              jz 0x459
00000425  636F75            arpl [edi+0x75],bp
00000428  7400              jz 0x42a
0000042A  5F                pop edi
0000042B  5A                pop edx
0000042C  4E                dec esi
0000042D  53                push ebx
0000042E  7438              jz 0x468
00000430  696F735F626173    imul ebp,[edi+0x73],dword 0x7361625f
00000437  653449            gs xor al,0x49
0000043A  6E                outsb
0000043B  697444314576005F  imul esi,[esp+eax*2+0x31],dword 0x5f007645
00000443  5A                pop edx
00000444  4E                dec esi
00000445  53                push ebx
00000446  69727345526400    imul esi,[edx+0x73],dword 0x645245
0000044D  5F                pop edi
0000044E  5A                pop edx
0000044F  4E                dec esi
00000450  53                push ebx
00000451  6F                outsd
00000452  6C                insb
00000453  7345              jnc 0x49a
00000455  64005F5F          add [fs:edi+0x5f],bl
00000459  676D              a16 insd
0000045B  6F                outsd
0000045C  6E                outsb
0000045D  5F                pop edi
0000045E  7374              jnc 0x4d4
00000460  61                popa
00000461  7274              jc 0x4d7
00000463  5F                pop edi
00000464  5F                pop edi
00000465  005F5F            add [edi+0x5f],bl
00000468  677878            a16 js 0x4e3
0000046B  5F                pop edi
0000046C  7065              jo 0x4d3
0000046E  7273              jc 0x4e3
00000470  6F                outsd
00000471  6E                outsb
00000472  61                popa
00000473  6C                insb
00000474  6974795F7630005F  imul esi,[ecx+edi*2+0x5f],dword 0x5f003076
0000047C  5A                pop edx
0000047D  53                push ebx
0000047E  7433              jz 0x4b3
00000480  63696E            arpl [ecx+0x6e],bp
00000483  005F5A            add [edi+0x5a],bl
00000486  4E                dec esi
00000487  53                push ebx
00000488  7438              jz 0x4c2
0000048A  696F735F626173    imul ebp,[edi+0x73],dword 0x7361625f
00000491  653449            gs xor al,0x49
00000494  6E                outsb
00000495  697443314576005F  imul esi,[ebx+eax*2+0x31],dword 0x5f007645
0000049D  4A                dec edx
0000049E  765F              jna 0x4ff
000004A0  52                push edx
000004A1  6567697374657243  imul esi,[gs:bp+di+0x74],dword 0x6c437265
         -6C
000004AA  61                popa
000004AB  7373              jnc 0x520
000004AD  657300            gs jnc 0x4b0
000004B0  5F                pop edi
000004B1  5A                pop edx
000004B2  4E                dec esi
000004B3  53                push ebx
000004B4  69727345526900    imul esi,[edx+0x73],dword 0x695245
000004BB  5F                pop edi
000004BC  49                dec ecx
000004BD  54                push esp
000004BE  4D                dec ebp
000004BF  5F                pop edi
000004C0  7265              jc 0x527
000004C2  676973746572544D  imul esi,[bp+di+0x74],dword 0x4d547265
000004CA  43                inc ebx
000004CB  6C                insb
000004CC  6F                outsd
000004CD  6E                outsb
000004CE  6554              gs push esp
000004D0  61                popa
000004D1  626C6500          bound ebp,[ebp+0x0]
000004D5  5F                pop edi
000004D6  5A                pop edx
000004D7  53                push ebx
000004D8  746C              jz 0x546
000004DA  7349              jnc 0x525
000004DC  53                push ebx
000004DD  7431              jz 0x510
000004DF  316368            xor [ebx+0x68],esp
000004E2  61                popa
000004E3  725F              jc 0x544
000004E5  7472              jz 0x559
000004E7  61                popa
000004E8  6974734963454552  imul esi,[ebx+esi*2+0x49],dword 0x52454563
000004F0  53                push ebx
000004F1  7431              jz 0x524
000004F3  336261            xor esp,[edx+0x61]
000004F6  7369              jnc 0x561
000004F8  635F6F            arpl [edi+0x6f],bx
000004FB  7374              jnc 0x571
000004FD  7265              jc 0x564
000004FF  61                popa
00000500  6D                insd
00000501  49                dec ecx
00000502  63545F45          arpl [edi+ebx*2+0x45],dx
00000506  53                push ebx
00000507  355F63006C        xor eax,0x6c00635f
0000050C  69626D2E736F2E    imul esp,[edx+0x6d],dword 0x2e6f732e
00000513  36006361          add [ss:ebx+0x61],ah
00000517  627300            bound esi,[ebx+0x0]
0000051A  6C                insb
0000051B  69626763635F73    imul esp,[edx+0x67],dword 0x735f6363
00000522  2E736F            cs jnc 0x594
00000525  2E3100            xor [cs:eax],eax
00000528  5F                pop edi
00000529  5F                pop edi
0000052A  6D                insd
0000052B  756C              jnz 0x599
0000052D  646333            arpl [fs:ebx],si
00000530  005F55            add [edi+0x55],bl
00000533  6E                outsb
00000534  7769              ja 0x59f
00000536  6E                outsb
00000537  645F              fs pop edi
00000539  52                push edx
0000053A  657375            gs jnc 0x5b2
0000053D  6D                insd
0000053E  65006C6962        add [gs:ecx+ebp*2+0x62],ch
00000543  632E              arpl [esi],bp
00000545  736F              jnc 0x5b6
00000547  2E36005F49        add [ss:edi+0x49],bl
0000054C  4F                dec edi
0000054D  5F                pop edi
0000054E  7374              jnc 0x5c4
00000550  64696E5F75736564  imul ebp,[fs:esi+0x5f],dword 0x64657375
00000558  007072            add [eax+0x72],dh
0000055B  696E7466005F5F    imul ebp,[esi+0x74],dword 0x5f5f0066
00000562  637861            arpl [eax+0x61],di
00000565  5F                pop edi
00000566  61                popa
00000567  7465              jz 0x5ce
00000569  7869              js 0x5d4
0000056B  7400              jz 0x56d
0000056D  67657463          gs a16 jz 0x5d4
00000571  686172006D        push dword 0x6d007261
00000576  656D              gs insd
00000578  6D                insd
00000579  6F                outsd
0000057A  7665              jna 0x5e1
0000057C  005F5F            add [edi+0x5f],bl
0000057F  6C                insb
00000580  6962635F737461    imul esp,[edx+0x63],dword 0x6174735f
00000587  7274              jc 0x5fd
00000589  5F                pop edi
0000058A  6D                insd
0000058B  61                popa
0000058C  696E00474C4942    imul ebp,[esi+0x0],dword 0x42494c47
00000593  43                inc ebx
00000594  5F                pop edi
00000595  322E              xor ch,[esi]
00000597  3100              xor [eax],eax
00000599  47                inc edi
0000059A  43                inc ebx
0000059B  43                inc ebx
0000059C  5F                pop edi
0000059D  332E              xor ebp,[esi]
0000059F  3000              xor [eax],al
000005A1  47                inc edi
000005A2  43                inc ebx
000005A3  43                inc ebx
000005A4  5F                pop edi
000005A5  342E              xor al,0x2e
000005A7  302E              xor [esi],ch
000005A9  3000              xor [eax],al
000005AB  47                inc edi
000005AC  4C                dec esp
000005AD  49                dec ecx
000005AE  42                inc edx
000005AF  43                inc ebx
000005B0  5F                pop edi
000005B1  322E              xor ch,[esi]
000005B3  3000              xor [eax],al
000005B5  47                inc edi
000005B6  4C                dec esp
000005B7  49                dec ecx
000005B8  42                inc edx
000005B9  43                inc ebx
000005BA  5F                pop edi
000005BB  322E              xor ch,[esi]
000005BD  312E              xor [esi],ebp
000005BF  3300              xor eax,[eax]
000005C1  43                inc ebx
000005C2  58                pop eax
000005C3  58                pop eax
000005C4  41                inc ecx
000005C5  42                inc edx
000005C6  49                dec ecx
000005C7  5F                pop edi
000005C8  312E              xor [esi],ebp
000005CA  3300              xor eax,[eax]
000005CC  47                inc edi
000005CD  4C                dec esp
000005CE  49                dec ecx
000005CF  42                inc edx
000005D0  43                inc ebx
000005D1  58                pop eax
000005D2  58                pop eax
000005D3  5F                pop edi
000005D4  332E              xor ebp,[esi]
000005D6  3400              xor al,0x0
000005D8  0000              add [eax],al
000005DA  0200              add al,[eax]
000005DC  0200              add al,[eax]
000005DE  0300              add eax,[eax]
000005E0  0200              add al,[eax]
000005E2  0400              add al,0x0
000005E4  0000              add [eax],al
000005E6  0000              add [eax],al
000005E8  0200              add al,[eax]
000005EA  0400              add al,0x0
000005EC  0200              add al,[eax]
000005EE  0200              add al,[eax]
000005F0  0000              add [eax],al
000005F2  0100              add [eax],eax
000005F4  0500000002        add eax,0x2000000
000005F9  0006              add [esi],al
000005FB  000400            add [eax+eax],al
000005FE  0200              add al,[eax]
00000600  0400              add al,0x0
00000602  0200              add al,[eax]
00000604  0200              add al,[eax]
00000606  07                pop es
00000607  0008              add [eax],cl
00000609  0000              add [eax],al
0000060B  0001              add [ecx],al
0000060D  0001              add [ecx],al
0000060F  006301            add [ebx+0x1],ah
00000612  0000              add [eax],al
00000614  1000              adc [eax],al
00000616  0000              add [eax],al
00000618  2000              and [eax],al
0000061A  0000              add [eax],al
0000061C  116969            adc [ecx+0x69],ebp
0000061F  0D00000600        or eax,0x60000
00000624  E701              out 0x1,eax
00000626  0000              add [eax],al
00000628  0000              add [eax],al
0000062A  0000              add [eax],al
0000062C  0100              add [eax],eax
0000062E  0200              add al,[eax]
00000630  7201              jc 0x633
00000632  0000              add [eax],al
00000634  1000              adc [eax],al
00000636  0000              add [eax],al
00000638  3000              xor [eax],al
0000063A  0000              add [eax],al
0000063C  50                push eax
0000063D  26790B            es jns 0x64b
00000640  0000              add [eax],al
00000642  0800              or [eax],al
00000644  F1                int1
00000645  0100              add [eax],eax
00000647  0010              add [eax],dl
00000649  0000              add [eax],al
0000064B  00605A            add [eax+0x5a],ah
0000064E  27                daa
0000064F  0900              or [eax],eax
00000651  000500F90100      add [0x1f900],al
00000657  0000              add [eax],al
00000659  0000              add [eax],al
0000065B  0001              add [ecx],al
0000065D  0002              add [edx],al
0000065F  009801000010      add [eax+0x10000001],bl
00000665  0000              add [eax],al
00000667  0030              add [eax],dh
00000669  0000              add [eax],al
0000066B  0010              add [eax],dl
0000066D  69690D00000400    imul ebp,[ecx+0xd],dword 0x40000
00000674  0302              add eax,[edx]
00000676  0000              add [eax],al
00000678  1000              adc [eax],al
0000067A  0000              add [eax],al
0000067C  731F              jnc 0x69d
0000067E  690900000300      imul ecx,[ecx],dword 0x30000
00000684  0D02000000        or eax,0x2
00000689  0000              add [eax],al
0000068B  0001              add [ecx],al
0000068D  0002              add [edx],al
0000068F  0001              add [ecx],al
00000691  0000              add [eax],al
00000693  0010              add [eax],dl
00000695  0000              add [eax],al
00000697  0000              add [eax],al
00000699  0000              add [eax],al
0000069B  00D3              add bl,dl
0000069D  AF                scasd
0000069E  6B050000070019    imul eax,[0x70000],byte +0x19
000006A5  0200              add al,[eax]
000006A7  0010              add [eax],dl
000006A9  0000              add [eax],al
000006AB  00742992          add [ecx+ebp-0x6e],dh
000006AF  0800              or [eax],al
000006B1  0002              add [edx],al
000006B3  002402            add [edx+eax],ah
000006B6  0000              add [eax],al
000006B8  0000              add [eax],al
000006BA  0000              add [eax],al
000006BC  F8                clc
000006BD  B004              mov al,0x4
000006BF  0806              or [esi],al
000006C1  06                push es
000006C2  0000              add [eax],al
000006C4  60                pusha
000006C5  B104              mov cl,0x4
000006C7  080501000000      or [0x1],al
000006CD  B204              mov dl,0x4
000006CF  080510000008      or [0x8000010],al
000006D5  B104              mov cl,0x4
000006D7  0807              or [edi],al
000006D9  0200              add al,[eax]
000006DB  000CB1            add [ecx+esi*4],cl
000006DE  0408              add al,0x8
000006E0  07                pop es
000006E1  0300              add eax,[eax]
000006E3  0010              add [eax],dl
000006E5  B104              mov cl,0x4
000006E7  0807              or [edi],al
000006E9  0400              add al,0x0
000006EB  0014B1            add [ecx+esi*4],dl
000006EE  0408              add al,0x8
000006F0  07                pop es
000006F1  05000018B1        add eax,0xb1180000
000006F6  0408              add al,0x8
000006F8  07                pop es
000006F9  06                push es
000006FA  0000              add [eax],al
000006FC  1CB1              sbb al,0xb1
000006FE  0408              add al,0x8
00000700  07                pop es
00000701  0800              or [eax],al
00000703  0020              add [eax],ah
00000705  B104              mov cl,0x4
00000707  0807              or [edi],al
00000709  0900              or [eax],eax
0000070B  0024B1            add [ecx+esi*4],ah
0000070E  0408              add al,0x8
00000710  07                pop es
00000711  0A00              or al,[eax]
00000713  0028              add [eax],ch
00000715  B104              mov cl,0x4
00000717  0807              or [edi],al
00000719  0B00              or eax,[eax]
0000071B  002CB1            add [ecx+esi*4],ch
0000071E  0408              add al,0x8
00000720  07                pop es
00000721  0E                push cs
00000722  0000              add [eax],al
00000724  30B104080711      xor [ecx+0x11070804],dh
0000072A  0000              add [eax],al
0000072C  34B1              xor al,0xb1
0000072E  0408              add al,0x8
00000730  07                pop es
00000731  1200              adc al,[eax]
00000733  0038              add [eax],bh
00000735  B104              mov cl,0x4
00000737  0807              or [edi],al
00000739  1300              adc eax,[eax]
0000073B  003CB1            add [ecx+esi*4],bh
0000073E  0408              add al,0x8
00000740  07                pop es
00000741  1400              adc al,0x0
00000743  0040B1            add [eax-0x4f],al
00000746  0408              add al,0x8
00000748  07                pop es
00000749  15000044B1        adc eax,0xb1440000
0000074E  0408              add al,0x8
00000750  07                pop es
00000751  16                push ss
00000752  0000              add [eax],al
00000754  48                dec eax
00000755  B104              mov cl,0x4
00000757  0807              or [edi],al
00000759  17                pop ss
0000075A  0000              add [eax],al
0000075C  4C                dec esp
0000075D  B104              mov cl,0x4
0000075F  0807              or [edi],al
00000761  1800              sbb [eax],al
00000763  005589            add [ebp-0x77],dl
00000766  E553              in eax,0x53
00000768  83EC04            sub esp,byte +0x4
0000076B  E800000000        call 0x770
00000770  5B                pop ebx
00000771  81C38C290000      add ebx,0x298c
00000777  8B93FCFFFFFF      mov edx,[ebx+0xfffffffc]
0000077D  85D2              test edx,edx
0000077F  7405              jz 0x786
00000781  E86A000000        call 0x7f0
00000786  E835020000        call 0x9c0
0000078B  E8F0180000        call 0x2080
00000790  58                pop eax
00000791  5B                pop ebx
00000792  C9                leave
00000793  C3                ret
00000794  0000              add [eax],al
00000796  0000              add [eax],al
00000798  0000              add [eax],al
0000079A  0000              add [eax],al
0000079C  0000              add [eax],al
0000079E  0000              add [eax],al
000007A0  FF3500B10408      push dword [0x804b100]
000007A6  FF2504B10408      jmp near [0x804b104]
000007AC  0000              add [eax],al
000007AE  0000              add [eax],al
000007B0  FF2508B10408      jmp near [0x804b108]
000007B6  6800000000        push dword 0x0
000007BB  E9E0FFFFFF        jmp 0x1000007a0
000007C0  FF250CB10408      jmp near [0x804b10c]
000007C6  6808000000        push dword 0x8
000007CB  E9D0FFFFFF        jmp 0x1000007a0
000007D0  FF2510B10408      jmp near [0x804b110]
000007D6  6810000000        push dword 0x10
000007DB  E9C0FFFFFF        jmp 0x1000007a0
000007E0  FF2514B10408      jmp near [0x804b114]
000007E6  6818000000        push dword 0x18
000007EB  E9B0FFFFFF        jmp 0x1000007a0
000007F0  FF2518B10408      jmp near [0x804b118]
000007F6  6820000000        push dword 0x20
000007FB  E9A0FFFFFF        jmp 0x1000007a0
00000800  FF251CB10408      jmp near [0x804b11c]
00000806  6828000000        push dword 0x28
0000080B  E990FFFFFF        jmp 0x1000007a0
00000810  FF2520B10408      jmp near [0x804b120]
00000816  6830000000        push dword 0x30
0000081B  E980FFFFFF        jmp 0x1000007a0
00000820  FF2524B10408      jmp near [0x804b124]
00000826  6838000000        push dword 0x38
0000082B  E970FFFFFF        jmp 0x1000007a0
00000830  FF2528B10408      jmp near [0x804b128]
00000836  6840000000        push dword 0x40
0000083B  E960FFFFFF        jmp 0x1000007a0
00000840  FF252CB10408      jmp near [0x804b12c]
00000846  6848000000        push dword 0x48
0000084B  E950FFFFFF        jmp 0x1000007a0
00000850  FF2530B10408      jmp near [0x804b130]
00000856  6850000000        push dword 0x50
0000085B  E940FFFFFF        jmp 0x1000007a0
00000860  FF2534B10408      jmp near [0x804b134]
00000866  6858000000        push dword 0x58
0000086B  E930FFFFFF        jmp 0x1000007a0
00000870  FF2538B10408      jmp near [0x804b138]
00000876  6860000000        push dword 0x60
0000087B  E920FFFFFF        jmp 0x1000007a0
00000880  FF253CB10408      jmp near [0x804b13c]
00000886  6868000000        push dword 0x68
0000088B  E910FFFFFF        jmp 0x1000007a0
00000890  FF2540B10408      jmp near [0x804b140]
00000896  6870000000        push dword 0x70
0000089B  E900FFFFFF        jmp 0x1000007a0
000008A0  FF2544B10408      jmp near [0x804b144]
000008A6  6878000000        push dword 0x78
000008AB  E9F0FEFFFF        jmp 0x1000007a0
000008B0  FF2548B10408      jmp near [0x804b148]
000008B6  6880000000        push dword 0x80
000008BB  E9E0FEFFFF        jmp 0x1000007a0
000008C0  FF254CB10408      jmp near [0x804b14c]
000008C6  6888000000        push dword 0x88
000008CB  E9D0FEFFFF        jmp 0x1000007a0
000008D0  31ED              xor ebp,ebp
000008D2  5E                pop esi
000008D3  89E1              mov ecx,esp
000008D5  83E4F0            and esp,byte -0x10
000008D8  50                push eax
000008D9  54                push esp
000008DA  52                push edx
000008DB  6810A00408        push dword 0x804a010
000008E0  6820A00408        push dword 0x804a020
000008E5  51                push ecx
000008E6  56                push esi
000008E7  6808900408        push dword 0x8049008
000008EC  E81FFFFFFF        call 0x100000810
000008F1  F4                hlt
000008F2  90                nop
000008F3  90                nop
000008F4  6690              o16 nop
000008F6  6690              o16 nop
000008F8  6690              o16 nop
000008FA  6690              o16 nop
000008FC  6690              o16 nop
000008FE  6690              o16 nop
00000900  B863B10408        mov eax,0x804b163
00000905  2D60B10408        sub eax,0x804b160
0000090A  83F806            cmp eax,byte +0x6
0000090D  7701              ja 0x910
0000090F  C3                ret
00000910  B800000000        mov eax,0x0
00000915  85C0              test eax,eax
00000917  74F6              jz 0x90f
00000919  55                push ebp
0000091A  89E5              mov ebp,esp
0000091C  83EC18            sub esp,byte +0x18
0000091F  C7042460B10408    mov dword [esp],0x804b160
00000926  FFD0              call eax
00000928  C9                leave
00000929  C3                ret
0000092A  8DB600000000      lea esi,[esi+0x0]
00000930  B860B10408        mov eax,0x804b160
00000935  2D60B10408        sub eax,0x804b160
0000093A  C1F802            sar eax,0x2
0000093D  89C2              mov edx,eax
0000093F  C1EA1F            shr edx,0x1f
00000942  01D0              add eax,edx
00000944  D1F8              sar eax,1
00000946  7501              jnz 0x949
00000948  C3                ret
00000949  BA00000000        mov edx,0x0
0000094E  85D2              test edx,edx
00000950  74F6              jz 0x948
00000952  55                push ebp
00000953  89E5              mov ebp,esp
00000955  83EC18            sub esp,byte +0x18
00000958  89442404          mov [esp+0x4],eax
0000095C  C7042460B10408    mov dword [esp],0x804b160
00000963  FFD2              call edx
00000965  C9                leave
00000966  C3                ret
00000967  89F6              mov esi,esi
00000969  8DBC2700000000    lea edi,[edi+0x0]
00000970  803D8CB2040800    cmp byte [0x804b28c],0x0
00000977  7544              jnz 0x9bd
00000979  55                push ebp
0000097A  89E5              mov ebp,esp
0000097C  53                push ebx
0000097D  BB10B00408        mov ebx,0x804b010
00000982  52                push edx
00000983  81EB0CB00408      sub ebx,0x804b00c
00000989  A190B20408        mov eax,[0x804b290]
0000098E  C1FB02            sar ebx,0x2
00000991  4B                dec ebx
00000992  39D8              cmp eax,ebx
00000994  7318              jnc 0x9ae
00000996  6690              o16 nop
00000998  40                inc eax
00000999  A390B20408        mov [0x804b290],eax
0000099E  FF14850CB00408    call near [eax*4+0x804b00c]
000009A5  A190B20408        mov eax,[0x804b290]
000009AA  39D8              cmp eax,ebx
000009AC  72EA              jc 0x998
000009AE  E84DFFFFFF        call 0x100000900
000009B3  C6058CB2040801    mov byte [0x804b28c],0x1
000009BA  58                pop eax
000009BB  5B                pop ebx
000009BC  5D                pop ebp
000009BD  C3                ret
000009BE  6690              o16 nop
000009C0  8B0D14B00408      mov ecx,[0x804b014]
000009C6  85C9              test ecx,ecx
000009C8  741E              jz 0x9e8
000009CA  B800000000        mov eax,0x0
000009CF  85C0              test eax,eax
000009D1  7415              jz 0x9e8
000009D3  55                push ebp
000009D4  89E5              mov ebp,esp
000009D6  83EC18            sub esp,byte +0x18
000009D9  C7042414B00408    mov dword [esp],0x804b014
000009E0  FFD0              call eax
000009E2  C9                leave
000009E3  E948FFFFFF        jmp 0x100000930
000009E8  E943FFFFFF        jmp 0x100000930
000009ED  6690              o16 nop
000009EF  90                nop
000009F0  55                push ebp
000009F1  89E5              mov ebp,esp
000009F3  83EC18            sub esp,byte +0x18
000009F6  C745F000000000    mov dword [ebp-0x10],0x0
000009FD  90                nop
000009FE  E8DDFDFFFF        call 0x1000007e0
00000A03  8845F7            mov [ebp-0x9],al
00000A06  0FBE45F7          movsx eax,byte [ebp-0x9]
00000A0A  83E830            sub eax,byte +0x30
00000A0D  83F809            cmp eax,byte +0x9
00000A10  0F97C0            seta al
00000A13  84C0              test al,al
00000A15  75E7              jnz 0x9fe
00000A17  8B55F0            mov edx,[ebp-0x10]
00000A1A  89D0              mov eax,edx
00000A1C  C1E002            shl eax,0x2
00000A1F  01D0              add eax,edx
00000A21  01C0              add eax,eax
00000A23  89C2              mov edx,eax
00000A25  0FBE45F7          movsx eax,byte [ebp-0x9]
00000A29  01D0              add eax,edx
00000A2B  83E830            sub eax,byte +0x30
00000A2E  8945F0            mov [ebp-0x10],eax
00000A31  E8AAFDFFFF        call 0x1000007e0
00000A36  8845F7            mov [ebp-0x9],al
00000A39  0FBE45F7          movsx eax,byte [ebp-0x9]
00000A3D  83E830            sub eax,byte +0x30
00000A40  83F809            cmp eax,byte +0x9
00000A43  0F96C0            setna al
00000A46  84C0              test al,al
00000A48  75CD              jnz 0xa17
00000A4A  8B45F0            mov eax,[ebp-0x10]
00000A4D  C9                leave
00000A4E  C3                ret
00000A4F  55                push ebp
00000A50  89E5              mov ebp,esp
00000A52  83EC48            sub esp,byte +0x48
00000A55  8B4518            mov eax,[ebp+0x18]
00000A58  8945D0            mov [ebp-0x30],eax
00000A5B  8B451C            mov eax,[ebp+0x1c]
00000A5E  8945D4            mov [ebp-0x2c],eax
00000A61  8B4530            mov eax,[ebp+0x30]
00000A64  8945C8            mov [ebp-0x38],eax
00000A67  8B4534            mov eax,[ebp+0x34]
00000A6A  8945CC            mov [ebp-0x34],eax
00000A6D  8D45E0            lea eax,[ebp-0x20]
00000A70  8D4D08            lea ecx,[ebp+0x8]
00000A73  894C2408          mov [esp+0x8],ecx
00000A77  8D5520            lea edx,[ebp+0x20]
00000A7A  89542404          mov [esp+0x4],edx
00000A7E  890424            mov [esp],eax
00000A81  E85C0A0000        call 0x14e2
00000A86  83EC04            sub esp,byte +0x4
00000A89  8D45E0            lea eax,[ebp-0x20]
00000A8C  890424            mov [esp],eax
00000A8F  E88F0A0000        call 0x1523
00000A94  DD5DF0            fstp qword [ebp-0x10]
00000A97  DD45D0            fld qword [ebp-0x30]
00000A9A  DC45C8            fadd qword [ebp-0x38]
00000A9D  DD0558B10408      fld qword [0x804b158]
00000AA3  DEC1              faddp st1
00000AA5  DD45F0            fld qword [ebp-0x10]
00000AA8  D9C9              fxch
00000AAA  DAE9              fucompp
00000AAC  DFE0              fnstsw ax
00000AAE  F6C445            test ah,0x45
00000AB1  7524              jnz 0xad7
00000AB3  DD45D0            fld qword [ebp-0x30]
00000AB6  DC65C8            fsub qword [ebp-0x38]
00000AB9  DD1C24            fstp qword [esp]
00000ABC  E8CF080000        call 0x1390
00000AC1  DD0558B10408      fld qword [0x804b158]
00000AC7  DC45F0            fadd qword [ebp-0x10]
00000ACA  DAE9              fucompp
00000ACC  DFE0              fnstsw ax
00000ACE  F6C445            test ah,0x45
00000AD1  7504              jnz 0xad7
00000AD3  B001              mov al,0x1
00000AD5  EB02              jmp short 0xad9
00000AD7  B000              mov al,0x0
00000AD9  C9                leave
00000ADA  C3                ret
00000ADB  55                push ebp
00000ADC  89E5              mov ebp,esp
00000ADE  81ECF8000000      sub esp,0xf8
00000AE4  B800000000        mov eax,0x0
00000AE9  BA0000E03F        mov edx,0x3fe00000
00000AEE  894588            mov [ebp-0x78],eax
00000AF1  89558C            mov [ebp-0x74],edx
00000AF4  8B450C            mov eax,[ebp+0xc]
00000AF7  C1E004            shl eax,0x4
00000AFA  8D8820C40408      lea ecx,[eax+0x804c420]
00000B00  8B4508            mov eax,[ebp+0x8]
00000B03  C1E004            shl eax,0x4
00000B06  8D9020C40408      lea edx,[eax+0x804c420]
00000B0C  8D4594            lea eax,[ebp-0x6c]
00000B0F  894C2408          mov [esp+0x8],ecx
00000B13  89542404          mov [esp+0x4],edx
00000B17  890424            mov [esp],eax
00000B1A  E8450A0000        call 0x1564
00000B1F  83EC04            sub esp,byte +0x4
00000B22  8D8578FFFFFF      lea eax,[ebp+0xffffff78]
00000B28  8D5588            lea edx,[ebp-0x78]
00000B2B  89542408          mov [esp+0x8],edx
00000B2F  8D5594            lea edx,[ebp-0x6c]
00000B32  89542404          mov [esp+0x4],edx
00000B36  890424            mov [esp],eax
00000B39  E8670A0000        call 0x15a5
00000B3E  83EC04            sub esp,byte +0x4
00000B41  B800000000        mov eax,0x0
00000B46  BA0000F03F        mov edx,0x3ff00000
00000B4B  8944240C          mov [esp+0xc],eax
00000B4F  89542410          mov [esp+0x10],edx
00000B53  B800000000        mov eax,0x0
00000B58  BA00000000        mov edx,0x0
00000B5D  89442404          mov [esp+0x4],eax
00000B61  89542408          mov [esp+0x8],edx
00000B65  8D45A4            lea eax,[ebp-0x5c]
00000B68  890424            mov [esp],eax
00000B6B  E87A080000        call 0x13ea
00000B70  8B450C            mov eax,[ebp+0xc]
00000B73  C1E004            shl eax,0x4
00000B76  8D8820C40408      lea ecx,[eax+0x804c420]
00000B7C  8B4508            mov eax,[ebp+0x8]
00000B7F  C1E004            shl eax,0x4
00000B82  8D9020C40408      lea edx,[eax+0x804c420]
00000B88  8D45B4            lea eax,[ebp-0x4c]
00000B8B  894C2408          mov [esp+0x8],ecx
00000B8F  89542404          mov [esp+0x4],edx
00000B93  890424            mov [esp],eax
00000B96  E847090000        call 0x14e2
00000B9B  83EC04            sub esp,byte +0x4
00000B9E  8D8568FFFFFF      lea eax,[ebp+0xffffff68]
00000BA4  8D55A4            lea edx,[ebp-0x5c]
00000BA7  89542408          mov [esp+0x8],edx
00000BAB  8D55B4            lea edx,[ebp-0x4c]
00000BAE  89542404          mov [esp+0x4],edx
00000BB2  890424            mov [esp],eax
00000BB5  E8350A0000        call 0x15ef
00000BBA  83EC04            sub esp,byte +0x4
00000BBD  B800000000        mov eax,0x0
00000BC2  BA65CDCD41        mov edx,0x41cdcd65
00000BC7  8945F0            mov [ebp-0x10],eax
00000BCA  8955F4            mov [ebp-0xc],edx
00000BCD  B800000000        mov eax,0x0
00000BD2  BA00000000        mov edx,0x0
00000BD7  8945E8            mov [ebp-0x18],eax
00000BDA  8955EC            mov [ebp-0x14],edx
00000BDD  B800000000        mov eax,0x0
00000BE2  BA0000F0BF        mov edx,0xbff00000
00000BE7  8944240C          mov [esp+0xc],eax
00000BEB  89542410          mov [esp+0x10],edx
00000BEF  B800000000        mov eax,0x0
00000BF4  BA0000F0BF        mov edx,0xbff00000
00000BF9  89442404          mov [esp+0x4],eax
00000BFD  89542408          mov [esp+0x8],edx
00000C01  8D45C4            lea eax,[ebp-0x3c]
00000C04  890424            mov [esp],eax
00000C07  E8DE070000        call 0x13ea
00000C0C  8B45C4            mov eax,[ebp-0x3c]
00000C0F  8B55C8            mov edx,[ebp-0x38]
00000C12  A390090508        mov [0x8050990],eax
00000C17  891594090508      mov [0x8050994],edx
00000C1D  8B45CC            mov eax,[ebp-0x34]
00000C20  8B55D0            mov edx,[ebp-0x30]
00000C23  A398090508        mov [0x8050998],eax
00000C28  89159C090508      mov [0x805099c],edx
00000C2E  C745E400000000    mov dword [ebp-0x1c],0x0
00000C35  E9D9010000        jmp 0xe13
00000C3A  DD45F0            fld qword [ebp-0x10]
00000C3D  DC45E8            fadd qword [ebp-0x18]
00000C40  DD05E0A00408      fld qword [0x804a0e0]
00000C46  DEF9              fdivp st1,st0
00000C48  DD9D60FFFFFF      fstp qword [ebp+0xffffff60]
00000C4E  8D45D4            lea eax,[ebp-0x2c]
00000C51  8D9560FFFFFF      lea edx,[ebp+0xffffff60]
00000C57  89542408          mov [esp+0x8],edx
00000C5B  8D9568FFFFFF      lea edx,[ebp+0xffffff68]
00000C61  89542404          mov [esp+0x4],edx
00000C65  890424            mov [esp],eax
00000C68  E838090000        call 0x15a5
00000C6D  83EC04            sub esp,byte +0x4
00000C70  8D8548FFFFFF      lea eax,[ebp+0xffffff48]
00000C76  8D55D4            lea edx,[ebp-0x2c]
00000C79  89542408          mov [esp+0x8],edx
00000C7D  8D9578FFFFFF      lea edx,[ebp+0xffffff78]
00000C83  89542404          mov [esp+0x4],edx
00000C87  890424            mov [esp],eax
00000C8A  E8D5080000        call 0x1564
00000C8F  83EC04            sub esp,byte +0x4
00000C92  8B8548FFFFFF      mov eax,[ebp+0xffffff48]
00000C98  8B954CFFFFFF      mov edx,[ebp+0xffffff4c]
00000C9E  A390090508        mov [0x8050990],eax
00000CA3  891594090508      mov [0x8050994],edx
00000CA9  8B8550FFFFFF      mov eax,[ebp+0xffffff50]
00000CAF  8B9554FFFFFF      mov edx,[ebp+0xffffff54]
00000CB5  A398090508        mov [0x8050998],eax
00000CBA  89159C090508      mov [0x805099c],edx
00000CC0  8B4510            mov eax,[ebp+0x10]
00000CC3  8B0485C0B20408    mov eax,[eax*4+0x804b2c0]
00000CCA  898544FFFFFF      mov [ebp+0xffffff44],eax
00000CD0  DB8544FFFFFF      fild dword [ebp+0xffffff44]
00000CD6  8B4508            mov eax,[ebp+0x8]
00000CD9  8B0485C0B20408    mov eax,[eax*4+0x804b2c0]
00000CE0  898544FFFFFF      mov [ebp+0xffffff44],eax
00000CE6  DB8544FFFFFF      fild dword [ebp+0xffffff44]
00000CEC  D9C9              fxch
00000CEE  DD5C2428          fstp qword [esp+0x28]
00000CF2  A190090508        mov eax,[0x8050990]
00000CF7  8B1594090508      mov edx,[0x8050994]
00000CFD  89442418          mov [esp+0x18],eax
00000D01  8954241C          mov [esp+0x1c],edx
00000D05  A198090508        mov eax,[0x8050998]
00000D0A  8B159C090508      mov edx,[0x805099c]
00000D10  89442420          mov [esp+0x20],eax
00000D14  89542424          mov [esp+0x24],edx
00000D18  DD5C2410          fstp qword [esp+0x10]
00000D1C  8B4508            mov eax,[ebp+0x8]
00000D1F  C1E004            shl eax,0x4
00000D22  8D8820C40408      lea ecx,[eax+0x804c420]
00000D28  8B01              mov eax,[ecx]
00000D2A  8B5104            mov edx,[ecx+0x4]
00000D2D  890424            mov [esp],eax
00000D30  89542404          mov [esp+0x4],edx
00000D34  8B4108            mov eax,[ecx+0x8]
00000D37  8B510C            mov edx,[ecx+0xc]
00000D3A  89442408          mov [esp+0x8],eax
00000D3E  8954240C          mov [esp+0xc],edx
00000D42  E808FDFFFF        call 0x100000a4f
00000D47  83F001            xor eax,byte +0x1
00000D4A  84C0              test al,al
00000D4C  0F8492000000      jz near 0xde4
00000D52  8B4510            mov eax,[ebp+0x10]
00000D55  8B0485C0B20408    mov eax,[eax*4+0x804b2c0]
00000D5C  898544FFFFFF      mov [ebp+0xffffff44],eax
00000D62  DB8544FFFFFF      fild dword [ebp+0xffffff44]
00000D68  8B450C            mov eax,[ebp+0xc]
00000D6B  8B0485C0B20408    mov eax,[eax*4+0x804b2c0]
00000D72  898544FFFFFF      mov [ebp+0xffffff44],eax
00000D78  DB8544FFFFFF      fild dword [ebp+0xffffff44]
00000D7E  D9C9              fxch
00000D80  DD5C2428          fstp qword [esp+0x28]
00000D84  A190090508        mov eax,[0x8050990]
00000D89  8B1594090508      mov edx,[0x8050994]
00000D8F  89442418          mov [esp+0x18],eax
00000D93  8954241C          mov [esp+0x1c],edx
00000D97  A198090508        mov eax,[0x8050998]
00000D9C  8B159C090508      mov edx,[0x805099c]
00000DA2  89442420          mov [esp+0x20],eax
00000DA6  89542424          mov [esp+0x24],edx
00000DAA  DD5C2410          fstp qword [esp+0x10]
00000DAE  8B450C            mov eax,[ebp+0xc]
00000DB1  C1E004            shl eax,0x4
00000DB4  8D8820C40408      lea ecx,[eax+0x804c420]
00000DBA  8B01              mov eax,[ecx]
00000DBC  8B5104            mov edx,[ecx+0x4]
00000DBF  890424            mov [esp],eax
00000DC2  89542404          mov [esp+0x4],edx
00000DC6  8B4108            mov eax,[ecx+0x8]
00000DC9  8B510C            mov edx,[ecx+0xc]
00000DCC  89442408          mov [esp+0x8],eax
00000DD0  8954240C          mov [esp+0xc],edx
00000DD4  E876FCFFFF        call 0x100000a4f
00000DD9  83F001            xor eax,byte +0x1
00000DDC  84C0              test al,al
00000DDE  7404              jz 0xde4
00000DE0  B001              mov al,0x1
00000DE2  EB02              jmp short 0xde6
00000DE4  B000              mov al,0x0
00000DE6  84C0              test al,al
00000DE8  7414              jz 0xdfe
00000DEA  8B8560FFFFFF      mov eax,[ebp+0xffffff60]
00000DF0  8B9564FFFFFF      mov edx,[ebp+0xffffff64]
00000DF6  8945F0            mov [ebp-0x10],eax
00000DF9  8955F4            mov [ebp-0xc],edx
00000DFC  EB12              jmp short 0xe10
00000DFE  8B8560FFFFFF      mov eax,[ebp+0xffffff60]
00000E04  8B9564FFFFFF      mov edx,[ebp+0xffffff64]
00000E0A  8945E8            mov [ebp-0x18],eax
00000E0D  8955EC            mov [ebp-0x14],edx
00000E10  FF45E4            inc dword [ebp-0x1c]
00000E13  817DE4C7000000    cmp dword [ebp-0x1c],0xc7
00000E1A  0F8E1AFEFFFF      jng near 0x100000c3a
00000E20  C7042490090508    mov dword [esp],0x8050990
00000E27  E8FC050000        call 0x1428
00000E2C  DD00              fld qword [eax]
00000E2E  D9EE              fldz
00000E30  D9C9              fxch
00000E32  DAE9              fucompp
00000E34  DFE0              fnstsw ax
00000E36  F6C405            test ah,0x5
00000E39  7559              jnz 0xe94
00000E3B  C7042490090508    mov dword [esp],0x8050990
00000E42  E8E1050000        call 0x1428
00000E47  DD00              fld qword [eax]
00000E49  DD05A8B20408      fld qword [0x804b2a8]
00000E4F  DAE9              fucompp
00000E51  DFE0              fnstsw ax
00000E53  F6C405            test ah,0x5
00000E56  753C              jnz 0xe94
00000E58  C7042490090508    mov dword [esp],0x8050990
00000E5F  E8D4050000        call 0x1438
00000E64  DD00              fld qword [eax]
00000E66  D9EE              fldz
00000E68  D9C9              fxch
00000E6A  DAE9              fucompp
00000E6C  DFE0              fnstsw ax
00000E6E  F6C405            test ah,0x5
00000E71  7521              jnz 0xe94
00000E73  C7042490090508    mov dword [esp],0x8050990
00000E7A  E8B9050000        call 0x1438
00000E7F  DD00              fld qword [eax]
00000E81  DD05B0B20408      fld qword [0x804b2b0]
00000E87  DAE9              fucompp
00000E89  DFE0              fnstsw ax
00000E8B  F6C405            test ah,0x5
00000E8E  7504              jnz 0xe94
00000E90  B001              mov al,0x1
00000E92  EB02              jmp short 0xe96
00000E94  B000              mov al,0x0
00000E96  84C0              test al,al
00000E98  7404              jz 0xe9e
00000E9A  B001              mov al,0x1
00000E9C  EB14              jmp short 0xeb2
00000E9E  B000              mov al,0x0
00000EA0  EB10              jmp short 0xeb2
00000EA2  EB06              jmp short 0xeaa
00000EA4  EB04              jmp short 0xeaa
00000EA6  EB02              jmp short 0xeaa
00000EA8  EB00              jmp short 0xeaa
00000EAA  890424            mov [esp],eax
00000EAD  E80EFAFFFF        call 0x1000008c0
00000EB2  C9                leave
00000EB3  C3                ret
00000EB4  55                push ebp
00000EB5  89E5              mov ebp,esp
00000EB7  56                push esi
00000EB8  53                push ebx
00000EB9  83EC40            sub esp,byte +0x40
00000EBC  C745F402000000    mov dword [ebp-0xc],0x2
00000EC3  E92B010000        jmp 0xff3
00000EC8  C645EB00          mov byte [ebp-0x15],0x0
00000ECC  C745F000000000    mov dword [ebp-0x10],0x0
00000ED3  EB75              jmp short 0xf4a
00000ED5  C745EC00000000    mov dword [ebp-0x14],0x0
00000EDC  EB59              jmp short 0xf37
00000EDE  8B45F0            mov eax,[ebp-0x10]
00000EE1  3B45EC            cmp eax,[ebp-0x14]
00000EE4  7502              jnz 0xee8
00000EE6  EB4C              jmp short 0xf34
00000EE8  8B45F4            mov eax,[ebp-0xc]
00000EEB  89442408          mov [esp+0x8],eax
00000EEF  8B45EC            mov eax,[ebp-0x14]
00000EF2  89442404          mov [esp+0x4],eax
00000EF6  8B45F0            mov eax,[ebp-0x10]
00000EF9  890424            mov [esp],eax
00000EFC  E8DAFBFFFF        call 0x100000adb
00000F01  84C0              test al,al
00000F03  742F              jz 0xf34
00000F05  8B45F4            mov eax,[ebp-0xc]
00000F08  C1E004            shl eax,0x4
00000F0B  8D8820C40408      lea ecx,[eax+0x804c420]
00000F11  A190090508        mov eax,[0x8050990]
00000F16  8B1594090508      mov edx,[0x8050994]
00000F1C  8901              mov [ecx],eax
00000F1E  895104            mov [ecx+0x4],edx
00000F21  A198090508        mov eax,[0x8050998]
00000F26  8B159C090508      mov edx,[0x805099c]
00000F2C  894108            mov [ecx+0x8],eax
00000F2F  89510C            mov [ecx+0xc],edx
00000F32  EB0B              jmp short 0xf3f
00000F34  FF45EC            inc dword [ebp-0x14]
00000F37  8B45EC            mov eax,[ebp-0x14]
00000F3A  3B45F4            cmp eax,[ebp-0xc]
00000F3D  7C9F              jl 0xede
00000F3F  807DEB00          cmp byte [ebp-0x15],0x0
00000F43  7402              jz 0xf47
00000F45  EB0B              jmp short 0xf52
00000F47  FF45F0            inc dword [ebp-0x10]
00000F4A  8B45F0            mov eax,[ebp-0x10]
00000F4D  3B45F4            cmp eax,[ebp-0xc]
00000F50  7C83              jl 0xed5
00000F52  8A45EB            mov al,[ebp-0x15]
00000F55  83F001            xor eax,byte +0x1
00000F58  84C0              test al,al
00000F5A  0F8490000000      jz near 0xff0
00000F60  8B45F4            mov eax,[ebp-0xc]
00000F63  48                dec eax
00000F64  C1E004            shl eax,0x4
00000F67  0520C40408        add eax,0x804c420
00000F6C  890424            mov [esp],eax
00000F6F  E8C4040000        call 0x1438
00000F74  8B18              mov ebx,[eax]
00000F76  8B7004            mov esi,[eax+0x4]
00000F79  8B45F4            mov eax,[ebp-0xc]
00000F7C  48                dec eax
00000F7D  C1E004            shl eax,0x4
00000F80  0520C40408        add eax,0x804c420
00000F85  890424            mov [esp],eax
00000F88  E89B040000        call 0x1428
00000F8D  DD00              fld qword [eax]
00000F8F  8B45F4            mov eax,[ebp-0xc]
00000F92  8B1485C0B20408    mov edx,[eax*4+0x804b2c0]
00000F99  8B45F4            mov eax,[ebp-0xc]
00000F9C  48                dec eax
00000F9D  8B0485C0B20408    mov eax,[eax*4+0x804b2c0]
00000FA4  01D0              add eax,edx
00000FA6  8945D4            mov [ebp-0x2c],eax
00000FA9  DB45D4            fild dword [ebp-0x2c]
00000FAC  DD05E0A00408      fld qword [0x804a0e0]
00000FB2  DEF9              fdivp st1,st0
00000FB4  DEC1              faddp st1
00000FB6  895C240C          mov [esp+0xc],ebx
00000FBA  89742410          mov [esp+0x10],esi
00000FBE  DD5C2404          fstp qword [esp+0x4]
00000FC2  8D45D8            lea eax,[ebp-0x28]
00000FC5  890424            mov [esp],eax
00000FC8  E81D040000        call 0x13ea
00000FCD  8B45F4            mov eax,[ebp-0xc]
00000FD0  C1E004            shl eax,0x4
00000FD3  8D8820C40408      lea ecx,[eax+0x804c420]
00000FD9  8B45D8            mov eax,[ebp-0x28]
00000FDC  8B55DC            mov edx,[ebp-0x24]
00000FDF  8901              mov [ecx],eax
00000FE1  895104            mov [ecx+0x4],edx
00000FE4  8B45E0            mov eax,[ebp-0x20]
00000FE7  8B55E4            mov edx,[ebp-0x1c]
00000FEA  894108            mov [ecx+0x8],eax
00000FED  89510C            mov [ecx+0xc],edx
00000FF0  FF45F4            inc dword [ebp-0xc]
00000FF3  A1A0B20408        mov eax,[0x804b2a0]
00000FF8  3945F4            cmp [ebp-0xc],eax
00000FFB  0F8CC7FEFFFF      jl near 0x100000ec8
00001001  83C440            add esp,byte +0x40
00001004  5B                pop ebx
00001005  5E                pop esi
00001006  5D                pop ebp
00001007  C3                ret
00001008  55                push ebp
00001009  89E5              mov ebp,esp
0000100B  56                push esi
0000100C  53                push ebx
0000100D  83E4F0            and esp,byte -0x10
00001010  83EC50            sub esp,byte +0x50
00001013  E8D8F9FFFF        call 0x1000009f0
00001018  89442440          mov [esp+0x40],eax
0000101C  C744244C01000000  mov dword [esp+0x4c],0x1
00001024  E958020000        jmp 0x1281
00001029  C7442404A0B20408  mov dword [esp+0x4],0x804b2a0
00001031  C7042460B10408    mov dword [esp],0x804b160
00001038  E833F8FFFF        call 0x100000870
0000103D  C7442404A8B20408  mov dword [esp+0x4],0x804b2a8
00001045  890424            mov [esp],eax
00001048  E883F7FFFF        call 0x1000007d0
0000104D  C7442404B0B20408  mov dword [esp+0x4],0x804b2b0
00001055  890424            mov [esp],eax
00001058  E873F7FFFF        call 0x1000007d0
0000105D  C744244800000000  mov dword [esp+0x48],0x0
00001065  EB20              jmp short 0x1087
00001067  8B442448          mov eax,[esp+0x48]
0000106B  C1E002            shl eax,0x2
0000106E  05C0B20408        add eax,0x804b2c0
00001073  89442404          mov [esp+0x4],eax
00001077  C7042460B10408    mov dword [esp],0x804b160
0000107E  E8EDF7FFFF        call 0x100000870
00001083  FF442448          inc dword [esp+0x48]
00001087  A1A0B20408        mov eax,[0x804b2a0]
0000108C  39442448          cmp [esp+0x48],eax
00001090  7CD5              jl 0x1067
00001092  DD05A8B20408      fld qword [0x804b2a8]
00001098  DD05B0B20408      fld qword [0x804b2b0]
0000109E  DAE9              fucompp
000010A0  DFE0              fnstsw ax
000010A2  F6C445            test ah,0x45
000010A5  7514              jnz 0x10bb
000010A7  C7442404B0B20408  mov dword [esp+0x4],0x804b2b0
000010AF  C70424A8B20408    mov dword [esp],0x804b2a8
000010B6  E875050000        call 0x1630
000010BB  A1A0B20408        mov eax,[0x804b2a0]
000010C0  C1E002            shl eax,0x2
000010C3  05C0B20408        add eax,0x804b2c0
000010C8  89442404          mov [esp+0x4],eax
000010CC  C70424C0B20408    mov dword [esp],0x804b2c0
000010D3  E88C050000        call 0x1664
000010D8  A1A0B20408        mov eax,[0x804b2a0]
000010DD  C1E002            shl eax,0x2
000010E0  05C0B20408        add eax,0x804b2c0
000010E5  89442404          mov [esp+0x4],eax
000010E9  C70424C0B20408    mov dword [esp],0x804b2c0
000010F0  E8BE050000        call 0x16b3
000010F5  B800000000        mov eax,0x0
000010FA  BA00000000        mov edx,0x0
000010FF  8944240C          mov [esp+0xc],eax
00001103  89542410          mov [esp+0x10],edx
00001107  B800000000        mov eax,0x0
0000110C  BA00000000        mov edx,0x0
00001111  89442404          mov [esp+0x4],eax
00001115  89542408          mov [esp+0x8],edx
00001119  8D442420          lea eax,[esp+0x20]
0000111D  890424            mov [esp],eax
00001120  E8C5020000        call 0x13ea
00001125  8B442420          mov eax,[esp+0x20]
00001129  8B542424          mov edx,[esp+0x24]
0000112D  A320C40408        mov [0x804c420],eax
00001132  891524C40408      mov [0x804c424],edx
00001138  8B442428          mov eax,[esp+0x28]
0000113C  8B54242C          mov edx,[esp+0x2c]
00001140  A328C40408        mov [0x804c428],eax
00001145  89152CC40408      mov [0x804c42c],edx
0000114B  A1A0B20408        mov eax,[0x804b2a0]
00001150  85C0              test eax,eax
00001152  7E6A              jng 0x11be
00001154  8B15C0B20408      mov edx,[0x804b2c0]
0000115A  A1C4B20408        mov eax,[0x804b2c4]
0000115F  01D0              add eax,edx
00001161  8944241C          mov [esp+0x1c],eax
00001165  DB44241C          fild dword [esp+0x1c]
00001169  DD05E0A00408      fld qword [0x804a0e0]
0000116F  DEF9              fdivp st1,st0
00001171  B800000000        mov eax,0x0
00001176  BA00000000        mov edx,0x0
0000117B  8944240C          mov [esp+0xc],eax
0000117F  89542410          mov [esp+0x10],edx
00001183  DD5C2404          fstp qword [esp+0x4]
00001187  8D442430          lea eax,[esp+0x30]
0000118B  890424            mov [esp],eax
0000118E  E857020000        call 0x13ea
00001193  8B442430          mov eax,[esp+0x30]
00001197  8B542434          mov edx,[esp+0x34]
0000119B  A330C40408        mov [0x804c430],eax
000011A0  891534C40408      mov [0x804c434],edx
000011A6  8B442438          mov eax,[esp+0x38]
000011AA  8B54243C          mov edx,[esp+0x3c]
000011AE  A338C40408        mov [0x804c438],eax
000011B3  89153CC40408      mov [0x804c43c],edx
000011B9  E8F6FCFFFF        call 0x100000eb4
000011BE  8B44244C          mov eax,[esp+0x4c]
000011C2  89442404          mov [esp+0x4],eax
000011C6  C70424D0A00408    mov dword [esp],0x804a0d0
000011CD  E88EF6FFFF        call 0x100000860
000011D2  C744244400000000  mov dword [esp+0x44],0x0
000011DA  EB7E              jmp short 0x125a
000011DC  C744240420000000  mov dword [esp+0x4],0x20
000011E4  C7042400B20408    mov dword [esp],0x804b200
000011EB  E830F6FFFF        call 0x100000820
000011F0  8B442444          mov eax,[esp+0x44]
000011F4  C1E004            shl eax,0x4
000011F7  0520C40408        add eax,0x804c420
000011FC  890424            mov [esp],eax
000011FF  E834020000        call 0x1438
00001204  8B18              mov ebx,[eax]
00001206  8B7004            mov esi,[eax+0x4]
00001209  8B442444          mov eax,[esp+0x44]
0000120D  C1E004            shl eax,0x4
00001210  0520C40408        add eax,0x804c420
00001215  890424            mov [esp],eax
00001218  E80B020000        call 0x1428
0000121D  8B5004            mov edx,[eax+0x4]
00001220  8B00              mov eax,[eax]
00001222  89442404          mov [esp+0x4],eax
00001226  89542408          mov [esp+0x8],edx
0000122A  C7042400B20408    mov dword [esp],0x804b200
00001231  E87AF5FFFF        call 0x1000007b0
00001236  C744240420000000  mov dword [esp+0x4],0x20
0000123E  890424            mov [esp],eax
00001241  E8DAF5FFFF        call 0x100000820
00001246  895C2404          mov [esp+0x4],ebx
0000124A  89742408          mov [esp+0x8],esi
0000124E  890424            mov [esp],eax
00001251  E85AF5FFFF        call 0x1000007b0
00001256  FF442444          inc dword [esp+0x44]
0000125A  A1A0B20408        mov eax,[0x804b2a0]
0000125F  39442444          cmp [esp+0x44],eax
00001263  0F8C73FFFFFF      jl near 0x1000011dc
00001269  C7442404A0880408  mov dword [esp+0x4],0x80488a0
00001271  C7042400B20408    mov dword [esp],0x804b200
00001278  E813F6FFFF        call 0x100000890
0000127D  FF44244C          inc dword [esp+0x4c]
00001281  8B44244C          mov eax,[esp+0x4c]
00001285  3B442440          cmp eax,[esp+0x40]
00001289  0F8E9AFDFFFF      jng near 0x100001029
0000128F  B800000000        mov eax,0x0
00001294  8D65F8            lea esp,[ebp-0x8]
00001297  5B                pop ebx
00001298  5E                pop esi
00001299  5D                pop ebp
0000129A  C3                ret
0000129B  55                push ebp
0000129C  89E5              mov ebp,esp
0000129E  56                push esi
0000129F  53                push ebx
000012A0  83EC20            sub esp,byte +0x20
000012A3  837D0801          cmp dword [ebp+0x8],byte +0x1
000012A7  0F85A8000000      jnz near 0x1355
000012AD  817D0CFFFF0000    cmp dword [ebp+0xc],0xffff
000012B4  0F859B000000      jnz near 0x1355
000012BA  C70424A0090508    mov dword [esp],0x80509a0
000012C1  E83AF5FFFF        call 0x100000800
000012C6  C744240854B10408  mov dword [esp+0x8],0x804b154
000012CE  C7442404A0090508  mov dword [esp+0x4],0x80509a0
000012D6  C7042430880408    mov dword [esp],0x8048830
000012DD  E8DEF4FFFF        call 0x1000007c0
000012E2  B820C40408        mov eax,0x804c420
000012E7  BE56040000        mov esi,0x456
000012EC  89C3              mov ebx,eax
000012EE  EB30              jmp short 0x1320
000012F0  B800000000        mov eax,0x0
000012F5  BA00000000        mov edx,0x0
000012FA  8944240C          mov [esp+0xc],eax
000012FE  89542410          mov [esp+0x10],edx
00001302  B800000000        mov eax,0x0
00001307  BA00000000        mov edx,0x0
0000130C  89442404          mov [esp+0x4],eax
00001310  89542408          mov [esp+0x8],edx
00001314  891C24            mov [esp],ebx
00001317  E8CE000000        call 0x13ea
0000131C  83C310            add ebx,byte +0x10
0000131F  4E                dec esi
00001320  83FEFF            cmp esi,byte -0x1
00001323  75CB              jnz 0x12f0
00001325  B800000000        mov eax,0x0
0000132A  BA00000000        mov edx,0x0
0000132F  8944240C          mov [esp+0xc],eax
00001333  89542410          mov [esp+0x10],edx
00001337  B800000000        mov eax,0x0
0000133C  BA00000000        mov edx,0x0
00001341  89442404          mov [esp+0x4],eax
00001345  89542408          mov [esp+0x8],edx
00001349  C7042490090508    mov dword [esp],0x8050990
00001350  E895000000        call 0x13ea
00001355  83C420            add esp,byte +0x20
00001358  5B                pop ebx
00001359  5E                pop esi
0000135A  5D                pop ebp
0000135B  C3                ret
0000135C  55                push ebp
0000135D  89E5              mov ebp,esp
0000135F  83EC18            sub esp,byte +0x18
00001362  C7442404FFFF0000  mov dword [esp+0x4],0xffff
0000136A  C7042401000000    mov dword [esp],0x1
00001371  E825FFFFFF        call 0x10000129b
00001376  C9                leave
00001377  C3                ret
00001378  55                push ebp
00001379  89E5              mov ebp,esp
0000137B  BA20000000        mov edx,0x20
00001380  8B4508            mov eax,[ebp+0x8]
00001383  0FBDC0            bsr eax,eax
00001386  83F01F            xor eax,byte +0x1f
00001389  29C2              sub edx,eax
0000138B  89D0              mov eax,edx
0000138D  48                dec eax
0000138E  5D                pop ebp
0000138F  C3                ret
00001390  55                push ebp
00001391  89E5              mov ebp,esp
00001393  83EC08            sub esp,byte +0x8
00001396  8B4508            mov eax,[ebp+0x8]
00001399  8945F8            mov [ebp-0x8],eax
0000139C  8B450C            mov eax,[ebp+0xc]
0000139F  8945FC            mov [ebp-0x4],eax
000013A2  DD45F8            fld qword [ebp-0x8]
000013A5  D9E1              fabs
000013A7  C9                leave
000013A8  C3                ret
000013A9  55                push ebp
000013AA  89E5              mov ebp,esp
000013AC  83EC28            sub esp,byte +0x28
000013AF  8B4508            mov eax,[ebp+0x8]
000013B2  8945E8            mov [ebp-0x18],eax
000013B5  8B450C            mov eax,[ebp+0xc]
000013B8  8945EC            mov [ebp-0x14],eax
000013BB  8B4510            mov eax,[ebp+0x10]
000013BE  8945F0            mov [ebp-0x10],eax
000013C1  8B4514            mov eax,[ebp+0x14]
000013C4  8945F4            mov [ebp-0xc],eax
000013C7  8B45E8            mov eax,[ebp-0x18]
000013CA  8B55EC            mov edx,[ebp-0x14]
000013CD  890424            mov [esp],eax
000013D0  89542404          mov [esp+0x4],edx
000013D4  8B45F0            mov eax,[ebp-0x10]
000013D7  8B55F4            mov edx,[ebp-0xc]
000013DA  89442408          mov [esp+0x8],eax
000013DE  8954240C          mov [esp+0xc],edx
000013E2  E869F4FFFF        call 0x100000850
000013E7  C9                leave
000013E8  C3                ret
000013E9  90                nop
000013EA  55                push ebp
000013EB  89E5              mov ebp,esp
000013ED  83EC10            sub esp,byte +0x10
000013F0  8B450C            mov eax,[ebp+0xc]
000013F3  8945F8            mov [ebp-0x8],eax
000013F6  8B4510            mov eax,[ebp+0x10]
000013F9  8945FC            mov [ebp-0x4],eax
000013FC  8B4514            mov eax,[ebp+0x14]
000013FF  8945F0            mov [ebp-0x10],eax
00001402  8B4518            mov eax,[ebp+0x18]
00001405  8945F4            mov [ebp-0xc],eax
00001408  8B4D08            mov ecx,[ebp+0x8]
0000140B  8B45F8            mov eax,[ebp-0x8]
0000140E  8B55FC            mov edx,[ebp-0x4]
00001411  8901              mov [ecx],eax
00001413  895104            mov [ecx+0x4],edx
00001416  8B4D08            mov ecx,[ebp+0x8]
00001419  8B45F0            mov eax,[ebp-0x10]
0000141C  8B55F4            mov edx,[ebp-0xc]
0000141F  894108            mov [ecx+0x8],eax
00001422  89510C            mov [ecx+0xc],edx
00001425  C9                leave
00001426  C3                ret
00001427  90                nop
00001428  55                push ebp
00001429  89E5              mov ebp,esp
0000142B  8B4508            mov eax,[ebp+0x8]
0000142E  5D                pop ebp
0000142F  C3                ret
00001430  55                push ebp
00001431  89E5              mov ebp,esp
00001433  8B4508            mov eax,[ebp+0x8]
00001436  5D                pop ebp
00001437  C3                ret
00001438  55                push ebp
00001439  89E5              mov ebp,esp
0000143B  8B4508            mov eax,[ebp+0x8]
0000143E  83C008            add eax,byte +0x8
00001441  5D                pop ebp
00001442  C3                ret
00001443  90                nop
00001444  55                push ebp
00001445  89E5              mov ebp,esp
00001447  8B4508            mov eax,[ebp+0x8]
0000144A  83C008            add eax,byte +0x8
0000144D  5D                pop ebp
0000144E  C3                ret
0000144F  90                nop
00001450  55                push ebp
00001451  89E5              mov ebp,esp
00001453  56                push esi
00001454  53                push ebx
00001455  83EC10            sub esp,byte +0x10
00001458  8B450C            mov eax,[ebp+0xc]
0000145B  8945F0            mov [ebp-0x10],eax
0000145E  8B4510            mov eax,[ebp+0x10]
00001461  8945F4            mov [ebp-0xc],eax
00001464  8B4508            mov eax,[ebp+0x8]
00001467  8B08              mov ecx,[eax]
00001469  8B5804            mov ebx,[eax+0x4]
0000146C  8B500C            mov edx,[eax+0xc]
0000146F  8B4008            mov eax,[eax+0x8]
00001472  894DE8            mov [ebp-0x18],ecx
00001475  895DEC            mov [ebp-0x14],ebx
00001478  DD45E8            fld qword [ebp-0x18]
0000147B  DD45F0            fld qword [ebp-0x10]
0000147E  DCC9              fmul to st1
00001480  8945E8            mov [ebp-0x18],eax
00001483  8955EC            mov [ebp-0x14],edx
00001486  DD45E8            fld qword [ebp-0x18]
00001489  DEC9              fmulp st1
0000148B  D9C9              fxch
0000148D  DD5DE8            fstp qword [ebp-0x18]
00001490  8B4DE8            mov ecx,[ebp-0x18]
00001493  8B5DEC            mov ebx,[ebp-0x14]
00001496  DD5DE8            fstp qword [ebp-0x18]
00001499  8B45E8            mov eax,[ebp-0x18]
0000149C  8B55EC            mov edx,[ebp-0x14]
0000149F  8B7508            mov esi,[ebp+0x8]
000014A2  890E              mov [esi],ecx
000014A4  895E04            mov [esi+0x4],ebx
000014A7  894608            mov [esi+0x8],eax
000014AA  89560C            mov [esi+0xc],edx
000014AD  8B4508            mov eax,[ebp+0x8]
000014B0  83C410            add esp,byte +0x10
000014B3  5B                pop ebx
000014B4  5E                pop esi
000014B5  5D                pop ebp
000014B6  C3                ret
000014B7  90                nop
000014B8  55                push ebp
000014B9  89E5              mov ebp,esp
000014BB  56                push esi
000014BC  53                push ebx
000014BD  8B450C            mov eax,[ebp+0xc]
000014C0  8B08              mov ecx,[eax]
000014C2  8B5804            mov ebx,[eax+0x4]
000014C5  8B500C            mov edx,[eax+0xc]
000014C8  8B4008            mov eax,[eax+0x8]
000014CB  8B7508            mov esi,[ebp+0x8]
000014CE  890E              mov [esi],ecx
000014D0  895E04            mov [esi+0x4],ebx
000014D3  894608            mov [esi+0x8],eax
000014D6  89560C            mov [esi+0xc],edx
000014D9  8B4508            mov eax,[ebp+0x8]
000014DC  5B                pop ebx
000014DD  5E                pop esi
000014DE  5D                pop ebp
000014DF  C20400            ret 0x4
000014E2  55                push ebp
000014E3  89E5              mov ebp,esp
000014E5  53                push ebx
000014E6  83EC14            sub esp,byte +0x14
000014E9  8B4D08            mov ecx,[ebp+0x8]
000014EC  8B5D0C            mov ebx,[ebp+0xc]
000014EF  8B03              mov eax,[ebx]
000014F1  8B5304            mov edx,[ebx+0x4]
000014F4  8901              mov [ecx],eax
000014F6  895104            mov [ecx+0x4],edx
000014F9  8B4308            mov eax,[ebx+0x8]
000014FC  8B530C            mov edx,[ebx+0xc]
000014FF  894108            mov [ecx+0x8],eax
00001502  89510C            mov [ecx+0xc],edx
00001505  8B4510            mov eax,[ebp+0x10]
00001508  89442404          mov [esp+0x4],eax
0000150C  8B4508            mov eax,[ebp+0x8]
0000150F  890424            mov [esp],eax
00001512  E8DD010000        call 0x16f4
00001517  90                nop
00001518  8B4508            mov eax,[ebp+0x8]
0000151B  83C414            add esp,byte +0x14
0000151E  5B                pop ebx
0000151F  5D                pop ebp
00001520  C20400            ret 0x4
00001523  55                push ebp
00001524  89E5              mov ebp,esp
00001526  53                push ebx
00001527  83EC24            sub esp,byte +0x24
0000152A  8D45E8            lea eax,[ebp-0x18]
0000152D  8B5508            mov edx,[ebp+0x8]
00001530  89542404          mov [esp+0x4],edx
00001534  890424            mov [esp],eax
00001537  E87CFFFFFF        call 0x1000014b8
0000153C  83EC04            sub esp,byte +0x4
0000153F  8B4DE8            mov ecx,[ebp-0x18]
00001542  8B5DEC            mov ebx,[ebp-0x14]
00001545  8B45F0            mov eax,[ebp-0x10]
00001548  8B55F4            mov edx,[ebp-0xc]
0000154B  890C24            mov [esp],ecx
0000154E  895C2404          mov [esp+0x4],ebx
00001552  89442408          mov [esp+0x8],eax
00001556  8954240C          mov [esp+0xc],edx
0000155A  E84AFEFFFF        call 0x1000013a9
0000155F  8B5DFC            mov ebx,[ebp-0x4]
00001562  C9                leave
00001563  C3                ret
00001564  55                push ebp
00001565  89E5              mov ebp,esp
00001567  53                push ebx
00001568  83EC14            sub esp,byte +0x14
0000156B  8B4D08            mov ecx,[ebp+0x8]
0000156E  8B5D0C            mov ebx,[ebp+0xc]
00001571  8B03              mov eax,[ebx]
00001573  8B5304            mov edx,[ebx+0x4]
00001576  8901              mov [ecx],eax
00001578  895104            mov [ecx+0x4],edx
0000157B  8B4308            mov eax,[ebx+0x8]
0000157E  8B530C            mov edx,[ebx+0xc]
00001581  894108            mov [ecx+0x8],eax
00001584  89510C            mov [ecx+0xc],edx
00001587  8B4510            mov eax,[ebp+0x10]
0000158A  89442404          mov [esp+0x4],eax
0000158E  8B4508            mov eax,[ebp+0x8]
00001591  890424            mov [esp],eax
00001594  E89B010000        call 0x1734
00001599  90                nop
0000159A  8B4508            mov eax,[ebp+0x8]
0000159D  83C414            add esp,byte +0x14
000015A0  5B                pop ebx
000015A1  5D                pop ebp
000015A2  C20400            ret 0x4
000015A5  55                push ebp
000015A6  89E5              mov ebp,esp
000015A8  53                push ebx
000015A9  83EC14            sub esp,byte +0x14
000015AC  8B4D08            mov ecx,[ebp+0x8]
000015AF  8B5D0C            mov ebx,[ebp+0xc]
000015B2  8B03              mov eax,[ebx]
000015B4  8B5304            mov edx,[ebx+0x4]
000015B7  8901              mov [ecx],eax
000015B9  895104            mov [ecx+0x4],edx
000015BC  8B4308            mov eax,[ebx+0x8]
000015BF  8B530C            mov edx,[ebx+0xc]
000015C2  894108            mov [ecx+0x8],eax
000015C5  89510C            mov [ecx+0xc],edx
000015C8  8B4510            mov eax,[ebp+0x10]
000015CB  8B5004            mov edx,[eax+0x4]
000015CE  8B00              mov eax,[eax]
000015D0  89442404          mov [esp+0x4],eax
000015D4  89542408          mov [esp+0x8],edx
000015D8  8B4508            mov eax,[ebp+0x8]
000015DB  890424            mov [esp],eax
000015DE  E86DFEFFFF        call 0x100001450
000015E3  90                nop
000015E4  8B4508            mov eax,[ebp+0x8]
000015E7  83C414            add esp,byte +0x14
000015EA  5B                pop ebx
000015EB  5D                pop ebp
000015EC  C20400            ret 0x4
000015EF  55                push ebp
000015F0  89E5              mov ebp,esp
000015F2  53                push ebx
000015F3  83EC14            sub esp,byte +0x14
000015F6  8B4D08            mov ecx,[ebp+0x8]
000015F9  8B5D0C            mov ebx,[ebp+0xc]
000015FC  8B03              mov eax,[ebx]
000015FE  8B5304            mov edx,[ebx+0x4]
00001601  8901              mov [ecx],eax
00001603  895104            mov [ecx+0x4],edx
00001606  8B4308            mov eax,[ebx+0x8]
00001609  8B530C            mov edx,[ebx+0xc]
0000160C  894108            mov [ecx+0x8],eax
0000160F  89510C            mov [ecx+0xc],edx
00001612  8B4510            mov eax,[ebp+0x10]
00001615  89442404          mov [esp+0x4],eax
00001619  8B4508            mov eax,[ebp+0x8]
0000161C  890424            mov [esp],eax
0000161F  E850010000        call 0x1774
00001624  90                nop
00001625  8B4508            mov eax,[ebp+0x8]
00001628  83C414            add esp,byte +0x14
0000162B  5B                pop ebx
0000162C  5D                pop ebp
0000162D  C20400            ret 0x4
00001630  55                push ebp
00001631  89E5              mov ebp,esp
00001633  83EC10            sub esp,byte +0x10
00001636  8B4508            mov eax,[ebp+0x8]
00001639  8B5004            mov edx,[eax+0x4]
0000163C  8B00              mov eax,[eax]
0000163E  8945F8            mov [ebp-0x8],eax
00001641  8955FC            mov [ebp-0x4],edx
00001644  8B450C            mov eax,[ebp+0xc]
00001647  8B5004            mov edx,[eax+0x4]
0000164A  8B00              mov eax,[eax]
0000164C  8B4D08            mov ecx,[ebp+0x8]
0000164F  8901              mov [ecx],eax
00001651  895104            mov [ecx+0x4],edx
00001654  8B4D0C            mov ecx,[ebp+0xc]
00001657  8B45F8            mov eax,[ebp-0x8]
0000165A  8B55FC            mov edx,[ebp-0x4]
0000165D  8901              mov [ecx],eax
0000165F  895104            mov [ecx+0x4],edx
00001662  C9                leave
00001663  C3                ret
00001664  55                push ebp
00001665  89E5              mov ebp,esp
00001667  83EC18            sub esp,byte +0x18
0000166A  8B4508            mov eax,[ebp+0x8]
0000166D  3B450C            cmp eax,[ebp+0xc]
00001670  743F              jz 0x16b1
00001672  8B550C            mov edx,[ebp+0xc]
00001675  8B4508            mov eax,[ebp+0x8]
00001678  29C2              sub edx,eax
0000167A  89D0              mov eax,edx
0000167C  C1F802            sar eax,0x2
0000167F  890424            mov [esp],eax
00001682  E8F1FCFFFF        call 0x100001378
00001687  01C0              add eax,eax
00001689  89442408          mov [esp+0x8],eax
0000168D  8B450C            mov eax,[ebp+0xc]
00001690  89442404          mov [esp+0x4],eax
00001694  8B4508            mov eax,[ebp+0x8]
00001697  890424            mov [esp],eax
0000169A  E8B3010000        call 0x1852
0000169F  8B450C            mov eax,[ebp+0xc]
000016A2  89442404          mov [esp+0x4],eax
000016A6  8B4508            mov eax,[ebp+0x8]
000016A9  890424            mov [esp],eax
000016AC  E812020000        call 0x18c3
000016B1  C9                leave
000016B2  C3                ret
000016B3  55                push ebp
000016B4  89E5              mov ebp,esp
000016B6  53                push ebx
000016B7  83EC24            sub esp,byte +0x24
000016BA  8D45E7            lea eax,[ebp-0x19]
000016BD  8D4D08            lea ecx,[ebp+0x8]
000016C0  894C2404          mov [esp+0x4],ecx
000016C4  890424            mov [esp],eax
000016C7  E84C020000        call 0x1918
000016CC  83EC04            sub esp,byte +0x4
000016CF  8B4508            mov eax,[ebp+0x8]
000016D2  885C2408          mov [esp+0x8],bl
000016D6  8B550C            mov edx,[ebp+0xc]
000016D9  89542404          mov [esp+0x4],edx
000016DD  890424            mov [esp],eax
000016E0  E83E020000        call 0x1923
000016E5  EB08              jmp short 0x16ef
000016E7  890424            mov [esp],eax
000016EA  E8D1F1FFFF        call 0x1000008c0
000016EF  8B5DFC            mov ebx,[ebp-0x4]
000016F2  C9                leave
000016F3  C3                ret
000016F4  55                push ebp
000016F5  89E5              mov ebp,esp
000016F7  83EC18            sub esp,byte +0x18
000016FA  8B450C            mov eax,[ebp+0xc]
000016FD  890424            mov [esp],eax
00001700  E82BFDFFFF        call 0x100001430
00001705  DD00              fld qword [eax]
00001707  8B4508            mov eax,[ebp+0x8]
0000170A  DD00              fld qword [eax]
0000170C  DEE1              fsubrp st1
0000170E  8B4508            mov eax,[ebp+0x8]
00001711  DD18              fstp qword [eax]
00001713  8B450C            mov eax,[ebp+0xc]
00001716  890424            mov [esp],eax
00001719  E826FDFFFF        call 0x100001444
0000171E  DD00              fld qword [eax]
00001720  8B4508            mov eax,[ebp+0x8]
00001723  DD4008            fld qword [eax+0x8]
00001726  DEE1              fsubrp st1
00001728  8B4508            mov eax,[ebp+0x8]
0000172B  DD5808            fstp qword [eax+0x8]
0000172E  8B4508            mov eax,[ebp+0x8]
00001731  C9                leave
00001732  C3                ret
00001733  90                nop
00001734  55                push ebp
00001735  89E5              mov ebp,esp
00001737  83EC18            sub esp,byte +0x18
0000173A  8B450C            mov eax,[ebp+0xc]
0000173D  890424            mov [esp],eax
00001740  E8EBFCFFFF        call 0x100001430
00001745  DD00              fld qword [eax]
00001747  8B4508            mov eax,[ebp+0x8]
0000174A  DD00              fld qword [eax]
0000174C  DEC1              faddp st1
0000174E  8B4508            mov eax,[ebp+0x8]
00001751  DD18              fstp qword [eax]
00001753  8B450C            mov eax,[ebp+0xc]
00001756  890424            mov [esp],eax
00001759  E8E6FCFFFF        call 0x100001444
0000175E  DD00              fld qword [eax]
00001760  8B4508            mov eax,[ebp+0x8]
00001763  DD4008            fld qword [eax+0x8]
00001766  DEC1              faddp st1
00001768  8B4508            mov eax,[ebp+0x8]
0000176B  DD5808            fstp qword [eax+0x8]
0000176E  8B4508            mov eax,[ebp+0x8]
00001771  C9                leave
00001772  C3                ret
00001773  90                nop
00001774  55                push ebp
00001775  89E5              mov ebp,esp
00001777  57                push edi
00001778  56                push esi
00001779  53                push ebx
0000177A  83EC6C            sub esp,byte +0x6c
0000177D  8B450C            mov eax,[ebp+0xc]
00001780  890424            mov [esp],eax
00001783  E8A8FCFFFF        call 0x100001430
00001788  8B5004            mov edx,[eax+0x4]
0000178B  8B00              mov eax,[eax]
0000178D  8945E0            mov [ebp-0x20],eax
00001790  8955E4            mov [ebp-0x1c],edx
00001793  8B45D8            mov eax,[ebp-0x28]
00001796  8B55DC            mov edx,[ebp-0x24]
00001799  8B4DE0            mov ecx,[ebp-0x20]
0000179C  8B5DE4            mov ebx,[ebp-0x1c]
0000179F  894DC8            mov [ebp-0x38],ecx
000017A2  895DCC            mov [ebp-0x34],ebx
000017A5  8945D0            mov [ebp-0x30],eax
000017A8  8955D4            mov [ebp-0x2c],edx
000017AB  8B450C            mov eax,[ebp+0xc]
000017AE  890424            mov [esp],eax
000017B1  E88EFCFFFF        call 0x100001444
000017B6  8B5004            mov edx,[eax+0x4]
000017B9  8B00              mov eax,[eax]
000017BB  8945D8            mov [ebp-0x28],eax
000017BE  8955DC            mov [ebp-0x24],edx
000017C1  8B45D8            mov eax,[ebp-0x28]
000017C4  8B55DC            mov edx,[ebp-0x24]
000017C7  8B4DE0            mov ecx,[ebp-0x20]
000017CA  8B5DE4            mov ebx,[ebp-0x1c]
000017CD  894DC8            mov [ebp-0x38],ecx
000017D0  895DCC            mov [ebp-0x34],ebx
000017D3  8945D0            mov [ebp-0x30],eax
000017D6  8955D4            mov [ebp-0x2c],edx
000017D9  8B4508            mov eax,[ebp+0x8]
000017DC  8B08              mov ecx,[eax]
000017DE  8B5804            mov ebx,[eax+0x4]
000017E1  8B4508            mov eax,[ebp+0x8]
000017E4  8B7008            mov esi,[eax+0x8]
000017E7  8B780C            mov edi,[eax+0xc]
000017EA  8D45B8            lea eax,[ebp-0x48]
000017ED  8945B4            mov [ebp-0x4c],eax
000017F0  8B45D8            mov eax,[ebp-0x28]
000017F3  8B55DC            mov edx,[ebp-0x24]
000017F6  8944241C          mov [esp+0x1c],eax
000017FA  89542420          mov [esp+0x20],edx
000017FE  8B45E0            mov eax,[ebp-0x20]
00001801  8B55E4            mov edx,[ebp-0x1c]
00001804  89442414          mov [esp+0x14],eax
00001808  89542418          mov [esp+0x18],edx
0000180C  8974240C          mov [esp+0xc],esi
00001810  897C2410          mov [esp+0x10],edi
00001814  894C2404          mov [esp+0x4],ecx
00001818  895C2408          mov [esp+0x8],ebx
0000181C  8B45B4            mov eax,[ebp-0x4c]
0000181F  890424            mov [esp],eax
00001822  E819F0FFFF        call 0x100000840
00001827  83EC04            sub esp,byte +0x4
0000182A  8B4DB8            mov ecx,[ebp-0x48]
0000182D  8B5DBC            mov ebx,[ebp-0x44]
00001830  8B45C0            mov eax,[ebp-0x40]
00001833  8B55C4            mov edx,[ebp-0x3c]
00001836  8B7508            mov esi,[ebp+0x8]
00001839  890E              mov [esi],ecx
0000183B  895E04            mov [esi+0x4],ebx
0000183E  8B4D08            mov ecx,[ebp+0x8]
00001841  894108            mov [ecx+0x8],eax
00001844  89510C            mov [ecx+0xc],edx
00001847  8B4508            mov eax,[ebp+0x8]
0000184A  8D65F4            lea esp,[ebp-0xc]
0000184D  5B                pop ebx
0000184E  5E                pop esi
0000184F  5F                pop edi
00001850  5D                pop ebp
00001851  C3                ret
00001852  55                push ebp
00001853  89E5              mov ebp,esp
00001855  83EC28            sub esp,byte +0x28
00001858  EB58              jmp short 0x18b2
0000185A  837D1000          cmp dword [ebp+0x10],byte +0x0
0000185E  751B              jnz 0x187b
00001860  8B450C            mov eax,[ebp+0xc]
00001863  89442408          mov [esp+0x8],eax
00001867  8B450C            mov eax,[ebp+0xc]
0000186A  89442404          mov [esp+0x4],eax
0000186E  8B4508            mov eax,[ebp+0x8]
00001871  890424            mov [esp],eax
00001874  E8E4000000        call 0x195d
00001879  EB46              jmp short 0x18c1
0000187B  FF4D10            dec dword [ebp+0x10]
0000187E  8B450C            mov eax,[ebp+0xc]
00001881  89442404          mov [esp+0x4],eax
00001885  8B4508            mov eax,[ebp+0x8]
00001888  890424            mov [esp],eax
0000188B  E800010000        call 0x1990
00001890  8945F4            mov [ebp-0xc],eax
00001893  8B4510            mov eax,[ebp+0x10]
00001896  89442408          mov [esp+0x8],eax
0000189A  8B450C            mov eax,[ebp+0xc]
0000189D  89442404          mov [esp+0x4],eax
000018A1  8B45F4            mov eax,[ebp-0xc]
000018A4  890424            mov [esp],eax
000018A7  E8A6FFFFFF        call 0x100001852
000018AC  8B45F4            mov eax,[ebp-0xc]
000018AF  89450C            mov [ebp+0xc],eax
000018B2  8B550C            mov edx,[ebp+0xc]
000018B5  8B4508            mov eax,[ebp+0x8]
000018B8  29C2              sub edx,eax
000018BA  89D0              mov eax,edx
000018BC  83F843            cmp eax,byte +0x43
000018BF  7F99              jg 0x185a
000018C1  C9                leave
000018C2  C3                ret
000018C3  55                push ebp
000018C4  89E5              mov ebp,esp
000018C6  83EC18            sub esp,byte +0x18
000018C9  8B550C            mov edx,[ebp+0xc]
000018CC  8B4508            mov eax,[ebp+0x8]
000018CF  29C2              sub edx,eax
000018D1  89D0              mov eax,edx
000018D3  83F843            cmp eax,byte +0x43
000018D6  7E2C              jng 0x1904
000018D8  8B4508            mov eax,[ebp+0x8]
000018DB  83C040            add eax,byte +0x40
000018DE  89442404          mov [esp+0x4],eax
000018E2  8B4508            mov eax,[ebp+0x8]
000018E5  890424            mov [esp],eax
000018E8  E808010000        call 0x19f5
000018ED  8B4508            mov eax,[ebp+0x8]
000018F0  8D5040            lea edx,[eax+0x40]
000018F3  8B450C            mov eax,[ebp+0xc]
000018F6  89442404          mov [esp+0x4],eax
000018FA  891424            mov [esp],edx
000018FD  E863010000        call 0x1a65
00001902  EB12              jmp short 0x1916
00001904  8B450C            mov eax,[ebp+0xc]
00001907  89442404          mov [esp+0x4],eax
0000190B  8B4508            mov eax,[ebp+0x8]
0000190E  890424            mov [esp],eax
00001911  E8DF000000        call 0x19f5
00001916  C9                leave
00001917  C3                ret
00001918  55                push ebp
00001919  89E5              mov ebp,esp
0000191B  90                nop
0000191C  8B4508            mov eax,[ebp+0x8]
0000191F  5D                pop ebp
00001920  C20400            ret 0x4
00001923  55                push ebp
00001924  89E5              mov ebp,esp
00001926  83EC18            sub esp,byte +0x18
00001929  8B4508            mov eax,[ebp+0x8]
0000192C  3B450C            cmp eax,[ebp+0xc]
0000192F  7502              jnz 0x1933
00001931  EB28              jmp short 0x195b
00001933  836D0C04          sub dword [ebp+0xc],byte +0x4
00001937  EB1A              jmp short 0x1953
00001939  8B450C            mov eax,[ebp+0xc]
0000193C  89442404          mov [esp+0x4],eax
00001940  8B4508            mov eax,[ebp+0x8]
00001943  890424            mov [esp],eax
00001946  E841010000        call 0x1a8c
0000194B  83450804          add dword [ebp+0x8],byte +0x4
0000194F  836D0C04          sub dword [ebp+0xc],byte +0x4
00001953  8B4508            mov eax,[ebp+0x8]
00001956  3B450C            cmp eax,[ebp+0xc]
00001959  72DE              jc 0x1939
0000195B  C9                leave
0000195C  C3                ret
0000195D  55                push ebp
0000195E  89E5              mov ebp,esp
00001960  83EC18            sub esp,byte +0x18
00001963  8B4510            mov eax,[ebp+0x10]
00001966  89442408          mov [esp+0x8],eax
0000196A  8B450C            mov eax,[ebp+0xc]
0000196D  89442404          mov [esp+0x4],eax
00001971  8B4508            mov eax,[ebp+0x8]
00001974  890424            mov [esp],eax
00001977  E82A010000        call 0x1aa6
0000197C  8B450C            mov eax,[ebp+0xc]
0000197F  89442404          mov [esp+0x4],eax
00001983  8B4508            mov eax,[ebp+0x8]
00001986  890424            mov [esp],eax
00001989  E86D010000        call 0x1afb
0000198E  C9                leave
0000198F  C3                ret
00001990  55                push ebp
00001991  89E5              mov ebp,esp
00001993  83EC28            sub esp,byte +0x28
00001996  8B550C            mov edx,[ebp+0xc]
00001999  8B4508            mov eax,[ebp+0x8]
0000199C  29C2              sub edx,eax
0000199E  89D0              mov eax,edx
000019A0  C1F802            sar eax,0x2
000019A3  89C2              mov edx,eax
000019A5  C1EA1F            shr edx,0x1f
000019A8  01D0              add eax,edx
000019AA  D1F8              sar eax,1
000019AC  8D148500000000    lea edx,[eax*4+0x0]
000019B3  8B4508            mov eax,[ebp+0x8]
000019B6  01D0              add eax,edx
000019B8  8945F4            mov [ebp-0xc],eax
000019BB  8B450C            mov eax,[ebp+0xc]
000019BE  83E804            sub eax,byte +0x4
000019C1  89442408          mov [esp+0x8],eax
000019C5  8B45F4            mov eax,[ebp-0xc]
000019C8  89442404          mov [esp+0x4],eax
000019CC  8B4508            mov eax,[ebp+0x8]
000019CF  890424            mov [esp],eax
000019D2  E85A010000        call 0x1b31
000019D7  8B4508            mov eax,[ebp+0x8]
000019DA  8D5004            lea edx,[eax+0x4]
000019DD  8B4508            mov eax,[ebp+0x8]
000019E0  89442408          mov [esp+0x8],eax
000019E4  8B450C            mov eax,[ebp+0xc]
000019E7  89442404          mov [esp+0x4],eax
000019EB  891424            mov [esp],edx
000019EE  E8DC010000        call 0x1bcf
000019F3  C9                leave
000019F4  C3                ret
000019F5  55                push ebp
000019F6  89E5              mov ebp,esp
000019F8  83EC28            sub esp,byte +0x28
000019FB  8B4508            mov eax,[ebp+0x8]
000019FE  3B450C            cmp eax,[ebp+0xc]
00001A01  7502              jnz 0x1a05
00001A03  EB5E              jmp short 0x1a63
00001A05  8B4508            mov eax,[ebp+0x8]
00001A08  83C004            add eax,byte +0x4
00001A0B  8945F4            mov [ebp-0xc],eax
00001A0E  EB4B              jmp short 0x1a5b
00001A10  8B45F4            mov eax,[ebp-0xc]
00001A13  8B10              mov edx,[eax]
00001A15  8B4508            mov eax,[ebp+0x8]
00001A18  8B00              mov eax,[eax]
00001A1A  39C2              cmp edx,eax
00001A1C  7D2E              jnl 0x1a4c
00001A1E  8B45F4            mov eax,[ebp-0xc]
00001A21  8B00              mov eax,[eax]
00001A23  8945F0            mov [ebp-0x10],eax
00001A26  8B45F4            mov eax,[ebp-0xc]
00001A29  83C004            add eax,byte +0x4
00001A2C  89442408          mov [esp+0x8],eax
00001A30  8B45F4            mov eax,[ebp-0xc]
00001A33  89442404          mov [esp+0x4],eax
00001A37  8B4508            mov eax,[ebp+0x8]
00001A3A  890424            mov [esp],eax
00001A3D  E8E7010000        call 0x1c29
00001A42  8B4508            mov eax,[ebp+0x8]
00001A45  8B55F0            mov edx,[ebp-0x10]
00001A48  8910              mov [eax],edx
00001A4A  EB0B              jmp short 0x1a57
00001A4C  8B45F4            mov eax,[ebp-0xc]
00001A4F  890424            mov [esp],eax
00001A52  E80A020000        call 0x1c61
00001A57  8345F404          add dword [ebp-0xc],byte +0x4
00001A5B  8B45F4            mov eax,[ebp-0xc]
00001A5E  3B450C            cmp eax,[ebp+0xc]
00001A61  75AD              jnz 0x1a10
00001A63  C9                leave
00001A64  C3                ret
00001A65  55                push ebp
00001A66  89E5              mov ebp,esp
00001A68  83EC28            sub esp,byte +0x28
00001A6B  8B4508            mov eax,[ebp+0x8]
00001A6E  8945F4            mov [ebp-0xc],eax
00001A71  EB0F              jmp short 0x1a82
00001A73  8B45F4            mov eax,[ebp-0xc]
00001A76  890424            mov [esp],eax
00001A79  E8E3010000        call 0x1c61
00001A7E  8345F404          add dword [ebp-0xc],byte +0x4
00001A82  8B45F4            mov eax,[ebp-0xc]
00001A85  3B450C            cmp eax,[ebp+0xc]
00001A88  75E9              jnz 0x1a73
00001A8A  C9                leave
00001A8B  C3                ret
00001A8C  55                push ebp
00001A8D  89E5              mov ebp,esp
00001A8F  83EC18            sub esp,byte +0x18
00001A92  8B450C            mov eax,[ebp+0xc]
00001A95  89442404          mov [esp+0x4],eax
00001A99  8B4508            mov eax,[ebp+0x8]
00001A9C  890424            mov [esp],eax
00001A9F  E8FF010000        call 0x1ca3
00001AA4  C9                leave
00001AA5  C3                ret
00001AA6  55                push ebp
00001AA7  89E5              mov ebp,esp
00001AA9  83EC28            sub esp,byte +0x28
00001AAC  8B450C            mov eax,[ebp+0xc]
00001AAF  89442404          mov [esp+0x4],eax
00001AB3  8B4508            mov eax,[ebp+0x8]
00001AB6  890424            mov [esp],eax
00001AB9  E8FF010000        call 0x1cbd
00001ABE  8B450C            mov eax,[ebp+0xc]
00001AC1  8945F4            mov [ebp-0xc],eax
00001AC4  EB2B              jmp short 0x1af1
00001AC6  8B45F4            mov eax,[ebp-0xc]
00001AC9  8B10              mov edx,[eax]
00001ACB  8B4508            mov eax,[ebp+0x8]
00001ACE  8B00              mov eax,[eax]
00001AD0  39C2              cmp edx,eax
00001AD2  7D19              jnl 0x1aed
00001AD4  8B45F4            mov eax,[ebp-0xc]
00001AD7  89442408          mov [esp+0x8],eax
00001ADB  8B450C            mov eax,[ebp+0xc]
00001ADE  89442404          mov [esp+0x4],eax
00001AE2  8B4508            mov eax,[ebp+0x8]
00001AE5  890424            mov [esp],eax
00001AE8  E84C020000        call 0x1d39
00001AED  8345F404          add dword [ebp-0xc],byte +0x4
00001AF1  8B45F4            mov eax,[ebp-0xc]
00001AF4  3B4510            cmp eax,[ebp+0x10]
00001AF7  72CD              jc 0x1ac6
00001AF9  C9                leave
00001AFA  C3                ret
00001AFB  55                push ebp
00001AFC  89E5              mov ebp,esp
00001AFE  83EC18            sub esp,byte +0x18
00001B01  EB1D              jmp short 0x1b20
00001B03  836D0C04          sub dword [ebp+0xc],byte +0x4
00001B07  8B450C            mov eax,[ebp+0xc]
00001B0A  89442408          mov [esp+0x8],eax
00001B0E  8B450C            mov eax,[ebp+0xc]
00001B11  89442404          mov [esp+0x4],eax
00001B15  8B4508            mov eax,[ebp+0x8]
00001B18  890424            mov [esp],eax
00001B1B  E819020000        call 0x1d39
00001B20  8B550C            mov edx,[ebp+0xc]
00001B23  8B4508            mov eax,[ebp+0x8]
00001B26  29C2              sub edx,eax
00001B28  89D0              mov eax,edx
00001B2A  83F807            cmp eax,byte +0x7
00001B2D  7FD4              jg 0x1b03
00001B2F  C9                leave
00001B30  C3                ret
00001B31  55                push ebp
00001B32  89E5              mov ebp,esp
00001B34  83EC18            sub esp,byte +0x18
00001B37  8B4508            mov eax,[ebp+0x8]
00001B3A  8B10              mov edx,[eax]
00001B3C  8B450C            mov eax,[ebp+0xc]
00001B3F  8B00              mov eax,[eax]
00001B41  39C2              cmp edx,eax
00001B43  7D44              jnl 0x1b89
00001B45  8B450C            mov eax,[ebp+0xc]
00001B48  8B10              mov edx,[eax]
00001B4A  8B4510            mov eax,[ebp+0x10]
00001B4D  8B00              mov eax,[eax]
00001B4F  39C2              cmp edx,eax
00001B51  7D14              jnl 0x1b67
00001B53  8B450C            mov eax,[ebp+0xc]
00001B56  89442404          mov [esp+0x4],eax
00001B5A  8B4508            mov eax,[ebp+0x8]
00001B5D  890424            mov [esp],eax
00001B60  E827FFFFFF        call 0x100001a8c
00001B65  EB66              jmp short 0x1bcd
00001B67  8B4508            mov eax,[ebp+0x8]
00001B6A  8B10              mov edx,[eax]
00001B6C  8B4510            mov eax,[ebp+0x10]
00001B6F  8B00              mov eax,[eax]
00001B71  39C2              cmp edx,eax
00001B73  7D58              jnl 0x1bcd
00001B75  8B4510            mov eax,[ebp+0x10]
00001B78  89442404          mov [esp+0x4],eax
00001B7C  8B4508            mov eax,[ebp+0x8]
00001B7F  890424            mov [esp],eax
00001B82  E805FFFFFF        call 0x100001a8c
00001B87  EB44              jmp short 0x1bcd
00001B89  8B4508            mov eax,[ebp+0x8]
00001B8C  8B10              mov edx,[eax]
00001B8E  8B4510            mov eax,[ebp+0x10]
00001B91  8B00              mov eax,[eax]
00001B93  39C2              cmp edx,eax
00001B95  7D02              jnl 0x1b99
00001B97  EB34              jmp short 0x1bcd
00001B99  8B450C            mov eax,[ebp+0xc]
00001B9C  8B10              mov edx,[eax]
00001B9E  8B4510            mov eax,[ebp+0x10]
00001BA1  8B00              mov eax,[eax]
00001BA3  39C2              cmp edx,eax
00001BA5  7D14              jnl 0x1bbb
00001BA7  8B4510            mov eax,[ebp+0x10]
00001BAA  89442404          mov [esp+0x4],eax
00001BAE  8B4508            mov eax,[ebp+0x8]
00001BB1  890424            mov [esp],eax
00001BB4  E8D3FEFFFF        call 0x100001a8c
00001BB9  EB12              jmp short 0x1bcd
00001BBB  8B450C            mov eax,[ebp+0xc]
00001BBE  89442404          mov [esp+0x4],eax
00001BC2  8B4508            mov eax,[ebp+0x8]
00001BC5  890424            mov [esp],eax
00001BC8  E8BFFEFFFF        call 0x100001a8c
00001BCD  C9                leave
00001BCE  C3                ret
00001BCF  55                push ebp
00001BD0  89E5              mov ebp,esp
00001BD2  83EC18            sub esp,byte +0x18
00001BD5  EB04              jmp short 0x1bdb
00001BD7  83450804          add dword [ebp+0x8],byte +0x4
00001BDB  8B4508            mov eax,[ebp+0x8]
00001BDE  8B10              mov edx,[eax]
00001BE0  8B4510            mov eax,[ebp+0x10]
00001BE3  8B00              mov eax,[eax]
00001BE5  39C2              cmp edx,eax
00001BE7  7CEE              jl 0x1bd7
00001BE9  836D0C04          sub dword [ebp+0xc],byte +0x4
00001BED  EB04              jmp short 0x1bf3
00001BEF  836D0C04          sub dword [ebp+0xc],byte +0x4
00001BF3  8B4510            mov eax,[ebp+0x10]
00001BF6  8B10              mov edx,[eax]
00001BF8  8B450C            mov eax,[ebp+0xc]
00001BFB  8B00              mov eax,[eax]
00001BFD  39C2              cmp edx,eax
00001BFF  7CEE              jl 0x1bef
00001C01  8B4508            mov eax,[ebp+0x8]
00001C04  3B450C            cmp eax,[ebp+0xc]
00001C07  7205              jc 0x1c0e
00001C09  8B4508            mov eax,[ebp+0x8]
00001C0C  EB19              jmp short 0x1c27
00001C0E  8B450C            mov eax,[ebp+0xc]
00001C11  89442404          mov [esp+0x4],eax
00001C15  8B4508            mov eax,[ebp+0x8]
00001C18  890424            mov [esp],eax
00001C1B  E86CFEFFFF        call 0x100001a8c
00001C20  83450804          add dword [ebp+0x8],byte +0x4
00001C24  90                nop
00001C25  EBB4              jmp short 0x1bdb
00001C27  C9                leave
00001C28  C3                ret
00001C29  55                push ebp
00001C2A  89E5              mov ebp,esp
00001C2C  53                push ebx
00001C2D  83EC14            sub esp,byte +0x14
00001C30  8B450C            mov eax,[ebp+0xc]
00001C33  890424            mov [esp],eax
00001C36  E843010000        call 0x1d7e
00001C3B  89C3              mov ebx,eax
00001C3D  8B4508            mov eax,[ebp+0x8]
00001C40  890424            mov [esp],eax
00001C43  E836010000        call 0x1d7e
00001C48  8B5510            mov edx,[ebp+0x10]
00001C4B  89542408          mov [esp+0x8],edx
00001C4F  895C2404          mov [esp+0x4],ebx
00001C53  890424            mov [esp],eax
00001C56  E836010000        call 0x1d91
00001C5B  83C414            add esp,byte +0x14
00001C5E  5B                pop ebx
00001C5F  5D                pop ebp
00001C60  C3                ret
00001C61  55                push ebp
00001C62  89E5              mov ebp,esp
00001C64  83EC10            sub esp,byte +0x10
00001C67  8B4508            mov eax,[ebp+0x8]
00001C6A  8B00              mov eax,[eax]
00001C6C  8945F8            mov [ebp-0x8],eax
00001C6F  8B4508            mov eax,[ebp+0x8]
00001C72  8945FC            mov [ebp-0x4],eax
00001C75  836DFC04          sub dword [ebp-0x4],byte +0x4
00001C79  EB14              jmp short 0x1c8f
00001C7B  8B45FC            mov eax,[ebp-0x4]
00001C7E  8B10              mov edx,[eax]
00001C80  8B4508            mov eax,[ebp+0x8]
00001C83  8910              mov [eax],edx
00001C85  8B45FC            mov eax,[ebp-0x4]
00001C88  894508            mov [ebp+0x8],eax
00001C8B  836DFC04          sub dword [ebp-0x4],byte +0x4
00001C8F  8B45FC            mov eax,[ebp-0x4]
00001C92  8B00              mov eax,[eax]
00001C94  3B45F8            cmp eax,[ebp-0x8]
00001C97  7FE2              jg 0x1c7b
00001C99  8B4508            mov eax,[ebp+0x8]
00001C9C  8B55F8            mov edx,[ebp-0x8]
00001C9F  8910              mov [eax],edx
00001CA1  C9                leave
00001CA2  C3                ret
00001CA3  55                push ebp
00001CA4  89E5              mov ebp,esp
00001CA6  83EC18            sub esp,byte +0x18
00001CA9  8B450C            mov eax,[ebp+0xc]
00001CAC  89442404          mov [esp+0x4],eax
00001CB0  8B4508            mov eax,[ebp+0x8]
00001CB3  890424            mov [esp],eax
00001CB6  E81A010000        call 0x1dd5
00001CBB  C9                leave
00001CBC  C3                ret
00001CBD  55                push ebp
00001CBE  89E5              mov ebp,esp
00001CC0  83EC28            sub esp,byte +0x28
00001CC3  8B550C            mov edx,[ebp+0xc]
00001CC6  8B4508            mov eax,[ebp+0x8]
00001CC9  29C2              sub edx,eax
00001CCB  89D0              mov eax,edx
00001CCD  83F807            cmp eax,byte +0x7
00001CD0  7F02              jg 0x1cd4
00001CD2  EB63              jmp short 0x1d37
00001CD4  8B550C            mov edx,[ebp+0xc]
00001CD7  8B4508            mov eax,[ebp+0x8]
00001CDA  29C2              sub edx,eax
00001CDC  89D0              mov eax,edx
00001CDE  C1F802            sar eax,0x2
00001CE1  8945F0            mov [ebp-0x10],eax
00001CE4  8B45F0            mov eax,[ebp-0x10]
00001CE7  83E802            sub eax,byte +0x2
00001CEA  89C2              mov edx,eax
00001CEC  C1EA1F            shr edx,0x1f
00001CEF  01D0              add eax,edx
00001CF1  D1F8              sar eax,1
00001CF3  8945F4            mov [ebp-0xc],eax
00001CF6  8B45F4            mov eax,[ebp-0xc]
00001CF9  8D148500000000    lea edx,[eax*4+0x0]
00001D00  8B4508            mov eax,[ebp+0x8]
00001D03  01D0              add eax,edx
00001D05  8B00              mov eax,[eax]
00001D07  8945EC            mov [ebp-0x14],eax
00001D0A  8B45EC            mov eax,[ebp-0x14]
00001D0D  8944240C          mov [esp+0xc],eax
00001D11  8B45F0            mov eax,[ebp-0x10]
00001D14  89442408          mov [esp+0x8],eax
00001D18  8B45F4            mov eax,[ebp-0xc]
00001D1B  89442404          mov [esp+0x4],eax
00001D1F  8B4508            mov eax,[ebp+0x8]
00001D22  890424            mov [esp],eax
00001D25  E8CD000000        call 0x1df7
00001D2A  837DF400          cmp dword [ebp-0xc],byte +0x0
00001D2E  7502              jnz 0x1d32
00001D30  EB05              jmp short 0x1d37
00001D32  FF4DF4            dec dword [ebp-0xc]
00001D35  EBBF              jmp short 0x1cf6
00001D37  C9                leave
00001D38  C3                ret
00001D39  55                push ebp
00001D3A  89E5              mov ebp,esp
00001D3C  83EC28            sub esp,byte +0x28
00001D3F  8B4510            mov eax,[ebp+0x10]
00001D42  8B00              mov eax,[eax]
00001D44  8945F4            mov [ebp-0xc],eax
00001D47  8B4508            mov eax,[ebp+0x8]
00001D4A  8B10              mov edx,[eax]
00001D4C  8B4510            mov eax,[ebp+0x10]
00001D4F  8910              mov [eax],edx
00001D51  8B550C            mov edx,[ebp+0xc]
00001D54  8B4508            mov eax,[ebp+0x8]
00001D57  29C2              sub edx,eax
00001D59  89D0              mov eax,edx
00001D5B  C1F802            sar eax,0x2
00001D5E  8B55F4            mov edx,[ebp-0xc]
00001D61  8954240C          mov [esp+0xc],edx
00001D65  89442408          mov [esp+0x8],eax
00001D69  C744240400000000  mov dword [esp+0x4],0x0
00001D71  8B4508            mov eax,[ebp+0x8]
00001D74  890424            mov [esp],eax
00001D77  E87B000000        call 0x1df7
00001D7C  C9                leave
00001D7D  C3                ret
00001D7E  55                push ebp
00001D7F  89E5              mov ebp,esp
00001D81  83EC18            sub esp,byte +0x18
00001D84  8B4508            mov eax,[ebp+0x8]
00001D87  890424            mov [esp],eax
00001D8A  E864010000        call 0x1ef3
00001D8F  C9                leave
00001D90  C3                ret
00001D91  55                push ebp
00001D92  89E5              mov ebp,esp
00001D94  56                push esi
00001D95  53                push ebx
00001D96  83EC10            sub esp,byte +0x10
00001D99  8B4510            mov eax,[ebp+0x10]
00001D9C  890424            mov [esp],eax
00001D9F  E857010000        call 0x1efb
00001DA4  89C6              mov esi,eax
00001DA6  8B450C            mov eax,[ebp+0xc]
00001DA9  890424            mov [esp],eax
00001DAC  E84A010000        call 0x1efb
00001DB1  89C3              mov ebx,eax
00001DB3  8B4508            mov eax,[ebp+0x8]
00001DB6  890424            mov [esp],eax
00001DB9  E83D010000        call 0x1efb
00001DBE  89742408          mov [esp+0x8],esi
00001DC2  895C2404          mov [esp+0x4],ebx
00001DC6  890424            mov [esp],eax
00001DC9  E840010000        call 0x1f0e
00001DCE  83C410            add esp,byte +0x10
00001DD1  5B                pop ebx
00001DD2  5E                pop esi
00001DD3  5D                pop ebp
00001DD4  C3                ret
00001DD5  55                push ebp
00001DD6  89E5              mov ebp,esp
00001DD8  83EC10            sub esp,byte +0x10
00001DDB  8B4508            mov eax,[ebp+0x8]
00001DDE  8B00              mov eax,[eax]
00001DE0  8945FC            mov [ebp-0x4],eax
00001DE3  8B450C            mov eax,[ebp+0xc]
00001DE6  8B10              mov edx,[eax]
00001DE8  8B4508            mov eax,[ebp+0x8]
00001DEB  8910              mov [eax],edx
00001DED  8B450C            mov eax,[ebp+0xc]
00001DF0  8B55FC            mov edx,[ebp-0x4]
00001DF3  8910              mov [eax],edx
00001DF5  C9                leave
00001DF6  C3                ret
00001DF7  55                push ebp
00001DF8  89E5              mov ebp,esp
00001DFA  83EC28            sub esp,byte +0x28
00001DFD  8B450C            mov eax,[ebp+0xc]
00001E00  8945F0            mov [ebp-0x10],eax
00001E03  8B450C            mov eax,[ebp+0xc]
00001E06  8945F4            mov [ebp-0xc],eax
00001E09  EB5F              jmp short 0x1e6a
00001E0B  8B45F4            mov eax,[ebp-0xc]
00001E0E  40                inc eax
00001E0F  01C0              add eax,eax
00001E11  8945F4            mov [ebp-0xc],eax
00001E14  8B45F4            mov eax,[ebp-0xc]
00001E17  8D148500000000    lea edx,[eax*4+0x0]
00001E1E  8B4508            mov eax,[ebp+0x8]
00001E21  01D0              add eax,edx
00001E23  8B10              mov edx,[eax]
00001E25  8B45F4            mov eax,[ebp-0xc]
00001E28  05FFFFFF3F        add eax,0x3fffffff
00001E2D  8D0C8500000000    lea ecx,[eax*4+0x0]
00001E34  8B4508            mov eax,[ebp+0x8]
00001E37  01C8              add eax,ecx
00001E39  8B00              mov eax,[eax]
00001E3B  39C2              cmp edx,eax
00001E3D  7D03              jnl 0x1e42
00001E3F  FF4DF4            dec dword [ebp-0xc]
00001E42  8B450C            mov eax,[ebp+0xc]
00001E45  8D148500000000    lea edx,[eax*4+0x0]
00001E4C  8B4508            mov eax,[ebp+0x8]
00001E4F  01C2              add edx,eax
00001E51  8B45F4            mov eax,[ebp-0xc]
00001E54  8D0C8500000000    lea ecx,[eax*4+0x0]
00001E5B  8B4508            mov eax,[ebp+0x8]
00001E5E  01C8              add eax,ecx
00001E60  8B00              mov eax,[eax]
00001E62  8902              mov [edx],eax
00001E64  8B45F4            mov eax,[ebp-0xc]
00001E67  89450C            mov [ebp+0xc],eax
00001E6A  8B4510            mov eax,[ebp+0x10]
00001E6D  48                dec eax
00001E6E  89C2              mov edx,eax
00001E70  C1EA1F            shr edx,0x1f
00001E73  01D0              add eax,edx
00001E75  D1F8              sar eax,1
00001E77  3B45F4            cmp eax,[ebp-0xc]
00001E7A  7F8F              jg 0x1e0b
00001E7C  8B4510            mov eax,[ebp+0x10]
00001E7F  83E001            and eax,byte +0x1
00001E82  85C0              test eax,eax
00001E84  754B              jnz 0x1ed1
00001E86  8B4510            mov eax,[ebp+0x10]
00001E89  83E802            sub eax,byte +0x2
00001E8C  89C2              mov edx,eax
00001E8E  C1EA1F            shr edx,0x1f
00001E91  01D0              add eax,edx
00001E93  D1F8              sar eax,1
00001E95  3B45F4            cmp eax,[ebp-0xc]
00001E98  7537              jnz 0x1ed1
00001E9A  8B45F4            mov eax,[ebp-0xc]
00001E9D  40                inc eax
00001E9E  01C0              add eax,eax
00001EA0  8945F4            mov [ebp-0xc],eax
00001EA3  8B450C            mov eax,[ebp+0xc]
00001EA6  8D148500000000    lea edx,[eax*4+0x0]
00001EAD  8B4508            mov eax,[ebp+0x8]
00001EB0  01C2              add edx,eax
00001EB2  8B45F4            mov eax,[ebp-0xc]
00001EB5  05FFFFFF3F        add eax,0x3fffffff
00001EBA  8D0C8500000000    lea ecx,[eax*4+0x0]
00001EC1  8B4508            mov eax,[ebp+0x8]
00001EC4  01C8              add eax,ecx
00001EC6  8B00              mov eax,[eax]
00001EC8  8902              mov [edx],eax
00001ECA  8B45F4            mov eax,[ebp-0xc]
00001ECD  48                dec eax
00001ECE  89450C            mov [ebp+0xc],eax
00001ED1  8B4514            mov eax,[ebp+0x14]
00001ED4  8944240C          mov [esp+0xc],eax
00001ED8  8B45F0            mov eax,[ebp-0x10]
00001EDB  89442408          mov [esp+0x8],eax
00001EDF  8B450C            mov eax,[ebp+0xc]
00001EE2  89442404          mov [esp+0x4],eax
00001EE6  8B4508            mov eax,[ebp+0x8]
00001EE9  890424            mov [esp],eax
00001EEC  E842000000        call 0x1f33
00001EF1  C9                leave
00001EF2  C3                ret
00001EF3  55                push ebp
00001EF4  89E5              mov ebp,esp
00001EF6  8B4508            mov eax,[ebp+0x8]
00001EF9  5D                pop ebp
00001EFA  C3                ret
00001EFB  55                push ebp
00001EFC  89E5              mov ebp,esp
00001EFE  83EC18            sub esp,byte +0x18
00001F01  8B4508            mov eax,[ebp+0x8]
00001F04  890424            mov [esp],eax
00001F07  E8E7FFFFFF        call 0x100001ef3
00001F0C  C9                leave
00001F0D  C3                ret
00001F0E  55                push ebp
00001F0F  89E5              mov ebp,esp
00001F11  83EC28            sub esp,byte +0x28
00001F14  C645F701          mov byte [ebp-0x9],0x1
00001F18  8B4510            mov eax,[ebp+0x10]
00001F1B  89442408          mov [esp+0x8],eax
00001F1F  8B450C            mov eax,[ebp+0xc]
00001F22  89442404          mov [esp+0x4],eax
00001F26  8B4508            mov eax,[ebp+0x8]
00001F29  890424            mov [esp],eax
00001F2C  E886000000        call 0x1fb7
00001F31  C9                leave
00001F32  C3                ret
00001F33  55                push ebp
00001F34  89E5              mov ebp,esp
00001F36  83EC10            sub esp,byte +0x10
00001F39  8B450C            mov eax,[ebp+0xc]
00001F3C  48                dec eax
00001F3D  89C2              mov edx,eax
00001F3F  C1EA1F            shr edx,0x1f
00001F42  01D0              add eax,edx
00001F44  D1F8              sar eax,1
00001F46  8945FC            mov [ebp-0x4],eax
00001F49  EB38              jmp short 0x1f83
00001F4B  8B450C            mov eax,[ebp+0xc]
00001F4E  8D148500000000    lea edx,[eax*4+0x0]
00001F55  8B4508            mov eax,[ebp+0x8]
00001F58  01C2              add edx,eax
00001F5A  8B45FC            mov eax,[ebp-0x4]
00001F5D  8D0C8500000000    lea ecx,[eax*4+0x0]
00001F64  8B4508            mov eax,[ebp+0x8]
00001F67  01C8              add eax,ecx
00001F69  8B00              mov eax,[eax]
00001F6B  8902              mov [edx],eax
00001F6D  8B45FC            mov eax,[ebp-0x4]
00001F70  89450C            mov [ebp+0xc],eax
00001F73  8B450C            mov eax,[ebp+0xc]
00001F76  48                dec eax
00001F77  89C2              mov edx,eax
00001F79  C1EA1F            shr edx,0x1f
00001F7C  01D0              add eax,edx
00001F7E  D1F8              sar eax,1
00001F80  8945FC            mov [ebp-0x4],eax
00001F83  8B450C            mov eax,[ebp+0xc]
00001F86  3B4510            cmp eax,[ebp+0x10]
00001F89  7E16              jng 0x1fa1
00001F8B  8B45FC            mov eax,[ebp-0x4]
00001F8E  8D148500000000    lea edx,[eax*4+0x0]
00001F95  8B4508            mov eax,[ebp+0x8]
00001F98  01D0              add eax,edx
00001F9A  8B00              mov eax,[eax]
00001F9C  3B4514            cmp eax,[ebp+0x14]
00001F9F  7CAA              jl 0x1f4b
00001FA1  8B450C            mov eax,[ebp+0xc]
00001FA4  8D148500000000    lea edx,[eax*4+0x0]
00001FAB  8B4508            mov eax,[ebp+0x8]
00001FAE  01C2              add edx,eax
00001FB0  8B4514            mov eax,[ebp+0x14]
00001FB3  8902              mov [edx],eax
00001FB5  C9                leave
00001FB6  C3                ret
00001FB7  55                push ebp
00001FB8  89E5              mov ebp,esp
00001FBA  83EC28            sub esp,byte +0x28
00001FBD  8B550C            mov edx,[ebp+0xc]
00001FC0  8B4508            mov eax,[ebp+0x8]
00001FC3  29C2              sub edx,eax
00001FC5  89D0              mov eax,edx
00001FC7  C1F802            sar eax,0x2
00001FCA  8945F4            mov [ebp-0xc],eax
00001FCD  837DF400          cmp dword [ebp-0xc],byte +0x0
00001FD1  7428              jz 0x1ffb
00001FD3  8B45F4            mov eax,[ebp-0xc]
00001FD6  C1E002            shl eax,0x2
00001FD9  8B55F4            mov edx,[ebp-0xc]
00001FDC  C1E202            shl edx,0x2
00001FDF  89D1              mov ecx,edx
00001FE1  F7D9              neg ecx
00001FE3  8B5510            mov edx,[ebp+0x10]
00001FE6  01CA              add edx,ecx
00001FE8  89442408          mov [esp+0x8],eax
00001FEC  8B4508            mov eax,[ebp+0x8]
00001FEF  89442404          mov [esp+0x4],eax
00001FF3  891424            mov [esp],edx
00001FF6  E885E8FFFF        call 0x100000880
00001FFB  8B45F4            mov eax,[ebp-0xc]
00001FFE  C1E002            shl eax,0x2
00002001  F7D8              neg eax
00002003  89C2              mov edx,eax
00002005  8B4510            mov eax,[ebp+0x10]
00002008  01D0              add eax,edx
0000200A  C9                leave
0000200B  C3                ret
0000200C  6690              o16 nop
0000200E  6690              o16 nop
00002010  55                push ebp
00002011  89E5              mov ebp,esp
00002013  5D                pop ebp
00002014  C3                ret
00002015  66                db 0x66
00002016  66                db 0x66
00002017  2E                db 0x2E
00002018  0F                db 0x0F
00002019  1F                pop ds
0000201A  8400              test [eax],al
0000201C  0000              add [eax],al
0000201E  0000              add [eax],al
00002020  55                push ebp
00002021  89E5              mov ebp,esp
00002023  57                push edi
00002024  56                push esi
00002025  53                push ebx
00002026  E84F000000        call 0x207a
0000202B  81C3D1100000      add ebx,0x10d1
00002031  83EC1C            sub esp,byte +0x1c
00002034  E82BE7FFFF        call 0x100000764
00002039  8DBB04FFFFFF      lea edi,[ebx+0xffffff04]
0000203F  8D8304FFFFFF      lea eax,[ebx+0xffffff04]
00002045  29C7              sub edi,eax
00002047  C1FF02            sar edi,0x2
0000204A  85FF              test edi,edi
0000204C  7424              jz 0x2072
0000204E  31F6              xor esi,esi
00002050  8B4510            mov eax,[ebp+0x10]
00002053  89442408          mov [esp+0x8],eax
00002057  8B450C            mov eax,[ebp+0xc]
0000205A  89442404          mov [esp+0x4],eax
0000205E  8B4508            mov eax,[ebp+0x8]
00002061  890424            mov [esp],eax
00002064  FF94B304FFFFFF    call near [ebx+esi*4+0xffffff04]
0000206B  83C601            add esi,byte +0x1
0000206E  39FE              cmp esi,edi
00002070  72DE              jc 0x2050
00002072  83C41C            add esp,byte +0x1c
00002075  5B                pop ebx
00002076  5E                pop esi
00002077  5F                pop edi
00002078  5D                pop ebp
00002079  C3                ret
0000207A  8B1C24            mov ebx,[esp]
0000207D  C3                ret
0000207E  6690              o16 nop
00002080  55                push ebp
00002081  89E5              mov ebp,esp
00002083  53                push ebx
00002084  52                push edx
00002085  BB04B00408        mov ebx,0x804b004
0000208A  A104B00408        mov eax,[0x804b004]
0000208F  83F8FF            cmp eax,byte -0x1
00002092  7410              jz 0x20a4
00002094  8D742600          lea esi,[esi+0x0]
00002098  83EB04            sub ebx,byte +0x4
0000209B  FFD0              call eax
0000209D  8B03              mov eax,[ebx]
0000209F  83F8FF            cmp eax,byte -0x1
000020A2  75F4              jnz 0x2098
000020A4  58                pop eax
000020A5  5B                pop ebx
000020A6  5D                pop ebp
000020A7  C3                ret
000020A8  55                push ebp
000020A9  89E5              mov ebp,esp
000020AB  53                push ebx
000020AC  83EC04            sub esp,byte +0x4
000020AF  E800000000        call 0x20b4
000020B4  5B                pop ebx
000020B5  81C348100000      add ebx,0x1048
000020BB  E8B0E8FFFF        call 0x100000970
000020C0  59                pop ecx
000020C1  5B                pop ebx
000020C2  C9                leave
000020C3  C3                ret
000020C4  0000              add [eax],al
000020C6  0000              add [eax],al
000020C8  0300              add eax,[eax]
000020CA  0000              add [eax],al
000020CC  0100              add [eax],eax
000020CE  0200              add al,[eax]
000020D0  43                inc ebx
000020D1  61                popa
000020D2  7365              jnc 0x2139
000020D4  2023              and [ebx],ah
000020D6  25643A0000        and eax,0x3a64
000020DB  0000              add [eax],al
000020DD  0000              add [eax],al
000020DF  0000              add [eax],al
000020E1  0000              add [eax],al
000020E3  0000              add [eax],al
000020E5  0000              add [eax],al
000020E7  40                inc eax
000020E8  011B              add [ebx],ebx
000020EA  033B              add edi,[ebx]
000020EC  C8010000          enter 0x1,0x0
000020F0  3800              cmp [eax],al
000020F2  0000              add [eax],al
000020F4  B8E6FFFFE4        mov eax,0xe4ffffe6
000020F9  0100              add [eax],eax
000020FB  0008              add [eax],cl
000020FD  E9FFFF5803        jmp 0x3592101
00002102  0000              add [eax],al
00002104  67E9FFFF7803      a16 jmp 0x3792109
0000210A  0000              add [eax],al
0000210C  F3E9FFFFB803      rep jmp 0x3b92111
00002112  0000              add [eax],al
00002114  CC                int3
00002115  ED                in eax,dx
00002116  FF                db 0xFF
00002117  FF                db 0xFF
00002118  DC03              fadd qword [ebx]
0000211A  0000              add [eax],al
0000211C  20EF              and bh,ch
0000211E  FF                db 0xFF
0000211F  FF08              dec dword [eax]
00002121  0400              add al,0x0
00002123  00B3F1FFFF28      add [ebx+0x28fffff1],dh
00002129  0900              or [eax],eax
0000212B  0074F2FF          add [edx+esi*8-0x1],dh
0000212F  FF5009            call near [eax+0x9]
00002132  0000              add [eax],al
00002134  90                nop
00002135  F2                db 0xF2
00002136  FF                db 0xFF
00002137  FF08              dec dword [eax]
00002139  0200              add al,[eax]
0000213B  00A8F2FFFF28      add [eax+0x28fffff2],ch
00002141  0200              add al,[eax]
00002143  00C1              add cl,al
00002145  F2                db 0xF2
00002146  FF                db 0xFF
00002147  FF4802            dec dword [eax+0x2]
0000214A  0000              add [eax],al
0000214C  02F3              add dh,bl
0000214E  FF                db 0xFF
0000214F  FF6802            jmp far [eax+0x2]
00002152  0000              add [eax],al
00002154  40                inc eax
00002155  F3                db 0xF3
00002156  FF                db 0xFF
00002157  FF8802000048      dec dword [eax+0x48000002]
0000215D  F3                db 0xF3
0000215E  FF                db 0xFF
0000215F  FFA802000050      jmp far [eax+0x50000002]
00002165  F3                db 0xF3
00002166  FF                db 0xFF
00002167  FFC8              dec eax
00002169  0200              add al,[eax]
0000216B  005CF3FF          add [ebx+esi*8-0x1],bl
0000216F  FF                db 0xFF
00002170  E802000068        call 0x68002177
00002175  F3                db 0xF3
00002176  FF                db 0xFF
00002177  FF08              dec dword [eax]
00002179  0300              add eax,[eax]
0000217B  00D0              add al,dl
0000217D  F3                db 0xF3
0000217E  FF                db 0xFF
0000217F  FF30              push dword [eax]
00002181  0300              add eax,[eax]
00002183  00FA              add dl,bh
00002185  F3                db 0xF3
00002186  FF                db 0xFF
00002187  FF3404            push dword [esp+eax]
0000218A  0000              add [eax],al
0000218C  3BF4              cmp esi,esp
0000218E  FF                db 0xFF
0000218F  FF5804            call far [eax+0x4]
00002192  0000              add [eax],al
00002194  7CF4              jl 0x218a
00002196  FF                db 0xFF
00002197  FF                db 0xFF
00002198  7C04              jl 0x219e
0000219A  0000              add [eax],al
0000219C  BDF4FFFFA0        mov ebp,0xa0fffff4
000021A1  0400              add al,0x0
000021A3  0007              add [edi],al
000021A5  F5                cmc
000021A6  FF                db 0xFF
000021A7  FFC4              inc esp
000021A9  0400              add al,0x0
000021AB  0048F5            add [eax-0xb],cl
000021AE  FF                db 0xFF
000021AF  FF                db 0xFF
000021B0  E80400007C        call 0x7c0021b9
000021B5  F5                cmc
000021B6  FF                db 0xFF
000021B7  FF08              dec dword [eax]
000021B9  050000CBF5        add eax,0xf5cb0000
000021BE  FF                db 0xFF
000021BF  FF28              jmp far [eax]
000021C1  0500000CF6        add eax,0xf60c0000
000021C6  FF                db 0xFF
000021C7  FF5005            call near [eax+0x5]
000021CA  0000              add [eax],al
000021CC  4C                dec esp
000021CD  F6FF              idiv bh
000021CF  FF7005            push dword [eax+0x5]
000021D2  0000              add [eax],al
000021D4  8CF6              mov esi,segr6
000021D6  FF                db 0xFF
000021D7  FF900500006A      call near [eax+0x6a000005]
000021DD  F7FF              idiv edi
000021DF  FF                db 0xFF
000021E0  BC050000DB        mov esp,0xdb000005
000021E5  F7FF              idiv edi
000021E7  FF                db 0xFF
000021E8  DC05000030F8      fadd qword [0xf8300000]
000021EE  FF                db 0xFF
000021EF  FF                db 0xFF
000021F0  FC                cld
000021F1  0500003BF8        add eax,0xf83b0000
000021F6  FF                db 0xFF
000021F7  FF1C06            call far [esi+eax]
000021FA  0000              add [eax],al
000021FC  75F8              jnz 0x21f6
000021FE  FF                db 0xFF
000021FF  FF                db 0xFF
00002200  3C06              cmp al,0x6
00002202  0000              add [eax],al
00002204  A8F8              test al,0xf8
00002206  FF                db 0xFF
00002207  FF5C0600          call far [esi+eax+0x0]
0000220B  000DF9FFFF7C      add [0x7cfffff9],cl
00002211  06                push es
00002212  0000              add [eax],al
00002214  7DF9              jnl 0x220f
00002216  FF                db 0xFF
00002217  FF9C060000A4F9    call far [esi+eax+0xf9a40000]
0000221E  FF                db 0xFF
0000221F  FF                db 0xFF
00002220  BC060000BE        mov esp,0xbe000006
00002225  F9                stc
00002226  FF                db 0xFF
00002227  FF                db 0xFF
00002228  DC06              fadd qword [esi]
0000222A  0000              add [eax],al
0000222C  13FA              adc edi,edx
0000222E  FF                db 0xFF
0000222F  FF                db 0xFF
00002230  FC                cld
00002231  06                push es
00002232  0000              add [eax],al
00002234  49                dec ecx
00002235  FA                cli
00002236  FF                db 0xFF
00002237  FF1C07            call far [edi+eax]
0000223A  0000              add [eax],al
0000223C  E7FA              out 0xfa,eax
0000223E  FF                db 0xFF
0000223F  FF                db 0xFF
00002240  3C07              cmp al,0x7
00002242  0000              add [eax],al
00002244  41                inc ecx
00002245  FB                sti
00002246  FF                db 0xFF
00002247  FF5C0700          call far [edi+eax+0x0]
0000224B  0079FB            add [ecx-0x5],bh
0000224E  FF                db 0xFF
0000224F  FF80070000BB      inc dword [eax+0xbb000007]
00002255  FB                sti
00002256  FF                db 0xFF
00002257  FFA0070000D5      jmp near [eax+0xd5000007]
0000225D  FB                sti
0000225E  FF                db 0xFF
0000225F  FFC0              inc eax
00002261  07                pop es
00002262  0000              add [eax],al
00002264  51                push ecx
00002265  FC                cld
00002266  FF                db 0xFF
00002267  FFE0              jmp eax
00002269  07                pop es
0000226A  0000              add [eax],al
0000226C  96                xchg eax,esi
0000226D  FC                cld
0000226E  FF                db 0xFF
0000226F  FF00              inc dword [eax]
00002271  0800              or [eax],al
00002273  00A9FCFFFF20      add [ecx+0x20fffffc],ch
00002279  0800              or [eax],al
0000227B  00ED              add ch,ch
0000227D  FC                cld
0000227E  FF                db 0xFF
0000227F  FF4808            dec dword [eax+0x8]
00002282  0000              add [eax],al
00002284  0FFDFF            paddw mm7,mm7
00002287  FF6808            jmp far [eax+0x8]
0000228A  0000              add [eax],al
0000228C  0BFE              or edi,esi
0000228E  FF                db 0xFF
0000228F  FF8808000013      dec dword [eax+0x13000008]
00002295  FE                db 0xFE
00002296  FF                db 0xFF
00002297  FFA808000026      jmp far [eax+0x26000008]
0000229D  FE                db 0xFE
0000229E  FF                db 0xFF
0000229F  FFC8              dec eax
000022A1  0800              or [eax],al
000022A3  004BFE            add [ebx-0x2],cl
000022A6  FF                db 0xFF
000022A7  FF                db 0xFF
000022A8  E8080000CF        call 0xcf0022b5
000022AD  FE                db 0xFE
000022AE  FF                db 0xFF
000022AF  FF08              dec dword [eax]
000022B1  0900              or [eax],eax
000022B3  001400            add [eax+eax],dl
000022B6  0000              add [eax],al
000022B8  0000              add [eax],al
000022BA  0000              add [eax],al
000022BC  017A52            add [edx+0x52],edi
000022BF  0001              add [ecx],al
000022C1  7C08              jl 0x22cb
000022C3  011B              add [ebx],ebx
000022C5  0C04              or al,0x4
000022C7  0488              add al,0x88
000022C9  0100              add [eax],eax
000022CB  0020              add [eax],ah
000022CD  0000              add [eax],al
000022CF  001C00            add [eax+eax],bl
000022D2  0000              add [eax],al
000022D4  CC                int3
000022D5  E4FF              in al,0xff
000022D7  FF30              push dword [eax]
000022D9  0100              add [eax],eax
000022DB  0000              add [eax],al
000022DD  0E                push cs
000022DE  08460E            or [esi+0xe],al
000022E1  0C4A              or al,0x4a
000022E3  0F0B              ud2
000022E5  7404              jz 0x22eb
000022E7  7800              js 0x22e9
000022E9  3F                aas
000022EA  1A3B              sbb bh,[ebx]
000022EC  2A32              sub dh,[edx]
000022EE  2422              and al,0x22
000022F0  1C00              sbb al,0x0
000022F2  0000              add [eax],al
000022F4  40                inc eax
000022F5  0000              add [eax],al
000022F7  0080F0FFFF18      add [eax+0x18fffff0],al
000022FD  0000              add [eax],al
000022FF  0000              add [eax],al
00002301  41                inc ecx
00002302  0E                push cs
00002303  088502420D05      or [ebp+0x50d4202],al
00002309  54                push esp
0000230A  C50C04            lds ecx,[esp+eax]
0000230D  0400              add al,0x0
0000230F  001C00            add [eax+eax],bl
00002312  0000              add [eax],al
00002314  60                pusha
00002315  0000              add [eax],al
00002317  0078F0            add [eax-0x10],bh
0000231A  FF                db 0xFF
0000231B  FF19              call far [ecx]
0000231D  0000              add [eax],al
0000231F  0000              add [eax],al
00002321  41                inc ecx
00002322  0E                push cs
00002323  088502420D05      or [ebp+0x50d4202],al
00002329  55                push ebp
0000232A  C50C04            lds ecx,[esp+eax]
0000232D  0400              add al,0x0
0000232F  001C00            add [eax+eax],bl
00002332  0000              add [eax],al
00002334  800000            add byte [eax],0x0
00002337  0071F0            add [ecx-0x10],dh
0000233A  FF                db 0xFF
0000233B  FF4000            inc dword [eax+0x0]
0000233E  0000              add [eax],al
00002340  00410E            add [ecx+0xe],al
00002343  088502420D05      or [ebp+0x50d4202],al
00002349  7CC5              jl 0x2310
0000234B  0C04              or al,0x4
0000234D  0400              add al,0x0
0000234F  001C00            add [eax+eax],bl
00002352  0000              add [eax],al
00002354  A000000092        mov al,[0x92000000]
00002359  F0                db 0xF0
0000235A  FF                db 0xFF
0000235B  FF                db 0xFF
0000235C  3D00000000        cmp eax,0x0
00002361  41                inc ecx
00002362  0E                push cs
00002363  088502420D05      or [ebp+0x50d4202],al
00002369  79C5              jns 0x2330
0000236B  0C04              or al,0x4
0000236D  0400              add al,0x0
0000236F  001C00            add [eax+eax],bl
00002372  0000              add [eax],al
00002374  C00000            rol byte [eax],0x0
00002377  00B0F0FFFF08      add [eax+0x8fffff0],dh
0000237D  0000              add [eax],al
0000237F  0000              add [eax],al
00002381  41                inc ecx
00002382  0E                push cs
00002383  088502420D05      or [ebp+0x50d4202],al
00002389  44                inc esp
0000238A  C50C04            lds ecx,[esp+eax]
0000238D  0400              add al,0x0
0000238F  001C00            add [eax+eax],bl
00002392  0000              add [eax],al
00002394  E000              loopne 0x2396
00002396  0000              add [eax],al
00002398  98                cwde
00002399  F0                db 0xF0
0000239A  FF                db 0xFF
0000239B  FF08              dec dword [eax]
0000239D  0000              add [eax],al
0000239F  0000              add [eax],al
000023A1  41                inc ecx
000023A2  0E                push cs
000023A3  088502420D05      or [ebp+0x50d4202],al
000023A9  44                inc esp
000023AA  C50C04            lds ecx,[esp+eax]
000023AD  0400              add al,0x0
000023AF  001C00            add [eax+eax],bl
000023B2  0000              add [eax],al
000023B4  0001              add [ecx],al
000023B6  0000              add [eax],al
000023B8  80F0FF            xor al,0xff
000023BB  FF0B              dec dword [ebx]
000023BD  0000              add [eax],al
000023BF  0000              add [eax],al
000023C1  41                inc ecx
000023C2  0E                push cs
000023C3  088502420D05      or [ebp+0x50d4202],al
000023C9  47                inc edi
000023CA  C50C04            lds ecx,[esp+eax]
000023CD  0400              add al,0x0
000023CF  001C00            add [eax+eax],bl
000023D2  0000              add [eax],al
000023D4  2001              and [ecx],al
000023D6  0000              add [eax],al
000023D8  6C                insb
000023D9  F0                db 0xF0
000023DA  FF                db 0xFF
000023DB  FF0B              dec dword [ebx]
000023DD  0000              add [eax],al
000023DF  0000              add [eax],al
000023E1  41                inc ecx
000023E2  0E                push cs
000023E3  088502420D05      or [ebp+0x50d4202],al
000023E9  47                inc edi
000023EA  C50C04            lds ecx,[esp+eax]
000023ED  0400              add al,0x0
000023EF  002400            add [eax+eax],ah
000023F2  0000              add [eax],al
000023F4  40                inc eax
000023F5  0100              add [eax],eax
000023F7  0058F0            add [eax-0x10],bl
000023FA  FF                db 0xFF
000023FB  FF6700            jmp near [edi+0x0]
000023FE  0000              add [eax],al
00002400  00410E            add [ecx+0xe],al
00002403  088502420D05      or [ebp+0x50d4202],al
00002409  45                inc ebp
0000240A  8603              xchg al,[ebx]
0000240C  8304025C          add dword [edx+eax],byte +0x5c
00002410  C3                ret
00002411  41                inc ecx
00002412  C641C50C          mov byte [ecx-0x3b],0xc
00002416  0404              add al,0x4
00002418  2400              and al,0x0
0000241A  0000              add [eax],al
0000241C  6801000098        push dword 0x98000001
00002421  F0                db 0xF0
00002422  FF                db 0xFF
00002423  FF2A              jmp far [edx]
00002425  0000              add [eax],al
00002427  0000              add [eax],al
00002429  41                inc ecx
0000242A  0E                push cs
0000242B  088502420D05      or [ebp+0x50d4202],al
00002431  42                inc edx
00002432  8603              xchg al,[ebx]
00002434  830460C3          add dword [eax],byte -0x3d
00002438  41                inc ecx
00002439  C641C50C          mov byte [ecx-0x3b],0xc
0000243D  0404              add al,0x4
0000243F  001C00            add [eax+eax],bl
00002442  0000              add [eax],al
00002444  90                nop
00002445  0100              add [eax],eax
00002447  00A8E5FFFF5F      add [eax+0x5fffffe5],ch
0000244D  0000              add [eax],al
0000244F  0000              add [eax],al
00002451  41                inc ecx
00002452  0E                push cs
00002453  088502420D05      or [ebp+0x50d4202],al
00002459  025BC5            add bl,[ebx-0x3b]
0000245C  0C04              or al,0x4
0000245E  0400              add al,0x0
00002460  1C00              sbb al,0x0
00002462  0000              add [eax],al
00002464  B001              mov al,0x1
00002466  0000              add [eax],al
00002468  E7E5              out 0xe5,eax
0000246A  FF                db 0xFF
0000246B  FF8C0000000041    dec dword [eax+eax+0x41000000]
00002472  0E                push cs
00002473  088502420D05      or [ebp+0x50d4202],al
00002479  0288C50C0404      add cl,[eax+0x4040cc5]
0000247F  001C00            add [eax+eax],bl
00002482  0000              add [eax],al
00002484  0000              add [eax],al
00002486  0000              add [eax],al
00002488  017A50            add [edx+0x50],edi
0000248B  4C                dec esp
0000248C  52                push edx
0000248D  0001              add [ecx],al
0000248F  7C08              jl 0x2499
00002491  07                pop es
00002492  00B088040800      add [eax+0x80488],dh
00002498  1B0C04            sbb ecx,[esp+eax]
0000249B  0488              add al,0x88
0000249D  0100              add [eax],eax
0000249F  0020              add [eax],ah
000024A1  0000              add [eax],al
000024A3  002400            add [eax+eax],ah
000024A6  0000              add [eax],al
000024A8  33E6              xor esp,esi
000024AA  FF                db 0xFF
000024AB  FF                db 0xFF
000024AC  D903              fld dword [ebx]
000024AE  0000              add [eax],al
000024B0  045C              add al,0x5c
000024B2  AA                stosb
000024B3  0408              add al,0x8
000024B5  41                inc ecx
000024B6  0E                push cs
000024B7  088502420D05      or [ebp+0x50d4202],al
000024BD  03D5              add edx,ebp
000024BF  03C5              add eax,ebp
000024C1  0C04              or al,0x4
000024C3  0428              add al,0x28
000024C5  0000              add [eax],al
000024C7  001402            add [edx+eax],dl
000024CA  0000              add [eax],al
000024CC  E8E9FFFF54        call 0x550024ba
000024D1  0100              add [eax],eax
000024D3  0000              add [eax],al
000024D5  41                inc ecx
000024D6  0E                push cs
000024D7  088502420D05      or [ebp+0x50d4202],al
000024DD  45                inc ebp
000024DE  8603              xchg al,[ebx]
000024E0  83040349          add dword [ebx+eax],byte +0x49
000024E4  01C3              add ebx,eax
000024E6  41                inc ecx
000024E7  C641C50C          mov byte [ecx-0x3b],0xc
000024EB  0404              add al,0x4
000024ED  0000              add [eax],al
000024EF  0028              add [eax],ch
000024F1  0000              add [eax],al
000024F3  004002            add [eax+0x2],al
000024F6  0000              add [eax],al
000024F8  10EB              adc bl,ch
000024FA  FF                db 0xFF
000024FB  FF9302000000      call near [ebx+0x2]
00002501  41                inc ecx
00002502  0E                push cs
00002503  088502420D05      or [ebp+0x50d4202],al
00002509  48                dec eax
0000250A  8603              xchg al,[ebx]
0000250C  83040385          add dword [ebx+eax],byte -0x7b
00002510  02C3              add al,bl
00002512  41                inc ecx
00002513  C641C50C          mov byte [ecx-0x3b],0xc
00002517  0404              add al,0x4
00002519  0000              add [eax],al
0000251B  0020              add [eax],ah
0000251D  0000              add [eax],al
0000251F  006C0200          add [edx+eax+0x0],ch
00002523  00BEEFFFFF41      add [esi+0x41ffffef],bh
00002529  0000              add [eax],al
0000252B  0000              add [eax],al
0000252D  41                inc ecx
0000252E  0E                push cs
0000252F  088502420D05      or [ebp+0x50d4202],al
00002535  44                inc esp
00002536  830376            add dword [ebx],byte +0x76
00002539  C3                ret
0000253A  41                inc ecx
0000253B  C50C04            lds ecx,[esp+eax]
0000253E  0400              add al,0x0
00002540  2000              and [eax],al
00002542  0000              add [eax],al
00002544  90                nop
00002545  0200              add al,[eax]
00002547  00DB              add bl,bl
00002549  EF                out dx,eax
0000254A  FF                db 0xFF
0000254B  FF4100            inc dword [ecx+0x0]
0000254E  0000              add [eax],al
00002550  00410E            add [ecx+0xe],al
00002553  088502420D05      or [ebp+0x50d4202],al
00002559  44                inc esp
0000255A  830379            add dword [ebx],byte +0x79
0000255D  C5                db 0xC5
0000255E  C3                ret
0000255F  0C04              or al,0x4
00002561  0400              add al,0x0
00002563  0020              add [eax],ah
00002565  0000              add [eax],al
00002567  00B4020000F8EF    add [edx+eax+0xeff80000],dh
0000256E  FF                db 0xFF
0000256F  FF4100            inc dword [ecx+0x0]
00002572  0000              add [eax],al
00002574  00410E            add [ecx+0xe],al
00002577  088502420D05      or [ebp+0x50d4202],al
0000257D  44                inc esp
0000257E  830376            add dword [ebx],byte +0x76
00002581  C3                ret
00002582  41                inc ecx
00002583  C50C04            lds ecx,[esp+eax]
00002586  0400              add al,0x0
00002588  2000              and [eax],al
0000258A  0000              add [eax],al
0000258C  D802              fadd dword [edx]
0000258E  0000              add [eax],al
00002590  15F0FFFF4A        adc eax,0x4afffff0
00002595  0000              add [eax],al
00002597  0000              add [eax],al
00002599  41                inc ecx
0000259A  0E                push cs
0000259B  088502420D05      or [ebp+0x50d4202],al
000025A1  44                inc esp
000025A2  83037F            add dword [ebx],byte +0x7f
000025A5  C3                ret
000025A6  41                inc ecx
000025A7  C50C04            lds ecx,[esp+eax]
000025AA  0400              add al,0x0
000025AC  2000              and [eax],al
000025AE  0000              add [eax],al
000025B0  FC                cld
000025B1  0200              add al,[eax]
000025B3  003B              add [ebx],bh
000025B5  F0                db 0xF0
000025B6  FF                db 0xFF
000025B7  FF4100            inc dword [ecx+0x0]
000025BA  0000              add [eax],al
000025BC  00410E            add [ecx+0xe],al
000025BF  088502420D05      or [ebp+0x50d4202],al
000025C5  44                inc esp
000025C6  830376            add dword [ebx],byte +0x76
000025C9  C3                ret
000025CA  41                inc ecx
000025CB  C50C04            lds ecx,[esp+eax]
000025CE  0400              add al,0x0
000025D0  1C00              sbb al,0x0
000025D2  0000              add [eax],al
000025D4  2003              and [ebx],al
000025D6  0000              add [eax],al
000025D8  58                pop eax
000025D9  F0                db 0xF0
000025DA  FF                db 0xFF
000025DB  FF3400            push dword [eax+eax]
000025DE  0000              add [eax],al
000025E0  00410E            add [ecx+0xe],al
000025E3  088502420D05      or [ebp+0x50d4202],al
000025E9  70C5              jo 0x25b0
000025EB  0C04              or al,0x4
000025ED  0400              add al,0x0
000025EF  001C00            add [eax+eax],bl
000025F2  0000              add [eax],al
000025F4  40                inc eax
000025F5  0300              add eax,[eax]
000025F7  006CF0FF          add [eax+esi*8-0x1],ch
000025FB  FF4F00            dec dword [edi+0x0]
000025FE  0000              add [eax],al
00002600  00410E            add [ecx+0xe],al
00002603  088502420D05      or [ebp+0x50d4202],al
00002609  024BC5            add cl,[ebx-0x3b]
0000260C  0C04              or al,0x4
0000260E  0400              add al,0x0
00002610  2400              and al,0x0
00002612  0000              add [eax],al
00002614  94                xchg eax,esp
00002615  0100              add [eax],eax
00002617  009BF0FFFF41      add [ebx+0x41fffff0],bl
0000261D  0000              add [eax],al
0000261F  000483            add [ebx+eax*4],al
00002622  AA                stosb
00002623  0408              add al,0x8
00002625  41                inc ecx
00002626  0E                push cs
00002627  088502420D05      or [ebp+0x50d4202],al
0000262D  44                inc esp
0000262E  830379            add dword [ebx],byte +0x79
00002631  C5                db 0xC5
00002632  C3                ret
00002633  0C04              or al,0x4
00002635  0400              add al,0x0
00002637  001C00            add [eax+eax],bl
0000263A  0000              add [eax],al
0000263C  8803              mov [ebx],al
0000263E  0000              add [eax],al
00002640  B4F0              mov ah,0xf0
00002642  FF                db 0xFF
00002643  FF                db 0xFF
00002644  3F                aas
00002645  0000              add [eax],al
00002647  0000              add [eax],al
00002649  41                inc ecx
0000264A  0E                push cs
0000264B  088502420D05      or [ebp+0x50d4202],al
00002651  7BC5              jpo 0x2618
00002653  0C04              or al,0x4
00002655  0400              add al,0x0
00002657  001C00            add [eax+eax],bl
0000265A  0000              add [eax],al
0000265C  A803              test al,0x3
0000265E  0000              add [eax],al
00002660  D4F0              aam 0xf0
00002662  FF                db 0xFF
00002663  FF                db 0xFF
00002664  3F                aas
00002665  0000              add [eax],al
00002667  0000              add [eax],al
00002669  41                inc ecx
0000266A  0E                push cs
0000266B  088502420D05      or [ebp+0x50d4202],al
00002671  7BC5              jpo 0x2638
00002673  0C04              or al,0x4
00002675  0400              add al,0x0
00002677  0028              add [eax],ch
00002679  0000              add [eax],al
0000267B  00C8              add al,cl
0000267D  0300              add eax,[eax]
0000267F  00F4              add ah,dh
00002681  F0                db 0xF0
00002682  FF                db 0xFF
00002683  FF                db 0xFF
00002684  DE00              fiadd word [eax]
00002686  0000              add [eax],al
00002688  00410E            add [ecx+0xe],al
0000268B  088502420D05      or [ebp+0x50d4202],al
00002691  46                inc esi
00002692  8703              xchg eax,[ebx]
00002694  860483            xchg al,[ebx+eax*4]
00002697  0502D1C341        add eax,0x41c3d102
0000269C  C641C741          mov byte [ecx-0x39],0x41
000026A0  C50C04            lds ecx,[esp+eax]
000026A3  041C              add al,0x1c
000026A5  0000              add [eax],al
000026A7  00F4              add ah,dh
000026A9  0300              add eax,[eax]
000026AB  00A6F1FFFF71      add [esi+0x71fffff1],ah
000026B1  0000              add [eax],al
000026B3  0000              add [eax],al
000026B5  41                inc ecx
000026B6  0E                push cs
000026B7  088502420D05      or [ebp+0x50d4202],al
000026BD  026DC5            add ch,[ebp-0x3b]
000026C0  0C04              or al,0x4
000026C2  0400              add al,0x0
000026C4  1C00              sbb al,0x0
000026C6  0000              add [eax],al
000026C8  1404              adc al,0x4
000026CA  0000              add [eax],al
000026CC  F7F1              div ecx
000026CE  FF                db 0xFF
000026CF  FF5500            call near [ebp+0x0]
000026D2  0000              add [eax],al
000026D4  00410E            add [ecx+0xe],al
000026D7  088502420D05      or [ebp+0x50d4202],al
000026DD  0251C5            add dl,[ecx-0x3b]
000026E0  0C04              or al,0x4
000026E2  0400              add al,0x0
000026E4  1C00              sbb al,0x0
000026E6  0000              add [eax],al
000026E8  3404              xor al,0x4
000026EA  0000              add [eax],al
000026EC  2CF2              sub al,0xf2
000026EE  FF                db 0xFF
000026EF  FF0B              dec dword [ebx]
000026F1  0000              add [eax],al
000026F3  0000              add [eax],al
000026F5  41                inc ecx
000026F6  0E                push cs
000026F7  088502420D05      or [ebp+0x50d4202],al
000026FD  45                inc ebp
000026FE  C50C04            lds ecx,[esp+eax]
00002701  0400              add al,0x0
00002703  001C00            add [eax+eax],bl
00002706  0000              add [eax],al
00002708  54                push esp
00002709  0400              add al,0x0
0000270B  0017              add [edi],dl
0000270D  F2                db 0xF2
0000270E  FF                db 0xFF
0000270F  FF                db 0xFF
00002710  3A00              cmp al,[eax]
00002712  0000              add [eax],al
00002714  00410E            add [ecx+0xe],al
00002717  088502420D05      or [ebp+0x50d4202],al
0000271D  76C5              jna 0x26e4
0000271F  0C04              or al,0x4
00002721  0400              add al,0x0
00002723  001C00            add [eax+eax],bl
00002726  0000              add [eax],al
00002728  7404              jz 0x272e
0000272A  0000              add [eax],al
0000272C  31F2              xor edx,esi
0000272E  FF                db 0xFF
0000272F  FF33              push dword [ebx]
00002731  0000              add [eax],al
00002733  0000              add [eax],al
00002735  41                inc ecx
00002736  0E                push cs
00002737  088502420D05      or [ebp+0x50d4202],al
0000273D  6F                outsd
0000273E  C50C04            lds ecx,[esp+eax]
00002741  0400              add al,0x0
00002743  001C00            add [eax+eax],bl
00002746  0000              add [eax],al
00002748  94                xchg eax,esp
00002749  0400              add al,0x0
0000274B  0044F2FF          add [edx+esi*8-0x1],al
0000274F  FF6500            jmp near [ebp+0x0]
00002752  0000              add [eax],al
00002754  00410E            add [ecx+0xe],al
00002757  088502420D05      or [ebp+0x50d4202],al
0000275D  0261C5            add ah,[ecx-0x3b]
00002760  0C04              or al,0x4
00002762  0400              add al,0x0
00002764  1C00              sbb al,0x0
00002766  0000              add [eax],al
00002768  B404              mov ah,0x4
0000276A  0000              add [eax],al
0000276C  89F2              mov edx,esi
0000276E  FF                db 0xFF
0000276F  FF7000            push dword [eax+0x0]
00002772  0000              add [eax],al
00002774  00410E            add [ecx+0xe],al
00002777  088502420D05      or [ebp+0x50d4202],al
0000277D  026CC50C          add ch,[ebp+eax*8+0xc]
00002781  0404              add al,0x4
00002783  001C00            add [eax+eax],bl
00002786  0000              add [eax],al
00002788  D404              aam 0x4
0000278A  0000              add [eax],al
0000278C  D9F2              fptan
0000278E  FF                db 0xFF
0000278F  FF27              jmp near [edi]
00002791  0000              add [eax],al
00002793  0000              add [eax],al
00002795  41                inc ecx
00002796  0E                push cs
00002797  088502420D05      or [ebp+0x50d4202],al
0000279D  63C5              arpl bp,ax
0000279F  0C04              or al,0x4
000027A1  0400              add al,0x0
000027A3  001C00            add [eax+eax],bl
000027A6  0000              add [eax],al
000027A8  F4                hlt
000027A9  0400              add al,0x0
000027AB  00E0              add al,ah
000027AD  F2                db 0xF2
000027AE  FF                db 0xFF
000027AF  FF1A              call far [edx]
000027B1  0000              add [eax],al
000027B3  0000              add [eax],al
000027B5  41                inc ecx
000027B6  0E                push cs
000027B7  088502420D05      or [ebp+0x50d4202],al
000027BD  56                push esi
000027BE  C50C04            lds ecx,[esp+eax]
000027C1  0400              add al,0x0
000027C3  001C00            add [eax+eax],bl
000027C6  0000              add [eax],al
000027C8  1405              adc al,0x5
000027CA  0000              add [eax],al
000027CC  DA                db 0xDA
000027CD  F2                db 0xF2
000027CE  FF                db 0xFF
000027CF  FF5500            call near [ebp+0x0]
000027D2  0000              add [eax],al
000027D4  00410E            add [ecx+0xe],al
000027D7  088502420D05      or [ebp+0x50d4202],al
000027DD  0251C5            add dl,[ecx-0x3b]
000027E0  0C04              or al,0x4
000027E2  0400              add al,0x0
000027E4  1C00              sbb al,0x0
000027E6  0000              add [eax],al
000027E8  3405              xor al,0x5
000027EA  0000              add [eax],al
000027EC  0FF3FF            psllq mm7,mm7
000027EF  FF36              push dword [esi]
000027F1  0000              add [eax],al
000027F3  0000              add [eax],al
000027F5  41                inc ecx
000027F6  0E                push cs
000027F7  088502420D05      or [ebp+0x50d4202],al
000027FD  72C5              jc 0x27c4
000027FF  0C04              or al,0x4
00002801  0400              add al,0x0
00002803  001C00            add [eax+eax],bl
00002806  0000              add [eax],al
00002808  54                push esp
00002809  05000025F3        add eax,0xf3250000
0000280E  FF                db 0xFF
0000280F  FF9E00000000      call far [esi+0x0]
00002815  41                inc ecx
00002816  0E                push cs
00002817  088502420D05      or [ebp+0x50d4202],al
0000281D  029AC50C0404      add bl,[edx+0x4040cc5]
00002823  001C00            add [eax+eax],bl
00002826  0000              add [eax],al
00002828  7405              jz 0x282f
0000282A  0000              add [eax],al
0000282C  A3F3FFFF5A        mov [0x5afffff3],eax
00002831  0000              add [eax],al
00002833  0000              add [eax],al
00002835  41                inc ecx
00002836  0E                push cs
00002837  088502420D05      or [ebp+0x50d4202],al
0000283D  0256C5            add dl,[esi-0x3b]
00002840  0C04              or al,0x4
00002842  0400              add al,0x0
00002844  2000              and [eax],al
00002846  0000              add [eax],al
00002848  94                xchg eax,esp
00002849  050000DDF3        add eax,0xf3dd0000
0000284E  FF                db 0xFF
0000284F  FF                db 0xFF
00002850  3800              cmp [eax],al
00002852  0000              add [eax],al
00002854  00410E            add [ecx+0xe],al
00002857  088502420D05      or [ebp+0x50d4202],al
0000285D  44                inc esp
0000285E  83036F            add dword [ebx],byte +0x6f
00002861  C3                ret
00002862  41                inc ecx
00002863  C50C04            lds ecx,[esp+eax]
00002866  0400              add al,0x0
00002868  1C00              sbb al,0x0
0000286A  0000              add [eax],al
0000286C  B8050000F1        mov eax,0xf1000005
00002871  F3                db 0xF3
00002872  FF                db 0xFF
00002873  FF4200            inc dword [edx+0x0]
00002876  0000              add [eax],al
00002878  00410E            add [ecx+0xe],al
0000287B  088502420D05      or [ebp+0x50d4202],al
00002881  7EC5              jng 0x2848
00002883  0C04              or al,0x4
00002885  0400              add al,0x0
00002887  001C00            add [eax+eax],bl
0000288A  0000              add [eax],al
0000288C  D805000013F4      fadd dword [0xf4130000]
00002892  FF                db 0xFF
00002893  FF1A              call far [edx]
00002895  0000              add [eax],al
00002897  0000              add [eax],al
00002899  41                inc ecx
0000289A  0E                push cs
0000289B  088502420D05      or [ebp+0x50d4202],al
000028A1  56                push esi
000028A2  C50C04            lds ecx,[esp+eax]
000028A5  0400              add al,0x0
000028A7  001C00            add [eax+eax],bl
000028AA  0000              add [eax],al
000028AC  F8                clc
000028AD  0500000DF4        add eax,0xf40d0000
000028B2  FF                db 0xFF
000028B3  FF                db 0xFF
000028B4  7C00              jl 0x28b6
000028B6  0000              add [eax],al
000028B8  00410E            add [ecx+0xe],al
000028BB  088502420D05      or [ebp+0x50d4202],al
000028C1  0278C5            add bh,[eax-0x3b]
000028C4  0C04              or al,0x4
000028C6  0400              add al,0x0
000028C8  1C00              sbb al,0x0
000028CA  0000              add [eax],al
000028CC  1806              sbb [esi],al
000028CE  0000              add [eax],al
000028D0  69F4FFFF4500      imul esi,esp,dword 0x45ffff
000028D6  0000              add [eax],al
000028D8  00410E            add [ecx+0xe],al
000028DB  088502420D05      or [ebp+0x50d4202],al
000028E1  0241C5            add al,[ecx-0x3b]
000028E4  0C04              or al,0x4
000028E6  0400              add al,0x0
000028E8  1C00              sbb al,0x0
000028EA  0000              add [eax],al
000028EC  3806              cmp [esi],al
000028EE  0000              add [eax],al
000028F0  8EF4              mov segr6,sp
000028F2  FF                db 0xFF
000028F3  FF13              call near [ebx]
000028F5  0000              add [eax],al
000028F7  0000              add [eax],al
000028F9  41                inc ecx
000028FA  0E                push cs
000028FB  088502420D05      or [ebp+0x50d4202],al
00002901  4F                dec edi
00002902  C50C04            lds ecx,[esp+eax]
00002905  0400              add al,0x0
00002907  002400            add [eax+eax],ah
0000290A  0000              add [eax],al
0000290C  58                pop eax
0000290D  06                push es
0000290E  0000              add [eax],al
00002910  81F4FFFF4400      xor esp,0x44ffff
00002916  0000              add [eax],al
00002918  00410E            add [ecx+0xe],al
0000291B  088502420D05      or [ebp+0x50d4202],al
00002921  45                inc ebp
00002922  8603              xchg al,[ebx]
00002924  830479C3          add dword [ecx+edi*2],byte -0x3d
00002928  41                inc ecx
00002929  C641C50C          mov byte [ecx-0x3b],0xc
0000292D  0404              add al,0x4
0000292F  001C00            add [eax+eax],bl
00002932  0000              add [eax],al
00002934  800600            add byte [esi],0x0
00002937  009DF4FFFF22      add [ebp+0x22fffff4],bl
0000293D  0000              add [eax],al
0000293F  0000              add [eax],al
00002941  41                inc ecx
00002942  0E                push cs
00002943  088502420D05      or [ebp+0x50d4202],al
00002949  5E                pop esi
0000294A  C50C04            lds ecx,[esp+eax]
0000294D  0400              add al,0x0
0000294F  001C00            add [eax+eax],bl
00002952  0000              add [eax],al
00002954  A00600009F        mov al,[0x9f000006]
00002959  F4                hlt
0000295A  FF                db 0xFF
0000295B  FF                db 0xFF
0000295C  FC                cld
0000295D  0000              add [eax],al
0000295F  0000              add [eax],al
00002961  41                inc ecx
00002962  0E                push cs
00002963  088502420D05      or [ebp+0x50d4202],al
00002969  02F8              add bh,al
0000296B  C50C04            lds ecx,[esp+eax]
0000296E  0400              add al,0x0
00002970  1C00              sbb al,0x0
00002972  0000              add [eax],al
00002974  C00600            rol byte [esi],0x0
00002977  007BF5            add [ebx-0xb],bh
0000297A  FF                db 0xFF
0000297B  FF08              dec dword [eax]
0000297D  0000              add [eax],al
0000297F  0000              add [eax],al
00002981  41                inc ecx
00002982  0E                push cs
00002983  088502420D05      or [ebp+0x50d4202],al
00002989  44                inc esp
0000298A  C50C04            lds ecx,[esp+eax]
0000298D  0400              add al,0x0
0000298F  001C00            add [eax+eax],bl
00002992  0000              add [eax],al
00002994  E006              loopne 0x299c
00002996  0000              add [eax],al
00002998  63F5              arpl bp,si
0000299A  FF                db 0xFF
0000299B  FF13              call near [ebx]
0000299D  0000              add [eax],al
0000299F  0000              add [eax],al
000029A1  41                inc ecx
000029A2  0E                push cs
000029A3  088502420D05      or [ebp+0x50d4202],al
000029A9  4F                dec edi
000029AA  C50C04            lds ecx,[esp+eax]
000029AD  0400              add al,0x0
000029AF  001C00            add [eax+eax],bl
000029B2  0000              add [eax],al
000029B4  0007              add [edi],al
000029B6  0000              add [eax],al
000029B8  56                push esi
000029B9  F5                cmc
000029BA  FF                db 0xFF
000029BB  FF2500000000      jmp near [0x0]
000029C1  41                inc ecx
000029C2  0E                push cs
000029C3  088502420D05      or [ebp+0x50d4202],al
000029C9  61                popa
000029CA  C50C04            lds ecx,[esp+eax]
000029CD  0400              add al,0x0
000029CF  001C00            add [eax+eax],bl
000029D2  0000              add [eax],al
000029D4  2007              and [edi],al
000029D6  0000              add [eax],al
000029D8  5B                pop ebx
000029D9  F5                cmc
000029DA  FF                db 0xFF
000029DB  FF840000000041    inc dword [eax+eax+0x41000000]
000029E2  0E                push cs
000029E3  088502420D05      or [ebp+0x50d4202],al
000029E9  0280C50C0404      add al,[eax+0x4040cc5]
000029EF  001C00            add [eax+eax],bl
000029F2  0000              add [eax],al
000029F4  40                inc eax
000029F5  07                pop es
000029F6  0000              add [eax],al
000029F8  BFF5FFFF55        mov edi,0x55fffff5
000029FD  0000              add [eax],al
000029FF  0000              add [eax],al
00002A01  41                inc ecx
00002A02  0E                push cs
00002A03  088502420D05      or [ebp+0x50d4202],al
00002A09  0251C5            add dl,[ecx-0x3b]
00002A0C  0C04              or al,0x4
00002A0E  0400              add al,0x0
00002A10  2400              and al,0x0
00002A12  0000              add [eax],al
00002A14  60                pusha
00002A15  07                pop es
00002A16  0000              add [eax],al
00002A18  83E8FF            sub eax,byte -0x1
00002A1B  FFC1              inc ecx
00002A1D  0000              add [eax],al
00002A1F  0000              add [eax],al
00002A21  41                inc ecx
00002A22  0E                push cs
00002A23  088502420D05      or [ebp+0x50d4202],al
00002A29  45                inc ebp
00002A2A  8603              xchg al,[ebx]
00002A2C  830402B6          add dword [edx+eax],byte -0x4a
00002A30  C3                ret
00002A31  41                inc ecx
00002A32  C641C50C          mov byte [ecx-0x3b],0xc
00002A36  0404              add al,0x4
00002A38  1C00              sbb al,0x0
00002A3A  0000              add [eax],al
00002A3C  8807              mov [edi],al
00002A3E  0000              add [eax],al
00002A40  1CE9              sbb al,0xe9
00002A42  FF                db 0xFF
00002A43  FF1C00            call far [eax+eax]
00002A46  0000              add [eax],al
00002A48  00410E            add [ecx+0xe],al
00002A4B  088502420D05      or [ebp+0x50d4202],al
00002A51  58                pop eax
00002A52  C50C04            lds ecx,[esp+eax]
00002A55  0400              add al,0x0
00002A57  0000              add [eax],al
00002A59  0000              add [eax],al
00002A5B  00FF              add bh,bh
00002A5D  FF01              inc dword [ecx]
00002A5F  233F              and edi,[edi]
00002A61  05C70700BB        add eax,0xbb0007c7
00002A66  0105CB0700DA      add [0xda0007cb],eax
00002A6C  0105C90700AF      add [0xaf0007c9],eax
00002A72  0305CD0700E7      add eax,[0xe70007cd]
00002A78  0497              add al,0x97
00002A7A  01CF              add edi,ecx
00002A7C  07                pop es
00002A7D  00D2              add dl,dl
00002A7F  07                pop es
00002A80  050000FFFF        add eax,0xffff0000
00002A85  0108              add [eax],ecx
00002A87  2D05340037        sub eax,0x37003405
00002A8C  0500000000        add eax,0x0
00002A91  0000              add [eax],al
00002A93  0000              add [eax],al
00002A95  0000              add [eax],al
00002A97  0000              add [eax],al
00002A99  0000              add [eax],al
00002A9B  0000              add [eax],al
00002A9D  0000              add [eax],al
00002A9F  0000              add [eax],al
00002AA1  0000              add [eax],al
00002AA3  0000              add [eax],al
00002AA5  0000              add [eax],al
00002AA7  0000              add [eax],al
00002AA9  0000              add [eax],al
00002AAB  0000              add [eax],al
00002AAD  0000              add [eax],al
00002AAF  0000              add [eax],al
00002AB1  0000              add [eax],al
00002AB3  0000              add [eax],al
00002AB5  0000              add [eax],al
00002AB7  0000              add [eax],al
00002AB9  0000              add [eax],al
00002ABB  0000              add [eax],al
00002ABD  0000              add [eax],al
00002ABF  0000              add [eax],al
00002AC1  0000              add [eax],al
00002AC3  0000              add [eax],al
00002AC5  0000              add [eax],al
00002AC7  0000              add [eax],al
00002AC9  0000              add [eax],al
00002ACB  0000              add [eax],al
00002ACD  0000              add [eax],al
00002ACF  0000              add [eax],al
00002AD1  0000              add [eax],al
00002AD3  0000              add [eax],al
00002AD5  0000              add [eax],al
00002AD7  0000              add [eax],al
00002AD9  0000              add [eax],al
00002ADB  0000              add [eax],al
00002ADD  0000              add [eax],al
00002ADF  0000              add [eax],al
00002AE1  0000              add [eax],al
00002AE3  0000              add [eax],al
00002AE5  0000              add [eax],al
00002AE7  0000              add [eax],al
00002AE9  0000              add [eax],al
00002AEB  0000              add [eax],al
00002AED  0000              add [eax],al
00002AEF  0000              add [eax],al
00002AF1  0000              add [eax],al
00002AF3  0000              add [eax],al
00002AF5  0000              add [eax],al
00002AF7  0000              add [eax],al
00002AF9  0000              add [eax],al
00002AFB  0000              add [eax],al
00002AFD  0000              add [eax],al
00002AFF  0000              add [eax],al
00002B01  0000              add [eax],al
00002B03  0000              add [eax],al
00002B05  0000              add [eax],al
00002B07  0000              add [eax],al
00002B09  0000              add [eax],al
00002B0B  0000              add [eax],al
00002B0D  0000              add [eax],al
00002B0F  0000              add [eax],al
00002B11  0000              add [eax],al
00002B13  0000              add [eax],al
00002B15  0000              add [eax],al
00002B17  0000              add [eax],al
00002B19  0000              add [eax],al
00002B1B  0000              add [eax],al
00002B1D  0000              add [eax],al
00002B1F  0000              add [eax],al
00002B21  0000              add [eax],al
00002B23  0000              add [eax],al
00002B25  0000              add [eax],al
00002B27  0000              add [eax],al
00002B29  0000              add [eax],al
00002B2B  0000              add [eax],al
00002B2D  0000              add [eax],al
00002B2F  0000              add [eax],al
00002B31  0000              add [eax],al
00002B33  0000              add [eax],al
00002B35  0000              add [eax],al
00002B37  0000              add [eax],al
00002B39  0000              add [eax],al
00002B3B  0000              add [eax],al
00002B3D  0000              add [eax],al
00002B3F  0000              add [eax],al
00002B41  0000              add [eax],al
00002B43  0000              add [eax],al
00002B45  0000              add [eax],al
00002B47  0000              add [eax],al
00002B49  0000              add [eax],al
00002B4B  0000              add [eax],al
00002B4D  0000              add [eax],al
00002B4F  0000              add [eax],al
00002B51  0000              add [eax],al
00002B53  0000              add [eax],al
00002B55  0000              add [eax],al
00002B57  0000              add [eax],al
00002B59  0000              add [eax],al
00002B5B  0000              add [eax],al
00002B5D  0000              add [eax],al
00002B5F  0000              add [eax],al
00002B61  0000              add [eax],al
00002B63  0000              add [eax],al
00002B65  0000              add [eax],al
00002B67  0000              add [eax],al
00002B69  0000              add [eax],al
00002B6B  0000              add [eax],al
00002B6D  0000              add [eax],al
00002B6F  0000              add [eax],al
00002B71  0000              add [eax],al
00002B73  0000              add [eax],al
00002B75  0000              add [eax],al
00002B77  0000              add [eax],al
00002B79  0000              add [eax],al
00002B7B  0000              add [eax],al
00002B7D  0000              add [eax],al
00002B7F  0000              add [eax],al
00002B81  0000              add [eax],al
00002B83  0000              add [eax],al
00002B85  0000              add [eax],al
00002B87  0000              add [eax],al
00002B89  0000              add [eax],al
00002B8B  0000              add [eax],al
00002B8D  0000              add [eax],al
00002B8F  0000              add [eax],al
00002B91  0000              add [eax],al
00002B93  0000              add [eax],al
00002B95  0000              add [eax],al
00002B97  0000              add [eax],al
00002B99  0000              add [eax],al
00002B9B  0000              add [eax],al
00002B9D  0000              add [eax],al
00002B9F  0000              add [eax],al
00002BA1  0000              add [eax],al
00002BA3  0000              add [eax],al
00002BA5  0000              add [eax],al
00002BA7  0000              add [eax],al
00002BA9  0000              add [eax],al
00002BAB  0000              add [eax],al
00002BAD  0000              add [eax],al
00002BAF  0000              add [eax],al
00002BB1  0000              add [eax],al
00002BB3  0000              add [eax],al
00002BB5  0000              add [eax],al
00002BB7  0000              add [eax],al
00002BB9  0000              add [eax],al
00002BBB  0000              add [eax],al
00002BBD  0000              add [eax],al
00002BBF  0000              add [eax],al
00002BC1  0000              add [eax],al
00002BC3  0000              add [eax],al
00002BC5  0000              add [eax],al
00002BC7  0000              add [eax],al
00002BC9  0000              add [eax],al
00002BCB  0000              add [eax],al
00002BCD  0000              add [eax],al
00002BCF  0000              add [eax],al
00002BD1  0000              add [eax],al
00002BD3  0000              add [eax],al
00002BD5  0000              add [eax],al
00002BD7  0000              add [eax],al
00002BD9  0000              add [eax],al
00002BDB  0000              add [eax],al
00002BDD  0000              add [eax],al
00002BDF  0000              add [eax],al
00002BE1  0000              add [eax],al
00002BE3  0000              add [eax],al
00002BE5  0000              add [eax],al
00002BE7  0000              add [eax],al
00002BE9  0000              add [eax],al
00002BEB  0000              add [eax],al
00002BED  0000              add [eax],al
00002BEF  0000              add [eax],al
00002BF1  0000              add [eax],al
00002BF3  0000              add [eax],al
00002BF5  0000              add [eax],al
00002BF7  0000              add [eax],al
00002BF9  0000              add [eax],al
00002BFB  0000              add [eax],al
00002BFD  0000              add [eax],al
00002BFF  0000              add [eax],al
00002C01  0000              add [eax],al
00002C03  0000              add [eax],al
00002C05  0000              add [eax],al
00002C07  0000              add [eax],al
00002C09  0000              add [eax],al
00002C0B  0000              add [eax],al
00002C0D  0000              add [eax],al
00002C0F  0000              add [eax],al
00002C11  0000              add [eax],al
00002C13  0000              add [eax],al
00002C15  0000              add [eax],al
00002C17  0000              add [eax],al
00002C19  0000              add [eax],al
00002C1B  0000              add [eax],al
00002C1D  0000              add [eax],al
00002C1F  0000              add [eax],al
00002C21  0000              add [eax],al
00002C23  0000              add [eax],al
00002C25  0000              add [eax],al
00002C27  0000              add [eax],al
00002C29  0000              add [eax],al
00002C2B  0000              add [eax],al
00002C2D  0000              add [eax],al
00002C2F  0000              add [eax],al
00002C31  0000              add [eax],al
00002C33  0000              add [eax],al
00002C35  0000              add [eax],al
00002C37  0000              add [eax],al
00002C39  0000              add [eax],al
00002C3B  0000              add [eax],al
00002C3D  0000              add [eax],al
00002C3F  0000              add [eax],al
00002C41  0000              add [eax],al
00002C43  0000              add [eax],al
00002C45  0000              add [eax],al
00002C47  0000              add [eax],al
00002C49  0000              add [eax],al
00002C4B  0000              add [eax],al
00002C4D  0000              add [eax],al
00002C4F  0000              add [eax],al
00002C51  0000              add [eax],al
00002C53  0000              add [eax],al
00002C55  0000              add [eax],al
00002C57  0000              add [eax],al
00002C59  0000              add [eax],al
00002C5B  0000              add [eax],al
00002C5D  0000              add [eax],al
00002C5F  0000              add [eax],al
00002C61  0000              add [eax],al
00002C63  0000              add [eax],al
00002C65  0000              add [eax],al
00002C67  0000              add [eax],al
00002C69  0000              add [eax],al
00002C6B  0000              add [eax],al
00002C6D  0000              add [eax],al
00002C6F  0000              add [eax],al
00002C71  0000              add [eax],al
00002C73  0000              add [eax],al
00002C75  0000              add [eax],al
00002C77  0000              add [eax],al
00002C79  0000              add [eax],al
00002C7B  0000              add [eax],al
00002C7D  0000              add [eax],al
00002C7F  0000              add [eax],al
00002C81  0000              add [eax],al
00002C83  0000              add [eax],al
00002C85  0000              add [eax],al
00002C87  0000              add [eax],al
00002C89  0000              add [eax],al
00002C8B  0000              add [eax],al
00002C8D  0000              add [eax],al
00002C8F  0000              add [eax],al
00002C91  0000              add [eax],al
00002C93  0000              add [eax],al
00002C95  0000              add [eax],al
00002C97  0000              add [eax],al
00002C99  0000              add [eax],al
00002C9B  0000              add [eax],al
00002C9D  0000              add [eax],al
00002C9F  0000              add [eax],al
00002CA1  0000              add [eax],al
00002CA3  0000              add [eax],al
00002CA5  0000              add [eax],al
00002CA7  0000              add [eax],al
00002CA9  0000              add [eax],al
00002CAB  0000              add [eax],al
00002CAD  0000              add [eax],al
00002CAF  0000              add [eax],al
00002CB1  0000              add [eax],al
00002CB3  0000              add [eax],al
00002CB5  0000              add [eax],al
00002CB7  0000              add [eax],al
00002CB9  0000              add [eax],al
00002CBB  0000              add [eax],al
00002CBD  0000              add [eax],al
00002CBF  0000              add [eax],al
00002CC1  0000              add [eax],al
00002CC3  0000              add [eax],al
00002CC5  0000              add [eax],al
00002CC7  0000              add [eax],al
00002CC9  0000              add [eax],al
00002CCB  0000              add [eax],al
00002CCD  0000              add [eax],al
00002CCF  0000              add [eax],al
00002CD1  0000              add [eax],al
00002CD3  0000              add [eax],al
00002CD5  0000              add [eax],al
00002CD7  0000              add [eax],al
00002CD9  0000              add [eax],al
00002CDB  0000              add [eax],al
00002CDD  0000              add [eax],al
00002CDF  0000              add [eax],al
00002CE1  0000              add [eax],al
00002CE3  0000              add [eax],al
00002CE5  0000              add [eax],al
00002CE7  0000              add [eax],al
00002CE9  0000              add [eax],al
00002CEB  0000              add [eax],al
00002CED  0000              add [eax],al
00002CEF  0000              add [eax],al
00002CF1  0000              add [eax],al
00002CF3  0000              add [eax],al
00002CF5  0000              add [eax],al
00002CF7  0000              add [eax],al
00002CF9  0000              add [eax],al
00002CFB  0000              add [eax],al
00002CFD  0000              add [eax],al
00002CFF  0000              add [eax],al
00002D01  0000              add [eax],al
00002D03  0000              add [eax],al
00002D05  0000              add [eax],al
00002D07  0000              add [eax],al
00002D09  0000              add [eax],al
00002D0B  0000              add [eax],al
00002D0D  0000              add [eax],al
00002D0F  0000              add [eax],al
00002D11  0000              add [eax],al
00002D13  0000              add [eax],al
00002D15  0000              add [eax],al
00002D17  0000              add [eax],al
00002D19  0000              add [eax],al
00002D1B  0000              add [eax],al
00002D1D  0000              add [eax],al
00002D1F  0000              add [eax],al
00002D21  0000              add [eax],al
00002D23  0000              add [eax],al
00002D25  0000              add [eax],al
00002D27  0000              add [eax],al
00002D29  0000              add [eax],al
00002D2B  0000              add [eax],al
00002D2D  0000              add [eax],al
00002D2F  0000              add [eax],al
00002D31  0000              add [eax],al
00002D33  0000              add [eax],al
00002D35  0000              add [eax],al
00002D37  0000              add [eax],al
00002D39  0000              add [eax],al
00002D3B  0000              add [eax],al
00002D3D  0000              add [eax],al
00002D3F  0000              add [eax],al
00002D41  0000              add [eax],al
00002D43  0000              add [eax],al
00002D45  0000              add [eax],al
00002D47  0000              add [eax],al
00002D49  0000              add [eax],al
00002D4B  0000              add [eax],al
00002D4D  0000              add [eax],al
00002D4F  0000              add [eax],al
00002D51  0000              add [eax],al
00002D53  0000              add [eax],al
00002D55  0000              add [eax],al
00002D57  0000              add [eax],al
00002D59  0000              add [eax],al
00002D5B  0000              add [eax],al
00002D5D  0000              add [eax],al
00002D5F  0000              add [eax],al
00002D61  0000              add [eax],al
00002D63  0000              add [eax],al
00002D65  0000              add [eax],al
00002D67  0000              add [eax],al
00002D69  0000              add [eax],al
00002D6B  0000              add [eax],al
00002D6D  0000              add [eax],al
00002D6F  0000              add [eax],al
00002D71  0000              add [eax],al
00002D73  0000              add [eax],al
00002D75  0000              add [eax],al
00002D77  0000              add [eax],al
00002D79  0000              add [eax],al
00002D7B  0000              add [eax],al
00002D7D  0000              add [eax],al
00002D7F  0000              add [eax],al
00002D81  0000              add [eax],al
00002D83  0000              add [eax],al
00002D85  0000              add [eax],al
00002D87  0000              add [eax],al
00002D89  0000              add [eax],al
00002D8B  0000              add [eax],al
00002D8D  0000              add [eax],al
00002D8F  0000              add [eax],al
00002D91  0000              add [eax],al
00002D93  0000              add [eax],al
00002D95  0000              add [eax],al
00002D97  0000              add [eax],al
00002D99  0000              add [eax],al
00002D9B  0000              add [eax],al
00002D9D  0000              add [eax],al
00002D9F  0000              add [eax],al
00002DA1  0000              add [eax],al
00002DA3  0000              add [eax],al
00002DA5  0000              add [eax],al
00002DA7  0000              add [eax],al
00002DA9  0000              add [eax],al
00002DAB  0000              add [eax],al
00002DAD  0000              add [eax],al
00002DAF  0000              add [eax],al
00002DB1  0000              add [eax],al
00002DB3  0000              add [eax],al
00002DB5  0000              add [eax],al
00002DB7  0000              add [eax],al
00002DB9  0000              add [eax],al
00002DBB  0000              add [eax],al
00002DBD  0000              add [eax],al
00002DBF  0000              add [eax],al
00002DC1  0000              add [eax],al
00002DC3  0000              add [eax],al
00002DC5  0000              add [eax],al
00002DC7  0000              add [eax],al
00002DC9  0000              add [eax],al
00002DCB  0000              add [eax],al
00002DCD  0000              add [eax],al
00002DCF  0000              add [eax],al
00002DD1  0000              add [eax],al
00002DD3  0000              add [eax],al
00002DD5  0000              add [eax],al
00002DD7  0000              add [eax],al
00002DD9  0000              add [eax],al
00002DDB  0000              add [eax],al
00002DDD  0000              add [eax],al
00002DDF  0000              add [eax],al
00002DE1  0000              add [eax],al
00002DE3  0000              add [eax],al
00002DE5  0000              add [eax],al
00002DE7  0000              add [eax],al
00002DE9  0000              add [eax],al
00002DEB  0000              add [eax],al
00002DED  0000              add [eax],al
00002DEF  0000              add [eax],al
00002DF1  0000              add [eax],al
00002DF3  0000              add [eax],al
00002DF5  0000              add [eax],al
00002DF7  0000              add [eax],al
00002DF9  0000              add [eax],al
00002DFB  0000              add [eax],al
00002DFD  0000              add [eax],al
00002DFF  0000              add [eax],al
00002E01  0000              add [eax],al
00002E03  0000              add [eax],al
00002E05  0000              add [eax],al
00002E07  0000              add [eax],al
00002E09  0000              add [eax],al
00002E0B  0000              add [eax],al
00002E0D  0000              add [eax],al
00002E0F  0000              add [eax],al
00002E11  0000              add [eax],al
00002E13  0000              add [eax],al
00002E15  0000              add [eax],al
00002E17  0000              add [eax],al
00002E19  0000              add [eax],al
00002E1B  0000              add [eax],al
00002E1D  0000              add [eax],al
00002E1F  0000              add [eax],al
00002E21  0000              add [eax],al
00002E23  0000              add [eax],al
00002E25  0000              add [eax],al
00002E27  0000              add [eax],al
00002E29  0000              add [eax],al
00002E2B  0000              add [eax],al
00002E2D  0000              add [eax],al
00002E2F  0000              add [eax],al
00002E31  0000              add [eax],al
00002E33  0000              add [eax],al
00002E35  0000              add [eax],al
00002E37  0000              add [eax],al
00002E39  0000              add [eax],al
00002E3B  0000              add [eax],al
00002E3D  0000              add [eax],al
00002E3F  0000              add [eax],al
00002E41  0000              add [eax],al
00002E43  0000              add [eax],al
00002E45  0000              add [eax],al
00002E47  0000              add [eax],al
00002E49  0000              add [eax],al
00002E4B  0000              add [eax],al
00002E4D  0000              add [eax],al
00002E4F  0000              add [eax],al
00002E51  0000              add [eax],al
00002E53  0000              add [eax],al
00002E55  0000              add [eax],al
00002E57  0000              add [eax],al
00002E59  0000              add [eax],al
00002E5B  0000              add [eax],al
00002E5D  0000              add [eax],al
00002E5F  0000              add [eax],al
00002E61  0000              add [eax],al
00002E63  0000              add [eax],al
00002E65  0000              add [eax],al
00002E67  0000              add [eax],al
00002E69  0000              add [eax],al
00002E6B  0000              add [eax],al
00002E6D  0000              add [eax],al
00002E6F  0000              add [eax],al
00002E71  0000              add [eax],al
00002E73  0000              add [eax],al
00002E75  0000              add [eax],al
00002E77  0000              add [eax],al
00002E79  0000              add [eax],al
00002E7B  0000              add [eax],al
00002E7D  0000              add [eax],al
00002E7F  0000              add [eax],al
00002E81  0000              add [eax],al
00002E83  0000              add [eax],al
00002E85  0000              add [eax],al
00002E87  0000              add [eax],al
00002E89  0000              add [eax],al
00002E8B  0000              add [eax],al
00002E8D  0000              add [eax],al
00002E8F  0000              add [eax],al
00002E91  0000              add [eax],al
00002E93  0000              add [eax],al
00002E95  0000              add [eax],al
00002E97  0000              add [eax],al
00002E99  0000              add [eax],al
00002E9B  0000              add [eax],al
00002E9D  0000              add [eax],al
00002E9F  0000              add [eax],al
00002EA1  0000              add [eax],al
00002EA3  0000              add [eax],al
00002EA5  0000              add [eax],al
00002EA7  0000              add [eax],al
00002EA9  0000              add [eax],al
00002EAB  0000              add [eax],al
00002EAD  0000              add [eax],al
00002EAF  0000              add [eax],al
00002EB1  0000              add [eax],al
00002EB3  0000              add [eax],al
00002EB5  0000              add [eax],al
00002EB7  0000              add [eax],al
00002EB9  0000              add [eax],al
00002EBB  0000              add [eax],al
00002EBD  0000              add [eax],al
00002EBF  0000              add [eax],al
00002EC1  0000              add [eax],al
00002EC3  0000              add [eax],al
00002EC5  0000              add [eax],al
00002EC7  0000              add [eax],al
00002EC9  0000              add [eax],al
00002ECB  0000              add [eax],al
00002ECD  0000              add [eax],al
00002ECF  0000              add [eax],al
00002ED1  0000              add [eax],al
00002ED3  0000              add [eax],al
00002ED5  0000              add [eax],al
00002ED7  0000              add [eax],al
00002ED9  0000              add [eax],al
00002EDB  0000              add [eax],al
00002EDD  0000              add [eax],al
00002EDF  0000              add [eax],al
00002EE1  0000              add [eax],al
00002EE3  0000              add [eax],al
00002EE5  0000              add [eax],al
00002EE7  0000              add [eax],al
00002EE9  0000              add [eax],al
00002EEB  0000              add [eax],al
00002EED  0000              add [eax],al
00002EEF  0000              add [eax],al
00002EF1  0000              add [eax],al
00002EF3  0000              add [eax],al
00002EF5  0000              add [eax],al
00002EF7  0000              add [eax],al
00002EF9  0000              add [eax],al
00002EFB  0000              add [eax],al
00002EFD  0000              add [eax],al
00002EFF  0000              add [eax],al
00002F01  0000              add [eax],al
00002F03  0000              add [eax],al
00002F05  0000              add [eax],al
00002F07  0000              add [eax],al
00002F09  0000              add [eax],al
00002F0B  0000              add [eax],al
00002F0D  0000              add [eax],al
00002F0F  0000              add [eax],al
00002F11  0000              add [eax],al
00002F13  0000              add [eax],al
00002F15  0000              add [eax],al
00002F17  0000              add [eax],al
00002F19  0000              add [eax],al
00002F1B  0000              add [eax],al
00002F1D  0000              add [eax],al
00002F1F  0000              add [eax],al
00002F21  0000              add [eax],al
00002F23  0000              add [eax],al
00002F25  0000              add [eax],al
00002F27  0000              add [eax],al
00002F29  0000              add [eax],al
00002F2B  0000              add [eax],al
00002F2D  0000              add [eax],al
00002F2F  0000              add [eax],al
00002F31  0000              add [eax],al
00002F33  0000              add [eax],al
00002F35  0000              add [eax],al
00002F37  0000              add [eax],al
00002F39  0000              add [eax],al
00002F3B  0000              add [eax],al
00002F3D  0000              add [eax],al
00002F3F  0000              add [eax],al
00002F41  0000              add [eax],al
00002F43  0000              add [eax],al
00002F45  0000              add [eax],al
00002F47  0000              add [eax],al
00002F49  0000              add [eax],al
00002F4B  0000              add [eax],al
00002F4D  0000              add [eax],al
00002F4F  0000              add [eax],al
00002F51  0000              add [eax],al
00002F53  0000              add [eax],al
00002F55  0000              add [eax],al
00002F57  0000              add [eax],al
00002F59  0000              add [eax],al
00002F5B  0000              add [eax],al
00002F5D  0000              add [eax],al
00002F5F  0000              add [eax],al
00002F61  0000              add [eax],al
00002F63  0000              add [eax],al
00002F65  0000              add [eax],al
00002F67  0000              add [eax],al
00002F69  0000              add [eax],al
00002F6B  0000              add [eax],al
00002F6D  0000              add [eax],al
00002F6F  0000              add [eax],al
00002F71  0000              add [eax],al
00002F73  0000              add [eax],al
00002F75  0000              add [eax],al
00002F77  0000              add [eax],al
00002F79  0000              add [eax],al
00002F7B  0000              add [eax],al
00002F7D  0000              add [eax],al
00002F7F  0000              add [eax],al
00002F81  0000              add [eax],al
00002F83  0000              add [eax],al
00002F85  0000              add [eax],al
00002F87  0000              add [eax],al
00002F89  0000              add [eax],al
00002F8B  0000              add [eax],al
00002F8D  0000              add [eax],al
00002F8F  0000              add [eax],al
00002F91  0000              add [eax],al
00002F93  0000              add [eax],al
00002F95  0000              add [eax],al
00002F97  0000              add [eax],al
00002F99  0000              add [eax],al
00002F9B  0000              add [eax],al
00002F9D  0000              add [eax],al
00002F9F  0000              add [eax],al
00002FA1  0000              add [eax],al
00002FA3  0000              add [eax],al
00002FA5  0000              add [eax],al
00002FA7  0000              add [eax],al
00002FA9  0000              add [eax],al
00002FAB  0000              add [eax],al
00002FAD  0000              add [eax],al
00002FAF  0000              add [eax],al
00002FB1  0000              add [eax],al
00002FB3  0000              add [eax],al
00002FB5  0000              add [eax],al
00002FB7  0000              add [eax],al
00002FB9  0000              add [eax],al
00002FBB  0000              add [eax],al
00002FBD  0000              add [eax],al
00002FBF  0000              add [eax],al
00002FC1  0000              add [eax],al
00002FC3  0000              add [eax],al
00002FC5  0000              add [eax],al
00002FC7  0000              add [eax],al
00002FC9  0000              add [eax],al
00002FCB  0000              add [eax],al
00002FCD  0000              add [eax],al
00002FCF  0000              add [eax],al
00002FD1  0000              add [eax],al
00002FD3  0000              add [eax],al
00002FD5  0000              add [eax],al
00002FD7  0000              add [eax],al
00002FD9  0000              add [eax],al
00002FDB  0000              add [eax],al
00002FDD  0000              add [eax],al
00002FDF  0000              add [eax],al
00002FE1  0000              add [eax],al
00002FE3  0000              add [eax],al
00002FE5  0000              add [eax],al
00002FE7  0000              add [eax],al
00002FE9  0000              add [eax],al
00002FEB  0000              add [eax],al
00002FED  0000              add [eax],al
00002FEF  0000              add [eax],al
00002FF1  0000              add [eax],al
00002FF3  0000              add [eax],al
00002FF5  0000              add [eax],al
00002FF7  0000              add [eax],al
00002FF9  0000              add [eax],al
00002FFB  0000              add [eax],al
00002FFD  0000              add [eax],al
00002FFF  00FF              add bh,bh
00003001  FF                db 0xFF
00003002  FF                db 0xFF
00003003  FF5C9304          call far [ebx+edx*4+0x4]
00003007  0800              or [eax],al
00003009  0000              add [eax],al
0000300B  00FF              add bh,bh
0000300D  FF                db 0xFF
0000300E  FF                db 0xFF
0000300F  FF00              inc dword [eax]
00003011  0000              add [eax],al
00003013  0000              add [eax],al
00003015  0000              add [eax],al
00003017  0001              add [ecx],al
00003019  0000              add [eax],al
0000301B  0001              add [ecx],al
0000301D  0000              add [eax],al
0000301F  0001              add [ecx],al
00003021  0000              add [eax],al
00003023  006301            add [ebx+0x1],ah
00003026  0000              add [eax],al
00003028  0100              add [eax],eax
0000302A  0000              add [eax],al
0000302C  7201              jc 0x302f
0000302E  0000              add [eax],al
00003030  0100              add [eax],eax
00003032  0000              add [eax],al
00003034  98                cwde
00003035  0100              add [eax],eax
00003037  000C00            add [eax+eax],cl
0000303A  0000              add [eax],al
0000303C  64870408          xchg eax,[fs:eax+ecx]
00003040  0D000000A8        or eax,0xa8000000
00003045  A004080400        mov al,[0x40804]
0000304A  0000              add [eax],al
0000304C  6881040805        push dword 0x5080481
00003051  0000              add [eax],al
00003053  00A883040806      add [eax+0x6080483],ch
00003059  0000              add [eax],al
0000305B  0018              add [eax],bl
0000305D  82                db 0x82
0000305E  0408              add al,0x8
00003060  0A00              or al,[eax]
00003062  0000              add [eax],al
00003064  3002              xor [edx],al
00003066  0000              add [eax],al
00003068  0B00              or eax,[eax]
0000306A  0000              add [eax],al
0000306C  1000              adc [eax],al
0000306E  0000              add [eax],al
00003070  1500000000        adc eax,0x0
00003075  0000              add [eax],al
00003077  0003              add [ebx],al
00003079  0000              add [eax],al
0000307B  00FC              add ah,bh
0000307D  B004              mov al,0x4
0000307F  0802              or [edx],al
00003081  0000              add [eax],al
00003083  009000000014      add [eax+0x14000000],dl
00003089  0000              add [eax],al
0000308B  0011              add [ecx],dl
0000308D  0000              add [eax],al
0000308F  0017              add [edi],dl
00003091  0000              add [eax],al
00003093  00D4              add ah,dl
00003095  860408            xchg al,[eax+ecx]
00003098  1100              adc [eax],eax
0000309A  0000              add [eax],al
0000309C  BC86040812        mov esp,0x12080486
000030A1  0000              add [eax],al
000030A3  0018              add [eax],bl
000030A5  0000              add [eax],al
000030A7  0013              add [ebx],dl
000030A9  0000              add [eax],al
000030AB  0008              add [eax],cl
000030AD  0000              add [eax],al
000030AF  00FE              add dh,bh
000030B1  FF                db 0xFF
000030B2  FF6F0C            jmp far [edi+0xc]
000030B5  860408            xchg al,[eax+ecx]
000030B8  FF                db 0xFF
000030B9  FF                db 0xFF
000030BA  FF6F04            jmp far [edi+0x4]
000030BD  0000              add [eax],al
000030BF  00F0              add al,dh
000030C1  FF                db 0xFF
000030C2  FF6FD8            jmp far [edi-0x28]
000030C5  850408            test [eax+ecx],eax
000030C8  0000              add [eax],al
000030CA  0000              add [eax],al
000030CC  0000              add [eax],al
000030CE  0000              add [eax],al
000030D0  0000              add [eax],al
000030D2  0000              add [eax],al
000030D4  0000              add [eax],al
000030D6  0000              add [eax],al
000030D8  0000              add [eax],al
000030DA  0000              add [eax],al
000030DC  0000              add [eax],al
000030DE  0000              add [eax],al
000030E0  0000              add [eax],al
000030E2  0000              add [eax],al
000030E4  0000              add [eax],al
000030E6  0000              add [eax],al
000030E8  0000              add [eax],al
000030EA  0000              add [eax],al
000030EC  0000              add [eax],al
000030EE  0000              add [eax],al
000030F0  0000              add [eax],al
000030F2  0000              add [eax],al
000030F4  0000              add [eax],al
000030F6  0000              add [eax],al
000030F8  0000              add [eax],al
000030FA  0000              add [eax],al
000030FC  18B004080000      sbb [eax+0x804],dh
00003102  0000              add [eax],al
00003104  0000              add [eax],al
00003106  0000              add [eax],al
00003108  B687              mov dh,0x87
0000310A  0408              add al,0x8
0000310C  C6870408D68704    mov byte [edi+0x87d60804],0x4
00003113  08E6              or dh,ah
00003115  870408            xchg eax,[eax+ecx]
00003118  F6870408068804    test byte [edi+0x88060804],0x4
0000311F  0816              or [esi],dl
00003121  880408            mov [eax+ecx],al
00003124  26880408          mov [es:eax+ecx],al
00003128  36880408          mov [ss:eax+ecx],al
0000312C  46                inc esi
0000312D  880408            mov [eax+ecx],al
00003130  56                push esi
00003131  880408            mov [eax+ecx],al
00003134  66880408          o16 mov [eax+ecx],al
00003138  7688              jna 0x30c2
0000313A  0408              add al,0x8
0000313C  868804089688      xchg cl,[eax+0x88960804]
00003142  0408              add al,0x8
00003144  A6                cmpsb
00003145  880408            mov [eax+ecx],al
00003148  B688              mov dh,0x88
0000314A  0408              add al,0x8
0000314C  C6                db 0xC6
0000314D  880408            mov [eax+ecx],al
00003150  0000              add [eax],al
00003152  0000              add [eax],al
00003154  0000              add [eax],al
00003156  0000              add [eax],al
00003158  F1                int1
00003159  68E388B5F8        push dword 0xf8b588e3
0000315E  E43E              in al,0x3e
00003160  47                inc edi
00003161  43                inc ebx
00003162  43                inc ebx
00003163  3A20              cmp ah,[eax]
00003165  285562            sub [ebp+0x62],dl
00003168  756E              jnz 0x31d8
0000316A  7475              jz 0x31e1
0000316C  20342E            and [esi+ebp],dh
0000316F  342E              xor al,0x2e
00003171  332D34756275      xor ebp,[0x75627534]
00003177  6E                outsb
00003178  7475              jz 0x31ef
0000317A  352920342E        xor eax,0x2e342029
0000317F  342E              xor al,0x2e
00003181  3300              xor eax,[eax]
00003183  47                inc edi
00003184  43                inc ebx
00003185  43                inc ebx
00003186  3A20              cmp ah,[eax]
00003188  28474E            sub [edi+0x4e],al
0000318B  55                push ebp
0000318C  2920              sub [eax],esp
0000318E  342E              xor al,0x2e
00003190  382E              cmp [esi],ch
00003192  3100              xor [eax],eax
00003194  0000              add [eax],al
00003196  0000              add [eax],al
00003198  1C00              sbb al,0x0
0000319A  0000              add [eax],al
0000319C  0200              add al,[eax]
0000319E  0000              add [eax],al
000031A0  0000              add [eax],al
000031A2  0400              add al,0x0
000031A4  0000              add [eax],al
000031A6  0000              add [eax],al
000031A8  D08804082200      ror byte [eax+0x220804],1
000031AE  0000              add [eax],al
000031B0  0000              add [eax],al
000031B2  0000              add [eax],al
000031B4  0000              add [eax],al
000031B6  0000              add [eax],al
000031B8  1C00              sbb al,0x0
000031BA  0000              add [eax],al
000031BC  0200              add al,[eax]
000031BE  0E                push cs
000031BF  0100              add [eax],eax
000031C1  000400            add [eax+eax],al
000031C4  0000              add [eax],al
000031C6  0000              add [eax],al
000031C8  10A004086A00      adc [eax+0x6a0804],ah
000031CE  0000              add [eax],al
000031D0  0000              add [eax],al
000031D2  0000              add [eax],al
000031D4  0000              add [eax],al
000031D6  0000              add [eax],al
000031D8  2100              and [eax],eax
000031DA  0000              add [eax],al
000031DC  0200              add al,[eax]
000031DE  810000008D00      add dword [eax],0x8d0000
000031E4  0000              add [eax],al
000031E6  7500              jnz 0x31e8
000031E8  0000              add [eax],al
000031EA  5F                pop edi
000031EB  49                dec ecx
000031EC  4F                dec edi
000031ED  5F                pop edi
000031EE  7374              jnc 0x3264
000031F0  64696E5F75736564  imul ebp,[fs:esi+0x5f],dword 0x64657375
000031F8  0000              add [eax],al
000031FA  0000              add [eax],al
000031FC  0036              add [esi],dh
000031FE  0000              add [eax],al
00003200  0002              add [edx],al
00003202  000E              add [esi],cl
00003204  0100              add [eax],eax
00003206  0013              add [ebx],dl
00003208  0100              add [eax],eax
0000320A  003E              add [esi],bh
0000320C  0000              add [eax],al
0000320E  005F5F            add [edi+0x5f],bl
00003211  6C                insb
00003212  6962635F637375    imul esp,[edx+0x63],dword 0x7573635f
00003219  5F                pop edi
0000321A  66696E690053      imul bp,[esi+0x69],word 0x5300
00003220  0000              add [eax],al
00003222  005F5F            add [edi+0x5f],bl
00003225  6C                insb
00003226  6962635F637375    imul esp,[edx+0x63],dword 0x7573635f
0000322D  5F                pop edi
0000322E  696E6974000000    imul ebp,[esi+0x69],dword 0x74
00003235  0000              add [eax],al
00003237  7D00              jnl 0x3239
00003239  0000              add [eax],al
0000323B  0200              add al,[eax]
0000323D  0000              add [eax],al
0000323F  0000              add [eax],al
00003241  0401              add al,0x1
00003243  0000              add [eax],al
00003245  0000              add [eax],al
00003247  D0880408F288      ror byte [eax+0x88f20804],1
0000324D  0408              add al,0x8
0000324F  2E2E2F            cs das
00003252  7379              jnc 0x32cd
00003254  7364              jnc 0x32ba
00003256  657073            gs jo 0x32cc
00003259  2F                das
0000325A  693338362F65      imul esi,[ebx],dword 0x652f3638
00003260  6C                insb
00003261  662F              o16 das
00003263  7374              jnc 0x32d9
00003265  61                popa
00003266  7274              jc 0x32dc
00003268  2E53              cs push ebx
0000326A  002F              add [edi],ch
0000326C  686F6D652F        push dword 0x2f656d6f
00003271  7069              jo 0x32dc
00003273  657272            gs jc 0x32e8
00003276  652F              gs das
00003278  42                inc edx
00003279  7572              jnz 0x32ed
0000327B  6561              gs popa
0000327D  752F              jnz 0x32ae
0000327F  6865616465        push dword 0x65646165
00003284  7273              jc 0x32f9
00003286  2D676C6962        sub eax,0x62696c67
0000328B  632D666F722D      arpl [0x2d726f66],bp
00003291  6C                insb
00003292  696E75782F676C    imul ebp,[esi+0x75],dword 0x6c672f78
00003299  6962632D322E31    imul esp,[edx+0x63],dword 0x312e322d
000032A0  322E              xor ch,[esi]
000032A2  322F              xor ch,[edi]
000032A4  637375            arpl [ebx+0x75],si
000032A7  00474E            add [edi+0x4e],al
000032AA  55                push ebp
000032AB  204153            and [ecx+0x53],al
000032AE  2032              and [edx],dh
000032B0  2E3230            xor dh,[cs:eax]
000032B3  2E3100            xor [cs:eax],eax
000032B6  018089000000      add [eax+0x89],eax
000032BC  0200              add al,[eax]
000032BE  1400              adc al,0x0
000032C0  0000              add [eax],al
000032C2  0401              add al,0x1
000032C4  8E00              mov es,[eax]
000032C6  0000              add [eax],al
000032C8  01CD              add ebp,ecx
000032CA  0000              add [eax],al
000032CC  004300            add [ebx+0x0],al
000032CF  0000              add [eax],al
000032D1  F4                hlt
000032D2  880408            mov [eax+ecx],al
000032D5  F4                hlt
000032D6  880408            mov [eax+ecx],al
000032D9  5B                pop ebx
000032DA  0000              add [eax],al
000032DC  0002              add [edx],al
000032DE  0108              add [eax],ecx
000032E0  800000            add byte [eax],0x0
000032E3  0002              add [edx],al
000032E5  0207              add al,[edi]
000032E7  0000              add [eax],al
000032E9  0000              add [eax],al
000032EB  020407            add al,[edi+eax]
000032EE  360000            add [ss:eax],al
000032F1  0002              add [edx],al
000032F3  0407              add al,0x7
000032F5  3100              xor [eax],eax
000032F7  0000              add [eax],al
000032F9  0201              add al,[ecx]
000032FB  06                push es
000032FC  82                db 0x82
000032FD  0000              add [eax],al
000032FF  0002              add [edx],al
00003301  020513000000      add al,[0x13]
00003307  030405696E7400    add eax,[eax+0x746e69]
0000330E  0208              add cl,[eax]
00003310  059A000000        add eax,0x9a
00003315  0208              add cl,[eax]
00003317  07                pop es
00003318  2C00              sub al,0x0
0000331A  0000              add [eax],al
0000331C  0204059F000000    add al,[eax+0x9f]
00003323  0404              add al,0x4
00003325  07                pop es
00003326  0201              add al,[ecx]
00003328  06                push es
00003329  8900              mov [eax],eax
0000332B  0000              add [eax],al
0000332D  051D000000        add eax,0x1d
00003332  0119              add [ecx],ebx
00003334  8700              xchg eax,[eax]
00003336  0000              add [eax],al
00003338  010503CCA004      add [0x4a0cc03],eax
0000333E  0806              or [esi],al
00003340  4F                dec edi
00003341  0000              add [eax],al
00003343  0000              add [eax],al
00003345  0F0100            sgdt [eax]
00003348  0002              add [edx],al
0000334A  005F00            add [edi+0x0],bl
0000334D  0000              add [eax],al
0000334F  0401              add al,0x1
00003351  8E00              mov es,[eax]
00003353  0000              add [eax],al
00003355  01C9              add ecx,ecx
00003357  0000              add [eax],al
00003359  004300            add [ebx+0x0],al
0000335C  0000              add [eax],al
0000335E  10A004087AA0      adc [eax+0xa07a0804],ah
00003364  0408              add al,0x8
00003366  82                db 0x82
00003367  0000              add [eax],al
00003369  0002              add [edx],al
0000336B  0405              add al,0x5
0000336D  696E740003AD00    imul ebp,[esi+0x74],dword 0xad0300
00003374  0000              add [eax],al
00003376  02D3              add dl,bl
00003378  37                aaa
00003379  0000              add [eax],al
0000337B  000404            add [esp+eax],al
0000337E  07                pop es
0000337F  360000            add [ss:eax],al
00003382  000501FD0000      add [0xfd01],al
00003388  0001              add [ecx],al
0000338A  830110            add dword [ecx],byte +0x10
0000338D  A0040815A0        mov al,[0xa0150804]
00003392  0408              add al,0x8
00003394  0000              add [eax],al
00003396  0000              add [eax],al
00003398  06                push es
00003399  01B900000001      add [ecx+0x1000000],edi
0000339F  690120A00408      imul eax,[ecx],dword 0x804a020
000033A5  7AA0              jpe 0x3347
000033A7  0408              add al,0x8
000033A9  2C00              sub al,0x0
000033AB  0000              add [eax],al
000033AD  B900000007        mov ecx,0x7000000
000033B2  B400              mov ah,0x0
000033B4  0000              add [eax],al
000033B6  016925            add [ecx+0x25],ebp
000033B9  0000              add [eax],al
000033BB  0002              add [edx],al
000033BD  91                xchg eax,ecx
000033BE  0007              add [edi],al
000033C0  0D01000001        or eax,0x1000001
000033C5  69B9000000029104  imul edi,[ecx+0x2000000],dword 0xa8070491
         -07A8
000033CF  0000              add [eax],al
000033D1  0001              add [ecx],al
000033D3  69B9000000029108  imul edi,[ecx+0x2000000],dword 0xe7080891
         -08E7
000033DD  0000              add [eax],al
000033DF  0001              add [ecx],al
000033E1  7ACC              jpe 0x33af
000033E3  0000              add [eax],al
000033E5  0009              add [ecx],cl
000033E7  39A0040872A0      cmp [eax+0xa0720804],esp
000033ED  0408              add al,0x8
000033EF  0A6900            or ch,[ecx+0x0]
000033F2  017B2C            add [ebx+0x2c],edi
000033F5  0000              add [eax],al
000033F7  005800            add [eax+0x0],bl
000033FA  0000              add [eax],al
000033FC  0000              add [eax],al
000033FE  0B04BF            or eax,[edi+edi*4]
00003401  0000              add [eax],al
00003403  000B              add [ebx],cl
00003405  04C5              add al,0xc5
00003407  0000              add [eax],al
00003409  000401            add [ecx+eax],al
0000340C  06                push es
0000340D  8900              mov [eax],eax
0000340F  0000              add [eax],al
00003411  0C2C              or al,0x2c
00003413  0000              add [eax],al
00003415  000DF2000000      add [0xf2],cl
0000341B  DC00              fadd qword [eax]
0000341D  0000              add [eax],al
0000341F  0E                push cs
00003420  000F              add [edi],cl
00003422  01F2              add edx,esi
00003424  0000              add [eax],al
00003426  0010              add [eax],dl
00003428  2500000010        and eax,0x10000000
0000342D  B900000010        mov ecx,0x10000000
00003432  B900000000        mov ecx,0x0
00003437  0B04DC            or eax,[esp+ebx*8]
0000343A  0000              add [eax],al
0000343C  0011              add [ecx],dl
0000343E  D400              aam 0x0
00003440  0000              add [eax],al
00003442  013B              add [ebx],edi
00003444  D100              rol dword [eax],1
00003446  0000              add [eax],al
00003448  0101              add [ecx],eax
0000344A  11EC              adc esp,ebp
0000344C  0000              add [eax],al
0000344E  0001              add [ecx],al
00003450  3DD1000000        cmp eax,0xd1
00003455  0101              add [ecx],eax
00003457  0001              add [ecx],al
00003459  1100              adc [eax],eax
0000345B  1006              adc [esi],al
0000345D  1101              adc [ecx],eax
0000345F  1201              adc al,[ecx]
00003461  0308              add ecx,[eax]
00003463  1B08              sbb ecx,[eax]
00003465  2508130500        and eax,0x51308
0000346A  0000              add [eax],al
0000346C  0111              add [ecx],edx
0000346E  01250E130B03      add [0x30b130e],esp
00003474  0E                push cs
00003475  1B0E              sbb ecx,[esi]
00003477  1101              adc [ecx],eax
00003479  1201              adc al,[ecx]
0000347B  1006              adc [esi],al
0000347D  0000              add [eax],al
0000347F  022400            add ah,[eax+eax]
00003482  0B0B              or ecx,[ebx]
00003484  3E0B03            or eax,[ds:ebx]
00003487  0E                push cs
00003488  0000              add [eax],al
0000348A  032400            add esp,[eax+eax]
0000348D  0B0B              or ecx,[ebx]
0000348F  3E0B03            or eax,[ds:ebx]
00003492  0800              or [eax],al
00003494  000424            add [esp],al
00003497  000B              add [ebx],cl
00003499  0B3E              or edi,[esi]
0000349B  0B00              or eax,[eax]
0000349D  00053400030E      add [0xe030034],al
000034A3  3A0B              cmp cl,[ebx]
000034A5  3B0B              cmp ecx,[ebx]
000034A7  49                dec ecx
000034A8  133F              adc edi,[edi]
000034AA  0C02              or al,0x2
000034AC  0A00              or al,[eax]
000034AE  0006              add [esi],al
000034B0  26004913          add [es:ecx+0x13],cl
000034B4  0000              add [eax],al
000034B6  0001              add [ecx],al
000034B8  1101              adc [ecx],eax
000034BA  250E130B03        and eax,0x30b130e
000034BF  0E                push cs
000034C0  1B0E              sbb ecx,[esi]
000034C2  1101              adc [ecx],eax
000034C4  1201              adc al,[ecx]
000034C6  1006              adc [esi],al
000034C8  0000              add [eax],al
000034CA  022400            add ah,[eax+eax]
000034CD  0B0B              or ecx,[ebx]
000034CF  3E0B03            or eax,[ds:ebx]
000034D2  0800              or [eax],al
000034D4  0003              add [ebx],al
000034D6  16                push ss
000034D7  0003              add [ebx],al
000034D9  0E                push cs
000034DA  3A0B              cmp cl,[ebx]
000034DC  3B0B              cmp ecx,[ebx]
000034DE  49                dec ecx
000034DF  1300              adc eax,[eax]
000034E1  000424            add [esp],al
000034E4  000B              add [ebx],cl
000034E6  0B3E              or edi,[esi]
000034E8  0B03              or eax,[ebx]
000034EA  0E                push cs
000034EB  0000              add [eax],al
000034ED  052E003F0C        add eax,0xc3f002e
000034F2  030E              add ecx,[esi]
000034F4  3A0B              cmp cl,[ebx]
000034F6  3B0B              cmp ecx,[ebx]
000034F8  27                daa
000034F9  0C11              or al,0x11
000034FB  0112              add [edx],edx
000034FD  014006            add [eax+0x6],eax
00003500  0000              add [eax],al
00003502  06                push es
00003503  2E013F            add [cs:edi],edi
00003506  0C03              or al,0x3
00003508  0E                push cs
00003509  3A0B              cmp cl,[ebx]
0000350B  3B0B              cmp ecx,[ebx]
0000350D  27                daa
0000350E  0C11              or al,0x11
00003510  0112              add [edx],edx
00003512  014006            add [eax+0x6],eax
00003515  0113              add [ebx],edx
00003517  0000              add [eax],al
00003519  07                pop es
0000351A  0500030E3A        add eax,0x3a0e0300
0000351F  0B3B              or edi,[ebx]
00003521  0B4913            or ecx,[ecx+0x13]
00003524  020A              add cl,[edx]
00003526  0000              add [eax],al
00003528  083400            or [eax+eax],dh
0000352B  030E              add ecx,[esi]
0000352D  3A0B              cmp cl,[ebx]
0000352F  3B0B              cmp ecx,[ebx]
00003531  49                dec ecx
00003532  1300              adc eax,[eax]
00003534  0009              add [ecx],cl
00003536  0B01              or eax,[ecx]
00003538  1101              adc [ecx],eax
0000353A  1201              adc al,[ecx]
0000353C  0000              add [eax],al
0000353E  0A3400            or dh,[eax+eax]
00003541  0308              add ecx,[eax]
00003543  3A0B              cmp cl,[ebx]
00003545  3B0B              cmp ecx,[ebx]
00003547  49                dec ecx
00003548  1302              adc eax,[edx]
0000354A  06                push es
0000354B  0000              add [eax],al
0000354D  0B0F              or ecx,[edi]
0000354F  000B              add [ebx],cl
00003551  0B4913            or ecx,[ecx+0x13]
00003554  0000              add [eax],al
00003556  0C26              or al,0x26
00003558  004913            add [ecx+0x13],cl
0000355B  0000              add [eax],al
0000355D  0D01014913        or eax,0x13490101
00003562  0113              add [ebx],edx
00003564  0000              add [eax],al
00003566  0E                push cs
00003567  2100              and [eax],eax
00003569  0000              add [eax],al
0000356B  0F1501            unpckhps xmm0,[ecx]
0000356E  27                daa
0000356F  0C01              or al,0x1
00003571  1300              adc eax,[eax]
00003573  0010              add [eax],dl
00003575  0500491300        add eax,0x134900
0000357A  0011              add [ecx],dl
0000357C  3400              xor al,0x0
0000357E  030E              add ecx,[esi]
00003580  3A0B              cmp cl,[ebx]
00003582  3B0B              cmp ecx,[ebx]
00003584  49                dec ecx
00003585  133F              adc edi,[edi]
00003587  0C3C              or al,0x3c
00003589  0C00              or al,0x0
0000358B  0000              add [eax],al
0000358D  57                push edi
0000358E  0000              add [eax],al
00003590  0002              add [edx],al
00003592  0032              add [edx],dh
00003594  0000              add [eax],al
00003596  0001              add [ecx],al
00003598  01FB              add ebx,edi
0000359A  0E                push cs
0000359B  0D00010101        or eax,0x1010100
000035A0  0100              add [eax],eax
000035A2  0000              add [eax],al
000035A4  0100              add [eax],eax
000035A6  0001              add [ecx],al
000035A8  2E2E2F            cs das
000035AB  7379              jnc 0x3626
000035AD  7364              jnc 0x3613
000035AF  657073            gs jo 0x3625
000035B2  2F                das
000035B3  693338362F65      imul esi,[ebx],dword 0x652f3638
000035B9  6C                insb
000035BA  660000            o16 add [eax],al
000035BD  7374              jnc 0x3633
000035BF  61                popa
000035C0  7274              jc 0x3636
000035C2  2E53              cs push ebx
000035C4  0001              add [ecx],al
000035C6  0000              add [eax],al
000035C8  0000              add [eax],al
000035CA  0502D08804        add eax,0x488d002
000035CF  0803              or [ebx],al
000035D1  C00001            rol byte [eax],0x1
000035D4  3321              xor esp,[ecx]
000035D6  343D              xor al,0x3d
000035D8  2522031820        and eax,0x20180322
000035DD  59                pop ecx
000035DE  5A                pop edx
000035DF  2122              and [edx],esp
000035E1  5C                pop esp
000035E2  5B                pop ebx
000035E3  0201              add al,[ecx]
000035E5  0001              add [ecx],al
000035E7  0123              add [ebx],esp
000035E9  0000              add [eax],al
000035EB  0002              add [edx],al
000035ED  001D00000001      add [0x1000000],bl
000035F3  01FB              add ebx,edi
000035F5  0E                push cs
000035F6  0D00010101        or eax,0x1010100
000035FB  0100              add [eax],eax
000035FD  0000              add [eax],al
000035FF  0100              add [eax],eax
00003601  0001              add [ecx],al
00003603  00696E            add [ecx+0x6e],ch
00003606  69742E6300000000  imul esi,[esi+ebp+0x63],dword 0x0
0000360E  007B00            add [ebx+0x0],bh
00003611  0000              add [eax],al
00003613  0200              add al,[eax]
00003615  57                push edi
00003616  0000              add [eax],al
00003618  0001              add [ecx],al
0000361A  01FB              add ebx,edi
0000361C  0E                push cs
0000361D  0D00010101        or eax,0x1010100
00003622  0100              add [eax],eax
00003624  0000              add [eax],al
00003626  0100              add [eax],eax
00003628  0001              add [ecx],al
0000362A  2F                das
0000362B  7573              jnz 0x36a0
0000362D  722F              jc 0x365e
0000362F  6C                insb
00003630  69622F6763632F    imul esp,[edx+0x2f],dword 0x2f636367
00003637  693438362D6C69    imul esi,[eax+edi],dword 0x696c2d36
0000363E  6E                outsb
0000363F  7578              jnz 0x36b9
00003641  2D676E752F        sub eax,0x2f756e67
00003646  342E              xor al,0x2e
00003648  342E              xor al,0x2e
0000364A  332F              xor ebp,[edi]
0000364C  696E636C756465    imul ebp,[esi+0x63],dword 0x6564756c
00003653  0000              add [eax],al
00003655  656C              gs insb
00003657  662D696E          sub ax,0x6e69
0000365B  69742E6300000000  imul esi,[esi+ebp+0x63],dword 0x0
00003663  7374              jnc 0x36d9
00003665  646465662E680001  cs push word 0x100
0000366D  0000              add [eax],al
0000366F  0000              add [eax],al
00003671  050210A004        add eax,0x4a01002
00003676  0803              or [ebx],al
00003678  830101            add dword [ecx],byte +0x1
0000367B  44                inc esp
0000367C  035EC8            add ebx,[esi-0x38]
0000367F  030E              add ecx,[esi]
00003681  083C5B            or [ebx+ebx*2],bh
00003684  086708            or [edi+0x8],ah
00003687  9D                popf
00003688  7602              jna 0x368c
0000368A  0800              or [eax],al
0000368C  0101              add [ecx],eax
0000368E  0000              add [eax],al
00003690  1000              adc [eax],al
00003692  0000              add [eax],al
00003694  FF                db 0xFF
00003695  FF                db 0xFF
00003696  FF                db 0xFF
00003697  FF01              inc dword [ecx]
00003699  0001              add [ecx],al
0000369B  7C08              jl 0x36a5
0000369D  0C04              or al,0x4
0000369F  0488              add al,0x88
000036A1  0100              add [eax],eax
000036A3  001400            add [eax+eax],dl
000036A6  0000              add [eax],al
000036A8  0000              add [eax],al
000036AA  0000              add [eax],al
000036AC  10A004080500      adc [eax+0x50804],ah
000036B2  0000              add [eax],al
000036B4  41                inc ecx
000036B5  0E                push cs
000036B6  084285            or [edx-0x7b],al
000036B9  020D051C0000      add cl,[0x1c05]
000036BF  0000              add [eax],al
000036C1  0000              add [eax],al
000036C3  0020              add [eax],ah
000036C5  A004085A00        mov al,[0x5a0804]
000036CA  0000              add [eax],al
000036CC  41                inc ecx
000036CD  0E                push cs
000036CE  084285            or [edx-0x7b],al
000036D1  020D054E8305      add cl,[0x5834e05]
000036D7  860487            xchg al,[edi+eax*4]
000036DA  0300              add eax,[eax]
000036DC  7368              jnc 0x3746
000036DE  6F                outsd
000036DF  7274              jc 0x3755
000036E1  20756E            and [ebp+0x6e],dh
000036E4  7369              jnc 0x374f
000036E6  676E              a16 outsb
000036E8  656420696E        and [fs:ecx+0x6e],ch
000036ED  7400              jz 0x36ef
000036EF  7368              jnc 0x3759
000036F1  6F                outsd
000036F2  7274              jc 0x3768
000036F4  20696E            and [ecx+0x6e],ch
000036F7  7400              jz 0x36f9
000036F9  5F                pop edi
000036FA  49                dec ecx
000036FB  4F                dec edi
000036FC  5F                pop edi
000036FD  7374              jnc 0x3773
000036FF  64696E5F75736564  imul ebp,[fs:esi+0x5f],dword 0x64657375
00003707  006C6F6E          add [edi+ebp*2+0x6e],ch
0000370B  67206C6F          and [si+0x6f],ch
0000370F  6E                outsb
00003710  6720756E          and [di+0x6e],dh
00003714  7369              jnc 0x377f
00003716  676E              a16 outsb
00003718  656420696E        and [fs:ecx+0x6e],ch
0000371D  7400              jz 0x371f
0000371F  2F                das
00003720  686F6D652F        push dword 0x2f656d6f
00003725  7069              jo 0x3790
00003727  657272            gs jc 0x379c
0000372A  652F              gs das
0000372C  42                inc edx
0000372D  7572              jnz 0x37a1
0000372F  6561              gs popa
00003731  752F              jnz 0x3762
00003733  6865616465        push dword 0x65646165
00003738  7273              jc 0x37ad
0000373A  2D676C6962        sub eax,0x62696c67
0000373F  632D666F722D      arpl [0x2d726f66],bp
00003745  6C                insb
00003746  696E75782F676C    imul ebp,[esi+0x75],dword 0x6c672f78
0000374D  6962632D322E31    imul esp,[edx+0x63],dword 0x312e322d
00003754  322E              xor ch,[esi]
00003756  322F              xor ch,[edi]
00003758  637375            arpl [ebx+0x75],si
0000375B  00756E            add [ebp+0x6e],dh
0000375E  7369              jnc 0x37c9
00003760  676E              a16 outsb
00003762  6564206368        and [fs:ebx+0x68],ah
00003767  61                popa
00003768  7200              jc 0x376a
0000376A  47                inc edi
0000376B  4E                dec esi
0000376C  55                push ebp
0000376D  204320            and [ebx+0x20],al
00003770  342E              xor al,0x2e
00003772  342E              xor al,0x2e
00003774  3300              xor eax,[eax]
00003776  6C                insb
00003777  6F                outsd
00003778  6E                outsb
00003779  67206C6F          and [si+0x6f],ch
0000377D  6E                outsb
0000377E  6720696E          and [bx+di+0x6e],ch
00003782  7400              jz 0x3784
00003784  656E              gs outsb
00003786  7670              jna 0x37f8
00003788  007369            add [ebx+0x69],dh
0000378B  7A65              jpe 0x37f2
0000378D  5F                pop edi
0000378E  7400              jz 0x3790
00003790  61                popa
00003791  7267              jc 0x37fa
00003793  6300              arpl [eax],ax
00003795  5F                pop edi
00003796  5F                pop edi
00003797  6C                insb
00003798  6962635F637375    imul esp,[edx+0x63],dword 0x7573635f
0000379F  5F                pop edi
000037A0  696E697400656C    imul ebp,[esi+0x69],dword 0x6c650074
000037A7  662D696E          sub ax,0x6e69
000037AB  69742E63005F5F69  imul esi,[esi+ebp+0x63],dword 0x695f5f00
000037B3  6E                outsb
000037B4  69745F6172726179  imul esi,[edi+ebx*2+0x61],dword 0x79617272
000037BC  5F                pop edi
000037BD  7374              jnc 0x3833
000037BF  61                popa
000037C0  7274              jc 0x3836
000037C2  007369            add [ebx+0x69],dh
000037C5  7A65              jpe 0x382c
000037C7  005F5F            add [edi+0x5f],bl
000037CA  696E69745F6172    imul ebp,[esi+0x69],dword 0x72615f74
000037D1  7261              jc 0x3834
000037D3  795F              jns 0x3834
000037D5  656E              gs outsb
000037D7  64005F5F          add [fs:edi+0x5f],bl
000037DB  6C                insb
000037DC  6962635F637375    imul esp,[edx+0x63],dword 0x7573635f
000037E3  5F                pop edi
000037E4  66696E690061      imul bp,[esi+0x69],word 0x6100
000037EA  7267              jc 0x3853
000037EC  7600              jna 0x37ee
000037EE  0000              add [eax],al
000037F0  0000              add [eax],al
000037F2  0100              add [eax],eax
000037F4  0000              add [eax],al
000037F6  0200              add al,[eax]
000037F8  7404              jz 0x37fe
000037FA  0100              add [eax],eax
000037FC  0000              add [eax],al
000037FE  0300              add eax,[eax]
00003800  0000              add [eax],al
00003802  0200              add al,[eax]
00003804  7408              jz 0x380e
00003806  0300              add eax,[eax]
00003808  0000              add [eax],al
0000380A  0500000002        add eax,0x2000000
0000380F  007508            add [ebp+0x8],dh
00003812  0000              add [eax],al
00003814  0000              add [eax],al
00003816  0000              add [eax],al
00003818  0000              add [eax],al
0000381A  1000              adc [eax],al
0000381C  0000              add [eax],al
0000381E  1100              adc [eax],eax
00003820  0000              add [eax],al
00003822  0200              add al,[eax]
00003824  7404              jz 0x382a
00003826  1100              adc [eax],eax
00003828  0000              add [eax],al
0000382A  1300              adc eax,[eax]
0000382C  0000              add [eax],al
0000382E  0200              add al,[eax]
00003830  7408              jz 0x383a
00003832  1300              adc eax,[eax]
00003834  0000              add [eax],al
00003836  6A00              push byte +0x0
00003838  0000              add [eax],al
0000383A  0200              add al,[eax]
0000383C  7508              jnz 0x3846
0000383E  0000              add [eax],al
00003840  0000              add [eax],al
00003842  0000              add [eax],al
00003844  0000              add [eax],al
00003846  40                inc eax
00003847  0000              add [eax],al
00003849  006700            add [edi+0x0],ah
0000384C  0000              add [eax],al
0000384E  0100              add [eax],eax
00003850  56                push esi
00003851  0000              add [eax],al
00003853  0000              add [eax],al
00003855  0000              add [eax],al
00003857  0000              add [eax],al
00003859  002E              add [esi],ch
0000385B  7379              jnc 0x38d6
0000385D  6D                insd
0000385E  7461              jz 0x38c1
00003860  6200              bound eax,[eax]
00003862  2E7374            cs jnc 0x38d9
00003865  7274              jc 0x38db
00003867  61                popa
00003868  6200              bound eax,[eax]
0000386A  2E7368            cs jnc 0x38d5
0000386D  7374              jnc 0x38e3
0000386F  7274              jc 0x38e5
00003871  61                popa
00003872  6200              bound eax,[eax]
00003874  2E696E7465727000  imul ebp,[cs:esi+0x74],dword 0x707265
0000387C  2E6E              cs outsb
0000387E  6F                outsd
0000387F  7465              jz 0x38e6
00003881  2E41              cs inc ecx
00003883  42                inc edx
00003884  49                dec ecx
00003885  2D74616700        sub eax,0x676174
0000388A  2E6861736800      cs push dword 0x687361
00003890  2E64796E          fs jns 0x3902
00003894  7379              jnc 0x390f
00003896  6D                insd
00003897  002E              add [esi],ch
00003899  64796E            fs jns 0x390a
0000389C  7374              jnc 0x3912
0000389E  7200              jc 0x38a0
000038A0  2E676E            cs a16 outsb
000038A3  752E              jnz 0x38d3
000038A5  7665              jna 0x390c
000038A7  7273              jc 0x391c
000038A9  696F6E002E676E    imul ebp,[edi+0x6e],dword 0x6e672e00
000038B0  752E              jnz 0x38e0
000038B2  7665              jna 0x3919
000038B4  7273              jc 0x3929
000038B6  696F6E5F72002E    imul ebp,[edi+0x6e],dword 0x2e00725f
000038BD  7265              jc 0x3924
000038BF  6C                insb
000038C0  2E64796E          fs jns 0x3932
000038C4  002E              add [esi],ch
000038C6  7265              jc 0x392d
000038C8  6C                insb
000038C9  2E706C            cs jo 0x3938
000038CC  7400              jz 0x38ce
000038CE  2E696E6974002E74  imul ebp,[cs:esi+0x69],dword 0x742e0074
000038D6  657874            gs js 0x394d
000038D9  002E              add [esi],ch
000038DB  66696E69002E      imul bp,[esi+0x69],word 0x2e00
000038E1  726F              jc 0x3952
000038E3  6461              fs popa
000038E5  7461              jz 0x3948
000038E7  002E              add [esi],ch
000038E9  65685F667261      gs push dword 0x6172665f
000038EF  6D                insd
000038F0  655F              gs pop edi
000038F2  686472002E        push dword 0x2e007264
000038F7  65685F667261      gs push dword 0x6172665f
000038FD  6D                insd
000038FE  65002E            add [gs:esi],ch
00003901  6763635F          arpl [bp+di+0x5f],sp
00003905  657863            gs js 0x396b
00003908  657074            gs jo 0x397f
0000390B  5F                pop edi
0000390C  7461              jz 0x396f
0000390E  626C6500          bound ebp,[ebp+0x0]
00003912  2E63746F72        arpl [cs:edi+ebp*2+0x72],si
00003917  7300              jnc 0x3919
00003919  2E64746F          fs jz 0x398c
0000391D  7273              jc 0x3992
0000391F  002E              add [esi],ch
00003921  6A63              push byte +0x63
00003923  7200              jc 0x3925
00003925  2E64796E          fs jns 0x3997
00003929  61                popa
0000392A  6D                insd
0000392B  6963002E676F74    imul esp,[ebx+0x0],dword 0x746f672e
00003932  002E              add [esi],ch
00003934  676F              a16 outsd
00003936  742E              jz 0x3966
00003938  706C              jo 0x39a6
0000393A  7400              jz 0x393c
0000393C  2E6461            fs popa
0000393F  7461              jz 0x39a2
00003941  002E              add [esi],ch
00003943  627373            bound esi,[ebx+0x73]
00003946  002E              add [esi],ch
00003948  636F6D            arpl [edi+0x6d],bp
0000394B  6D                insd
0000394C  656E              gs outsb
0000394E  7400              jz 0x3950
00003950  2E6465627567      bound esi,[gs:ebp+0x67]
00003956  5F                pop edi
00003957  61                popa
00003958  7261              jc 0x39bb
0000395A  6E                outsb
0000395B  67657300          gs a16 jnc 0x395f
0000395F  2E6465627567      bound esi,[gs:ebp+0x67]
00003965  5F                pop edi
00003966  7075              jo 0x39dd
00003968  626E61            bound ebp,[esi+0x61]
0000396B  6D                insd
0000396C  657300            gs jnc 0x396f
0000396F  2E6465627567      bound esi,[gs:ebp+0x67]
00003975  5F                pop edi
00003976  696E666F002E64    imul ebp,[esi+0x66],dword 0x642e006f
0000397D  65627567          bound esi,[gs:ebp+0x67]
00003981  5F                pop edi
00003982  61                popa
00003983  626272            bound esp,[edx+0x72]
00003986  657600            gs jna 0x3989
00003989  2E6465627567      bound esi,[gs:ebp+0x67]
0000398F  5F                pop edi
00003990  6C                insb
00003991  696E65002E6465    imul ebp,[esi+0x65],dword 0x65642e00
00003998  627567            bound esi,[ebp+0x67]
0000399B  5F                pop edi
0000399C  667261            o16 jc 0x3a00
0000399F  6D                insd
000039A0  65002E            add [gs:esi],ch
000039A3  6465627567        bound esi,[gs:ebp+0x67]
000039A8  5F                pop edi
000039A9  7374              jnc 0x3a1f
000039AB  7200              jc 0x39ad
000039AD  2E6465627567      bound esi,[gs:ebp+0x67]
000039B3  5F                pop edi
000039B4  6C                insb
000039B5  6F                outsd
000039B6  6300              arpl [eax],ax
000039B8  0000              add [eax],al
000039BA  0000              add [eax],al
000039BC  0000              add [eax],al
000039BE  0000              add [eax],al
000039C0  0000              add [eax],al
000039C2  0000              add [eax],al
000039C4  0000              add [eax],al
000039C6  0000              add [eax],al
000039C8  0000              add [eax],al
000039CA  0000              add [eax],al
000039CC  0000              add [eax],al
000039CE  0000              add [eax],al
000039D0  0000              add [eax],al
000039D2  0000              add [eax],al
000039D4  0000              add [eax],al
000039D6  0000              add [eax],al
000039D8  0000              add [eax],al
000039DA  0000              add [eax],al
000039DC  0000              add [eax],al
000039DE  0000              add [eax],al
000039E0  1B00              sbb eax,[eax]
000039E2  0000              add [eax],al
000039E4  0100              add [eax],eax
000039E6  0000              add [eax],al
000039E8  0200              add al,[eax]
000039EA  0000              add [eax],al
000039EC  3481              xor al,0x81
000039EE  0408              add al,0x8
000039F0  3401              xor al,0x1
000039F2  0000              add [eax],al
000039F4  1300              adc eax,[eax]
000039F6  0000              add [eax],al
000039F8  0000              add [eax],al
000039FA  0000              add [eax],al
000039FC  0000              add [eax],al
000039FE  0000              add [eax],al
00003A00  0100              add [eax],eax
00003A02  0000              add [eax],al
00003A04  0000              add [eax],al
00003A06  0000              add [eax],al
00003A08  2300              and eax,[eax]
00003A0A  0000              add [eax],al
00003A0C  07                pop es
00003A0D  0000              add [eax],al
00003A0F  0002              add [edx],al
00003A11  0000              add [eax],al
00003A13  004881            add [eax-0x7f],cl
00003A16  0408              add al,0x8
00003A18  48                dec eax
00003A19  0100              add [eax],eax
00003A1B  0020              add [eax],ah
00003A1D  0000              add [eax],al
00003A1F  0000              add [eax],al
00003A21  0000              add [eax],al
00003A23  0000              add [eax],al
00003A25  0000              add [eax],al
00003A27  000400            add [eax+eax],al
00003A2A  0000              add [eax],al
00003A2C  0000              add [eax],al
00003A2E  0000              add [eax],al
00003A30  3100              xor [eax],eax
00003A32  0000              add [eax],al
00003A34  0500000002        add eax,0x2000000
00003A39  0000              add [eax],al
00003A3B  006881            add [eax-0x7f],ch
00003A3E  0408              add al,0x8
00003A40  68010000B0        push dword 0xb0000001
00003A45  0000              add [eax],al
00003A47  000400            add [eax+eax],al
00003A4A  0000              add [eax],al
00003A4C  0000              add [eax],al
00003A4E  0000              add [eax],al
00003A50  0400              add al,0x0
00003A52  0000              add [eax],al
00003A54  0400              add al,0x0
00003A56  0000              add [eax],al
00003A58  37                aaa
00003A59  0000              add [eax],al
00003A5B  000B              add [ebx],cl
00003A5D  0000              add [eax],al
00003A5F  0002              add [edx],al
00003A61  0000              add [eax],al
00003A63  0018              add [eax],bl
00003A65  82                db 0x82
00003A66  0408              add al,0x8
00003A68  1802              sbb [edx],al
00003A6A  0000              add [eax],al
00003A6C  90                nop
00003A6D  0100              add [eax],eax
00003A6F  000500000001      add [0x1000000],al
00003A75  0000              add [eax],al
00003A77  000400            add [eax+eax],al
00003A7A  0000              add [eax],al
00003A7C  1000              adc [eax],al
00003A7E  0000              add [eax],al
00003A80  3F                aas
00003A81  0000              add [eax],al
00003A83  0003              add [ebx],al
00003A85  0000              add [eax],al
00003A87  0002              add [edx],al
00003A89  0000              add [eax],al
00003A8B  00A8830408A8      add [eax+0xa8080483],ch
00003A91  0300              add eax,[eax]
00003A93  0030              add [eax],dh
00003A95  0200              add al,[eax]
00003A97  0000              add [eax],al
00003A99  0000              add [eax],al
00003A9B  0000              add [eax],al
00003A9D  0000              add [eax],al
00003A9F  0001              add [ecx],al
00003AA1  0000              add [eax],al
00003AA3  0000              add [eax],al
00003AA5  0000              add [eax],al
00003AA7  004700            add [edi+0x0],al
00003AAA  0000              add [eax],al
00003AAC  FF                db 0xFF
00003AAD  FF                db 0xFF
00003AAE  FF6F02            jmp far [edi+0x2]
00003AB1  0000              add [eax],al
00003AB3  00D8              add al,bl
00003AB5  850408            test [eax+ecx],eax
00003AB8  D80500003200      fadd dword [0x320000]
00003ABE  0000              add [eax],al
00003AC0  0400              add al,0x0
00003AC2  0000              add [eax],al
00003AC4  0000              add [eax],al
00003AC6  0000              add [eax],al
00003AC8  0200              add al,[eax]
00003ACA  0000              add [eax],al
00003ACC  0200              add al,[eax]
00003ACE  0000              add [eax],al
00003AD0  54                push esp
00003AD1  0000              add [eax],al
00003AD3  00FE              add dh,bh
00003AD5  FF                db 0xFF
00003AD6  FF6F02            jmp far [edi+0x2]
00003AD9  0000              add [eax],al
00003ADB  000C86            add [esi+eax*4],cl
00003ADE  0408              add al,0x8
00003AE0  0C06              or al,0x6
00003AE2  0000              add [eax],al
00003AE4  B000              mov al,0x0
00003AE6  0000              add [eax],al
00003AE8  0500000004        add eax,0x4000000
00003AED  0000              add [eax],al
00003AEF  000400            add [eax+eax],al
00003AF2  0000              add [eax],al
00003AF4  0000              add [eax],al
00003AF6  0000              add [eax],al
00003AF8  6300              arpl [eax],ax
00003AFA  0000              add [eax],al
00003AFC  0900              or [eax],eax
00003AFE  0000              add [eax],al
00003B00  0200              add al,[eax]
00003B02  0000              add [eax],al
00003B04  BC860408BC        mov esp,0xbc080486
00003B09  06                push es
00003B0A  0000              add [eax],al
00003B0C  1800              sbb [eax],al
00003B0E  0000              add [eax],al
00003B10  0400              add al,0x0
00003B12  0000              add [eax],al
00003B14  0000              add [eax],al
00003B16  0000              add [eax],al
00003B18  0400              add al,0x0
00003B1A  0000              add [eax],al
00003B1C  0800              or [eax],al
00003B1E  0000              add [eax],al
00003B20  6C                insb
00003B21  0000              add [eax],al
00003B23  0009              add [ecx],cl
00003B25  0000              add [eax],al
00003B27  0002              add [edx],al
00003B29  0000              add [eax],al
00003B2B  00D4              add ah,dl
00003B2D  860408            xchg al,[eax+ecx]
00003B30  D406              aam 0x6
00003B32  0000              add [eax],al
00003B34  90                nop
00003B35  0000              add [eax],al
00003B37  000400            add [eax+eax],al
00003B3A  0000              add [eax],al
00003B3C  0B00              or eax,[eax]
00003B3E  0000              add [eax],al
00003B40  0400              add al,0x0
00003B42  0000              add [eax],al
00003B44  0800              or [eax],al
00003B46  0000              add [eax],al
00003B48  7500              jnz 0x3b4a
00003B4A  0000              add [eax],al
00003B4C  0100              add [eax],eax
00003B4E  0000              add [eax],al
00003B50  06                push es
00003B51  0000              add [eax],al
00003B53  00648704          add [edi+eax*4+0x4],ah
00003B57  08640700          or [edi+eax+0x0],ah
00003B5B  0030              add [eax],dh
00003B5D  0000              add [eax],al
00003B5F  0000              add [eax],al
00003B61  0000              add [eax],al
00003B63  0000              add [eax],al
00003B65  0000              add [eax],al
00003B67  000400            add [eax+eax],al
00003B6A  0000              add [eax],al
00003B6C  0000              add [eax],al
00003B6E  0000              add [eax],al
00003B70  7000              jo 0x3b72
00003B72  0000              add [eax],al
00003B74  0100              add [eax],eax
00003B76  0000              add [eax],al
00003B78  06                push es
00003B79  0000              add [eax],al
00003B7B  00A0870408A0      add [eax+0xa0080487],ah
00003B81  07                pop es
00003B82  0000              add [eax],al
00003B84  3001              xor [ecx],al
00003B86  0000              add [eax],al
00003B88  0000              add [eax],al
00003B8A  0000              add [eax],al
00003B8C  0000              add [eax],al
00003B8E  0000              add [eax],al
00003B90  1000              adc [eax],al
00003B92  0000              add [eax],al
00003B94  0400              add al,0x0
00003B96  0000              add [eax],al
00003B98  7B00              jpo 0x3b9a
00003B9A  0000              add [eax],al
00003B9C  0100              add [eax],eax
00003B9E  0000              add [eax],al
00003BA0  06                push es
00003BA1  0000              add [eax],al
00003BA3  00D0              add al,dl
00003BA5  880408            mov [eax+ecx],al
00003BA8  D008              ror byte [eax],1
00003BAA  0000              add [eax],al
00003BAC  D817              fcom dword [edi]
00003BAE  0000              add [eax],al
00003BB0  0000              add [eax],al
00003BB2  0000              add [eax],al
00003BB4  0000              add [eax],al
00003BB6  0000              add [eax],al
00003BB8  1000              adc [eax],al
00003BBA  0000              add [eax],al
00003BBC  0000              add [eax],al
00003BBE  0000              add [eax],al
00003BC0  810000000100      add dword [eax],0x10000
00003BC6  0000              add [eax],al
00003BC8  06                push es
00003BC9  0000              add [eax],al
00003BCB  00A8A00408A8      add [eax+0xa80804a0],ch
00003BD1  2000              and [eax],al
00003BD3  001C00            add [eax+eax],bl
00003BD6  0000              add [eax],al
00003BD8  0000              add [eax],al
00003BDA  0000              add [eax],al
00003BDC  0000              add [eax],al
00003BDE  0000              add [eax],al
00003BE0  0400              add al,0x0
00003BE2  0000              add [eax],al
00003BE4  0000              add [eax],al
00003BE6  0000              add [eax],al
00003BE8  8700              xchg eax,[eax]
00003BEA  0000              add [eax],al
00003BEC  0100              add [eax],eax
00003BEE  0000              add [eax],al
00003BF0  0200              add al,[eax]
00003BF2  0000              add [eax],al
00003BF4  C8A00408          enter 0x4a0,0x8
00003BF8  C8200000          enter 0x20,0x0
00003BFC  2000              and [eax],al
00003BFE  0000              add [eax],al
00003C00  0000              add [eax],al
00003C02  0000              add [eax],al
00003C04  0000              add [eax],al
00003C06  0000              add [eax],al
00003C08  0800              or [eax],al
00003C0A  0000              add [eax],al
00003C0C  0000              add [eax],al
00003C0E  0000              add [eax],al
00003C10  8F00              pop dword [eax]
00003C12  0000              add [eax],al
00003C14  0100              add [eax],eax
00003C16  0000              add [eax],al
00003C18  0200              add al,[eax]
00003C1A  0000              add [eax],al
00003C1C  E8A00408E8        call 0xe80840c1
00003C21  2000              and [eax],al
00003C23  00CC              add ah,cl
00003C25  0100              add [eax],eax
00003C27  0000              add [eax],al
00003C29  0000              add [eax],al
00003C2B  0000              add [eax],al
00003C2D  0000              add [eax],al
00003C2F  000400            add [eax+eax],al
00003C32  0000              add [eax],al
00003C34  0000              add [eax],al
00003C36  0000              add [eax],al
00003C38  9D                popf
00003C39  0000              add [eax],al
00003C3B  0001              add [ecx],al
00003C3D  0000              add [eax],al
00003C3F  0002              add [edx],al
00003C41  0000              add [eax],al
00003C43  00B4A20408B422    add [edx+0x22b40804],dh
00003C4A  0000              add [eax],al
00003C4C  A807              test al,0x7
00003C4E  0000              add [eax],al
00003C50  0000              add [eax],al
00003C52  0000              add [eax],al
00003C54  0000              add [eax],al
00003C56  0000              add [eax],al
00003C58  0400              add al,0x0
00003C5A  0000              add [eax],al
00003C5C  0000              add [eax],al
00003C5E  0000              add [eax],al
00003C60  A7                cmpsd
00003C61  0000              add [eax],al
00003C63  0001              add [ecx],al
00003C65  0000              add [eax],al
00003C67  0002              add [edx],al
00003C69  0000              add [eax],al
00003C6B  005CAA04          add [edx+ebp*4+0x4],bl
00003C6F  085C2A00          or [edx+ebp+0x0],bl
00003C73  0033              add [ebx],dh
00003C75  0000              add [eax],al
00003C77  0000              add [eax],al
00003C79  0000              add [eax],al
00003C7B  0000              add [eax],al
00003C7D  0000              add [eax],al
00003C7F  0001              add [ecx],al
00003C81  0000              add [eax],al
00003C83  0000              add [eax],al
00003C85  0000              add [eax],al
00003C87  00B900000001      add [ecx+0x1000000],bh
00003C8D  0000              add [eax],al
00003C8F  0003              add [ebx],al
00003C91  0000              add [eax],al
00003C93  0000              add [eax],al
00003C95  B004              mov al,0x4
00003C97  0800              or [eax],al
00003C99  3000              xor [eax],al
00003C9B  000C00            add [eax+eax],cl
00003C9E  0000              add [eax],al
00003CA0  0000              add [eax],al
00003CA2  0000              add [eax],al
00003CA4  0000              add [eax],al
00003CA6  0000              add [eax],al
00003CA8  0400              add al,0x0
00003CAA  0000              add [eax],al
00003CAC  0000              add [eax],al
00003CAE  0000              add [eax],al
00003CB0  C00000            rol byte [eax],0x0
00003CB3  0001              add [ecx],al
00003CB5  0000              add [eax],al
00003CB7  0003              add [ebx],al
00003CB9  0000              add [eax],al
00003CBB  000CB0            add [eax+esi*4],cl
00003CBE  0408              add al,0x8
00003CC0  0C30              or al,0x30
00003CC2  0000              add [eax],al
00003CC4  0800              or [eax],al
00003CC6  0000              add [eax],al
00003CC8  0000              add [eax],al
00003CCA  0000              add [eax],al
00003CCC  0000              add [eax],al
00003CCE  0000              add [eax],al
00003CD0  0400              add al,0x0
00003CD2  0000              add [eax],al
00003CD4  0000              add [eax],al
00003CD6  0000              add [eax],al
00003CD8  C70000000100      mov dword [eax],0x10000
00003CDE  0000              add [eax],al
00003CE0  0300              add eax,[eax]
00003CE2  0000              add [eax],al
00003CE4  14B0              adc al,0xb0
00003CE6  0408              add al,0x8
00003CE8  1430              adc al,0x30
00003CEA  0000              add [eax],al
00003CEC  0400              add al,0x0
00003CEE  0000              add [eax],al
00003CF0  0000              add [eax],al
00003CF2  0000              add [eax],al
00003CF4  0000              add [eax],al
00003CF6  0000              add [eax],al
00003CF8  0400              add al,0x0
00003CFA  0000              add [eax],al
00003CFC  0000              add [eax],al
00003CFE  0000              add [eax],al
00003D00  CC                int3
00003D01  0000              add [eax],al
00003D03  0006              add [esi],al
00003D05  0000              add [eax],al
00003D07  0003              add [ebx],al
00003D09  0000              add [eax],al
00003D0B  0018              add [eax],bl
00003D0D  B004              mov al,0x4
00003D0F  0818              or [eax],bl
00003D11  3000              xor [eax],al
00003D13  00E0              add al,ah
00003D15  0000              add [eax],al
00003D17  000500000000      add [0x0],al
00003D1D  0000              add [eax],al
00003D1F  000400            add [eax+eax],al
00003D22  0000              add [eax],al
00003D24  0800              or [eax],al
00003D26  0000              add [eax],al
00003D28  D500              aad 0x0
00003D2A  0000              add [eax],al
00003D2C  0100              add [eax],eax
00003D2E  0000              add [eax],al
00003D30  0300              add eax,[eax]
00003D32  0000              add [eax],al
00003D34  F8                clc
00003D35  B004              mov al,0x4
00003D37  08F8              or al,bh
00003D39  3000              xor [eax],al
00003D3B  000400            add [eax+eax],al
00003D3E  0000              add [eax],al
00003D40  0000              add [eax],al
00003D42  0000              add [eax],al
00003D44  0000              add [eax],al
00003D46  0000              add [eax],al
00003D48  0400              add al,0x0
00003D4A  0000              add [eax],al
00003D4C  0400              add al,0x0
00003D4E  0000              add [eax],al
00003D50  DA00              fiadd dword [eax]
00003D52  0000              add [eax],al
00003D54  0100              add [eax],eax
00003D56  0000              add [eax],al
00003D58  0300              add eax,[eax]
00003D5A  0000              add [eax],al
00003D5C  FC                cld
00003D5D  B004              mov al,0x4
00003D5F  08FC              or ah,bh
00003D61  3000              xor [eax],al
00003D63  00540000          add [eax+eax+0x0],dl
00003D67  0000              add [eax],al
00003D69  0000              add [eax],al
00003D6B  0000              add [eax],al
00003D6D  0000              add [eax],al
00003D6F  000400            add [eax+eax],al
00003D72  0000              add [eax],al
00003D74  0400              add al,0x0
00003D76  0000              add [eax],al
00003D78  E300              jecxz 0x3d7a
00003D7A  0000              add [eax],al
00003D7C  0100              add [eax],eax
00003D7E  0000              add [eax],al
00003D80  0300              add eax,[eax]
00003D82  0000              add [eax],al
00003D84  50                push eax
00003D85  B104              mov cl,0x4
00003D87  085031            or [eax+0x31],dl
00003D8A  0000              add [eax],al
00003D8C  1000              adc [eax],al
00003D8E  0000              add [eax],al
00003D90  0000              add [eax],al
00003D92  0000              add [eax],al
00003D94  0000              add [eax],al
00003D96  0000              add [eax],al
00003D98  0800              or [eax],al
00003D9A  0000              add [eax],al
00003D9C  0000              add [eax],al
00003D9E  0000              add [eax],al
00003DA0  E900000008        jmp 0x8003da5
00003DA5  0000              add [eax],al
00003DA7  0003              add [ebx],al
00003DA9  0000              add [eax],al
00003DAB  0060B1            add [eax-0x4f],ah
00003DAE  0408              add al,0x8
00003DB0  60                pusha
00003DB1  3100              xor [eax],eax
00003DB3  00445800          add [eax+ebx*2+0x0],al
00003DB7  0000              add [eax],al
00003DB9  0000              add [eax],al
00003DBB  0000              add [eax],al
00003DBD  0000              add [eax],al
00003DBF  0020              add [eax],ah
00003DC1  0000              add [eax],al
00003DC3  0000              add [eax],al
00003DC5  0000              add [eax],al
00003DC7  00EE              add dh,ch
00003DC9  0000              add [eax],al
00003DCB  0001              add [ecx],al
00003DCD  0000              add [eax],al
00003DCF  0030              add [eax],dh
00003DD1  0000              add [eax],al
00003DD3  0000              add [eax],al
00003DD5  0000              add [eax],al
00003DD7  006031            add [eax+0x31],ah
00003DDA  0000              add [eax],al
00003DDC  3400              xor al,0x0
00003DDE  0000              add [eax],al
00003DE0  0000              add [eax],al
00003DE2  0000              add [eax],al
00003DE4  0000              add [eax],al
00003DE6  0000              add [eax],al
00003DE8  0100              add [eax],eax
00003DEA  0000              add [eax],al
00003DEC  0100              add [eax],eax
00003DEE  0000              add [eax],al
00003DF0  F70000000100      test dword [eax],0x10000
00003DF6  0000              add [eax],al
00003DF8  0000              add [eax],al
00003DFA  0000              add [eax],al
00003DFC  0000              add [eax],al
00003DFE  0000              add [eax],al
00003E00  98                cwde
00003E01  3100              xor [eax],eax
00003E03  004000            add [eax+0x0],al
00003E06  0000              add [eax],al
00003E08  0000              add [eax],al
00003E0A  0000              add [eax],al
00003E0C  0000              add [eax],al
00003E0E  0000              add [eax],al
00003E10  0800              or [eax],al
00003E12  0000              add [eax],al
00003E14  0000              add [eax],al
00003E16  0000              add [eax],al
00003E18  06                push es
00003E19  0100              add [eax],eax
00003E1B  0001              add [ecx],al
00003E1D  0000              add [eax],al
00003E1F  0000              add [eax],al
00003E21  0000              add [eax],al
00003E23  0000              add [eax],al
00003E25  0000              add [eax],al
00003E27  00D8              add al,bl
00003E29  3100              xor [eax],eax
00003E2B  005F00            add [edi+0x0],bl
00003E2E  0000              add [eax],al
00003E30  0000              add [eax],al
00003E32  0000              add [eax],al
00003E34  0000              add [eax],al
00003E36  0000              add [eax],al
00003E38  0100              add [eax],eax
00003E3A  0000              add [eax],al
00003E3C  0000              add [eax],al
00003E3E  0000              add [eax],al
00003E40  16                push ss
00003E41  0100              add [eax],eax
00003E43  0001              add [ecx],al
00003E45  0000              add [eax],al
00003E47  0000              add [eax],al
00003E49  0000              add [eax],al
00003E4B  0000              add [eax],al
00003E4D  0000              add [eax],al
00003E4F  0037              add [edi],dh
00003E51  3200              xor al,[eax]
00003E53  0021              add [ecx],ah
00003E55  0200              add al,[eax]
00003E57  0000              add [eax],al
00003E59  0000              add [eax],al
00003E5B  0000              add [eax],al
00003E5D  0000              add [eax],al
00003E5F  0001              add [ecx],al
00003E61  0000              add [eax],al
00003E63  0000              add [eax],al
00003E65  0000              add [eax],al
00003E67  0022              add [edx],ah
00003E69  0100              add [eax],eax
00003E6B  0001              add [ecx],al
00003E6D  0000              add [eax],al
00003E6F  0000              add [eax],al
00003E71  0000              add [eax],al
00003E73  0000              add [eax],al
00003E75  0000              add [eax],al
00003E77  005834            add [eax+0x34],bl
00003E7A  0000              add [eax],al
00003E7C  3501000000        xor eax,0x1
00003E81  0000              add [eax],al
00003E83  0000              add [eax],al
00003E85  0000              add [eax],al
00003E87  0001              add [ecx],al
00003E89  0000              add [eax],al
00003E8B  0000              add [eax],al
00003E8D  0000              add [eax],al
00003E8F  0030              add [eax],dh
00003E91  0100              add [eax],eax
00003E93  0001              add [ecx],al
00003E95  0000              add [eax],al
00003E97  0000              add [eax],al
00003E99  0000              add [eax],al
00003E9B  0000              add [eax],al
00003E9D  0000              add [eax],al
00003E9F  008D35000001      add [ebp+0x1000035],cl
00003EA5  0100              add [eax],eax
00003EA7  0000              add [eax],al
00003EA9  0000              add [eax],al
00003EAB  0000              add [eax],al
00003EAD  0000              add [eax],al
00003EAF  0001              add [ecx],al
00003EB1  0000              add [eax],al
00003EB3  0000              add [eax],al
00003EB5  0000              add [eax],al
00003EB7  003C01            add [ecx+eax],bh
00003EBA  0000              add [eax],al
00003EBC  0100              add [eax],eax
00003EBE  0000              add [eax],al
00003EC0  0000              add [eax],al
00003EC2  0000              add [eax],al
00003EC4  0000              add [eax],al
00003EC6  0000              add [eax],al
00003EC8  90                nop
00003EC9  360000            add [ss:eax],al
00003ECC  4C                dec esp
00003ECD  0000              add [eax],al
00003ECF  0000              add [eax],al
00003ED1  0000              add [eax],al
00003ED3  0000              add [eax],al
00003ED5  0000              add [eax],al
00003ED7  000400            add [eax+eax],al
00003EDA  0000              add [eax],al
00003EDC  0000              add [eax],al
00003EDE  0000              add [eax],al
00003EE0  49                dec ecx
00003EE1  0100              add [eax],eax
00003EE3  0001              add [ecx],al
00003EE5  0000              add [eax],al
00003EE7  0030              add [eax],dh
00003EE9  0000              add [eax],al
00003EEB  0000              add [eax],al
00003EED  0000              add [eax],al
00003EEF  00DC              add ah,bl
00003EF1  360000            add [ss:eax],al
00003EF4  1201              adc al,[ecx]
00003EF6  0000              add [eax],al
00003EF8  0000              add [eax],al
00003EFA  0000              add [eax],al
00003EFC  0000              add [eax],al
00003EFE  0000              add [eax],al
00003F00  0100              add [eax],eax
00003F02  0000              add [eax],al
00003F04  0100              add [eax],eax
00003F06  0000              add [eax],al
00003F08  54                push esp
00003F09  0100              add [eax],eax
00003F0B  0001              add [ecx],al
00003F0D  0000              add [eax],al
00003F0F  0000              add [eax],al
00003F11  0000              add [eax],al
00003F13  0000              add [eax],al
00003F15  0000              add [eax],al
00003F17  00EE              add dh,ch
00003F19  37                aaa
00003F1A  0000              add [eax],al
00003F1C  6B0000            imul eax,[eax],byte +0x0
00003F1F  0000              add [eax],al
00003F21  0000              add [eax],al
00003F23  0000              add [eax],al
00003F25  0000              add [eax],al
00003F27  0001              add [ecx],al
00003F29  0000              add [eax],al
00003F2B  0000              add [eax],al
00003F2D  0000              add [eax],al
00003F2F  0011              add [ecx],dl
00003F31  0000              add [eax],al
00003F33  0003              add [ebx],al
00003F35  0000              add [eax],al
00003F37  0000              add [eax],al
00003F39  0000              add [eax],al
00003F3B  0000              add [eax],al
00003F3D  0000              add [eax],al
00003F3F  005938            add [ecx+0x38],bl
00003F42  0000              add [eax],al
00003F44  5F                pop edi
00003F45  0100              add [eax],eax
00003F47  0000              add [eax],al
00003F49  0000              add [eax],al
00003F4B  0000              add [eax],al
00003F4D  0000              add [eax],al
00003F4F  0001              add [ecx],al
00003F51  0000              add [eax],al
00003F53  0000              add [eax],al
00003F55  0000              add [eax],al
00003F57  0001              add [ecx],al
00003F59  0000              add [eax],al
00003F5B  0002              add [edx],al
00003F5D  0000              add [eax],al
00003F5F  0000              add [eax],al
00003F61  0000              add [eax],al
00003F63  0000              add [eax],al
00003F65  0000              add [eax],al
00003F67  00A83F000030      add [eax+0x3000003f],ch
00003F6D  0A00              or al,[eax]
00003F6F  00250000003F      add [0x3f000000],ah
00003F75  0000              add [eax],al
00003F77  000400            add [eax+eax],al
00003F7A  0000              add [eax],al
00003F7C  1000              adc [eax],al
00003F7E  0000              add [eax],al
00003F80  0900              or [eax],eax
00003F82  0000              add [eax],al
00003F84  0300              add eax,[eax]
00003F86  0000              add [eax],al
00003F88  0000              add [eax],al
00003F8A  0000              add [eax],al
00003F8C  0000              add [eax],al
00003F8E  0000              add [eax],al
00003F90  D84900            fmul dword [ecx+0x0]
00003F93  0006              add [esi],al
00003F95  0C00              or al,0x0
00003F97  0000              add [eax],al
00003F99  0000              add [eax],al
00003F9B  0000              add [eax],al
00003F9D  0000              add [eax],al
00003F9F  0001              add [ecx],al
00003FA1  0000              add [eax],al
00003FA3  0000              add [eax],al
00003FA5  0000              add [eax],al
00003FA7  0000              add [eax],al
00003FA9  0000              add [eax],al
00003FAB  0000              add [eax],al
00003FAD  0000              add [eax],al
00003FAF  0000              add [eax],al
00003FB1  0000              add [eax],al
00003FB3  0000              add [eax],al
00003FB5  0000              add [eax],al
00003FB7  0000              add [eax],al
00003FB9  0000              add [eax],al
00003FBB  003481            add [ecx+eax*4],dh
00003FBE  0408              add al,0x8
00003FC0  0000              add [eax],al
00003FC2  0000              add [eax],al
00003FC4  0300              add eax,[eax]
00003FC6  0100              add [eax],eax
00003FC8  0000              add [eax],al
00003FCA  0000              add [eax],al
00003FCC  48                dec eax
00003FCD  81040800000000    add dword [eax+ecx],0x0
00003FD4  0300              add eax,[eax]
00003FD6  0200              add al,[eax]
00003FD8  0000              add [eax],al
00003FDA  0000              add [eax],al
00003FDC  6881040800        push dword 0x80481
00003FE1  0000              add [eax],al
00003FE3  0003              add [ebx],al
00003FE5  0003              add [ebx],al
00003FE7  0000              add [eax],al
00003FE9  0000              add [eax],al
00003FEB  0018              add [eax],bl
00003FED  82                db 0x82
00003FEE  0408              add al,0x8
00003FF0  0000              add [eax],al
00003FF2  0000              add [eax],al
00003FF4  0300              add eax,[eax]
00003FF6  0400              add al,0x0
00003FF8  0000              add [eax],al
00003FFA  0000              add [eax],al
00003FFC  A883              test al,0x83
00003FFE  0408              add al,0x8
00004000  0000              add [eax],al
00004002  0000              add [eax],al
00004004  0300              add eax,[eax]
00004006  0500000000        add eax,0x0
0000400B  00D8              add al,bl
0000400D  850408            test [eax+ecx],eax
00004010  0000              add [eax],al
00004012  0000              add [eax],al
00004014  0300              add eax,[eax]
00004016  06                push es
00004017  0000              add [eax],al
00004019  0000              add [eax],al
0000401B  000C86            add [esi+eax*4],cl
0000401E  0408              add al,0x8
00004020  0000              add [eax],al
00004022  0000              add [eax],al
00004024  0300              add eax,[eax]
00004026  07                pop es
00004027  0000              add [eax],al
00004029  0000              add [eax],al
0000402B  00BC8604080000    add [esi+eax*4+0x804],bh
00004032  0000              add [eax],al
00004034  0300              add eax,[eax]
00004036  0800              or [eax],al
00004038  0000              add [eax],al
0000403A  0000              add [eax],al
0000403C  D486              aam 0x86
0000403E  0408              add al,0x8
00004040  0000              add [eax],al
00004042  0000              add [eax],al
00004044  0300              add eax,[eax]
00004046  0900              or [eax],eax
00004048  0000              add [eax],al
0000404A  0000              add [eax],al
0000404C  64870408          xchg eax,[fs:eax+ecx]
00004050  0000              add [eax],al
00004052  0000              add [eax],al
00004054  0300              add eax,[eax]
00004056  0A00              or al,[eax]
00004058  0000              add [eax],al
0000405A  0000              add [eax],al
0000405C  A087040800        mov al,[0x80487]
00004061  0000              add [eax],al
00004063  0003              add [ebx],al
00004065  000B              add [ebx],cl
00004067  0000              add [eax],al
00004069  0000              add [eax],al
0000406B  00D0              add al,dl
0000406D  880408            mov [eax+ecx],al
00004070  0000              add [eax],al
00004072  0000              add [eax],al
00004074  0300              add eax,[eax]
00004076  0C00              or al,0x0
00004078  0000              add [eax],al
0000407A  0000              add [eax],al
0000407C  A8A0              test al,0xa0
0000407E  0408              add al,0x8
00004080  0000              add [eax],al
00004082  0000              add [eax],al
00004084  0300              add eax,[eax]
00004086  0D00000000        or eax,0x0
0000408B  00C8              add al,cl
0000408D  A004080000        mov al,[0x804]
00004092  0000              add [eax],al
00004094  0300              add eax,[eax]
00004096  0E                push cs
00004097  0000              add [eax],al
00004099  0000              add [eax],al
0000409B  00E8              add al,ch
0000409D  A004080000        mov al,[0x804]
000040A2  0000              add [eax],al
000040A4  0300              add eax,[eax]
000040A6  0F0000            sldt [eax]
000040A9  0000              add [eax],al
000040AB  00B4A204080000    add [edx+0x804],dh
000040B2  0000              add [eax],al
000040B4  0300              add eax,[eax]
000040B6  1000              adc [eax],al
000040B8  0000              add [eax],al
000040BA  0000              add [eax],al
000040BC  5C                pop esp
000040BD  AA                stosb
000040BE  0408              add al,0x8
000040C0  0000              add [eax],al
000040C2  0000              add [eax],al
000040C4  0300              add eax,[eax]
000040C6  1100              adc [eax],eax
000040C8  0000              add [eax],al
000040CA  0000              add [eax],al
000040CC  00B004080000      add [eax+0x804],dh
000040D2  0000              add [eax],al
000040D4  0300              add eax,[eax]
000040D6  1200              adc al,[eax]
000040D8  0000              add [eax],al
000040DA  0000              add [eax],al
000040DC  0CB0              or al,0xb0
000040DE  0408              add al,0x8
000040E0  0000              add [eax],al
000040E2  0000              add [eax],al
000040E4  0300              add eax,[eax]
000040E6  1300              adc eax,[eax]
000040E8  0000              add [eax],al
000040EA  0000              add [eax],al
000040EC  14B0              adc al,0xb0
000040EE  0408              add al,0x8
000040F0  0000              add [eax],al
000040F2  0000              add [eax],al
000040F4  0300              add eax,[eax]
000040F6  1400              adc al,0x0
000040F8  0000              add [eax],al
000040FA  0000              add [eax],al
000040FC  18B004080000      sbb [eax+0x804],dh
00004102  0000              add [eax],al
00004104  0300              add eax,[eax]
00004106  1500000000        adc eax,0x0
0000410B  00F8              add al,bh
0000410D  B004              mov al,0x4
0000410F  0800              or [eax],al
00004111  0000              add [eax],al
00004113  0003              add [ebx],al
00004115  0016              add [esi],dl
00004117  0000              add [eax],al
00004119  0000              add [eax],al
0000411B  00FC              add ah,bh
0000411D  B004              mov al,0x4
0000411F  0800              or [eax],al
00004121  0000              add [eax],al
00004123  0003              add [ebx],al
00004125  0017              add [edi],dl
00004127  0000              add [eax],al
00004129  0000              add [eax],al
0000412B  0050B1            add [eax-0x4f],dl
0000412E  0408              add al,0x8
00004130  0000              add [eax],al
00004132  0000              add [eax],al
00004134  0300              add eax,[eax]
00004136  1800              sbb [eax],al
00004138  0000              add [eax],al
0000413A  0000              add [eax],al
0000413C  60                pusha
0000413D  B104              mov cl,0x4
0000413F  0800              or [eax],al
00004141  0000              add [eax],al
00004143  0003              add [ebx],al
00004145  0019              add [ecx],bl
00004147  0000              add [eax],al
00004149  0000              add [eax],al
0000414B  0000              add [eax],al
0000414D  0000              add [eax],al
0000414F  0000              add [eax],al
00004151  0000              add [eax],al
00004153  0003              add [ebx],al
00004155  001A              add [edx],bl
00004157  0000              add [eax],al
00004159  0000              add [eax],al
0000415B  0000              add [eax],al
0000415D  0000              add [eax],al
0000415F  0000              add [eax],al
00004161  0000              add [eax],al
00004163  0003              add [ebx],al
00004165  001B              add [ebx],bl
00004167  0000              add [eax],al
00004169  0000              add [eax],al
0000416B  0000              add [eax],al
0000416D  0000              add [eax],al
0000416F  0000              add [eax],al
00004171  0000              add [eax],al
00004173  0003              add [ebx],al
00004175  001C00            add [eax+eax],bl
00004178  0000              add [eax],al
0000417A  0000              add [eax],al
0000417C  0000              add [eax],al
0000417E  0000              add [eax],al
00004180  0000              add [eax],al
00004182  0000              add [eax],al
00004184  0300              add eax,[eax]
00004186  1D00000000        sbb eax,0x0
0000418B  0000              add [eax],al
0000418D  0000              add [eax],al
0000418F  0000              add [eax],al
00004191  0000              add [eax],al
00004193  0003              add [ebx],al
00004195  001E              add [esi],bl
00004197  0000              add [eax],al
00004199  0000              add [eax],al
0000419B  0000              add [eax],al
0000419D  0000              add [eax],al
0000419F  0000              add [eax],al
000041A1  0000              add [eax],al
000041A3  0003              add [ebx],al
000041A5  001F              add [edi],bl
000041A7  0000              add [eax],al
000041A9  0000              add [eax],al
000041AB  0000              add [eax],al
000041AD  0000              add [eax],al
000041AF  0000              add [eax],al
000041B1  0000              add [eax],al
000041B3  0003              add [ebx],al
000041B5  0020              add [eax],ah
000041B7  0000              add [eax],al
000041B9  0000              add [eax],al
000041BB  0000              add [eax],al
000041BD  0000              add [eax],al
000041BF  0000              add [eax],al
000041C1  0000              add [eax],al
000041C3  0003              add [ebx],al
000041C5  0021              add [ecx],ah
000041C7  0000              add [eax],al
000041C9  0000              add [eax],al
000041CB  0000              add [eax],al
000041CD  0000              add [eax],al
000041CF  0000              add [eax],al
000041D1  0000              add [eax],al
000041D3  0003              add [ebx],al
000041D5  0022              add [edx],ah
000041D7  0001              add [ecx],al
000041D9  0000              add [eax],al
000041DB  0000              add [eax],al
000041DD  0000              add [eax],al
000041DF  0000              add [eax],al
000041E1  0000              add [eax],al
000041E3  000400            add [eax+eax],al
000041E6  F1                int1
000041E7  FF08              dec dword [eax]
000041E9  0000              add [eax],al
000041EB  0000              add [eax],al
000041ED  0000              add [eax],al
000041EF  0000              add [eax],al
000041F1  0000              add [eax],al
000041F3  000400            add [eax+eax],al
000041F6  F1                int1
000041F7  FF13              call near [ebx]
000041F9  0000              add [eax],al
000041FB  0000              add [eax],al
000041FD  0000              add [eax],al
000041FF  0000              add [eax],al
00004201  0000              add [eax],al
00004203  000400            add [eax+eax],al
00004206  F1                int1
00004207  FF1E              call far [esi]
00004209  0000              add [eax],al
0000420B  0000              add [eax],al
0000420D  B004              mov al,0x4
0000420F  0800              or [eax],al
00004211  0000              add [eax],al
00004213  0001              add [ecx],al
00004215  0012              add [edx],dl
00004217  002C00            add [eax+eax],ch
0000421A  0000              add [eax],al
0000421C  0CB0              or al,0xb0
0000421E  0408              add al,0x8
00004220  0000              add [eax],al
00004222  0000              add [eax],al
00004224  0100              add [eax],eax
00004226  1300              adc eax,[eax]
00004228  3A00              cmp al,[eax]
0000422A  0000              add [eax],al
0000422C  14B0              adc al,0xb0
0000422E  0408              add al,0x8
00004230  0000              add [eax],al
00004232  0000              add [eax],al
00004234  0100              add [eax],eax
00004236  1400              adc al,0x0
00004238  47                inc edi
00004239  0000              add [eax],al
0000423B  0000              add [eax],al
0000423D  890408            mov [eax+ecx],eax
00004240  0000              add [eax],al
00004242  0000              add [eax],al
00004244  0200              add al,[eax]
00004246  0C00              or al,0x0
00004248  5C                pop esp
00004249  0000              add [eax],al
0000424B  0030              add [eax],dh
0000424D  890408            mov [eax+ecx],eax
00004250  0000              add [eax],al
00004252  0000              add [eax],al
00004254  0200              add al,[eax]
00004256  0C00              or al,0x0
00004258  6F                outsd
00004259  0000              add [eax],al
0000425B  007089            add [eax-0x77],dh
0000425E  0408              add al,0x8
00004260  0000              add [eax],al
00004262  0000              add [eax],al
00004264  0200              add al,[eax]
00004266  0C00              or al,0x0
00004268  8500              test [eax],eax
0000426A  0000              add [eax],al
0000426C  8CB204080100      mov [edx+0x10804],segr6
00004272  0000              add [eax],al
00004274  0100              add [eax],eax
00004276  1900              sbb [eax],eax
00004278  94                xchg eax,esp
00004279  0000              add [eax],al
0000427B  0090B2040804      add [eax+0x40804b2],dl
00004281  0000              add [eax],al
00004283  0001              add [ecx],al
00004285  0019              add [ecx],bl
00004287  00A2000000C0      add [edx+0xc0000000],ah
0000428D  890408            mov [eax+ecx],eax
00004290  0000              add [eax],al
00004292  0000              add [eax],al
00004294  0200              add al,[eax]
00004296  0C00              or al,0x0
00004298  1300              adc eax,[eax]
0000429A  0000              add [eax],al
0000429C  0000              add [eax],al
0000429E  0000              add [eax],al
000042A0  0000              add [eax],al
000042A2  0000              add [eax],al
000042A4  0400              add al,0x0
000042A6  F1                int1
000042A7  FFAE00000008      jmp far [esi+0x8000000]
000042AD  B004              mov al,0x4
000042AF  0800              or [eax],al
000042B1  0000              add [eax],al
000042B3  0001              add [ecx],al
000042B5  0012              add [edx],dl
000042B7  00BB00000058      add [ebx+0x58000000],bh
000042BD  AA                stosb
000042BE  0408              add al,0x8
000042C0  0000              add [eax],al
000042C2  0000              add [eax],al
000042C4  0100              add [eax],eax
000042C6  1000              adc [eax],al
000042C8  C9                leave
000042C9  0000              add [eax],al
000042CB  0014B0            add [eax+esi*4],dl
000042CE  0408              add al,0x8
000042D0  0000              add [eax],al
000042D2  0000              add [eax],al
000042D4  0100              add [eax],eax
000042D6  1400              adc al,0x0
000042D8  D500              aad 0x0
000042DA  0000              add [eax],al
000042DC  80A00408000000    and byte [eax+0x804],0x0
000042E3  0002              add [edx],al
000042E5  000C00            add [eax+eax],cl
000042E8  0800              or [eax],al
000042EA  0000              add [eax],al
000042EC  0000              add [eax],al
000042EE  0000              add [eax],al
000042F0  0000              add [eax],al
000042F2  0000              add [eax],al
000042F4  0400              add al,0x0
000042F6  F1                int1
000042F7  FF                db 0xFF
000042F8  EB00              jmp short 0x42fa
000042FA  0000              add [eax],al
000042FC  0000              add [eax],al
000042FE  0000              add [eax],al
00004300  0000              add [eax],al
00004302  0000              add [eax],al
00004304  0400              add al,0x0
00004306  F1                int1
00004307  FF06              inc dword [esi]
00004309  0100              add [eax],eax
0000430B  00A009050801      add [eax+0x1080509],ah
00004311  0000              add [eax],al
00004313  0001              add [ecx],al
00004315  0019              add [ecx],bl
00004317  00150100009B      add [0x9b000001],dl
0000431D  92                xchg eax,edx
0000431E  0408              add al,0x8
00004320  C10000            rol dword [eax],0x0
00004323  0002              add [edx],al
00004325  000C00            add [eax+eax],cl
00004328  45                inc ebp
00004329  0100              add [eax],eax
0000432B  005C9304          add [ebx+edx*4+0x4],bl
0000432F  081C00            or [eax+eax],bl
00004332  0000              add [eax],al
00004334  0200              add al,[eax]
00004336  0C00              or al,0x0
00004338  58                pop eax
00004339  0100              add [eax],eax
0000433B  0000              add [eax],al
0000433D  0000              add [eax],al
0000433F  0000              add [eax],al
00004341  0000              add [eax],al
00004343  000400            add [eax+eax],al
00004346  F1                int1
00004347  FF00              inc dword [eax]
00004349  0000              add [eax],al
0000434B  0000              add [eax],al
0000434D  0000              add [eax],al
0000434F  0000              add [eax],al
00004351  0000              add [eax],al
00004353  000400            add [eax+eax],al
00004356  F1                int1
00004357  FF6301            jmp near [ebx+0x1]
0000435A  0000              add [eax],al
0000435C  FC                cld
0000435D  B004              mov al,0x4
0000435F  0800              or [eax],al
00004361  0000              add [eax],al
00004363  0001              add [ecx],al
00004365  0017              add [edi],dl
00004367  007901            add [ecx+0x1],bh
0000436A  0000              add [eax],al
0000436C  00B004080000      add [eax+0x804],dh
00004372  0000              add [eax],al
00004374  0000              add [eax],al
00004376  1200              adc al,[eax]
00004378  8A01              mov al,[ecx]
0000437A  0000              add [eax],al
0000437C  00B004080000      add [eax+0x804],dh
00004382  0000              add [eax],al
00004384  0000              add [eax],al
00004386  1200              adc al,[eax]
00004388  9D                popf
00004389  0100              add [eax],eax
0000438B  0018              add [eax],bl
0000438D  B004              mov al,0x4
0000438F  0800              or [eax],al
00004391  0000              add [eax],al
00004393  0001              add [ecx],al
00004395  001500A60100      add [0x1a600],dl
0000439B  0050B1            add [eax-0x4f],dl
0000439E  0408              add al,0x8
000043A0  0000              add [eax],al
000043A2  0000              add [eax],al
000043A4  2000              and [eax],al
000043A6  1800              sbb [eax],al
000043A8  B101              mov cl,0x1
000043AA  0000              add [eax],al
000043AC  60                pusha
000043AD  B104              mov cl,0x4
000043AF  089000000011      or [eax+0x11000000],dl
000043B5  0019              add [ecx],bl
000043B7  00C7              add bh,al
000043B9  0100              add [eax],eax
000043BB  00F4              add ah,dh
000043BD  96                xchg eax,esi
000043BE  0408              add al,0x8
000043C0  3F                aas
000043C1  0000              add [eax],al
000043C3  0022              add [edx],ah
000043C5  000C00            add [eax+eax],cl
000043C8  EA0100007E9D04    jmp 0x49d:0x7e000001
000043CF  0813              or [ebx],dl
000043D1  0000              add [eax],al
000043D3  0022              add [edx],ah
000043D5  000C00            add [eax+eax],cl
000043D8  2802              sub [edx],al
000043DA  0000              add [eax],al
000043DC  0000              add [eax],al
000043DE  0000              add [eax],al
000043E0  0000              add [eax],al
000043E2  0000              add [eax],al
000043E4  1200              adc al,[eax]
000043E6  0000              add [eax],al
000043E8  3F                aas
000043E9  0200              add al,[eax]
000043EB  00BD9C04087C      add [ebp+0x7c08049c],bh
000043F1  0000              add [eax],al
000043F3  0022              add [edx],ah
000043F5  000C00            add [eax+eax],cl
000043F8  58                pop eax
000043F9  0200              add al,[eax]
000043FB  0000              add [eax],al
000043FD  0000              add [eax],al
000043FF  0000              add [eax],al
00004401  0000              add [eax],al
00004403  0012              add [edx],dl
00004405  0000              add [eax],al
00004407  007202            add [edx+0x2],dh
0000440A  0000              add [eax],al
0000440C  0000              add [eax],al
0000440E  0000              add [eax],al
00004410  0000              add [eax],al
00004412  0000              add [eax],al
00004414  1200              adc al,[eax]
00004416  0000              add [eax],al
00004418  8A02              mov al,[edx]
0000441A  0000              add [eax],al
0000441C  10A004080500      adc [eax+0x50804],ah
00004422  0000              add [eax],al
00004424  1200              adc al,[eax]
00004426  0C00              or al,0x0
00004428  9A020000D08804    call 0x488:0xd0000002
0000442F  0800              or [eax],al
00004431  0000              add [eax],al
00004433  0012              add [edx],dl
00004435  000C00            add [eax+eax],cl
00004438  A102000000        mov eax,[0x2]
0000443D  0000              add [eax],al
0000443F  0000              add [eax],al
00004441  0000              add [eax],al
00004443  0012              add [edx],dl
00004445  0000              add [eax],al
00004447  00B40200007893    add [edx+eax+0x93780000],dh
0000444E  0408              add al,0x8
00004450  1800              sbb [eax],al
00004452  0000              add [eax],al
00004454  2200              and al,[eax]
00004456  0C00              or al,0x0
00004458  BF02000050        mov edi,0x50000002
0000445D  94                xchg eax,esp
0000445E  0408              add al,0x8
00004460  670000            add [bx+si],al
00004463  0022              add [edx],ah
00004465  000C00            add [eax+eax],cl
00004468  D402              aam 0x2
0000446A  0000              add [eax],al
0000446C  0000              add [eax],al
0000446E  0000              add [eax],al
00004470  0000              add [eax],al
00004472  0000              add [eax],al
00004474  2000              and [eax],al
00004476  0000              add [eax],al
00004478  E302              jecxz 0x447c
0000447A  0000              add [eax],al
0000447C  0000              add [eax],al
0000447E  0000              add [eax],al
00004480  0000              add [eax],al
00004482  0000              add [eax],al
00004484  2000              and [eax],al
00004486  0000              add [eax],al
00004488  F70200004F8A      test dword [edx],0x8a4f0000
0000448E  0408              add al,0x8
00004490  8C00              mov [eax],es
00004492  0000              add [eax],al
00004494  1200              adc al,[eax]
00004496  0C00              or al,0x0
00004498  1403              adc al,0x3
0000449A  0000              add [eax],al
0000449C  C8A00408          enter 0x4a0,0x8
000044A0  0400              add al,0x0
000044A2  0000              add [eax],al
000044A4  1100              adc [eax],eax
000044A6  0E                push cs
000044A7  001B              add [ebx],bl
000044A9  0300              add eax,[eax]
000044AB  00B48E04085401    add [esi+ecx*4+0x1540804],dh
000044B2  0000              add [eax],al
000044B4  1200              adc al,[eax]
000044B6  0C00              or al,0x0
000044B8  2503000090        and eax,0x90000003
000044BD  93                xchg eax,ebx
000044BE  0408              add al,0x8
000044C0  1900              sbb [eax],eax
000044C2  0000              add [eax],al
000044C4  2200              and al,[eax]
000044C6  0C00              or al,0x0
000044C8  2F                das
000044C9  0300              add eax,[eax]
000044CB  00A8A0040800      add [eax+0x804a0],ch
000044D1  0000              add [eax],al
000044D3  0012              add [edx],dl
000044D5  000D00350300      add [0x33500],cl
000044DB  0000              add [eax],al
000044DD  0000              add [eax],al
000044DF  0000              add [eax],al
000044E1  0000              add [eax],al
000044E3  0012              add [edx],dl
000044E5  0000              add [eax],al
000044E7  005A03            add [edx+0x3],bl
000044EA  0000              add [eax],al
000044EC  CF                iret
000044ED  9B                wait
000044EE  0408              add al,0x8
000044F0  5A                pop edx
000044F1  0000              add [eax],al
000044F3  0022              add [edx],ah
000044F5  000C00            add [eax+eax],cl
000044F8  8803              mov [ebx],al
000044FA  0000              add [eax],al
000044FC  0E                push cs
000044FD  9F                lahf
000044FE  0408              add al,0x8
00004500  2500000022        and eax,0x22000000
00004505  000C00            add [eax+eax],cl
00004508  BC03000090        mov esp,0x90000003
0000450D  99                cdq
0000450E  0408              add al,0x8
00004510  650000            add [gs:eax],al
00004513  0022              add [edx],ah
00004515  000C00            add [eax+eax],cl
00004518  EA030000389404    jmp 0x494:0x38000003
0000451F  080B              or [ebx],cl
00004521  0000              add [eax],al
00004523  0022              add [edx],ah
00004525  000C00            add [eax+eax],cl
00004528  020400            add al,[eax+eax]
0000452B  0000              add [eax],al
0000452D  0000              add [eax],al
0000452F  0000              add [eax],al
00004531  0000              add [eax],al
00004533  0012              add [edx],dl
00004535  0000              add [eax],al
00004537  001F              add [edi],bl
00004539  0400              add al,0x0
0000453B  003497            add [edi+edx*4],dh
0000453E  0408              add al,0x8
00004540  3F                aas
00004541  0000              add [eax],al
00004543  0022              add [edx],ah
00004545  000C00            add [eax+eax],cl
00004548  42                inc edx
00004549  0400              add al,0x0
0000454B  00B79F040855      add [edi+0x5508049f],dh
00004551  0000              add [eax],al
00004553  0022              add [edx],ah
00004555  000C00            add [eax+eax],cl
00004558  A7                cmpsd
00004559  0400              add al,0x0
0000455B  0000              add [eax],al
0000455D  0000              add [eax],al
0000455F  0000              add [eax],al
00004561  0000              add [eax],al
00004563  0012              add [edx],dl
00004565  0000              add [eax],al
00004567  00EA              add dl,ch
00004569  0400              add al,0x0
0000456B  00B0B2040808      add [eax+0x80804b2],dh
00004571  0000              add [eax],al
00004573  0011              add [ecx],dl
00004575  0019              add [ecx],bl
00004577  00EC              add ah,ch
00004579  0400              add al,0x0
0000457B  0030              add [eax],dh
0000457D  880408            mov [eax+ecx],al
00004580  0000              add [eax],al
00004582  0000              add [eax],al
00004584  1200              adc al,[eax]
00004586  0000              add [eax],al
00004588  110500006496      adc [0x96640000],eax
0000458E  0408              add al,0x8
00004590  4F                dec edi
00004591  0000              add [eax],al
00004593  0022              add [edx],ah
00004595  000C00            add [eax+eax],cl
00004598  2505000000        and eax,0x5
0000459D  0000              add [eax],al
0000459F  0000              add [eax],al
000045A1  0000              add [eax],al
000045A3  0020              add [eax],ah
000045A5  0000              add [eax],al
000045A7  004105            add [ecx+0x5],al
000045AA  0000              add [eax],al
000045AC  659A040827000000  gs call 0x0:0x270804
000045B4  2200              and al,[eax]
000045B6  0C00              or al,0x0
000045B8  6C                insb
000045B9  050000CCA0        add eax,0xa0cc0000
000045BE  0408              add al,0x8
000045C0  0400              add al,0x0
000045C2  0000              add [eax],al
000045C4  1100              adc [eax],eax
000045C6  0E                push cs
000045C7  007B05            add [ebx+0x5],bh
000045CA  0000              add [eax],al
000045CC  339F04088400      xor ebx,[edi+0x840804]
000045D2  0000              add [eax],al
000045D4  2200              and al,[eax]
000045D6  0C00              or al,0x0
000045D8  9F                lahf
000045D9  050000F79D        add eax,0x9df70000
000045DE  0408              add al,0x8
000045E0  FC                cld
000045E1  0000              add [eax],al
000045E3  0022              add [edx],ah
000045E5  000C00            add [eax+eax],cl
000045E8  C50500000000      lds eax,[0x0]
000045EE  0000              add [eax],al
000045F0  0000              add [eax],al
000045F2  0000              add [eax],al
000045F4  1200              adc al,[eax]
000045F6  0000              add [eax],al
000045F8  D90500000000      fld dword [0x0]
000045FE  0000              add [eax],al
00004600  0000              add [eax],al
00004602  0000              add [eax],al
00004604  2000              and [eax],al
00004606  0000              add [eax],al
00004608  F305000050B1      rep add eax,0xb1500000
0000460E  0408              add al,0x8
00004610  0000              add [eax],al
00004612  0000              add [eax],al
00004614  1000              adc [eax],al
00004616  1800              sbb [eax],al
00004618  0006              add [esi],al
0000461A  0000              add [eax],al
0000461C  319B04089E00      xor [ebx+0x9e0804],ebx
00004622  0000              add [eax],al
00004624  2200              and al,[eax]
00004626  0C00              or al,0x0
00004628  27                daa
00004629  06                push es
0000462A  0000              add [eax],al
0000462C  309604083400      xor [esi+0x340804],dl
00004632  0000              add [eax],al
00004634  2200              and al,[eax]
00004636  0C00              or al,0x0
00004638  3B06              cmp eax,[esi]
0000463A  0000              add [eax],al
0000463C  399D04084500      cmp [ebp+0x450804],ebx
00004642  0000              add [eax],al
00004644  2200              and al,[eax]
00004646  0C00              or al,0x0
00004648  59                pop ecx
00004649  06                push es
0000464A  0000              add [eax],al
0000464C  F0890408          lock mov [eax+ecx],eax
00004650  5F                pop edi
00004651  0000              add [eax],al
00004653  0012              add [edx],dl
00004655  000C00            add [eax+eax],cl
00004658  6506              gs push es
0000465A  0000              add [eax],al
0000465C  239904083A00      and ebx,[ecx+0x3a0804]
00004662  0000              add [eax],al
00004664  2200              and al,[eax]
00004666  0C00              or al,0x0
00004668  9C                pushf
00004669  06                push es
0000466A  0000              add [eax],al
0000466C  8C9A04081A00      mov [edx+0x1a0804],ds
00004672  0000              add [eax],al
00004674  2200              and al,[eax]
00004676  0C00              or al,0x0
00004678  B8060000B8        mov eax,0xb8000006
0000467D  94                xchg eax,esp
0000467E  0408              add al,0x8
00004680  2A00              sub al,[eax]
00004682  0000              add [eax],al
00004684  2200              and al,[eax]
00004686  0C00              or al,0x0
00004688  D206              rol byte [esi],cl
0000468A  0000              add [eax],al
0000468C  EF                out dx,eax
0000468D  95                xchg eax,ebp
0000468E  0408              add al,0x8
00004690  41                inc ecx
00004691  0000              add [eax],al
00004693  0022              add [edx],ah
00004695  000C00            add [eax+eax],cl
00004698  F206              repne push es
0000469A  0000              add [eax],al
0000469C  60                pusha
0000469D  B104              mov cl,0x4
0000469F  0800              or [eax],al
000046A1  0000              add [eax],al
000046A3  0011              add [ecx],dl
000046A5  0218              add bl,[eax]
000046A7  00FE              add dh,bh
000046A9  06                push es
000046AA  0000              add [eax],al
000046AC  00B204088C00      add [edx+0x8c0804],dh
000046B2  0000              add [eax],al
000046B4  1100              adc [eax],eax
000046B6  1900              sbb [eax],eax
000046B8  1507000000        adc eax,0x7
000046BD  0000              add [eax],al
000046BF  0000              add [eax],al
000046C1  0000              add [eax],al
000046C3  0012              add [edx],dl
000046C5  0000              add [eax],al
000046C7  002507000054      add [0x54000007],ah
000046CD  B104              mov cl,0x4
000046CF  0800              or [eax],al
000046D1  0000              add [eax],al
000046D3  0011              add [ecx],dl
000046D5  0218              add bl,[eax]
000046D7  0032              add [edx],dh
000046D9  07                pop es
000046DA  0000              add [eax],al
000046DC  61                popa
000046DD  9C                pushf
000046DE  0408              add al,0x8
000046E0  42                inc edx
000046E1  0000              add [eax],al
000046E3  0022              add [edx],ah
000046E5  000C00            add [eax+eax],cl
000046E8  59                pop ecx
000046E9  07                pop es
000046EA  0000              add [eax],al
000046EC  30940408080000    xor [esp+eax+0x808],dl
000046F3  0022              add [edx],ah
000046F5  000C00            add [eax+eax],cl
000046F8  7207              jc 0x4701
000046FA  0000              add [eax],al
000046FC  C3                ret
000046FD  98                cwde
000046FE  0408              add al,0x8
00004700  55                push ebp
00004701  0000              add [eax],al
00004703  0022              add [edx],ah
00004705  000C00            add [eax+eax],cl
00004708  99                cdq
00004709  07                pop es
0000470A  0000              add [eax],al
0000470C  10B004080000      adc [eax+0x804],dh
00004712  0000              add [eax],al
00004714  1102              adc [edx],eax
00004716  1300              adc eax,[eax]
00004718  A6                cmpsb
00004719  07                pop es
0000471A  0000              add [eax],al
0000471C  F39E              rep sahf
0000471E  0408              add al,0x8
00004720  0800              or [eax],al
00004722  0000              add [eax],al
00004724  2200              and al,[eax]
00004726  0C00              or al,0x0
00004728  CC                int3
00004729  07                pop es
0000472A  0000              add [eax],al
0000472C  20A004085A00      and [eax+0x5a0804],ah
00004732  0000              add [eax],al
00004734  1200              adc al,[eax]
00004736  0C00              or al,0x0
00004738  DC07              fadd qword [edi]
0000473A  0000              add [eax],al
0000473C  0000              add [eax],al
0000473E  0000              add [eax],al
00004740  0000              add [eax],al
00004742  0000              add [eax],al
00004744  1200              adc al,[eax]
00004746  0000              add [eax],al
00004748  EE                out dx,al
00004749  07                pop es
0000474A  0000              add [eax],al
0000474C  7497              jz 0x46e5
0000474E  0408              add al,0x8
00004750  DE00              fiadd word [eax]
00004752  0000              add [eax],al
00004754  2200              and al,[eax]
00004756  0C00              or al,0x0
00004758  1108              adc [eax],ecx
0000475A  0000              add [eax],al
0000475C  B396              mov bl,0x96
0000475E  0408              add al,0x8
00004760  41                inc ecx
00004761  0000              add [eax],al
00004763  0022              add [edx],ah
00004765  000C00            add [eax+eax],cl
00004768  2808              sub [eax],cl
0000476A  0000              add [eax],al
0000476C  189904080B00      sbb [ecx+0xb0804],bl
00004772  0000              add [eax],al
00004774  2200              and al,[eax]
00004776  0C00              or al,0x0
00004778  7708              ja 0x4782
0000477A  0000              add [eax],al
0000477C  90                nop
0000477D  090508100000      or [0x1008],eax
00004783  0011              add [ecx],dl
00004785  0019              add [ecx],bl
00004787  007A08            add [edx+0x8],bh
0000478A  0000              add [eax],al
0000478C  5D                pop ebp
0000478D  99                cdq
0000478E  0408              add al,0x8
00004790  3300              xor eax,[eax]
00004792  0000              add [eax],al
00004794  2200              and al,[eax]
00004796  0C00              or al,0x0
00004798  9A080000A99304    call 0x493:0xa9000008
0000479F  084000            or [eax+0x0],al
000047A2  0000              add [eax],al
000047A4  2200              and al,[eax]
000047A6  0C00              or al,0x0
000047A8  B008              mov al,0x8
000047AA  0000              add [eax],al
000047AC  28940408080000    sub [esp+eax+0x808],dl
000047B3  0022              add [edx],ah
000047B5  000C00            add [eax+eax],cl
000047B8  C8080000          enter 0x8,0x0
000047BC  A39C04081A        mov [0x1a08049c],eax
000047C1  0000              add [eax],al
000047C3  0022              add [edx],ah
000047C5  000C00            add [eax+eax],cl
000047C8  F9                stc
000047C9  0800              or [eax],al
000047CB  0060B1            add [eax-0x4f],ah
000047CE  0408              add al,0x8
000047D0  0000              add [eax],al
000047D2  0000              add [eax],al
000047D4  1000              adc [eax],al
000047D6  1900              sbb [eax],eax
000047D8  05090000DB        add eax,0xdb000009
000047DD  8A0408            mov al,[eax+ecx]
000047E0  D903              fld dword [ebx]
000047E2  0000              add [eax],al
000047E4  1200              adc al,[eax]
000047E6  0C00              or al,0x0
000047E8  0F09              wbinvd
000047EA  0000              add [eax],al
000047EC  E294              loop 0x4782
000047EE  0408              add al,0x8
000047F0  41                inc ecx
000047F1  0000              add [eax],al
000047F3  0022              add [edx],ah
000047F5  000C00            add [eax+eax],cl
000047F8  2F                das
000047F9  0900              or [eax],eax
000047FB  00A0B2040804      add [eax+0x40804b2],ah
00004801  0000              add [eax],al
00004803  0011              add [ecx],dl
00004805  0019              add [ecx],bl
00004807  0031              add [ecx],dh
00004809  0900              or [eax],eax
0000480B  00FB              add bl,bh
0000480D  9A040836000000    call 0x0:0x360804
00004814  2200              and al,[eax]
00004816  0C00              or al,0x0
00004818  4A                dec edx
00004819  0900              or [eax],eax
0000481B  00EA              add dl,ch
0000481D  93                xchg eax,ebx
0000481E  0408              add al,0x8
00004820  3D00000022        cmp eax,0x22000000
00004825  000C00            add [eax+eax],cl
00004828  60                pusha
00004829  0900              or [eax],eax
0000482B  0000              add [eax],al
0000482D  0000              add [eax],al
0000482F  0000              add [eax],al
00004831  0000              add [eax],al
00004833  0012              add [edx],dl
00004835  0000              add [eax],al
00004837  007809            add [eax+0x9],bh
0000483A  0000              add [eax],al
0000483C  44                inc esp
0000483D  94                xchg eax,esp
0000483E  0408              add al,0x8
00004840  0B00              or eax,[eax]
00004842  0000              add [eax],al
00004844  2200              and al,[eax]
00004846  0C00              or al,0x0
00004848  91                xchg eax,ecx
00004849  0900              or [eax],eax
0000484B  005298            add [edx-0x68],dl
0000484E  0408              add al,0x8
00004850  7100              jno 0x4852
00004852  0000              add [eax],al
00004854  2200              and al,[eax]
00004856  0C00              or al,0x0
00004858  B609              mov dh,0x9
0000485A  0000              add [eax],al
0000485C  0000              add [eax],al
0000485E  0000              add [eax],al
00004860  0000              add [eax],al
00004862  0000              add [eax],al
00004864  1200              adc al,[eax]
00004866  0000              add [eax],al
00004868  C9                leave
00004869  0900              or [eax],eax
0000486B  00919D040844      add [ecx+0x4408049d],dl
00004871  0000              add [eax],al
00004873  0022              add [edx],ah
00004875  000C00            add [eax+eax],cl
00004878  FE09              dec byte [ecx]
0000487A  0000              add [eax],al
0000487C  299C0408380000    sub [esp+eax+0x3808],ebx
00004883  0022              add [edx],ah
00004885  000C00            add [eax+eax],cl
00004888  240A              and al,0xa
0000488A  0000              add [eax],al
0000488C  C0                db 0xC0
0000488D  B204              mov dl,0x4
0000488F  085C1100          or [ecx+edx+0x0],bl
00004893  0011              add [ecx],dl
00004895  0019              add [ecx],bl
00004897  0026              add [esi],ah
00004899  0A00              or al,[eax]
0000489B  00A40905080000    add [ecx+ecx+0x805],ah
000048A2  0000              add [eax],al
000048A4  1000              adc [eax],al
000048A6  1900              sbb [eax],eax
000048A8  2B0A              sub ecx,[edx]
000048AA  0000              add [eax],al
000048AC  0000              add [eax],al
000048AE  0000              add [eax],al
000048B0  0000              add [eax],al
000048B2  0000              add [eax],al
000048B4  1200              adc al,[eax]
000048B6  0000              add [eax],al
000048B8  49                dec ecx
000048B9  0A00              or al,[eax]
000048BB  00A69A040855      add [esi+0x5508049a],ah
000048C1  0000              add [eax],al
000048C3  0022              add [edx],ah
000048C5  000C00            add [eax+eax],cl
000048C8  6A0A              push byte +0xa
000048CA  0000              add [eax],al
000048CC  6495              fs xchg eax,ebp
000048CE  0408              add al,0x8
000048D0  41                inc ecx
000048D1  0000              add [eax],al
000048D3  0022              add [edx],ah
000048D5  000C00            add [eax+eax],cl
000048D8  8A0A              mov cl,[edx]
000048DA  0000              add [eax],al
000048DC  A088040800        mov al,[0x80488]
000048E1  0000              add [eax],al
000048E3  0012              add [edx],dl
000048E5  0000              add [eax],al
000048E7  00D2              add dl,dl
000048E9  0A00              or al,[eax]
000048EB  0058B1            add [eax-0x4f],bl
000048EE  0408              add al,0x8
000048F0  0800              or [eax],al
000048F2  0000              add [eax],al
000048F4  1100              adc [eax],eax
000048F6  1800              sbb [eax],al
000048F8  D6                salc
000048F9  0A00              or al,[eax]
000048FB  0060B1            add [eax-0x4f],ah
000048FE  0408              add al,0x8
00004900  0000              add [eax],al
00004902  0000              add [eax],al
00004904  1000              adc [eax],al
00004906  1800              sbb [eax],al
00004908  DD0A              fisttp dword [edx]
0000490A  0000              add [eax],al
0000490C  B088              mov al,0x88
0000490E  0408              add al,0x8
00004910  0000              add [eax],al
00004912  0000              add [eax],al
00004914  1200              adc al,[eax]
00004916  0000              add [eax],al
00004918  FE0A              dec byte [edx]
0000491A  0000              add [eax],al
0000491C  A5                movsd
0000491D  95                xchg eax,ebp
0000491E  0408              add al,0x8
00004920  4A                dec edx
00004921  0000              add [eax],al
00004923  0022              add [edx],ah
00004925  000C00            add [eax+eax],cl
00004928  200B              and [ebx],cl
0000492A  0000              add [eax],al
0000492C  EA9304083D0000    jmp 0x0:0x3d080493
00004933  0022              add [edx],ah
00004935  000C00            add [eax+eax],cl
00004938  360B00            or eax,[ss:eax]
0000493B  0000              add [eax],al
0000493D  0000              add [eax],al
0000493F  0000              add [eax],al
00004941  0000              add [eax],al
00004943  0012              add [edx],dl
00004945  0000              add [eax],al
00004947  004E0B            add [esi+0xb],cl
0000494A  0000              add [eax],al
0000494C  239504084100      and edx,[ebp+0x410804]
00004952  0000              add [eax],al
00004954  2200              and al,[eax]
00004956  0C00              or al,0x0
00004958  6D                insd
00004959  0B00              or eax,[eax]
0000495B  00D5              add ch,dl
0000495D  9D                popf
0000495E  0408              add al,0x8
00004960  2200              and al,[eax]
00004962  0000              add [eax],al
00004964  2200              and al,[eax]
00004966  0C00              or al,0x0
00004968  810B0000F599      or dword [ebx],0x99f50000
0000496E  0408              add al,0x8
00004970  7000              jo 0x4972
00004972  0000              add [eax],al
00004974  2200              and al,[eax]
00004976  0C00              or al,0x0
00004978  A20B0000A8        mov [0xa800000b],al
0000497D  B204              mov dl,0x4
0000497F  0808              or [eax],cl
00004981  0000              add [eax],al
00004983  0011              add [ecx],dl
00004985  0019              add [ecx],bl
00004987  00A40B00007AA0    add [ebx+ecx+0xa07a0000],ah
0000498E  0408              add al,0x8
00004990  0000              add [eax],al
00004992  0000              add [eax],al
00004994  1202              adc al,[edx]
00004996  0C00              or al,0x0
00004998  BB0B0000FB        mov ebx,0xfb00000b
0000499D  9E                sahf
0000499E  0408              add al,0x8
000049A0  1300              adc eax,[eax]
000049A2  0000              add [eax],al
000049A4  2200              and al,[eax]
000049A6  0C00              or al,0x0
000049A8  F9                stc
000049A9  0B00              or eax,[eax]
000049AB  0008              add [eax],cl
000049AD  90                nop
000049AE  0408              add al,0x8
000049B0  93                xchg eax,ebx
000049B1  0200              add al,[eax]
000049B3  0012              add [edx],dl
000049B5  000C00            add [eax+eax],cl
000049B8  FE0B              dec byte [ebx]
000049BA  0000              add [eax],al
000049BC  64870408          xchg eax,[fs:eax+ecx]
000049C0  0000              add [eax],al
000049C2  0000              add [eax],al
000049C4  1200              adc al,[eax]
000049C6  0A00              or al,[eax]
000049C8  040C              add al,0xc
000049CA  0000              add [eax],al
000049CC  20C4              and ah,al
000049CE  0408              add al,0x8
000049D0  7045              jo 0x4a17
000049D2  0000              add [eax],al
000049D4  1100              adc [eax],eax
000049D6  1900              sbb [eax],eax
000049D8  00696E            add [ecx+0x6e],ch
000049DB  69742E6300696E69  imul esi,[esi+ebp+0x63],dword 0x696e6900
000049E3  7466              jz 0x4a4b
000049E5  696E692E630063    imul ebp,[esi+0x69],dword 0x6300632e
000049EC  7274              jc 0x4a62
000049EE  7374              jnc 0x4a64
000049F0  7566              jnz 0x4a58
000049F2  662E6300          o16 arpl [cs:eax],ax
000049F6  5F                pop edi
000049F7  5F                pop edi
000049F8  43                inc ebx
000049F9  54                push esp
000049FA  4F                dec edi
000049FB  52                push edx
000049FC  5F                pop edi
000049FD  4C                dec esp
000049FE  49                dec ecx
000049FF  53                push ebx
00004A00  54                push esp
00004A01  5F                pop edi
00004A02  5F                pop edi
00004A03  005F5F            add [edi+0x5f],bl
00004A06  44                inc esp
00004A07  54                push esp
00004A08  4F                dec edi
00004A09  52                push edx
00004A0A  5F                pop edi
00004A0B  4C                dec esp
00004A0C  49                dec ecx
00004A0D  53                push ebx
00004A0E  54                push esp
00004A0F  5F                pop edi
00004A10  5F                pop edi
00004A11  005F5F            add [edi+0x5f],bl
00004A14  4A                dec edx
00004A15  43                inc ebx
00004A16  52                push edx
00004A17  5F                pop edi
00004A18  4C                dec esp
00004A19  49                dec ecx
00004A1A  53                push ebx
00004A1B  54                push esp
00004A1C  5F                pop edi
00004A1D  5F                pop edi
00004A1E  00646572          add [ebp+0x72],ah
00004A22  656769737465725F  imul esi,[gs:bp+di+0x74],dword 0x745f7265
         -74
00004A2B  6D                insd
00004A2C  5F                pop edi
00004A2D  636C6F6E          arpl [edi+ebp*2+0x6e],bp
00004A31  657300            gs jnc 0x4a34
00004A34  7265              jc 0x4a9b
00004A36  6769737465725F74  imul esi,[bp+di+0x74],dword 0x745f7265
00004A3E  6D                insd
00004A3F  5F                pop edi
00004A40  636C6F6E          arpl [edi+ebp*2+0x6e],bp
00004A44  657300            gs jnc 0x4a47
00004A47  5F                pop edi
00004A48  5F                pop edi
00004A49  646F              fs outsd
00004A4B  5F                pop edi
00004A4C  676C              a16 insb
00004A4E  6F                outsd
00004A4F  62616C            bound esp,[ecx+0x6c]
00004A52  5F                pop edi
00004A53  64746F            fs jz 0x4ac5
00004A56  7273              jc 0x4acb
00004A58  5F                pop edi
00004A59  61                popa
00004A5A  7578              jnz 0x4ad4
00004A5C  00636F            add [ebx+0x6f],ah
00004A5F  6D                insd
00004A60  706C              jo 0x4ace
00004A62  657465            gs jz 0x4aca
00004A65  642E3333          xor esi,[cs:ebx]
00004A69  3238              xor bh,[eax]
00004A6B  0064746F          add [esp+esi*2+0x6f],ah
00004A6F  725F              jc 0x4ad0
00004A71  6964782E33333330  imul esp,[eax+edi*2+0x2e],dword 0x30333333
00004A79  006672            add [esi+0x72],ah
00004A7C  61                popa
00004A7D  6D                insd
00004A7E  655F              gs pop edi
00004A80  64756D            fs jnz 0x4af0
00004A83  6D                insd
00004A84  7900              jns 0x4a86
00004A86  5F                pop edi
00004A87  5F                pop edi
00004A88  43                inc ebx
00004A89  54                push esp
00004A8A  4F                dec edi
00004A8B  52                push edx
00004A8C  5F                pop edi
00004A8D  45                inc ebp
00004A8E  4E                dec esi
00004A8F  44                inc esp
00004A90  5F                pop edi
00004A91  5F                pop edi
00004A92  005F5F            add [edi+0x5f],bl
00004A95  46                inc esi
00004A96  52                push edx
00004A97  41                inc ecx
00004A98  4D                dec ebp
00004A99  45                inc ebp
00004A9A  5F                pop edi
00004A9B  45                inc ebp
00004A9C  4E                dec esi
00004A9D  44                inc esp
00004A9E  5F                pop edi
00004A9F  5F                pop edi
00004AA0  005F5F            add [edi+0x5f],bl
00004AA3  4A                dec edx
00004AA4  43                inc ebx
00004AA5  52                push edx
00004AA6  5F                pop edi
00004AA7  45                inc ebp
00004AA8  4E                dec esi
00004AA9  44                inc esp
00004AAA  5F                pop edi
00004AAB  5F                pop edi
00004AAC  005F5F            add [edi+0x5f],bl
00004AAF  646F              fs outsd
00004AB1  5F                pop edi
00004AB2  676C              a16 insb
00004AB4  6F                outsd
00004AB5  62616C            bound esp,[ecx+0x6c]
00004AB8  5F                pop edi
00004AB9  63746F72          arpl [edi+ebp*2+0x72],si
00004ABD  735F              jnc 0x4b1e
00004ABF  61                popa
00004AC0  7578              jnz 0x4b3a
00004AC2  0031              add [ecx],dh
00004AC4  383432            cmp [edx+esi],dh
00004AC7  3438              xor al,0x38
00004AC9  355F313438        xor eax,0x3834315f
00004ACE  3434              xor al,0x34
00004AD0  39355F6F726F      cmp [0x6f726f5f],esi
00004AD6  726F              jc 0x4b47
00004AD8  672E637070        arpl [cs:bx+si+0x70],si
00004ADD  005F5A            add [edi+0x5a],bl
00004AE0  53                push ebx
00004AE1  744C              jz 0x4b2f
00004AE3  385F5F            cmp [edi+0x5f],bl
00004AE6  696F696E697400    imul ebp,[edi+0x69],dword 0x74696e
00004AED  5F                pop edi
00004AEE  5A                pop edx
00004AEF  3431              xor al,0x31
00004AF1  5F                pop edi
00004AF2  5F                pop edi
00004AF3  7374              jnc 0x4b69
00004AF5  61                popa
00004AF6  7469              jz 0x4b61
00004AF8  635F69            arpl [edi+0x69],bx
00004AFB  6E                outsb
00004AFC  697469616C697A61  imul esi,[ecx+ebp*2+0x61],dword 0x617a696c
00004B04  7469              jz 0x4b6f
00004B06  6F                outsd
00004B07  6E                outsb
00004B08  5F                pop edi
00004B09  61                popa
00004B0A  6E                outsb
00004B0B  645F              fs pop edi
00004B0D  64657374          gs jnc 0x4b85
00004B11  7275              jc 0x4b88
00004B13  6374696F          arpl [ecx+ebp*2+0x6f],si
00004B17  6E                outsb
00004B18  5F                pop edi
00004B19  306969            xor [ecx+0x69],ch
00004B1C  005F47            add [edi+0x47],bl
00004B1F  4C                dec esp
00004B20  4F                dec edi
00004B21  42                inc edx
00004B22  41                inc ecx
00004B23  4C                dec esp
00004B24  5F                pop edi
00004B25  5F                pop edi
00004B26  7375              jnc 0x4b9d
00004B28  625F49            bound ebx,[edi+0x49]
00004B2B  5F                pop edi
00004B2C  45                inc ebp
00004B2D  50                push eax
00004B2E  53                push ebx
00004B2F  00656C            add [ebp+0x6c],ah
00004B32  662D696E          sub ax,0x6e69
00004B36  69742E63005F474C  imul esi,[esi+ebp+0x63],dword 0x4c475f00
00004B3E  4F                dec edi
00004B3F  42                inc edx
00004B40  41                inc ecx
00004B41  4C                dec esp
00004B42  5F                pop edi
00004B43  4F                dec edi
00004B44  46                inc esi
00004B45  46                inc esi
00004B46  53                push ebx
00004B47  45                inc ebp
00004B48  54                push esp
00004B49  5F                pop edi
00004B4A  54                push esp
00004B4B  41                inc ecx
00004B4C  42                inc edx
00004B4D  4C                dec esp
00004B4E  45                inc ebp
00004B4F  5F                pop edi
00004B50  005F5F            add [edi+0x5f],bl
00004B53  696E69745F6172    imul ebp,[esi+0x69],dword 0x72615f74
00004B5A  7261              jc 0x4bbd
00004B5C  795F              jns 0x4bbd
00004B5E  656E              gs outsb
00004B60  64005F5F          add [fs:edi+0x5f],bl
00004B64  696E69745F6172    imul ebp,[esi+0x69],dword 0x72615f74
00004B6B  7261              jc 0x4bce
00004B6D  795F              jns 0x4bce
00004B6F  7374              jnc 0x4be5
00004B71  61                popa
00004B72  7274              jc 0x4be8
00004B74  005F44            add [edi+0x44],bl
00004B77  59                pop ecx
00004B78  4E                dec esi
00004B79  41                inc ecx
00004B7A  4D                dec ebp
00004B7B  49                dec ecx
00004B7C  43                inc ebx
00004B7D  00646174          add [ecx+0x74],ah
00004B81  61                popa
00004B82  5F                pop edi
00004B83  7374              jnc 0x4bf9
00004B85  61                popa
00004B86  7274              jc 0x4bfc
00004B88  005F5A            add [edi+0x5a],bl
00004B8B  53                push ebx
00004B8C  7433              jz 0x4bc1
00004B8E  63696E            arpl [ecx+0x6e],bp
00004B91  40                inc eax
00004B92  40                inc eax
00004B93  47                inc edi
00004B94  4C                dec esp
00004B95  49                dec ecx
00004B96  42                inc edx
00004B97  43                inc ebx
00004B98  58                pop eax
00004B99  58                pop eax
00004B9A  5F                pop edi
00004B9B  332E              xor ebp,[esi]
00004B9D  3400              xor al,0x0
00004B9F  5F                pop edi
00004BA0  5A                pop edx
00004BA1  4E                dec esi
00004BA2  53                push ebx
00004BA3  7437              jz 0x4bdc
00004BA5  636F6D            arpl [edi+0x6d],bp
00004BA8  706C              jo 0x4c16
00004BAA  657849            gs js 0x4bf6
00004BAD  6445              fs inc ebp
00004BAF  6D                insd
00004BB0  49                dec ecx
00004BB1  49                dec ecx
00004BB2  6445              fs inc ebp
00004BB4  45                inc ebp
00004BB5  52                push edx
00004BB6  53                push ebx
00004BB7  305F52            xor [edi+0x52],bl
00004BBA  4B                dec ebx
00004BBB  53                push ebx
00004BBC  5F                pop edi
00004BBD  49                dec ecx
00004BBE  54                push esp
00004BBF  5F                pop edi
00004BC0  45                inc ebp
00004BC1  005F5A            add [edi+0x5a],bl
00004BC4  53                push ebx
00004BC5  7431              jz 0x4bf8
00004BC7  325F5F            xor bl,[edi+0x5f]
00004BCA  6D                insd
00004BCB  697465725F626173  imul esi,[ebp+0x72],dword 0x7361625f
00004BD3  6549              gs dec ecx
00004BD5  50                push eax
00004BD6  69454E53743131    imul eax,[ebp+0x4e],dword 0x31317453
00004BDD  5F                pop edi
00004BDE  4D                dec ebp
00004BDF  697465725F626173  imul esi,[ebp+0x72],dword 0x7361625f
00004BE7  6549              gs dec ecx
00004BE9  54                push esp
00004BEA  5F                pop edi
00004BEB  45                inc ebp
00004BEC  3133              xor [ebx],esi
00004BEE  6974657261746F72  imul esi,[ebp+0x72],dword 0x726f7461
00004BF6  5F                pop edi
00004BF7  7479              jz 0x4c72
00004BF9  7065              jo 0x4c60
00004BFB  45                inc ebp
00004BFC  53                push ebx
00004BFD  325F00            xor bl,[edi+0x0]
00004C00  5F                pop edi
00004C01  5A                pop edx
00004C02  4E                dec esi
00004C03  53                push ebx
00004C04  6F                outsd
00004C05  6C                insb
00004C06  7345              jnc 0x4c4d
00004C08  6440              fs inc eax
00004C0A  40                inc eax
00004C0B  47                inc edi
00004C0C  4C                dec esp
00004C0D  49                dec ecx
00004C0E  42                inc edx
00004C0F  43                inc ebx
00004C10  58                pop eax
00004C11  58                pop eax
00004C12  5F                pop edi
00004C13  332E              xor ebp,[esi]
00004C15  3400              xor al,0x0
00004C17  5F                pop edi
00004C18  5A                pop edx
00004C19  53                push ebx
00004C1A  7439              jz 0x4c55
00004C1C  6D                insd
00004C1D  61                popa
00004C1E  6B655F68          imul esp,[ebp+0x5f],byte +0x68
00004C22  6561              gs popa
00004C24  7049              jo 0x4c6f
00004C26  50                push eax
00004C27  694576545F5331    imul eax,[ebp+0x76],dword 0x31535f54
00004C2E  5F                pop edi
00004C2F  005F5F            add [edi+0x5f],bl
00004C32  637861            arpl [eax+0x61],di
00004C35  5F                pop edi
00004C36  61                popa
00004C37  7465              jz 0x4c9e
00004C39  7869              js 0x4ca4
00004C3B  7440              jz 0x4c7d
00004C3D  40                inc eax
00004C3E  47                inc edi
00004C3F  4C                dec esp
00004C40  49                dec ecx
00004C41  42                inc edx
00004C42  43                inc ebx
00004C43  5F                pop edi
00004C44  322E              xor ch,[esi]
00004C46  312E              xor [esi],ebp
00004C48  3300              xor eax,[eax]
00004C4A  5F                pop edi
00004C4B  5A                pop edx
00004C4C  4E                dec esi
00004C4D  53                push ebx
00004C4E  69727345526440    imul esi,[edx+0x73],dword 0x40645245
00004C55  40                inc eax
00004C56  47                inc edi
00004C57  4C                dec esp
00004C58  49                dec ecx
00004C59  42                inc edx
00004C5A  43                inc ebx
00004C5B  58                pop eax
00004C5C  58                pop eax
00004C5D  5F                pop edi
00004C5E  332E              xor ebp,[esi]
00004C60  3400              xor al,0x0
00004C62  5F                pop edi
00004C63  5F                pop edi
00004C64  6C                insb
00004C65  6962635F637375    imul esp,[edx+0x63],dword 0x7573635f
00004C6C  5F                pop edi
00004C6D  66696E69005F      imul bp,[esi+0x69],word 0x5f00
00004C73  7374              jnc 0x4ce9
00004C75  61                popa
00004C76  7274              jc 0x4cec
00004C78  006765            add [edi+0x65],ah
00004C7B  7463              jz 0x4ce0
00004C7D  6861724040        push dword 0x40407261
00004C82  47                inc edi
00004C83  4C                dec esp
00004C84  49                dec ecx
00004C85  42                inc edx
00004C86  43                inc ebx
00004C87  5F                pop edi
00004C88  322E              xor ch,[esi]
00004C8A  3000              xor [eax],al
00004C8C  5F                pop edi
00004C8D  5A                pop edx
00004C8E  53                push ebx
00004C8F  7434              jz 0x4cc5
00004C91  5F                pop edi
00004C92  5F                pop edi
00004C93  6C                insb
00004C94  6769005F5A4E53    imul eax,[bx+si],dword 0x534e5a5f
00004C9B  7437              jz 0x4cd4
00004C9D  636F6D            arpl [edi+0x6d],bp
00004CA0  706C              jo 0x4d0e
00004CA2  657849            gs js 0x4cee
00004CA5  6445              fs inc ebp
00004CA7  6D                insd
00004CA8  4C                dec esp
00004CA9  45                inc ebp
00004CAA  64005F5F          add [fs:edi+0x5f],bl
00004CAE  676D              a16 insd
00004CB0  6F                outsd
00004CB1  6E                outsb
00004CB2  5F                pop edi
00004CB3  7374              jnc 0x4d29
00004CB5  61                popa
00004CB6  7274              jc 0x4d2c
00004CB8  5F                pop edi
00004CB9  5F                pop edi
00004CBA  005F4A            add [edi+0x4a],bl
00004CBD  765F              jna 0x4d1e
00004CBF  52                push edx
00004CC0  6567697374657243  imul esi,[gs:bp+di+0x74],dword 0x6c437265
         -6C
00004CC9  61                popa
00004CCA  7373              jnc 0x4d3f
00004CCC  657300            gs jnc 0x4ccf
00004CCF  5F                pop edi
00004CD0  5A                pop edx
00004CD1  37                aaa
00004CD2  63726F            arpl [edx+0x6f],si
00004CD5  7373              jnc 0x4d4a
00004CD7  43                inc ebx
00004CD8  43                inc ebx
00004CD9  53                push ebx
00004CDA  7437              jz 0x4d13
00004CDC  636F6D            arpl [edi+0x6d],bp
00004CDF  706C              jo 0x4d4d
00004CE1  657849            gs js 0x4d2d
00004CE4  6445              fs inc ebp
00004CE6  6453              fs push ebx
00004CE8  305F64            xor [edi+0x64],bl
00004CEB  005F66            add [edi+0x66],bl
00004CEE  705F              jo 0x4d4f
00004CF0  6877005F5A        push dword 0x5a5f0077
00004CF5  35736F6C76        xor eax,0x766c6f73
00004CFA  657600            gs jna 0x4cfd
00004CFD  5F                pop edi
00004CFE  5A                pop edx
00004CFF  53                push ebx
00004D00  7433              jz 0x4d35
00004D02  61                popa
00004D03  627364            bound esi,[ebx+0x64]
00004D06  005F66            add [edi+0x66],bl
00004D09  696E69005F5A4E    imul ebp,[esi+0x69],dword 0x4e5a5f00
00004D10  53                push ebx
00004D11  7438              jz 0x4d4b
00004D13  696F735F626173    imul ebp,[edi+0x73],dword 0x7361625f
00004D1A  653449            gs xor al,0x49
00004D1D  6E                outsb
00004D1E  6974433145764040  imul esi,[ebx+eax*2+0x31],dword 0x40407645
00004D26  47                inc edi
00004D27  4C                dec esp
00004D28  49                dec ecx
00004D29  42                inc edx
00004D2A  43                inc ebx
00004D2B  58                pop eax
00004D2C  58                pop eax
00004D2D  5F                pop edi
00004D2E  332E              xor ebp,[esi]
00004D30  3400              xor al,0x0
00004D32  5F                pop edi
00004D33  5A                pop edx
00004D34  53                push ebx
00004D35  7432              jz 0x4d69
00004D37  315F5F            xor [edi+0x5f],ebx
00004D3A  756E              jnz 0x4daa
00004D3C  677561            a16 jnz 0x4da0
00004D3F  7264              jc 0x4da5
00004D41  65645F            fs pop edi
00004D44  7061              jo 0x4da7
00004D46  7274              jc 0x4dbc
00004D48  6974696F6E495069  imul esi,[ecx+ebp*2+0x6f],dword 0x6950496e
00004D50  6945545F53315F    imul eax,[ebp+0x54],dword 0x5f31535f
00004D57  53                push ebx
00004D58  315F52            xor [edi+0x52],ebx
00004D5B  4B                dec ebx
00004D5C  54                push esp
00004D5D  305F00            xor [edi+0x0],bl
00004D60  5F                pop edi
00004D61  5A                pop edx
00004D62  53                push ebx
00004D63  7432              jz 0x4d97
00004D65  325F5F            xor bl,[edi+0x5f]
00004D68  636F70            arpl [edi+0x70],bp
00004D6B  795F              jns 0x4dcc
00004D6D  6D                insd
00004D6E  6F                outsd
00004D6F  7665              jna 0x4dd6
00004D71  5F                pop edi
00004D72  626163            bound esp,[ecx+0x63]
00004D75  6B776172          imul esi,[edi+0x61],byte +0x72
00004D79  645F              fs pop edi
00004D7B  61                popa
00004D7C  49                dec ecx
00004D7D  4C                dec esp
00004D7E  6230              bound esi,[eax]
00004D80  45                inc ebp
00004D81  50                push eax
00004D82  6953305F455431    imul edx,[ebx+0x30],dword 0x3154455f
00004D89  5F                pop edi
00004D8A  54                push esp
00004D8B  305F53            xor [edi+0x53],bl
00004D8E  325F53            xor bl,[edi+0x53]
00004D91  315F00            xor [edi+0x0],ebx
00004D94  5F                pop edi
00004D95  5A                pop edx
00004D96  53                push ebx
00004D97  7432              jz 0x4dcb
00004D99  37                aaa
00004D9A  5F                pop edi
00004D9B  5F                pop edi
00004D9C  756E              jnz 0x4e0c
00004D9E  677561            a16 jnz 0x4e02
00004DA1  7264              jc 0x4e07
00004DA3  65645F            fs pop edi
00004DA6  7061              jo 0x4e09
00004DA8  7274              jc 0x4e1e
00004DAA  6974696F6E5F7069  imul esi,[ecx+ebp*2+0x6f],dword 0x69705f6e
00004DB2  766F              jna 0x4e23
00004DB4  7449              jz 0x4dff
00004DB6  50                push eax
00004DB7  6945545F53315F    imul eax,[ebp+0x54],dword 0x5f31535f
00004DBE  53                push ebx
00004DBF  315F00            xor [edi+0x0],ebx
00004DC2  5F                pop edi
00004DC3  5A                pop edx
00004DC4  4E                dec esi
00004DC5  53                push ebx
00004DC6  7437              jz 0x4dff
00004DC8  636F6D            arpl [edi+0x6d],bp
00004DCB  706C              jo 0x4e39
00004DCD  657849            gs js 0x4e19
00004DD0  6445              fs inc ebp
00004DD2  3469              xor al,0x69
00004DD4  6D                insd
00004DD5  61                popa
00004DD6  6745              a16 inc ebp
00004DD8  7600              jna 0x4dda
00004DDA  5F                pop edi
00004DDB  5F                pop edi
00004DDC  6C                insb
00004DDD  6962635F737461    imul esp,[edx+0x63],dword 0x6174735f
00004DE4  7274              jc 0x4e5a
00004DE6  5F                pop edi
00004DE7  6D                insd
00004DE8  61                popa
00004DE9  696E4040474C49    imul ebp,[esi+0x40],dword 0x494c4740
00004DF0  42                inc edx
00004DF1  43                inc ebx
00004DF2  5F                pop edi
00004DF3  322E              xor ch,[esi]
00004DF5  3000              xor [eax],al
00004DF7  5F                pop edi
00004DF8  5A                pop edx
00004DF9  4E                dec esi
00004DFA  53                push ebx
00004DFB  7437              jz 0x4e34
00004DFD  636F6D            arpl [edi+0x6d],bp
00004E00  706C              jo 0x4e6e
00004E02  657849            gs js 0x4e4e
00004E05  6445              fs inc ebp
00004E07  704C              jo 0x4e55
00004E09  49                dec ecx
00004E0A  6445              fs inc ebp
00004E0C  45                inc ebp
00004E0D  52                push edx
00004E0E  53                push ebx
00004E0F  305F52            xor [edi+0x52],bl
00004E12  4B                dec ebx
00004E13  53                push ebx
00004E14  5F                pop edi
00004E15  49                dec ecx
00004E16  54                push esp
00004E17  5F                pop edi
00004E18  45                inc ebp
00004E19  005F5A            add [edi+0x5a],bl
00004E1C  4E                dec esi
00004E1D  53                push ebx
00004E1E  7432              jz 0x4e52
00004E20  305F5F            xor [edi+0x5f],bl
00004E23  636F70            arpl [edi+0x70],bp
00004E26  795F              jns 0x4e87
00004E28  6D                insd
00004E29  6F                outsd
00004E2A  7665              jna 0x4e91
00004E2C  5F                pop edi
00004E2D  626163            bound esp,[ecx+0x63]
00004E30  6B776172          imul esi,[edi+0x61],byte +0x72
00004E34  6449              fs dec ecx
00004E36  4C                dec esp
00004E37  6230              bound esi,[eax]
00004E39  45                inc ebp
00004E3A  4C                dec esp
00004E3B  6231              bound esi,[ecx]
00004E3D  45                inc ebp
00004E3E  53                push ebx
00004E3F  7432              jz 0x4e73
00004E41  367261            ss jc 0x4ea5
00004E44  6E                outsb
00004E45  646F              fs outsd
00004E47  6D                insd
00004E48  5F                pop edi
00004E49  61                popa
00004E4A  636365            arpl [ebx+0x65],sp
00004E4D  7373              jnc 0x4ec2
00004E4F  5F                pop edi
00004E50  6974657261746F72  imul esi,[ebp+0x72],dword 0x726f7461
00004E58  5F                pop edi
00004E59  7461              jz 0x4ebc
00004E5B  6745              a16 inc ebp
00004E5D  3133              xor [ebx],esi
00004E5F  5F                pop edi
00004E60  5F                pop edi
00004E61  636F70            arpl [edi+0x70],bp
00004E64  795F              jns 0x4ec5
00004E66  6D                insd
00004E67  6F                outsd
00004E68  7665              jna 0x4ecf
00004E6A  5F                pop edi
00004E6B  624969            bound ecx,[ecx+0x69]
00004E6E  45                inc ebp
00004E6F  45                inc ebp
00004E70  50                push eax
00004E71  54                push esp
00004E72  5F                pop edi
00004E73  50                push eax
00004E74  4B                dec ebx
00004E75  53                push ebx
00004E76  335F53            xor ebx,[edi+0x53]
00004E79  365F              ss pop edi
00004E7B  53                push ebx
00004E7C  345F              xor al,0x5f
00004E7E  005F5A            add [edi+0x5a],bl
00004E81  53                push ebx
00004E82  746C              jz 0x4ef0
00004E84  7349              jnc 0x4ecf
00004E86  53                push ebx
00004E87  7431              jz 0x4eba
00004E89  316368            xor [ebx+0x68],esp
00004E8C  61                popa
00004E8D  725F              jc 0x4eee
00004E8F  7472              jz 0x4f03
00004E91  61                popa
00004E92  6974734963454552  imul esi,[ebx+esi*2+0x49],dword 0x52454563
00004E9A  53                push ebx
00004E9B  7431              jz 0x4ece
00004E9D  336261            xor esp,[edx+0x61]
00004EA0  7369              jnc 0x4f0b
00004EA2  635F6F            arpl [edi+0x6f],bx
00004EA5  7374              jnc 0x4f1b
00004EA7  7265              jc 0x4f0e
00004EA9  61                popa
00004EAA  6D                insd
00004EAB  49                dec ecx
00004EAC  63545F45          arpl [edi+ebx*2+0x45],dx
00004EB0  53                push ebx
00004EB1  355F634040        xor eax,0x4040635f
00004EB6  47                inc edi
00004EB7  4C                dec esp
00004EB8  49                dec ecx
00004EB9  42                inc edx
00004EBA  43                inc ebx
00004EBB  58                pop eax
00004EBC  58                pop eax
00004EBD  5F                pop edi
00004EBE  332E              xor ebp,[esi]
00004EC0  3400              xor al,0x0
00004EC2  4C                dec esp
00004EC3  005F5A            add [edi+0x5a],bl
00004EC6  4E                dec esi
00004EC7  53                push ebx
00004EC8  7438              jz 0x4f02
00004ECA  696F735F626173    imul ebp,[edi+0x73],dword 0x7361625f
00004ED1  653449            gs xor al,0x49
00004ED4  6E                outsb
00004ED5  6974443145764040  imul esi,[esp+eax*2+0x31],dword 0x40407645
00004EDD  47                inc edi
00004EDE  4C                dec esp
00004EDF  49                dec ecx
00004EE0  42                inc edx
00004EE1  43                inc ebx
00004EE2  58                pop eax
00004EE3  58                pop eax
00004EE4  5F                pop edi
00004EE5  332E              xor ebp,[esi]
00004EE7  3400              xor al,0x0
00004EE9  5F                pop edi
00004EEA  5A                pop edx
00004EEB  53                push ebx
00004EEC  7434              jz 0x4f22
00004EEE  736F              jnc 0x4f5f
00004EF0  7274              jc 0x4f66
00004EF2  49                dec ecx
00004EF3  50                push eax
00004EF4  694576545F5331    imul eax,[ebp+0x76],dword 0x31535f54
00004EFB  5F                pop edi
00004EFC  005F49            add [edi+0x49],bl
00004EFF  54                push esp
00004F00  4D                dec ebp
00004F01  5F                pop edi
00004F02  64657265          gs jc 0x4f6b
00004F06  676973746572544D  imul esi,[bp+di+0x74],dword 0x4d547265
00004F0E  43                inc ebx
00004F0F  6C                insb
00004F10  6F                outsd
00004F11  6E                outsb
00004F12  6554              gs push esp
00004F14  61                popa
00004F15  626C6500          bound ebp,[ebp+0x0]
00004F19  5F                pop edi
00004F1A  5A                pop edx
00004F1B  53                push ebx
00004F1C  7432              jz 0x4f50
00004F1E  365F              ss pop edi
00004F20  5F                pop edi
00004F21  756E              jnz 0x4f91
00004F23  677561            a16 jnz 0x4f87
00004F26  7264              jc 0x4f8c
00004F28  65645F            fs pop edi
00004F2B  696E7365727469    imul ebp,[esi+0x73],dword 0x69747265
00004F32  6F                outsd
00004F33  6E                outsb
00004F34  5F                pop edi
00004F35  736F              jnc 0x4fa6
00004F37  7274              jc 0x4fad
00004F39  49                dec ecx
00004F3A  50                push eax
00004F3B  694576545F5331    imul eax,[ebp+0x76],dword 0x31535f54
00004F42  5F                pop edi
00004F43  005F49            add [edi+0x49],bl
00004F46  4F                dec edi
00004F47  5F                pop edi
00004F48  7374              jnc 0x4fbe
00004F4A  64696E5F75736564  imul ebp,[fs:esi+0x5f],dword 0x64657375
00004F52  005F5A            add [edi+0x5a],bl
00004F55  53                push ebx
00004F56  7431              jz 0x4f89
00004F58  315F5F            xor [edi+0x5f],ebx
00004F5B  7075              jo 0x4fd2
00004F5D  7368              jnc 0x4fc7
00004F5F  5F                pop edi
00004F60  6865617049        push dword 0x49706165
00004F65  50                push eax
00004F66  6969694576545F    imul ebp,[ecx+0x69],dword 0x5f547645
00004F6D  54                push esp
00004F6E  305F53            xor [edi+0x53],bl
00004F71  325F54            xor bl,[edi+0x54]
00004F74  315F00            xor [edi+0x0],ebx
00004F77  5F                pop edi
00004F78  5A                pop edx
00004F79  53                push ebx
00004F7A  7431              jz 0x4fad
00004F7C  335F5F            xor ebx,[edi+0x5f]
00004F7F  61                popa
00004F80  646A75            fs push byte +0x75
00004F83  7374              jnc 0x4ff9
00004F85  5F                pop edi
00004F86  6865617049        push dword 0x49706165
00004F8B  50                push eax
00004F8C  6969694576545F    imul ebp,[ecx+0x69],dword 0x5f547645
00004F93  54                push esp
00004F94  305F53            xor [edi+0x53],bl
00004F97  325F54            xor bl,[edi+0x54]
00004F9A  315F00            xor [edi+0x0],ebx
00004F9D  5F                pop edi
00004F9E  5F                pop edi
00004F9F  6D                insd
00004FA0  756C              jnz 0x500e
00004FA2  646333            arpl [fs:ebx],si
00004FA5  40                inc eax
00004FA6  40                inc eax
00004FA7  47                inc edi
00004FA8  43                inc ebx
00004FA9  43                inc ebx
00004FAA  5F                pop edi
00004FAB  342E              xor al,0x2e
00004FAD  302E              xor [esi],ch
00004FAF  3000              xor [eax],al
00004FB1  5F                pop edi
00004FB2  49                dec ecx
00004FB3  54                push esp
00004FB4  4D                dec ebp
00004FB5  5F                pop edi
00004FB6  7265              jc 0x501d
00004FB8  676973746572544D  imul esi,[bp+di+0x74],dword 0x4d547265
00004FC0  43                inc ebx
00004FC1  6C                insb
00004FC2  6F                outsd
00004FC3  6E                outsb
00004FC4  6554              gs push esp
00004FC6  61                popa
00004FC7  626C6500          bound ebp,[ebp+0x0]
00004FCB  5F                pop edi
00004FCC  5F                pop edi
00004FCD  6461              fs popa
00004FCF  7461              jz 0x5032
00004FD1  5F                pop edi
00004FD2  7374              jnc 0x5048
00004FD4  61                popa
00004FD5  7274              jc 0x504b
00004FD7  005F5A            add [edi+0x5a],bl
00004FDA  53                push ebx
00004FDB  7431              jz 0x500e
00004FDD  395F5F            cmp [edi+0x5f],ebx
00004FE0  6D                insd
00004FE1  6F                outsd
00004FE2  7665              jna 0x5049
00004FE4  5F                pop edi
00004FE5  6D                insd
00004FE6  656469616E5F6669  imul esp,[fs:ecx+0x6e],dword 0x7269665f
         -72
00004FEF  7374              jnc 0x5065
00004FF1  49                dec ecx
00004FF2  50                push eax
00004FF3  694576545F5331    imul eax,[ebp+0x76],dword 0x31535f54
00004FFA  5F                pop edi
00004FFB  53                push ebx
00004FFC  315F00            xor [edi+0x0],ebx
00004FFF  5F                pop edi
00005000  5A                pop edx
00005001  53                push ebx
00005002  7434              jz 0x5038
00005004  7377              jnc 0x507d
00005006  61                popa
00005007  7049              jo 0x5052
00005009  6445              fs inc ebp
0000500B  7652              jna 0x505f
0000500D  54                push esp
0000500E  5F                pop edi
0000500F  53                push ebx
00005010  315F00            xor [edi+0x0],ebx
00005013  5F                pop edi
00005014  5A                pop edx
00005015  53                push ebx
00005016  7431              jz 0x5049
00005018  305F5F            xor [edi+0x5f],bl
0000501B  706F              jo 0x508c
0000501D  705F              jo 0x507e
0000501F  6865617049        push dword 0x49706165
00005024  50                push eax
00005025  694576545F5331    imul eax,[ebp+0x76],dword 0x31535f54
0000502C  5F                pop edi
0000502D  53                push ebx
0000502E  315F00            xor [edi+0x0],ebx
00005031  5F                pop edi
00005032  5A                pop edx
00005033  37                aaa
00005034  6E                outsb
00005035  657874            gs js 0x50ac
00005038  49                dec ecx
00005039  6E                outsb
0000503A  7476              jz 0x50b2
0000503C  005F5A            add [edi+0x5a],bl
0000503F  53                push ebx
00005040  7439              jz 0x507b
00005042  5F                pop edi
00005043  5F                pop edi
00005044  7265              jc 0x50ab
00005046  7665              jna 0x50ad
00005048  7273              jc 0x50bd
0000504A  6549              gs dec ecx
0000504C  50                push eax
0000504D  694576545F5331    imul eax,[ebp+0x76],dword 0x31535f54
00005054  5F                pop edi
00005055  53                push ebx
00005056  7432              jz 0x508a
00005058  367261            ss jc 0x50bc
0000505B  6E                outsb
0000505C  646F              fs outsd
0000505E  6D                insd
0000505F  5F                pop edi
00005060  61                popa
00005061  636365            arpl [ebx+0x65],sp
00005064  7373              jnc 0x50d9
00005066  5F                pop edi
00005067  6974657261746F72  imul esi,[ebp+0x72],dword 0x726f7461
0000506F  5F                pop edi
00005070  7461              jz 0x50d3
00005072  67005F5A          add [bx+0x5a],bl
00005076  53                push ebx
00005077  7439              jz 0x50b2
00005079  697465725F737761  imul esi,[ebp+0x72],dword 0x6177735f
00005081  7049              jo 0x50cc
00005083  50                push eax
00005084  6953305F457654    imul edx,[ebx+0x30],dword 0x5476455f
0000508B  5F                pop edi
0000508C  54                push esp
0000508D  305F00            xor [edi+0x0],bl
00005090  5F                pop edi
00005091  5A                pop edx
00005092  4E                dec esi
00005093  4B                dec ebx
00005094  53                push ebx
00005095  7437              jz 0x50ce
00005097  636F6D            arpl [edi+0x6d],bp
0000509A  706C              jo 0x5108
0000509C  657849            gs js 0x50e8
0000509F  6445              fs inc ebp
000050A1  355F5F7265        xor eax,0x65725f5f
000050A6  7045              jo 0x50ed
000050A8  7600              jna 0x50aa
000050AA  5F                pop edi
000050AB  5A                pop edx
000050AC  53                push ebx
000050AD  746D              jz 0x511c
000050AF  6C                insb
000050B0  49                dec ecx
000050B1  6445              fs inc ebp
000050B3  53                push ebx
000050B4  7437              jz 0x50ed
000050B6  636F6D            arpl [edi+0x6d],bp
000050B9  706C              jo 0x5127
000050BB  657849            gs js 0x5107
000050BE  54                push esp
000050BF  5F                pop edi
000050C0  45                inc ebp
000050C1  52                push edx
000050C2  4B                dec ebx
000050C3  53                push ebx
000050C4  325F53            xor bl,[edi+0x53]
000050C7  345F              xor al,0x5f
000050C9  005F5F            add [edi+0x5f],bl
000050CC  54                push esp
000050CD  4D                dec ebp
000050CE  43                inc ebx
000050CF  5F                pop edi
000050D0  45                inc ebp
000050D1  4E                dec esi
000050D2  44                inc esp
000050D3  5F                pop edi
000050D4  5F                pop edi
000050D5  005F5A            add [edi+0x5a],bl
000050D8  53                push ebx
000050D9  7434              jz 0x510f
000050DB  636F75            arpl [edi+0x75],bp
000050DE  7440              jz 0x5120
000050E0  40                inc eax
000050E1  47                inc edi
000050E2  4C                dec esp
000050E3  49                dec ecx
000050E4  42                inc edx
000050E5  43                inc ebx
000050E6  58                pop eax
000050E7  58                pop eax
000050E8  5F                pop edi
000050E9  332E              xor ebp,[esi]
000050EB  3400              xor al,0x0
000050ED  636162            arpl [ecx+0x62],sp
000050F0  7340              jnc 0x5132
000050F2  40                inc eax
000050F3  47                inc edi
000050F4  4C                dec esp
000050F5  49                dec ecx
000050F6  42                inc edx
000050F7  43                inc ebx
000050F8  5F                pop edi
000050F9  322E              xor ch,[esi]
000050FB  3100              xor [eax],eax
000050FD  5F                pop edi
000050FE  5F                pop edi
000050FF  64736F            fs jnc 0x5171
00005102  5F                pop edi
00005103  68616E646C        push dword 0x6c646e61
00005108  65005F5A          add [gs:edi+0x5a],bl
0000510C  53                push ebx
0000510D  7432              jz 0x5141
0000510F  355F5F756E        xor eax,0x6e755f5f
00005114  677561            a16 jnz 0x5178
00005117  7264              jc 0x517d
00005119  65645F            fs pop edi
0000511C  6C                insb
0000511D  696E6561725F69    imul ebp,[esi+0x65],dword 0x695f7261
00005124  6E                outsb
00005125  7365              jnc 0x518c
00005127  7274              jc 0x519d
00005129  49                dec ecx
0000512A  50                push eax
0000512B  694576545F005F    imul eax,[ebp+0x76],dword 0x5f005f54
00005132  5A                pop edx
00005133  4E                dec esi
00005134  4B                dec ebx
00005135  53                push ebx
00005136  7437              jz 0x516f
00005138  636F6D            arpl [edi+0x6d],bp
0000513B  706C              jo 0x51a9
0000513D  657849            gs js 0x5189
00005140  6445              fs inc ebp
00005142  3472              xor al,0x72
00005144  6561              gs popa
00005146  6C                insb
00005147  45                inc ebp
00005148  7600              jna 0x514a
0000514A  5F                pop edi
0000514B  5A                pop edx
0000514C  53                push ebx
0000514D  7432              jz 0x5181
0000514F  325F5F            xor bl,[edi+0x5f]
00005152  66696E616C5F      imul bp,[esi+0x61],word 0x5f6c
00005158  696E7365727469    imul ebp,[esi+0x73],dword 0x69747265
0000515F  6F                outsd
00005160  6E                outsb
00005161  5F                pop edi
00005162  736F              jnc 0x51d3
00005164  7274              jc 0x51da
00005166  49                dec ecx
00005167  50                push eax
00005168  694576545F5331    imul eax,[ebp+0x76],dword 0x31535f54
0000516F  5F                pop edi
00005170  005F5F            add [edi+0x5f],bl
00005173  44                inc esp
00005174  54                push esp
00005175  4F                dec edi
00005176  52                push edx
00005177  5F                pop edi
00005178  45                inc ebp
00005179  4E                dec esi
0000517A  44                inc esp
0000517B  5F                pop edi
0000517C  5F                pop edi
0000517D  005F5A            add [edi+0x5a],bl
00005180  4E                dec esi
00005181  53                push ebx
00005182  7431              jz 0x51b5
00005184  305F49            xor [edi+0x49],bl
00005187  7465              jz 0x51ee
00005189  725F              jc 0x51ea
0000518B  626173            bound esp,[ecx+0x73]
0000518E  6549              gs dec ecx
00005190  50                push eax
00005191  694C62304545375F  imul ecx,[edx+0x30],dword 0x5f374545
00005199  53                push ebx
0000519A  5F                pop edi
0000519B  626173            bound esp,[ecx+0x73]
0000519E  6545              gs inc ebp
000051A0  53                push ebx
000051A1  305F00            xor [edi+0x0],bl
000051A4  5F                pop edi
000051A5  5F                pop edi
000051A6  6C                insb
000051A7  6962635F637375    imul esp,[edx+0x63],dword 0x7573635f
000051AE  5F                pop edi
000051AF  696E6974007072    imul ebp,[esi+0x69],dword 0x72700074
000051B6  696E7466404047    imul ebp,[esi+0x74],dword 0x47404066
000051BD  4C                dec esp
000051BE  49                dec ecx
000051BF  42                inc edx
000051C0  43                inc ebx
000051C1  5F                pop edi
000051C2  322E              xor ch,[esi]
000051C4  3000              xor [eax],al
000051C6  5F                pop edi
000051C7  5A                pop edx
000051C8  4E                dec esi
000051C9  53                push ebx
000051CA  7437              jz 0x5203
000051CC  636F6D            arpl [edi+0x6d],bp
000051CF  706C              jo 0x523d
000051D1  657849            gs js 0x521d
000051D4  6445              fs inc ebp
000051D6  6D                insd
000051D7  4C                dec esp
000051D8  49                dec ecx
000051D9  6445              fs inc ebp
000051DB  45                inc ebp
000051DC  52                push edx
000051DD  53                push ebx
000051DE  305F52            xor [edi+0x52],bl
000051E1  4B                dec ebx
000051E2  53                push ebx
000051E3  5F                pop edi
000051E4  49                dec ecx
000051E5  54                push esp
000051E6  5F                pop edi
000051E7  45                inc ebp
000051E8  005F5A            add [edi+0x5a],bl
000051EB  53                push ebx
000051EC  7437              jz 0x5225
000051EE  7265              jc 0x5255
000051F0  7665              jna 0x5257
000051F2  7273              jc 0x5267
000051F4  6549              gs dec ecx
000051F6  50                push eax
000051F7  694576545F5331    imul eax,[ebp+0x76],dword 0x31535f54
000051FE  5F                pop edi
000051FF  005F5A            add [edi+0x5a],bl
00005202  53                push ebx
00005203  7431              jz 0x5236
00005205  395F5F            cmp [edi+0x5f],ebx
00005208  6974657261746F72  imul esi,[ebp+0x72],dword 0x726f7461
00005210  5F                pop edi
00005211  636174            arpl [ecx+0x74],sp
00005214  65676F            gs a16 outsd
00005217  7279              jc 0x5292
00005219  49                dec ecx
0000521A  50                push eax
0000521B  69454E53743135    imul eax,[ebp+0x4e],dword 0x35317453
00005222  6974657261746F72  imul esi,[ebp+0x72],dword 0x726f7461
0000522A  5F                pop edi
0000522B  7472              jz 0x529f
0000522D  61                popa
0000522E  69747349545F4531  imul esi,[ebx+esi*2+0x49],dword 0x31455f54
00005236  37                aaa
00005237  6974657261746F72  imul esi,[ebp+0x72],dword 0x726f7461
0000523F  5F                pop edi
00005240  636174            arpl [ecx+0x74],sp
00005243  65676F            gs a16 outsd
00005246  7279              jc 0x52c1
00005248  45                inc ebp
00005249  52                push edx
0000524A  4B                dec ebx
0000524B  53                push ebx
0000524C  325F00            xor bl,[edi+0x0]
0000524F  6E                outsb
00005250  6300              arpl [eax],ax
00005252  5F                pop edi
00005253  5A                pop edx
00005254  53                push ebx
00005255  7431              jz 0x5288
00005257  327061            xor dh,[eax+0x61]
0000525A  7274              jc 0x52d0
0000525C  69616C5F736F72    imul esp,[ecx+0x6c],dword 0x726f735f
00005263  7449              jz 0x52ae
00005265  50                push eax
00005266  694576545F5331    imul eax,[ebp+0x76],dword 0x31535f54
0000526D  5F                pop edi
0000526E  53                push ebx
0000526F  315F00            xor [edi+0x0],ebx
00005272  5F                pop edi
00005273  5A                pop edx
00005274  53                push ebx
00005275  7431              jz 0x52a8
00005277  335F5F            xor ebx,[edi+0x5f]
0000527A  636F6D            arpl [edi+0x6d],bp
0000527D  706C              jo 0x52eb
0000527F  65785F            gs js 0x52e1
00005282  61                popa
00005283  627343            bound esi,[ebx+0x43]
00005286  64005F5A          add [fs:edi+0x5a],bl
0000528A  4E                dec esi
0000528B  53                push ebx
0000528C  7437              jz 0x52c5
0000528E  636F6D            arpl [edi+0x6d],bp
00005291  706C              jo 0x52ff
00005293  657849            gs js 0x52df
00005296  6445              fs inc ebp
00005298  3472              xor al,0x72
0000529A  6561              gs popa
0000529C  6C                insb
0000529D  45                inc ebp
0000529E  7600              jna 0x52a0
000052A0  5F                pop edi
000052A1  5A                pop edx
000052A2  4E                dec esi
000052A3  53                push ebx
000052A4  7431              jz 0x52d7
000052A6  315F5F            xor [edi+0x5f],ebx
000052A9  697465725F737761  imul esi,[ebp+0x72],dword 0x6177735f
000052B1  7049              jo 0x52fc
000052B3  4C                dec esp
000052B4  6231              bound esi,[ecx]
000052B6  45                inc ebp
000052B7  45                inc ebp
000052B8  396974            cmp [ecx+0x74],ebp
000052BB  65725F            gs jc 0x531d
000052BE  7377              jnc 0x5337
000052C0  61                popa
000052C1  7049              jo 0x530c
000052C3  50                push eax
000052C4  6953325F454576    imul edx,[ebx+0x32],dword 0x7645455f
000052CB  54                push esp
000052CC  5F                pop edi
000052CD  54                push esp
000052CE  305F00            xor [edi+0x0],bl
000052D1  5F                pop edi
000052D2  5F                pop edi
000052D3  627373            bound esi,[ebx+0x73]
000052D6  5F                pop edi
000052D7  7374              jnc 0x534d
000052D9  61                popa
000052DA  7274              jc 0x5350
000052DC  005F5A            add [edi+0x5a],bl
000052DF  337075            xor esi,[eax+0x75]
000052E2  7469              jz 0x534d
000052E4  6969005F5A5374    imul ebp,[ecx+0x0],dword 0x74535a5f
000052EB  6D                insd
000052EC  69496445537437    imul ecx,[ecx+0x64],dword 0x37745345
000052F3  636F6D            arpl [edi+0x6d],bp
000052F6  706C              jo 0x5364
000052F8  657849            gs js 0x5344
000052FB  54                push esp
000052FC  5F                pop edi
000052FD  45                inc ebp
000052FE  52                push edx
000052FF  4B                dec ebx
00005300  53                push ebx
00005301  325F53            xor bl,[edi+0x53]
00005304  345F              xor al,0x5f
00005306  004E00            add [esi+0x0],cl
00005309  5F                pop edi
0000530A  5A                pop edx
0000530B  53                push ebx
0000530C  7439              jz 0x5347
0000530E  736F              jnc 0x537f
00005310  7274              jc 0x5386
00005312  5F                pop edi
00005313  6865617049        push dword 0x49706165
00005318  50                push eax
00005319  694576545F5331    imul eax,[ebp+0x76],dword 0x31535f54
00005320  5F                pop edi
00005321  005F5A            add [edi+0x5a],bl
00005324  4E                dec esi
00005325  53                push ebx
00005326  7437              jz 0x535f
00005328  636F6D            arpl [edi+0x6d],bp
0000532B  706C              jo 0x5399
0000532D  657849            gs js 0x5379
00005330  6445              fs inc ebp
00005332  43                inc ebx
00005333  324564            xor al,[ebp+0x64]
00005336  64005F5A          add [fs:edi+0x5a],bl
0000533A  4E                dec esi
0000533B  53                push ebx
0000533C  69727345526940    imul esi,[edx+0x73],dword 0x40695245
00005343  40                inc eax
00005344  47                inc edi
00005345  4C                dec esp
00005346  49                dec ecx
00005347  42                inc edx
00005348  43                inc ebx
00005349  58                pop eax
0000534A  58                pop eax
0000534B  5F                pop edi
0000534C  332E              xor ebp,[esi]
0000534E  3400              xor al,0x0
00005350  5F                pop edi
00005351  5A                pop edx
00005352  4E                dec esi
00005353  4B                dec ebx
00005354  53                push ebx
00005355  7437              jz 0x538e
00005357  636F6D            arpl [edi+0x6d],bp
0000535A  706C              jo 0x53c8
0000535C  657849            gs js 0x53a8
0000535F  6445              fs inc ebp
00005361  3469              xor al,0x69
00005363  6D                insd
00005364  61                popa
00005365  6745              a16 inc ebp
00005367  7600              jna 0x5369
00005369  5F                pop edi
0000536A  5A                pop edx
0000536B  53                push ebx
0000536C  7431              jz 0x539f
0000536E  365F              ss pop edi
00005370  5F                pop edi
00005371  696E74726F736F    imul ebp,[esi+0x74],dword 0x6f736f72
00005378  7274              jc 0x53ee
0000537A  5F                pop edi
0000537B  6C                insb
0000537C  6F                outsd
0000537D  6F                outsd
0000537E  7049              jo 0x53c9
00005380  50                push eax
00005381  69694576545F53    imul ebp,[ecx+0x45],dword 0x535f5476
00005388  315F54            xor [edi+0x54],ebx
0000538B  305F00            xor [edi+0x0],bl
0000538E  6D                insd
0000538F  656D              gs insd
00005391  6D                insd
00005392  6F                outsd
00005393  7665              jna 0x53fa
00005395  40                inc eax
00005396  40                inc eax
00005397  47                inc edi
00005398  4C                dec esp
00005399  49                dec ecx
0000539A  42                inc edx
0000539B  43                inc ebx
0000539C  5F                pop edi
0000539D  322E              xor ch,[esi]
0000539F  3000              xor [eax],al
000053A1  5F                pop edi
000053A2  5A                pop edx
000053A3  53                push ebx
000053A4  7432              jz 0x53d8
000053A6  335F5F            xor ebx,[edi+0x5f]
000053A9  636F70            arpl [edi+0x70],bp
000053AC  795F              jns 0x540d
000053AE  6D                insd
000053AF  6F                outsd
000053B0  7665              jna 0x5417
000053B2  5F                pop edi
000053B3  626163            bound esp,[ecx+0x63]
000053B6  6B776172          imul esi,[edi+0x61],byte +0x72
000053BA  645F              fs pop edi
000053BC  61                popa
000053BD  32494C            xor cl,[ecx+0x4c]
000053C0  6230              bound esi,[eax]
000053C2  45                inc ebp
000053C3  50                push eax
000053C4  6953305F455431    imul edx,[ebx+0x30],dword 0x3154455f
000053CB  5F                pop edi
000053CC  54                push esp
000053CD  305F53            xor [edi+0x53],bl
000053D0  325F53            xor bl,[edi+0x53]
000053D3  315F00            xor [edi+0x0],ebx
000053D6  5F                pop edi
000053D7  5A                pop edx
000053D8  53                push ebx
000053D9  7431              jz 0x540c
000053DB  33636F            xor esp,[ebx+0x6f]
000053DE  7079              jo 0x5459
000053E0  5F                pop edi
000053E1  626163            bound esp,[ecx+0x63]
000053E4  6B776172          imul esi,[edi+0x61],byte +0x72
000053E8  6449              fs dec ecx
000053EA  50                push eax
000053EB  6953305F455430    imul edx,[ebx+0x30],dword 0x3054455f
000053F2  5F                pop edi
000053F3  54                push esp
000053F4  5F                pop edi
000053F5  53                push ebx
000053F6  325F53            xor bl,[edi+0x53]
000053F9  315F00            xor [edi+0x0],ebx
000053FC  7200              jc 0x53fe
000053FE  5F                pop edi
000053FF  656E              gs outsb
00005401  64005F5A          add [fs:edi+0x5a],bl
00005405  4E                dec esi
00005406  53                push ebx
00005407  6F                outsd
00005408  6C                insb
00005409  7345              jnc 0x5450
0000540B  50                push eax
0000540C  46                inc esi
0000540D  52                push edx
0000540E  53                push ebx
0000540F  6F                outsd
00005410  53                push ebx
00005411  5F                pop edi
00005412  45                inc ebp
00005413  40                inc eax
00005414  40                inc eax
00005415  47                inc edi
00005416  4C                dec esp
00005417  49                dec ecx
00005418  42                inc edx
00005419  43                inc ebx
0000541A  58                pop eax
0000541B  58                pop eax
0000541C  5F                pop edi
0000541D  332E              xor ebp,[esi]
0000541F  3400              xor al,0x0
00005421  5F                pop edi
00005422  5A                pop edx
00005423  53                push ebx
00005424  7431              jz 0x5457
00005426  335F5F            xor ebx,[edi+0x5f]
00005429  686561705F        push dword 0x5f706165
0000542E  7365              jnc 0x5495
00005430  6C                insb
00005431  6563744950        arpl [gs:ecx+ecx*2+0x50],si
00005436  694576545F5331    imul eax,[ebp+0x76],dword 0x31535f54
0000543D  5F                pop edi
0000543E  53                push ebx
0000543F  315F00            xor [edi+0x0],ebx
00005442  5F                pop edi
00005443  5A                pop edx
00005444  53                push ebx
00005445  7470              jz 0x54b7
00005447  6C                insb
00005448  49                dec ecx
00005449  6445              fs inc ebp
0000544B  53                push ebx
0000544C  7437              jz 0x5485
0000544E  636F6D            arpl [edi+0x6d],bp
00005451  706C              jo 0x54bf
00005453  657849            gs js 0x549f
00005456  54                push esp
00005457  5F                pop edi
00005458  45                inc ebp
00005459  52                push edx
0000545A  4B                dec ebx
0000545B  53                push ebx
0000545C  325F53            xor bl,[edi+0x53]
0000545F  345F              xor al,0x5f
00005461  005F5A            add [edi+0x5a],bl
00005464  53                push ebx
00005465  7434              jz 0x549b
00005467  656E              gs outsb
00005469  646C              fs insb
0000546B  49                dec ecx
0000546C  635374            arpl [ebx+0x74],dx
0000546F  3131              xor [ecx],esi
00005471  636861            arpl [eax+0x61],bp
00005474  725F              jc 0x54d5
00005476  7472              jz 0x54ea
00005478  61                popa
00005479  6974734963454552  imul esi,[ebx+esi*2+0x49],dword 0x52454563
00005481  53                push ebx
00005482  7431              jz 0x54b5
00005484  336261            xor esp,[edx+0x61]
00005487  7369              jnc 0x54f2
00005489  635F6F            arpl [edi+0x6f],bx
0000548C  7374              jnc 0x5502
0000548E  7265              jc 0x54f5
00005490  61                popa
00005491  6D                insd
00005492  49                dec ecx
00005493  54                push esp
00005494  5F                pop edi
00005495  54                push esp
00005496  305F45            xor [edi+0x45],bl
00005499  53                push ebx
0000549A  365F              ss pop edi
0000549C  40                inc eax
0000549D  40                inc eax
0000549E  47                inc edi
0000549F  4C                dec esp
000054A0  49                dec ecx
000054A1  42                inc edx
000054A2  43                inc ebx
000054A3  58                pop eax
000054A4  58                pop eax
000054A5  5F                pop edi
000054A6  332E              xor ebp,[esi]
000054A8  3400              xor al,0x0
000054AA  45                inc ebp
000054AB  50                push eax
000054AC  53                push ebx
000054AD  005F65            add [edi+0x65],bl
000054B0  6461              fs popa
000054B2  7461              jz 0x5515
000054B4  005F5F            add [edi+0x5f],bl
000054B7  677878            a16 js 0x5532
000054BA  5F                pop edi
000054BB  7065              jo 0x5522
000054BD  7273              jc 0x5532
000054BF  6F                outsd
000054C0  6E                outsb
000054C1  61                popa
000054C2  6C                insb
000054C3  6974795F76304040  imul esi,[ecx+edi*2+0x5f],dword 0x40403076
000054CB  43                inc ebx
000054CC  58                pop eax
000054CD  58                pop eax
000054CE  41                inc ecx
000054CF  42                inc edx
000054D0  49                dec ecx
000054D1  5F                pop edi
000054D2  312E              xor [esi],ebp
000054D4  3300              xor eax,[eax]
000054D6  5F                pop edi
000054D7  5A                pop edx
000054D8  53                push ebx
000054D9  746D              jz 0x5548
000054DB  6C                insb
000054DC  49                dec ecx
000054DD  6445              fs inc ebp
000054DF  53                push ebx
000054E0  7437              jz 0x5519
000054E2  636F6D            arpl [edi+0x6d],bp
000054E5  706C              jo 0x5553
000054E7  657849            gs js 0x5533
000054EA  54                push esp
000054EB  5F                pop edi
000054EC  45                inc ebp
000054ED  52                push edx
000054EE  4B                dec ebx
000054EF  53                push ebx
000054F0  325F52            xor bl,[edi+0x52]
000054F3  4B                dec ebx
000054F4  53                push ebx
000054F5  315F00            xor [edi+0x0],ebx
000054F8  5F                pop edi
000054F9  5A                pop edx
000054FA  4E                dec esi
000054FB  53                push ebx
000054FC  7437              jz 0x5535
000054FE  636F6D            arpl [edi+0x6d],bp
00005501  706C              jo 0x556f
00005503  657849            gs js 0x554f
00005506  6445              fs inc ebp
00005508  43                inc ebx
00005509  314564            xor [ebp+0x64],eax
0000550C  64005F55          add [fs:edi+0x55],bl
00005510  6E                outsb
00005511  7769              ja 0x557c
00005513  6E                outsb
00005514  645F              fs pop edi
00005516  52                push edx
00005517  657375            gs jnc 0x558f
0000551A  6D                insd
0000551B  6540              gs inc eax
0000551D  40                inc eax
0000551E  47                inc edi
0000551F  43                inc ebx
00005520  43                inc ebx
00005521  5F                pop edi
00005522  332E              xor ebp,[esi]
00005524  3000              xor [eax],al
00005526  5F                pop edi
00005527  5A                pop edx
00005528  53                push ebx
00005529  7433              jz 0x555e
0000552B  61                popa
0000552C  627349            bound esi,[ebx+0x49]
0000552F  6445              fs inc ebp
00005531  54                push esp
00005532  5F                pop edi
00005533  52                push edx
00005534  4B                dec ebx
00005535  53                push ebx
00005536  7437              jz 0x556f
00005538  636F6D            arpl [edi+0x6d],bp
0000553B  706C              jo 0x55a9
0000553D  657849            gs js 0x5589
00005540  53                push ebx
00005541  305F45            xor [edi+0x45],bl
00005544  005F5A            add [edi+0x5a],bl
00005547  53                push ebx
00005548  7434              jz 0x557e
0000554A  7377              jnc 0x55c3
0000554C  61                popa
0000554D  7049              jo 0x5598
0000554F  69457652545F53    imul eax,[ebp+0x76],dword 0x535f5452
00005556  315F00            xor [edi+0x0],ebx
00005559  5F                pop edi
0000555A  5A                pop edx
0000555B  53                push ebx
0000555C  7431              jz 0x558f
0000555E  365F              ss pop edi
00005560  5F                pop edi
00005561  696E7365727469    imul ebp,[esi+0x73],dword 0x69747265
00005568  6F                outsd
00005569  6E                outsb
0000556A  5F                pop edi
0000556B  736F              jnc 0x55dc
0000556D  7274              jc 0x55e3
0000556F  49                dec ecx
00005570  50                push eax
00005571  694576545F5331    imul eax,[ebp+0x76],dword 0x31535f54
00005578  5F                pop edi
00005579  005700            add [edi+0x0],dl
0000557C  5F                pop edi
0000557D  5F                pop edi
0000557E  693638362E67      imul esi,[esi],dword 0x672e3638
00005584  65745F            gs jz 0x55e6
00005587  7063              jo 0x55ec
00005589  5F                pop edi
0000558A  7468              jz 0x55f4
0000558C  756E              jnz 0x55fc
0000558E  6B2E62            imul ebp,[esi],byte +0x62
00005591  7800              js 0x5593
00005593  5F                pop edi
00005594  5A                pop edx
00005595  53                push ebx
00005596  7431              jz 0x55c9
00005598  325F5F            xor bl,[edi+0x5f]
0000559B  6E                outsb
0000559C  697465725F626173  imul esi,[ebp+0x72],dword 0x7361625f
000055A4  6549              gs dec ecx
000055A6  50                push eax
000055A7  69454E53743131    imul eax,[ebp+0x4e],dword 0x31317453
000055AE  5F                pop edi
000055AF  4E                dec esi
000055B0  697465725F626173  imul esi,[ebp+0x72],dword 0x7361625f
000055B8  6549              gs dec ecx
000055BA  54                push esp
000055BB  5F                pop edi
000055BC  45                inc ebp
000055BD  3133              xor [ebx],esi
000055BF  6974657261746F72  imul esi,[ebp+0x72],dword 0x726f7461
000055C7  5F                pop edi
000055C8  7479              jz 0x5643
000055CA  7065              jo 0x5631
000055CC  45                inc ebp
000055CD  53                push ebx
000055CE  325F00            xor bl,[edi+0x0]
000055D1  6D                insd
000055D2  61                popa
000055D3  696E005F696E69    imul ebp,[esi+0x0],dword 0x696e695f
000055DA  7400              jz 0x55dc
000055DC  6300              arpl [eax],ax
