00000000  7F45              jg 0x47
00000002  4C                dec esp
00000003  46                inc esi
00000004  0101              add [ecx],eax
00000006  0100              add [eax],eax
00000008  0000              add [eax],al
0000000A  0000              add [eax],al
0000000C  0000              add [eax],al
0000000E  0000              add [eax],al
00000010  0200              add al,[eax]
00000012  0300              add eax,[eax]
00000014  0100              add [eax],eax
00000016  0000              add [eax],al
00000018  A088040834        mov al,[0x34080488]
0000001D  0000              add [eax],al
0000001F  00B034000000      add [eax+0x34],dh
00000025  0000              add [eax],al
00000027  003400            add [eax+eax],dh
0000002A  2000              and [eax],al
0000002C  0800              or [eax],al
0000002E  2800              sub [eax],al
00000030  260023            add [es:ebx],ah
00000033  0006              add [esi],al
00000035  0000              add [eax],al
00000037  003400            add [eax+eax],dh
0000003A  0000              add [eax],al
0000003C  3480              xor al,0x80
0000003E  0408              add al,0x8
00000040  3480              xor al,0x80
00000042  0408              add al,0x8
00000044  0001              add [ecx],al
00000046  0000              add [eax],al
00000048  0001              add [ecx],al
0000004A  0000              add [eax],al
0000004C  0500000004        add eax,0x4000000
00000051  0000              add [eax],al
00000053  0003              add [ebx],al
00000055  0000              add [eax],al
00000057  003401            add [ecx+eax],dh
0000005A  0000              add [eax],al
0000005C  3481              xor al,0x81
0000005E  0408              add al,0x8
00000060  3481              xor al,0x81
00000062  0408              add al,0x8
00000064  1300              adc eax,[eax]
00000066  0000              add [eax],al
00000068  1300              adc eax,[eax]
0000006A  0000              add [eax],al
0000006C  0400              add al,0x0
0000006E  0000              add [eax],al
00000070  0100              add [eax],eax
00000072  0000              add [eax],al
00000074  0100              add [eax],eax
00000076  0000              add [eax],al
00000078  0000              add [eax],al
0000007A  0000              add [eax],al
0000007C  008004080080      add [eax+0x80000804],al
00000082  0408              add al,0x8
00000084  FF2A              jmp far [edx]
00000086  0000              add [eax],al
00000088  FF2A              jmp far [edx]
0000008A  0000              add [eax],al
0000008C  0500000000        add eax,0x0
00000091  1000              adc [eax],al
00000093  0001              add [ecx],al
00000095  0000              add [eax],al
00000097  0000              add [eax],al
00000099  2B00              sub eax,[eax]
0000009B  0000              add [eax],al
0000009D  BB040800BB        mov ebx,0xbb000804
000000A2  0408              add al,0x8
000000A4  58                pop eax
000000A5  0100              add [eax],eax
000000A7  0018              add [eax],bl
000000A9  0200              add al,[eax]
000000AB  0006              add [esi],al
000000AD  0000              add [eax],al
000000AF  0000              add [eax],al
000000B1  1000              adc [eax],al
000000B3  0002              add [edx],al
000000B5  0000              add [eax],al
000000B7  0018              add [eax],bl
000000B9  2B00              sub eax,[eax]
000000BB  0018              add [eax],bl
000000BD  BB040818BB        mov ebx,0xbb180804
000000C2  0408              add al,0x8
000000C4  E000              loopne 0xc6
000000C6  0000              add [eax],al
000000C8  E000              loopne 0xca
000000CA  0000              add [eax],al
000000CC  06                push es
000000CD  0000              add [eax],al
000000CF  000400            add [eax+eax],al
000000D2  0000              add [eax],al
000000D4  0400              add al,0x0
000000D6  0000              add [eax],al
000000D8  48                dec eax
000000D9  0100              add [eax],eax
000000DB  004881            add [eax-0x7f],cl
000000DE  0408              add al,0x8
000000E0  48                dec eax
000000E1  81040820000000    add dword [eax+ecx],0x20
000000E8  2000              and [eax],al
000000EA  0000              add [eax],al
000000EC  0400              add al,0x0
000000EE  0000              add [eax],al
000000F0  0400              add al,0x0
000000F2  0000              add [eax],al
000000F4  50                push eax
000000F5  E574              in eax,0x74
000000F7  64041E            fs add al,0x1e
000000FA  0000              add [eax],al
000000FC  049E              add al,0x9e
000000FE  0408              add al,0x8
00000100  049E              add al,0x9e
00000102  0408              add al,0x8
00000104  640200            add al,[fs:eax]
00000107  00640200          add [edx+eax+0x0],ah
0000010B  000400            add [eax+eax],al
0000010E  0000              add [eax],al
00000110  0400              add al,0x0
00000112  0000              add [eax],al
00000114  51                push ecx
00000115  E574              in eax,0x74
00000117  640000            add [fs:eax],al
0000011A  0000              add [eax],al
0000011C  0000              add [eax],al
0000011E  0000              add [eax],al
00000120  0000              add [eax],al
00000122  0000              add [eax],al
00000124  0000              add [eax],al
00000126  0000              add [eax],al
00000128  0000              add [eax],al
0000012A  0000              add [eax],al
0000012C  06                push es
0000012D  0000              add [eax],al
0000012F  000400            add [eax+eax],al
00000132  0000              add [eax],al
00000134  2F                das
00000135  6C                insb
00000136  69622F6C642D6C    imul esp,[edx+0x2f],dword 0x6c2d646c
0000013D  696E75782E736F    imul ebp,[esi+0x75],dword 0x6f732e78
00000144  2E3200            xor al,[cs:eax]
00000147  000400            add [eax+eax],al
0000014A  0000              add [eax],al
0000014C  1000              adc [eax],al
0000014E  0000              add [eax],al
00000150  0100              add [eax],eax
00000152  0000              add [eax],al
00000154  47                inc edi
00000155  4E                dec esi
00000156  55                push ebp
00000157  0000              add [eax],al
00000159  0000              add [eax],al
0000015B  0002              add [edx],al
0000015D  0000              add [eax],al
0000015F  0000              add [eax],al
00000161  0000              add [eax],al
00000163  0000              add [eax],al
00000165  0000              add [eax],al
00000167  0011              add [ecx],dl
00000169  0000              add [eax],al
0000016B  0019              add [ecx],bl
0000016D  0000              add [eax],al
0000016F  0010              add [eax],dl
00000171  0000              add [eax],al
00000173  000E              add [esi],cl
00000175  0000              add [eax],al
00000177  0012              add [edx],dl
00000179  0000              add [eax],al
0000017B  0016              add [esi],dl
0000017D  0000              add [eax],al
0000017F  0017              add [edi],dl
00000181  0000              add [eax],al
00000183  0000              add [eax],al
00000185  0000              add [eax],al
00000187  0018              add [eax],bl
00000189  0000              add [eax],al
0000018B  0008              add [eax],cl
0000018D  0000              add [eax],al
0000018F  0000              add [eax],al
00000191  0000              add [eax],al
00000193  0000              add [eax],al
00000195  0000              add [eax],al
00000197  000F              add [edi],cl
00000199  0000              add [eax],al
0000019B  0013              add [ebx],dl
0000019D  0000              add [eax],al
0000019F  000A              add [edx],cl
000001A1  0000              add [eax],al
000001A3  000B              add [ebx],cl
000001A5  0000              add [eax],al
000001A7  000500000002      add [0x2000000],al
000001AD  0000              add [eax],al
000001AF  0000              add [eax],al
000001B1  0000              add [eax],al
000001B3  0000              add [eax],al
000001B5  0000              add [eax],al
000001B7  0000              add [eax],al
000001B9  0000              add [eax],al
000001BB  0000              add [eax],al
000001BD  0000              add [eax],al
000001BF  0000              add [eax],al
000001C1  0000              add [eax],al
000001C3  0000              add [eax],al
000001C5  0000              add [eax],al
000001C7  0001              add [ecx],al
000001C9  0000              add [eax],al
000001CB  0000              add [eax],al
000001CD  0000              add [eax],al
000001CF  0000              add [eax],al
000001D1  0000              add [eax],al
000001D3  000400            add [eax+eax],al
000001D6  0000              add [eax],al
000001D8  0000              add [eax],al
000001DA  0000              add [eax],al
000001DC  06                push es
000001DD  0000              add [eax],al
000001DF  0009              add [ecx],cl
000001E1  0000              add [eax],al
000001E3  0003              add [ebx],al
000001E5  0000              add [eax],al
000001E7  000C00            add [eax+eax],cl
000001EA  0000              add [eax],al
000001EC  0000              add [eax],al
000001EE  0000              add [eax],al
000001F0  0000              add [eax],al
000001F2  0000              add [eax],al
000001F4  0000              add [eax],al
000001F6  0000              add [eax],al
000001F8  0000              add [eax],al
000001FA  0000              add [eax],al
000001FC  07                pop es
000001FD  0000              add [eax],al
000001FF  0011              add [ecx],dl
00000201  0000              add [eax],al
00000203  0000              add [eax],al
00000205  0000              add [eax],al
00000207  0000              add [eax],al
00000209  0000              add [eax],al
0000020B  000D00000014      add [0x14000000],cl
00000211  0000              add [eax],al
00000213  001500000000      add [0x0],dl
00000219  0000              add [eax],al
0000021B  0000              add [eax],al
0000021D  0000              add [eax],al
0000021F  0000              add [eax],al
00000221  0000              add [eax],al
00000223  0000              add [eax],al
00000225  0000              add [eax],al
00000227  00D0              add al,dl
00000229  0100              add [eax],eax
0000022B  0000              add [eax],al
0000022D  0000              add [eax],al
0000022F  0000              add [eax],al
00000231  0000              add [eax],al
00000233  0012              add [edx],dl
00000235  0000              add [eax],al
00000237  00B100000000      add [ecx+0x0],dh
0000023D  0000              add [eax],al
0000023F  0000              add [eax],al
00000241  0000              add [eax],al
00000243  0020              add [eax],ah
00000245  0000              add [eax],al
00000247  00ED              add ch,ch
00000249  0000              add [eax],al
0000024B  0000              add [eax],al
0000024D  0000              add [eax],al
0000024F  0000              add [eax],al
00000251  0000              add [eax],al
00000253  0020              add [eax],ah
00000255  0000              add [eax],al
00000257  0010              add [eax],dl
00000259  0000              add [eax],al
0000025B  0000              add [eax],al
0000025D  0000              add [eax],al
0000025F  0000              add [eax],al
00000261  0000              add [eax],al
00000263  0012              add [edx],dl
00000265  0000              add [eax],al
00000267  00BB01000000      add [ebx+0x1],bh
0000026D  0000              add [eax],al
0000026F  0000              add [eax],al
00000271  0000              add [eax],al
00000273  0012              add [edx],dl
00000275  0000              add [eax],al
00000277  00D5              add ch,dl
00000279  0000              add [eax],al
0000027B  0000              add [eax],al
0000027D  0000              add [eax],al
0000027F  0000              add [eax],al
00000281  0000              add [eax],al
00000283  0012              add [edx],dl
00000285  0000              add [eax],al
00000287  0033              add [ebx],dh
00000289  0000              add [eax],al
0000028B  0000              add [eax],al
0000028D  0000              add [eax],al
0000028F  0000              add [eax],al
00000291  0000              add [eax],al
00000293  0012              add [edx],dl
00000295  0000              add [eax],al
00000297  00F2              add dl,dh
00000299  0100              add [eax],eax
0000029B  0000              add [eax],al
0000029D  0000              add [eax],al
0000029F  0000              add [eax],al
000002A1  0000              add [eax],al
000002A3  0012              add [edx],dl
000002A5  0000              add [eax],al
000002A7  0093000000F0      add [ebx+0xf0000000],dl
000002AD  870408            xchg eax,[eax+ecx]
000002B0  0000              add [eax],al
000002B2  0000              add [eax],al
000002B4  1200              adc al,[eax]
000002B6  0000              add [eax],al
000002B8  17                pop ss
000002B9  0000              add [eax],al
000002BB  0000              add [eax],al
000002BD  0000              add [eax],al
000002BF  0000              add [eax],al
000002C1  0000              add [eax],al
000002C3  0020              add [eax],ah
000002C5  0000              add [eax],al
000002C7  00A7010000C8      add [edi+0xc8000001],ah
000002CD  9D                popf
000002CE  0408              add al,0x8
000002D0  0400              add al,0x0
000002D2  0000              add [eax],al
000002D4  1100              adc [eax],eax
000002D6  0E                push cs
000002D7  00EC              add ah,ch
000002D9  0100              add [eax],eax
000002DB  0000              add [eax],al
000002DD  0000              add [eax],al
000002DF  0000              add [eax],al
000002E1  0000              add [eax],al
000002E3  0012              add [edx],dl
000002E5  0000              add [eax],al
000002E7  0001              add [ecx],al
000002E9  0100              add [eax],eax
000002EB  0000              add [eax],al
000002ED  0000              add [eax],al
000002EF  0000              add [eax],al
000002F1  0000              add [eax],al
000002F3  0020              add [eax],ah
000002F5  0000              add [eax],al
000002F7  00E4              add ah,ah
000002F9  0100              add [eax],eax
000002FB  0000              add [eax],al
000002FD  0000              add [eax],al
000002FF  0000              add [eax],al
00000301  0000              add [eax],al
00000303  0012              add [edx],dl
00000305  0000              add [eax],al
00000307  00C9              add cl,cl
00000309  0100              add [eax],eax
0000030B  0000              add [eax],al
0000030D  0000              add [eax],al
0000030F  0000              add [eax],al
00000311  0000              add [eax],al
00000313  0012              add [edx],dl
00000315  0000              add [eax],al
00000317  00AB00000000      add [ebx+0x0],ch
0000031D  0000              add [eax],al
0000031F  0000              add [eax],al
00000321  0000              add [eax],al
00000323  0012              add [edx],dl
00000325  0000              add [eax],al
00000327  001B              add [ebx],bl
00000329  0100              add [eax],eax
0000032B  0000              add [eax],al
0000032D  0000              add [eax],al
0000032F  0000              add [eax],al
00000331  0000              add [eax],al
00000333  0012              add [edx],dl
00000335  0000              add [eax],al
00000337  00C3              add bl,al
00000339  0100              add [eax],eax
0000033B  0060BC            add [eax-0x44],ah
0000033E  0408              add al,0x8
00000340  0400              add al,0x0
00000342  0000              add [eax],al
00000344  1100              adc [eax],eax
00000346  1900              sbb [eax],eax
00000348  DD01              fld qword [ecx]
0000034A  0000              add [eax],al
0000034C  80BC040804000000  cmp byte [esp+eax+0x408],0x0
00000354  1100              adc [eax],eax
00000356  1900              sbb [eax],eax
00000358  B601              mov dh,0x1
0000035A  0000              add [eax],al
0000035C  0000              add [eax],al
0000035E  0000              add [eax],al
00000360  0000              add [eax],al
00000362  0000              add [eax],al
00000364  1200              adc al,[eax]
00000366  0000              add [eax],al
00000368  6300              arpl [eax],ax
0000036A  0000              add [eax],al
0000036C  0000              add [eax],al
0000036E  0000              add [eax],al
00000370  0000              add [eax],al
00000372  0000              add [eax],al
00000374  1200              adc al,[eax]
00000376  0000              add [eax],al
00000378  5D                pop ebp
00000379  0100              add [eax],eax
0000037B  0000              add [eax],al
0000037D  0000              add [eax],al
0000037F  0000              add [eax],al
00000381  0000              add [eax],al
00000383  0012              add [edx],dl
00000385  0000              add [eax],al
00000387  00C0              add al,al
00000389  0000              add [eax],al
0000038B  008088040800      add [eax+0x80488],al
00000391  0000              add [eax],al
00000393  0012              add [edx],dl
00000395  0000              add [eax],al
00000397  008E01000000      add [esi+0x1],cl
0000039D  0000              add [eax],al
0000039F  0000              add [eax],al
000003A1  0000              add [eax],al
000003A3  0012              add [edx],dl
000003A5  0000              add [eax],al
000003A7  0000              add [eax],al
000003A9  6C                insb
000003AA  6962737464632B    imul esp,[edx+0x73],dword 0x2b636474
000003B1  2B2E              sub ebp,[esi]
000003B3  736F              jnc 0x424
000003B5  2E36005F5A        add [ss:edi+0x5a],bl
000003BA  646C              fs insb
000003BC  50                push eax
000003BD  7600              jna 0x3bf
000003BF  5F                pop edi
000003C0  49                dec ecx
000003C1  54                push esp
000003C2  4D                dec ebp
000003C3  5F                pop edi
000003C4  64657265          gs jc 0x42d
000003C8  676973746572544D  imul esi,[bp+di+0x74],dword 0x4d547265
000003D0  43                inc ebx
000003D1  6C                insb
000003D2  6F                outsd
000003D3  6E                outsb
000003D4  6554              gs push esp
000003D6  61                popa
000003D7  626C6500          bound ebp,[ebp+0x0]
000003DB  5F                pop edi
000003DC  5A                pop edx
000003DD  53                push ebx
000003DE  7431              jz 0x411
000003E0  385F52            cmp [edi+0x52],bl
000003E3  625F74            bound ebx,[edi+0x74]
000003E6  7265              jc 0x44d
000003E8  655F              gs pop edi
000003EA  6465637265        arpl [gs:edx+0x65],si
000003EF  6D                insd
000003F0  656E              gs outsb
000003F2  7450              jz 0x444
000003F4  53                push ebx
000003F5  7431              jz 0x428
000003F7  385F52            cmp [edi+0x52],bl
000003FA  625F74            bound ebx,[edi+0x74]
000003FD  7265              jc 0x464
000003FF  655F              gs pop edi
00000401  6E                outsb
00000402  6F                outsd
00000403  64655F            gs pop edi
00000406  626173            bound esp,[ecx+0x73]
00000409  65005F5A          add [gs:edi+0x5a],bl
0000040D  53                push ebx
0000040E  7431              jz 0x441
00000410  385F52            cmp [edi+0x52],bl
00000413  625F74            bound ebx,[edi+0x74]
00000416  7265              jc 0x47d
00000418  655F              gs pop edi
0000041A  696E6372656D65    imul ebp,[esi+0x63],dword 0x656d6572
00000421  6E                outsb
00000422  7450              jz 0x474
00000424  53                push ebx
00000425  7431              jz 0x458
00000427  385F52            cmp [edi+0x52],bl
0000042A  625F74            bound ebx,[edi+0x74]
0000042D  7265              jc 0x494
0000042F  655F              gs pop edi
00000431  6E                outsb
00000432  6F                outsd
00000433  64655F            gs pop edi
00000436  626173            bound esp,[ecx+0x73]
00000439  65005F5A          add [gs:edi+0x5a],bl
0000043D  4E                dec esi
0000043E  53                push ebx
0000043F  7438              jz 0x479
00000441  696F735F626173    imul ebp,[edi+0x73],dword 0x7361625f
00000448  653449            gs xor al,0x49
0000044B  6E                outsb
0000044C  697444314576005F  imul esi,[esp+eax*2+0x31],dword 0x5f007645
00000454  5A                pop edx
00000455  6E                outsb
00000456  776A              ja 0x4c2
00000458  005F5F            add [edi+0x5f],bl
0000045B  676D              a16 insd
0000045D  6F                outsd
0000045E  6E                outsb
0000045F  5F                pop edi
00000460  7374              jnc 0x4d6
00000462  61                popa
00000463  7274              jc 0x4d9
00000465  5F                pop edi
00000466  5F                pop edi
00000467  005F5F            add [edi+0x5f],bl
0000046A  677878            a16 js 0x4e5
0000046D  5F                pop edi
0000046E  7065              jo 0x4d5
00000470  7273              jc 0x4e5
00000472  6F                outsd
00000473  6E                outsb
00000474  61                popa
00000475  6C                insb
00000476  6974795F7630005F  imul esi,[ecx+edi*2+0x5f],dword 0x5f003076
0000047E  5A                pop edx
0000047F  4E                dec esi
00000480  53                push ebx
00000481  7438              jz 0x4bb
00000483  696F735F626173    imul ebp,[edi+0x73],dword 0x7361625f
0000048A  653449            gs xor al,0x49
0000048D  6E                outsb
0000048E  697443314576005F  imul esi,[ebx+eax*2+0x31],dword 0x5f007645
00000496  4A                dec edx
00000497  765F              jna 0x4f8
00000499  52                push edx
0000049A  6567697374657243  imul esi,[gs:bp+di+0x74],dword 0x6c437265
         -6C
000004A3  61                popa
000004A4  7373              jnc 0x519
000004A6  657300            gs jnc 0x4a9
000004A9  5F                pop edi
000004AA  49                dec ecx
000004AB  54                push esp
000004AC  4D                dec ebp
000004AD  5F                pop edi
000004AE  7265              jc 0x515
000004B0  676973746572544D  imul esi,[bp+di+0x74],dword 0x4d547265
000004B8  43                inc ebx
000004B9  6C                insb
000004BA  6F                outsd
000004BB  6E                outsb
000004BC  6554              gs push esp
000004BE  61                popa
000004BF  626C6500          bound ebp,[ebp+0x0]
000004C3  5F                pop edi
000004C4  5A                pop edx
000004C5  53                push ebx
000004C6  7432              jz 0x4fa
000004C8  395F52            cmp [edi+0x52],ebx
000004CB  625F74            bound ebx,[edi+0x74]
000004CE  7265              jc 0x535
000004D0  655F              gs pop edi
000004D2  696E736572745F    imul ebp,[esi+0x73],dword 0x5f747265
000004D9  61                popa
000004DA  6E                outsb
000004DB  645F              fs pop edi
000004DD  7265              jc 0x544
000004DF  62616C            bound esp,[ecx+0x6c]
000004E2  61                popa
000004E3  6E                outsb
000004E4  636562            arpl [ebp+0x62],sp
000004E7  50                push eax
000004E8  53                push ebx
000004E9  7431              jz 0x51c
000004EB  385F52            cmp [edi+0x52],bl
000004EE  625F74            bound ebx,[edi+0x74]
000004F1  7265              jc 0x558
000004F3  655F              gs pop edi
000004F5  6E                outsb
000004F6  6F                outsd
000004F7  64655F            gs pop edi
000004FA  626173            bound esp,[ecx+0x73]
000004FD  6553              gs push ebx
000004FF  305F52            xor [edi+0x52],bl
00000502  53                push ebx
00000503  5F                pop edi
00000504  005F5A            add [edi+0x5a],bl
00000507  53                push ebx
00000508  7431              jz 0x53b
0000050A  37                aaa
0000050B  5F                pop edi
0000050C  5F                pop edi
0000050D  7468              jz 0x577
0000050F  726F              jc 0x580
00000511  775F              ja 0x572
00000513  626164            bound esp,[ecx+0x64]
00000516  5F                pop edi
00000517  61                popa
00000518  6C                insb
00000519  6C                insb
0000051A  6F                outsd
0000051B  637600            arpl [esi+0x0],si
0000051E  6C                insb
0000051F  69626D2E736F2E    imul esp,[edx+0x6d],dword 0x2e6f732e
00000526  36006C6962        add [ss:ecx+ebp*2+0x62],ch
0000052B  6763635F          arpl [bp+di+0x5f],sp
0000052F  732E              jnc 0x55f
00000531  736F              jnc 0x5a2
00000533  2E3100            xor [cs:eax],eax
00000536  5F                pop edi
00000537  55                push ebp
00000538  6E                outsb
00000539  7769              ja 0x5a4
0000053B  6E                outsb
0000053C  645F              fs pop edi
0000053E  52                push edx
0000053F  657375            gs jnc 0x5b7
00000542  6D                insd
00000543  65006C6962        add [gs:ecx+ebp*2+0x62],ch
00000548  632E              arpl [esi],bp
0000054A  736F              jnc 0x5bb
0000054C  2E36005F49        add [ss:edi+0x49],bl
00000551  4F                dec edi
00000552  5F                pop edi
00000553  7374              jnc 0x5c9
00000555  64696E5F75736564  imul ebp,[fs:esi+0x5f],dword 0x64657375
0000055D  007075            add [eax+0x75],dh
00000560  7473              jz 0x5d5
00000562  007075            add [eax+0x75],dh
00000565  7463              jz 0x5ca
00000567  6861720073        push dword 0x73007261
0000056C  7464              jz 0x5d2
0000056E  696E007072696E    imul ebp,[esi+0x0],dword 0x6e697270
00000575  7466              jz 0x5dd
00000577  005F5F            add [edi+0x5f],bl
0000057A  637861            arpl [eax+0x61],di
0000057D  5F                pop edi
0000057E  61                popa
0000057F  7465              jz 0x5e6
00000581  7869              js 0x5ec
00000583  7400              jz 0x585
00000585  7374              jnc 0x5fb
00000587  646F              fs outsd
00000589  7574              jnz 0x5ff
0000058B  006672            add [esi+0x72],ah
0000058E  656F              gs outsd
00000590  7065              jo 0x5f7
00000592  6E                outsb
00000593  007363            add [ebx+0x63],dh
00000596  61                popa
00000597  6E                outsb
00000598  66005F5F          o16 add [edi+0x5f],bl
0000059C  6C                insb
0000059D  6962635F737461    imul esp,[edx+0x63],dword 0x6174735f
000005A4  7274              jc 0x61a
000005A6  5F                pop edi
000005A7  6D                insd
000005A8  61                popa
000005A9  696E004743435F    imul ebp,[esi+0x0],dword 0x5f434347
000005B0  332E              xor ebp,[esi]
000005B2  3000              xor [eax],al
000005B4  43                inc ebx
000005B5  58                pop eax
000005B6  58                pop eax
000005B7  41                inc ecx
000005B8  42                inc edx
000005B9  49                dec ecx
000005BA  5F                pop edi
000005BB  312E              xor [esi],ebp
000005BD  3300              xor eax,[eax]
000005BF  47                inc edi
000005C0  4C                dec esp
000005C1  49                dec ecx
000005C2  42                inc edx
000005C3  43                inc ebx
000005C4  58                pop eax
000005C5  58                pop eax
000005C6  5F                pop edi
000005C7  332E              xor ebp,[esi]
000005C9  3400              xor al,0x0
000005CB  47                inc edi
000005CC  4C                dec esp
000005CD  49                dec ecx
000005CE  42                inc edx
000005CF  43                inc ebx
000005D0  5F                pop edi
000005D1  322E              xor ch,[esi]
000005D3  3000              xor [eax],al
000005D5  47                inc edi
000005D6  4C                dec esp
000005D7  49                dec ecx
000005D8  42                inc edx
000005D9  43                inc ebx
000005DA  5F                pop edi
000005DB  322E              xor ch,[esi]
000005DD  312E              xor [esi],ebp
000005DF  3300              xor eax,[eax]
000005E1  0000              add [eax],al
000005E3  0002              add [edx],al
000005E5  0000              add [eax],al
000005E7  0000              add [eax],al
000005E9  0003              add [ebx],al
000005EB  000400            add [eax+eax],al
000005EE  0300              add eax,[eax]
000005F0  0300              add eax,[eax]
000005F2  0400              add al,0x0
000005F4  0300              add eax,[eax]
000005F6  0000              add [eax],al
000005F8  0100              add [eax],eax
000005FA  0400              add al,0x0
000005FC  0000              add [eax],al
000005FE  0400              add al,0x0
00000600  0400              add al,0x0
00000602  0300              add eax,[eax]
00000604  0300              add eax,[eax]
00000606  0400              add al,0x0
00000608  0400              add al,0x0
0000060A  0400              add al,0x0
0000060C  0300              add eax,[eax]
0000060E  0300              add eax,[eax]
00000610  0500060001        add eax,0x1000600
00000615  0001              add [ecx],al
00000617  008001000010      add [eax+0x10000001],al
0000061D  0000              add [eax],al
0000061F  0020              add [eax],ah
00000621  0000              add [eax],al
00000623  005026            add [eax+0x26],dl
00000626  790B              jns 0x633
00000628  0000              add [eax],al
0000062A  06                push es
0000062B  000402            add [edx+eax],al
0000062E  0000              add [eax],al
00000630  0000              add [eax],al
00000632  0000              add [eax],al
00000634  0100              add [eax],eax
00000636  0200              add al,[eax]
00000638  0100              add [eax],eax
0000063A  0000              add [eax],al
0000063C  1000              adc [eax],al
0000063E  0000              add [eax],al
00000640  3000              xor [eax],al
00000642  0000              add [eax],al
00000644  D3AF6B050000      shr dword [edi+0x56b],cl
0000064A  05000C0200        add eax,0x20c00
0000064F  0010              add [eax],dl
00000651  0000              add [eax],al
00000653  00742992          add [ecx+ebp-0x6e],dh
00000657  0800              or [eax],al
00000659  0003              add [ebx],al
0000065B  0017              add [edi],dl
0000065D  0200              add al,[eax]
0000065F  0000              add [eax],al
00000661  0000              add [eax],al
00000663  0001              add [ecx],al
00000665  0002              add [edx],al
00000667  009D01000010      add [ebp+0x10000001],bl
0000066D  0000              add [eax],al
0000066F  0000              add [eax],al
00000671  0000              add [eax],al
00000673  0010              add [eax],dl
00000675  69690D00000400    imul ebp,[ecx+0xd],dword 0x40000
0000067C  2302              and eax,[edx]
0000067E  0000              add [eax],al
00000680  1000              adc [eax],al
00000682  0000              add [eax],al
00000684  731F              jnc 0x6a5
00000686  690900000200      imul ecx,[ecx],dword 0x20000
0000068C  2D02000000        sub eax,0x2
00000691  0000              add [eax],al
00000693  00F8              add al,bh
00000695  BB04080602        mov ebx,0x2060804
0000069A  0000              add [eax],al
0000069C  60                pusha
0000069D  BC04080512        mov esp,0x12050804
000006A2  0000              add [eax],al
000006A4  80BC040805130000  cmp byte [esp+eax+0x130508],0x0
000006AC  08BC0408070100    or [esp+eax+0x10708],bh
000006B3  000CBC            add [esp+edi*4],cl
000006B6  0408              add al,0x8
000006B8  07                pop es
000006B9  0200              add al,[eax]
000006BB  0010              add [eax],dl
000006BD  BC04080704        mov esp,0x4070804
000006C2  0000              add [eax],al
000006C4  14BC              adc al,0xbc
000006C6  0408              add al,0x8
000006C8  07                pop es
000006C9  05000018BC        add eax,0xbc180000
000006CE  0408              add al,0x8
000006D0  07                pop es
000006D1  06                push es
000006D2  0000              add [eax],al
000006D4  1CBC              sbb al,0xbc
000006D6  0408              add al,0x8
000006D8  07                pop es
000006D9  07                pop es
000006DA  0000              add [eax],al
000006DC  20BC0408070800    and [esp+eax+0x80708],bh
000006E3  0024BC            add [esp+edi*4],ah
000006E6  0408              add al,0x8
000006E8  07                pop es
000006E9  0900              or [eax],eax
000006EB  0028              add [eax],ch
000006ED  BC0408070C        mov esp,0xc070804
000006F2  0000              add [eax],al
000006F4  2CBC              sub al,0xbc
000006F6  0408              add al,0x8
000006F8  07                pop es
000006F9  0E                push cs
000006FA  0000              add [eax],al
000006FC  30BC0408070F00    xor [esp+eax+0xf0708],bh
00000703  0034BC            add [esp+edi*4],dh
00000706  0408              add al,0x8
00000708  07                pop es
00000709  1000              adc [eax],al
0000070B  0038              add [eax],bh
0000070D  BC04080711        mov esp,0x11070804
00000712  0000              add [eax],al
00000714  3CBC              cmp al,0xbc
00000716  0408              add al,0x8
00000718  07                pop es
00000719  1400              adc al,0x0
0000071B  0040BC            add [eax-0x44],al
0000071E  0408              add al,0x8
00000720  07                pop es
00000721  15000044BC        adc eax,0xbc440000
00000726  0408              add al,0x8
00000728  07                pop es
00000729  16                push ss
0000072A  0000              add [eax],al
0000072C  48                dec eax
0000072D  BC04080717        mov esp,0x17070804
00000732  0000              add [eax],al
00000734  4C                dec esp
00000735  BC04080718        mov esp,0x18070804
0000073A  0000              add [eax],al
0000073C  55                push ebp
0000073D  89E5              mov ebp,esp
0000073F  53                push ebx
00000740  83EC04            sub esp,byte +0x4
00000743  E800000000        call 0x748
00000748  5B                pop ebx
00000749  81C3B4340000      add ebx,0x34b4
0000074F  8B93FCFFFFFF      mov edx,[ebx+0xfffffffc]
00000755  85D2              test edx,edx
00000757  7405              jz 0x75e
00000759  E832000000        call 0x790
0000075E  E82D020000        call 0x990
00000763  E818160000        call 0x1d80
00000768  58                pop eax
00000769  5B                pop ebx
0000076A  C9                leave
0000076B  C3                ret
0000076C  0000              add [eax],al
0000076E  0000              add [eax],al
00000770  FF3500BC0408      push dword [0x804bc00]
00000776  FF2504BC0408      jmp near [0x804bc04]
0000077C  0000              add [eax],al
0000077E  0000              add [eax],al
00000780  FF2508BC0408      jmp near [0x804bc08]
00000786  6800000000        push dword 0x0
0000078B  E9E0FFFFFF        jmp 0x100000770
00000790  FF250CBC0408      jmp near [0x804bc0c]
00000796  6808000000        push dword 0x8
0000079B  E9D0FFFFFF        jmp 0x100000770
000007A0  FF2510BC0408      jmp near [0x804bc10]
000007A6  6810000000        push dword 0x10
000007AB  E9C0FFFFFF        jmp 0x100000770
000007B0  FF2514BC0408      jmp near [0x804bc14]
000007B6  6818000000        push dword 0x18
000007BB  E9B0FFFFFF        jmp 0x100000770
000007C0  FF2518BC0408      jmp near [0x804bc18]
000007C6  6820000000        push dword 0x20
000007CB  E9A0FFFFFF        jmp 0x100000770
000007D0  FF251CBC0408      jmp near [0x804bc1c]
000007D6  6828000000        push dword 0x28
000007DB  E990FFFFFF        jmp 0x100000770
000007E0  FF2520BC0408      jmp near [0x804bc20]
000007E6  6830000000        push dword 0x30
000007EB  E980FFFFFF        jmp 0x100000770
000007F0  FF2524BC0408      jmp near [0x804bc24]
000007F6  6838000000        push dword 0x38
000007FB  E970FFFFFF        jmp 0x100000770
00000800  FF2528BC0408      jmp near [0x804bc28]
00000806  6840000000        push dword 0x40
0000080B  E960FFFFFF        jmp 0x100000770
00000810  FF252CBC0408      jmp near [0x804bc2c]
00000816  6848000000        push dword 0x48
0000081B  E950FFFFFF        jmp 0x100000770
00000820  FF2530BC0408      jmp near [0x804bc30]
00000826  6850000000        push dword 0x50
0000082B  E940FFFFFF        jmp 0x100000770
00000830  FF2534BC0408      jmp near [0x804bc34]
00000836  6858000000        push dword 0x58
0000083B  E930FFFFFF        jmp 0x100000770
00000840  FF2538BC0408      jmp near [0x804bc38]
00000846  6860000000        push dword 0x60
0000084B  E920FFFFFF        jmp 0x100000770
00000850  FF253CBC0408      jmp near [0x804bc3c]
00000856  6868000000        push dword 0x68
0000085B  E910FFFFFF        jmp 0x100000770
00000860  FF2540BC0408      jmp near [0x804bc40]
00000866  6870000000        push dword 0x70
0000086B  E900FFFFFF        jmp 0x100000770
00000870  FF2544BC0408      jmp near [0x804bc44]
00000876  6878000000        push dword 0x78
0000087B  E9F0FEFFFF        jmp 0x100000770
00000880  FF2548BC0408      jmp near [0x804bc48]
00000886  6880000000        push dword 0x80
0000088B  E9E0FEFFFF        jmp 0x100000770
00000890  FF254CBC0408      jmp near [0x804bc4c]
00000896  6888000000        push dword 0x88
0000089B  E9D0FEFFFF        jmp 0x100000770
000008A0  31ED              xor ebp,ebp
000008A2  5E                pop esi
000008A3  89E1              mov ecx,esp
000008A5  83E4F0            and esp,byte -0x10
000008A8  50                push eax
000008A9  54                push esp
000008AA  52                push edx
000008AB  68109D0408        push dword 0x8049d10
000008B0  68209D0408        push dword 0x8049d20
000008B5  51                push ecx
000008B6  56                push esi
000008B7  68C0890408        push dword 0x80489c0
000008BC  E81FFFFFFF        call 0x1000007e0
000008C1  F4                hlt
000008C2  90                nop
000008C3  90                nop
000008C4  6690              o16 nop
000008C6  6690              o16 nop
000008C8  6690              o16 nop
000008CA  6690              o16 nop
000008CC  6690              o16 nop
000008CE  6690              o16 nop
000008D0  B85BBC0408        mov eax,0x804bc5b
000008D5  2D58BC0408        sub eax,0x804bc58
000008DA  83F806            cmp eax,byte +0x6
000008DD  7701              ja 0x8e0
000008DF  C3                ret
000008E0  B800000000        mov eax,0x0
000008E5  85C0              test eax,eax
000008E7  74F6              jz 0x8df
000008E9  55                push ebp
000008EA  89E5              mov ebp,esp
000008EC  83EC18            sub esp,byte +0x18
000008EF  C7042458BC0408    mov dword [esp],0x804bc58
000008F6  FFD0              call eax
000008F8  C9                leave
000008F9  C3                ret
000008FA  8DB600000000      lea esi,[esi+0x0]
00000900  B858BC0408        mov eax,0x804bc58
00000905  2D58BC0408        sub eax,0x804bc58
0000090A  C1F802            sar eax,0x2
0000090D  89C2              mov edx,eax
0000090F  C1EA1F            shr edx,0x1f
00000912  01D0              add eax,edx
00000914  D1F8              sar eax,1
00000916  7501              jnz 0x919
00000918  C3                ret
00000919  BA00000000        mov edx,0x0
0000091E  85D2              test edx,edx
00000920  74F6              jz 0x918
00000922  55                push ebp
00000923  89E5              mov ebp,esp
00000925  83EC18            sub esp,byte +0x18
00000928  89442404          mov [esp+0x4],eax
0000092C  C7042458BC0408    mov dword [esp],0x804bc58
00000933  FFD2              call edx
00000935  C9                leave
00000936  C3                ret
00000937  89F6              mov esi,esi
00000939  8DBC2700000000    lea edi,[edi+0x0]
00000940  803D84BC040800    cmp byte [0x804bc84],0x0
00000947  7544              jnz 0x98d
00000949  55                push ebp
0000094A  89E5              mov ebp,esp
0000094C  53                push ebx
0000094D  BB10BB0408        mov ebx,0x804bb10
00000952  52                push edx
00000953  81EB0CBB0408      sub ebx,0x804bb0c
00000959  A188BC0408        mov eax,[0x804bc88]
0000095E  C1FB02            sar ebx,0x2
00000961  4B                dec ebx
00000962  39D8              cmp eax,ebx
00000964  7318              jnc 0x97e
00000966  6690              o16 nop
00000968  40                inc eax
00000969  A388BC0408        mov [0x804bc88],eax
0000096E  FF14850CBB0408    call near [eax*4+0x804bb0c]
00000975  A188BC0408        mov eax,[0x804bc88]
0000097A  39D8              cmp eax,ebx
0000097C  72EA              jc 0x968
0000097E  E84DFFFFFF        call 0x1000008d0
00000983  C60584BC040801    mov byte [0x804bc84],0x1
0000098A  58                pop eax
0000098B  5B                pop ebx
0000098C  5D                pop ebp
0000098D  C3                ret
0000098E  6690              o16 nop
00000990  8B0D14BB0408      mov ecx,[0x804bb14]
00000996  85C9              test ecx,ecx
00000998  741E              jz 0x9b8
0000099A  B800000000        mov eax,0x0
0000099F  85C0              test eax,eax
000009A1  7415              jz 0x9b8
000009A3  55                push ebp
000009A4  89E5              mov ebp,esp
000009A6  83EC18            sub esp,byte +0x18
000009A9  C7042414BB0408    mov dword [esp],0x804bb14
000009B0  FFD0              call eax
000009B2  C9                leave
000009B3  E948FFFFFF        jmp 0x100000900
000009B8  E943FFFFFF        jmp 0x100000900
000009BD  6690              o16 nop
000009BF  90                nop
000009C0  8D4C2404          lea ecx,[esp+0x4]
000009C4  83E4F0            and esp,byte -0x10
000009C7  FF71FC            push dword [ecx-0x4]
000009CA  55                push ebp
000009CB  89E5              mov ebp,esp
000009CD  51                push ecx
000009CE  83EC44            sub esp,byte +0x44
000009D1  A160BC0408        mov eax,[0x804bc60]
000009D6  89442408          mov [esp+0x8],eax
000009DA  C7442404CC9D0408  mov dword [esp+0x4],0x8049dcc
000009E2  C70424CE9D0408    mov dword [esp],0x8049dce
000009E9  E822FEFFFF        call 0x100000810
000009EE  A180BC0408        mov eax,[0x804bc80]
000009F3  89442408          mov [esp+0x8],eax
000009F7  C7442404E29D0408  mov dword [esp+0x4],0x8049de2
000009FF  C70424E49D0408    mov dword [esp],0x8049de4
00000A06  E805FEFFFF        call 0x100000810
00000A0B  8D45D8            lea eax,[ebp-0x28]
00000A0E  89442404          mov [esp+0x4],eax
00000A12  C70424EA9D0408    mov dword [esp],0x8049dea
00000A19  E8E2FDFFFF        call 0x100000800
00000A1E  C745F400000000    mov dword [ebp-0xc],0x0
00000A25  E95A020000        jmp 0xc84
00000A2A  FF45F4            inc dword [ebp-0xc]
00000A2D  C7442404F8BC0408  mov dword [esp+0x4],0x804bcf8
00000A35  C70424EA9D0408    mov dword [esp],0x8049dea
00000A3C  E8BFFDFFFF        call 0x100000800
00000A41  C745F000000000    mov dword [ebp-0x10],0x0
00000A48  EB1E              jmp short 0xa68
00000A4A  8B45F0            mov eax,[ebp-0x10]
00000A4D  C1E002            shl eax,0x2
00000A50  05A0BC0408        add eax,0x804bca0
00000A55  89442404          mov [esp+0x4],eax
00000A59  C70424EA9D0408    mov dword [esp],0x8049dea
00000A60  E89BFDFFFF        call 0x100000800
00000A65  FF45F0            inc dword [ebp-0x10]
00000A68  A1F8BC0408        mov eax,[0x804bcf8]
00000A6D  3945F0            cmp [ebp-0x10],eax
00000A70  7CD8              jl 0xa4a
00000A72  C70424FCBC0408    mov dword [esp],0x804bcfc
00000A79  E8D6020000        call 0xd54
00000A7E  C745F000000000    mov dword [ebp-0x10],0x0
00000A85  E9A8000000        jmp 0xb32
00000A8A  C745D400000000    mov dword [ebp-0x2c],0x0
00000A91  C745EC00000000    mov dword [ebp-0x14],0x0
00000A98  EB28              jmp short 0xac2
00000A9A  8B45EC            mov eax,[ebp-0x14]
00000A9D  8B55F0            mov edx,[ebp-0x10]
00000AA0  88C1              mov cl,al
00000AA2  D3FA              sar edx,cl
00000AA4  89D0              mov eax,edx
00000AA6  83E001            and eax,byte +0x1
00000AA9  85C0              test eax,eax
00000AAB  7412              jz 0xabf
00000AAD  8B45EC            mov eax,[ebp-0x14]
00000AB0  8B1485A0BC0408    mov edx,[eax*4+0x804bca0]
00000AB7  8B45D4            mov eax,[ebp-0x2c]
00000ABA  01D0              add eax,edx
00000ABC  8945D4            mov [ebp-0x2c],eax
00000ABF  FF45EC            inc dword [ebp-0x14]
00000AC2  A1F8BC0408        mov eax,[0x804bcf8]
00000AC7  3945EC            cmp [ebp-0x14],eax
00000ACA  7CCE              jl 0xa9a
00000ACC  8D45DC            lea eax,[ebp-0x24]
00000ACF  C7442404FCBC0408  mov dword [esp+0x4],0x804bcfc
00000AD7  890424            mov [esp],eax
00000ADA  E8B3020000        call 0xd92
00000ADF  83EC04            sub esp,byte +0x4
00000AE2  8D45E0            lea eax,[ebp-0x20]
00000AE5  8D55D4            lea edx,[ebp-0x2c]
00000AE8  89542408          mov [esp+0x8],edx
00000AEC  C7442404FCBC0408  mov dword [esp+0x4],0x804bcfc
00000AF4  890424            mov [esp],eax
00000AF7  E86C020000        call 0xd68
00000AFC  83EC04            sub esp,byte +0x4
00000AFF  8D45DC            lea eax,[ebp-0x24]
00000B02  89442404          mov [esp+0x4],eax
00000B06  8D45E0            lea eax,[ebp-0x20]
00000B09  890424            mov [esp],eax
00000B0C  E8A3020000        call 0xdb4
00000B11  84C0              test al,al
00000B13  7402              jz 0xb17
00000B15  EB34              jmp short 0xb4b
00000B17  8D45D4            lea eax,[ebp-0x2c]
00000B1A  89442404          mov [esp+0x4],eax
00000B1E  C70424FCBC0408    mov dword [esp],0x804bcfc
00000B25  E89E020000        call 0xdc8
00000B2A  8B55F0            mov edx,[ebp-0x10]
00000B2D  8910              mov [eax],edx
00000B2F  FF45F0            inc dword [ebp-0x10]
00000B32  A1F8BC0408        mov eax,[0x804bcf8]
00000B37  BA01000000        mov edx,0x1
00000B3C  88C1              mov cl,al
00000B3E  D3E2              shl edx,cl
00000B40  89D0              mov eax,edx
00000B42  3B45F0            cmp eax,[ebp-0x10]
00000B45  0F8F3FFFFFFF      jg near 0x100000a8a
00000B4B  8B45F4            mov eax,[ebp-0xc]
00000B4E  89442404          mov [esp+0x4],eax
00000B52  C70424ED9D0408    mov dword [esp],0x8049ded
00000B59  E8C2FCFFFF        call 0x100000820
00000B5E  A1F8BC0408        mov eax,[0x804bcf8]
00000B63  BA01000000        mov edx,0x1
00000B68  88C1              mov cl,al
00000B6A  D3E2              shl edx,cl
00000B6C  89D0              mov eax,edx
00000B6E  3B45F0            cmp eax,[ebp-0x10]
00000B71  7511              jnz 0xb84
00000B73  C70424F89D0408    mov dword [esp],0x8049df8
00000B7A  E8D1FCFFFF        call 0x100000850
00000B7F  E900010000        jmp 0xc84
00000B84  C745E800000000    mov dword [ebp-0x18],0x0
00000B8B  EB61              jmp short 0xbee
00000B8D  8B45E8            mov eax,[ebp-0x18]
00000B90  8B55F0            mov edx,[ebp-0x10]
00000B93  88C1              mov cl,al
00000B95  D3FA              sar edx,cl
00000B97  89D0              mov eax,edx
00000B99  83E001            and eax,byte +0x1
00000B9C  85C0              test eax,eax
00000B9E  744B              jz 0xbeb
00000BA0  8B45E8            mov eax,[ebp-0x18]
00000BA3  BA01000000        mov edx,0x1
00000BA8  88C1              mov cl,al
00000BAA  D3E2              shl edx,cl
00000BAC  89D0              mov eax,edx
00000BAE  3145F0            xor [ebp-0x10],eax
00000BB1  8B45E8            mov eax,[ebp-0x18]
00000BB4  8B0485A0BC0408    mov eax,[eax*4+0x804bca0]
00000BBB  89442404          mov [esp+0x4],eax
00000BBF  C70424EA9D0408    mov dword [esp],0x8049dea
00000BC6  E855FCFFFF        call 0x100000820
00000BCB  837DF000          cmp dword [ebp-0x10],byte +0x0
00000BCF  740E              jz 0xbdf
00000BD1  C7042420000000    mov dword [esp],0x20
00000BD8  E8D3FBFFFF        call 0x1000007b0
00000BDD  EB0C              jmp short 0xbeb
00000BDF  C704240A000000    mov dword [esp],0xa
00000BE6  E8C5FBFFFF        call 0x1000007b0
00000BEB  FF45E8            inc dword [ebp-0x18]
00000BEE  A1F8BC0408        mov eax,[0x804bcf8]
00000BF3  3945E8            cmp [ebp-0x18],eax
00000BF6  7C95              jl 0xb8d
00000BF8  8D45D4            lea eax,[ebp-0x2c]
00000BFB  89442404          mov [esp+0x4],eax
00000BFF  C70424FCBC0408    mov dword [esp],0x804bcfc
00000C06  E8BD010000        call 0xdc8
00000C0B  8B00              mov eax,[eax]
00000C0D  8945F0            mov [ebp-0x10],eax
00000C10  C745E400000000    mov dword [ebp-0x1c],0x0
00000C17  EB61              jmp short 0xc7a
00000C19  8B45E4            mov eax,[ebp-0x1c]
00000C1C  8B55F0            mov edx,[ebp-0x10]
00000C1F  88C1              mov cl,al
00000C21  D3FA              sar edx,cl
00000C23  89D0              mov eax,edx
00000C25  83E001            and eax,byte +0x1
00000C28  85C0              test eax,eax
00000C2A  744B              jz 0xc77
00000C2C  8B45E4            mov eax,[ebp-0x1c]
00000C2F  BA01000000        mov edx,0x1
00000C34  88C1              mov cl,al
00000C36  D3E2              shl edx,cl
00000C38  89D0              mov eax,edx
00000C3A  3145F0            xor [ebp-0x10],eax
00000C3D  8B45E4            mov eax,[ebp-0x1c]
00000C40  8B0485A0BC0408    mov eax,[eax*4+0x804bca0]
00000C47  89442404          mov [esp+0x4],eax
00000C4B  C70424EA9D0408    mov dword [esp],0x8049dea
00000C52  E8C9FBFFFF        call 0x100000820
00000C57  837DF000          cmp dword [ebp-0x10],byte +0x0
00000C5B  740E              jz 0xc6b
00000C5D  C7042420000000    mov dword [esp],0x20
00000C64  E847FBFFFF        call 0x1000007b0
00000C69  EB0C              jmp short 0xc77
00000C6B  C704240A000000    mov dword [esp],0xa
00000C72  E839FBFFFF        call 0x1000007b0
00000C77  FF45E4            inc dword [ebp-0x1c]
00000C7A  A1F8BC0408        mov eax,[0x804bcf8]
00000C7F  3945E4            cmp [ebp-0x1c],eax
00000C82  7C95              jl 0xc19
00000C84  8B45D8            mov eax,[ebp-0x28]
00000C87  8D50FF            lea edx,[eax-0x1]
00000C8A  8955D8            mov [ebp-0x28],edx
00000C8D  85C0              test eax,eax
00000C8F  0F95C0            setnz al
00000C92  84C0              test al,al
00000C94  0F8590FDFFFF      jnz near 0x100000a2a
00000C9A  B800000000        mov eax,0x0
00000C9F  EB0C              jmp short 0xcad
00000CA1  EB02              jmp short 0xca5
00000CA3  EB00              jmp short 0xca5
00000CA5  890424            mov [esp],eax
00000CA8  E8E3FBFFFF        call 0x100000890
00000CAD  8B4DFC            mov ecx,[ebp-0x4]
00000CB0  C9                leave
00000CB1  8D61FC            lea esp,[ecx-0x4]
00000CB4  C3                ret
00000CB5  55                push ebp
00000CB6  89E5              mov ebp,esp
00000CB8  83EC18            sub esp,byte +0x18
00000CBB  837D0801          cmp dword [ebp+0x8],byte +0x1
00000CBF  7559              jnz 0xd1a
00000CC1  817D0CFFFF0000    cmp dword [ebp+0xc],0xffff
00000CC8  7550              jnz 0xd1a
00000CCA  C7042414BD0408    mov dword [esp],0x804bd14
00000CD1  E8EAFAFFFF        call 0x1000007c0
00000CD6  C744240854BC0408  mov dword [esp+0x8],0x804bc54
00000CDE  C744240414BD0408  mov dword [esp+0x4],0x804bd14
00000CE6  C70424F0870408    mov dword [esp],0x80487f0
00000CED  E88EFAFFFF        call 0x100000780
00000CF2  C70424FCBC0408    mov dword [esp],0x804bcfc
00000CF9  E842000000        call 0xd40
00000CFE  C744240854BC0408  mov dword [esp+0x8],0x804bc54
00000D06  C7442404FCBC0408  mov dword [esp+0x4],0x804bcfc
00000D0E  C70424F09C0408    mov dword [esp],0x8049cf0
00000D15  E866FAFFFF        call 0x100000780
00000D1A  C9                leave
00000D1B  C3                ret
00000D1C  55                push ebp
00000D1D  89E5              mov ebp,esp
00000D1F  83EC18            sub esp,byte +0x18
00000D22  C7442404FFFF0000  mov dword [esp+0x4],0xffff
00000D2A  C7042401000000    mov dword [esp],0x1
00000D31  E87FFFFFFF        call 0x100000cb5
00000D36  C9                leave
00000D37  C3                ret
00000D38  55                push ebp
00000D39  89E5              mov ebp,esp
00000D3B  8B450C            mov eax,[ebp+0xc]
00000D3E  5D                pop ebp
00000D3F  C3                ret
00000D40  55                push ebp
00000D41  89E5              mov ebp,esp
00000D43  83EC18            sub esp,byte +0x18
00000D46  8B4508            mov eax,[ebp+0x8]
00000D49  890424            mov [esp],eax
00000D4C  E8A9010000        call 0xefa
00000D51  C9                leave
00000D52  C3                ret
00000D53  90                nop
00000D54  55                push ebp
00000D55  89E5              mov ebp,esp
00000D57  83EC18            sub esp,byte +0x18
00000D5A  8B4508            mov eax,[ebp+0x8]
00000D5D  890424            mov [esp],eax
00000D60  E8F5010000        call 0xf5a
00000D65  C9                leave
00000D66  C3                ret
00000D67  90                nop
00000D68  55                push ebp
00000D69  89E5              mov ebp,esp
00000D6B  83EC18            sub esp,byte +0x18
00000D6E  8B550C            mov edx,[ebp+0xc]
00000D71  8B4508            mov eax,[ebp+0x8]
00000D74  8B4D10            mov ecx,[ebp+0x10]
00000D77  894C2408          mov [esp+0x8],ecx
00000D7B  89542404          mov [esp+0x4],edx
00000D7F  890424            mov [esp],eax
00000D82  E849020000        call 0xfd0
00000D87  83EC04            sub esp,byte +0x4
00000D8A  8B4508            mov eax,[ebp+0x8]
00000D8D  C9                leave
00000D8E  C20400            ret 0x4
00000D91  90                nop
00000D92  55                push ebp
00000D93  89E5              mov ebp,esp
00000D95  83EC18            sub esp,byte +0x18
00000D98  8B550C            mov edx,[ebp+0xc]
00000D9B  8B4508            mov eax,[ebp+0x8]
00000D9E  89542404          mov [esp+0x4],edx
00000DA2  890424            mov [esp],eax
00000DA5  E8F8020000        call 0x10a2
00000DAA  83EC04            sub esp,byte +0x4
00000DAD  8B4508            mov eax,[ebp+0x8]
00000DB0  C9                leave
00000DB1  C20400            ret 0x4
00000DB4  55                push ebp
00000DB5  89E5              mov ebp,esp
00000DB7  8B4508            mov eax,[ebp+0x8]
00000DBA  8B10              mov edx,[eax]
00000DBC  8B450C            mov eax,[ebp+0xc]
00000DBF  8B00              mov eax,[eax]
00000DC1  39C2              cmp edx,eax
00000DC3  0F95C0            setnz al
00000DC6  5D                pop ebp
00000DC7  C3                ret
00000DC8  55                push ebp
00000DC9  89E5              mov ebp,esp
00000DCB  57                push edi
00000DCC  56                push esi
00000DCD  53                push ebx
00000DCE  83EC4C            sub esp,byte +0x4c
00000DD1  8D45D0            lea eax,[ebp-0x30]
00000DD4  8B550C            mov edx,[ebp+0xc]
00000DD7  89542408          mov [esp+0x8],edx
00000DDB  8B5508            mov edx,[ebp+0x8]
00000DDE  89542404          mov [esp+0x4],edx
00000DE2  890424            mov [esp],eax
00000DE5  E8DA020000        call 0x10c4
00000DEA  83EC04            sub esp,byte +0x4
00000DED  B300              mov bl,0x0
00000DEF  BE00000000        mov esi,0x0
00000DF4  8D45D4            lea eax,[ebp-0x2c]
00000DF7  8B5508            mov edx,[ebp+0x8]
00000DFA  89542404          mov [esp+0x4],edx
00000DFE  890424            mov [esp],eax
00000E01  E88CFFFFFF        call 0x100000d92
00000E06  83EC04            sub esp,byte +0x4
00000E09  B301              mov bl,0x1
00000E0B  8D45D4            lea eax,[ebp-0x2c]
00000E0E  89442404          mov [esp+0x4],eax
00000E12  8D45D0            lea eax,[ebp-0x30]
00000E15  890424            mov [esp],eax
00000E18  E815030000        call 0x1132
00000E1D  84C0              test al,al
00000E1F  7541              jnz 0xe62
00000E21  8D45D0            lea eax,[ebp-0x30]
00000E24  890424            mov [esp],eax
00000E27  E8E4020000        call 0x1110
00000E2C  89C7              mov edi,eax
00000E2E  8D45C7            lea eax,[ebp-0x39]
00000E31  8B5508            mov edx,[ebp+0x8]
00000E34  89542404          mov [esp+0x4],edx
00000E38  890424            mov [esp],eax
00000E3B  E8AE020000        call 0x10ee
00000E40  83EC04            sub esp,byte +0x4
00000E43  BE01000000        mov esi,0x1
00000E48  897C2408          mov [esp+0x8],edi
00000E4C  8B450C            mov eax,[ebp+0xc]
00000E4F  89442404          mov [esp+0x4],eax
00000E53  8D45DB            lea eax,[ebp-0x25]
00000E56  890424            mov [esp],eax
00000E59  E8C0020000        call 0x111e
00000E5E  84C0              test al,al
00000E60  7404              jz 0xe66
00000E62  B001              mov al,0x1
00000E64  EB02              jmp short 0xe68
00000E66  B000              mov al,0x0
00000E68  89F1              mov ecx,esi
00000E6A  84C9              test cl,cl
00000E6C  84DB              test bl,bl
00000E6E  84C0              test al,al
00000E70  7449              jz 0xebb
00000E72  C745E400000000    mov dword [ebp-0x1c],0x0
00000E79  8D45E4            lea eax,[ebp-0x1c]
00000E7C  89442408          mov [esp+0x8],eax
00000E80  8B450C            mov eax,[ebp+0xc]
00000E83  89442404          mov [esp+0x4],eax
00000E87  8D45DC            lea eax,[ebp-0x24]
00000E8A  890424            mov [esp],eax
00000E8D  E8B4020000        call 0x1146
00000E92  8D45C0            lea eax,[ebp-0x40]
00000E95  8D55DC            lea edx,[ebp-0x24]
00000E98  8954240C          mov [esp+0xc],edx
00000E9C  8B55D0            mov edx,[ebp-0x30]
00000E9F  89542408          mov [esp+0x8],edx
00000EA3  8B5508            mov edx,[ebp+0x8]
00000EA6  89542404          mov [esp+0x4],edx
00000EAA  890424            mov [esp],eax
00000EAD  E8AE020000        call 0x1160
00000EB2  83EC04            sub esp,byte +0x4
00000EB5  8B45C0            mov eax,[ebp-0x40]
00000EB8  8945D0            mov [ebp-0x30],eax
00000EBB  8D45D0            lea eax,[ebp-0x30]
00000EBE  890424            mov [esp],eax
00000EC1  E84A020000        call 0x1110
00000EC6  83C004            add eax,byte +0x4
00000EC9  EB13              jmp short 0xede
00000ECB  89F1              mov ecx,esi
00000ECD  84C9              test cl,cl
00000ECF  84DB              test bl,bl
00000ED1  90                nop
00000ED2  EB02              jmp short 0xed6
00000ED4  EB00              jmp short 0xed6
00000ED6  890424            mov [esp],eax
00000ED9  E8B2F9FFFF        call 0x100000890
00000EDE  8D65F4            lea esp,[ebp-0xc]
00000EE1  5B                pop ebx
00000EE2  5E                pop esi
00000EE3  5F                pop edi
00000EE4  5D                pop ebp
00000EE5  C3                ret
00000EE6  55                push ebp
00000EE7  89E5              mov ebp,esp
00000EE9  83EC18            sub esp,byte +0x18
00000EEC  8B4508            mov eax,[ebp+0x8]
00000EEF  890424            mov [esp],eax
00000EF2  E805030000        call 0x11fc
00000EF7  C9                leave
00000EF8  C3                ret
00000EF9  90                nop
00000EFA  55                push ebp
00000EFB  89E5              mov ebp,esp
00000EFD  83EC18            sub esp,byte +0x18
00000F00  8B4508            mov eax,[ebp+0x8]
00000F03  890424            mov [esp],eax
00000F06  E8A1020000        call 0x11ac
00000F0B  C9                leave
00000F0C  C3                ret
00000F0D  90                nop
00000F0E  55                push ebp
00000F0F  89E5              mov ebp,esp
00000F11  53                push ebx
00000F12  83EC14            sub esp,byte +0x14
00000F15  8B4508            mov eax,[ebp+0x8]
00000F18  890424            mov [esp],eax
00000F1B  E840030000        call 0x1260
00000F20  89442404          mov [esp+0x4],eax
00000F24  8B4508            mov eax,[ebp+0x8]
00000F27  890424            mov [esp],eax
00000F2A  E8E1020000        call 0x1210
00000F2F  8B4508            mov eax,[ebp+0x8]
00000F32  890424            mov [esp],eax
00000F35  E8ACFFFFFF        call 0x100000ee6
00000F3A  EB17              jmp short 0xf53
00000F3C  89C3              mov ebx,eax
00000F3E  8B4508            mov eax,[ebp+0x8]
00000F41  890424            mov [esp],eax
00000F44  E89DFFFFFF        call 0x100000ee6
00000F49  89D8              mov eax,ebx
00000F4B  890424            mov [esp],eax
00000F4E  E83DF9FFFF        call 0x100000890
00000F53  83C414            add esp,byte +0x14
00000F56  5B                pop ebx
00000F57  5D                pop ebp
00000F58  C3                ret
00000F59  90                nop
00000F5A  55                push ebp
00000F5B  89E5              mov ebp,esp
00000F5D  53                push ebx
00000F5E  83EC14            sub esp,byte +0x14
00000F61  8B4508            mov eax,[ebp+0x8]
00000F64  890424            mov [esp],eax
00000F67  E8F4020000        call 0x1260
00000F6C  89442404          mov [esp+0x4],eax
00000F70  8B4508            mov eax,[ebp+0x8]
00000F73  890424            mov [esp],eax
00000F76  E895020000        call 0x1210
00000F7B  8B4508            mov eax,[ebp+0x8]
00000F7E  890424            mov [esp],eax
00000F81  E8F2020000        call 0x1278
00000F86  89C3              mov ebx,eax
00000F88  8B4508            mov eax,[ebp+0x8]
00000F8B  890424            mov [esp],eax
00000F8E  E8D9020000        call 0x126c
00000F93  8903              mov [ebx],eax
00000F95  8B4508            mov eax,[ebp+0x8]
00000F98  890424            mov [esp],eax
00000F9B  E8E4020000        call 0x1284
00000FA0  C70000000000      mov dword [eax],0x0
00000FA6  8B4508            mov eax,[ebp+0x8]
00000FA9  890424            mov [esp],eax
00000FAC  E8DF020000        call 0x1290
00000FB1  89C3              mov ebx,eax
00000FB3  8B4508            mov eax,[ebp+0x8]
00000FB6  890424            mov [esp],eax
00000FB9  E8AE020000        call 0x126c
00000FBE  8903              mov [ebx],eax
00000FC0  8B4508            mov eax,[ebp+0x8]
00000FC3  C7401400000000    mov dword [eax+0x14],0x0
00000FCA  83C414            add esp,byte +0x14
00000FCD  5B                pop ebx
00000FCE  5D                pop ebp
00000FCF  C3                ret
00000FD0  55                push ebp
00000FD1  89E5              mov ebp,esp
00000FD3  53                push ebx
00000FD4  83EC34            sub esp,byte +0x34
00000FD7  8B450C            mov eax,[ebp+0xc]
00000FDA  890424            mov [esp],eax
00000FDD  E88A020000        call 0x126c
00000FE2  89C3              mov ebx,eax
00000FE4  8B450C            mov eax,[ebp+0xc]
00000FE7  890424            mov [esp],eax
00000FEA  E871020000        call 0x1260
00000FEF  8D55F0            lea edx,[ebp-0x10]
00000FF2  8B4D10            mov ecx,[ebp+0x10]
00000FF5  894C2410          mov [esp+0x10],ecx
00000FF9  895C240C          mov [esp+0xc],ebx
00000FFD  89442408          mov [esp+0x8],eax
00001001  8B450C            mov eax,[ebp+0xc]
00001004  89442404          mov [esp+0x4],eax
00001008  891424            mov [esp],edx
0000100B  E88C020000        call 0x129c
00001010  83EC04            sub esp,byte +0x4
00001013  B300              mov bl,0x0
00001015  8D45F4            lea eax,[ebp-0xc]
00001018  8B550C            mov edx,[ebp+0xc]
0000101B  89542404          mov [esp+0x4],edx
0000101F  890424            mov [esp],eax
00001022  E87B000000        call 0x10a2
00001027  83EC04            sub esp,byte +0x4
0000102A  B301              mov bl,0x1
0000102C  8D45F4            lea eax,[ebp-0xc]
0000102F  89442404          mov [esp+0x4],eax
00001033  8D45F0            lea eax,[ebp-0x10]
00001036  890424            mov [esp],eax
00001039  E8F4000000        call 0x1132
0000103E  84C0              test al,al
00001040  7525              jnz 0x1067
00001042  8B45F0            mov eax,[ebp-0x10]
00001045  890424            mov [esp],eax
00001048  E8C2020000        call 0x130f
0000104D  8B550C            mov edx,[ebp+0xc]
00001050  89442408          mov [esp+0x8],eax
00001054  8B4510            mov eax,[ebp+0x10]
00001057  89442404          mov [esp+0x4],eax
0000105B  891424            mov [esp],edx
0000105E  E8BB000000        call 0x111e
00001063  84C0              test al,al
00001065  7417              jz 0x107e
00001067  8B4508            mov eax,[ebp+0x8]
0000106A  8B550C            mov edx,[ebp+0xc]
0000106D  89542404          mov [esp+0x4],edx
00001071  890424            mov [esp],eax
00001074  E829000000        call 0x10a2
00001079  83EC04            sub esp,byte +0x4
0000107C  EB08              jmp short 0x1086
0000107E  8B4508            mov eax,[ebp+0x8]
00001081  8B55F0            mov edx,[ebp-0x10]
00001084  8910              mov [eax],edx
00001086  84DB              test bl,bl
00001088  EB0D              jmp short 0x1097
0000108A  84DB              test bl,bl
0000108C  90                nop
0000108D  EB00              jmp short 0x108f
0000108F  890424            mov [esp],eax
00001092  E8F9F7FFFF        call 0x100000890
00001097  8B4508            mov eax,[ebp+0x8]
0000109A  8B5DFC            mov ebx,[ebp-0x4]
0000109D  C9                leave
0000109E  C20400            ret 0x4
000010A1  90                nop
000010A2  55                push ebp
000010A3  89E5              mov ebp,esp
000010A5  83EC18            sub esp,byte +0x18
000010A8  8B450C            mov eax,[ebp+0xc]
000010AB  83C004            add eax,byte +0x4
000010AE  89442404          mov [esp+0x4],eax
000010B2  8B4508            mov eax,[ebp+0x8]
000010B5  890424            mov [esp],eax
000010B8  E875020000        call 0x1332
000010BD  8B4508            mov eax,[ebp+0x8]
000010C0  C9                leave
000010C1  C20400            ret 0x4
000010C4  55                push ebp
000010C5  89E5              mov ebp,esp
000010C7  83EC18            sub esp,byte +0x18
000010CA  8B550C            mov edx,[ebp+0xc]
000010CD  8B4508            mov eax,[ebp+0x8]
000010D0  8B4D10            mov ecx,[ebp+0x10]
000010D3  894C2408          mov [esp+0x8],ecx
000010D7  89542404          mov [esp+0x4],edx
000010DB  890424            mov [esp],eax
000010DE  E85D020000        call 0x1340
000010E3  83EC04            sub esp,byte +0x4
000010E6  8B4508            mov eax,[ebp+0x8]
000010E9  C9                leave
000010EA  C20400            ret 0x4
000010ED  90                nop
000010EE  55                push ebp
000010EF  89E5              mov ebp,esp
000010F1  83EC18            sub esp,byte +0x18
000010F4  8B550C            mov edx,[ebp+0xc]
000010F7  8B4508            mov eax,[ebp+0x8]
000010FA  89542404          mov [esp+0x4],edx
000010FE  890424            mov [esp],eax
00001101  E888020000        call 0x138e
00001106  83EC04            sub esp,byte +0x4
00001109  8B4508            mov eax,[ebp+0x8]
0000110C  C9                leave
0000110D  C20400            ret 0x4
00001110  55                push ebp
00001111  89E5              mov ebp,esp
00001113  8B4508            mov eax,[ebp+0x8]
00001116  8B00              mov eax,[eax]
00001118  83C010            add eax,byte +0x10
0000111B  5D                pop ebp
0000111C  C3                ret
0000111D  90                nop
0000111E  55                push ebp
0000111F  89E5              mov ebp,esp
00001121  8B450C            mov eax,[ebp+0xc]
00001124  8B10              mov edx,[eax]
00001126  8B4510            mov eax,[ebp+0x10]
00001129  8B00              mov eax,[eax]
0000112B  39C2              cmp edx,eax
0000112D  0F9CC0            setl al
00001130  5D                pop ebp
00001131  C3                ret
00001132  55                push ebp
00001133  89E5              mov ebp,esp
00001135  8B4508            mov eax,[ebp+0x8]
00001138  8B10              mov edx,[eax]
0000113A  8B450C            mov eax,[ebp+0xc]
0000113D  8B00              mov eax,[eax]
0000113F  39C2              cmp edx,eax
00001141  0F94C0            setz al
00001144  5D                pop ebp
00001145  C3                ret
00001146  55                push ebp
00001147  89E5              mov ebp,esp
00001149  8B450C            mov eax,[ebp+0xc]
0000114C  8B10              mov edx,[eax]
0000114E  8B4508            mov eax,[ebp+0x8]
00001151  8910              mov [eax],edx
00001153  8B4510            mov eax,[ebp+0x10]
00001156  8B10              mov edx,[eax]
00001158  8B4508            mov eax,[ebp+0x8]
0000115B  895004            mov [eax+0x4],edx
0000115E  5D                pop ebp
0000115F  C3                ret
00001160  55                push ebp
00001161  89E5              mov ebp,esp
00001163  83EC28            sub esp,byte +0x28
00001166  8D4510            lea eax,[ebp+0x10]
00001169  89442404          mov [esp+0x4],eax
0000116D  8D45F4            lea eax,[ebp-0xc]
00001170  890424            mov [esp],eax
00001173  E822020000        call 0x139a
00001178  8B550C            mov edx,[ebp+0xc]
0000117B  8B4508            mov eax,[ebp+0x8]
0000117E  8B4D14            mov ecx,[ebp+0x14]
00001181  894C240C          mov [esp+0xc],ecx
00001185  8B4DF4            mov ecx,[ebp-0xc]
00001188  894C2408          mov [esp+0x8],ecx
0000118C  89542404          mov [esp+0x4],edx
00001190  890424            mov [esp],eax
00001193  E812020000        call 0x13aa
00001198  83EC04            sub esp,byte +0x4
0000119B  EB08              jmp short 0x11a5
0000119D  890424            mov [esp],eax
000011A0  E8EBF6FFFF        call 0x100000890
000011A5  8B4508            mov eax,[ebp+0x8]
000011A8  C9                leave
000011A9  C20400            ret 0x4
000011AC  55                push ebp
000011AD  89E5              mov ebp,esp
000011AF  83EC18            sub esp,byte +0x18
000011B2  8B4508            mov eax,[ebp+0x8]
000011B5  890424            mov [esp],eax
000011B8  E881020000        call 0x143e
000011BD  8B4508            mov eax,[ebp+0x8]
000011C0  C7400400000000    mov dword [eax+0x4],0x0
000011C7  8B4508            mov eax,[ebp+0x8]
000011CA  C7400800000000    mov dword [eax+0x8],0x0
000011D1  8B4508            mov eax,[ebp+0x8]
000011D4  C7400C00000000    mov dword [eax+0xc],0x0
000011DB  8B4508            mov eax,[ebp+0x8]
000011DE  C7401000000000    mov dword [eax+0x10],0x0
000011E5  8B4508            mov eax,[ebp+0x8]
000011E8  C7401400000000    mov dword [eax+0x14],0x0
000011EF  8B4508            mov eax,[ebp+0x8]
000011F2  890424            mov [esp],eax
000011F5  E858020000        call 0x1452
000011FA  C9                leave
000011FB  C3                ret
000011FC  55                push ebp
000011FD  89E5              mov ebp,esp
000011FF  83EC18            sub esp,byte +0x18
00001202  8B4508            mov eax,[ebp+0x8]
00001205  890424            mov [esp],eax
00001208  E877020000        call 0x1484
0000120D  C9                leave
0000120E  C3                ret
0000120F  90                nop
00001210  55                push ebp
00001211  89E5              mov ebp,esp
00001213  83EC28            sub esp,byte +0x28
00001216  EB40              jmp short 0x1258
00001218  8B450C            mov eax,[ebp+0xc]
0000121B  890424            mov [esp],eax
0000121E  E866020000        call 0x1489
00001223  89442404          mov [esp+0x4],eax
00001227  8B4508            mov eax,[ebp+0x8]
0000122A  890424            mov [esp],eax
0000122D  E8DEFFFFFF        call 0x100001210
00001232  8B450C            mov eax,[ebp+0xc]
00001235  890424            mov [esp],eax
00001238  E857020000        call 0x1494
0000123D  8945F4            mov [ebp-0xc],eax
00001240  8B450C            mov eax,[ebp+0xc]
00001243  89442404          mov [esp+0x4],eax
00001247  8B4508            mov eax,[ebp+0x8]
0000124A  890424            mov [esp],eax
0000124D  E84E020000        call 0x14a0
00001252  8B45F4            mov eax,[ebp-0xc]
00001255  89450C            mov [ebp+0xc],eax
00001258  837D0C00          cmp dword [ebp+0xc],byte +0x0
0000125C  75BA              jnz 0x1218
0000125E  C9                leave
0000125F  C3                ret
00001260  55                push ebp
00001261  89E5              mov ebp,esp
00001263  8B4508            mov eax,[ebp+0x8]
00001266  8B4008            mov eax,[eax+0x8]
00001269  5D                pop ebp
0000126A  C3                ret
0000126B  90                nop
0000126C  55                push ebp
0000126D  89E5              mov ebp,esp
0000126F  8B4508            mov eax,[ebp+0x8]
00001272  83C004            add eax,byte +0x4
00001275  5D                pop ebp
00001276  C3                ret
00001277  90                nop
00001278  55                push ebp
00001279  89E5              mov ebp,esp
0000127B  8B4508            mov eax,[ebp+0x8]
0000127E  83C00C            add eax,byte +0xc
00001281  5D                pop ebp
00001282  C3                ret
00001283  90                nop
00001284  55                push ebp
00001285  89E5              mov ebp,esp
00001287  8B4508            mov eax,[ebp+0x8]
0000128A  83C008            add eax,byte +0x8
0000128D  5D                pop ebp
0000128E  C3                ret
0000128F  90                nop
00001290  55                push ebp
00001291  89E5              mov ebp,esp
00001293  8B4508            mov eax,[ebp+0x8]
00001296  83C010            add eax,byte +0x10
00001299  5D                pop ebp
0000129A  C3                ret
0000129B  90                nop
0000129C  55                push ebp
0000129D  89E5              mov ebp,esp
0000129F  83EC18            sub esp,byte +0x18
000012A2  EB4C              jmp short 0x12f0
000012A4  8B4510            mov eax,[ebp+0x10]
000012A7  890424            mov [esp],eax
000012AA  E84E020000        call 0x14fd
000012AF  8B550C            mov edx,[ebp+0xc]
000012B2  8B4D18            mov ecx,[ebp+0x18]
000012B5  894C2408          mov [esp+0x8],ecx
000012B9  89442404          mov [esp+0x4],eax
000012BD  891424            mov [esp],edx
000012C0  E859FEFFFF        call 0x10000111e
000012C5  83F001            xor eax,byte +0x1
000012C8  84C0              test al,al
000012CA  7416              jz 0x12e2
000012CC  8B4510            mov eax,[ebp+0x10]
000012CF  894514            mov [ebp+0x14],eax
000012D2  8B4510            mov eax,[ebp+0x10]
000012D5  890424            mov [esp],eax
000012D8  E8B7010000        call 0x1494
000012DD  894510            mov [ebp+0x10],eax
000012E0  EB0E              jmp short 0x12f0
000012E2  8B4510            mov eax,[ebp+0x10]
000012E5  890424            mov [esp],eax
000012E8  E89C010000        call 0x1489
000012ED  894510            mov [ebp+0x10],eax
000012F0  837D1000          cmp dword [ebp+0x10],byte +0x0
000012F4  75AE              jnz 0x12a4
000012F6  8B4514            mov eax,[ebp+0x14]
000012F9  89442404          mov [esp+0x4],eax
000012FD  8B4508            mov eax,[ebp+0x8]
00001300  890424            mov [esp],eax
00001303  E82A000000        call 0x1332
00001308  8B4508            mov eax,[ebp+0x8]
0000130B  C9                leave
0000130C  C20400            ret 0x4
0000130F  55                push ebp
00001310  89E5              mov ebp,esp
00001312  83EC28            sub esp,byte +0x28
00001315  8B4508            mov eax,[ebp+0x8]
00001318  890424            mov [esp],eax
0000131B  E8FF010000        call 0x151f
00001320  89442404          mov [esp+0x4],eax
00001324  8D45F7            lea eax,[ebp-0x9]
00001327  890424            mov [esp],eax
0000132A  E8FB010000        call 0x152a
0000132F  C9                leave
00001330  C3                ret
00001331  90                nop
00001332  55                push ebp
00001333  89E5              mov ebp,esp
00001335  8B4508            mov eax,[ebp+0x8]
00001338  8B550C            mov edx,[ebp+0xc]
0000133B  8910              mov [eax],edx
0000133D  5D                pop ebp
0000133E  C3                ret
0000133F  90                nop
00001340  55                push ebp
00001341  89E5              mov ebp,esp
00001343  53                push ebx
00001344  83EC24            sub esp,byte +0x24
00001347  8B450C            mov eax,[ebp+0xc]
0000134A  890424            mov [esp],eax
0000134D  E81AFFFFFF        call 0x10000126c
00001352  89C3              mov ebx,eax
00001354  8B450C            mov eax,[ebp+0xc]
00001357  890424            mov [esp],eax
0000135A  E801FFFFFF        call 0x100001260
0000135F  8B5508            mov edx,[ebp+0x8]
00001362  8B4D10            mov ecx,[ebp+0x10]
00001365  894C2410          mov [esp+0x10],ecx
00001369  895C240C          mov [esp+0xc],ebx
0000136D  89442408          mov [esp+0x8],eax
00001371  8B450C            mov eax,[ebp+0xc]
00001374  89442404          mov [esp+0x4],eax
00001378  891424            mov [esp],edx
0000137B  E81CFFFFFF        call 0x10000129c
00001380  83EC04            sub esp,byte +0x4
00001383  8B4508            mov eax,[ebp+0x8]
00001386  8B5DFC            mov ebx,[ebp-0x4]
00001389  C9                leave
0000138A  C20400            ret 0x4
0000138D  90                nop
0000138E  55                push ebp
0000138F  89E5              mov ebp,esp
00001391  90                nop
00001392  8B4508            mov eax,[ebp+0x8]
00001395  5D                pop ebp
00001396  C20400            ret 0x4
00001399  90                nop
0000139A  55                push ebp
0000139B  89E5              mov ebp,esp
0000139D  8B450C            mov eax,[ebp+0xc]
000013A0  8B10              mov edx,[eax]
000013A2  8B4508            mov eax,[ebp+0x8]
000013A5  8910              mov [eax],edx
000013A7  5D                pop ebp
000013A8  C3                ret
000013A9  90                nop
000013AA  55                push ebp
000013AB  89E5              mov ebp,esp
000013AD  53                push ebx
000013AE  83EC34            sub esp,byte +0x34
000013B1  8B4514            mov eax,[ebp+0x14]
000013B4  89442404          mov [esp+0x4],eax
000013B8  8D45F7            lea eax,[ebp-0x9]
000013BB  890424            mov [esp],eax
000013BE  E867010000        call 0x152a
000013C3  8D55EC            lea edx,[ebp-0x14]
000013C6  8944240C          mov [esp+0xc],eax
000013CA  8B4510            mov eax,[ebp+0x10]
000013CD  89442408          mov [esp+0x8],eax
000013D1  8B450C            mov eax,[ebp+0xc]
000013D4  89442404          mov [esp+0x4],eax
000013D8  891424            mov [esp],edx
000013DB  E852010000        call 0x1532
000013E0  83EC04            sub esp,byte +0x4
000013E3  8B45F0            mov eax,[ebp-0x10]
000013E6  85C0              test eax,eax
000013E8  742C              jz 0x1416
000013EA  8B4DF0            mov ecx,[ebp-0x10]
000013ED  8B55EC            mov edx,[ebp-0x14]
000013F0  8B4508            mov eax,[ebp+0x8]
000013F3  8B5D14            mov ebx,[ebp+0x14]
000013F6  895C2410          mov [esp+0x10],ebx
000013FA  894C240C          mov [esp+0xc],ecx
000013FE  89542408          mov [esp+0x8],edx
00001402  8B550C            mov edx,[ebp+0xc]
00001405  89542404          mov [esp+0x4],edx
00001409  890424            mov [esp],eax
0000140C  E859040000        call 0x186a
00001411  83EC04            sub esp,byte +0x4
00001414  EB1E              jmp short 0x1434
00001416  8B45EC            mov eax,[ebp-0x14]
00001419  89442404          mov [esp+0x4],eax
0000141D  8B4508            mov eax,[ebp+0x8]
00001420  890424            mov [esp],eax
00001423  E80AFFFFFF        call 0x100001332
00001428  EB0A              jmp short 0x1434
0000142A  EB00              jmp short 0x142c
0000142C  890424            mov [esp],eax
0000142F  E85CF4FFFF        call 0x100000890
00001434  8B4508            mov eax,[ebp+0x8]
00001437  8B5DFC            mov ebx,[ebp-0x4]
0000143A  C9                leave
0000143B  C20400            ret 0x4
0000143E  55                push ebp
0000143F  89E5              mov ebp,esp
00001441  83EC18            sub esp,byte +0x18
00001444  8B4508            mov eax,[ebp+0x8]
00001447  890424            mov [esp],eax
0000144A  E8E9040000        call 0x1938
0000144F  C9                leave
00001450  C3                ret
00001451  90                nop
00001452  55                push ebp
00001453  89E5              mov ebp,esp
00001455  8B4508            mov eax,[ebp+0x8]
00001458  C7400400000000    mov dword [eax+0x4],0x0
0000145F  8B4508            mov eax,[ebp+0x8]
00001462  C7400800000000    mov dword [eax+0x8],0x0
00001469  8B4508            mov eax,[ebp+0x8]
0000146C  8D5004            lea edx,[eax+0x4]
0000146F  8B4508            mov eax,[ebp+0x8]
00001472  89500C            mov [eax+0xc],edx
00001475  8B4508            mov eax,[ebp+0x8]
00001478  8D5004            lea edx,[eax+0x4]
0000147B  8B4508            mov eax,[ebp+0x8]
0000147E  895010            mov [eax+0x10],edx
00001481  5D                pop ebp
00001482  C3                ret
00001483  90                nop
00001484  55                push ebp
00001485  89E5              mov ebp,esp
00001487  5D                pop ebp
00001488  C3                ret
00001489  55                push ebp
0000148A  89E5              mov ebp,esp
0000148C  8B4508            mov eax,[ebp+0x8]
0000148F  8B400C            mov eax,[eax+0xc]
00001492  5D                pop ebp
00001493  C3                ret
00001494  55                push ebp
00001495  89E5              mov ebp,esp
00001497  8B4508            mov eax,[ebp+0x8]
0000149A  8B4008            mov eax,[eax+0x8]
0000149D  5D                pop ebp
0000149E  C3                ret
0000149F  90                nop
000014A0  55                push ebp
000014A1  89E5              mov ebp,esp
000014A3  53                push ebx
000014A4  83EC24            sub esp,byte +0x24
000014A7  8B450C            mov eax,[ebp+0xc]
000014AA  83C010            add eax,byte +0x10
000014AD  890424            mov [esp],eax
000014B0  E8C4040000        call 0x1979
000014B5  89C3              mov ebx,eax
000014B7  8D45F7            lea eax,[ebp-0x9]
000014BA  8B5508            mov edx,[ebp+0x8]
000014BD  89542404          mov [esp+0x4],edx
000014C1  890424            mov [esp],eax
000014C4  E875040000        call 0x193e
000014C9  83EC04            sub esp,byte +0x4
000014CC  895C2404          mov [esp+0x4],ebx
000014D0  8D45F7            lea eax,[ebp-0x9]
000014D3  890424            mov [esp],eax
000014D6  E8A7040000        call 0x1982
000014DB  8D45F7            lea eax,[ebp-0x9]
000014DE  890424            mov [esp],eax
000014E1  E880040000        call 0x1966
000014E6  8B450C            mov eax,[ebp+0xc]
000014E9  89442404          mov [esp+0x4],eax
000014ED  8B4508            mov eax,[ebp+0x8]
000014F0  890424            mov [esp],eax
000014F3  E890040000        call 0x1988
000014F8  8B5DFC            mov ebx,[ebp-0x4]
000014FB  C9                leave
000014FC  C3                ret
000014FD  55                push ebp
000014FE  89E5              mov ebp,esp
00001500  83EC28            sub esp,byte +0x28
00001503  8B4508            mov eax,[ebp+0x8]
00001506  890424            mov [esp],eax
00001509  E89C040000        call 0x19aa
0000150E  89442404          mov [esp+0x4],eax
00001512  8D45F7            lea eax,[ebp-0x9]
00001515  890424            mov [esp],eax
00001518  E80D000000        call 0x152a
0000151D  C9                leave
0000151E  C3                ret
0000151F  55                push ebp
00001520  89E5              mov ebp,esp
00001522  8B4508            mov eax,[ebp+0x8]
00001525  83C010            add eax,byte +0x10
00001528  5D                pop ebp
00001529  C3                ret
0000152A  55                push ebp
0000152B  89E5              mov ebp,esp
0000152D  8B450C            mov eax,[ebp+0xc]
00001530  5D                pop ebp
00001531  C3                ret
00001532  55                push ebp
00001533  89E5              mov ebp,esp
00001535  53                push ebx
00001536  83EC34            sub esp,byte +0x34
00001539  8D45E0            lea eax,[ebp-0x20]
0000153C  8D5510            lea edx,[ebp+0x10]
0000153F  89542404          mov [esp+0x4],edx
00001543  890424            mov [esp],eax
00001546  E86B040000        call 0x19b6
0000154B  83EC04            sub esp,byte +0x4
0000154E  8B5DE0            mov ebx,[ebp-0x20]
00001551  8B450C            mov eax,[ebp+0xc]
00001554  890424            mov [esp],eax
00001557  E810FDFFFF        call 0x10000126c
0000155C  39C3              cmp ebx,eax
0000155E  0F94C0            setz al
00001561  84C0              test al,al
00001563  0F8496000000      jz near 0x15ff
00001569  8B450C            mov eax,[ebp+0xc]
0000156C  890424            mov [esp],eax
0000156F  E864040000        call 0x19d8
00001574  85C0              test eax,eax
00001576  7433              jz 0x15ab
00001578  8B450C            mov eax,[ebp+0xc]
0000157B  890424            mov [esp],eax
0000157E  E80DFDFFFF        call 0x100001290
00001583  8B00              mov eax,[eax]
00001585  890424            mov [esp],eax
00001588  E882FDFFFF        call 0x10000130f
0000158D  8B550C            mov edx,[ebp+0xc]
00001590  8B4D14            mov ecx,[ebp+0x14]
00001593  894C2408          mov [esp+0x8],ecx
00001597  89442404          mov [esp+0x4],eax
0000159B  891424            mov [esp],edx
0000159E  E87BFBFFFF        call 0x10000111e
000015A3  84C0              test al,al
000015A5  7404              jz 0x15ab
000015A7  B001              mov al,0x1
000015A9  EB02              jmp short 0x15ad
000015AB  B000              mov al,0x0
000015AD  84C0              test al,al
000015AF  742D              jz 0x15de
000015B1  8B450C            mov eax,[ebp+0xc]
000015B4  890424            mov [esp],eax
000015B7  E8D4FCFFFF        call 0x100001290
000015BC  C745E400000000    mov dword [ebp-0x1c],0x0
000015C3  89442408          mov [esp+0x8],eax
000015C7  8D45E4            lea eax,[ebp-0x1c]
000015CA  89442404          mov [esp+0x4],eax
000015CE  8B4508            mov eax,[ebp+0x8]
000015D1  890424            mov [esp],eax
000015D4  E80B040000        call 0x19e4
000015D9  E981020000        jmp 0x185f
000015DE  8B4508            mov eax,[ebp+0x8]
000015E1  8B5514            mov edx,[ebp+0x14]
000015E4  89542408          mov [esp+0x8],edx
000015E8  8B550C            mov edx,[ebp+0xc]
000015EB  89542404          mov [esp+0x4],edx
000015EF  890424            mov [esp],eax
000015F2  E807040000        call 0x19fe
000015F7  83EC04            sub esp,byte +0x4
000015FA  E960020000        jmp 0x185f
000015FF  8B45E0            mov eax,[ebp-0x20]
00001602  890424            mov [esp],eax
00001605  E805FDFFFF        call 0x10000130f
0000160A  8B550C            mov edx,[ebp+0xc]
0000160D  89442408          mov [esp+0x8],eax
00001611  8B4514            mov eax,[ebp+0x14]
00001614  89442404          mov [esp+0x4],eax
00001618  891424            mov [esp],edx
0000161B  E8FEFAFFFF        call 0x10000111e
00001620  84C0              test al,al
00001622  0F84F6000000      jz near 0x171e
00001628  8B45E0            mov eax,[ebp-0x20]
0000162B  8945DC            mov [ebp-0x24],eax
0000162E  8B5DE0            mov ebx,[ebp-0x20]
00001631  8B450C            mov eax,[ebp+0xc]
00001634  890424            mov [esp],eax
00001637  E83CFCFFFF        call 0x100001278
0000163C  8B00              mov eax,[eax]
0000163E  39C3              cmp ebx,eax
00001640  0F94C0            setz al
00001643  84C0              test al,al
00001645  7430              jz 0x1677
00001647  8B450C            mov eax,[ebp+0xc]
0000164A  890424            mov [esp],eax
0000164D  E826FCFFFF        call 0x100001278
00001652  89C3              mov ebx,eax
00001654  8B450C            mov eax,[ebp+0xc]
00001657  890424            mov [esp],eax
0000165A  E819FCFFFF        call 0x100001278
0000165F  895C2408          mov [esp+0x8],ebx
00001663  89442404          mov [esp+0x4],eax
00001667  8B4508            mov eax,[ebp+0x8]
0000166A  890424            mov [esp],eax
0000166D  E872030000        call 0x19e4
00001672  E9E8010000        jmp 0x185f
00001677  8D45DC            lea eax,[ebp-0x24]
0000167A  890424            mov [esp],eax
0000167D  E8DE040000        call 0x1b60
00001682  8B00              mov eax,[eax]
00001684  890424            mov [esp],eax
00001687  E883FCFFFF        call 0x10000130f
0000168C  8B550C            mov edx,[ebp+0xc]
0000168F  8B4D14            mov ecx,[ebp+0x14]
00001692  894C2408          mov [esp+0x8],ecx
00001696  89442404          mov [esp+0x4],eax
0000169A  891424            mov [esp],edx
0000169D  E87CFAFFFF        call 0x10000111e
000016A2  84C0              test al,al
000016A4  7457              jz 0x16fd
000016A6  8B45DC            mov eax,[ebp-0x24]
000016A9  890424            mov [esp],eax
000016AC  E8D8FDFFFF        call 0x100001489
000016B1  85C0              test eax,eax
000016B3  0F94C0            setz al
000016B6  84C0              test al,al
000016B8  7425              jz 0x16df
000016BA  C745E800000000    mov dword [ebp-0x18],0x0
000016C1  8D45DC            lea eax,[ebp-0x24]
000016C4  89442408          mov [esp+0x8],eax
000016C8  8D45E8            lea eax,[ebp-0x18]
000016CB  89442404          mov [esp+0x4],eax
000016CF  8B4508            mov eax,[ebp+0x8]
000016D2  890424            mov [esp],eax
000016D5  E80A030000        call 0x19e4
000016DA  E980010000        jmp 0x185f
000016DF  8D45E0            lea eax,[ebp-0x20]
000016E2  89442408          mov [esp+0x8],eax
000016E6  8D45E0            lea eax,[ebp-0x20]
000016E9  89442404          mov [esp+0x4],eax
000016ED  8B4508            mov eax,[ebp+0x8]
000016F0  890424            mov [esp],eax
000016F3  E8EC020000        call 0x19e4
000016F8  E962010000        jmp 0x185f
000016FD  8B4508            mov eax,[ebp+0x8]
00001700  8B5514            mov edx,[ebp+0x14]
00001703  89542408          mov [esp+0x8],edx
00001707  8B550C            mov edx,[ebp+0xc]
0000170A  89542404          mov [esp+0x4],edx
0000170E  890424            mov [esp],eax
00001711  E8E8020000        call 0x19fe
00001716  83EC04            sub esp,byte +0x4
00001719  E941010000        jmp 0x185f
0000171E  8B45E0            mov eax,[ebp-0x20]
00001721  890424            mov [esp],eax
00001724  E8E6FBFFFF        call 0x10000130f
00001729  8B550C            mov edx,[ebp+0xc]
0000172C  8B4D14            mov ecx,[ebp+0x14]
0000172F  894C2408          mov [esp+0x8],ecx
00001733  89442404          mov [esp+0x4],eax
00001737  891424            mov [esp],edx
0000173A  E8DFF9FFFF        call 0x10000111e
0000173F  84C0              test al,al
00001741  0F84EA000000      jz near 0x1831
00001747  8B45E0            mov eax,[ebp-0x20]
0000174A  8945D8            mov [ebp-0x28],eax
0000174D  8B5DE0            mov ebx,[ebp-0x20]
00001750  8B450C            mov eax,[ebp+0xc]
00001753  890424            mov [esp],eax
00001756  E835FBFFFF        call 0x100001290
0000175B  8B00              mov eax,[eax]
0000175D  39C3              cmp ebx,eax
0000175F  0F94C0            setz al
00001762  84C0              test al,al
00001764  742D              jz 0x1793
00001766  8B450C            mov eax,[ebp+0xc]
00001769  890424            mov [esp],eax
0000176C  E81FFBFFFF        call 0x100001290
00001771  C745EC00000000    mov dword [ebp-0x14],0x0
00001778  89442408          mov [esp+0x8],eax
0000177C  8D45EC            lea eax,[ebp-0x14]
0000177F  89442404          mov [esp+0x4],eax
00001783  8B4508            mov eax,[ebp+0x8]
00001786  890424            mov [esp],eax
00001789  E856020000        call 0x19e4
0000178E  E9CC000000        jmp 0x185f
00001793  8D45D8            lea eax,[ebp-0x28]
00001796  890424            mov [esp],eax
00001799  E8E0030000        call 0x1b7e
0000179E  8B00              mov eax,[eax]
000017A0  890424            mov [esp],eax
000017A3  E867FBFFFF        call 0x10000130f
000017A8  8B550C            mov edx,[ebp+0xc]
000017AB  89442408          mov [esp+0x8],eax
000017AF  8B4514            mov eax,[ebp+0x14]
000017B2  89442404          mov [esp+0x4],eax
000017B6  891424            mov [esp],edx
000017B9  E860F9FFFF        call 0x10000111e
000017BE  84C0              test al,al
000017C0  7451              jz 0x1813
000017C2  8B45E0            mov eax,[ebp-0x20]
000017C5  890424            mov [esp],eax
000017C8  E8BCFCFFFF        call 0x100001489
000017CD  85C0              test eax,eax
000017CF  0F94C0            setz al
000017D2  84C0              test al,al
000017D4  7422              jz 0x17f8
000017D6  C745F000000000    mov dword [ebp-0x10],0x0
000017DD  8D45E0            lea eax,[ebp-0x20]
000017E0  89442408          mov [esp+0x8],eax
000017E4  8D45F0            lea eax,[ebp-0x10]
000017E7  89442404          mov [esp+0x4],eax
000017EB  8B4508            mov eax,[ebp+0x8]
000017EE  890424            mov [esp],eax
000017F1  E8EE010000        call 0x19e4
000017F6  EB67              jmp short 0x185f
000017F8  8D45D8            lea eax,[ebp-0x28]
000017FB  89442408          mov [esp+0x8],eax
000017FF  8D45D8            lea eax,[ebp-0x28]
00001802  89442404          mov [esp+0x4],eax
00001806  8B4508            mov eax,[ebp+0x8]
00001809  890424            mov [esp],eax
0000180C  E8D3010000        call 0x19e4
00001811  EB4C              jmp short 0x185f
00001813  8B4508            mov eax,[ebp+0x8]
00001816  8B5514            mov edx,[ebp+0x14]
00001819  89542408          mov [esp+0x8],edx
0000181D  8B550C            mov edx,[ebp+0xc]
00001820  89542404          mov [esp+0x4],edx
00001824  890424            mov [esp],eax
00001827  E8D2010000        call 0x19fe
0000182C  83EC04            sub esp,byte +0x4
0000182F  EB2E              jmp short 0x185f
00001831  C745F400000000    mov dword [ebp-0xc],0x0
00001838  8D45F4            lea eax,[ebp-0xc]
0000183B  89442408          mov [esp+0x8],eax
0000183F  8D45E0            lea eax,[ebp-0x20]
00001842  89442404          mov [esp+0x4],eax
00001846  8B4508            mov eax,[ebp+0x8]
00001849  890424            mov [esp],eax
0000184C  E893010000        call 0x19e4
00001851  EB0C              jmp short 0x185f
00001853  EB02              jmp short 0x1857
00001855  EB00              jmp short 0x1857
00001857  890424            mov [esp],eax
0000185A  E831F0FFFF        call 0x100000890
0000185F  8B4508            mov eax,[ebp+0x8]
00001862  8B5DFC            mov ebx,[ebp-0x4]
00001865  C9                leave
00001866  C20400            ret 0x4
00001869  90                nop
0000186A  55                push ebp
0000186B  89E5              mov ebp,esp
0000186D  56                push esi
0000186E  53                push ebx
0000186F  83EC20            sub esp,byte +0x20
00001872  B300              mov bl,0x0
00001874  837D1000          cmp dword [ebp+0x10],byte +0x0
00001878  7548              jnz 0x18c2
0000187A  8B450C            mov eax,[ebp+0xc]
0000187D  890424            mov [esp],eax
00001880  E8E7F9FFFF        call 0x10000126c
00001885  3B4514            cmp eax,[ebp+0x14]
00001888  7438              jz 0x18c2
0000188A  8B4514            mov eax,[ebp+0x14]
0000188D  890424            mov [esp],eax
00001890  E87AFAFFFF        call 0x10000130f
00001895  89C6              mov esi,eax
00001897  B301              mov bl,0x1
00001899  8B4518            mov eax,[ebp+0x18]
0000189C  89442404          mov [esp+0x4],eax
000018A0  8D45EF            lea eax,[ebp-0x11]
000018A3  890424            mov [esp],eax
000018A6  E87FFCFFFF        call 0x10000152a
000018AB  8B550C            mov edx,[ebp+0xc]
000018AE  89742408          mov [esp+0x8],esi
000018B2  89442404          mov [esp+0x4],eax
000018B6  891424            mov [esp],edx
000018B9  E860F8FFFF        call 0x10000111e
000018BE  84C0              test al,al
000018C0  7404              jz 0x18c6
000018C2  B001              mov al,0x1
000018C4  EB02              jmp short 0x18c8
000018C6  B000              mov al,0x0
000018C8  8845F7            mov [ebp-0x9],al
000018CB  84DB              test bl,bl
000018CD  90                nop
000018CE  8B4518            mov eax,[ebp+0x18]
000018D1  89442404          mov [esp+0x4],eax
000018D5  8B450C            mov eax,[ebp+0xc]
000018D8  890424            mov [esp],eax
000018DB  E8BC020000        call 0x1b9c
000018E0  8945F0            mov [ebp-0x10],eax
000018E3  8B450C            mov eax,[ebp+0xc]
000018E6  8D5004            lea edx,[eax+0x4]
000018E9  8A45F7            mov al,[ebp-0x9]
000018EC  25FF000000        and eax,0xff
000018F1  8954240C          mov [esp+0xc],edx
000018F5  8B5514            mov edx,[ebp+0x14]
000018F8  89542408          mov [esp+0x8],edx
000018FC  8B55F0            mov edx,[ebp-0x10]
000018FF  89542404          mov [esp+0x4],edx
00001903  890424            mov [esp],eax
00001906  E835EFFFFF        call 0x100000840
0000190B  8B450C            mov eax,[ebp+0xc]
0000190E  8B4014            mov eax,[eax+0x14]
00001911  8D5001            lea edx,[eax+0x1]
00001914  8B450C            mov eax,[ebp+0xc]
00001917  895014            mov [eax+0x14],edx
0000191A  8B45F0            mov eax,[ebp-0x10]
0000191D  89442404          mov [esp+0x4],eax
00001921  8B4508            mov eax,[ebp+0x8]
00001924  890424            mov [esp],eax
00001927  E806FAFFFF        call 0x100001332
0000192C  8B4508            mov eax,[ebp+0x8]
0000192F  83C420            add esp,byte +0x20
00001932  5B                pop ebx
00001933  5E                pop esi
00001934  5D                pop ebp
00001935  C20400            ret 0x4
00001938  55                push ebp
00001939  89E5              mov ebp,esp
0000193B  5D                pop ebp
0000193C  C3                ret
0000193D  90                nop
0000193E  55                push ebp
0000193F  89E5              mov ebp,esp
00001941  83EC18            sub esp,byte +0x18
00001944  8B450C            mov eax,[ebp+0xc]
00001947  890424            mov [esp],eax
0000194A  E8B1020000        call 0x1c00
0000194F  89442404          mov [esp+0x4],eax
00001953  8B4508            mov eax,[ebp+0x8]
00001956  890424            mov [esp],eax
00001959  E8AA020000        call 0x1c08
0000195E  8B4508            mov eax,[ebp+0x8]
00001961  C9                leave
00001962  C20400            ret 0x4
00001965  90                nop
00001966  55                push ebp
00001967  89E5              mov ebp,esp
00001969  83EC18            sub esp,byte +0x18
0000196C  8B4508            mov eax,[ebp+0x8]
0000196F  890424            mov [esp],eax
00001972  E8A5020000        call 0x1c1c
00001977  C9                leave
00001978  C3                ret
00001979  55                push ebp
0000197A  89E5              mov ebp,esp
0000197C  8B4508            mov eax,[ebp+0x8]
0000197F  5D                pop ebp
00001980  C3                ret
00001981  90                nop
00001982  55                push ebp
00001983  89E5              mov ebp,esp
00001985  5D                pop ebp
00001986  C3                ret
00001987  90                nop
00001988  55                push ebp
00001989  89E5              mov ebp,esp
0000198B  83EC18            sub esp,byte +0x18
0000198E  8B4508            mov eax,[ebp+0x8]
00001991  C744240801000000  mov dword [esp+0x8],0x1
00001999  8B550C            mov edx,[ebp+0xc]
0000199C  89542404          mov [esp+0x4],edx
000019A0  890424            mov [esp],eax
000019A3  E87A020000        call 0x1c22
000019A8  C9                leave
000019A9  C3                ret
000019AA  55                push ebp
000019AB  89E5              mov ebp,esp
000019AD  8B4508            mov eax,[ebp+0x8]
000019B0  83C010            add eax,byte +0x10
000019B3  5D                pop ebp
000019B4  C3                ret
000019B5  90                nop
000019B6  55                push ebp
000019B7  89E5              mov ebp,esp
000019B9  83EC18            sub esp,byte +0x18
000019BC  8B450C            mov eax,[ebp+0xc]
000019BF  8B00              mov eax,[eax]
000019C1  89442404          mov [esp+0x4],eax
000019C5  8B4508            mov eax,[ebp+0x8]
000019C8  890424            mov [esp],eax
000019CB  E862F9FFFF        call 0x100001332
000019D0  8B4508            mov eax,[ebp+0x8]
000019D3  C9                leave
000019D4  C20400            ret 0x4
000019D7  90                nop
000019D8  55                push ebp
000019D9  89E5              mov ebp,esp
000019DB  8B4508            mov eax,[ebp+0x8]
000019DE  8B4014            mov eax,[eax+0x14]
000019E1  5D                pop ebp
000019E2  C3                ret
000019E3  90                nop
000019E4  55                push ebp
000019E5  89E5              mov ebp,esp
000019E7  8B450C            mov eax,[ebp+0xc]
000019EA  8B10              mov edx,[eax]
000019EC  8B4508            mov eax,[ebp+0x8]
000019EF  8910              mov [eax],edx
000019F1  8B4510            mov eax,[ebp+0x10]
000019F4  8B10              mov edx,[eax]
000019F6  8B4508            mov eax,[ebp+0x8]
000019F9  895004            mov [eax+0x4],edx
000019FC  5D                pop ebp
000019FD  C3                ret
000019FE  55                push ebp
000019FF  89E5              mov ebp,esp
00001A01  83EC48            sub esp,byte +0x48
00001A04  8B450C            mov eax,[ebp+0xc]
00001A07  890424            mov [esp],eax
00001A0A  E851F8FFFF        call 0x100001260
00001A0F  8945F4            mov [ebp-0xc],eax
00001A12  8B450C            mov eax,[ebp+0xc]
00001A15  890424            mov [esp],eax
00001A18  E84FF8FFFF        call 0x10000126c
00001A1D  8945F0            mov [ebp-0x10],eax
00001A20  C645EF01          mov byte [ebp-0x11],0x1
00001A24  EB4B              jmp short 0x1a71
00001A26  8B45F4            mov eax,[ebp-0xc]
00001A29  8945F0            mov [ebp-0x10],eax
00001A2C  8B45F4            mov eax,[ebp-0xc]
00001A2F  890424            mov [esp],eax
00001A32  E8C6FAFFFF        call 0x1000014fd
00001A37  8B550C            mov edx,[ebp+0xc]
00001A3A  89442408          mov [esp+0x8],eax
00001A3E  8B4510            mov eax,[ebp+0x10]
00001A41  89442404          mov [esp+0x4],eax
00001A45  891424            mov [esp],edx
00001A48  E8D1F6FFFF        call 0x10000111e
00001A4D  8845EF            mov [ebp-0x11],al
00001A50  807DEF00          cmp byte [ebp-0x11],0x0
00001A54  740D              jz 0x1a63
00001A56  8B45F4            mov eax,[ebp-0xc]
00001A59  890424            mov [esp],eax
00001A5C  E833FAFFFF        call 0x100001494
00001A61  EB0B              jmp short 0x1a6e
00001A63  8B45F4            mov eax,[ebp-0xc]
00001A66  890424            mov [esp],eax
00001A69  E81BFAFFFF        call 0x100001489
00001A6E  8945F4            mov [ebp-0xc],eax
00001A71  837DF400          cmp dword [ebp-0xc],byte +0x0
00001A75  75AF              jnz 0x1a26
00001A77  8B45F0            mov eax,[ebp-0x10]
00001A7A  89442404          mov [esp+0x4],eax
00001A7E  8D45D0            lea eax,[ebp-0x30]
00001A81  890424            mov [esp],eax
00001A84  E8A9F8FFFF        call 0x100001332
00001A89  807DEF00          cmp byte [ebp-0x11],0x0
00001A8D  745D              jz 0x1aec
00001A8F  8D45D4            lea eax,[ebp-0x2c]
00001A92  8B550C            mov edx,[ebp+0xc]
00001A95  89542404          mov [esp+0x4],edx
00001A99  890424            mov [esp],eax
00001A9C  E895010000        call 0x1c36
00001AA1  83EC04            sub esp,byte +0x4
00001AA4  8D45D4            lea eax,[ebp-0x2c]
00001AA7  89442404          mov [esp+0x4],eax
00001AAB  8D45D0            lea eax,[ebp-0x30]
00001AAE  890424            mov [esp],eax
00001AB1  E87CF6FFFF        call 0x100001132
00001AB6  84C0              test al,al
00001AB8  7427              jz 0x1ae1
00001ABA  8B45F0            mov eax,[ebp-0x10]
00001ABD  8945D8            mov [ebp-0x28],eax
00001AC0  8B45F4            mov eax,[ebp-0xc]
00001AC3  8945DC            mov [ebp-0x24],eax
00001AC6  8D45D8            lea eax,[ebp-0x28]
00001AC9  89442408          mov [esp+0x8],eax
00001ACD  8D45DC            lea eax,[ebp-0x24]
00001AD0  89442404          mov [esp+0x4],eax
00001AD4  8B4508            mov eax,[ebp+0x8]
00001AD7  890424            mov [esp],eax
00001ADA  E805FFFFFF        call 0x1000019e4
00001ADF  EB77              jmp short 0x1b58
00001AE1  8D45D0            lea eax,[ebp-0x30]
00001AE4  890424            mov [esp],eax
00001AE7  E874000000        call 0x1b60
00001AEC  8B45D0            mov eax,[ebp-0x30]
00001AEF  890424            mov [esp],eax
00001AF2  E818F8FFFF        call 0x10000130f
00001AF7  8B550C            mov edx,[ebp+0xc]
00001AFA  8B4D10            mov ecx,[ebp+0x10]
00001AFD  894C2408          mov [esp+0x8],ecx
00001B01  89442404          mov [esp+0x4],eax
00001B05  891424            mov [esp],edx
00001B08  E811F6FFFF        call 0x10000111e
00001B0D  84C0              test al,al
00001B0F  7427              jz 0x1b38
00001B11  8B45F0            mov eax,[ebp-0x10]
00001B14  8945E0            mov [ebp-0x20],eax
00001B17  8B45F4            mov eax,[ebp-0xc]
00001B1A  8945E4            mov [ebp-0x1c],eax
00001B1D  8D45E0            lea eax,[ebp-0x20]
00001B20  89442408          mov [esp+0x8],eax
00001B24  8D45E4            lea eax,[ebp-0x1c]
00001B27  89442404          mov [esp+0x4],eax
00001B2B  8B4508            mov eax,[ebp+0x8]
00001B2E  890424            mov [esp],eax
00001B31  E8AEFEFFFF        call 0x1000019e4
00001B36  EB20              jmp short 0x1b58
00001B38  C745E800000000    mov dword [ebp-0x18],0x0
00001B3F  8D45E8            lea eax,[ebp-0x18]
00001B42  89442408          mov [esp+0x8],eax
00001B46  8D45D0            lea eax,[ebp-0x30]
00001B49  89442404          mov [esp+0x4],eax
00001B4D  8B4508            mov eax,[ebp+0x8]
00001B50  890424            mov [esp],eax
00001B53  E88CFEFFFF        call 0x1000019e4
00001B58  8B4508            mov eax,[ebp+0x8]
00001B5B  C9                leave
00001B5C  C20400            ret 0x4
00001B5F  90                nop
00001B60  55                push ebp
00001B61  89E5              mov ebp,esp
00001B63  83EC18            sub esp,byte +0x18
00001B66  8B4508            mov eax,[ebp+0x8]
00001B69  8B00              mov eax,[eax]
00001B6B  890424            mov [esp],eax
00001B6E  E85DECFFFF        call 0x1000007d0
00001B73  8B5508            mov edx,[ebp+0x8]
00001B76  8902              mov [edx],eax
00001B78  8B4508            mov eax,[ebp+0x8]
00001B7B  C9                leave
00001B7C  C3                ret
00001B7D  90                nop
00001B7E  55                push ebp
00001B7F  89E5              mov ebp,esp
00001B81  83EC18            sub esp,byte +0x18
00001B84  8B4508            mov eax,[ebp+0x8]
00001B87  8B00              mov eax,[eax]
00001B89  890424            mov [esp],eax
00001B8C  E8CFECFFFF        call 0x100000860
00001B91  8B5508            mov edx,[ebp+0x8]
00001B94  8902              mov [edx],eax
00001B96  8B4508            mov eax,[ebp+0x8]
00001B99  C9                leave
00001B9A  C3                ret
00001B9B  90                nop
00001B9C  55                push ebp
00001B9D  89E5              mov ebp,esp
00001B9F  53                push ebx
00001BA0  83EC24            sub esp,byte +0x24
00001BA3  8B4508            mov eax,[ebp+0x8]
00001BA6  890424            mov [esp],eax
00001BA9  E8AA000000        call 0x1c58
00001BAE  8945F4            mov [ebp-0xc],eax
00001BB1  8B45F4            mov eax,[ebp-0xc]
00001BB4  83C010            add eax,byte +0x10
00001BB7  890424            mov [esp],eax
00001BBA  E8BAFDFFFF        call 0x100001979
00001BBF  89C3              mov ebx,eax
00001BC1  8D45F3            lea eax,[ebp-0xd]
00001BC4  8B5508            mov edx,[ebp+0x8]
00001BC7  89542404          mov [esp+0x4],edx
00001BCB  890424            mov [esp],eax
00001BCE  E86BFDFFFF        call 0x10000193e
00001BD3  83EC04            sub esp,byte +0x4
00001BD6  8B450C            mov eax,[ebp+0xc]
00001BD9  89442408          mov [esp+0x8],eax
00001BDD  895C2404          mov [esp+0x4],ebx
00001BE1  8D45F3            lea eax,[ebp-0xd]
00001BE4  890424            mov [esp],eax
00001BE7  E890000000        call 0x1c7c
00001BEC  8D45F3            lea eax,[ebp-0xd]
00001BEF  890424            mov [esp],eax
00001BF2  E86FFDFFFF        call 0x100001966
00001BF7  8B45F4            mov eax,[ebp-0xc]
00001BFA  8B5DFC            mov ebx,[ebp-0x4]
00001BFD  C9                leave
00001BFE  C3                ret
00001BFF  90                nop
00001C00  55                push ebp
00001C01  89E5              mov ebp,esp
00001C03  8B4508            mov eax,[ebp+0x8]
00001C06  5D                pop ebp
00001C07  C3                ret
00001C08  55                push ebp
00001C09  89E5              mov ebp,esp
00001C0B  83EC18            sub esp,byte +0x18
00001C0E  8B4508            mov eax,[ebp+0x8]
00001C11  890424            mov [esp],eax
00001C14  E891000000        call 0x1caa
00001C19  C9                leave
00001C1A  C3                ret
00001C1B  90                nop
00001C1C  55                push ebp
00001C1D  89E5              mov ebp,esp
00001C1F  5D                pop ebp
00001C20  C3                ret
00001C21  90                nop
00001C22  55                push ebp
00001C23  89E5              mov ebp,esp
00001C25  83EC18            sub esp,byte +0x18
00001C28  8B450C            mov eax,[ebp+0xc]
00001C2B  890424            mov [esp],eax
00001C2E  E86DEBFFFF        call 0x1000007a0
00001C33  C9                leave
00001C34  C3                ret
00001C35  90                nop
00001C36  55                push ebp
00001C37  89E5              mov ebp,esp
00001C39  83EC18            sub esp,byte +0x18
00001C3C  8B450C            mov eax,[ebp+0xc]
00001C3F  8B400C            mov eax,[eax+0xc]
00001C42  89442404          mov [esp+0x4],eax
00001C46  8B4508            mov eax,[ebp+0x8]
00001C49  890424            mov [esp],eax
00001C4C  E8E1F6FFFF        call 0x100001332
00001C51  8B4508            mov eax,[ebp+0x8]
00001C54  C9                leave
00001C55  C20400            ret 0x4
00001C58  55                push ebp
00001C59  89E5              mov ebp,esp
00001C5B  83EC18            sub esp,byte +0x18
00001C5E  8B4508            mov eax,[ebp+0x8]
00001C61  C744240800000000  mov dword [esp+0x8],0x0
00001C69  C744240401000000  mov dword [esp+0x4],0x1
00001C71  890424            mov [esp],eax
00001C74  E837000000        call 0x1cb0
00001C79  C9                leave
00001C7A  C3                ret
00001C7B  90                nop
00001C7C  55                push ebp
00001C7D  89E5              mov ebp,esp
00001C7F  83EC18            sub esp,byte +0x18
00001C82  8B450C            mov eax,[ebp+0xc]
00001C85  89442404          mov [esp+0x4],eax
00001C89  C7042408000000    mov dword [esp],0x8
00001C90  E8A3F0FFFF        call 0x100000d38
00001C95  89C1              mov ecx,eax
00001C97  85C9              test ecx,ecx
00001C99  740D              jz 0x1ca8
00001C9B  8B4510            mov eax,[ebp+0x10]
00001C9E  8B5004            mov edx,[eax+0x4]
00001CA1  8B00              mov eax,[eax]
00001CA3  8901              mov [ecx],eax
00001CA5  895104            mov [ecx+0x4],edx
00001CA8  C9                leave
00001CA9  C3                ret
00001CAA  55                push ebp
00001CAB  89E5              mov ebp,esp
00001CAD  5D                pop ebp
00001CAE  C3                ret
00001CAF  90                nop
00001CB0  55                push ebp
00001CB1  89E5              mov ebp,esp
00001CB3  83EC18            sub esp,byte +0x18
00001CB6  8B4508            mov eax,[ebp+0x8]
00001CB9  890424            mov [esp],eax
00001CBC  E825000000        call 0x1ce6
00001CC1  3B450C            cmp eax,[ebp+0xc]
00001CC4  0F92C0            setc al
00001CC7  84C0              test al,al
00001CC9  7405              jz 0x1cd0
00001CCB  E8A0EBFFFF        call 0x100000870
00001CD0  8B550C            mov edx,[ebp+0xc]
00001CD3  89D0              mov eax,edx
00001CD5  01C0              add eax,eax
00001CD7  01D0              add eax,edx
00001CD9  C1E003            shl eax,0x3
00001CDC  890424            mov [esp],eax
00001CDF  E84CEBFFFF        call 0x100000830
00001CE4  C9                leave
00001CE5  C3                ret
00001CE6  55                push ebp
00001CE7  89E5              mov ebp,esp
00001CE9  B8AAAAAA0A        mov eax,0xaaaaaaa
00001CEE  5D                pop ebp
00001CEF  C3                ret
00001CF0  55                push ebp
00001CF1  89E5              mov ebp,esp
00001CF3  83EC18            sub esp,byte +0x18
00001CF6  8B4508            mov eax,[ebp+0x8]
00001CF9  890424            mov [esp],eax
00001CFC  E80DF2FFFF        call 0x100000f0e
00001D01  C9                leave
00001D02  C3                ret
00001D03  6690              o16 nop
00001D05  6690              o16 nop
00001D07  6690              o16 nop
00001D09  6690              o16 nop
00001D0B  6690              o16 nop
00001D0D  6690              o16 nop
00001D0F  90                nop
00001D10  55                push ebp
00001D11  89E5              mov ebp,esp
00001D13  5D                pop ebp
00001D14  C3                ret
00001D15  66                db 0x66
00001D16  66                db 0x66
00001D17  2E                db 0x2E
00001D18  0F                db 0x0F
00001D19  1F                pop ds
00001D1A  8400              test [eax],al
00001D1C  0000              add [eax],al
00001D1E  0000              add [eax],al
00001D20  55                push ebp
00001D21  89E5              mov ebp,esp
00001D23  57                push edi
00001D24  56                push esi
00001D25  53                push ebx
00001D26  E84F000000        call 0x1d7a
00001D2B  81C3D11E0000      add ebx,0x1ed1
00001D31  83EC1C            sub esp,byte +0x1c
00001D34  E803EAFFFF        call 0x10000073c
00001D39  8DBB03FFFFFF      lea edi,[ebx+0xffffff03]
00001D3F  8D8303FFFFFF      lea eax,[ebx+0xffffff03]
00001D45  29C7              sub edi,eax
00001D47  C1FF02            sar edi,0x2
00001D4A  85FF              test edi,edi
00001D4C  7424              jz 0x1d72
00001D4E  31F6              xor esi,esi
00001D50  8B4510            mov eax,[ebp+0x10]
00001D53  89442408          mov [esp+0x8],eax
00001D57  8B450C            mov eax,[ebp+0xc]
00001D5A  89442404          mov [esp+0x4],eax
00001D5E  8B4508            mov eax,[ebp+0x8]
00001D61  890424            mov [esp],eax
00001D64  FF94B303FFFFFF    call near [ebx+esi*4+0xffffff03]
00001D6B  83C601            add esi,byte +0x1
00001D6E  39FE              cmp esi,edi
00001D70  72DE              jc 0x1d50
00001D72  83C41C            add esp,byte +0x1c
00001D75  5B                pop ebx
00001D76  5E                pop esi
00001D77  5F                pop edi
00001D78  5D                pop ebp
00001D79  C3                ret
00001D7A  8B1C24            mov ebx,[esp]
00001D7D  C3                ret
00001D7E  6690              o16 nop
00001D80  55                push ebp
00001D81  89E5              mov ebp,esp
00001D83  53                push ebx
00001D84  52                push edx
00001D85  BB04BB0408        mov ebx,0x804bb04
00001D8A  A104BB0408        mov eax,[0x804bb04]
00001D8F  83F8FF            cmp eax,byte -0x1
00001D92  7410              jz 0x1da4
00001D94  8D742600          lea esi,[esi+0x0]
00001D98  83EB04            sub ebx,byte +0x4
00001D9B  FFD0              call eax
00001D9D  8B03              mov eax,[ebx]
00001D9F  83F8FF            cmp eax,byte -0x1
00001DA2  75F4              jnz 0x1d98
00001DA4  58                pop eax
00001DA5  5B                pop ebx
00001DA6  5D                pop ebp
00001DA7  C3                ret
00001DA8  55                push ebp
00001DA9  89E5              mov ebp,esp
00001DAB  53                push ebx
00001DAC  83EC04            sub esp,byte +0x4
00001DAF  E800000000        call 0x1db4
00001DB4  5B                pop ebx
00001DB5  81C3481E0000      add ebx,0x1e48
00001DBB  E880EBFFFF        call 0x100000940
00001DC0  59                pop ecx
00001DC1  5B                pop ebx
00001DC2  C9                leave
00001DC3  C3                ret
00001DC4  0300              add eax,[eax]
00001DC6  0000              add [eax],al
00001DC8  0100              add [eax],eax
00001DCA  0200              add al,[eax]
00001DCC  7200              jc 0x1dce
00001DCE  43                inc ebx
00001DCF  2D736D616C        sub eax,0x6c616d73
00001DD4  6C                insb
00001DD5  2D61747465        sub eax,0x65747461
00001DDA  6D                insd
00001DDB  7074              jo 0x1e51
00001DDD  302E              xor [esi],ch
00001DDF  696E007700432E    imul ebp,[esi+0x0],dword 0x2e430077
00001DE6  6F                outsd
00001DE7  7574              jnz 0x1e5d
00001DE9  002564004361      add [0x61430064],ah
00001DEF  7365              jnc 0x1e56
00001DF1  2023              and [ebx],ah
00001DF3  25643A0A00        and eax,0xa3a64
00001DF8  49                dec ecx
00001DF9  6D                insd
00001DFA  706F              jo 0x1e6b
00001DFC  7373              jnc 0x1e71
00001DFE  69626C65000001    imul esp,[edx+0x6c],dword 0x1000065
00001E05  1B03              sbb eax,[ebx]
00001E07  3B6002            cmp esp,[eax+0x2]
00001E0A  0000              add [eax],al
00001E0C  4B                dec ebx
00001E0D  0000              add [eax],al
00001E0F  006CE9FF          add [ecx+ebp*8-0x1],ch
00001E13  FF                db 0xFF
00001E14  7C02              jl 0x1e18
00001E16  0000              add [eax],al
00001E18  BCEBFFFFE0        mov esp,0xe0ffffeb
00001E1D  0200              add al,[eax]
00001E1F  00B1EEFFFF24      add [ecx+0x24ffffee],dh
00001E25  0C00              or al,0x0
00001E27  0018              add [eax],bl
00001E29  EF                out dx,eax
00001E2A  FF                db 0xFF
00001E2B  FF440C00          inc dword [esp+ecx+0x0]
00001E2F  0034EF            add [edi+ebp*8],dh
00001E32  FF                db 0xFF
00001E33  FFA00200003C      jmp near [eax+0x3c000002]
00001E39  EF                out dx,eax
00001E3A  FF                db 0xFF
00001E3B  FF1403            call near [ebx+eax]
00001E3E  0000              add [eax],al
00001E40  50                push eax
00001E41  EF                out dx,eax
00001E42  FF                db 0xFF
00001E43  FF3403            push dword [ebx+eax]
00001E46  0000              add [eax],al
00001E48  64EF              fs out dx,eax
00001E4A  FF                db 0xFF
00001E4B  FF540300          call near [ebx+eax+0x0]
00001E4F  008EEFFFFF74      add [esi+0x74ffffef],cl
00001E55  0300              add eax,[eax]
00001E57  00B0EFFFFF94      add [eax+0x94ffffef],dh
00001E5D  0300              add eax,[eax]
00001E5F  00C4              add ah,al
00001E61  EF                out dx,eax
00001E62  FF                db 0xFF
00001E63  FFB4030000E2F0    push dword [ebx+eax+0xf0e20000]
00001E6A  FF                db 0xFF
00001E6B  FF                db 0xFF
00001E6C  E8030000F6        call 0xf6001e74
00001E71  F0                db 0xF0
00001E72  FF                db 0xFF
00001E73  FF08              dec dword [eax]
00001E75  0400              add al,0x0
00001E77  000A              add [edx],cl
00001E79  F1                int1
00001E7A  FF                db 0xFF
00001E7B  FF28              jmp far [eax]
00001E7D  0400              add al,0x0
00001E7F  0056F1            add [esi-0xf],dl
00001E82  FF                db 0xFF
00001E83  FF5004            call near [eax+0x4]
00001E86  0000              add [eax],al
00001E88  CC                int3
00001E89  F1                int1
00001E8A  FF                db 0xFF
00001E8B  FF740400          push dword [esp+eax+0x0]
00001E8F  009EF2FFFF9C      add [esi+0x9cfffff2],bl
00001E95  0400              add al,0x0
00001E97  00C0              add al,al
00001E99  F2                db 0xF2
00001E9A  FF                db 0xFF
00001E9B  FF                db 0xFF
00001E9C  BC040000EA        mov esp,0xea000004
00001EA1  F2                db 0xF2
00001EA2  FF                db 0xFF
00001EA3  FF                db 0xFF
00001EA4  DC0400            fadd qword [eax+eax]
00001EA7  000CF3            add [ebx+esi*8],cl
00001EAA  FF                db 0xFF
00001EAB  FF                db 0xFF
00001EAC  FC                cld
00001EAD  0400              add al,0x0
00001EAF  001A              add [edx],bl
00001EB1  F3                db 0xF3
00001EB2  FF                db 0xFF
00001EB3  FF1C0500002EF3    call far [eax+0xf32e0000]
00001EBA  FF                db 0xFF
00001EBB  FF                db 0xFF
00001EBC  3C05              cmp al,0x5
00001EBE  0000              add [eax],al
00001EC0  42                inc edx
00001EC1  F3                db 0xF3
00001EC2  FF                db 0xFF
00001EC3  FF5C0500          call far [ebp+eax+0x0]
00001EC7  005CF3FF          add [ebx+esi*8-0x1],bl
00001ECB  FF                db 0xFF
00001ECC  7C05              jl 0x1ed3
00001ECE  0000              add [eax],al
00001ED0  A8F3              test al,0xf3
00001ED2  FF                db 0xFF
00001ED3  FFA0050000F8      jmp near [eax+0xf8000005]
00001ED9  F3                db 0xF3
00001EDA  FF                db 0xFF
00001EDB  FFC0              inc eax
00001EDD  0500000CF4        add eax,0xf40c0000
00001EE2  FF                db 0xFF
00001EE3  FFE0              jmp eax
00001EE5  0500005CF4        add eax,0xf45c0000
00001EEA  FF                db 0xFF
00001EEB  FF00              inc dword [eax]
00001EED  06                push es
00001EEE  0000              add [eax],al
00001EF0  68F4FFFF20        push dword 0x20fffff4
00001EF5  06                push es
00001EF6  0000              add [eax],al
00001EF8  74F4              jz 0x1eee
00001EFA  FF                db 0xFF
00001EFB  FF4006            inc dword [eax+0x6]
00001EFE  0000              add [eax],al
00001F00  80F4FF            xor ah,0xff
00001F03  FF6006            jmp near [eax+0x6]
00001F06  0000              add [eax],al
00001F08  8CF4              mov esp,segr6
00001F0A  FF                db 0xFF
00001F0B  FF8006000098      inc dword [eax+0x98000006]
00001F11  F4                hlt
00001F12  FF                db 0xFF
00001F13  FFA00600000B      jmp near [eax+0xb000006]
00001F19  F5                cmc
00001F1A  FF                db 0xFF
00001F1B  FFC0              inc eax
00001F1D  06                push es
00001F1E  0000              add [eax],al
00001F20  2EF5              cs cmc
00001F22  FF                db 0xFF
00001F23  FFE0              jmp eax
00001F25  06                push es
00001F26  0000              add [eax],al
00001F28  3CF5              cmp al,0xf5
00001F2A  FF                db 0xFF
00001F2B  FF00              inc dword [eax]
00001F2D  07                pop es
00001F2E  0000              add [eax],al
00001F30  8AF5              mov dh,ch
00001F32  FF                db 0xFF
00001F33  FF2407            jmp near [edi+eax]
00001F36  0000              add [eax],al
00001F38  96                xchg eax,esi
00001F39  F5                cmc
00001F3A  FF                db 0xFF
00001F3B  FF440700          inc dword [edi+eax+0x0]
00001F3F  00A6F5FFFF64      add [esi+0x64fffff5],ah
00001F45  07                pop es
00001F46  0000              add [eax],al
00001F48  3AF6              cmp dh,dh
00001F4A  FF                db 0xFF
00001F4B  FF8C0700004EF6    dec dword [edi+eax+0xf64e0000]
00001F52  FF                db 0xFF
00001F53  FFAC07000080F6    jmp far [edi+eax+0xf6800000]
00001F5A  FF                db 0xFF
00001F5B  FFCC              dec esp
00001F5D  07                pop es
00001F5E  0000              add [eax],al
00001F60  85F6              test esi,esi
00001F62  FF                db 0xFF
00001F63  FF                db 0xFF
00001F64  EC                in al,dx
00001F65  07                pop es
00001F66  0000              add [eax],al
00001F68  90                nop
00001F69  F6FF              idiv bh
00001F6B  FF0C08            dec dword [eax+ecx]
00001F6E  0000              add [eax],al
00001F70  9C                pushf
00001F71  F6FF              idiv bh
00001F73  FF2C08            jmp far [eax+ecx]
00001F76  0000              add [eax],al
00001F78  F9                stc
00001F79  F6FF              idiv bh
00001F7B  FF5008            call near [eax+0x8]
00001F7E  0000              add [eax],al
00001F80  1BF7              sbb esi,edi
00001F82  FF                db 0xFF
00001F83  FF7008            push dword [eax+0x8]
00001F86  0000              add [eax],al
00001F88  26F7FF            es idiv edi
00001F8B  FF900800002E      call near [eax+0x2e000008]
00001F91  F7FF              idiv edi
00001F93  FFB008000066      push dword [eax+0x66000008]
00001F99  FA                cli
00001F9A  FF                db 0xFF
00001F9B  FF                db 0xFF
00001F9C  D808              fmul dword [eax]
00001F9E  0000              add [eax],al
00001FA0  34FB              xor al,0xfb
00001FA2  FF                db 0xFF
00001FA3  FF00              inc dword [eax]
00001FA5  0900              or [eax],eax
00001FA7  003A              add [edx],bh
00001FA9  FB                sti
00001FAA  FF                db 0xFF
00001FAB  FF20              jmp near [eax]
00001FAD  0900              or [eax],eax
00001FAF  0062FB            add [edx-0x5],ah
00001FB2  FF                db 0xFF
00001FB3  FF4009            inc dword [eax+0x9]
00001FB6  0000              add [eax],al
00001FB8  75FB              jnz 0x1fb5
00001FBA  FF                db 0xFF
00001FBB  FF6009            jmp near [eax+0x9]
00001FBE  0000              add [eax],al
00001FC0  7EFB              jng 0x1fbd
00001FC2  FF                db 0xFF
00001FC3  FF8009000084      inc dword [eax+0x84000009]
00001FC9  FB                sti
00001FCA  FF                db 0xFF
00001FCB  FFA0090000A6      jmp near [eax+0xa6000009]
00001FD1  FB                sti
00001FD2  FF                db 0xFF
00001FD3  FFC0              inc eax
00001FD5  0900              or [eax],eax
00001FD7  00B2FBFFFFE0      add [edx+0xe0fffffb],dh
00001FDD  0900              or [eax],eax
00001FDF  00D4              add ah,dl
00001FE1  FB                sti
00001FE2  FF                db 0xFF
00001FE3  FF00              inc dword [eax]
00001FE5  0A00              or al,[eax]
00001FE7  00E0              add al,ah
00001FE9  FB                sti
00001FEA  FF                db 0xFF
00001FEB  FF20              jmp near [eax]
00001FED  0A00              or al,[eax]
00001FEF  00FA              add dl,bh
00001FF1  FB                sti
00001FF2  FF                db 0xFF
00001FF3  FF400A            inc dword [eax+0xa]
00001FF6  0000              add [eax],al
00001FF8  5C                pop esp
00001FF9  FD                std
00001FFA  FF                db 0xFF
00001FFB  FF600A            jmp near [eax+0xa]
00001FFE  0000              add [eax],al
00002000  7AFD              jpe 0x1fff
00002002  FF                db 0xFF
00002003  FF800A000098      inc dword [eax+0x9800000a]
00002009  FD                std
0000200A  FF                db 0xFF
0000200B  FFA00A0000FC      jmp near [eax+0xfc00000a]
00002011  FD                std
00002012  FF                db 0xFF
00002013  FFC4              inc esp
00002015  0A00              or al,[eax]
00002017  0004FE            add [esi+edi*8],al
0000201A  FF                db 0xFF
0000201B  FFE4              jmp esp
0000201D  0A00              or al,[eax]
0000201F  0018              add [eax],bl
00002021  FE                db 0xFE
00002022  FF                db 0xFF
00002023  FF040B            inc dword [ebx+ecx]
00002026  0000              add [eax],al
00002028  1E                push ds
00002029  FE                db 0xFE
0000202A  FF                db 0xFF
0000202B  FF240B            jmp near [ebx+ecx]
0000202E  0000              add [eax],al
00002030  32FE              xor bh,dh
00002032  FF                db 0xFF
00002033  FF440B00          inc dword [ebx+ecx+0x0]
00002037  0054FEFF          add [esi+edi*8-0x1],dl
0000203B  FF640B00          jmp near [ebx+ecx+0x0]
0000203F  0078FE            add [eax-0x2],bh
00002042  FF                db 0xFF
00002043  FF840B0000A6FE    inc dword [ebx+ecx+0xfea60000]
0000204A  FF                db 0xFF
0000204B  FFA40B0000ACFE    jmp near [ebx+ecx+0xfeac0000]
00002052  FF                db 0xFF
00002053  FFC4              inc esp
00002055  0B00              or eax,[eax]
00002057  00E2              add dl,ah
00002059  FE                db 0xFE
0000205A  FF                db 0xFF
0000205B  FFE4              jmp esp
0000205D  0B00              or eax,[eax]
0000205F  00EC              add ah,ch
00002061  FE                db 0xFE
00002062  FF                db 0xFF
00002063  FF040C            inc dword [esp+ecx]
00002066  0000              add [eax],al
00002068  1400              adc al,0x0
0000206A  0000              add [eax],al
0000206C  0000              add [eax],al
0000206E  0000              add [eax],al
00002070  017A52            add [edx+0x52],edi
00002073  0001              add [ecx],al
00002075  7C08              jl 0x207f
00002077  011B              add [ebx],ebx
00002079  0C04              or al,0x4
0000207B  0488              add al,0x88
0000207D  0100              add [eax],eax
0000207F  0020              add [eax],ah
00002081  0000              add [eax],al
00002083  001C00            add [eax+eax],bl
00002086  0000              add [eax],al
00002088  E8E6FFFF30        call 0x31002073
0000208D  0100              add [eax],eax
0000208F  0000              add [eax],al
00002091  0E                push cs
00002092  08460E            or [esi+0xe],al
00002095  0C4A              or al,0x4a
00002097  0F0B              ud2
00002099  7404              jz 0x209f
0000209B  7800              js 0x209d
0000209D  3F                aas
0000209E  1A3B              sbb bh,[ebx]
000020A0  2A32              sub dh,[edx]
000020A2  2422              and al,0x22
000020A4  1C00              sbb al,0x0
000020A6  0000              add [eax],al
000020A8  40                inc eax
000020A9  0000              add [eax],al
000020AB  008CECFFFF0800    add [esp+ebp*8+0x8ffff],cl
000020B2  0000              add [eax],al
000020B4  00410E            add [ecx+0xe],al
000020B7  088502420D05      or [ebp+0x50d4202],al
000020BD  44                inc esp
000020BE  C50C04            lds ecx,[esp+eax]
000020C1  0400              add al,0x0
000020C3  001C00            add [eax+eax],bl
000020C6  0000              add [eax],al
000020C8  0000              add [eax],al
000020CA  0000              add [eax],al
000020CC  017A50            add [edx+0x50],edi
000020CF  4C                dec esp
000020D0  52                push edx
000020D1  0001              add [ecx],al
000020D3  7C08              jl 0x20dd
000020D5  07                pop es
000020D6  008088040800      add [eax+0x80488],al
000020DC  1B0C04            sbb ecx,[esp+eax]
000020DF  0488              add al,0x88
000020E1  0100              add [eax],eax
000020E3  0030              add [eax],dh
000020E5  0000              add [eax],al
000020E7  002400            add [eax+eax],ah
000020EA  0000              add [eax],al
000020EC  D4E8              aam 0xe8
000020EE  FF                db 0xFF
000020EF  FFF5              push ebp
000020F1  0200              add al,[eax]
000020F3  00046C            add [esp+ebp*2],al
000020F6  AA                stosb
000020F7  0408              add al,0x8
000020F9  44                inc esp
000020FA  0C01              or al,0x1
000020FC  004710            add [edi+0x10],al
000020FF  0502750043        add eax,0x43007502
00002104  0F03757C          lsl esi,[ebp+0x7c]
00002108  06                push es
00002109  03E2              add esp,edx
0000210B  020C01            add cl,[ecx+eax]
0000210E  0041C5            add [ecx-0x3b],al
00002111  43                inc ebx
00002112  0C04              or al,0x4
00002114  0400              add al,0x0
00002116  0000              add [eax],al
00002118  1C00              sbb al,0x0
0000211A  0000              add [eax],al
0000211C  B400              mov ah,0x0
0000211E  0000              add [eax],al
00002120  20EC              and ah,ch
00002122  FF                db 0xFF
00002123  FF13              call near [ebx]
00002125  0000              add [eax],al
00002127  0000              add [eax],al
00002129  41                inc ecx
0000212A  0E                push cs
0000212B  088502420D05      or [ebp+0x50d4202],al
00002131  4F                dec edi
00002132  C50C04            lds ecx,[esp+eax]
00002135  0400              add al,0x0
00002137  001C00            add [eax+eax],bl
0000213A  0000              add [eax],al
0000213C  D400              aam 0x0
0000213E  0000              add [eax],al
00002140  14EC              adc al,0xec
00002142  FF                db 0xFF
00002143  FF13              call near [ebx]
00002145  0000              add [eax],al
00002147  0000              add [eax],al
00002149  41                inc ecx
0000214A  0E                push cs
0000214B  088502420D05      or [ebp+0x50d4202],al
00002151  4F                dec edi
00002152  C50C04            lds ecx,[esp+eax]
00002155  0400              add al,0x0
00002157  001C00            add [eax+eax],bl
0000215A  0000              add [eax],al
0000215C  F4                hlt
0000215D  0000              add [eax],al
0000215F  0008              add [eax],cl
00002161  EC                in al,dx
00002162  FF                db 0xFF
00002163  FF29              jmp far [ecx]
00002165  0000              add [eax],al
00002167  0000              add [eax],al
00002169  41                inc ecx
0000216A  0E                push cs
0000216B  088502420D05      or [ebp+0x50d4202],al
00002171  63C5              arpl bp,ax
00002173  0C04              or al,0x4
00002175  0400              add al,0x0
00002177  001C00            add [eax+eax],bl
0000217A  0000              add [eax],al
0000217C  1401              adc al,0x1
0000217E  0000              add [eax],al
00002180  12EC              adc ch,ah
00002182  FF                db 0xFF
00002183  FF22              jmp near [edx]
00002185  0000              add [eax],al
00002187  0000              add [eax],al
00002189  41                inc ecx
0000218A  0E                push cs
0000218B  088502420D05      or [ebp+0x50d4202],al
00002191  5C                pop esp
00002192  C50C04            lds ecx,[esp+eax]
00002195  0400              add al,0x0
00002197  001C00            add [eax+eax],bl
0000219A  0000              add [eax],al
0000219C  3401              xor al,0x1
0000219E  0000              add [eax],al
000021A0  14EC              adc al,0xec
000021A2  FF                db 0xFF
000021A3  FF1400            call near [eax+eax]
000021A6  0000              add [eax],al
000021A8  00410E            add [ecx+0xe],al
000021AB  088502420D05      or [ebp+0x50d4202],al
000021B1  50                push eax
000021B2  C50C04            lds ecx,[esp+eax]
000021B5  0400              add al,0x0
000021B7  0030              add [eax],dh
000021B9  0000              add [eax],al
000021BB  00F8              add al,bh
000021BD  0000              add [eax],al
000021BF  0008              add [eax],cl
000021C1  EC                in al,dx
000021C2  FF                db 0xFF
000021C3  FF1E              call far [esi]
000021C5  0100              add [eax],eax
000021C7  00048DAA040841    add [ecx*4+0x410804aa],al
000021CE  0E                push cs
000021CF  088502420D05      or [ebp+0x50d4202],al
000021D5  46                inc esi
000021D6  8703              xchg eax,[ebx]
000021D8  860483            xchg al,[ebx+eax*4]
000021DB  05031101C3        add eax,0xc3011103
000021E0  41                inc ecx
000021E1  C641C741          mov byte [ecx-0x39],0x41
000021E5  C50C04            lds ecx,[esp+eax]
000021E8  0400              add al,0x0
000021EA  0000              add [eax],al
000021EC  1C00              sbb al,0x0
000021EE  0000              add [eax],al
000021F0  8801              mov [ecx],al
000021F2  0000              add [eax],al
000021F4  F2EC              repne in al,dx
000021F6  FF                db 0xFF
000021F7  FF13              call near [ebx]
000021F9  0000              add [eax],al
000021FB  0000              add [eax],al
000021FD  41                inc ecx
000021FE  0E                push cs
000021FF  088502420D05      or [ebp+0x50d4202],al
00002205  4F                dec edi
00002206  C50C04            lds ecx,[esp+eax]
00002209  0400              add al,0x0
0000220B  001C00            add [eax+eax],bl
0000220E  0000              add [eax],al
00002210  A801              test al,0x1
00002212  0000              add [eax],al
00002214  E6EC              out 0xec,al
00002216  FF                db 0xFF
00002217  FF13              call near [ebx]
00002219  0000              add [eax],al
0000221B  0000              add [eax],al
0000221D  41                inc ecx
0000221E  0E                push cs
0000221F  088502420D05      or [ebp+0x50d4202],al
00002225  4F                dec edi
00002226  C50C04            lds ecx,[esp+eax]
00002229  0400              add al,0x0
0000222B  002400            add [eax+eax],ah
0000222E  0000              add [eax],al
00002230  6C                insb
00002231  0100              add [eax],eax
00002233  00DA              add dl,bl
00002235  EC                in al,dx
00002236  FF                db 0xFF
00002237  FF4B00            dec dword [ebx+0x0]
0000223A  0000              add [eax],al
0000223C  04A6              add al,0xa6
0000223E  AA                stosb
0000223F  0408              add al,0x8
00002241  41                inc ecx
00002242  0E                push cs
00002243  088502420D05      or [ebp+0x50d4202],al
00002249  44                inc esp
0000224A  830302            add dword [ebx],byte +0x2
0000224D  42                inc edx
0000224E  C3                ret
0000224F  41                inc ecx
00002250  C50C04            lds ecx,[esp+eax]
00002253  0420              add al,0x20
00002255  0000              add [eax],al
00002257  00F0              add al,dh
00002259  0100              add [eax],eax
0000225B  00FE              add dh,bh
0000225D  EC                in al,dx
0000225E  FF                db 0xFF
0000225F  FF7600            push dword [esi+0x0]
00002262  0000              add [eax],al
00002264  00410E            add [ecx+0xe],al
00002267  088502420D05      or [ebp+0x50d4202],al
0000226D  44                inc esp
0000226E  830302            add dword [ebx],byte +0x2
00002271  6D                insd
00002272  C3                ret
00002273  41                inc ecx
00002274  C50C04            lds ecx,[esp+eax]
00002277  0424              add al,0x24
00002279  0000              add [eax],al
0000227B  00B801000050      add [eax+0x50000001],bh
00002281  ED                in eax,dx
00002282  FF                db 0xFF
00002283  FFD1              call ecx
00002285  0000              add [eax],al
00002287  0004B2            add [edx+esi*4],al
0000228A  AA                stosb
0000228B  0408              add al,0x8
0000228D  41                inc ecx
0000228E  0E                push cs
0000228F  088502420D05      or [ebp+0x50d4202],al
00002295  44                inc esp
00002296  830302            add dword [ebx],byte +0x2
00002299  C7C5C30C0404      mov ebp,0x4040cc3
0000229F  001C00            add [eax+eax],bl
000022A2  0000              add [eax],al
000022A4  3C02              cmp al,0x2
000022A6  0000              add [eax],al
000022A8  FA                cli
000022A9  ED                in eax,dx
000022AA  FF                db 0xFF
000022AB  FF22              jmp near [edx]
000022AD  0000              add [eax],al
000022AF  0000              add [eax],al
000022B1  41                inc ecx
000022B2  0E                push cs
000022B3  088502420D05      or [ebp+0x50d4202],al
000022B9  5C                pop esp
000022BA  C50C04            lds ecx,[esp+eax]
000022BD  0400              add al,0x0
000022BF  001C00            add [eax+eax],bl
000022C2  0000              add [eax],al
000022C4  5C                pop esp
000022C5  0200              add al,[eax]
000022C7  00FC              add ah,bh
000022C9  ED                in eax,dx
000022CA  FF                db 0xFF
000022CB  FF29              jmp far [ecx]
000022CD  0000              add [eax],al
000022CF  0000              add [eax],al
000022D1  41                inc ecx
000022D2  0E                push cs
000022D3  088502420D05      or [ebp+0x50d4202],al
000022D9  63C5              arpl bp,ax
000022DB  0C04              or al,0x4
000022DD  0400              add al,0x0
000022DF  001C00            add [eax+eax],bl
000022E2  0000              add [eax],al
000022E4  7C02              jl 0x22e8
000022E6  0000              add [eax],al
000022E8  06                push es
000022E9  EE                out dx,al
000022EA  FF                db 0xFF
000022EB  FF22              jmp near [edx]
000022ED  0000              add [eax],al
000022EF  0000              add [eax],al
000022F1  41                inc ecx
000022F2  0E                push cs
000022F3  088502420D05      or [ebp+0x50d4202],al
000022F9  5C                pop esp
000022FA  C50C04            lds ecx,[esp+eax]
000022FD  0400              add al,0x0
000022FF  001C00            add [eax+eax],bl
00002302  0000              add [eax],al
00002304  9C                pushf
00002305  0200              add al,[eax]
00002307  0008              add [eax],cl
00002309  EE                out dx,al
0000230A  FF                db 0xFF
0000230B  FF0D00000000      dec dword [0x0]
00002311  41                inc ecx
00002312  0E                push cs
00002313  088502420D05      or [ebp+0x50d4202],al
00002319  49                dec ecx
0000231A  C50C04            lds ecx,[esp+eax]
0000231D  0400              add al,0x0
0000231F  001C00            add [eax+eax],bl
00002322  0000              add [eax],al
00002324  BC020000F6        mov esp,0xf6000002
00002329  ED                in eax,dx
0000232A  FF                db 0xFF
0000232B  FF1400            call near [eax+eax]
0000232E  0000              add [eax],al
00002330  00410E            add [ecx+0xe],al
00002333  088502420D05      or [ebp+0x50d4202],al
00002339  50                push eax
0000233A  C50C04            lds ecx,[esp+eax]
0000233D  0400              add al,0x0
0000233F  001C00            add [eax+eax],bl
00002342  0000              add [eax],al
00002344  DC02              fadd qword [edx]
00002346  0000              add [eax],al
00002348  EAEDFFFF140000    jmp 0x0:0x14ffffed
0000234F  0000              add [eax],al
00002351  41                inc ecx
00002352  0E                push cs
00002353  088502420D05      or [ebp+0x50d4202],al
00002359  50                push eax
0000235A  C50C04            lds ecx,[esp+eax]
0000235D  0400              add al,0x0
0000235F  001C00            add [eax+eax],bl
00002362  0000              add [eax],al
00002364  FC                cld
00002365  0200              add al,[eax]
00002367  00DE              add dh,bl
00002369  ED                in eax,dx
0000236A  FF                db 0xFF
0000236B  FF1A              call far [edx]
0000236D  0000              add [eax],al
0000236F  0000              add [eax],al
00002371  41                inc ecx
00002372  0E                push cs
00002373  088502420D05      or [ebp+0x50d4202],al
00002379  56                push esi
0000237A  C50C04            lds ecx,[esp+eax]
0000237D  0400              add al,0x0
0000237F  0020              add [eax],ah
00002381  0000              add [eax],al
00002383  00C0              add al,al
00002385  0200              add al,[eax]
00002387  00D8              add al,bl
00002389  ED                in eax,dx
0000238A  FF                db 0xFF
0000238B  FF4C0000          dec dword [eax+eax+0x0]
0000238F  0004C5AA040841    add [eax*8+0x410804aa],al
00002396  0E                push cs
00002397  088502420D05      or [ebp+0x50d4202],al
0000239D  0246C5            add al,[esi-0x3b]
000023A0  0C04              or al,0x4
000023A2  0400              add al,0x0
000023A4  1C00              sbb al,0x0
000023A6  0000              add [eax],al
000023A8  40                inc eax
000023A9  0300              add eax,[eax]
000023AB  0000              add [eax],al
000023AD  EE                out dx,al
000023AE  FF                db 0xFF
000023AF  FF5000            call near [eax+0x0]
000023B2  0000              add [eax],al
000023B4  00410E            add [ecx+0xe],al
000023B7  088502420D05      or [ebp+0x50d4202],al
000023BD  024CC50C          add cl,[ebp+eax*8+0xc]
000023C1  0404              add al,0x4
000023C3  001C00            add [eax+eax],bl
000023C6  0000              add [eax],al
000023C8  60                pusha
000023C9  0300              add eax,[eax]
000023CB  0030              add [eax],dh
000023CD  EE                out dx,al
000023CE  FF                db 0xFF
000023CF  FF13              call near [ebx]
000023D1  0000              add [eax],al
000023D3  0000              add [eax],al
000023D5  41                inc ecx
000023D6  0E                push cs
000023D7  088502420D05      or [ebp+0x50d4202],al
000023DD  4F                dec edi
000023DE  C50C04            lds ecx,[esp+eax]
000023E1  0400              add al,0x0
000023E3  001C00            add [eax+eax],bl
000023E6  0000              add [eax],al
000023E8  800300            add byte [ebx],0x0
000023EB  0024EE            add [esi+ebp*8],ah
000023EE  FF                db 0xFF
000023EF  FF5000            call near [eax+0x0]
000023F2  0000              add [eax],al
000023F4  00410E            add [ecx+0xe],al
000023F7  088502420D05      or [ebp+0x50d4202],al
000023FD  024CC50C          add cl,[ebp+eax*8+0xc]
00002401  0404              add al,0x4
00002403  001C00            add [eax+eax],bl
00002406  0000              add [eax],al
00002408  A003000054        mov al,[0x54000003]
0000240D  EE                out dx,al
0000240E  FF                db 0xFF
0000240F  FF0B              dec dword [ebx]
00002411  0000              add [eax],al
00002413  0000              add [eax],al
00002415  41                inc ecx
00002416  0E                push cs
00002417  088502420D05      or [ebp+0x50d4202],al
0000241D  47                inc edi
0000241E  C50C04            lds ecx,[esp+eax]
00002421  0400              add al,0x0
00002423  001C00            add [eax+eax],bl
00002426  0000              add [eax],al
00002428  C00300            rol byte [ebx],0x0
0000242B  0040EE            add [eax-0x12],al
0000242E  FF                db 0xFF
0000242F  FF0B              dec dword [ebx]
00002431  0000              add [eax],al
00002433  0000              add [eax],al
00002435  41                inc ecx
00002436  0E                push cs
00002437  088502420D05      or [ebp+0x50d4202],al
0000243D  47                inc edi
0000243E  C50C04            lds ecx,[esp+eax]
00002441  0400              add al,0x0
00002443  001C00            add [eax+eax],bl
00002446  0000              add [eax],al
00002448  E003              loopne 0x244d
0000244A  0000              add [eax],al
0000244C  2CEE              sub al,0xee
0000244E  FF                db 0xFF
0000244F  FF0B              dec dword [ebx]
00002451  0000              add [eax],al
00002453  0000              add [eax],al
00002455  41                inc ecx
00002456  0E                push cs
00002457  088502420D05      or [ebp+0x50d4202],al
0000245D  47                inc edi
0000245E  C50C04            lds ecx,[esp+eax]
00002461  0400              add al,0x0
00002463  001C00            add [eax+eax],bl
00002466  0000              add [eax],al
00002468  000400            add [eax+eax],al
0000246B  0018              add [eax],bl
0000246D  EE                out dx,al
0000246E  FF                db 0xFF
0000246F  FF0B              dec dword [ebx]
00002471  0000              add [eax],al
00002473  0000              add [eax],al
00002475  41                inc ecx
00002476  0E                push cs
00002477  088502420D05      or [ebp+0x50d4202],al
0000247D  47                inc edi
0000247E  C50C04            lds ecx,[esp+eax]
00002481  0400              add al,0x0
00002483  001C00            add [eax+eax],bl
00002486  0000              add [eax],al
00002488  200400            and [eax+eax],al
0000248B  0004EE            add [esi+ebp*8],al
0000248E  FF                db 0xFF
0000248F  FF0B              dec dword [ebx]
00002491  0000              add [eax],al
00002493  0000              add [eax],al
00002495  41                inc ecx
00002496  0E                push cs
00002497  088502420D05      or [ebp+0x50d4202],al
0000249D  47                inc edi
0000249E  C50C04            lds ecx,[esp+eax]
000024A1  0400              add al,0x0
000024A3  001C00            add [eax+eax],bl
000024A6  0000              add [eax],al
000024A8  40                inc eax
000024A9  0400              add al,0x0
000024AB  00F0              add al,dh
000024AD  ED                in eax,dx
000024AE  FF                db 0xFF
000024AF  FF7300            push dword [ebx+0x0]
000024B2  0000              add [eax],al
000024B4  00410E            add [ecx+0xe],al
000024B7  088502420D05      or [ebp+0x50d4202],al
000024BD  026DC5            add ch,[ebp-0x3b]
000024C0  0C04              or al,0x4
000024C2  0400              add al,0x0
000024C4  1C00              sbb al,0x0
000024C6  0000              add [eax],al
000024C8  60                pusha
000024C9  0400              add al,0x0
000024CB  0043EE            add [ebx-0x12],al
000024CE  FF                db 0xFF
000024CF  FF22              jmp near [edx]
000024D1  0000              add [eax],al
000024D3  0000              add [eax],al
000024D5  41                inc ecx
000024D6  0E                push cs
000024D7  088502420D05      or [ebp+0x50d4202],al
000024DD  5E                pop esi
000024DE  C50C04            lds ecx,[esp+eax]
000024E1  0400              add al,0x0
000024E3  001C00            add [eax+eax],bl
000024E6  0000              add [eax],al
000024E8  80040000          add byte [eax+eax],0x0
000024EC  46                inc esi
000024ED  EE                out dx,al
000024EE  FF                db 0xFF
000024EF  FF0D00000000      dec dword [0x0]
000024F5  41                inc ecx
000024F6  0E                push cs
000024F7  088502420D05      or [ebp+0x50d4202],al
000024FD  49                dec ecx
000024FE  C50C04            lds ecx,[esp+eax]
00002501  0400              add al,0x0
00002503  0020              add [eax],ah
00002505  0000              add [eax],al
00002507  00A004000034      add [eax+0x34000004],ah
0000250D  EE                out dx,al
0000250E  FF                db 0xFF
0000250F  FF4D00            dec dword [ebp+0x0]
00002512  0000              add [eax],al
00002514  00410E            add [ecx+0xe],al
00002517  088502420D05      or [ebp+0x50d4202],al
0000251D  44                inc esp
0000251E  830302            add dword [ebx],byte +0x2
00002521  43                inc ebx
00002522  C5                db 0xC5
00002523  C3                ret
00002524  0C04              or al,0x4
00002526  0400              add al,0x0
00002528  1C00              sbb al,0x0
0000252A  0000              add [eax],al
0000252C  C40400            les eax,[eax+eax]
0000252F  005EEE            add [esi-0x12],bl
00002532  FF                db 0xFF
00002533  FF0B              dec dword [ebx]
00002535  0000              add [eax],al
00002537  0000              add [eax],al
00002539  41                inc ecx
0000253A  0E                push cs
0000253B  088502420D05      or [ebp+0x50d4202],al
00002541  45                inc ebp
00002542  C50C04            lds ecx,[esp+eax]
00002545  0400              add al,0x0
00002547  001C00            add [eax+eax],bl
0000254A  0000              add [eax],al
0000254C  E404              in al,0x4
0000254E  0000              add [eax],al
00002550  4A                dec edx
00002551  EE                out dx,al
00002552  FF                db 0xFF
00002553  FF0F              dec dword [edi]
00002555  0000              add [eax],al
00002557  0000              add [eax],al
00002559  41                inc ecx
0000255A  0E                push cs
0000255B  088502420D05      or [ebp+0x50d4202],al
00002561  4B                dec ebx
00002562  C50C04            lds ecx,[esp+eax]
00002565  0400              add al,0x0
00002567  002400            add [eax+eax],ah
0000256A  0000              add [eax],al
0000256C  A804              test al,0x4
0000256E  0000              add [eax],al
00002570  3AEE              cmp ch,dh
00002572  FF                db 0xFF
00002573  FF9400000004D1    call near [eax+eax+0xd1040000]
0000257A  AA                stosb
0000257B  0408              add al,0x8
0000257D  41                inc ecx
0000257E  0E                push cs
0000257F  088502420D05      or [ebp+0x50d4202],al
00002585  44                inc esp
00002586  830302            add dword [ebx],byte +0x2
00002589  8AC5              mov al,ch
0000258B  C3                ret
0000258C  0C04              or al,0x4
0000258E  0400              add al,0x0
00002590  1C00              sbb al,0x0
00002592  0000              add [eax],al
00002594  2C05              sub al,0x5
00002596  0000              add [eax],al
00002598  A6                cmpsb
00002599  EE                out dx,al
0000259A  FF                db 0xFF
0000259B  FF13              call near [ebx]
0000259D  0000              add [eax],al
0000259F  0000              add [eax],al
000025A1  41                inc ecx
000025A2  0E                push cs
000025A3  088502420D05      or [ebp+0x50d4202],al
000025A9  4F                dec edi
000025AA  C50C04            lds ecx,[esp+eax]
000025AD  0400              add al,0x0
000025AF  001C00            add [eax+eax],bl
000025B2  0000              add [eax],al
000025B4  4C                dec esp
000025B5  0500009AEE        add eax,0xee9a0000
000025BA  FF                db 0xFF
000025BB  FF31              push dword [ecx]
000025BD  0000              add [eax],al
000025BF  0000              add [eax],al
000025C1  41                inc ecx
000025C2  0E                push cs
000025C3  088502420D05      or [ebp+0x50d4202],al
000025C9  6D                insd
000025CA  C50C04            lds ecx,[esp+eax]
000025CD  0400              add al,0x0
000025CF  001C00            add [eax+eax],bl
000025D2  0000              add [eax],al
000025D4  6C                insb
000025D5  050000ACEE        add eax,0xeeac0000
000025DA  FF                db 0xFF
000025DB  FF0500000000      inc dword [0x0]
000025E1  41                inc ecx
000025E2  0E                push cs
000025E3  088502420D05      or [ebp+0x50d4202],al
000025E9  41                inc ecx
000025EA  C50C04            lds ecx,[esp+eax]
000025ED  0400              add al,0x0
000025EF  001C00            add [eax+eax],bl
000025F2  0000              add [eax],al
000025F4  8C05000091EE      mov [0xee910000],es
000025FA  FF                db 0xFF
000025FB  FF0B              dec dword [ebx]
000025FD  0000              add [eax],al
000025FF  0000              add [eax],al
00002601  41                inc ecx
00002602  0E                push cs
00002603  088502420D05      or [ebp+0x50d4202],al
00002609  47                inc edi
0000260A  C50C04            lds ecx,[esp+eax]
0000260D  0400              add al,0x0
0000260F  001C00            add [eax+eax],bl
00002612  0000              add [eax],al
00002614  AC                lodsb
00002615  0500007CEE        add eax,0xee7c0000
0000261A  FF                db 0xFF
0000261B  FF0B              dec dword [ebx]
0000261D  0000              add [eax],al
0000261F  0000              add [eax],al
00002621  41                inc ecx
00002622  0E                push cs
00002623  088502420D05      or [ebp+0x50d4202],al
00002629  47                inc edi
0000262A  C50C04            lds ecx,[esp+eax]
0000262D  0400              add al,0x0
0000262F  0020              add [eax],ah
00002631  0000              add [eax],al
00002633  00CC              add ah,cl
00002635  05000068EE        add eax,0xee680000
0000263A  FF                db 0xFF
0000263B  FF5D00            call far [ebp+0x0]
0000263E  0000              add [eax],al
00002640  00410E            add [ecx+0xe],al
00002643  088502420D05      or [ebp+0x50d4202],al
00002649  44                inc esp
0000264A  830302            add dword [ebx],byte +0x2
0000264D  55                push ebp
0000264E  C5                db 0xC5
0000264F  C3                ret
00002650  0C04              or al,0x4
00002652  0400              add al,0x0
00002654  1C00              sbb al,0x0
00002656  0000              add [eax],al
00002658  F0050000A1EE      lock add eax,0xeea10000
0000265E  FF                db 0xFF
0000265F  FF22              jmp near [edx]
00002661  0000              add [eax],al
00002663  0000              add [eax],al
00002665  41                inc ecx
00002666  0E                push cs
00002667  088502420D05      or [ebp+0x50d4202],al
0000266D  5E                pop esi
0000266E  C50C04            lds ecx,[esp+eax]
00002671  0400              add al,0x0
00002673  001C00            add [eax+eax],bl
00002676  0000              add [eax],al
00002678  1006              adc [esi],al
0000267A  0000              add [eax],al
0000267C  A3EEFFFF0B        mov [0xbffffee],eax
00002681  0000              add [eax],al
00002683  0000              add [eax],al
00002685  41                inc ecx
00002686  0E                push cs
00002687  088502420D05      or [ebp+0x50d4202],al
0000268D  47                inc edi
0000268E  C50C04            lds ecx,[esp+eax]
00002691  0400              add al,0x0
00002693  001C00            add [eax+eax],bl
00002696  0000              add [eax],al
00002698  3006              xor [esi],al
0000269A  0000              add [eax],al
0000269C  8EEE              mov gs,si
0000269E  FF                db 0xFF
0000269F  FF08              dec dword [eax]
000026A1  0000              add [eax],al
000026A3  0000              add [eax],al
000026A5  41                inc ecx
000026A6  0E                push cs
000026A7  088502420D05      or [ebp+0x50d4202],al
000026AD  44                inc esp
000026AE  C50C04            lds ecx,[esp+eax]
000026B1  0400              add al,0x0
000026B3  002400            add [eax+eax],ah
000026B6  0000              add [eax],al
000026B8  F4                hlt
000026B9  05000076EE        add eax,0xee760000
000026BE  FF                db 0xFF
000026BF  FF37              push dword [edi]
000026C1  0300              add eax,[eax]
000026C3  0004E4            add [esp],al
000026C6  AA                stosb
000026C7  0408              add al,0x8
000026C9  41                inc ecx
000026CA  0E                push cs
000026CB  088502420D05      or [ebp+0x50d4202],al
000026D1  44                inc esp
000026D2  830303            add dword [ebx],byte +0x3
000026D5  2D03C5C30C        sub eax,0xcc3c503
000026DA  0404              add al,0x4
000026DC  2400              and al,0x0
000026DE  0000              add [eax],al
000026E0  7806              js 0x26e8
000026E2  0000              add [eax],al
000026E4  86F1              xchg dh,cl
000026E6  FF                db 0xFF
000026E7  FFCE              dec esi
000026E9  0000              add [eax],al
000026EB  0000              add [eax],al
000026ED  41                inc ecx
000026EE  0E                push cs
000026EF  088502420D05      or [ebp+0x50d4202],al
000026F5  45                inc ebp
000026F6  8603              xchg al,[ebx]
000026F8  830402C1          add dword [edx+eax],byte -0x3f
000026FC  C3                ret
000026FD  41                inc ecx
000026FE  C641C50C          mov byte [ecx-0x3b],0xc
00002702  0404              add al,0x4
00002704  1C00              sbb al,0x0
00002706  0000              add [eax],al
00002708  A00600002C        mov al,[0x2c000006]
0000270D  F2                db 0xF2
0000270E  FF                db 0xFF
0000270F  FF0500000000      inc dword [0x0]
00002715  41                inc ecx
00002716  0E                push cs
00002717  088502420D05      or [ebp+0x50d4202],al
0000271D  41                inc ecx
0000271E  C50C04            lds ecx,[esp+eax]
00002721  0400              add al,0x0
00002723  001C00            add [eax+eax],bl
00002726  0000              add [eax],al
00002728  C00600            rol byte [esi],0x0
0000272B  0012              add [edx],dl
0000272D  F2                db 0xF2
0000272E  FF                db 0xFF
0000272F  FF27              jmp near [edi]
00002731  0000              add [eax],al
00002733  0000              add [eax],al
00002735  41                inc ecx
00002736  0E                push cs
00002737  088502420D05      or [ebp+0x50d4202],al
0000273D  61                popa
0000273E  C50C04            lds ecx,[esp+eax]
00002741  0400              add al,0x0
00002743  001C00            add [eax+eax],bl
00002746  0000              add [eax],al
00002748  E006              loopne 0x2750
0000274A  0000              add [eax],al
0000274C  1AF2              sbb dh,dl
0000274E  FF                db 0xFF
0000274F  FF13              call near [ebx]
00002751  0000              add [eax],al
00002753  0000              add [eax],al
00002755  41                inc ecx
00002756  0E                push cs
00002757  088502420D05      or [ebp+0x50d4202],al
0000275D  4F                dec edi
0000275E  C50C04            lds ecx,[esp+eax]
00002761  0400              add al,0x0
00002763  001C00            add [eax+eax],bl
00002766  0000              add [eax],al
00002768  0007              add [edi],al
0000276A  0000              add [eax],al
0000276C  0DF2FFFF08        or eax,0x8fffff2
00002771  0000              add [eax],al
00002773  0000              add [eax],al
00002775  41                inc ecx
00002776  0E                push cs
00002777  088502420D05      or [ebp+0x50d4202],al
0000277D  44                inc esp
0000277E  C50C04            lds ecx,[esp+eax]
00002781  0400              add al,0x0
00002783  001C00            add [eax+eax],bl
00002786  0000              add [eax],al
00002788  2007              and [edi],al
0000278A  0000              add [eax],al
0000278C  F6F1              div cl
0000278E  FF                db 0xFF
0000278F  FF0500000000      inc dword [0x0]
00002795  41                inc ecx
00002796  0E                push cs
00002797  088502420D05      or [ebp+0x50d4202],al
0000279D  41                inc ecx
0000279E  C50C04            lds ecx,[esp+eax]
000027A1  0400              add al,0x0
000027A3  001C00            add [eax+eax],bl
000027A6  0000              add [eax],al
000027A8  40                inc eax
000027A9  07                pop es
000027AA  0000              add [eax],al
000027AC  DCF1              fdivr to st1
000027AE  FF                db 0xFF
000027AF  FF22              jmp near [edx]
000027B1  0000              add [eax],al
000027B3  0000              add [eax],al
000027B5  41                inc ecx
000027B6  0E                push cs
000027B7  088502420D05      or [ebp+0x50d4202],al
000027BD  5E                pop esi
000027BE  C50C04            lds ecx,[esp+eax]
000027C1  0400              add al,0x0
000027C3  001C00            add [eax+eax],bl
000027C6  0000              add [eax],al
000027C8  60                pusha
000027C9  07                pop es
000027CA  0000              add [eax],al
000027CC  DEF1              fdivrp st1
000027CE  FF                db 0xFF
000027CF  FF0B              dec dword [ebx]
000027D1  0000              add [eax],al
000027D3  0000              add [eax],al
000027D5  41                inc ecx
000027D6  0E                push cs
000027D7  088502420D05      or [ebp+0x50d4202],al
000027DD  47                inc edi
000027DE  C50C04            lds ecx,[esp+eax]
000027E1  0400              add al,0x0
000027E3  001C00            add [eax+eax],bl
000027E6  0000              add [eax],al
000027E8  800700            add byte [edi],0x0
000027EB  00CA              add dl,cl
000027ED  F1                int1
000027EE  FF                db 0xFF
000027EF  FF21              jmp near [ecx]
000027F1  0000              add [eax],al
000027F3  0000              add [eax],al
000027F5  41                inc ecx
000027F6  0E                push cs
000027F7  088502420D05      or [ebp+0x50d4202],al
000027FD  5B                pop ebx
000027FE  C50C04            lds ecx,[esp+eax]
00002801  0400              add al,0x0
00002803  001C00            add [eax+eax],bl
00002806  0000              add [eax],al
00002808  A0070000CC        mov al,[0xcc000007]
0000280D  F1                int1
0000280E  FF                db 0xFF
0000280F  FF0B              dec dword [ebx]
00002811  0000              add [eax],al
00002813  0000              add [eax],al
00002815  41                inc ecx
00002816  0E                push cs
00002817  088502420D05      or [ebp+0x50d4202],al
0000281D  47                inc edi
0000281E  C50C04            lds ecx,[esp+eax]
00002821  0400              add al,0x0
00002823  001C00            add [eax+eax],bl
00002826  0000              add [eax],al
00002828  C00700            rol byte [edi],0x0
0000282B  00B8F1FFFF1A      add [eax+0x1afffff1],bh
00002831  0000              add [eax],al
00002833  0000              add [eax],al
00002835  41                inc ecx
00002836  0E                push cs
00002837  088502420D05      or [ebp+0x50d4202],al
0000283D  56                push esi
0000283E  C50C04            lds ecx,[esp+eax]
00002841  0400              add al,0x0
00002843  001C00            add [eax+eax],bl
00002846  0000              add [eax],al
00002848  E007              loopne 0x2851
0000284A  0000              add [eax],al
0000284C  B2F1              mov dl,0xf1
0000284E  FF                db 0xFF
0000284F  FF6101            jmp near [ecx+0x1]
00002852  0000              add [eax],al
00002854  00410E            add [ecx+0xe],al
00002857  088502420D05      or [ebp+0x50d4202],al
0000285D  035B01            add ebx,[ebx+0x1]
00002860  C50C04            lds ecx,[esp+eax]
00002863  041C              add al,0x1c
00002865  0000              add [eax],al
00002867  0000              add [eax],al
00002869  0800              or [eax],al
0000286B  00F4              add ah,dh
0000286D  F2                db 0xF2
0000286E  FF                db 0xFF
0000286F  FF1D00000000      call far [0x0]
00002875  41                inc ecx
00002876  0E                push cs
00002877  088502420D05      or [ebp+0x50d4202],al
0000287D  59                pop ecx
0000287E  C50C04            lds ecx,[esp+eax]
00002881  0400              add al,0x0
00002883  001C00            add [eax+eax],bl
00002886  0000              add [eax],al
00002888  2008              and [eax],cl
0000288A  0000              add [eax],al
0000288C  F2                db 0xF2
0000288D  F2                db 0xF2
0000288E  FF                db 0xFF
0000288F  FF1D00000000      call far [0x0]
00002895  41                inc ecx
00002896  0E                push cs
00002897  088502420D05      or [ebp+0x50d4202],al
0000289D  59                pop ecx
0000289E  C50C04            lds ecx,[esp+eax]
000028A1  0400              add al,0x0
000028A3  0020              add [eax],ah
000028A5  0000              add [eax],al
000028A7  004008            add [eax+0x8],al
000028AA  0000              add [eax],al
000028AC  F0                db 0xF0
000028AD  F2                db 0xF2
000028AE  FF                db 0xFF
000028AF  FF6300            jmp near [ebx+0x0]
000028B2  0000              add [eax],al
000028B4  00410E            add [ecx+0xe],al
000028B7  088502420D05      or [ebp+0x50d4202],al
000028BD  44                inc esp
000028BE  830302            add dword [ebx],byte +0x2
000028C1  5B                pop ebx
000028C2  C5                db 0xC5
000028C3  C3                ret
000028C4  0C04              or al,0x4
000028C6  0400              add al,0x0
000028C8  1C00              sbb al,0x0
000028CA  0000              add [eax],al
000028CC  640800            or [fs:eax],al
000028CF  0030              add [eax],dh
000028D1  F3                db 0xF3
000028D2  FF                db 0xFF
000028D3  FF08              dec dword [eax]
000028D5  0000              add [eax],al
000028D7  0000              add [eax],al
000028D9  41                inc ecx
000028DA  0E                push cs
000028DB  088502420D05      or [ebp+0x50d4202],al
000028E1  44                inc esp
000028E2  C50C04            lds ecx,[esp+eax]
000028E5  0400              add al,0x0
000028E7  001C00            add [eax+eax],bl
000028EA  0000              add [eax],al
000028EC  8408              test [eax],cl
000028EE  0000              add [eax],al
000028F0  18F3              sbb bl,dh
000028F2  FF                db 0xFF
000028F3  FF13              call near [ebx]
000028F5  0000              add [eax],al
000028F7  0000              add [eax],al
000028F9  41                inc ecx
000028FA  0E                push cs
000028FB  088502420D05      or [ebp+0x50d4202],al
00002901  4F                dec edi
00002902  C50C04            lds ecx,[esp+eax]
00002905  0400              add al,0x0
00002907  001C00            add [eax+eax],bl
0000290A  0000              add [eax],al
0000290C  A4                movsb
0000290D  0800              or [eax],al
0000290F  000CF3            add [ebx+esi*8],cl
00002912  FF                db 0xFF
00002913  FF0500000000      inc dword [0x0]
00002919  41                inc ecx
0000291A  0E                push cs
0000291B  088502420D05      or [ebp+0x50d4202],al
00002921  41                inc ecx
00002922  C50C04            lds ecx,[esp+eax]
00002925  0400              add al,0x0
00002927  001C00            add [eax+eax],bl
0000292A  0000              add [eax],al
0000292C  C408              les ecx,[eax]
0000292E  0000              add [eax],al
00002930  F2                db 0xF2
00002931  F2                db 0xF2
00002932  FF                db 0xFF
00002933  FF13              call near [ebx]
00002935  0000              add [eax],al
00002937  0000              add [eax],al
00002939  41                inc ecx
0000293A  0E                push cs
0000293B  088502420D05      or [ebp+0x50d4202],al
00002941  4F                dec edi
00002942  C50C04            lds ecx,[esp+eax]
00002945  0400              add al,0x0
00002947  001C00            add [eax+eax],bl
0000294A  0000              add [eax],al
0000294C  E408              in al,0x8
0000294E  0000              add [eax],al
00002950  E6F2              out 0xf2,al
00002952  FF                db 0xFF
00002953  FF22              jmp near [edx]
00002955  0000              add [eax],al
00002957  0000              add [eax],al
00002959  41                inc ecx
0000295A  0E                push cs
0000295B  088502420D05      or [ebp+0x50d4202],al
00002961  5C                pop esp
00002962  C50C04            lds ecx,[esp+eax]
00002965  0400              add al,0x0
00002967  001C00            add [eax+eax],bl
0000296A  0000              add [eax],al
0000296C  0409              add al,0x9
0000296E  0000              add [eax],al
00002970  E8F2FFFF23        call 0x24002967
00002975  0000              add [eax],al
00002977  0000              add [eax],al
00002979  41                inc ecx
0000297A  0E                push cs
0000297B  088502420D05      or [ebp+0x50d4202],al
00002981  5F                pop edi
00002982  C50C04            lds ecx,[esp+eax]
00002985  0400              add al,0x0
00002987  001C00            add [eax+eax],bl
0000298A  0000              add [eax],al
0000298C  2409              and al,0x9
0000298E  0000              add [eax],al
00002990  EC                in al,dx
00002991  F2                db 0xF2
00002992  FF                db 0xFF
00002993  FF2E              jmp far [esi]
00002995  0000              add [eax],al
00002997  0000              add [eax],al
00002999  41                inc ecx
0000299A  0E                push cs
0000299B  088502420D05      or [ebp+0x50d4202],al
000029A1  6AC5              push byte -0x3b
000029A3  0C04              or al,0x4
000029A5  0400              add al,0x0
000029A7  001C00            add [eax+eax],bl
000029AA  0000              add [eax],al
000029AC  44                inc esp
000029AD  0900              or [eax],eax
000029AF  00FA              add dl,bh
000029B1  F2                db 0xF2
000029B2  FF                db 0xFF
000029B3  FF0500000000      inc dword [0x0]
000029B9  41                inc ecx
000029BA  0E                push cs
000029BB  088502420D05      or [ebp+0x50d4202],al
000029C1  41                inc ecx
000029C2  C50C04            lds ecx,[esp+eax]
000029C5  0400              add al,0x0
000029C7  001C00            add [eax+eax],bl
000029CA  0000              add [eax],al
000029CC  640900            or [fs:eax],eax
000029CF  00E0              add al,ah
000029D1  F2                db 0xF2
000029D2  FF                db 0xFF
000029D3  FF36              push dword [esi]
000029D5  0000              add [eax],al
000029D7  0000              add [eax],al
000029D9  41                inc ecx
000029DA  0E                push cs
000029DB  088502420D05      or [ebp+0x50d4202],al
000029E1  72C5              jc 0x29a8
000029E3  0C04              or al,0x4
000029E5  0400              add al,0x0
000029E7  001C00            add [eax+eax],bl
000029EA  0000              add [eax],al
000029EC  8409              test [ecx],cl
000029EE  0000              add [eax],al
000029F0  F6F2              div dl
000029F2  FF                db 0xFF
000029F3  FF0A              dec dword [edx]
000029F5  0000              add [eax],al
000029F7  0000              add [eax],al
000029F9  41                inc ecx
000029FA  0E                push cs
000029FB  088502420D05      or [ebp+0x50d4202],al
00002A01  46                inc esi
00002A02  C50C04            lds ecx,[esp+eax]
00002A05  0400              add al,0x0
00002A07  001C00            add [eax+eax],bl
00002A0A  0000              add [eax],al
00002A0C  A4                movsb
00002A0D  0900              or [eax],eax
00002A0F  00E0              add al,ah
00002A11  F2                db 0xF2
00002A12  FF                db 0xFF
00002A13  FF13              call near [ebx]
00002A15  0000              add [eax],al
00002A17  0000              add [eax],al
00002A19  41                inc ecx
00002A1A  0E                push cs
00002A1B  088502420D05      or [ebp+0x50d4202],al
00002A21  4F                dec edi
00002A22  C50C04            lds ecx,[esp+eax]
00002A25  0400              add al,0x0
00002A27  001C00            add [eax+eax],bl
00002A2A  0000              add [eax],al
00002A2C  C409              les ecx,[ecx]
00002A2E  0000              add [eax],al
00002A30  85E2              test edx,esp
00002A32  FF                db 0xFF
00002A33  FF6700            jmp near [edi+0x0]
00002A36  0000              add [eax],al
00002A38  00410E            add [ecx+0xe],al
00002A3B  088502420D05      or [ebp+0x50d4202],al
00002A41  0263C5            add ah,[ebx-0x3b]
00002A44  0C04              or al,0x4
00002A46  0400              add al,0x0
00002A48  1C00              sbb al,0x0
00002A4A  0000              add [eax],al
00002A4C  E409              in al,0x9
00002A4E  0000              add [eax],al
00002A50  CC                int3
00002A51  E2FF              loop 0x2a52
00002A53  FF1C00            call far [eax+eax]
00002A56  0000              add [eax],al
00002A58  00410E            add [ecx+0xe],al
00002A5B  088502420D05      or [ebp+0x50d4202],al
00002A61  58                pop eax
00002A62  C50C04            lds ecx,[esp+eax]
00002A65  0400              add al,0x0
00002A67  0000              add [eax],al
00002A69  0000              add [eax],al
00002A6B  00FF              add bh,bh
00002A6D  FF01              inc dword [ecx]
00002A6F  1D2935E505        sbb eax,0x5e53529
00002A74  007CA301          add [ebx+0x1],bh
00002A78  E305              jecxz 0x2a7f
00002A7A  00B70205E105      add [edi+0x5e10502],dh
00002A80  00E5              add ch,ah
00002A82  02D2              add dl,dl
00002A84  02E3              add ah,bl
00002A86  0500E80505        add eax,0x505e800
00002A8B  0000              add [eax],al
00002A8D  FF                db 0xFF
00002A8E  FF01              inc dword [ecx]
00002A90  151D058E02        adc eax,0x28e051d
00002A95  0039              add [ecx],bh
00002A97  3F                aas
00002A98  830200            add dword [edx],byte +0x0
00002A9B  E501              in eax,0x1
00002A9D  058C020091        add eax,0x9100028c
00002AA2  02050000FFFF      add al,[0xffff0000]
00002AA8  0108              add [eax],ecx
00002AAA  1C05              sbb al,0x5
00002AAC  2E004005          add [cs:eax+0x5],al
00002AB0  0000              add [eax],al
00002AB2  FF                db 0xFF
00002AB3  FF01              inc dword [ecx]
00002AB5  0F                db 0x0F
00002AB6  3B05BF010052      cmp eax,[0x520001bf]
00002ABC  57                push edi
00002ABD  BA0100C201        mov edx,0x1c20001
00002AC2  050000FFFF        add eax,0xffff0000
00002AC7  0108              add [eax],ecx
00002AC9  33053D004005      xor eax,[0x540003d]
00002ACF  0000              add [eax],al
00002AD1  FF                db 0xFF
00002AD2  FF01              inc dword [ecx]
00002AD4  0F31              rdtsc
00002AD6  0580010062        add eax,0x62000180
00002ADB  0582010085        add eax,0x85000182
00002AE0  01050000FFFF      add [0xffff0000],eax
00002AE6  0117              add [edi],edx
00002AE8  C00105            rol byte [ecx],0x5
00002AEB  A5                movsd
00002AEC  06                push es
00002AED  00DF              add bh,bl
00002AEF  0305A10600F5      add eax,[0xf50006a1]
00002AF5  0505A30600        add eax,0x6a305
00002AFA  A806              test al,0x6
00002AFC  05000000FF        add eax,0xff000000
00002B01  FF                db 0xFF
00002B02  FF                db 0xFF
00002B03  FF1C8D04080000    call far [ecx*4+0x804]
00002B0A  0000              add [eax],al
00002B0C  FF                db 0xFF
00002B0D  FF                db 0xFF
00002B0E  FF                db 0xFF
00002B0F  FF00              inc dword [eax]
00002B11  0000              add [eax],al
00002B13  0000              add [eax],al
00002B15  0000              add [eax],al
00002B17  0001              add [ecx],al
00002B19  0000              add [eax],al
00002B1B  0001              add [ecx],al
00002B1D  0000              add [eax],al
00002B1F  0001              add [ecx],al
00002B21  0000              add [eax],al
00002B23  007601            add [esi+0x1],dh
00002B26  0000              add [eax],al
00002B28  0100              add [eax],eax
00002B2A  0000              add [eax],al
00002B2C  800100            add byte [ecx],0x0
00002B2F  0001              add [ecx],al
00002B31  0000              add [eax],al
00002B33  009D0100000C      add [ebp+0xc000001],bl
00002B39  0000              add [eax],al
00002B3B  003C87            add [edi+eax*4],bh
00002B3E  0408              add al,0x8
00002B40  0D000000A8        or eax,0xa8000000
00002B45  9D                popf
00002B46  0408              add al,0x8
00002B48  0400              add al,0x0
00002B4A  0000              add [eax],al
00002B4C  6881040805        push dword 0x5080481
00002B51  0000              add [eax],al
00002B53  00A883040806      add [eax+0x6080483],ch
00002B59  0000              add [eax],al
00002B5B  0018              add [eax],bl
00002B5D  82                db 0x82
00002B5E  0408              add al,0x8
00002B60  0A00              or al,[eax]
00002B62  0000              add [eax],al
00002B64  3902              cmp [edx],eax
00002B66  0000              add [eax],al
00002B68  0B00              or eax,[eax]
00002B6A  0000              add [eax],al
00002B6C  1000              adc [eax],al
00002B6E  0000              add [eax],al
00002B70  1500000000        adc eax,0x0
00002B75  0000              add [eax],al
00002B77  0003              add [ebx],al
00002B79  0000              add [eax],al
00002B7B  00FC              add ah,bh
00002B7D  BB04080200        mov ebx,0x20804
00002B82  0000              add [eax],al
00002B84  90                nop
00002B85  0000              add [eax],al
00002B87  001400            add [eax+eax],dl
00002B8A  0000              add [eax],al
00002B8C  1100              adc [eax],eax
00002B8E  0000              add [eax],al
00002B90  17                pop ss
00002B91  0000              add [eax],al
00002B93  00AC8604081100    add [esi+eax*4+0x110804],ch
00002B9A  0000              add [eax],al
00002B9C  94                xchg eax,esp
00002B9D  860408            xchg al,[eax+ecx]
00002BA0  1200              adc al,[eax]
00002BA2  0000              add [eax],al
00002BA4  1800              sbb [eax],al
00002BA6  0000              add [eax],al
00002BA8  1300              adc eax,[eax]
00002BAA  0000              add [eax],al
00002BAC  0800              or [eax],al
00002BAE  0000              add [eax],al
00002BB0  FE                db 0xFE
00002BB1  FF                db 0xFF
00002BB2  FF6F14            jmp far [edi+0x14]
00002BB5  860408            xchg al,[eax+ecx]
00002BB8  FF                db 0xFF
00002BB9  FF                db 0xFF
00002BBA  FF6F03            jmp far [edi+0x3]
00002BBD  0000              add [eax],al
00002BBF  00F0              add al,dh
00002BC1  FF                db 0xFF
00002BC2  FF6FE2            jmp far [edi-0x1e]
00002BC5  850408            test [eax+ecx],eax
00002BC8  0000              add [eax],al
00002BCA  0000              add [eax],al
00002BCC  0000              add [eax],al
00002BCE  0000              add [eax],al
00002BD0  0000              add [eax],al
00002BD2  0000              add [eax],al
00002BD4  0000              add [eax],al
00002BD6  0000              add [eax],al
00002BD8  0000              add [eax],al
00002BDA  0000              add [eax],al
00002BDC  0000              add [eax],al
00002BDE  0000              add [eax],al
00002BE0  0000              add [eax],al
00002BE2  0000              add [eax],al
00002BE4  0000              add [eax],al
00002BE6  0000              add [eax],al
00002BE8  0000              add [eax],al
00002BEA  0000              add [eax],al
00002BEC  0000              add [eax],al
00002BEE  0000              add [eax],al
00002BF0  0000              add [eax],al
00002BF2  0000              add [eax],al
00002BF4  0000              add [eax],al
00002BF6  0000              add [eax],al
00002BF8  0000              add [eax],al
00002BFA  0000              add [eax],al
00002BFC  18BB04080000      sbb [ebx+0x804],bh
00002C02  0000              add [eax],al
00002C04  0000              add [eax],al
00002C06  0000              add [eax],al
00002C08  868704089687      xchg al,[edi+0x87960804]
00002C0E  0408              add al,0x8
00002C10  A6                cmpsb
00002C11  870408            xchg eax,[eax+ecx]
00002C14  B687              mov dh,0x87
00002C16  0408              add al,0x8
00002C18  C6870408D68704    mov byte [edi+0x87d60804],0x4
00002C1F  08E6              or dh,ah
00002C21  870408            xchg eax,[eax+ecx]
00002C24  F6870408068804    test byte [edi+0x88060804],0x4
00002C2B  0816              or [esi],dl
00002C2D  880408            mov [eax+ecx],al
00002C30  26880408          mov [es:eax+ecx],al
00002C34  36880408          mov [ss:eax+ecx],al
00002C38  46                inc esi
00002C39  880408            mov [eax+ecx],al
00002C3C  56                push esi
00002C3D  880408            mov [eax+ecx],al
00002C40  66880408          o16 mov [eax+ecx],al
00002C44  7688              jna 0x2bce
00002C46  0408              add al,0x8
00002C48  868804089688      xchg cl,[eax+0x88960804]
00002C4E  0408              add al,0x8
00002C50  0000              add [eax],al
00002C52  0000              add [eax],al
00002C54  0000              add [eax],al
00002C56  0000              add [eax],al
00002C58  47                inc edi
00002C59  43                inc ebx
00002C5A  43                inc ebx
00002C5B  3A20              cmp ah,[eax]
00002C5D  285562            sub [ebp+0x62],dl
00002C60  756E              jnz 0x2cd0
00002C62  7475              jz 0x2cd9
00002C64  20342E            and [esi+ebp],dh
00002C67  342E              xor al,0x2e
00002C69  332D34756275      xor ebp,[0x75627534]
00002C6F  6E                outsb
00002C70  7475              jz 0x2ce7
00002C72  352920342E        xor eax,0x2e342029
00002C77  342E              xor al,0x2e
00002C79  3300              xor eax,[eax]
00002C7B  47                inc edi
00002C7C  43                inc ebx
00002C7D  43                inc ebx
00002C7E  3A20              cmp ah,[eax]
00002C80  28474E            sub [edi+0x4e],al
00002C83  55                push ebp
00002C84  2920              sub [eax],esp
00002C86  342E              xor al,0x2e
00002C88  382E              cmp [esi],ch
00002C8A  3100              xor [eax],eax
00002C8C  0000              add [eax],al
00002C8E  0000              add [eax],al
00002C90  1C00              sbb al,0x0
00002C92  0000              add [eax],al
00002C94  0200              add al,[eax]
00002C96  0000              add [eax],al
00002C98  0000              add [eax],al
00002C9A  0400              add al,0x0
00002C9C  0000              add [eax],al
00002C9E  0000              add [eax],al
00002CA0  A088040822        mov al,[0x22080488]
00002CA5  0000              add [eax],al
00002CA7  0000              add [eax],al
00002CA9  0000              add [eax],al
00002CAB  0000              add [eax],al
00002CAD  0000              add [eax],al
00002CAF  001C00            add [eax+eax],bl
00002CB2  0000              add [eax],al
00002CB4  0200              add al,[eax]
00002CB6  0E                push cs
00002CB7  0100              add [eax],eax
00002CB9  000400            add [eax+eax],al
00002CBC  0000              add [eax],al
00002CBE  0000              add [eax],al
00002CC0  109D04086A00      adc [ebp+0x6a0804],bl
00002CC6  0000              add [eax],al
00002CC8  0000              add [eax],al
00002CCA  0000              add [eax],al
00002CCC  0000              add [eax],al
00002CCE  0000              add [eax],al
00002CD0  2100              and [eax],eax
00002CD2  0000              add [eax],al
00002CD4  0200              add al,[eax]
00002CD6  810000008D00      add dword [eax],0x8d0000
00002CDC  0000              add [eax],al
00002CDE  7500              jnz 0x2ce0
00002CE0  0000              add [eax],al
00002CE2  5F                pop edi
00002CE3  49                dec ecx
00002CE4  4F                dec edi
00002CE5  5F                pop edi
00002CE6  7374              jnc 0x2d5c
00002CE8  64696E5F75736564  imul ebp,[fs:esi+0x5f],dword 0x64657375
00002CF0  0000              add [eax],al
00002CF2  0000              add [eax],al
00002CF4  0036              add [esi],dh
00002CF6  0000              add [eax],al
00002CF8  0002              add [edx],al
00002CFA  000E              add [esi],cl
00002CFC  0100              add [eax],eax
00002CFE  0013              add [ebx],dl
00002D00  0100              add [eax],eax
00002D02  003E              add [esi],bh
00002D04  0000              add [eax],al
00002D06  005F5F            add [edi+0x5f],bl
00002D09  6C                insb
00002D0A  6962635F637375    imul esp,[edx+0x63],dword 0x7573635f
00002D11  5F                pop edi
00002D12  66696E690053      imul bp,[esi+0x69],word 0x5300
00002D18  0000              add [eax],al
00002D1A  005F5F            add [edi+0x5f],bl
00002D1D  6C                insb
00002D1E  6962635F637375    imul esp,[edx+0x63],dword 0x7573635f
00002D25  5F                pop edi
00002D26  696E6974000000    imul ebp,[esi+0x69],dword 0x74
00002D2D  0000              add [eax],al
00002D2F  7D00              jnl 0x2d31
00002D31  0000              add [eax],al
00002D33  0200              add al,[eax]
00002D35  0000              add [eax],al
00002D37  0000              add [eax],al
00002D39  0401              add al,0x1
00002D3B  0000              add [eax],al
00002D3D  0000              add [eax],al
00002D3F  A0880408C2        mov al,[0xc2080488]
00002D44  880408            mov [eax+ecx],al
00002D47  2E2E2F            cs das
00002D4A  7379              jnc 0x2dc5
00002D4C  7364              jnc 0x2db2
00002D4E  657073            gs jo 0x2dc4
00002D51  2F                das
00002D52  693338362F65      imul esi,[ebx],dword 0x652f3638
00002D58  6C                insb
00002D59  662F              o16 das
00002D5B  7374              jnc 0x2dd1
00002D5D  61                popa
00002D5E  7274              jc 0x2dd4
00002D60  2E53              cs push ebx
00002D62  002F              add [edi],ch
00002D64  686F6D652F        push dword 0x2f656d6f
00002D69  7069              jo 0x2dd4
00002D6B  657272            gs jc 0x2de0
00002D6E  652F              gs das
00002D70  42                inc edx
00002D71  7572              jnz 0x2de5
00002D73  6561              gs popa
00002D75  752F              jnz 0x2da6
00002D77  6865616465        push dword 0x65646165
00002D7C  7273              jc 0x2df1
00002D7E  2D676C6962        sub eax,0x62696c67
00002D83  632D666F722D      arpl [0x2d726f66],bp
00002D89  6C                insb
00002D8A  696E75782F676C    imul ebp,[esi+0x75],dword 0x6c672f78
00002D91  6962632D322E31    imul esp,[edx+0x63],dword 0x312e322d
00002D98  322E              xor ch,[esi]
00002D9A  322F              xor ch,[edi]
00002D9C  637375            arpl [ebx+0x75],si
00002D9F  00474E            add [edi+0x4e],al
00002DA2  55                push ebp
00002DA3  204153            and [ecx+0x53],al
00002DA6  2032              and [edx],dh
00002DA8  2E3230            xor dh,[cs:eax]
00002DAB  2E3100            xor [cs:eax],eax
00002DAE  018089000000      add [eax+0x89],eax
00002DB4  0200              add al,[eax]
00002DB6  1400              adc al,0x0
00002DB8  0000              add [eax],al
00002DBA  0401              add al,0x1
00002DBC  8E00              mov es,[eax]
00002DBE  0000              add [eax],al
00002DC0  01CD              add ebp,ecx
00002DC2  0000              add [eax],al
00002DC4  004300            add [ebx+0x0],al
00002DC7  0000              add [eax],al
00002DC9  C4880408C488      les ecx,[eax+0x88c40804]
00002DCF  0408              add al,0x8
00002DD1  5B                pop ebx
00002DD2  0000              add [eax],al
00002DD4  0002              add [edx],al
00002DD6  0108              add [eax],ecx
00002DD8  800000            add byte [eax],0x0
00002DDB  0002              add [edx],al
00002DDD  0207              add al,[edi]
00002DDF  0000              add [eax],al
00002DE1  0000              add [eax],al
00002DE3  020407            add al,[edi+eax]
00002DE6  360000            add [ss:eax],al
00002DE9  0002              add [edx],al
00002DEB  0407              add al,0x7
00002DED  3100              xor [eax],eax
00002DEF  0000              add [eax],al
00002DF1  0201              add al,[ecx]
00002DF3  06                push es
00002DF4  82                db 0x82
00002DF5  0000              add [eax],al
00002DF7  0002              add [edx],al
00002DF9  020513000000      add al,[0x13]
00002DFF  030405696E7400    add eax,[eax+0x746e69]
00002E06  0208              add cl,[eax]
00002E08  059A000000        add eax,0x9a
00002E0D  0208              add cl,[eax]
00002E0F  07                pop es
00002E10  2C00              sub al,0x0
00002E12  0000              add [eax],al
00002E14  0204059F000000    add al,[eax+0x9f]
00002E1B  0404              add al,0x4
00002E1D  07                pop es
00002E1E  0201              add al,[ecx]
00002E20  06                push es
00002E21  8900              mov [eax],eax
00002E23  0000              add [eax],al
00002E25  051D000000        add eax,0x1d
00002E2A  0119              add [ecx],ebx
00002E2C  8700              xchg eax,[eax]
00002E2E  0000              add [eax],al
00002E30  010503C89D04      add [0x49dc803],eax
00002E36  0806              or [esi],al
00002E38  4F                dec edi
00002E39  0000              add [eax],al
00002E3B  0000              add [eax],al
00002E3D  0F0100            sgdt [eax]
00002E40  0002              add [edx],al
00002E42  005F00            add [edi+0x0],bl
00002E45  0000              add [eax],al
00002E47  0401              add al,0x1
00002E49  8E00              mov es,[eax]
00002E4B  0000              add [eax],al
00002E4D  01C9              add ecx,ecx
00002E4F  0000              add [eax],al
00002E51  004300            add [ebx+0x0],al
00002E54  0000              add [eax],al
00002E56  109D04087A9D      adc [ebp+0x9d7a0804],bl
00002E5C  0408              add al,0x8
00002E5E  82                db 0x82
00002E5F  0000              add [eax],al
00002E61  0002              add [edx],al
00002E63  0405              add al,0x5
00002E65  696E740003AD00    imul ebp,[esi+0x74],dword 0xad0300
00002E6C  0000              add [eax],al
00002E6E  02D3              add dl,bl
00002E70  37                aaa
00002E71  0000              add [eax],al
00002E73  000404            add [esp+eax],al
00002E76  07                pop es
00002E77  360000            add [ss:eax],al
00002E7A  000501FD0000      add [0xfd01],al
00002E80  0001              add [ecx],al
00002E82  830110            add dword [ecx],byte +0x10
00002E85  9D                popf
00002E86  0408              add al,0x8
00002E88  159D040800        adc eax,0x8049d
00002E8D  0000              add [eax],al
00002E8F  0006              add [esi],al
00002E91  01B900000001      add [ecx+0x1000000],edi
00002E97  6901209D0408      imul eax,[ecx],dword 0x8049d20
00002E9D  7A9D              jpe 0x2e3c
00002E9F  0408              add al,0x8
00002EA1  2C00              sub al,0x0
00002EA3  0000              add [eax],al
00002EA5  B900000007        mov ecx,0x7000000
00002EAA  B400              mov ah,0x0
00002EAC  0000              add [eax],al
00002EAE  016925            add [ecx+0x25],ebp
00002EB1  0000              add [eax],al
00002EB3  0002              add [edx],al
00002EB5  91                xchg eax,ecx
00002EB6  0007              add [edi],al
00002EB8  0D01000001        or eax,0x1000001
00002EBD  69B9000000029104  imul edi,[ecx+0x2000000],dword 0xa8070491
         -07A8
00002EC7  0000              add [eax],al
00002EC9  0001              add [ecx],al
00002ECB  69B9000000029108  imul edi,[ecx+0x2000000],dword 0xe7080891
         -08E7
00002ED5  0000              add [eax],al
00002ED7  0001              add [ecx],al
00002ED9  7ACC              jpe 0x2ea7
00002EDB  0000              add [eax],al
00002EDD  0009              add [ecx],cl
00002EDF  399D0408729D      cmp [ebp+0x9d720804],ebx
00002EE5  0408              add al,0x8
00002EE7  0A6900            or ch,[ecx+0x0]
00002EEA  017B2C            add [ebx+0x2c],edi
00002EED  0000              add [eax],al
00002EEF  005800            add [eax+0x0],bl
00002EF2  0000              add [eax],al
00002EF4  0000              add [eax],al
00002EF6  0B04BF            or eax,[edi+edi*4]
00002EF9  0000              add [eax],al
00002EFB  000B              add [ebx],cl
00002EFD  04C5              add al,0xc5
00002EFF  0000              add [eax],al
00002F01  000401            add [ecx+eax],al
00002F04  06                push es
00002F05  8900              mov [eax],eax
00002F07  0000              add [eax],al
00002F09  0C2C              or al,0x2c
00002F0B  0000              add [eax],al
00002F0D  000DF2000000      add [0xf2],cl
00002F13  DC00              fadd qword [eax]
00002F15  0000              add [eax],al
00002F17  0E                push cs
00002F18  000F              add [edi],cl
00002F1A  01F2              add edx,esi
00002F1C  0000              add [eax],al
00002F1E  0010              add [eax],dl
00002F20  2500000010        and eax,0x10000000
00002F25  B900000010        mov ecx,0x10000000
00002F2A  B900000000        mov ecx,0x0
00002F2F  0B04DC            or eax,[esp+ebx*8]
00002F32  0000              add [eax],al
00002F34  0011              add [ecx],dl
00002F36  D400              aam 0x0
00002F38  0000              add [eax],al
00002F3A  013B              add [ebx],edi
00002F3C  D100              rol dword [eax],1
00002F3E  0000              add [eax],al
00002F40  0101              add [ecx],eax
00002F42  11EC              adc esp,ebp
00002F44  0000              add [eax],al
00002F46  0001              add [ecx],al
00002F48  3DD1000000        cmp eax,0xd1
00002F4D  0101              add [ecx],eax
00002F4F  0001              add [ecx],al
00002F51  1100              adc [eax],eax
00002F53  1006              adc [esi],al
00002F55  1101              adc [ecx],eax
00002F57  1201              adc al,[ecx]
00002F59  0308              add ecx,[eax]
00002F5B  1B08              sbb ecx,[eax]
00002F5D  2508130500        and eax,0x51308
00002F62  0000              add [eax],al
00002F64  0111              add [ecx],edx
00002F66  01250E130B03      add [0x30b130e],esp
00002F6C  0E                push cs
00002F6D  1B0E              sbb ecx,[esi]
00002F6F  1101              adc [ecx],eax
00002F71  1201              adc al,[ecx]
00002F73  1006              adc [esi],al
00002F75  0000              add [eax],al
00002F77  022400            add ah,[eax+eax]
00002F7A  0B0B              or ecx,[ebx]
00002F7C  3E0B03            or eax,[ds:ebx]
00002F7F  0E                push cs
00002F80  0000              add [eax],al
00002F82  032400            add esp,[eax+eax]
00002F85  0B0B              or ecx,[ebx]
00002F87  3E0B03            or eax,[ds:ebx]
00002F8A  0800              or [eax],al
00002F8C  000424            add [esp],al
00002F8F  000B              add [ebx],cl
00002F91  0B3E              or edi,[esi]
00002F93  0B00              or eax,[eax]
00002F95  00053400030E      add [0xe030034],al
00002F9B  3A0B              cmp cl,[ebx]
00002F9D  3B0B              cmp ecx,[ebx]
00002F9F  49                dec ecx
00002FA0  133F              adc edi,[edi]
00002FA2  0C02              or al,0x2
00002FA4  0A00              or al,[eax]
00002FA6  0006              add [esi],al
00002FA8  26004913          add [es:ecx+0x13],cl
00002FAC  0000              add [eax],al
00002FAE  0001              add [ecx],al
00002FB0  1101              adc [ecx],eax
00002FB2  250E130B03        and eax,0x30b130e
00002FB7  0E                push cs
00002FB8  1B0E              sbb ecx,[esi]
00002FBA  1101              adc [ecx],eax
00002FBC  1201              adc al,[ecx]
00002FBE  1006              adc [esi],al
00002FC0  0000              add [eax],al
00002FC2  022400            add ah,[eax+eax]
00002FC5  0B0B              or ecx,[ebx]
00002FC7  3E0B03            or eax,[ds:ebx]
00002FCA  0800              or [eax],al
00002FCC  0003              add [ebx],al
00002FCE  16                push ss
00002FCF  0003              add [ebx],al
00002FD1  0E                push cs
00002FD2  3A0B              cmp cl,[ebx]
00002FD4  3B0B              cmp ecx,[ebx]
00002FD6  49                dec ecx
00002FD7  1300              adc eax,[eax]
00002FD9  000424            add [esp],al
00002FDC  000B              add [ebx],cl
00002FDE  0B3E              or edi,[esi]
00002FE0  0B03              or eax,[ebx]
00002FE2  0E                push cs
00002FE3  0000              add [eax],al
00002FE5  052E003F0C        add eax,0xc3f002e
00002FEA  030E              add ecx,[esi]
00002FEC  3A0B              cmp cl,[ebx]
00002FEE  3B0B              cmp ecx,[ebx]
00002FF0  27                daa
00002FF1  0C11              or al,0x11
00002FF3  0112              add [edx],edx
00002FF5  014006            add [eax+0x6],eax
00002FF8  0000              add [eax],al
00002FFA  06                push es
00002FFB  2E013F            add [cs:edi],edi
00002FFE  0C03              or al,0x3
00003000  0E                push cs
00003001  3A0B              cmp cl,[ebx]
00003003  3B0B              cmp ecx,[ebx]
00003005  27                daa
00003006  0C11              or al,0x11
00003008  0112              add [edx],edx
0000300A  014006            add [eax+0x6],eax
0000300D  0113              add [ebx],edx
0000300F  0000              add [eax],al
00003011  07                pop es
00003012  0500030E3A        add eax,0x3a0e0300
00003017  0B3B              or edi,[ebx]
00003019  0B4913            or ecx,[ecx+0x13]
0000301C  020A              add cl,[edx]
0000301E  0000              add [eax],al
00003020  083400            or [eax+eax],dh
00003023  030E              add ecx,[esi]
00003025  3A0B              cmp cl,[ebx]
00003027  3B0B              cmp ecx,[ebx]
00003029  49                dec ecx
0000302A  1300              adc eax,[eax]
0000302C  0009              add [ecx],cl
0000302E  0B01              or eax,[ecx]
00003030  1101              adc [ecx],eax
00003032  1201              adc al,[ecx]
00003034  0000              add [eax],al
00003036  0A3400            or dh,[eax+eax]
00003039  0308              add ecx,[eax]
0000303B  3A0B              cmp cl,[ebx]
0000303D  3B0B              cmp ecx,[ebx]
0000303F  49                dec ecx
00003040  1302              adc eax,[edx]
00003042  06                push es
00003043  0000              add [eax],al
00003045  0B0F              or ecx,[edi]
00003047  000B              add [ebx],cl
00003049  0B4913            or ecx,[ecx+0x13]
0000304C  0000              add [eax],al
0000304E  0C26              or al,0x26
00003050  004913            add [ecx+0x13],cl
00003053  0000              add [eax],al
00003055  0D01014913        or eax,0x13490101
0000305A  0113              add [ebx],edx
0000305C  0000              add [eax],al
0000305E  0E                push cs
0000305F  2100              and [eax],eax
00003061  0000              add [eax],al
00003063  0F1501            unpckhps xmm0,[ecx]
00003066  27                daa
00003067  0C01              or al,0x1
00003069  1300              adc eax,[eax]
0000306B  0010              add [eax],dl
0000306D  0500491300        add eax,0x134900
00003072  0011              add [ecx],dl
00003074  3400              xor al,0x0
00003076  030E              add ecx,[esi]
00003078  3A0B              cmp cl,[ebx]
0000307A  3B0B              cmp ecx,[ebx]
0000307C  49                dec ecx
0000307D  133F              adc edi,[edi]
0000307F  0C3C              or al,0x3c
00003081  0C00              or al,0x0
00003083  0000              add [eax],al
00003085  57                push edi
00003086  0000              add [eax],al
00003088  0002              add [edx],al
0000308A  0032              add [edx],dh
0000308C  0000              add [eax],al
0000308E  0001              add [ecx],al
00003090  01FB              add ebx,edi
00003092  0E                push cs
00003093  0D00010101        or eax,0x1010100
00003098  0100              add [eax],eax
0000309A  0000              add [eax],al
0000309C  0100              add [eax],eax
0000309E  0001              add [ecx],al
000030A0  2E2E2F            cs das
000030A3  7379              jnc 0x311e
000030A5  7364              jnc 0x310b
000030A7  657073            gs jo 0x311d
000030AA  2F                das
000030AB  693338362F65      imul esi,[ebx],dword 0x652f3638
000030B1  6C                insb
000030B2  660000            o16 add [eax],al
000030B5  7374              jnc 0x312b
000030B7  61                popa
000030B8  7274              jc 0x312e
000030BA  2E53              cs push ebx
000030BC  0001              add [ecx],al
000030BE  0000              add [eax],al
000030C0  0000              add [eax],al
000030C2  0502A08804        add eax,0x488a002
000030C7  0803              or [ebx],al
000030C9  C00001            rol byte [eax],0x1
000030CC  3321              xor esp,[ecx]
000030CE  343D              xor al,0x3d
000030D0  2522031820        and eax,0x20180322
000030D5  59                pop ecx
000030D6  5A                pop edx
000030D7  2122              and [edx],esp
000030D9  5C                pop esp
000030DA  5B                pop ebx
000030DB  0201              add al,[ecx]
000030DD  0001              add [ecx],al
000030DF  0123              add [ebx],esp
000030E1  0000              add [eax],al
000030E3  0002              add [edx],al
000030E5  001D00000001      add [0x1000000],bl
000030EB  01FB              add ebx,edi
000030ED  0E                push cs
000030EE  0D00010101        or eax,0x1010100
000030F3  0100              add [eax],eax
000030F5  0000              add [eax],al
000030F7  0100              add [eax],eax
000030F9  0001              add [ecx],al
000030FB  00696E            add [ecx+0x6e],ch
000030FE  69742E6300000000  imul esi,[esi+ebp+0x63],dword 0x0
00003106  007B00            add [ebx+0x0],bh
00003109  0000              add [eax],al
0000310B  0200              add al,[eax]
0000310D  57                push edi
0000310E  0000              add [eax],al
00003110  0001              add [ecx],al
00003112  01FB              add ebx,edi
00003114  0E                push cs
00003115  0D00010101        or eax,0x1010100
0000311A  0100              add [eax],eax
0000311C  0000              add [eax],al
0000311E  0100              add [eax],eax
00003120  0001              add [ecx],al
00003122  2F                das
00003123  7573              jnz 0x3198
00003125  722F              jc 0x3156
00003127  6C                insb
00003128  69622F6763632F    imul esp,[edx+0x2f],dword 0x2f636367
0000312F  693438362D6C69    imul esi,[eax+edi],dword 0x696c2d36
00003136  6E                outsb
00003137  7578              jnz 0x31b1
00003139  2D676E752F        sub eax,0x2f756e67
0000313E  342E              xor al,0x2e
00003140  342E              xor al,0x2e
00003142  332F              xor ebp,[edi]
00003144  696E636C756465    imul ebp,[esi+0x63],dword 0x6564756c
0000314B  0000              add [eax],al
0000314D  656C              gs insb
0000314F  662D696E          sub ax,0x6e69
00003153  69742E6300000000  imul esi,[esi+ebp+0x63],dword 0x0
0000315B  7374              jnc 0x31d1
0000315D  646465662E680001  cs push word 0x100
00003165  0000              add [eax],al
00003167  0000              add [eax],al
00003169  0502109D04        add eax,0x49d1002
0000316E  0803              or [ebx],al
00003170  830101            add dword [ecx],byte +0x1
00003173  44                inc esp
00003174  035EC8            add ebx,[esi-0x38]
00003177  030E              add ecx,[esi]
00003179  083C5B            or [ebx+ebx*2],bh
0000317C  086708            or [edi+0x8],ah
0000317F  9D                popf
00003180  7602              jna 0x3184
00003182  0800              or [eax],al
00003184  0101              add [ecx],eax
00003186  0000              add [eax],al
00003188  1000              adc [eax],al
0000318A  0000              add [eax],al
0000318C  FF                db 0xFF
0000318D  FF                db 0xFF
0000318E  FF                db 0xFF
0000318F  FF01              inc dword [ecx]
00003191  0001              add [ecx],al
00003193  7C08              jl 0x319d
00003195  0C04              or al,0x4
00003197  0488              add al,0x88
00003199  0100              add [eax],eax
0000319B  001400            add [eax+eax],dl
0000319E  0000              add [eax],al
000031A0  0000              add [eax],al
000031A2  0000              add [eax],al
000031A4  109D04080500      adc [ebp+0x50804],bl
000031AA  0000              add [eax],al
000031AC  41                inc ecx
000031AD  0E                push cs
000031AE  084285            or [edx-0x7b],al
000031B1  020D051C0000      add cl,[0x1c05]
000031B7  0000              add [eax],al
000031B9  0000              add [eax],al
000031BB  0020              add [eax],ah
000031BD  9D                popf
000031BE  0408              add al,0x8
000031C0  5A                pop edx
000031C1  0000              add [eax],al
000031C3  00410E            add [ecx+0xe],al
000031C6  084285            or [edx-0x7b],al
000031C9  020D054E8305      add cl,[0x5834e05]
000031CF  860487            xchg al,[edi+eax*4]
000031D2  0300              add eax,[eax]
000031D4  7368              jnc 0x323e
000031D6  6F                outsd
000031D7  7274              jc 0x324d
000031D9  20756E            and [ebp+0x6e],dh
000031DC  7369              jnc 0x3247
000031DE  676E              a16 outsb
000031E0  656420696E        and [fs:ecx+0x6e],ch
000031E5  7400              jz 0x31e7
000031E7  7368              jnc 0x3251
000031E9  6F                outsd
000031EA  7274              jc 0x3260
000031EC  20696E            and [ecx+0x6e],ch
000031EF  7400              jz 0x31f1
000031F1  5F                pop edi
000031F2  49                dec ecx
000031F3  4F                dec edi
000031F4  5F                pop edi
000031F5  7374              jnc 0x326b
000031F7  64696E5F75736564  imul ebp,[fs:esi+0x5f],dword 0x64657375
000031FF  006C6F6E          add [edi+ebp*2+0x6e],ch
00003203  67206C6F          and [si+0x6f],ch
00003207  6E                outsb
00003208  6720756E          and [di+0x6e],dh
0000320C  7369              jnc 0x3277
0000320E  676E              a16 outsb
00003210  656420696E        and [fs:ecx+0x6e],ch
00003215  7400              jz 0x3217
00003217  2F                das
00003218  686F6D652F        push dword 0x2f656d6f
0000321D  7069              jo 0x3288
0000321F  657272            gs jc 0x3294
00003222  652F              gs das
00003224  42                inc edx
00003225  7572              jnz 0x3299
00003227  6561              gs popa
00003229  752F              jnz 0x325a
0000322B  6865616465        push dword 0x65646165
00003230  7273              jc 0x32a5
00003232  2D676C6962        sub eax,0x62696c67
00003237  632D666F722D      arpl [0x2d726f66],bp
0000323D  6C                insb
0000323E  696E75782F676C    imul ebp,[esi+0x75],dword 0x6c672f78
00003245  6962632D322E31    imul esp,[edx+0x63],dword 0x312e322d
0000324C  322E              xor ch,[esi]
0000324E  322F              xor ch,[edi]
00003250  637375            arpl [ebx+0x75],si
00003253  00756E            add [ebp+0x6e],dh
00003256  7369              jnc 0x32c1
00003258  676E              a16 outsb
0000325A  6564206368        and [fs:ebx+0x68],ah
0000325F  61                popa
00003260  7200              jc 0x3262
00003262  47                inc edi
00003263  4E                dec esi
00003264  55                push ebp
00003265  204320            and [ebx+0x20],al
00003268  342E              xor al,0x2e
0000326A  342E              xor al,0x2e
0000326C  3300              xor eax,[eax]
0000326E  6C                insb
0000326F  6F                outsd
00003270  6E                outsb
00003271  67206C6F          and [si+0x6f],ch
00003275  6E                outsb
00003276  6720696E          and [bx+di+0x6e],ch
0000327A  7400              jz 0x327c
0000327C  656E              gs outsb
0000327E  7670              jna 0x32f0
00003280  007369            add [ebx+0x69],dh
00003283  7A65              jpe 0x32ea
00003285  5F                pop edi
00003286  7400              jz 0x3288
00003288  61                popa
00003289  7267              jc 0x32f2
0000328B  6300              arpl [eax],ax
0000328D  5F                pop edi
0000328E  5F                pop edi
0000328F  6C                insb
00003290  6962635F637375    imul esp,[edx+0x63],dword 0x7573635f
00003297  5F                pop edi
00003298  696E697400656C    imul ebp,[esi+0x69],dword 0x6c650074
0000329F  662D696E          sub ax,0x6e69
000032A3  69742E63005F5F69  imul esi,[esi+ebp+0x63],dword 0x695f5f00
000032AB  6E                outsb
000032AC  69745F6172726179  imul esi,[edi+ebx*2+0x61],dword 0x79617272
000032B4  5F                pop edi
000032B5  7374              jnc 0x332b
000032B7  61                popa
000032B8  7274              jc 0x332e
000032BA  007369            add [ebx+0x69],dh
000032BD  7A65              jpe 0x3324
000032BF  005F5F            add [edi+0x5f],bl
000032C2  696E69745F6172    imul ebp,[esi+0x69],dword 0x72615f74
000032C9  7261              jc 0x332c
000032CB  795F              jns 0x332c
000032CD  656E              gs outsb
000032CF  64005F5F          add [fs:edi+0x5f],bl
000032D3  6C                insb
000032D4  6962635F637375    imul esp,[edx+0x63],dword 0x7573635f
000032DB  5F                pop edi
000032DC  66696E690061      imul bp,[esi+0x69],word 0x6100
000032E2  7267              jc 0x334b
000032E4  7600              jna 0x32e6
000032E6  0000              add [eax],al
000032E8  0000              add [eax],al
000032EA  0100              add [eax],eax
000032EC  0000              add [eax],al
000032EE  0200              add al,[eax]
000032F0  7404              jz 0x32f6
000032F2  0100              add [eax],eax
000032F4  0000              add [eax],al
000032F6  0300              add eax,[eax]
000032F8  0000              add [eax],al
000032FA  0200              add al,[eax]
000032FC  7408              jz 0x3306
000032FE  0300              add eax,[eax]
00003300  0000              add [eax],al
00003302  0500000002        add eax,0x2000000
00003307  007508            add [ebp+0x8],dh
0000330A  0000              add [eax],al
0000330C  0000              add [eax],al
0000330E  0000              add [eax],al
00003310  0000              add [eax],al
00003312  1000              adc [eax],al
00003314  0000              add [eax],al
00003316  1100              adc [eax],eax
00003318  0000              add [eax],al
0000331A  0200              add al,[eax]
0000331C  7404              jz 0x3322
0000331E  1100              adc [eax],eax
00003320  0000              add [eax],al
00003322  1300              adc eax,[eax]
00003324  0000              add [eax],al
00003326  0200              add al,[eax]
00003328  7408              jz 0x3332
0000332A  1300              adc eax,[eax]
0000332C  0000              add [eax],al
0000332E  6A00              push byte +0x0
00003330  0000              add [eax],al
00003332  0200              add al,[eax]
00003334  7508              jnz 0x333e
00003336  0000              add [eax],al
00003338  0000              add [eax],al
0000333A  0000              add [eax],al
0000333C  0000              add [eax],al
0000333E  40                inc eax
0000333F  0000              add [eax],al
00003341  006700            add [edi+0x0],ah
00003344  0000              add [eax],al
00003346  0100              add [eax],eax
00003348  56                push esi
00003349  0000              add [eax],al
0000334B  0000              add [eax],al
0000334D  0000              add [eax],al
0000334F  0000              add [eax],al
00003351  002E              add [esi],ch
00003353  7379              jnc 0x33ce
00003355  6D                insd
00003356  7461              jz 0x33b9
00003358  6200              bound eax,[eax]
0000335A  2E7374            cs jnc 0x33d1
0000335D  7274              jc 0x33d3
0000335F  61                popa
00003360  6200              bound eax,[eax]
00003362  2E7368            cs jnc 0x33cd
00003365  7374              jnc 0x33db
00003367  7274              jc 0x33dd
00003369  61                popa
0000336A  6200              bound eax,[eax]
0000336C  2E696E7465727000  imul ebp,[cs:esi+0x74],dword 0x707265
00003374  2E6E              cs outsb
00003376  6F                outsd
00003377  7465              jz 0x33de
00003379  2E41              cs inc ecx
0000337B  42                inc edx
0000337C  49                dec ecx
0000337D  2D74616700        sub eax,0x676174
00003382  2E6861736800      cs push dword 0x687361
00003388  2E64796E          fs jns 0x33fa
0000338C  7379              jnc 0x3407
0000338E  6D                insd
0000338F  002E              add [esi],ch
00003391  64796E            fs jns 0x3402
00003394  7374              jnc 0x340a
00003396  7200              jc 0x3398
00003398  2E676E            cs a16 outsb
0000339B  752E              jnz 0x33cb
0000339D  7665              jna 0x3404
0000339F  7273              jc 0x3414
000033A1  696F6E002E676E    imul ebp,[edi+0x6e],dword 0x6e672e00
000033A8  752E              jnz 0x33d8
000033AA  7665              jna 0x3411
000033AC  7273              jc 0x3421
000033AE  696F6E5F72002E    imul ebp,[edi+0x6e],dword 0x2e00725f
000033B5  7265              jc 0x341c
000033B7  6C                insb
000033B8  2E64796E          fs jns 0x342a
000033BC  002E              add [esi],ch
000033BE  7265              jc 0x3425
000033C0  6C                insb
000033C1  2E706C            cs jo 0x3430
000033C4  7400              jz 0x33c6
000033C6  2E696E6974002E74  imul ebp,[cs:esi+0x69],dword 0x742e0074
000033CE  657874            gs js 0x3445
000033D1  002E              add [esi],ch
000033D3  66696E69002E      imul bp,[esi+0x69],word 0x2e00
000033D9  726F              jc 0x344a
000033DB  6461              fs popa
000033DD  7461              jz 0x3440
000033DF  002E              add [esi],ch
000033E1  65685F667261      gs push dword 0x6172665f
000033E7  6D                insd
000033E8  655F              gs pop edi
000033EA  686472002E        push dword 0x2e007264
000033EF  65685F667261      gs push dword 0x6172665f
000033F5  6D                insd
000033F6  65002E            add [gs:esi],ch
000033F9  6763635F          arpl [bp+di+0x5f],sp
000033FD  657863            gs js 0x3463
00003400  657074            gs jo 0x3477
00003403  5F                pop edi
00003404  7461              jz 0x3467
00003406  626C6500          bound ebp,[ebp+0x0]
0000340A  2E63746F72        arpl [cs:edi+ebp*2+0x72],si
0000340F  7300              jnc 0x3411
00003411  2E64746F          fs jz 0x3484
00003415  7273              jc 0x348a
00003417  002E              add [esi],ch
00003419  6A63              push byte +0x63
0000341B  7200              jc 0x341d
0000341D  2E64796E          fs jns 0x348f
00003421  61                popa
00003422  6D                insd
00003423  6963002E676F74    imul esp,[ebx+0x0],dword 0x746f672e
0000342A  002E              add [esi],ch
0000342C  676F              a16 outsd
0000342E  742E              jz 0x345e
00003430  706C              jo 0x349e
00003432  7400              jz 0x3434
00003434  2E6461            fs popa
00003437  7461              jz 0x349a
00003439  002E              add [esi],ch
0000343B  627373            bound esi,[ebx+0x73]
0000343E  002E              add [esi],ch
00003440  636F6D            arpl [edi+0x6d],bp
00003443  6D                insd
00003444  656E              gs outsb
00003446  7400              jz 0x3448
00003448  2E6465627567      bound esi,[gs:ebp+0x67]
0000344E  5F                pop edi
0000344F  61                popa
00003450  7261              jc 0x34b3
00003452  6E                outsb
00003453  67657300          gs a16 jnc 0x3457
00003457  2E6465627567      bound esi,[gs:ebp+0x67]
0000345D  5F                pop edi
0000345E  7075              jo 0x34d5
00003460  626E61            bound ebp,[esi+0x61]
00003463  6D                insd
00003464  657300            gs jnc 0x3467
00003467  2E6465627567      bound esi,[gs:ebp+0x67]
0000346D  5F                pop edi
0000346E  696E666F002E64    imul ebp,[esi+0x66],dword 0x642e006f
00003475  65627567          bound esi,[gs:ebp+0x67]
00003479  5F                pop edi
0000347A  61                popa
0000347B  626272            bound esp,[edx+0x72]
0000347E  657600            gs jna 0x3481
00003481  2E6465627567      bound esi,[gs:ebp+0x67]
00003487  5F                pop edi
00003488  6C                insb
00003489  696E65002E6465    imul ebp,[esi+0x65],dword 0x65642e00
00003490  627567            bound esi,[ebp+0x67]
00003493  5F                pop edi
00003494  667261            o16 jc 0x34f8
00003497  6D                insd
00003498  65002E            add [gs:esi],ch
0000349B  6465627567        bound esi,[gs:ebp+0x67]
000034A0  5F                pop edi
000034A1  7374              jnc 0x3517
000034A3  7200              jc 0x34a5
000034A5  2E6465627567      bound esi,[gs:ebp+0x67]
000034AB  5F                pop edi
000034AC  6C                insb
000034AD  6F                outsd
000034AE  6300              arpl [eax],ax
000034B0  0000              add [eax],al
000034B2  0000              add [eax],al
000034B4  0000              add [eax],al
000034B6  0000              add [eax],al
000034B8  0000              add [eax],al
000034BA  0000              add [eax],al
000034BC  0000              add [eax],al
000034BE  0000              add [eax],al
000034C0  0000              add [eax],al
000034C2  0000              add [eax],al
000034C4  0000              add [eax],al
000034C6  0000              add [eax],al
000034C8  0000              add [eax],al
000034CA  0000              add [eax],al
000034CC  0000              add [eax],al
000034CE  0000              add [eax],al
000034D0  0000              add [eax],al
000034D2  0000              add [eax],al
000034D4  0000              add [eax],al
000034D6  0000              add [eax],al
000034D8  1B00              sbb eax,[eax]
000034DA  0000              add [eax],al
000034DC  0100              add [eax],eax
000034DE  0000              add [eax],al
000034E0  0200              add al,[eax]
000034E2  0000              add [eax],al
000034E4  3481              xor al,0x81
000034E6  0408              add al,0x8
000034E8  3401              xor al,0x1
000034EA  0000              add [eax],al
000034EC  1300              adc eax,[eax]
000034EE  0000              add [eax],al
000034F0  0000              add [eax],al
000034F2  0000              add [eax],al
000034F4  0000              add [eax],al
000034F6  0000              add [eax],al
000034F8  0100              add [eax],eax
000034FA  0000              add [eax],al
000034FC  0000              add [eax],al
000034FE  0000              add [eax],al
00003500  2300              and eax,[eax]
00003502  0000              add [eax],al
00003504  07                pop es
00003505  0000              add [eax],al
00003507  0002              add [edx],al
00003509  0000              add [eax],al
0000350B  004881            add [eax-0x7f],cl
0000350E  0408              add al,0x8
00003510  48                dec eax
00003511  0100              add [eax],eax
00003513  0020              add [eax],ah
00003515  0000              add [eax],al
00003517  0000              add [eax],al
00003519  0000              add [eax],al
0000351B  0000              add [eax],al
0000351D  0000              add [eax],al
0000351F  000400            add [eax+eax],al
00003522  0000              add [eax],al
00003524  0000              add [eax],al
00003526  0000              add [eax],al
00003528  3100              xor [eax],eax
0000352A  0000              add [eax],al
0000352C  0500000002        add eax,0x2000000
00003531  0000              add [eax],al
00003533  006881            add [eax-0x7f],ch
00003536  0408              add al,0x8
00003538  68010000B0        push dword 0xb0000001
0000353D  0000              add [eax],al
0000353F  000400            add [eax+eax],al
00003542  0000              add [eax],al
00003544  0000              add [eax],al
00003546  0000              add [eax],al
00003548  0400              add al,0x0
0000354A  0000              add [eax],al
0000354C  0400              add al,0x0
0000354E  0000              add [eax],al
00003550  37                aaa
00003551  0000              add [eax],al
00003553  000B              add [ebx],cl
00003555  0000              add [eax],al
00003557  0002              add [edx],al
00003559  0000              add [eax],al
0000355B  0018              add [eax],bl
0000355D  82                db 0x82
0000355E  0408              add al,0x8
00003560  1802              sbb [edx],al
00003562  0000              add [eax],al
00003564  90                nop
00003565  0100              add [eax],eax
00003567  000500000001      add [0x1000000],al
0000356D  0000              add [eax],al
0000356F  000400            add [eax+eax],al
00003572  0000              add [eax],al
00003574  1000              adc [eax],al
00003576  0000              add [eax],al
00003578  3F                aas
00003579  0000              add [eax],al
0000357B  0003              add [ebx],al
0000357D  0000              add [eax],al
0000357F  0002              add [edx],al
00003581  0000              add [eax],al
00003583  00A8830408A8      add [eax+0xa8080483],ch
00003589  0300              add eax,[eax]
0000358B  0039              add [ecx],bh
0000358D  0200              add al,[eax]
0000358F  0000              add [eax],al
00003591  0000              add [eax],al
00003593  0000              add [eax],al
00003595  0000              add [eax],al
00003597  0001              add [ecx],al
00003599  0000              add [eax],al
0000359B  0000              add [eax],al
0000359D  0000              add [eax],al
0000359F  004700            add [edi+0x0],al
000035A2  0000              add [eax],al
000035A4  FF                db 0xFF
000035A5  FF                db 0xFF
000035A6  FF6F02            jmp far [edi+0x2]
000035A9  0000              add [eax],al
000035AB  00E2              add dl,ah
000035AD  850408            test [eax+ecx],eax
000035B0  E205              loop 0x35b7
000035B2  0000              add [eax],al
000035B4  3200              xor al,[eax]
000035B6  0000              add [eax],al
000035B8  0400              add al,0x0
000035BA  0000              add [eax],al
000035BC  0000              add [eax],al
000035BE  0000              add [eax],al
000035C0  0200              add al,[eax]
000035C2  0000              add [eax],al
000035C4  0200              add al,[eax]
000035C6  0000              add [eax],al
000035C8  54                push esp
000035C9  0000              add [eax],al
000035CB  00FE              add dh,bh
000035CD  FF                db 0xFF
000035CE  FF6F02            jmp far [edi+0x2]
000035D1  0000              add [eax],al
000035D3  001486            add [esi+eax*4],dl
000035D6  0408              add al,0x8
000035D8  1406              adc al,0x6
000035DA  0000              add [eax],al
000035DC  800000            add byte [eax],0x0
000035DF  000500000003      add [0x3000000],al
000035E5  0000              add [eax],al
000035E7  000400            add [eax+eax],al
000035EA  0000              add [eax],al
000035EC  0000              add [eax],al
000035EE  0000              add [eax],al
000035F0  6300              arpl [eax],ax
000035F2  0000              add [eax],al
000035F4  0900              or [eax],eax
000035F6  0000              add [eax],al
000035F8  0200              add al,[eax]
000035FA  0000              add [eax],al
000035FC  94                xchg eax,esp
000035FD  860408            xchg al,[eax+ecx]
00003600  94                xchg eax,esp
00003601  06                push es
00003602  0000              add [eax],al
00003604  1800              sbb [eax],al
00003606  0000              add [eax],al
00003608  0400              add al,0x0
0000360A  0000              add [eax],al
0000360C  0000              add [eax],al
0000360E  0000              add [eax],al
00003610  0400              add al,0x0
00003612  0000              add [eax],al
00003614  0800              or [eax],al
00003616  0000              add [eax],al
00003618  6C                insb
00003619  0000              add [eax],al
0000361B  0009              add [ecx],cl
0000361D  0000              add [eax],al
0000361F  0002              add [edx],al
00003621  0000              add [eax],al
00003623  00AC860408AC06    add [esi+eax*4+0x6ac0804],ch
0000362A  0000              add [eax],al
0000362C  90                nop
0000362D  0000              add [eax],al
0000362F  000400            add [eax+eax],al
00003632  0000              add [eax],al
00003634  0B00              or eax,[eax]
00003636  0000              add [eax],al
00003638  0400              add al,0x0
0000363A  0000              add [eax],al
0000363C  0800              or [eax],al
0000363E  0000              add [eax],al
00003640  7500              jnz 0x3642
00003642  0000              add [eax],al
00003644  0100              add [eax],eax
00003646  0000              add [eax],al
00003648  06                push es
00003649  0000              add [eax],al
0000364B  003C87            add [edi+eax*4],bh
0000364E  0408              add al,0x8
00003650  3C07              cmp al,0x7
00003652  0000              add [eax],al
00003654  3000              xor [eax],al
00003656  0000              add [eax],al
00003658  0000              add [eax],al
0000365A  0000              add [eax],al
0000365C  0000              add [eax],al
0000365E  0000              add [eax],al
00003660  0400              add al,0x0
00003662  0000              add [eax],al
00003664  0000              add [eax],al
00003666  0000              add [eax],al
00003668  7000              jo 0x366a
0000366A  0000              add [eax],al
0000366C  0100              add [eax],eax
0000366E  0000              add [eax],al
00003670  06                push es
00003671  0000              add [eax],al
00003673  007087            add [eax-0x79],dh
00003676  0408              add al,0x8
00003678  7007              jo 0x3681
0000367A  0000              add [eax],al
0000367C  3001              xor [ecx],al
0000367E  0000              add [eax],al
00003680  0000              add [eax],al
00003682  0000              add [eax],al
00003684  0000              add [eax],al
00003686  0000              add [eax],al
00003688  1000              adc [eax],al
0000368A  0000              add [eax],al
0000368C  0400              add al,0x0
0000368E  0000              add [eax],al
00003690  7B00              jpo 0x3692
00003692  0000              add [eax],al
00003694  0100              add [eax],eax
00003696  0000              add [eax],al
00003698  06                push es
00003699  0000              add [eax],al
0000369B  00A0880408A0      add [eax+0xa0080488],ah
000036A1  0800              or [eax],al
000036A3  0008              add [eax],cl
000036A5  1500000000        adc eax,0x0
000036AA  0000              add [eax],al
000036AC  0000              add [eax],al
000036AE  0000              add [eax],al
000036B0  1000              adc [eax],al
000036B2  0000              add [eax],al
000036B4  0000              add [eax],al
000036B6  0000              add [eax],al
000036B8  810000000100      add dword [eax],0x10000
000036BE  0000              add [eax],al
000036C0  06                push es
000036C1  0000              add [eax],al
000036C3  00A89D0408A8      add [eax+0xa808049d],ch
000036C9  1D00001C00        sbb eax,0x1c0000
000036CE  0000              add [eax],al
000036D0  0000              add [eax],al
000036D2  0000              add [eax],al
000036D4  0000              add [eax],al
000036D6  0000              add [eax],al
000036D8  0400              add al,0x0
000036DA  0000              add [eax],al
000036DC  0000              add [eax],al
000036DE  0000              add [eax],al
000036E0  8700              xchg eax,[eax]
000036E2  0000              add [eax],al
000036E4  0100              add [eax],eax
000036E6  0000              add [eax],al
000036E8  0200              add al,[eax]
000036EA  0000              add [eax],al
000036EC  C49D0408C41D      les ebx,[ebp+0x1dc40804]
000036F2  0000              add [eax],al
000036F4  3F                aas
000036F5  0000              add [eax],al
000036F7  0000              add [eax],al
000036F9  0000              add [eax],al
000036FB  0000              add [eax],al
000036FD  0000              add [eax],al
000036FF  000400            add [eax+eax],al
00003702  0000              add [eax],al
00003704  0000              add [eax],al
00003706  0000              add [eax],al
00003708  8F00              pop dword [eax]
0000370A  0000              add [eax],al
0000370C  0100              add [eax],eax
0000370E  0000              add [eax],al
00003710  0200              add al,[eax]
00003712  0000              add [eax],al
00003714  049E              add al,0x9e
00003716  0408              add al,0x8
00003718  041E              add al,0x1e
0000371A  0000              add [eax],al
0000371C  640200            add al,[fs:eax]
0000371F  0000              add [eax],al
00003721  0000              add [eax],al
00003723  0000              add [eax],al
00003725  0000              add [eax],al
00003727  000400            add [eax+eax],al
0000372A  0000              add [eax],al
0000372C  0000              add [eax],al
0000372E  0000              add [eax],al
00003730  9D                popf
00003731  0000              add [eax],al
00003733  0001              add [ecx],al
00003735  0000              add [eax],al
00003737  0002              add [edx],al
00003739  0000              add [eax],al
0000373B  0068A0            add [eax-0x60],ch
0000373E  0408              add al,0x8
00003740  6820000004        push dword 0x4000020
00003745  0A00              or al,[eax]
00003747  0000              add [eax],al
00003749  0000              add [eax],al
0000374B  0000              add [eax],al
0000374D  0000              add [eax],al
0000374F  000400            add [eax+eax],al
00003752  0000              add [eax],al
00003754  0000              add [eax],al
00003756  0000              add [eax],al
00003758  A7                cmpsd
00003759  0000              add [eax],al
0000375B  0001              add [ecx],al
0000375D  0000              add [eax],al
0000375F  0002              add [edx],al
00003761  0000              add [eax],al
00003763  006CAA04          add [edx+ebp*4+0x4],ch
00003767  086C2A00          or [edx+ebp+0x0],ch
0000376B  009300000000      add [ebx+0x0],dl
00003771  0000              add [eax],al
00003773  0000              add [eax],al
00003775  0000              add [eax],al
00003777  0001              add [ecx],al
00003779  0000              add [eax],al
0000377B  0000              add [eax],al
0000377D  0000              add [eax],al
0000377F  00B900000001      add [ecx+0x1000000],bh
00003785  0000              add [eax],al
00003787  0003              add [ebx],al
00003789  0000              add [eax],al
0000378B  0000              add [eax],al
0000378D  BB0408002B        mov ebx,0x2b000804
00003792  0000              add [eax],al
00003794  0C00              or al,0x0
00003796  0000              add [eax],al
00003798  0000              add [eax],al
0000379A  0000              add [eax],al
0000379C  0000              add [eax],al
0000379E  0000              add [eax],al
000037A0  0400              add al,0x0
000037A2  0000              add [eax],al
000037A4  0000              add [eax],al
000037A6  0000              add [eax],al
000037A8  C00000            rol byte [eax],0x0
000037AB  0001              add [ecx],al
000037AD  0000              add [eax],al
000037AF  0003              add [ebx],al
000037B1  0000              add [eax],al
000037B3  000CBB            add [ebx+edi*4],cl
000037B6  0408              add al,0x8
000037B8  0C2B              or al,0x2b
000037BA  0000              add [eax],al
000037BC  0800              or [eax],al
000037BE  0000              add [eax],al
000037C0  0000              add [eax],al
000037C2  0000              add [eax],al
000037C4  0000              add [eax],al
000037C6  0000              add [eax],al
000037C8  0400              add al,0x0
000037CA  0000              add [eax],al
000037CC  0000              add [eax],al
000037CE  0000              add [eax],al
000037D0  C70000000100      mov dword [eax],0x10000
000037D6  0000              add [eax],al
000037D8  0300              add eax,[eax]
000037DA  0000              add [eax],al
000037DC  14BB              adc al,0xbb
000037DE  0408              add al,0x8
000037E0  142B              adc al,0x2b
000037E2  0000              add [eax],al
000037E4  0400              add al,0x0
000037E6  0000              add [eax],al
000037E8  0000              add [eax],al
000037EA  0000              add [eax],al
000037EC  0000              add [eax],al
000037EE  0000              add [eax],al
000037F0  0400              add al,0x0
000037F2  0000              add [eax],al
000037F4  0000              add [eax],al
000037F6  0000              add [eax],al
000037F8  CC                int3
000037F9  0000              add [eax],al
000037FB  0006              add [esi],al
000037FD  0000              add [eax],al
000037FF  0003              add [ebx],al
00003801  0000              add [eax],al
00003803  0018              add [eax],bl
00003805  BB0408182B        mov ebx,0x2b180804
0000380A  0000              add [eax],al
0000380C  E000              loopne 0x380e
0000380E  0000              add [eax],al
00003810  0500000000        add eax,0x0
00003815  0000              add [eax],al
00003817  000400            add [eax+eax],al
0000381A  0000              add [eax],al
0000381C  0800              or [eax],al
0000381E  0000              add [eax],al
00003820  D500              aad 0x0
00003822  0000              add [eax],al
00003824  0100              add [eax],eax
00003826  0000              add [eax],al
00003828  0300              add eax,[eax]
0000382A  0000              add [eax],al
0000382C  F8                clc
0000382D  BB0408F82B        mov ebx,0x2bf80804
00003832  0000              add [eax],al
00003834  0400              add al,0x0
00003836  0000              add [eax],al
00003838  0000              add [eax],al
0000383A  0000              add [eax],al
0000383C  0000              add [eax],al
0000383E  0000              add [eax],al
00003840  0400              add al,0x0
00003842  0000              add [eax],al
00003844  0400              add al,0x0
00003846  0000              add [eax],al
00003848  DA00              fiadd dword [eax]
0000384A  0000              add [eax],al
0000384C  0100              add [eax],eax
0000384E  0000              add [eax],al
00003850  0300              add eax,[eax]
00003852  0000              add [eax],al
00003854  FC                cld
00003855  BB0408FC2B        mov ebx,0x2bfc0804
0000385A  0000              add [eax],al
0000385C  54                push esp
0000385D  0000              add [eax],al
0000385F  0000              add [eax],al
00003861  0000              add [eax],al
00003863  0000              add [eax],al
00003865  0000              add [eax],al
00003867  000400            add [eax+eax],al
0000386A  0000              add [eax],al
0000386C  0400              add al,0x0
0000386E  0000              add [eax],al
00003870  E300              jecxz 0x3872
00003872  0000              add [eax],al
00003874  0100              add [eax],eax
00003876  0000              add [eax],al
00003878  0300              add eax,[eax]
0000387A  0000              add [eax],al
0000387C  50                push eax
0000387D  BC0408502C        mov esp,0x2c500804
00003882  0000              add [eax],al
00003884  0800              or [eax],al
00003886  0000              add [eax],al
00003888  0000              add [eax],al
0000388A  0000              add [eax],al
0000388C  0000              add [eax],al
0000388E  0000              add [eax],al
00003890  0400              add al,0x0
00003892  0000              add [eax],al
00003894  0000              add [eax],al
00003896  0000              add [eax],al
00003898  E900000008        jmp 0x800389d
0000389D  0000              add [eax],al
0000389F  0003              add [ebx],al
000038A1  0000              add [eax],al
000038A3  0060BC            add [eax-0x44],ah
000038A6  0408              add al,0x8
000038A8  58                pop eax
000038A9  2C00              sub al,0x0
000038AB  00B800000000      add [eax+0x0],bh
000038B1  0000              add [eax],al
000038B3  0000              add [eax],al
000038B5  0000              add [eax],al
000038B7  0020              add [eax],ah
000038B9  0000              add [eax],al
000038BB  0000              add [eax],al
000038BD  0000              add [eax],al
000038BF  00EE              add dh,ch
000038C1  0000              add [eax],al
000038C3  0001              add [ecx],al
000038C5  0000              add [eax],al
000038C7  0030              add [eax],dh
000038C9  0000              add [eax],al
000038CB  0000              add [eax],al
000038CD  0000              add [eax],al
000038CF  00582C            add [eax+0x2c],bl
000038D2  0000              add [eax],al
000038D4  3400              xor al,0x0
000038D6  0000              add [eax],al
000038D8  0000              add [eax],al
000038DA  0000              add [eax],al
000038DC  0000              add [eax],al
000038DE  0000              add [eax],al
000038E0  0100              add [eax],eax
000038E2  0000              add [eax],al
000038E4  0100              add [eax],eax
000038E6  0000              add [eax],al
000038E8  F70000000100      test dword [eax],0x10000
000038EE  0000              add [eax],al
000038F0  0000              add [eax],al
000038F2  0000              add [eax],al
000038F4  0000              add [eax],al
000038F6  0000              add [eax],al
000038F8  90                nop
000038F9  2C00              sub al,0x0
000038FB  004000            add [eax+0x0],al
000038FE  0000              add [eax],al
00003900  0000              add [eax],al
00003902  0000              add [eax],al
00003904  0000              add [eax],al
00003906  0000              add [eax],al
00003908  0800              or [eax],al
0000390A  0000              add [eax],al
0000390C  0000              add [eax],al
0000390E  0000              add [eax],al
00003910  06                push es
00003911  0100              add [eax],eax
00003913  0001              add [ecx],al
00003915  0000              add [eax],al
00003917  0000              add [eax],al
00003919  0000              add [eax],al
0000391B  0000              add [eax],al
0000391D  0000              add [eax],al
0000391F  00D0              add al,dl
00003921  2C00              sub al,0x0
00003923  005F00            add [edi+0x0],bl
00003926  0000              add [eax],al
00003928  0000              add [eax],al
0000392A  0000              add [eax],al
0000392C  0000              add [eax],al
0000392E  0000              add [eax],al
00003930  0100              add [eax],eax
00003932  0000              add [eax],al
00003934  0000              add [eax],al
00003936  0000              add [eax],al
00003938  16                push ss
00003939  0100              add [eax],eax
0000393B  0001              add [ecx],al
0000393D  0000              add [eax],al
0000393F  0000              add [eax],al
00003941  0000              add [eax],al
00003943  0000              add [eax],al
00003945  0000              add [eax],al
00003947  002F              add [edi],ch
00003949  2D00002102        sub eax,0x2210000
0000394E  0000              add [eax],al
00003950  0000              add [eax],al
00003952  0000              add [eax],al
00003954  0000              add [eax],al
00003956  0000              add [eax],al
00003958  0100              add [eax],eax
0000395A  0000              add [eax],al
0000395C  0000              add [eax],al
0000395E  0000              add [eax],al
00003960  2201              and al,[ecx]
00003962  0000              add [eax],al
00003964  0100              add [eax],eax
00003966  0000              add [eax],al
00003968  0000              add [eax],al
0000396A  0000              add [eax],al
0000396C  0000              add [eax],al
0000396E  0000              add [eax],al
00003970  50                push eax
00003971  2F                das
00003972  0000              add [eax],al
00003974  3501000000        xor eax,0x1
00003979  0000              add [eax],al
0000397B  0000              add [eax],al
0000397D  0000              add [eax],al
0000397F  0001              add [ecx],al
00003981  0000              add [eax],al
00003983  0000              add [eax],al
00003985  0000              add [eax],al
00003987  0030              add [eax],dh
00003989  0100              add [eax],eax
0000398B  0001              add [ecx],al
0000398D  0000              add [eax],al
0000398F  0000              add [eax],al
00003991  0000              add [eax],al
00003993  0000              add [eax],al
00003995  0000              add [eax],al
00003997  008530000001      add [ebp+0x1000030],al
0000399D  0100              add [eax],eax
0000399F  0000              add [eax],al
000039A1  0000              add [eax],al
000039A3  0000              add [eax],al
000039A5  0000              add [eax],al
000039A7  0001              add [ecx],al
000039A9  0000              add [eax],al
000039AB  0000              add [eax],al
000039AD  0000              add [eax],al
000039AF  003C01            add [ecx+eax],bh
000039B2  0000              add [eax],al
000039B4  0100              add [eax],eax
000039B6  0000              add [eax],al
000039B8  0000              add [eax],al
000039BA  0000              add [eax],al
000039BC  0000              add [eax],al
000039BE  0000              add [eax],al
000039C0  8831              mov [ecx],dh
000039C2  0000              add [eax],al
000039C4  4C                dec esp
000039C5  0000              add [eax],al
000039C7  0000              add [eax],al
000039C9  0000              add [eax],al
000039CB  0000              add [eax],al
000039CD  0000              add [eax],al
000039CF  000400            add [eax+eax],al
000039D2  0000              add [eax],al
000039D4  0000              add [eax],al
000039D6  0000              add [eax],al
000039D8  49                dec ecx
000039D9  0100              add [eax],eax
000039DB  0001              add [ecx],al
000039DD  0000              add [eax],al
000039DF  0030              add [eax],dh
000039E1  0000              add [eax],al
000039E3  0000              add [eax],al
000039E5  0000              add [eax],al
000039E7  00D4              add ah,dl
000039E9  3100              xor [eax],eax
000039EB  0012              add [edx],dl
000039ED  0100              add [eax],eax
000039EF  0000              add [eax],al
000039F1  0000              add [eax],al
000039F3  0000              add [eax],al
000039F5  0000              add [eax],al
000039F7  0001              add [ecx],al
000039F9  0000              add [eax],al
000039FB  0001              add [ecx],al
000039FD  0000              add [eax],al
000039FF  00540100          add [ecx+eax+0x0],dl
00003A03  0001              add [ecx],al
00003A05  0000              add [eax],al
00003A07  0000              add [eax],al
00003A09  0000              add [eax],al
00003A0B  0000              add [eax],al
00003A0D  0000              add [eax],al
00003A0F  00E6              add dh,ah
00003A11  3200              xor al,[eax]
00003A13  006B00            add [ebx+0x0],ch
00003A16  0000              add [eax],al
00003A18  0000              add [eax],al
00003A1A  0000              add [eax],al
00003A1C  0000              add [eax],al
00003A1E  0000              add [eax],al
00003A20  0100              add [eax],eax
00003A22  0000              add [eax],al
00003A24  0000              add [eax],al
00003A26  0000              add [eax],al
00003A28  1100              adc [eax],eax
00003A2A  0000              add [eax],al
00003A2C  0300              add eax,[eax]
00003A2E  0000              add [eax],al
00003A30  0000              add [eax],al
00003A32  0000              add [eax],al
00003A34  0000              add [eax],al
00003A36  0000              add [eax],al
00003A38  51                push ecx
00003A39  3300              xor eax,[eax]
00003A3B  005F01            add [edi+0x1],bl
00003A3E  0000              add [eax],al
00003A40  0000              add [eax],al
00003A42  0000              add [eax],al
00003A44  0000              add [eax],al
00003A46  0000              add [eax],al
00003A48  0100              add [eax],eax
00003A4A  0000              add [eax],al
00003A4C  0000              add [eax],al
00003A4E  0000              add [eax],al
00003A50  0100              add [eax],eax
00003A52  0000              add [eax],al
00003A54  0200              add al,[eax]
00003A56  0000              add [eax],al
00003A58  0000              add [eax],al
00003A5A  0000              add [eax],al
00003A5C  0000              add [eax],al
00003A5E  0000              add [eax],al
00003A60  A03A000030        mov al,[0x3000003a]
00003A65  0C00              or al,0x0
00003A67  00250000003F      add [0x3f000000],ah
00003A6D  0000              add [eax],al
00003A6F  000400            add [eax+eax],al
00003A72  0000              add [eax],al
00003A74  1000              adc [eax],al
00003A76  0000              add [eax],al
00003A78  0900              or [eax],eax
00003A7A  0000              add [eax],al
00003A7C  0300              add eax,[eax]
00003A7E  0000              add [eax],al
00003A80  0000              add [eax],al
00003A82  0000              add [eax],al
00003A84  0000              add [eax],al
00003A86  0000              add [eax],al
00003A88  D04600            rol byte [esi+0x0],1
00003A8B  009B1C000000      add [ebx+0x1c],bl
00003A91  0000              add [eax],al
00003A93  0000              add [eax],al
00003A95  0000              add [eax],al
00003A97  0001              add [ecx],al
00003A99  0000              add [eax],al
00003A9B  0000              add [eax],al
00003A9D  0000              add [eax],al
00003A9F  0000              add [eax],al
00003AA1  0000              add [eax],al
00003AA3  0000              add [eax],al
00003AA5  0000              add [eax],al
00003AA7  0000              add [eax],al
00003AA9  0000              add [eax],al
00003AAB  0000              add [eax],al
00003AAD  0000              add [eax],al
00003AAF  0000              add [eax],al
00003AB1  0000              add [eax],al
00003AB3  003481            add [ecx+eax*4],dh
00003AB6  0408              add al,0x8
00003AB8  0000              add [eax],al
00003ABA  0000              add [eax],al
00003ABC  0300              add eax,[eax]
00003ABE  0100              add [eax],eax
00003AC0  0000              add [eax],al
00003AC2  0000              add [eax],al
00003AC4  48                dec eax
00003AC5  81040800000000    add dword [eax+ecx],0x0
00003ACC  0300              add eax,[eax]
00003ACE  0200              add al,[eax]
00003AD0  0000              add [eax],al
00003AD2  0000              add [eax],al
00003AD4  6881040800        push dword 0x80481
00003AD9  0000              add [eax],al
00003ADB  0003              add [ebx],al
00003ADD  0003              add [ebx],al
00003ADF  0000              add [eax],al
00003AE1  0000              add [eax],al
00003AE3  0018              add [eax],bl
00003AE5  82                db 0x82
00003AE6  0408              add al,0x8
00003AE8  0000              add [eax],al
00003AEA  0000              add [eax],al
00003AEC  0300              add eax,[eax]
00003AEE  0400              add al,0x0
00003AF0  0000              add [eax],al
00003AF2  0000              add [eax],al
00003AF4  A883              test al,0x83
00003AF6  0408              add al,0x8
00003AF8  0000              add [eax],al
00003AFA  0000              add [eax],al
00003AFC  0300              add eax,[eax]
00003AFE  0500000000        add eax,0x0
00003B03  00E2              add dl,ah
00003B05  850408            test [eax+ecx],eax
00003B08  0000              add [eax],al
00003B0A  0000              add [eax],al
00003B0C  0300              add eax,[eax]
00003B0E  06                push es
00003B0F  0000              add [eax],al
00003B11  0000              add [eax],al
00003B13  001486            add [esi+eax*4],dl
00003B16  0408              add al,0x8
00003B18  0000              add [eax],al
00003B1A  0000              add [eax],al
00003B1C  0300              add eax,[eax]
00003B1E  07                pop es
00003B1F  0000              add [eax],al
00003B21  0000              add [eax],al
00003B23  00948604080000    add [esi+eax*4+0x804],dl
00003B2A  0000              add [eax],al
00003B2C  0300              add eax,[eax]
00003B2E  0800              or [eax],al
00003B30  0000              add [eax],al
00003B32  0000              add [eax],al
00003B34  AC                lodsb
00003B35  860408            xchg al,[eax+ecx]
00003B38  0000              add [eax],al
00003B3A  0000              add [eax],al
00003B3C  0300              add eax,[eax]
00003B3E  0900              or [eax],eax
00003B40  0000              add [eax],al
00003B42  0000              add [eax],al
00003B44  3C87              cmp al,0x87
00003B46  0408              add al,0x8
00003B48  0000              add [eax],al
00003B4A  0000              add [eax],al
00003B4C  0300              add eax,[eax]
00003B4E  0A00              or al,[eax]
00003B50  0000              add [eax],al
00003B52  0000              add [eax],al
00003B54  7087              jo 0x3add
00003B56  0408              add al,0x8
00003B58  0000              add [eax],al
00003B5A  0000              add [eax],al
00003B5C  0300              add eax,[eax]
00003B5E  0B00              or eax,[eax]
00003B60  0000              add [eax],al
00003B62  0000              add [eax],al
00003B64  A088040800        mov al,[0x80488]
00003B69  0000              add [eax],al
00003B6B  0003              add [ebx],al
00003B6D  000C00            add [eax+eax],cl
00003B70  0000              add [eax],al
00003B72  0000              add [eax],al
00003B74  A89D              test al,0x9d
00003B76  0408              add al,0x8
00003B78  0000              add [eax],al
00003B7A  0000              add [eax],al
00003B7C  0300              add eax,[eax]
00003B7E  0D00000000        or eax,0x0
00003B83  00C4              add ah,al
00003B85  9D                popf
00003B86  0408              add al,0x8
00003B88  0000              add [eax],al
00003B8A  0000              add [eax],al
00003B8C  0300              add eax,[eax]
00003B8E  0E                push cs
00003B8F  0000              add [eax],al
00003B91  0000              add [eax],al
00003B93  00049E            add [esi+ebx*4],al
00003B96  0408              add al,0x8
00003B98  0000              add [eax],al
00003B9A  0000              add [eax],al
00003B9C  0300              add eax,[eax]
00003B9E  0F0000            sldt [eax]
00003BA1  0000              add [eax],al
00003BA3  0068A0            add [eax-0x60],ch
00003BA6  0408              add al,0x8
00003BA8  0000              add [eax],al
00003BAA  0000              add [eax],al
00003BAC  0300              add eax,[eax]
00003BAE  1000              adc [eax],al
00003BB0  0000              add [eax],al
00003BB2  0000              add [eax],al
00003BB4  6C                insb
00003BB5  AA                stosb
00003BB6  0408              add al,0x8
00003BB8  0000              add [eax],al
00003BBA  0000              add [eax],al
00003BBC  0300              add eax,[eax]
00003BBE  1100              adc [eax],eax
00003BC0  0000              add [eax],al
00003BC2  0000              add [eax],al
00003BC4  00BB04080000      add [ebx+0x804],bh
00003BCA  0000              add [eax],al
00003BCC  0300              add eax,[eax]
00003BCE  1200              adc al,[eax]
00003BD0  0000              add [eax],al
00003BD2  0000              add [eax],al
00003BD4  0CBB              or al,0xbb
00003BD6  0408              add al,0x8
00003BD8  0000              add [eax],al
00003BDA  0000              add [eax],al
00003BDC  0300              add eax,[eax]
00003BDE  1300              adc eax,[eax]
00003BE0  0000              add [eax],al
00003BE2  0000              add [eax],al
00003BE4  14BB              adc al,0xbb
00003BE6  0408              add al,0x8
00003BE8  0000              add [eax],al
00003BEA  0000              add [eax],al
00003BEC  0300              add eax,[eax]
00003BEE  1400              adc al,0x0
00003BF0  0000              add [eax],al
00003BF2  0000              add [eax],al
00003BF4  18BB04080000      sbb [ebx+0x804],bh
00003BFA  0000              add [eax],al
00003BFC  0300              add eax,[eax]
00003BFE  1500000000        adc eax,0x0
00003C03  00F8              add al,bh
00003C05  BB04080000        mov ebx,0x804
00003C0A  0000              add [eax],al
00003C0C  0300              add eax,[eax]
00003C0E  16                push ss
00003C0F  0000              add [eax],al
00003C11  0000              add [eax],al
00003C13  00FC              add ah,bh
00003C15  BB04080000        mov ebx,0x804
00003C1A  0000              add [eax],al
00003C1C  0300              add eax,[eax]
00003C1E  17                pop ss
00003C1F  0000              add [eax],al
00003C21  0000              add [eax],al
00003C23  0050BC            add [eax-0x44],dl
00003C26  0408              add al,0x8
00003C28  0000              add [eax],al
00003C2A  0000              add [eax],al
00003C2C  0300              add eax,[eax]
00003C2E  1800              sbb [eax],al
00003C30  0000              add [eax],al
00003C32  0000              add [eax],al
00003C34  60                pusha
00003C35  BC04080000        mov esp,0x804
00003C3A  0000              add [eax],al
00003C3C  0300              add eax,[eax]
00003C3E  1900              sbb [eax],eax
00003C40  0000              add [eax],al
00003C42  0000              add [eax],al
00003C44  0000              add [eax],al
00003C46  0000              add [eax],al
00003C48  0000              add [eax],al
00003C4A  0000              add [eax],al
00003C4C  0300              add eax,[eax]
00003C4E  1A00              sbb al,[eax]
00003C50  0000              add [eax],al
00003C52  0000              add [eax],al
00003C54  0000              add [eax],al
00003C56  0000              add [eax],al
00003C58  0000              add [eax],al
00003C5A  0000              add [eax],al
00003C5C  0300              add eax,[eax]
00003C5E  1B00              sbb eax,[eax]
00003C60  0000              add [eax],al
00003C62  0000              add [eax],al
00003C64  0000              add [eax],al
00003C66  0000              add [eax],al
00003C68  0000              add [eax],al
00003C6A  0000              add [eax],al
00003C6C  0300              add eax,[eax]
00003C6E  1C00              sbb al,0x0
00003C70  0000              add [eax],al
00003C72  0000              add [eax],al
00003C74  0000              add [eax],al
00003C76  0000              add [eax],al
00003C78  0000              add [eax],al
00003C7A  0000              add [eax],al
00003C7C  0300              add eax,[eax]
00003C7E  1D00000000        sbb eax,0x0
00003C83  0000              add [eax],al
00003C85  0000              add [eax],al
00003C87  0000              add [eax],al
00003C89  0000              add [eax],al
00003C8B  0003              add [ebx],al
00003C8D  001E              add [esi],bl
00003C8F  0000              add [eax],al
00003C91  0000              add [eax],al
00003C93  0000              add [eax],al
00003C95  0000              add [eax],al
00003C97  0000              add [eax],al
00003C99  0000              add [eax],al
00003C9B  0003              add [ebx],al
00003C9D  001F              add [edi],bl
00003C9F  0000              add [eax],al
00003CA1  0000              add [eax],al
00003CA3  0000              add [eax],al
00003CA5  0000              add [eax],al
00003CA7  0000              add [eax],al
00003CA9  0000              add [eax],al
00003CAB  0003              add [ebx],al
00003CAD  0020              add [eax],ah
00003CAF  0000              add [eax],al
00003CB1  0000              add [eax],al
00003CB3  0000              add [eax],al
00003CB5  0000              add [eax],al
00003CB7  0000              add [eax],al
00003CB9  0000              add [eax],al
00003CBB  0003              add [ebx],al
00003CBD  0021              add [ecx],ah
00003CBF  0000              add [eax],al
00003CC1  0000              add [eax],al
00003CC3  0000              add [eax],al
00003CC5  0000              add [eax],al
00003CC7  0000              add [eax],al
00003CC9  0000              add [eax],al
00003CCB  0003              add [ebx],al
00003CCD  0022              add [edx],ah
00003CCF  0001              add [ecx],al
00003CD1  0000              add [eax],al
00003CD3  0000              add [eax],al
00003CD5  0000              add [eax],al
00003CD7  0000              add [eax],al
00003CD9  0000              add [eax],al
00003CDB  000400            add [eax+eax],al
00003CDE  F1                int1
00003CDF  FF08              dec dword [eax]
00003CE1  0000              add [eax],al
00003CE3  0000              add [eax],al
00003CE5  0000              add [eax],al
00003CE7  0000              add [eax],al
00003CE9  0000              add [eax],al
00003CEB  000400            add [eax+eax],al
00003CEE  F1                int1
00003CEF  FF13              call near [ebx]
00003CF1  0000              add [eax],al
00003CF3  0000              add [eax],al
00003CF5  0000              add [eax],al
00003CF7  0000              add [eax],al
00003CF9  0000              add [eax],al
00003CFB  000400            add [eax+eax],al
00003CFE  F1                int1
00003CFF  FF1E              call far [esi]
00003D01  0000              add [eax],al
00003D03  0000              add [eax],al
00003D05  BB04080000        mov ebx,0x804
00003D0A  0000              add [eax],al
00003D0C  0100              add [eax],eax
00003D0E  1200              adc al,[eax]
00003D10  2C00              sub al,0x0
00003D12  0000              add [eax],al
00003D14  0CBB              or al,0xbb
00003D16  0408              add al,0x8
00003D18  0000              add [eax],al
00003D1A  0000              add [eax],al
00003D1C  0100              add [eax],eax
00003D1E  1300              adc eax,[eax]
00003D20  3A00              cmp al,[eax]
00003D22  0000              add [eax],al
00003D24  14BB              adc al,0xbb
00003D26  0408              add al,0x8
00003D28  0000              add [eax],al
00003D2A  0000              add [eax],al
00003D2C  0100              add [eax],eax
00003D2E  1400              adc al,0x0
00003D30  47                inc edi
00003D31  0000              add [eax],al
00003D33  00D0              add al,dl
00003D35  880408            mov [eax+ecx],al
00003D38  0000              add [eax],al
00003D3A  0000              add [eax],al
00003D3C  0200              add al,[eax]
00003D3E  0C00              or al,0x0
00003D40  5C                pop esp
00003D41  0000              add [eax],al
00003D43  0000              add [eax],al
00003D45  890408            mov [eax+ecx],eax
00003D48  0000              add [eax],al
00003D4A  0000              add [eax],al
00003D4C  0200              add al,[eax]
00003D4E  0C00              or al,0x0
00003D50  6F                outsd
00003D51  0000              add [eax],al
00003D53  004089            add [eax-0x77],al
00003D56  0408              add al,0x8
00003D58  0000              add [eax],al
00003D5A  0000              add [eax],al
00003D5C  0200              add al,[eax]
00003D5E  0C00              or al,0x0
00003D60  8500              test [eax],eax
00003D62  0000              add [eax],al
00003D64  84BC0408010000    test [esp+eax+0x108],bh
00003D6B  0001              add [ecx],al
00003D6D  0019              add [ecx],bl
00003D6F  009400000088BC    add [eax+eax+0xbc880000],dl
00003D76  0408              add al,0x8
00003D78  0400              add al,0x0
00003D7A  0000              add [eax],al
00003D7C  0100              add [eax],eax
00003D7E  1900              sbb [eax],eax
00003D80  A200000090        mov [0x90000000],al
00003D85  890408            mov [eax+ecx],eax
00003D88  0000              add [eax],al
00003D8A  0000              add [eax],al
00003D8C  0200              add al,[eax]
00003D8E  0C00              or al,0x0
00003D90  1300              adc eax,[eax]
00003D92  0000              add [eax],al
00003D94  0000              add [eax],al
00003D96  0000              add [eax],al
00003D98  0000              add [eax],al
00003D9A  0000              add [eax],al
00003D9C  0400              add al,0x0
00003D9E  F1                int1
00003D9F  FFAE00000008      jmp far [esi+0x8000000]
00003DA5  BB04080000        mov ebx,0x804
00003DAA  0000              add [eax],al
00003DAC  0100              add [eax],eax
00003DAE  1200              adc al,[eax]
00003DB0  BB00000068        mov ebx,0x68000000
00003DB5  AA                stosb
00003DB6  0408              add al,0x8
00003DB8  0000              add [eax],al
00003DBA  0000              add [eax],al
00003DBC  0100              add [eax],eax
00003DBE  1000              adc [eax],al
00003DC0  C9                leave
00003DC1  0000              add [eax],al
00003DC3  0014BB            add [ebx+edi*4],dl
00003DC6  0408              add al,0x8
00003DC8  0000              add [eax],al
00003DCA  0000              add [eax],al
00003DCC  0100              add [eax],eax
00003DCE  1400              adc al,0x0
00003DD0  D500              aad 0x0
00003DD2  0000              add [eax],al
00003DD4  809D0408000000    sbb byte [ebp+0x804],0x0
00003DDB  0002              add [edx],al
00003DDD  000C00            add [eax+eax],cl
00003DE0  0800              or [eax],al
00003DE2  0000              add [eax],al
00003DE4  0000              add [eax],al
00003DE6  0000              add [eax],al
00003DE8  0000              add [eax],al
00003DEA  0000              add [eax],al
00003DEC  0400              add al,0x0
00003DEE  F1                int1
00003DEF  FF                db 0xFF
00003DF0  EB00              jmp short 0x3df2
00003DF2  0000              add [eax],al
00003DF4  0000              add [eax],al
00003DF6  0000              add [eax],al
00003DF8  0000              add [eax],al
00003DFA  0000              add [eax],al
00003DFC  0400              add al,0x0
00003DFE  F1                int1
00003DFF  FF06              inc dword [esi]
00003E01  0100              add [eax],eax
00003E03  0014BD04080100    add [edi*4+0x10804],dl
00003E0A  0000              add [eax],al
00003E0C  0100              add [eax],eax
00003E0E  1900              sbb [eax],eax
00003E10  15010000B5        adc eax,0xb5000001
00003E15  8C0408            mov [eax+ecx],es
00003E18  670000            add [bx+si],al
00003E1B  0002              add [edx],al
00003E1D  000C00            add [eax+eax],cl
00003E20  45                inc ebp
00003E21  0100              add [eax],eax
00003E23  001C8D04081C00    add [ecx*4+0x1c0804],bl
00003E2A  0000              add [eax],al
00003E2C  0200              add al,[eax]
00003E2E  0C00              or al,0x0
00003E30  56                push esi
00003E31  0100              add [eax],eax
00003E33  0000              add [eax],al
00003E35  0000              add [eax],al
00003E37  0000              add [eax],al
00003E39  0000              add [eax],al
00003E3B  000400            add [eax+eax],al
00003E3E  F1                int1
00003E3F  FF00              inc dword [eax]
00003E41  0000              add [eax],al
00003E43  0000              add [eax],al
00003E45  0000              add [eax],al
00003E47  0000              add [eax],al
00003E49  0000              add [eax],al
00003E4B  000400            add [eax+eax],al
00003E4E  F1                int1
00003E4F  FF6101            jmp near [ecx+0x1]
00003E52  0000              add [eax],al
00003E54  FC                cld
00003E55  BB04080000        mov ebx,0x804
00003E5A  0000              add [eax],al
00003E5C  0100              add [eax],eax
00003E5E  17                pop ss
00003E5F  007701            add [edi+0x1],dh
00003E62  0000              add [eax],al
00003E64  FF                db 0xFF
00003E65  BA04080000        mov edx,0x804
00003E6A  0000              add [eax],al
00003E6C  0000              add [eax],al
00003E6E  1200              adc al,[eax]
00003E70  8801              mov [ecx],al
00003E72  0000              add [eax],al
00003E74  FF                db 0xFF
00003E75  BA04080000        mov edx,0x804
00003E7A  0000              add [eax],al
00003E7C  0000              add [eax],al
00003E7E  1200              adc al,[eax]
00003E80  9B                wait
00003E81  0100              add [eax],eax
00003E83  0018              add [eax],bl
00003E85  BB04080000        mov ebx,0x804
00003E8A  0000              add [eax],al
00003E8C  0100              add [eax],eax
00003E8E  1500A40100        adc eax,0x1a400
00003E93  0050BC            add [eax-0x44],dl
00003E96  0408              add al,0x8
00003E98  0000              add [eax],al
00003E9A  0000              add [eax],al
00003E9C  2000              and [eax],al
00003E9E  1800              sbb [eax],al
00003EA0  AF                scasd
00003EA1  0100              add [eax],eax
00003EA3  00548D04          add [ebp+ecx*4+0x4],dl
00003EA7  0813              or [ebx],dl
00003EA9  0000              add [eax],al
00003EAB  0022              add [edx],ah
00003EAD  000C00            add [eax+eax],cl
00003EB0  DF01              fild word [ecx]
00003EB2  0000              add [eax],al
00003EB4  92                xchg eax,edx
00003EB5  8D0408            lea eax,[eax+ecx]
00003EB8  2200              and al,[eax]
00003EBA  0000              add [eax],al
00003EBC  2200              and al,[eax]
00003EBE  0C00              or al,0x0
00003EC0  0D02000038        or eax,0x38000002
00003EC5  99                cdq
00003EC6  0408              add al,0x8
00003EC8  0500000022        add eax,0x22000000
00003ECD  000C00            add [eax+eax],cl
00003ED0  4F                dec edi
00003ED1  0200              add al,[eax]
00003ED3  00849404080500    add [esp+edx*4+0x50804],al
00003EDA  0000              add [eax],al
00003EDC  2200              and al,[eax]
00003EDE  0C00              or al,0x0
00003EE0  91                xchg eax,ecx
00003EE1  0200              add al,[eax]
00003EE3  0000              add [eax],al
00003EE5  0000              add [eax],al
00003EE7  0000              add [eax],al
00003EE9  0000              add [eax],al
00003EEB  0012              add [edx],dl
00003EED  0000              add [eax],al
00003EEF  00AB02000010      add [ebx+0x10000002],ch
00003EF5  9D                popf
00003EF6  0408              add al,0x8
00003EF8  0500000012        add eax,0x12000000
00003EFD  000C00            add [eax+eax],cl
00003F00  BB020000A0        mov ebx,0xa0000002
00003F05  880408            mov [eax+ecx],al
00003F08  0000              add [eax],al
00003F0A  0000              add [eax],al
00003F0C  1200              adc al,[eax]
00003F0E  0C00              or al,0x0
00003F10  C20200            ret 0x2
00003F13  00AA93040894      add [edx+0x94080493],ch
00003F19  0000              add [eax],al
00003F1B  0022              add [edx],ah
00003F1D  000C00            add [eax+eax],cl
00003F20  3D03000084        cmp eax,0x84000003
00003F25  94                xchg eax,esp
00003F26  0408              add al,0x8
00003F28  0500000022        add eax,0x22000000
00003F2D  000C00            add [eax+eax],cl
00003F30  7F03              jg 0x3f35
00003F32  0000              add [eax],al
00003F34  6699              cwd
00003F36  0408              add al,0x8
00003F38  1300              adc eax,[eax]
00003F3A  0000              add [eax],al
00003F3C  2200              and al,[eax]
00003F3E  0C00              or al,0x0
00003F40  97                xchg eax,edi
00003F41  0300              add eax,[eax]
00003F43  004691            add [esi-0x6f],al
00003F46  0408              add al,0x8
00003F48  1A00              sbb al,[eax]
00003F4A  0000              add [eax],al
00003F4C  2200              and al,[eax]
00003F4E  0C00              or al,0x0
00003F50  B103              mov cl,0x3
00003F52  0000              add [eax],al
00003F54  60                pusha
00003F55  91                xchg eax,ecx
00003F56  0408              add al,0x8
00003F58  4C                dec esp
00003F59  0000              add [eax],al
00003F5B  0022              add [edx],ah
00003F5D  000C00            add [eax+eax],cl
00003F60  000400            add [eax+eax],al
00003F63  00EE              add dh,ch
00003F65  90                nop
00003F66  0408              add al,0x8
00003F68  2200              and al,[eax]
00003F6A  0000              add [eax],al
00003F6C  2200              and al,[eax]
00003F6E  0C00              or al,0x0
00003F70  3404              xor al,0x4
00003F72  0000              add [eax],al
00003F74  AC                lodsb
00003F75  91                xchg eax,ecx
00003F76  0408              add al,0x8
00003F78  50                push eax
00003F79  0000              add [eax],al
00003F7B  0022              add [edx],ah
00003F7D  000C00            add [eax+eax],cl
00003F80  92                xchg eax,edx
00003F81  0400              add al,0x0
00003F83  0032              add [edx],dh
00003F85  93                xchg eax,ebx
00003F86  0408              add al,0x8
00003F88  0D00000022        or eax,0x22000000
00003F8D  000C00            add [eax+eax],cl
00003F90  D30400            rol dword [eax+eax],cl
00003F93  0000              add [eax],al
00003F95  0000              add [eax],al
00003F97  0000              add [eax],al
00003F99  0000              add [eax],al
00003F9B  0020              add [eax],ah
00003F9D  0000              add [eax],al
00003F9F  00E2              add dl,ah
00003FA1  0400              add al,0x0
00003FA3  0000              add [eax],al
00003FA5  0000              add [eax],al
00003FA7  0000              add [eax],al
00003FA9  0000              add [eax],al
00003FAB  0020              add [eax],ah
00003FAD  0000              add [eax],al
00003FAF  00F6              add dh,dh
00003FB1  0400              add al,0x0
00003FB3  00C4              add ah,al
00003FB5  90                nop
00003FB6  0408              add al,0x8
00003FB8  2900              sub [eax],eax
00003FBA  0000              add [eax],al
00003FBC  2200              and al,[eax]
00003FBE  0C00              or al,0x0
00003FC0  30050000C49D      xor [0x9dc40000],al
00003FC6  0408              add al,0x8
00003FC8  0400              add al,0x0
00003FCA  0000              add [eax],al
00003FCC  1100              adc [eax],eax
00003FCE  0E                push cs
00003FCF  0037              add [edi],dh
00003FD1  0500003293        add eax,0x93320000
00003FD6  0408              add al,0x8
00003FD8  0D00000022        or eax,0x22000000
00003FDD  000C00            add [eax+eax],cl
00003FE0  7805              js 0x3fe7
00003FE2  0000              add [eax],al
00003FE4  0000              add [eax],al
00003FE6  0000              add [eax],al
00003FE8  0000              add [eax],al
00003FEA  0000              add [eax],al
00003FEC  1200              adc al,[eax]
00003FEE  0000              add [eax],al
00003FF0  8C0500003899      mov [0x99380000],es
00003FF6  0408              add al,0x8
00003FF8  0500000022        add eax,0x22000000
00003FFD  000C00            add [eax+eax],cl
00004000  CE                into
00004001  050000A89D        add eax,0x9da80000
00004006  0408              add al,0x8
00004008  0000              add [eax],al
0000400A  0000              add [eax],al
0000400C  1200              adc al,[eax]
0000400E  0D00D40500        or eax,0x5d400
00004013  002A              add [edx],ch
00004015  95                xchg eax,ebp
00004016  0408              add al,0x8
00004018  0800              or [eax],al
0000401A  0000              add [eax],al
0000401C  2200              and al,[eax]
0000401E  0C00              or al,0x0
00004020  FD                std
00004021  0500000000        add eax,0x0
00004026  0000              add [eax],al
00004028  0000              add [eax],al
0000402A  0000              add [eax],al
0000402C  1200              adc al,[eax]
0000402E  0000              add [eax],al
00004030  1006              adc [esi],al
00004032  0000              add [eax],al
00004034  329104081400      xor dl,[ecx+0x140804]
0000403A  0000              add [eax],al
0000403C  2200              and al,[eax]
0000403E  0C00              or al,0x0
00004040  40                inc eax
00004041  06                push es
00004042  0000              add [eax],al
00004044  0000              add [eax],al
00004046  0000              add [eax],al
00004048  0000              add [eax],al
0000404A  0000              add [eax],al
0000404C  1200              adc al,[eax]
0000404E  0000              add [eax],al
00004050  6506              gs push es
00004052  0000              add [eax],al
00004054  40                inc eax
00004055  8D0408            lea eax,[eax+ecx]
00004058  1300              adc eax,[eax]
0000405A  0000              add [eax],al
0000405C  2200              and al,[eax]
0000405E  0C00              or al,0x0
00004060  91                xchg eax,ecx
00004061  06                push es
00004062  0000              add [eax],al
00004064  7892              js 0x3ff8
00004066  0408              add al,0x8
00004068  0B00              or eax,[eax]
0000406A  0000              add [eax],al
0000406C  2200              and al,[eax]
0000406E  0C00              or al,0x0
00004070  E206              loop 0x4078
00004072  0000              add [eax],al
00004074  0F930408          setnc [eax+ecx]
00004078  2200              and al,[eax]
0000407A  0000              add [eax],al
0000407C  2200              and al,[eax]
0000407E  0C00              or al,0x0
00004080  44                inc esp
00004081  07                pop es
00004082  0000              add [eax],al
00004084  FE                db 0xFE
00004085  99                cdq
00004086  0408              add al,0x8
00004088  61                popa
00004089  0100              add [eax],eax
0000408B  0022              add [edx],ah
0000408D  000C00            add [eax+eax],cl
00004090  A5                movsd
00004091  07                pop es
00004092  0000              add [eax],al
00004094  0000              add [eax],al
00004096  0000              add [eax],al
00004098  0000              add [eax],al
0000409A  0000              add [eax],al
0000409C  1200              adc al,[eax]
0000409E  0000              add [eax],al
000040A0  E207              loop 0x40a9
000040A2  0000              add [eax],al
000040A4  0000              add [eax],al
000040A6  0000              add [eax],al
000040A8  0000              add [eax],al
000040AA  0000              add [eax],al
000040AC  1200              adc al,[eax]
000040AE  0000              add [eax],al
000040B0  FF07              inc dword [edi]
000040B2  0000              add [eax],al
000040B4  E69C              out 0x9c,al
000040B6  0408              add al,0x8
000040B8  0A00              or al,[eax]
000040BA  0000              add [eax],al
000040BC  2200              and al,[eax]
000040BE  0C00              or al,0x0
000040C0  49                dec ecx
000040C1  0800              or [eax],al
000040C3  008299040805      add [edx+0x5080499],al
000040C9  0000              add [eax],al
000040CB  0022              add [edx],ah
000040CD  000C00            add [eax+eax],cl
000040D0  81080000089C      or dword [eax],0x9c080000
000040D6  0408              add al,0x8
000040D8  1300              adc eax,[eax]
000040DA  0000              add [eax],al
000040DC  2200              and al,[eax]
000040DE  0C00              or al,0x0
000040E0  B80800009C        mov eax,0x9c000008
000040E5  9B                wait
000040E6  0408              add al,0x8
000040E8  6300              arpl [eax],ax
000040EA  0000              add [eax],al
000040EC  2200              and al,[eax]
000040EE  0C00              or al,0x0
000040F0  1009              adc [ecx],cl
000040F2  0000              add [eax],al
000040F4  009C0408080000    add [esp+eax+0x808],bl
000040FB  0022              add [edx],ah
000040FD  000C00            add [eax+eax],cl
00004100  6C                insb
00004101  0900              or [eax],eax
00004103  00949404080B00    add [esp+edx*4+0xb0804],dl
0000410A  0000              add [eax],al
0000410C  2200              and al,[eax]
0000410E  0C00              or al,0x0
00004110  CE                into
00004111  0900              or [eax],eax
00004113  00FA              add dl,bh
00004115  8E0408            mov es,[eax+ecx]
00004118  1300              adc eax,[eax]
0000411A  0000              add [eax],al
0000411C  2200              and al,[eax]
0000411E  0C00              or al,0x0
00004120  140A              adc al,0xa
00004122  0000              add [eax],al
00004124  F0870408          lock xchg eax,[eax+ecx]
00004128  0000              add [eax],al
0000412A  0000              add [eax],al
0000412C  1200              adc al,[eax]
0000412E  0000              add [eax],al
00004130  390A              cmp [edx],ecx
00004132  0000              add [eax],al
00004134  F09C              lock pushf
00004136  0408              add al,0x8
00004138  1300              adc eax,[eax]
0000413A  0000              add [eax],al
0000413C  2200              and al,[eax]
0000413E  0C00              or al,0x0
00004140  650A00            or al,[gs:eax]
00004143  007C9C04          add [esp+ebx*4+0x4],bh
00004147  082E              or [esi],ch
00004149  0000              add [eax],al
0000414B  0022              add [edx],ah
0000414D  000C00            add [eax+eax],cl
00004150  A4                movsb
00004151  0A00              or al,[eax]
00004153  0000              add [eax],al
00004155  0000              add [eax],al
00004157  0000              add [eax],al
00004159  0000              add [eax],al
0000415B  0020              add [eax],ah
0000415D  0000              add [eax],al
0000415F  00C0              add al,al
00004161  0A00              or al,[eax]
00004163  00C8              add al,cl
00004165  9D                popf
00004166  0408              add al,0x8
00004168  0400              add al,0x0
0000416A  0000              add [eax],al
0000416C  1100              adc [eax],eax
0000416E  0E                push cs
0000416F  00CF              add bh,cl
00004171  0A00              or al,[eax]
00004173  0038              add [eax],bh
00004175  8D0408            lea eax,[eax+ecx]
00004178  0800              or [eax],al
0000417A  0000              add [eax],al
0000417C  2200              and al,[eax]
0000417E  0C00              or al,0x0
00004180  D7                xlatb
00004181  0A00              or al,[eax]
00004183  000E              add [esi],cl
00004185  8F0408            pop dword [eax+ecx]
00004188  4B                dec ebx
00004189  0000              add [eax],al
0000418B  0022              add [edx],ah
0000418D  000C00            add [eax+eax],cl
00004190  1D0B0000D8        sbb eax,0xd800000b
00004195  99                cdq
00004196  0408              add al,0x8
00004198  0B00              or eax,[eax]
0000419A  0000              add [eax],al
0000419C  2200              and al,[eax]
0000419E  0C00              or al,0x0
000041A0  670B00            or eax,[bx+si]
000041A3  0000              add [eax],al
000041A5  0000              add [eax],al
000041A7  0000              add [eax],al
000041A9  0000              add [eax],al
000041AB  0012              add [edx],dl
000041AD  0000              add [eax],al
000041AF  00780B            add [eax+0xb],bh
000041B2  0000              add [eax],al
000041B4  0000              add [eax],al
000041B6  0000              add [eax],al
000041B8  0000              add [eax],al
000041BA  0000              add [eax],al
000041BC  2000              and [eax],al
000041BE  0000              add [eax],al
000041C0  92                xchg eax,edx
000041C1  0B00              or eax,[eax]
000041C3  0050BC            add [eax-0x44],dl
000041C6  0408              add al,0x8
000041C8  0000              add [eax],al
000041CA  0000              add [eax],al
000041CC  1000              adc [eax],al
000041CE  1800              sbb [eax],al
000041D0  9F                lahf
000041D1  0B00              or eax,[eax]
000041D3  005A8F            add [edx-0x71],bl
000041D6  0408              add al,0x8
000041D8  7600              jna 0x41da
000041DA  0000              add [eax],al
000041DC  2200              and al,[eax]
000041DE  0C00              or al,0x0
000041E0  E90B00001E        jmp 0x1e0041f0
000041E5  91                xchg eax,ecx
000041E6  0408              add al,0x8
000041E8  1400              adc al,0x0
000041EA  0000              add [eax],al
000041EC  2200              and al,[eax]
000041EE  0C00              or al,0x0
000041F0  010C00            add [eax+eax],ecx
000041F3  003E              add [esi],bh
000041F5  99                cdq
000041F6  0408              add al,0x8
000041F8  27                daa
000041F9  0000              add [eax],al
000041FB  0022              add [edx],ah
000041FD  000C00            add [eax+eax],cl
00004200  55                push ebp
00004201  0C00              or al,0x0
00004203  00E6              add dh,ah
00004205  8E0408            mov es,[eax+ecx]
00004208  1300              adc eax,[eax]
0000420A  0000              add [eax],al
0000420C  2200              and al,[eax]
0000420E  0C00              or al,0x0
00004210  B30C              mov bl,0xc
00004212  0000              add [eax],al
00004214  089C0408130000    or [esp+eax+0x1308],bl
0000421B  0022              add [edx],ah
0000421D  000C00            add [eax+eax],cl
00004220  EA0C0000AA9C04    jmp 0x49c:0xaa00000c
00004227  080500000022      or [0x22000000],al
0000422D  000C00            add [eax+eax],cl
00004230  190D00000E8F      sbb [0x8f0e0000],ecx
00004236  0408              add al,0x8
00004238  4B                dec ebx
00004239  0000              add [eax],al
0000423B  0022              add [edx],ah
0000423D  000C00            add [eax+eax],cl
00004240  5F                pop edi
00004241  0D00001C9C        or eax,0x9c1c0000
00004246  0408              add al,0x8
00004248  0500000022        add eax,0x22000000
0000424D  000C00            add [eax+eax],cl
00004250  8E0D00003E94      mov cs,[0x943e0000]
00004256  0408              add al,0x8
00004258  1300              adc eax,[eax]
0000425A  0000              add [eax],al
0000425C  2200              and al,[eax]
0000425E  0C00              or al,0x0
00004260  B90D0000B0        mov ecx,0xb000000d
00004265  9C                pushf
00004266  0408              add al,0x8
00004268  360000            add [ss:eax],al
0000426B  0022              add [edx],ah
0000426D  000C00            add [eax+eax],cl
00004270  050E0000B4        add eax,0xb400000e
00004275  8D0408            lea eax,[eax+ecx]
00004278  1400              adc al,0x0
0000427A  0000              add [eax],al
0000427C  2200              and al,[eax]
0000427E  0C00              or al,0x0
00004280  350E00008E        xor eax,0x8e00000e
00004285  93                xchg eax,ebx
00004286  0408              add al,0x8
00004288  0B00              or eax,[eax]
0000428A  0000              add [eax],al
0000428C  2200              and al,[eax]
0000428E  0C00              or al,0x0
00004290  830E00            or dword [esi],byte +0x0
00004293  00D0              add al,dl
00004295  8F0408            pop dword [eax+ecx]
00004298  D100              rol dword [eax],1
0000429A  0000              add [eax],al
0000429C  2200              and al,[eax]
0000429E  0C00              or al,0x0
000042A0  CF                iret
000042A1  0E                push cs
000042A2  0000              add [eax],al
000042A4  60                pusha
000042A5  92                xchg eax,edx
000042A6  0408              add al,0x8
000042A8  0B00              or eax,[eax]
000042AA  0000              add [eax],al
000042AC  2200              and al,[eax]
000042AE  0C00              or al,0x0
000042B0  1C0F              sbb al,0xf
000042B2  0000              add [eax],al
000042B4  A0BC040858        mov al,[0x580804bc]
000042B9  0000              add [eax],al
000042BB  0011              add [ecx],dl
000042BD  0019              add [ecx],bl
000042BF  001E              add [esi],bl
000042C1  0F0000            sldt [eax]
000042C4  FC                cld
000042C5  BC04081800        mov esp,0x180804
000042CA  0000              add [eax],al
000042CC  1100              adc [eax],eax
000042CE  1900              sbb [eax],eax
000042D0  210F              and [edi],ecx
000042D2  0000              add [eax],al
000042D4  899404080B0000    mov [esp+eax+0xb08],edx
000042DB  0022              add [edx],ah
000042DD  000C00            add [eax+eax],cl
000042E0  840F              test [edi],cl
000042E2  0000              add [eax],al
000042E4  58                pop eax
000042E5  BC04080000        mov esp,0x804
000042EA  0000              add [eax],al
000042EC  1102              adc [edx],eax
000042EE  1800              sbb [eax],al
000042F0  90                nop
000042F1  0F0000            sldt [eax]
000042F4  FD                std
000042F5  94                xchg eax,esp
000042F6  0408              add al,0x8
000042F8  2200              and al,[eax]
000042FA  0000              add [eax],al
000042FC  2200              and al,[eax]
000042FE  0C00              or al,0x0
00004300  F20F0000          repne sldt [eax]
00004304  0000              add [eax],al
00004306  0000              add [eax],al
00004308  0000              add [eax],al
0000430A  0000              add [eax],al
0000430C  1200              adc al,[eax]
0000430E  0000              add [eax],al
00004310  0510000054        add eax,0x54000010
00004315  BC04080000        mov esp,0x804
0000431A  0000              add [eax],al
0000431C  1102              adc [edx],eax
0000431E  1800              sbb [eax],al
00004320  1210              adc dl,[eax]
00004322  0000              add [eax],al
00004324  AA                stosb
00004325  9C                pushf
00004326  0408              add al,0x8
00004328  0500000022        add eax,0x22000000
0000432D  000C00            add [eax+eax],cl
00004330  41                inc ecx
00004331  1000              adc [eax],al
00004333  007E9B            add [esi-0x65],bh
00004336  0408              add al,0x8
00004338  1D00000022        sbb eax,0x22000000
0000433D  000C00            add [eax+eax],cl
00004340  6C                insb
00004341  1000              adc [eax],al
00004343  0010              add [eax],dl
00004345  BB04080000        mov ebx,0x804
0000434A  0000              add [eax],al
0000434C  1102              adc [edx],eax
0000434E  1300              adc eax,[eax]
00004350  7910              jns 0x4362
00004352  0000              add [eax],al
00004354  209D04085A00      and [ebp+0x5a0804],bl
0000435A  0000              add [eax],al
0000435C  1200              adc al,[eax]
0000435E  0C00              or al,0x0
00004360  8910              mov [eax],edx
00004362  0000              add [eax],al
00004364  0000              add [eax],al
00004366  0000              add [eax],al
00004368  0000              add [eax],al
0000436A  0000              add [eax],al
0000436C  1200              adc al,[eax]
0000436E  0000              add [eax],al
00004370  9B                wait
00004371  1000              adc [eax],al
00004373  00FC              add ah,bh
00004375  91                xchg eax,ecx
00004376  0408              add al,0x8
00004378  1300              adc eax,[eax]
0000437A  0000              add [eax],al
0000437C  2200              and al,[eax]
0000437E  0C00              or al,0x0
00004380  C6                db 0xC6
00004381  1000              adc [eax],al
00004383  001C9C            add [esp+ebx*4],bl
00004386  0408              add al,0x8
00004388  0500000022        add eax,0x22000000
0000438D  000C00            add [eax+eax],cl
00004390  F5                cmc
00004391  1000              adc [eax],al
00004393  00A09404085D      add [eax+0x5d080494],ah
00004399  0000              add [eax],al
0000439B  0022              add [edx],ah
0000439D  000C00            add [eax+eax],cl
000043A0  60                pusha
000043A1  1100              adc [eax],eax
000043A3  007999            add [ecx-0x67],bh
000043A6  0408              add al,0x8
000043A8  0800              or [eax],al
000043AA  0000              add [eax],al
000043AC  2200              and al,[eax]
000043AE  0C00              or al,0x0
000043B0  8711              xchg edx,[ecx]
000043B2  0000              add [eax],al
000043B4  0000              add [eax],al
000043B6  0000              add [eax],al
000043B8  0000              add [eax],al
000043BA  0000              add [eax],al
000043BC  1200              adc al,[eax]
000043BE  0000              add [eax],al
000043C0  9A110000FC9104    call 0x491:0xfc000011
000043C7  0813              or [ebx],dl
000043C9  0000              add [eax],al
000043CB  0022              add [edx],ah
000043CD  000C00            add [eax+eax],cl
000043D0  C511              lds edx,[ecx]
000043D2  0000              add [eax],al
000043D4  3E94              ds xchg eax,esp
000043D6  0408              add al,0x8
000043D8  1300              adc eax,[eax]
000043DA  0000              add [eax],al
000043DC  2200              and al,[eax]
000043DE  0C00              or al,0x0
000043E0  F01100            lock adc [eax],eax
000043E3  00408D            add [eax-0x73],al
000043E6  0408              add al,0x8
000043E8  1300              adc eax,[eax]
000043EA  0000              add [eax],al
000043EC  2200              and al,[eax]
000043EE  0C00              or al,0x0
000043F0  1C12              sbb al,0x12
000043F2  0000              add [eax],al
000043F4  F09C              lock pushf
000043F6  0408              add al,0x8
000043F8  1300              adc eax,[eax]
000043FA  0000              add [eax],al
000043FC  2200              and al,[eax]
000043FE  0C00              or al,0x0
00004400  48                dec eax
00004401  1200              adc al,[eax]
00004403  009A9304080F      add [edx+0xf080493],bl
00004409  0000              add [eax],al
0000440B  0022              add [edx],ah
0000440D  000C00            add [eax+eax],cl
00004410  94                xchg eax,esp
00004411  1200              adc al,[eax]
00004413  008899040822      add [eax+0x22080499],cl
00004419  0000              add [eax],al
0000441B  0022              add [edx],ah
0000441D  000C00            add [eax+eax],cl
00004420  FB                sti
00004421  1200              adc al,[eax]
00004423  0058BC            add [eax-0x44],bl
00004426  0408              add al,0x8
00004428  0000              add [eax],al
0000442A  0000              add [eax],al
0000442C  1000              adc [eax],al
0000442E  1900              sbb [eax],eax
00004430  07                pop es
00004431  1300              adc eax,[eax]
00004433  0000              add [eax],al
00004435  0000              add [eax],al
00004437  0000              add [eax],al
00004439  0000              add [eax],al
0000443B  0012              add [edx],dl
0000443D  0000              add [eax],al
0000443F  005613            add [esi+0x13],dl
00004442  0000              add [eax],al
00004444  329504083703      xor dl,[ebp+0x3370804]
0000444A  0000              add [eax],al
0000444C  2200              and al,[eax]
0000444E  0C00              or al,0x0
00004450  DC13              fcom qword [ebx]
00004452  0000              add [eax],al
00004454  369C              ss pushf
00004456  0408              add al,0x8
00004458  2200              and al,[eax]
0000445A  0000              add [eax],al
0000445C  2200              and al,[eax]
0000445E  0C00              or al,0x0
00004460  261400            es adc al,0x0
00004463  009C9204087300    add [edx+edx*4+0x730804],bl
0000446A  0000              add [eax],al
0000446C  2200              and al,[eax]
0000446E  0C00              or al,0x0
00004470  97                xchg eax,edi
00004471  1400              adc al,0x0
00004473  00909204080B      add [eax+0xb080492],dl
00004479  0000              add [eax],al
0000447B  0022              add [edx],ah
0000447D  000C00            add [eax+eax],cl
00004480  E914000010        jmp 0x10004499
00004485  92                xchg eax,edx
00004486  0408              add al,0x8
00004488  50                push eax
00004489  0000              add [eax],al
0000448B  0022              add [edx],ah
0000448D  000C00            add [eax+eax],cl
00004490  4C                dec esp
00004491  150000AA99        adc eax,0x99aa0000
00004496  0408              add al,0x8
00004498  0B00              or eax,[eax]
0000449A  0000              add [eax],al
0000449C  2200              and al,[eax]
0000449E  0C00              or al,0x0
000044A0  B015              mov al,0x15
000044A2  0000              add [eax],al
000044A4  60                pusha
000044A5  BC04080400        mov esp,0x40804
000044AA  0000              add [eax],al
000044AC  1100              adc [eax],eax
000044AE  1900              sbb [eax],eax
000044B0  C1150000A29004    rcl dword [0x90a20000],0x4
000044B7  0822              or [edx],ah
000044B9  0000              add [eax],al
000044BB  0022              add [edx],ah
000044BD  000C00            add [eax+eax],cl
000044C0  0916              or [esi],edx
000044C2  0000              add [eax],al
000044C4  6A98              push byte -0x68
000044C6  0408              add al,0x8
000044C8  CE                into
000044C9  0000              add [eax],al
000044CB  0022              add [edx],ah
000044CD  000C00            add [eax+eax],cl
000044D0  7716              ja 0x44e8
000044D2  0000              add [eax],al
000044D4  E499              in al,0x99
000044D6  0408              add al,0x8
000044D8  1A00              sbb al,[eax]
000044DA  0000              add [eax],al
000044DC  2200              and al,[eax]
000044DE  0C00              or al,0x0
000044E0  A9160000C8        test eax,0xc8000016
000044E5  8D0408            lea eax,[eax+ecx]
000044E8  1E                push ds
000044E9  0100              add [eax],eax
000044EB  0022              add [edx],ah
000044ED  000C00            add [eax+eax],cl
000044F0  D816              fcom dword [esi]
000044F2  0000              add [eax],al
000044F4  F8                clc
000044F5  BC04080400        mov esp,0x40804
000044FA  0000              add [eax],al
000044FC  1100              adc [eax],eax
000044FE  1900              sbb [eax],eax
00004500  DA16              ficom dword [esi]
00004502  0000              add [eax],al
00004504  AC                lodsb
00004505  91                xchg eax,ecx
00004506  0408              add al,0x8
00004508  50                push eax
00004509  0000              add [eax],al
0000450B  0022              add [edx],ah
0000450D  000C00            add [eax+eax],cl
00004510  3817              cmp [edi],dl
00004512  0000              add [eax],al
00004514  E499              in al,0x99
00004516  0408              add al,0x8
00004518  1A00              sbb al,[eax]
0000451A  0000              add [eax],al
0000451C  2200              and al,[eax]
0000451E  0C00              or al,0x0
00004520  6A17              push byte +0x17
00004522  0000              add [eax],al
00004524  849204080B00      test [edx+0xb0804],dl
0000452A  0000              add [eax],al
0000452C  2200              and al,[eax]
0000452E  0C00              or al,0x0
00004530  B617              mov dh,0x17
00004532  0000              add [eax],al
00004534  18BD04080000      sbb [ebp+0x804],bh
0000453A  0000              add [eax],al
0000453C  1000              adc [eax],al
0000453E  1900              sbb [eax],eax
00004540  BB17000080        mov ebx,0x80000017
00004545  BC04080400        mov esp,0x40804
0000454A  0000              add [eax],al
0000454C  1100              adc [eax],eax
0000454E  1900              sbb [eax],eax
00004550  CD17              int 0x17
00004552  0000              add [eax],al
00004554  60                pusha
00004555  9B                wait
00004556  0408              add al,0x8
00004558  1D00000022        sbb eax,0x22000000
0000455D  000C00            add [eax+eax],cl
00004560  F8                clc
00004561  17                pop ss
00004562  0000              add [eax],al
00004564  0000              add [eax],al
00004566  0000              add [eax],al
00004568  0000              add [eax],al
0000456A  0000              add [eax],al
0000456C  1200              adc al,[eax]
0000456E  0000              add [eax],al
00004570  0818              or [eax],bl
00004572  0000              add [eax],al
00004574  E68E              out 0x8e,al
00004576  0408              add al,0x8
00004578  1300              adc eax,[eax]
0000457A  0000              add [eax],al
0000457C  2200              and al,[eax]
0000457E  0C00              or al,0x0
00004580  661800            o16 sbb [eax],al
00004583  006699            add [esi-0x67],ah
00004586  0408              add al,0x8
00004588  1300              adc eax,[eax]
0000458A  0000              add [eax],al
0000458C  2200              and al,[eax]
0000458E  0C00              or al,0x0
00004590  7E18              jng 0x45aa
00004592  0000              add [eax],al
00004594  B699              mov dh,0x99
00004596  0408              add al,0x8
00004598  2100              and [eax],eax
0000459A  0000              add [eax],al
0000459C  2200              and al,[eax]
0000459E  0C00              or al,0x0
000045A0  BD18000000        mov ebp,0x18
000045A5  0000              add [eax],al
000045A7  0000              add [eax],al
000045A9  0000              add [eax],al
000045AB  0012              add [edx],dl
000045AD  0000              add [eax],al
000045AF  00FA              add dl,bh
000045B1  1800              sbb [eax],al
000045B3  0000              add [eax],al
000045B5  0000              add [eax],al
000045B7  0000              add [eax],al
000045B9  0000              add [eax],al
000045BB  0012              add [edx],dl
000045BD  0000              add [eax],al
000045BF  0020              add [eax],ah
000045C1  1900              sbb [eax],eax
000045C3  006C9204          add [edx+edx*4+0x4],ch
000045C7  080B              or [ebx],cl
000045C9  0000              add [eax],al
000045CB  0022              add [edx],ah
000045CD  000C00            add [eax+eax],cl
000045D0  6B1900            imul ebx,[ecx],byte +0x0
000045D3  0010              add [eax],dl
000045D5  91                xchg eax,ecx
000045D6  0408              add al,0x8
000045D8  0D00000022        or eax,0x22000000
000045DD  000C00            add [eax+eax],cl
000045E0  97                xchg eax,edi
000045E1  1900              sbb [eax],eax
000045E3  005294            add [edx-0x6c],dl
000045E6  0408              add al,0x8
000045E8  3100              xor [eax],eax
000045EA  0000              add [eax],al
000045EC  2200              and al,[eax]
000045EE  0C00              or al,0x0
000045F0  021A              add bl,[edx]
000045F2  0000              add [eax],al
000045F4  229C0408130000    and bl,[esp+eax+0x1308]
000045FB  0022              add [edx],ah
000045FD  000C00            add [eax+eax],cl
00004600  52                push edx
00004601  1A00              sbb al,[eax]
00004603  004691            add [esi-0x6f],al
00004606  0408              add al,0x8
00004608  1A00              sbb al,[eax]
0000460A  0000              add [eax],al
0000460C  2200              and al,[eax]
0000460E  0C00              or al,0x0
00004610  6C                insb
00004611  1A00              sbb al,[eax]
00004613  00688D            add [eax-0x73],ch
00004616  0408              add al,0x8
00004618  2900              sub [eax],eax
0000461A  0000              add [eax],al
0000461C  2200              and al,[eax]
0000461E  0C00              or al,0x0
00004620  9E                sahf
00004621  1A00              sbb al,[eax]
00004623  001F              add [edi],bl
00004625  95                xchg eax,ebp
00004626  0408              add al,0x8
00004628  0B00              or eax,[eax]
0000462A  0000              add [eax],al
0000462C  2200              and al,[eax]
0000462E  0C00              or al,0x0
00004630  021B              add bl,[ebx]
00004632  0000              add [eax],al
00004634  58                pop eax
00004635  BC04080000        mov esp,0x804
0000463A  0000              add [eax],al
0000463C  1000              adc [eax],al
0000463E  1800              sbb [eax],al
00004640  091B              or [ebx],ebx
00004642  0000              add [eax],al
00004644  80880408000000    or byte [eax+0x804],0x0
0000464B  0012              add [edx],dl
0000464D  0000              add [eax],al
0000464F  002A              add [edx],ch
00004651  1B00              sbb eax,[eax]
00004653  00589C            add [eax-0x64],bl
00004656  0408              add al,0x8
00004658  2300              and eax,[eax]
0000465A  0000              add [eax],al
0000465C  2200              and al,[eax]
0000465E  0C00              or al,0x0
00004660  7B1B              jpo 0x467d
00004662  0000              add [eax],al
00004664  40                inc eax
00004665  93                xchg eax,ebx
00004666  0408              add al,0x8
00004668  4D                dec ebp
00004669  0000              add [eax],al
0000466B  0022              add [edx],ah
0000466D  000C00            add [eax+eax],cl
00004670  CF                iret
00004671  1B00              sbb eax,[eax]
00004673  0000              add [eax],al
00004675  0000              add [eax],al
00004677  0000              add [eax],al
00004679  0000              add [eax],al
0000467B  0012              add [edx],dl
0000467D  0000              add [eax],al
0000467F  00E7              add bh,ah
00004681  1B00              sbb eax,[eax]
00004683  00FA              add dl,bh
00004685  8E0408            mov es,[eax+ecx]
00004688  1300              adc eax,[eax]
0000468A  0000              add [eax],al
0000468C  2200              and al,[eax]
0000468E  0C00              or al,0x0
00004690  2D1C00009A        sub eax,0x9a00001c
00004695  93                xchg eax,ebx
00004696  0408              add al,0x8
00004698  0F0000            sldt [eax]
0000469B  0022              add [edx],ah
0000469D  000C00            add [eax+eax],cl
000046A0  791C              jns 0x46be
000046A2  0000              add [eax],al
000046A4  7A9D              jpe 0x4643
000046A6  0408              add al,0x8
000046A8  0000              add [eax],al
000046AA  0000              add [eax],al
000046AC  1202              adc al,[edx]
000046AE  0C00              or al,0x0
000046B0  90                nop
000046B1  1C00              sbb al,0x0
000046B3  00C0              add al,al
000046B5  890408            mov [eax+ecx],eax
000046B8  F5                cmc
000046B9  0200              add al,[eax]
000046BB  0012              add [edx],dl
000046BD  000C00            add [eax+eax],cl
000046C0  95                xchg eax,ebp
000046C1  1C00              sbb al,0x0
000046C3  003C87            add [edi+eax*4],bh
000046C6  0408              add al,0x8
000046C8  0000              add [eax],al
000046CA  0000              add [eax],al
000046CC  1200              adc al,[eax]
000046CE  0A00              or al,[eax]
000046D0  00696E            add [ecx+0x6e],ch
000046D3  69742E6300696E69  imul esi,[esi+ebp+0x63],dword 0x696e6900
000046DB  7466              jz 0x4743
000046DD  696E692E630063    imul ebp,[esi+0x69],dword 0x6300632e
000046E4  7274              jc 0x475a
000046E6  7374              jnc 0x475c
000046E8  7566              jnz 0x4750
000046EA  662E6300          o16 arpl [cs:eax],ax
000046EE  5F                pop edi
000046EF  5F                pop edi
000046F0  43                inc ebx
000046F1  54                push esp
000046F2  4F                dec edi
000046F3  52                push edx
000046F4  5F                pop edi
000046F5  4C                dec esp
000046F6  49                dec ecx
000046F7  53                push ebx
000046F8  54                push esp
000046F9  5F                pop edi
000046FA  5F                pop edi
000046FB  005F5F            add [edi+0x5f],bl
000046FE  44                inc esp
000046FF  54                push esp
00004700  4F                dec edi
00004701  52                push edx
00004702  5F                pop edi
00004703  4C                dec esp
00004704  49                dec ecx
00004705  53                push ebx
00004706  54                push esp
00004707  5F                pop edi
00004708  5F                pop edi
00004709  005F5F            add [edi+0x5f],bl
0000470C  4A                dec edx
0000470D  43                inc ebx
0000470E  52                push edx
0000470F  5F                pop edi
00004710  4C                dec esp
00004711  49                dec ecx
00004712  53                push ebx
00004713  54                push esp
00004714  5F                pop edi
00004715  5F                pop edi
00004716  00646572          add [ebp+0x72],ah
0000471A  656769737465725F  imul esi,[gs:bp+di+0x74],dword 0x745f7265
         -74
00004723  6D                insd
00004724  5F                pop edi
00004725  636C6F6E          arpl [edi+ebp*2+0x6e],bp
00004729  657300            gs jnc 0x472c
0000472C  7265              jc 0x4793
0000472E  6769737465725F74  imul esi,[bp+di+0x74],dword 0x745f7265
00004736  6D                insd
00004737  5F                pop edi
00004738  636C6F6E          arpl [edi+ebp*2+0x6e],bp
0000473C  657300            gs jnc 0x473f
0000473F  5F                pop edi
00004740  5F                pop edi
00004741  646F              fs outsd
00004743  5F                pop edi
00004744  676C              a16 insb
00004746  6F                outsd
00004747  62616C            bound esp,[ecx+0x6c]
0000474A  5F                pop edi
0000474B  64746F            fs jz 0x47bd
0000474E  7273              jc 0x47c3
00004750  5F                pop edi
00004751  61                popa
00004752  7578              jnz 0x47cc
00004754  00636F            add [ebx+0x6f],ah
00004757  6D                insd
00004758  706C              jo 0x47c6
0000475A  657465            gs jz 0x47c2
0000475D  642E3333          xor esi,[cs:ebx]
00004761  3238              xor bh,[eax]
00004763  0064746F          add [esp+esi*2+0x6f],ah
00004767  725F              jc 0x47c8
00004769  6964782E33333330  imul esp,[eax+edi*2+0x2e],dword 0x30333333
00004771  006672            add [esi+0x72],ah
00004774  61                popa
00004775  6D                insd
00004776  655F              gs pop edi
00004778  64756D            fs jnz 0x47e8
0000477B  6D                insd
0000477C  7900              jns 0x477e
0000477E  5F                pop edi
0000477F  5F                pop edi
00004780  43                inc ebx
00004781  54                push esp
00004782  4F                dec edi
00004783  52                push edx
00004784  5F                pop edi
00004785  45                inc ebp
00004786  4E                dec esi
00004787  44                inc esp
00004788  5F                pop edi
00004789  5F                pop edi
0000478A  005F5F            add [edi+0x5f],bl
0000478D  46                inc esi
0000478E  52                push edx
0000478F  41                inc ecx
00004790  4D                dec ebp
00004791  45                inc ebp
00004792  5F                pop edi
00004793  45                inc ebp
00004794  4E                dec esi
00004795  44                inc esp
00004796  5F                pop edi
00004797  5F                pop edi
00004798  005F5F            add [edi+0x5f],bl
0000479B  4A                dec edx
0000479C  43                inc ebx
0000479D  52                push edx
0000479E  5F                pop edi
0000479F  45                inc ebp
000047A0  4E                dec esi
000047A1  44                inc esp
000047A2  5F                pop edi
000047A3  5F                pop edi
000047A4  005F5F            add [edi+0x5f],bl
000047A7  646F              fs outsd
000047A9  5F                pop edi
000047AA  676C              a16 insb
000047AC  6F                outsd
000047AD  62616C            bound esp,[ecx+0x6c]
000047B0  5F                pop edi
000047B1  63746F72          arpl [edi+ebp*2+0x72],si
000047B5  735F              jnc 0x4816
000047B7  61                popa
000047B8  7578              jnz 0x4832
000047BA  0031              add [ecx],dh
000047BC  3833              cmp [ebx],dh
000047BE  363438            ss xor al,0x38
000047C1  365F              ss pop edi
000047C3  313438            xor [eax+edi],esi
000047C6  3434              xor al,0x34
000047C8  3936              cmp [esi],esi
000047CA  5F                pop edi
000047CB  7472              jz 0x483f
000047CD  65657274          gs jc 0x4845
000047D1  2E637070          arpl [cs:eax+0x70],si
000047D5  005F5A            add [edi+0x5a],bl
000047D8  53                push ebx
000047D9  744C              jz 0x4827
000047DB  385F5F            cmp [edi+0x5f],bl
000047DE  696F696E697400    imul ebp,[edi+0x69],dword 0x74696e
000047E5  5F                pop edi
000047E6  5A                pop edx
000047E7  3431              xor al,0x31
000047E9  5F                pop edi
000047EA  5F                pop edi
000047EB  7374              jnc 0x4861
000047ED  61                popa
000047EE  7469              jz 0x4859
000047F0  635F69            arpl [edi+0x69],bx
000047F3  6E                outsb
000047F4  697469616C697A61  imul esi,[ecx+ebp*2+0x61],dword 0x617a696c
000047FC  7469              jz 0x4867
000047FE  6F                outsd
000047FF  6E                outsb
00004800  5F                pop edi
00004801  61                popa
00004802  6E                outsb
00004803  645F              fs pop edi
00004805  64657374          gs jnc 0x487d
00004809  7275              jc 0x4880
0000480B  6374696F          arpl [ecx+ebp*2+0x6f],si
0000480F  6E                outsb
00004810  5F                pop edi
00004811  306969            xor [ecx+0x69],ch
00004814  005F47            add [edi+0x47],bl
00004817  4C                dec esp
00004818  4F                dec edi
00004819  42                inc edx
0000481A  41                inc ecx
0000481B  4C                dec esp
0000481C  5F                pop edi
0000481D  5F                pop edi
0000481E  7375              jnc 0x4895
00004820  625F49            bound ebx,[edi+0x49]
00004823  5F                pop edi
00004824  61                popa
00004825  00656C            add [ebp+0x6c],ah
00004828  662D696E          sub ax,0x6e69
0000482C  69742E63005F474C  imul esi,[esi+ebp+0x63],dword 0x4c475f00
00004834  4F                dec edi
00004835  42                inc edx
00004836  41                inc ecx
00004837  4C                dec esp
00004838  5F                pop edi
00004839  4F                dec edi
0000483A  46                inc esi
0000483B  46                inc esi
0000483C  53                push ebx
0000483D  45                inc ebp
0000483E  54                push esp
0000483F  5F                pop edi
00004840  54                push esp
00004841  41                inc ecx
00004842  42                inc edx
00004843  4C                dec esp
00004844  45                inc ebp
00004845  5F                pop edi
00004846  005F5F            add [edi+0x5f],bl
00004849  696E69745F6172    imul ebp,[esi+0x69],dword 0x72615f74
00004850  7261              jc 0x48b3
00004852  795F              jns 0x48b3
00004854  656E              gs outsb
00004856  64005F5F          add [fs:edi+0x5f],bl
0000485A  696E69745F6172    imul ebp,[esi+0x69],dword 0x72615f74
00004861  7261              jc 0x48c4
00004863  795F              jns 0x48c4
00004865  7374              jnc 0x48db
00004867  61                popa
00004868  7274              jc 0x48de
0000486A  005F44            add [edi+0x44],bl
0000486D  59                pop ecx
0000486E  4E                dec esi
0000486F  41                inc ecx
00004870  4D                dec ebp
00004871  49                dec ecx
00004872  43                inc ebx
00004873  00646174          add [ecx+0x74],ah
00004877  61                popa
00004878  5F                pop edi
00004879  7374              jnc 0x48ef
0000487B  61                popa
0000487C  7274              jc 0x48f2
0000487E  005F5A            add [edi+0x5a],bl
00004881  4E                dec esi
00004882  53                push ebx
00004883  7433              jz 0x48b8
00004885  6D                insd
00004886  61                popa
00004887  7049              jo 0x48d2
00004889  69695374346C65    imul ebp,[ecx+0x53],dword 0x656c3474
00004890  7373              jnc 0x4905
00004892  49                dec ecx
00004893  69455361495374    imul eax,[ebp+0x53],dword 0x74534961
0000489A  3470              xor al,0x70
0000489C  61                popa
0000489D  6972494B696945    imul esi,[edx+0x49],dword 0x4569694b
000048A4  45                inc ebp
000048A5  45                inc ebp
000048A6  35636C6561        xor eax,0x61656c63
000048AB  7245              jc 0x48f2
000048AD  7600              jna 0x48af
000048AF  5F                pop edi
000048B0  5A                pop edx
000048B1  4E                dec esi
000048B2  53                push ebx
000048B3  7433              jz 0x48e8
000048B5  6D                insd
000048B6  61                popa
000048B7  7049              jo 0x4902
000048B9  69695374346C65    imul ebp,[ecx+0x53],dword 0x656c3474
000048C0  7373              jnc 0x4935
000048C2  49                dec ecx
000048C3  69455361495374    imul eax,[ebp+0x53],dword 0x74534961
000048CA  3470              xor al,0x70
000048CC  61                popa
000048CD  6972494B696945    imul esi,[edx+0x49],dword 0x4569694b
000048D4  45                inc ebp
000048D5  45                inc ebp
000048D6  33656E            xor esp,[ebp+0x6e]
000048D9  6445              fs inc ebp
000048DB  7600              jna 0x48dd
000048DD  5F                pop edi
000048DE  5A                pop edx
000048DF  4E                dec esi
000048E0  395F5F            cmp [edi+0x5f],ebx
000048E3  676E              a16 outsb
000048E5  755F              jnz 0x4946
000048E7  637878            arpl [eax+0x78],di
000048EA  3133              xor [ebx],esi
000048EC  6E                outsb
000048ED  65775F            gs ja 0x494f
000048F0  61                popa
000048F1  6C                insb
000048F2  6C                insb
000048F3  6F                outsd
000048F4  636174            arpl [ecx+0x74],sp
000048F7  6F                outsd
000048F8  7249              jc 0x4943
000048FA  53                push ebx
000048FB  7431              jz 0x492e
000048FD  335F52            xor ebx,[edi+0x52]
00004900  625F74            bound ebx,[edi+0x74]
00004903  7265              jc 0x496a
00004905  655F              gs pop edi
00004907  6E                outsb
00004908  6F                outsd
00004909  646549            gs dec ecx
0000490C  53                push ebx
0000490D  7434              jz 0x4943
0000490F  7061              jo 0x4972
00004911  6972494B696945    imul esi,[edx+0x49],dword 0x4569694b
00004918  45                inc ebp
00004919  45                inc ebp
0000491A  43                inc ebx
0000491B  324576            xor al,[ebp+0x76]
0000491E  005F5A            add [edi+0x5a],bl
00004921  4E                dec esi
00004922  395F5F            cmp [edi+0x5f],ebx
00004925  676E              a16 outsb
00004927  755F              jnz 0x4988
00004929  637878            arpl [eax+0x78],di
0000492C  3133              xor [ebx],esi
0000492E  6E                outsb
0000492F  65775F            gs ja 0x4991
00004932  61                popa
00004933  6C                insb
00004934  6C                insb
00004935  6F                outsd
00004936  636174            arpl [ecx+0x74],sp
00004939  6F                outsd
0000493A  7249              jc 0x4985
0000493C  53                push ebx
0000493D  7431              jz 0x4970
0000493F  335F52            xor ebx,[edi+0x52]
00004942  625F74            bound ebx,[edi+0x74]
00004945  7265              jc 0x49ac
00004947  655F              gs pop edi
00004949  6E                outsb
0000494A  6F                outsd
0000494B  646549            gs dec ecx
0000494E  53                push ebx
0000494F  7434              jz 0x4985
00004951  7061              jo 0x49b4
00004953  6972494B696945    imul esi,[edx+0x49],dword 0x4569694b
0000495A  45                inc ebp
0000495B  45                inc ebp
0000495C  44                inc esp
0000495D  314576            xor [ebp+0x76],eax
00004960  005F5F            add [edi+0x5f],bl
00004963  637861            arpl [eax+0x61],di
00004966  5F                pop edi
00004967  61                popa
00004968  7465              jz 0x49cf
0000496A  7869              js 0x49d5
0000496C  7440              jz 0x49ae
0000496E  40                inc eax
0000496F  47                inc edi
00004970  4C                dec esp
00004971  49                dec ecx
00004972  42                inc edx
00004973  43                inc ebx
00004974  5F                pop edi
00004975  322E              xor ch,[esi]
00004977  312E              xor [esi],ebp
00004979  3300              xor eax,[eax]
0000497B  5F                pop edi
0000497C  5F                pop edi
0000497D  6C                insb
0000497E  6962635F637375    imul esp,[edx+0x63],dword 0x7573635f
00004985  5F                pop edi
00004986  66696E69005F      imul bp,[esi+0x69],word 0x5f00
0000498C  7374              jnc 0x4a02
0000498E  61                popa
0000498F  7274              jc 0x4a05
00004991  005F5A            add [edi+0x5a],bl
00004994  4E                dec esi
00004995  53                push ebx
00004996  7438              jz 0x49d0
00004998  5F                pop edi
00004999  52                push edx
0000499A  625F74            bound ebx,[edi+0x74]
0000499D  7265              jc 0x4a04
0000499F  6549              gs dec ecx
000049A1  69537434706169    imul edx,[ebx+0x74],dword 0x69617034
000049A8  7249              jc 0x49f3
000049AA  4B                dec ebx
000049AB  69694553743130    imul ebp,[ecx+0x45],dword 0x30317453
000049B2  5F                pop edi
000049B3  53                push ebx
000049B4  656C              gs insb
000049B6  6563743173        arpl [gs:ecx+esi+0x73],si
000049BB  7449              jz 0x4a06
000049BD  53                push ebx
000049BE  325F45            xor bl,[edi+0x45]
000049C1  53                push ebx
000049C2  7434              jz 0x49f8
000049C4  6C                insb
000049C5  657373            gs jnc 0x4a3b
000049C8  49                dec ecx
000049C9  69455361495332    imul eax,[ebp+0x53],dword 0x32534961
000049D0  5F                pop edi
000049D1  45                inc ebp
000049D2  45                inc ebp
000049D3  3137              xor [edi],esi
000049D5  5F                pop edi
000049D6  4D                dec ebp
000049D7  5F                pop edi
000049D8  696E736572745F    imul ebp,[esi+0x73],dword 0x5f747265
000049DF  756E              jnz 0x4a4f
000049E1  697175655F4553    imul esi,[ecx+0x75],dword 0x53455f65
000049E8  7432              jz 0x4a1c
000049EA  335F52            xor ebx,[edi+0x52]
000049ED  625F74            bound ebx,[edi+0x74]
000049F0  7265              jc 0x4a57
000049F2  655F              gs pop edi
000049F4  636F6E            arpl [edi+0x6e],bp
000049F7  7374              jnc 0x4a6d
000049F9  5F                pop edi
000049FA  6974657261746F72  imul esi,[ebp+0x72],dword 0x726f7461
00004A02  49                dec ecx
00004A03  53                push ebx
00004A04  325F45            xor bl,[edi+0x45]
00004A07  52                push edx
00004A08  4B                dec ebx
00004A09  53                push ebx
00004A0A  325F00            xor bl,[edi+0x0]
00004A0D  5F                pop edi
00004A0E  5A                pop edx
00004A0F  4E                dec esi
00004A10  395F5F            cmp [edi+0x5f],ebx
00004A13  676E              a16 outsb
00004A15  755F              jnz 0x4a76
00004A17  637878            arpl [eax+0x78],di
00004A1A  3133              xor [ebx],esi
00004A1C  6E                outsb
00004A1D  65775F            gs ja 0x4a7f
00004A20  61                popa
00004A21  6C                insb
00004A22  6C                insb
00004A23  6F                outsd
00004A24  636174            arpl [ecx+0x74],sp
00004A27  6F                outsd
00004A28  7249              jc 0x4a73
00004A2A  53                push ebx
00004A2B  7431              jz 0x4a5e
00004A2D  335F52            xor ebx,[edi+0x52]
00004A30  625F74            bound ebx,[edi+0x74]
00004A33  7265              jc 0x4a9a
00004A35  655F              gs pop edi
00004A37  6E                outsb
00004A38  6F                outsd
00004A39  646549            gs dec ecx
00004A3C  53                push ebx
00004A3D  7434              jz 0x4a73
00004A3F  7061              jo 0x4aa2
00004A41  6972494B696945    imul esi,[edx+0x49],dword 0x4569694b
00004A48  45                inc ebp
00004A49  45                inc ebp
00004A4A  44                inc esp
00004A4B  324576            xor al,[ebp+0x76]
00004A4E  005F5A            add [edi+0x5a],bl
00004A51  4E                dec esi
00004A52  53                push ebx
00004A53  61                popa
00004A54  49                dec ecx
00004A55  53                push ebx
00004A56  7434              jz 0x4a8c
00004A58  7061              jo 0x4abb
00004A5A  6972494B696945    imul esi,[edx+0x49],dword 0x4569694b
00004A61  45                inc ebp
00004A62  44                inc esp
00004A63  314576            xor [ebp+0x76],eax
00004A66  005F5A            add [edi+0x5a],bl
00004A69  4E                dec esi
00004A6A  53                push ebx
00004A6B  7434              jz 0x4aa1
00004A6D  7061              jo 0x4ad0
00004A6F  6972494B696945    imul esi,[edx+0x49],dword 0x4569694b
00004A76  43                inc ebx
00004A77  324552            xor al,[ebp+0x52]
00004A7A  53                push ebx
00004A7B  305F53            xor [edi+0x53],bl
00004A7E  325F00            xor bl,[edi+0x0]
00004A81  5F                pop edi
00004A82  5A                pop edx
00004A83  4E                dec esi
00004A84  53                push ebx
00004A85  7433              jz 0x4aba
00004A87  6D                insd
00004A88  61                popa
00004A89  7049              jo 0x4ad4
00004A8B  69695374346C65    imul ebp,[ecx+0x53],dword 0x656c3474
00004A92  7373              jnc 0x4b07
00004A94  49                dec ecx
00004A95  69455361495374    imul eax,[ebp+0x53],dword 0x74534961
00004A9C  3470              xor al,0x70
00004A9E  61                popa
00004A9F  6972494B696945    imul esi,[edx+0x49],dword 0x4569694b
00004AA6  45                inc ebp
00004AA7  45                inc ebp
00004AA8  36696E7365727445  imul ebp,[ss:esi+0x73],dword 0x45747265
00004AB0  53                push ebx
00004AB1  7431              jz 0x4ae4
00004AB3  37                aaa
00004AB4  5F                pop edi
00004AB5  52                push edx
00004AB6  625F74            bound ebx,[edi+0x74]
00004AB9  7265              jc 0x4b20
00004ABB  655F              gs pop edi
00004ABD  6974657261746F72  imul esi,[ebp+0x72],dword 0x726f7461
00004AC5  49                dec ecx
00004AC6  53                push ebx
00004AC7  345F              xor al,0x5f
00004AC9  45                inc ebp
00004ACA  52                push edx
00004ACB  4B                dec ebx
00004ACC  53                push ebx
00004ACD  345F              xor al,0x5f
00004ACF  005F5A            add [edi+0x5a],bl
00004AD2  4E                dec esi
00004AD3  4B                dec ebx
00004AD4  53                push ebx
00004AD5  7433              jz 0x4b0a
00004AD7  6D                insd
00004AD8  61                popa
00004AD9  7049              jo 0x4b24
00004ADB  69695374346C65    imul ebp,[ecx+0x53],dword 0x656c3474
00004AE2  7373              jnc 0x4b57
00004AE4  49                dec ecx
00004AE5  69455361495374    imul eax,[ebp+0x53],dword 0x74534961
00004AEC  3470              xor al,0x70
00004AEE  61                popa
00004AEF  6972494B696945    imul esi,[edx+0x49],dword 0x4569694b
00004AF6  45                inc ebp
00004AF7  45                inc ebp
00004AF8  386B65            cmp [ebx+0x65],ch
00004AFB  795F              jns 0x4b5c
00004AFD  636F6D            arpl [edi+0x6d],bp
00004B00  7045              jo 0x4b47
00004B02  7600              jna 0x4b04
00004B04  5F                pop edi
00004B05  5A                pop edx
00004B06  4E                dec esi
00004B07  53                push ebx
00004B08  7438              jz 0x4b42
00004B0A  5F                pop edi
00004B0B  52                push edx
00004B0C  625F74            bound ebx,[edi+0x74]
00004B0F  7265              jc 0x4b76
00004B11  6549              gs dec ecx
00004B13  69537434706169    imul edx,[ebx+0x74],dword 0x69617034
00004B1A  7249              jc 0x4b65
00004B1C  4B                dec ebx
00004B1D  69694553743130    imul ebp,[ecx+0x45],dword 0x30317453
00004B24  5F                pop edi
00004B25  53                push ebx
00004B26  656C              gs insb
00004B28  6563743173        arpl [gs:ecx+esi+0x73],si
00004B2D  7449              jz 0x4b78
00004B2F  53                push ebx
00004B30  325F45            xor bl,[edi+0x45]
00004B33  53                push ebx
00004B34  7434              jz 0x4b6a
00004B36  6C                insb
00004B37  657373            gs jnc 0x4bad
00004B3A  49                dec ecx
00004B3B  69455361495332    imul eax,[ebp+0x53],dword 0x32534961
00004B42  5F                pop edi
00004B43  45                inc ebp
00004B44  45                inc ebp
00004B45  3133              xor [ebx],esi
00004B47  5F                pop edi
00004B48  52                push edx
00004B49  625F74            bound ebx,[edi+0x74]
00004B4C  7265              jc 0x4bb3
00004B4E  655F              gs pop edi
00004B50  696D706C495336    imul ebp,[ebp+0x70],dword 0x3653496c
00004B57  5F                pop edi
00004B58  4C                dec esp
00004B59  6230              bound esi,[eax]
00004B5B  45                inc ebp
00004B5C  45                inc ebp
00004B5D  43                inc ebx
00004B5E  324576            xor al,[ebp+0x76]
00004B61  005F5A            add [edi+0x5a],bl
00004B64  4E                dec esi
00004B65  53                push ebx
00004B66  7431              jz 0x4b99
00004B68  37                aaa
00004B69  5F                pop edi
00004B6A  52                push edx
00004B6B  625F74            bound ebx,[edi+0x74]
00004B6E  7265              jc 0x4bd5
00004B70  655F              gs pop edi
00004B72  6974657261746F72  imul esi,[ebp+0x72],dword 0x726f7461
00004B7A  49                dec ecx
00004B7B  53                push ebx
00004B7C  7434              jz 0x4bb2
00004B7E  7061              jo 0x4be1
00004B80  6972494B696945    imul esi,[edx+0x49],dword 0x4569694b
00004B87  45                inc ebp
00004B88  43                inc ebx
00004B89  324550            xor al,[ebp+0x50]
00004B8C  53                push ebx
00004B8D  7431              jz 0x4bc0
00004B8F  335F52            xor ebx,[edi+0x52]
00004B92  625F74            bound ebx,[edi+0x74]
00004B95  7265              jc 0x4bfc
00004B97  655F              gs pop edi
00004B99  6E                outsb
00004B9A  6F                outsd
00004B9B  646549            gs dec ecx
00004B9E  53                push ebx
00004B9F  325F45            xor bl,[edi+0x45]
00004BA2  005F5F            add [edi+0x5f],bl
00004BA5  676D              a16 insd
00004BA7  6F                outsd
00004BA8  6E                outsb
00004BA9  5F                pop edi
00004BAA  7374              jnc 0x4c20
00004BAC  61                popa
00004BAD  7274              jc 0x4c23
00004BAF  5F                pop edi
00004BB0  5F                pop edi
00004BB1  005F4A            add [edi+0x4a],bl
00004BB4  765F              jna 0x4c15
00004BB6  52                push edx
00004BB7  6567697374657243  imul esi,[gs:bp+di+0x74],dword 0x6c437265
         -6C
00004BC0  61                popa
00004BC1  7373              jnc 0x4c36
00004BC3  657300            gs jnc 0x4bc6
00004BC6  5F                pop edi
00004BC7  5A                pop edx
00004BC8  4E                dec esi
00004BC9  53                push ebx
00004BCA  7433              jz 0x4bff
00004BCC  6D                insd
00004BCD  61                popa
00004BCE  7049              jo 0x4c19
00004BD0  69695374346C65    imul ebp,[ecx+0x53],dword 0x656c3474
00004BD7  7373              jnc 0x4c4c
00004BD9  49                dec ecx
00004BDA  69455361495374    imul eax,[ebp+0x53],dword 0x74534961
00004BE1  3470              xor al,0x70
00004BE3  61                popa
00004BE4  6972494B696945    imul esi,[edx+0x49],dword 0x4569694b
00004BEB  45                inc ebp
00004BEC  45                inc ebp
00004BED  3131              xor [ecx],esi
00004BEF  6C                insb
00004BF0  6F                outsd
00004BF1  7765              ja 0x4c58
00004BF3  725F              jc 0x4c54
00004BF5  626F75            bound ebp,[edi+0x75]
00004BF8  6E                outsb
00004BF9  6445              fs inc ebp
00004BFB  52                push edx
00004BFC  53                push ebx
00004BFD  335F00            xor ebx,[edi+0x0]
00004C00  5F                pop edi
00004C01  66705F            o16 jo 0x4c63
00004C04  6877005F5A        push dword 0x5a5f0077
00004C09  4E                dec esi
00004C0A  53                push ebx
00004C0B  7431              jz 0x4c3e
00004C0D  37                aaa
00004C0E  5F                pop edi
00004C0F  52                push edx
00004C10  625F74            bound ebx,[edi+0x74]
00004C13  7265              jc 0x4c7a
00004C15  655F              gs pop edi
00004C17  6974657261746F72  imul esi,[ebp+0x72],dword 0x726f7461
00004C1F  49                dec ecx
00004C20  53                push ebx
00004C21  7434              jz 0x4c57
00004C23  7061              jo 0x4c86
00004C25  6972494B696945    imul esi,[edx+0x49],dword 0x4569694b
00004C2C  45                inc ebp
00004C2D  43                inc ebx
00004C2E  314550            xor [ebp+0x50],eax
00004C31  53                push ebx
00004C32  7431              jz 0x4c65
00004C34  335F52            xor ebx,[edi+0x52]
00004C37  625F74            bound ebx,[edi+0x74]
00004C3A  7265              jc 0x4ca1
00004C3C  655F              gs pop edi
00004C3E  6E                outsb
00004C3F  6F                outsd
00004C40  646549            gs dec ecx
00004C43  53                push ebx
00004C44  325F45            xor bl,[edi+0x45]
00004C47  005F5A            add [edi+0x5a],bl
00004C4A  646C              fs insb
00004C4C  50                push eax
00004C4D  7640              jna 0x4c8f
00004C4F  40                inc eax
00004C50  47                inc edi
00004C51  4C                dec esp
00004C52  49                dec ecx
00004C53  42                inc edx
00004C54  43                inc ebx
00004C55  58                pop eax
00004C56  58                pop eax
00004C57  5F                pop edi
00004C58  332E              xor ebp,[esi]
00004C5A  3400              xor al,0x0
00004C5C  5F                pop edi
00004C5D  5A                pop edx
00004C5E  4E                dec esi
00004C5F  395F5F            cmp [edi+0x5f],ebx
00004C62  676E              a16 outsb
00004C64  755F              jnz 0x4cc5
00004C66  637878            arpl [eax+0x78],di
00004C69  3133              xor [ebx],esi
00004C6B  6E                outsb
00004C6C  65775F            gs ja 0x4cce
00004C6F  61                popa
00004C70  6C                insb
00004C71  6C                insb
00004C72  6F                outsd
00004C73  636174            arpl [ecx+0x74],sp
00004C76  6F                outsd
00004C77  7249              jc 0x4cc2
00004C79  53                push ebx
00004C7A  7431              jz 0x4cad
00004C7C  335F52            xor ebx,[edi+0x52]
00004C7F  625F74            bound ebx,[edi+0x74]
00004C82  7265              jc 0x4ce9
00004C84  655F              gs pop edi
00004C86  6E                outsb
00004C87  6F                outsd
00004C88  646549            gs dec ecx
00004C8B  53                push ebx
00004C8C  7434              jz 0x4cc2
00004C8E  7061              jo 0x4cf1
00004C90  6972494B696945    imul esi,[edx+0x49],dword 0x4569694b
00004C97  45                inc ebp
00004C98  45                inc ebp
00004C99  43                inc ebx
00004C9A  314576            xor [ebp+0x76],eax
00004C9D  005F66            add [edi+0x66],bl
00004CA0  696E69005F5A4E    imul ebp,[esi+0x69],dword 0x4e5a5f00
00004CA7  4B                dec ebx
00004CA8  53                push ebx
00004CA9  7431              jz 0x4cdc
00004CAB  305F53            xor [edi+0x53],bl
00004CAE  656C              gs insb
00004CB0  6563743173        arpl [gs:ecx+esi+0x73],si
00004CB5  7449              jz 0x4d00
00004CB7  53                push ebx
00004CB8  7434              jz 0x4cee
00004CBA  7061              jo 0x4d1d
00004CBC  6972494B696945    imul esi,[edx+0x49],dword 0x4569694b
00004CC3  45                inc ebp
00004CC4  636C4552          arpl [ebp+eax*2+0x52],bp
00004CC8  4B                dec ebx
00004CC9  53                push ebx
00004CCA  325F00            xor bl,[edi+0x0]
00004CCD  7075              jo 0x4d44
00004CCF  7463              jz 0x4d34
00004CD1  6861724040        push dword 0x40407261
00004CD6  47                inc edi
00004CD7  4C                dec esp
00004CD8  49                dec ecx
00004CD9  42                inc edx
00004CDA  43                inc ebx
00004CDB  5F                pop edi
00004CDC  322E              xor ch,[esi]
00004CDE  3000              xor [eax],al
00004CE0  5F                pop edi
00004CE1  5A                pop edx
00004CE2  4E                dec esi
00004CE3  4B                dec ebx
00004CE4  53                push ebx
00004CE5  7431              jz 0x4d18
00004CE7  37                aaa
00004CE8  5F                pop edi
00004CE9  52                push edx
00004CEA  625F74            bound ebx,[edi+0x74]
00004CED  7265              jc 0x4d54
00004CEF  655F              gs pop edi
00004CF1  6974657261746F72  imul esi,[ebp+0x72],dword 0x726f7461
00004CF9  49                dec ecx
00004CFA  53                push ebx
00004CFB  7434              jz 0x4d31
00004CFD  7061              jo 0x4d60
00004CFF  6972494B696945    imul esi,[edx+0x49],dword 0x4569694b
00004D06  45                inc ebp
00004D07  657145            gs jno 0x4d4f
00004D0A  52                push edx
00004D0B  4B                dec ebx
00004D0C  53                push ebx
00004D0D  335F00            xor ebx,[edi+0x0]
00004D10  5F                pop edi
00004D11  5A                pop edx
00004D12  4E                dec esi
00004D13  53                push ebx
00004D14  7438              jz 0x4d4e
00004D16  696F735F626173    imul ebp,[edi+0x73],dword 0x7361625f
00004D1D  653449            gs xor al,0x49
00004D20  6E                outsb
00004D21  6974433145764040  imul esi,[ebx+eax*2+0x31],dword 0x40407645
00004D29  47                inc edi
00004D2A  4C                dec esp
00004D2B  49                dec ecx
00004D2C  42                inc edx
00004D2D  43                inc ebx
00004D2E  58                pop eax
00004D2F  58                pop eax
00004D30  5F                pop edi
00004D31  332E              xor ebp,[esi]
00004D33  3400              xor al,0x0
00004D35  5F                pop edi
00004D36  5A                pop edx
00004D37  4E                dec esi
00004D38  53                push ebx
00004D39  7433              jz 0x4d6e
00004D3B  6D                insd
00004D3C  61                popa
00004D3D  7049              jo 0x4d88
00004D3F  69695374346C65    imul ebp,[ecx+0x53],dword 0x656c3474
00004D46  7373              jnc 0x4dbb
00004D48  49                dec ecx
00004D49  69455361495374    imul eax,[ebp+0x53],dword 0x74534961
00004D50  3470              xor al,0x70
00004D52  61                popa
00004D53  6972494B696945    imul esi,[edx+0x49],dword 0x4569694b
00004D5A  45                inc ebp
00004D5B  45                inc ebp
00004D5C  43                inc ebx
00004D5D  324576            xor al,[ebp+0x76]
00004D60  005F5A            add [edi+0x5a],bl
00004D63  4E                dec esi
00004D64  53                push ebx
00004D65  7438              jz 0x4d9f
00004D67  5F                pop edi
00004D68  52                push edx
00004D69  625F74            bound ebx,[edi+0x74]
00004D6C  7265              jc 0x4dd3
00004D6E  6549              gs dec ecx
00004D70  69537434706169    imul edx,[ebx+0x74],dword 0x69617034
00004D77  7249              jc 0x4dc2
00004D79  4B                dec ebx
00004D7A  69694553743130    imul ebp,[ecx+0x45],dword 0x30317453
00004D81  5F                pop edi
00004D82  53                push ebx
00004D83  656C              gs insb
00004D85  6563743173        arpl [gs:ecx+esi+0x73],si
00004D8A  7449              jz 0x4dd5
00004D8C  53                push ebx
00004D8D  325F45            xor bl,[edi+0x45]
00004D90  53                push ebx
00004D91  7434              jz 0x4dc7
00004D93  6C                insb
00004D94  657373            gs jnc 0x4e0a
00004D97  49                dec ecx
00004D98  69455361495332    imul eax,[ebp+0x53],dword 0x32534961
00004D9F  5F                pop edi
00004DA0  45                inc ebp
00004DA1  45                inc ebp
00004DA2  3131              xor [ecx],esi
00004DA4  5F                pop edi
00004DA5  4D                dec ebp
00004DA6  5F                pop edi
00004DA7  6C                insb
00004DA8  6566746D          gs o16 jz 0x4e19
00004DAC  6F                outsd
00004DAD  7374              jnc 0x4e23
00004DAF  45                inc ebp
00004DB0  7600              jna 0x4db2
00004DB2  5F                pop edi
00004DB3  5A                pop edx
00004DB4  4E                dec esi
00004DB5  53                push ebx
00004DB6  7438              jz 0x4df0
00004DB8  5F                pop edi
00004DB9  52                push edx
00004DBA  625F74            bound ebx,[edi+0x74]
00004DBD  7265              jc 0x4e24
00004DBF  6549              gs dec ecx
00004DC1  69537434706169    imul edx,[ebx+0x74],dword 0x69617034
00004DC8  7249              jc 0x4e13
00004DCA  4B                dec ebx
00004DCB  69694553743130    imul ebp,[ecx+0x45],dword 0x30317453
00004DD2  5F                pop edi
00004DD3  53                push ebx
00004DD4  656C              gs insb
00004DD6  6563743173        arpl [gs:ecx+esi+0x73],si
00004DDB  7449              jz 0x4e26
00004DDD  53                push ebx
00004DDE  325F45            xor bl,[edi+0x45]
00004DE1  53                push ebx
00004DE2  7434              jz 0x4e18
00004DE4  6C                insb
00004DE5  657373            gs jnc 0x4e5b
00004DE8  49                dec ecx
00004DE9  69455361495332    imul eax,[ebp+0x53],dword 0x32534961
00004DF0  5F                pop edi
00004DF1  45                inc ebp
00004DF2  45                inc ebp
00004DF3  365F              ss pop edi
00004DF5  53                push ebx
00004DF6  5F                pop edi
00004DF7  6B657945          imul esp,[ebp+0x79],byte +0x45
00004DFB  50                push eax
00004DFC  4B                dec ebx
00004DFD  53                push ebx
00004DFE  7431              jz 0x4e31
00004E00  385F52            cmp [edi+0x52],bl
00004E03  625F74            bound ebx,[edi+0x74]
00004E06  7265              jc 0x4e6d
00004E08  655F              gs pop edi
00004E0A  6E                outsb
00004E0B  6F                outsd
00004E0C  64655F            gs pop edi
00004E0F  626173            bound esp,[ecx+0x73]
00004E12  65005F5A          add [gs:edi+0x5a],bl
00004E16  4E                dec esi
00004E17  53                push ebx
00004E18  7438              jz 0x4e52
00004E1A  5F                pop edi
00004E1B  52                push edx
00004E1C  625F74            bound ebx,[edi+0x74]
00004E1F  7265              jc 0x4e86
00004E21  6549              gs dec ecx
00004E23  69537434706169    imul edx,[ebx+0x74],dword 0x69617034
00004E2A  7249              jc 0x4e75
00004E2C  4B                dec ebx
00004E2D  69694553743130    imul ebp,[ecx+0x45],dword 0x30317453
00004E34  5F                pop edi
00004E35  53                push ebx
00004E36  656C              gs insb
00004E38  6563743173        arpl [gs:ecx+esi+0x73],si
00004E3D  7449              jz 0x4e88
00004E3F  53                push ebx
00004E40  325F45            xor bl,[edi+0x45]
00004E43  53                push ebx
00004E44  7434              jz 0x4e7a
00004E46  6C                insb
00004E47  657373            gs jnc 0x4ebd
00004E4A  49                dec ecx
00004E4B  69455361495332    imul eax,[ebp+0x53],dword 0x32534961
00004E52  5F                pop edi
00004E53  45                inc ebp
00004E54  45                inc ebp
00004E55  32345F            xor dh,[edi+ebx*2]
00004E58  4D                dec ebp
00004E59  5F                pop edi
00004E5A  6765745F          gs a16 jz 0x4ebd
00004E5E  696E736572745F    imul ebp,[esi+0x73],dword 0x5f747265
00004E65  756E              jnz 0x4ed5
00004E67  697175655F706F    imul esi,[ecx+0x75],dword 0x6f705f65
00004E6E  7345              jnc 0x4eb5
00004E70  52                push edx
00004E71  53                push ebx
00004E72  315F00            xor [edi+0x0],ebx
00004E75  5F                pop edi
00004E76  5A                pop edx
00004E77  53                push ebx
00004E78  7431              jz 0x4eab
00004E7A  385F52            cmp [edi+0x52],bl
00004E7D  625F74            bound ebx,[edi+0x74]
00004E80  7265              jc 0x4ee7
00004E82  655F              gs pop edi
00004E84  6465637265        arpl [gs:edx+0x65],si
00004E89  6D                insd
00004E8A  656E              gs outsb
00004E8C  7450              jz 0x4ede
00004E8E  53                push ebx
00004E8F  7431              jz 0x4ec2
00004E91  385F52            cmp [edi+0x52],bl
00004E94  625F74            bound ebx,[edi+0x74]
00004E97  7265              jc 0x4efe
00004E99  655F              gs pop edi
00004E9B  6E                outsb
00004E9C  6F                outsd
00004E9D  64655F            gs pop edi
00004EA0  626173            bound esp,[ecx+0x73]
00004EA3  6540              gs inc eax
00004EA5  40                inc eax
00004EA6  47                inc edi
00004EA7  4C                dec esp
00004EA8  49                dec ecx
00004EA9  42                inc edx
00004EAA  43                inc ebx
00004EAB  58                pop eax
00004EAC  58                pop eax
00004EAD  5F                pop edi
00004EAE  332E              xor ebp,[esi]
00004EB0  3400              xor al,0x0
00004EB2  5F                pop edi
00004EB3  5F                pop edi
00004EB4  6C                insb
00004EB5  6962635F737461    imul esp,[edx+0x63],dword 0x6174735f
00004EBC  7274              jc 0x4f32
00004EBE  5F                pop edi
00004EBF  6D                insd
00004EC0  61                popa
00004EC1  696E4040474C49    imul ebp,[esi+0x40],dword 0x494c4740
00004EC8  42                inc edx
00004EC9  43                inc ebx
00004ECA  5F                pop edi
00004ECB  322E              xor ch,[esi]
00004ECD  3000              xor [eax],al
00004ECF  5F                pop edi
00004ED0  5A                pop edx
00004ED1  4E                dec esi
00004ED2  4B                dec ebx
00004ED3  395F5F            cmp [edi+0x5f],ebx
00004ED6  676E              a16 outsb
00004ED8  755F              jnz 0x4f39
00004EDA  637878            arpl [eax+0x78],di
00004EDD  3133              xor [ebx],esi
00004EDF  6E                outsb
00004EE0  65775F            gs ja 0x4f42
00004EE3  61                popa
00004EE4  6C                insb
00004EE5  6C                insb
00004EE6  6F                outsd
00004EE7  636174            arpl [ecx+0x74],sp
00004EEA  6F                outsd
00004EEB  7249              jc 0x4f36
00004EED  53                push ebx
00004EEE  7431              jz 0x4f21
00004EF0  335F52            xor ebx,[edi+0x52]
00004EF3  625F74            bound ebx,[edi+0x74]
00004EF6  7265              jc 0x4f5d
00004EF8  655F              gs pop edi
00004EFA  6E                outsb
00004EFB  6F                outsd
00004EFC  646549            gs dec ecx
00004EFF  53                push ebx
00004F00  7434              jz 0x4f36
00004F02  7061              jo 0x4f65
00004F04  6972494B696945    imul esi,[edx+0x49],dword 0x4569694b
00004F0B  45                inc ebp
00004F0C  45                inc ebp
00004F0D  386D61            cmp [ebp+0x61],ch
00004F10  785F              js 0x4f71
00004F12  7369              jnc 0x4f7d
00004F14  7A65              jpe 0x4f7b
00004F16  45                inc ebp
00004F17  7600              jna 0x4f19
00004F19  5F                pop edi
00004F1A  5A                pop edx
00004F1B  4E                dec esi
00004F1C  395F5F            cmp [edi+0x5f],ebx
00004F1F  676E              a16 outsb
00004F21  755F              jnz 0x4f82
00004F23  637878            arpl [eax+0x78],di
00004F26  3133              xor [ebx],esi
00004F28  6E                outsb
00004F29  65775F            gs ja 0x4f8b
00004F2C  61                popa
00004F2D  6C                insb
00004F2E  6C                insb
00004F2F  6F                outsd
00004F30  636174            arpl [ecx+0x74],sp
00004F33  6F                outsd
00004F34  7249              jc 0x4f7f
00004F36  53                push ebx
00004F37  7434              jz 0x4f6d
00004F39  7061              jo 0x4f9c
00004F3B  6972494B696945    imul esi,[edx+0x49],dword 0x4569694b
00004F42  45                inc ebp
00004F43  37                aaa
00004F44  64657374          gs jnc 0x4fbc
00004F48  726F              jc 0x4fb9
00004F4A  7945              jns 0x4f91
00004F4C  50                push eax
00004F4D  53                push ebx
00004F4E  335F00            xor ebx,[edi+0x0]
00004F51  5F                pop edi
00004F52  5A                pop edx
00004F53  4E                dec esi
00004F54  53                push ebx
00004F55  61                popa
00004F56  49                dec ecx
00004F57  53                push ebx
00004F58  7434              jz 0x4f8e
00004F5A  7061              jo 0x4fbd
00004F5C  6972494B696945    imul esi,[edx+0x49],dword 0x4569694b
00004F63  45                inc ebp
00004F64  43                inc ebx
00004F65  314953            xor [ecx+0x53],ecx
00004F68  7431              jz 0x4f9b
00004F6A  335F52            xor ebx,[edi+0x52]
00004F6D  625F74            bound ebx,[edi+0x74]
00004F70  7265              jc 0x4fd7
00004F72  655F              gs pop edi
00004F74  6E                outsb
00004F75  6F                outsd
00004F76  646549            gs dec ecx
00004F79  53                push ebx
00004F7A  315F45            xor [edi+0x45],ebx
00004F7D  45                inc ebp
00004F7E  45                inc ebp
00004F7F  52                push edx
00004F80  4B                dec ebx
00004F81  53                push ebx
00004F82  61                popa
00004F83  49                dec ecx
00004F84  54                push esp
00004F85  5F                pop edi
00004F86  45                inc ebp
00004F87  005F5A            add [edi+0x5a],bl
00004F8A  4E                dec esi
00004F8B  53                push ebx
00004F8C  7438              jz 0x4fc6
00004F8E  5F                pop edi
00004F8F  52                push edx
00004F90  625F74            bound ebx,[edi+0x74]
00004F93  7265              jc 0x4ffa
00004F95  6549              gs dec ecx
00004F97  69537434706169    imul edx,[ebx+0x74],dword 0x69617034
00004F9E  7249              jc 0x4fe9
00004FA0  4B                dec ebx
00004FA1  69694553743130    imul ebp,[ecx+0x45],dword 0x30317453
00004FA8  5F                pop edi
00004FA9  53                push ebx
00004FAA  656C              gs insb
00004FAC  6563743173        arpl [gs:ecx+esi+0x73],si
00004FB1  7449              jz 0x4ffc
00004FB3  53                push ebx
00004FB4  325F45            xor bl,[edi+0x45]
00004FB7  53                push ebx
00004FB8  7434              jz 0x4fee
00004FBA  6C                insb
00004FBB  657373            gs jnc 0x5031
00004FBE  49                dec ecx
00004FBF  69455361495332    imul eax,[ebp+0x53],dword 0x32534961
00004FC6  5F                pop edi
00004FC7  45                inc ebp
00004FC8  45                inc ebp
00004FC9  31345F            xor [edi+ebx*2],esi
00004FCC  4D                dec ebp
00004FCD  5F                pop edi
00004FCE  637265            arpl [edx+0x65],si
00004FD1  61                popa
00004FD2  7465              jz 0x5039
00004FD4  5F                pop edi
00004FD5  6E                outsb
00004FD6  6F                outsd
00004FD7  646545            gs inc ebp
00004FDA  52                push edx
00004FDB  4B                dec ebx
00004FDC  53                push ebx
00004FDD  325F00            xor bl,[edi+0x0]
00004FE0  5F                pop edi
00004FE1  5A                pop edx
00004FE2  4E                dec esi
00004FE3  4B                dec ebx
00004FE4  53                push ebx
00004FE5  7438              jz 0x501f
00004FE7  5F                pop edi
00004FE8  52                push edx
00004FE9  625F74            bound ebx,[edi+0x74]
00004FEC  7265              jc 0x5053
00004FEE  6549              gs dec ecx
00004FF0  69537434706169    imul edx,[ebx+0x74],dword 0x69617034
00004FF7  7249              jc 0x5042
00004FF9  4B                dec ebx
00004FFA  69694553743130    imul ebp,[ecx+0x45],dword 0x30317453
00005001  5F                pop edi
00005002  53                push ebx
00005003  656C              gs insb
00005005  6563743173        arpl [gs:ecx+esi+0x73],si
0000500A  7449              jz 0x5055
0000500C  53                push ebx
0000500D  325F45            xor bl,[edi+0x45]
00005010  53                push ebx
00005011  7434              jz 0x5047
00005013  6C                insb
00005014  657373            gs jnc 0x508a
00005017  49                dec ecx
00005018  69455361495332    imul eax,[ebp+0x53],dword 0x32534961
0000501F  5F                pop edi
00005020  45                inc ebp
00005021  45                inc ebp
00005022  3231              xor dh,[ecx]
00005024  5F                pop edi
00005025  4D                dec ebp
00005026  5F                pop edi
00005027  6765745F          gs a16 jz 0x508a
0000502B  4E                dec esi
0000502C  6F                outsd
0000502D  64655F            gs pop edi
00005030  61                popa
00005031  6C                insb
00005032  6C                insb
00005033  6F                outsd
00005034  636174            arpl [ecx+0x74],sp
00005037  6F                outsd
00005038  7245              jc 0x507f
0000503A  7600              jna 0x503c
0000503C  5F                pop edi
0000503D  5A                pop edx
0000503E  4E                dec esi
0000503F  53                push ebx
00005040  7438              jz 0x507a
00005042  5F                pop edi
00005043  52                push edx
00005044  625F74            bound ebx,[edi+0x74]
00005047  7265              jc 0x50ae
00005049  6549              gs dec ecx
0000504B  69537434706169    imul edx,[ebx+0x74],dword 0x69617034
00005052  7249              jc 0x509d
00005054  4B                dec ebx
00005055  69694553743130    imul ebp,[ecx+0x45],dword 0x30317453
0000505C  5F                pop edi
0000505D  53                push ebx
0000505E  656C              gs insb
00005060  6563743173        arpl [gs:ecx+esi+0x73],si
00005065  7449              jz 0x50b0
00005067  53                push ebx
00005068  325F45            xor bl,[edi+0x45]
0000506B  53                push ebx
0000506C  7434              jz 0x50a2
0000506E  6C                insb
0000506F  657373            gs jnc 0x50e5
00005072  49                dec ecx
00005073  69455361495332    imul eax,[ebp+0x53],dword 0x32534961
0000507A  5F                pop edi
0000507B  45                inc ebp
0000507C  45                inc ebp
0000507D  37                aaa
0000507E  5F                pop edi
0000507F  53                push ebx
00005080  5F                pop edi
00005081  6C                insb
00005082  65667445          gs o16 jz 0x50cb
00005086  50                push eax
00005087  53                push ebx
00005088  7431              jz 0x50bb
0000508A  385F52            cmp [edi+0x52],bl
0000508D  625F74            bound ebx,[edi+0x74]
00005090  7265              jc 0x50f7
00005092  655F              gs pop edi
00005094  6E                outsb
00005095  6F                outsd
00005096  64655F            gs pop edi
00005099  626173            bound esp,[ecx+0x73]
0000509C  65005F5A          add [gs:edi+0x5a],bl
000050A0  4E                dec esi
000050A1  53                push ebx
000050A2  7438              jz 0x50dc
000050A4  5F                pop edi
000050A5  52                push edx
000050A6  625F74            bound ebx,[edi+0x74]
000050A9  7265              jc 0x5110
000050AB  6549              gs dec ecx
000050AD  69537434706169    imul edx,[ebx+0x74],dword 0x69617034
000050B4  7249              jc 0x50ff
000050B6  4B                dec ebx
000050B7  69694553743130    imul ebp,[ecx+0x45],dword 0x30317453
000050BE  5F                pop edi
000050BF  53                push ebx
000050C0  656C              gs insb
000050C2  6563743173        arpl [gs:ecx+esi+0x73],si
000050C7  7449              jz 0x5112
000050C9  53                push ebx
000050CA  325F45            xor bl,[edi+0x45]
000050CD  53                push ebx
000050CE  7434              jz 0x5104
000050D0  6C                insb
000050D1  657373            gs jnc 0x5147
000050D4  49                dec ecx
000050D5  69455361495332    imul eax,[ebp+0x53],dword 0x32534961
000050DC  5F                pop edi
000050DD  45                inc ebp
000050DE  45                inc ebp
000050DF  43                inc ebx
000050E0  324576            xor al,[ebp+0x76]
000050E3  005F5A            add [edi+0x5a],bl
000050E6  4E                dec esi
000050E7  53                push ebx
000050E8  7438              jz 0x5122
000050EA  696F735F626173    imul ebp,[edi+0x73],dword 0x7361625f
000050F1  653449            gs xor al,0x49
000050F4  6E                outsb
000050F5  6974443145764040  imul esi,[esp+eax*2+0x31],dword 0x40407645
000050FD  47                inc edi
000050FE  4C                dec esp
000050FF  49                dec ecx
00005100  42                inc edx
00005101  43                inc ebx
00005102  58                pop eax
00005103  58                pop eax
00005104  5F                pop edi
00005105  332E              xor ebp,[esi]
00005107  3400              xor al,0x0
00005109  5F                pop edi
0000510A  5A                pop edx
0000510B  4E                dec esi
0000510C  53                push ebx
0000510D  7433              jz 0x5142
0000510F  6D                insd
00005110  61                popa
00005111  7049              jo 0x515c
00005113  69695374346C65    imul ebp,[ecx+0x53],dword 0x656c3474
0000511A  7373              jnc 0x518f
0000511C  49                dec ecx
0000511D  69455361495374    imul eax,[ebp+0x53],dword 0x74534961
00005124  3470              xor al,0x70
00005126  61                popa
00005127  6972494B696945    imul esi,[edx+0x49],dword 0x4569694b
0000512E  45                inc ebp
0000512F  45                inc ebp
00005130  44                inc esp
00005131  314576            xor [ebp+0x76],eax
00005134  005F5A            add [edi+0x5a],bl
00005137  4E                dec esi
00005138  395F5F            cmp [edi+0x5f],ebx
0000513B  676E              a16 outsb
0000513D  755F              jnz 0x519e
0000513F  637878            arpl [eax+0x78],di
00005142  3133              xor [ebx],esi
00005144  6E                outsb
00005145  65775F            gs ja 0x51a7
00005148  61                popa
00005149  6C                insb
0000514A  6C                insb
0000514B  6F                outsd
0000514C  636174            arpl [ecx+0x74],sp
0000514F  6F                outsd
00005150  7249              jc 0x519b
00005152  53                push ebx
00005153  7434              jz 0x5189
00005155  7061              jo 0x51b8
00005157  6972494B696945    imul esi,[edx+0x49],dword 0x4569694b
0000515E  45                inc ebp
0000515F  39636F            cmp [ebx+0x6f],esp
00005162  6E                outsb
00005163  7374              jnc 0x51d9
00005165  7275              jc 0x51dc
00005167  63744550          arpl [ebp+eax*2+0x50],si
0000516B  53                push ebx
0000516C  335F52            xor ebx,[edi+0x52]
0000516F  4B                dec ebx
00005170  53                push ebx
00005171  335F00            xor ebx,[edi+0x0]
00005174  5F                pop edi
00005175  49                dec ecx
00005176  54                push esp
00005177  4D                dec ebp
00005178  5F                pop edi
00005179  64657265          gs jc 0x51e2
0000517D  676973746572544D  imul esi,[bp+di+0x74],dword 0x4d547265
00005185  43                inc ebx
00005186  6C                insb
00005187  6F                outsd
00005188  6E                outsb
00005189  6554              gs push esp
0000518B  61                popa
0000518C  626C6500          bound ebp,[ebp+0x0]
00005190  5F                pop edi
00005191  49                dec ecx
00005192  4F                dec edi
00005193  5F                pop edi
00005194  7374              jnc 0x520a
00005196  64696E5F75736564  imul ebp,[fs:esi+0x5f],dword 0x64657375
0000519E  005F5A            add [edi+0x5a],bl
000051A1  6E                outsb
000051A2  776A              ja 0x520e
000051A4  50                push eax
000051A5  7600              jna 0x51a7
000051A7  5F                pop edi
000051A8  5A                pop edx
000051A9  4E                dec esi
000051AA  53                push ebx
000051AB  7438              jz 0x51e5
000051AD  5F                pop edi
000051AE  52                push edx
000051AF  625F74            bound ebx,[edi+0x74]
000051B2  7265              jc 0x5219
000051B4  6549              gs dec ecx
000051B6  69537434706169    imul edx,[ebx+0x74],dword 0x69617034
000051BD  7249              jc 0x5208
000051BF  4B                dec ebx
000051C0  69694553743130    imul ebp,[ecx+0x45],dword 0x30317453
000051C7  5F                pop edi
000051C8  53                push ebx
000051C9  656C              gs insb
000051CB  6563743173        arpl [gs:ecx+esi+0x73],si
000051D0  7449              jz 0x521b
000051D2  53                push ebx
000051D3  325F45            xor bl,[edi+0x45]
000051D6  53                push ebx
000051D7  7434              jz 0x520d
000051D9  6C                insb
000051DA  657373            gs jnc 0x5250
000051DD  49                dec ecx
000051DE  69455361495332    imul eax,[ebp+0x53],dword 0x32534961
000051E5  5F                pop edi
000051E6  45                inc ebp
000051E7  45                inc ebp
000051E8  44                inc esp
000051E9  314576            xor [ebp+0x76],eax
000051EC  005F5A            add [edi+0x5a],bl
000051EF  4E                dec esi
000051F0  4B                dec ebx
000051F1  53                push ebx
000051F2  7438              jz 0x522c
000051F4  5F                pop edi
000051F5  52                push edx
000051F6  625F74            bound ebx,[edi+0x74]
000051F9  7265              jc 0x5260
000051FB  6549              gs dec ecx
000051FD  69537434706169    imul edx,[ebx+0x74],dword 0x69617034
00005204  7249              jc 0x524f
00005206  4B                dec ebx
00005207  69694553743130    imul ebp,[ecx+0x45],dword 0x30317453
0000520E  5F                pop edi
0000520F  53                push ebx
00005210  656C              gs insb
00005212  6563743173        arpl [gs:ecx+esi+0x73],si
00005217  7449              jz 0x5262
00005219  53                push ebx
0000521A  325F45            xor bl,[edi+0x45]
0000521D  53                push ebx
0000521E  7434              jz 0x5254
00005220  6C                insb
00005221  657373            gs jnc 0x5297
00005224  49                dec ecx
00005225  69455361495332    imul eax,[ebp+0x53],dword 0x32534961
0000522C  5F                pop edi
0000522D  45                inc ebp
0000522E  45                inc ebp
0000522F  3473              xor al,0x73
00005231  697A6545760073    imul edi,[edx+0x65],dword 0x73007645
00005238  63616E            arpl [ecx+0x6e],sp
0000523B  6640              inc ax
0000523D  40                inc eax
0000523E  47                inc edi
0000523F  4C                dec esp
00005240  49                dec ecx
00005241  42                inc edx
00005242  43                inc ebx
00005243  5F                pop edi
00005244  322E              xor ch,[esi]
00005246  3000              xor [eax],al
00005248  5F                pop edi
00005249  49                dec ecx
0000524A  54                push esp
0000524B  4D                dec ebp
0000524C  5F                pop edi
0000524D  7265              jc 0x52b4
0000524F  676973746572544D  imul esi,[bp+di+0x74],dword 0x4d547265
00005257  43                inc ebx
00005258  6C                insb
00005259  6F                outsd
0000525A  6E                outsb
0000525B  6554              gs push esp
0000525D  61                popa
0000525E  626C6500          bound ebp,[ebp+0x0]
00005262  5F                pop edi
00005263  5F                pop edi
00005264  6461              fs popa
00005266  7461              jz 0x52c9
00005268  5F                pop edi
00005269  7374              jnc 0x52df
0000526B  61                popa
0000526C  7274              jc 0x52e2
0000526E  005F5A            add [edi+0x5a],bl
00005271  4E                dec esi
00005272  53                push ebx
00005273  7438              jz 0x52ad
00005275  5F                pop edi
00005276  52                push edx
00005277  625F74            bound ebx,[edi+0x74]
0000527A  7265              jc 0x52e1
0000527C  6549              gs dec ecx
0000527E  69537434706169    imul edx,[ebx+0x74],dword 0x69617034
00005285  7249              jc 0x52d0
00005287  4B                dec ebx
00005288  69694553743130    imul ebp,[ecx+0x45],dword 0x30317453
0000528F  5F                pop edi
00005290  53                push ebx
00005291  656C              gs insb
00005293  6563743173        arpl [gs:ecx+esi+0x73],si
00005298  7449              jz 0x52e3
0000529A  53                push ebx
0000529B  325F45            xor bl,[edi+0x45]
0000529E  53                push ebx
0000529F  7434              jz 0x52d5
000052A1  6C                insb
000052A2  657373            gs jnc 0x5318
000052A5  49                dec ecx
000052A6  69455361495332    imul eax,[ebp+0x53],dword 0x32534961
000052AD  5F                pop edi
000052AE  45                inc ebp
000052AF  45                inc ebp
000052B0  35636C6561        xor eax,0x61656c63
000052B5  7245              jc 0x52fc
000052B7  7600              jna 0x52b9
000052B9  5F                pop edi
000052BA  5A                pop edx
000052BB  4E                dec esi
000052BC  4B                dec ebx
000052BD  53                push ebx
000052BE  7434              jz 0x52f4
000052C0  6C                insb
000052C1  657373            gs jnc 0x5337
000052C4  49                dec ecx
000052C5  6945636C45524B    imul eax,[ebp+0x63],dword 0x4b52456c
000052CC  6953325F005F5A    imul edx,[ebx+0x32],dword 0x5a5f005f
000052D3  4E                dec esi
000052D4  4B                dec ebx
000052D5  53                push ebx
000052D6  7438              jz 0x5310
000052D8  5F                pop edi
000052D9  52                push edx
000052DA  625F74            bound ebx,[edi+0x74]
000052DD  7265              jc 0x5344
000052DF  6549              gs dec ecx
000052E1  69537434706169    imul edx,[ebx+0x74],dword 0x69617034
000052E8  7249              jc 0x5333
000052EA  4B                dec ebx
000052EB  69694553743130    imul ebp,[ecx+0x45],dword 0x30317453
000052F2  5F                pop edi
000052F3  53                push ebx
000052F4  656C              gs insb
000052F6  6563743173        arpl [gs:ecx+esi+0x73],si
000052FB  7449              jz 0x5346
000052FD  53                push ebx
000052FE  325F45            xor bl,[edi+0x45]
00005301  53                push ebx
00005302  7434              jz 0x5338
00005304  6C                insb
00005305  657373            gs jnc 0x537b
00005308  49                dec ecx
00005309  69455361495332    imul eax,[ebp+0x53],dword 0x32534961
00005310  5F                pop edi
00005311  45                inc ebp
00005312  45                inc ebp
00005313  3133              xor [ebx],esi
00005315  6765745F          gs a16 jz 0x5378
00005319  61                popa
0000531A  6C                insb
0000531B  6C                insb
0000531C  6F                outsd
0000531D  636174            arpl [ecx+0x74],sp
00005320  6F                outsd
00005321  7245              jc 0x5368
00005323  7600              jna 0x5325
00005325  5F                pop edi
00005326  5A                pop edx
00005327  4E                dec esi
00005328  53                push ebx
00005329  7438              jz 0x5363
0000532B  5F                pop edi
0000532C  52                push edx
0000532D  625F74            bound ebx,[edi+0x74]
00005330  7265              jc 0x5397
00005332  6549              gs dec ecx
00005334  69537434706169    imul edx,[ebx+0x74],dword 0x69617034
0000533B  7249              jc 0x5386
0000533D  4B                dec ebx
0000533E  69694553743130    imul ebp,[ecx+0x45],dword 0x30317453
00005345  5F                pop edi
00005346  53                push ebx
00005347  656C              gs insb
00005349  6563743173        arpl [gs:ecx+esi+0x73],si
0000534E  7449              jz 0x5399
00005350  53                push ebx
00005351  325F45            xor bl,[edi+0x45]
00005354  53                push ebx
00005355  7434              jz 0x538b
00005357  6C                insb
00005358  657373            gs jnc 0x53ce
0000535B  49                dec ecx
0000535C  69455361495332    imul eax,[ebp+0x53],dword 0x32534961
00005363  5F                pop edi
00005364  45                inc ebp
00005365  45                inc ebp
00005366  3133              xor [ebx],esi
00005368  5F                pop edi
00005369  52                push edx
0000536A  625F74            bound ebx,[edi+0x74]
0000536D  7265              jc 0x53d4
0000536F  655F              gs pop edi
00005371  696D706C495336    imul ebp,[ebp+0x70],dword 0x3653496c
00005378  5F                pop edi
00005379  4C                dec esp
0000537A  6230              bound esi,[eax]
0000537C  45                inc ebp
0000537D  45                inc ebp
0000537E  44                inc esp
0000537F  324576            xor al,[ebp+0x76]
00005382  005F5A            add [edi+0x5a],bl
00005385  4E                dec esi
00005386  53                push ebx
00005387  61                popa
00005388  49                dec ecx
00005389  53                push ebx
0000538A  7434              jz 0x53c0
0000538C  7061              jo 0x53ef
0000538E  6972494B696945    imul esi,[edx+0x49],dword 0x4569694b
00005395  45                inc ebp
00005396  43                inc ebx
00005397  324953            xor cl,[ecx+0x53]
0000539A  7431              jz 0x53cd
0000539C  335F52            xor ebx,[edi+0x52]
0000539F  625F74            bound ebx,[edi+0x74]
000053A2  7265              jc 0x5409
000053A4  655F              gs pop edi
000053A6  6E                outsb
000053A7  6F                outsd
000053A8  646549            gs dec ecx
000053AB  53                push ebx
000053AC  315F45            xor [edi+0x45],ebx
000053AF  45                inc ebp
000053B0  45                inc ebp
000053B1  52                push edx
000053B2  4B                dec ebx
000053B3  53                push ebx
000053B4  61                popa
000053B5  49                dec ecx
000053B6  54                push esp
000053B7  5F                pop edi
000053B8  45                inc ebp
000053B9  005F5A            add [edi+0x5a],bl
000053BC  4E                dec esi
000053BD  395F5F            cmp [edi+0x5f],ebx
000053C0  676E              a16 outsb
000053C2  755F              jnz 0x5423
000053C4  637878            arpl [eax+0x78],di
000053C7  3133              xor [ebx],esi
000053C9  6E                outsb
000053CA  65775F            gs ja 0x542c
000053CD  61                popa
000053CE  6C                insb
000053CF  6C                insb
000053D0  6F                outsd
000053D1  636174            arpl [ecx+0x74],sp
000053D4  6F                outsd
000053D5  7249              jc 0x5420
000053D7  53                push ebx
000053D8  7434              jz 0x540e
000053DA  7061              jo 0x543d
000053DC  6972494B696945    imul esi,[edx+0x49],dword 0x4569694b
000053E3  45                inc ebp
000053E4  43                inc ebx
000053E5  314576            xor [ebp+0x76],eax
000053E8  005F5A            add [edi+0x5a],bl
000053EB  4E                dec esi
000053EC  53                push ebx
000053ED  7438              jz 0x5427
000053EF  5F                pop edi
000053F0  52                push edx
000053F1  625F74            bound ebx,[edi+0x74]
000053F4  7265              jc 0x545b
000053F6  6549              gs dec ecx
000053F8  69537434706169    imul edx,[ebx+0x74],dword 0x69617034
000053FF  7249              jc 0x544a
00005401  4B                dec ebx
00005402  69694553743130    imul ebp,[ecx+0x45],dword 0x30317453
00005409  5F                pop edi
0000540A  53                push ebx
0000540B  656C              gs insb
0000540D  6563743173        arpl [gs:ecx+esi+0x73],si
00005412  7449              jz 0x545d
00005414  53                push ebx
00005415  325F45            xor bl,[edi+0x45]
00005418  53                push ebx
00005419  7434              jz 0x544f
0000541B  6C                insb
0000541C  657373            gs jnc 0x5492
0000541F  49                dec ecx
00005420  69455361495332    imul eax,[ebp+0x53],dword 0x32534961
00005427  5F                pop edi
00005428  45                inc ebp
00005429  45                inc ebp
0000542A  44                inc esp
0000542B  324576            xor al,[ebp+0x76]
0000542E  005F5A            add [edi+0x5a],bl
00005431  4E                dec esi
00005432  395F5F            cmp [edi+0x5f],ebx
00005435  676E              a16 outsb
00005437  755F              jnz 0x5498
00005439  637878            arpl [eax+0x78],di
0000543C  3133              xor [ebx],esi
0000543E  6E                outsb
0000543F  65775F            gs ja 0x54a1
00005442  61                popa
00005443  6C                insb
00005444  6C                insb
00005445  6F                outsd
00005446  636174            arpl [ecx+0x74],sp
00005449  6F                outsd
0000544A  7249              jc 0x5495
0000544C  53                push ebx
0000544D  7434              jz 0x5483
0000544F  7061              jo 0x54b2
00005451  6972494B696945    imul esi,[edx+0x49],dword 0x4569694b
00005458  45                inc ebp
00005459  44                inc esp
0000545A  324576            xor al,[ebp+0x76]
0000545D  005F5A            add [edi+0x5a],bl
00005460  4E                dec esi
00005461  53                push ebx
00005462  61                popa
00005463  49                dec ecx
00005464  53                push ebx
00005465  7431              jz 0x5498
00005467  335F52            xor ebx,[edi+0x52]
0000546A  625F74            bound ebx,[edi+0x74]
0000546D  7265              jc 0x54d4
0000546F  655F              gs pop edi
00005471  6E                outsb
00005472  6F                outsd
00005473  646549            gs dec ecx
00005476  53                push ebx
00005477  7434              jz 0x54ad
00005479  7061              jo 0x54dc
0000547B  6972494B696945    imul esi,[edx+0x49],dword 0x4569694b
00005482  45                inc ebp
00005483  45                inc ebp
00005484  43                inc ebx
00005485  324576            xor al,[ebp+0x76]
00005488  005F5A            add [edi+0x5a],bl
0000548B  4E                dec esi
0000548C  395F5F            cmp [edi+0x5f],ebx
0000548F  676E              a16 outsb
00005491  755F              jnz 0x54f2
00005493  637878            arpl [eax+0x78],di
00005496  3133              xor [ebx],esi
00005498  6E                outsb
00005499  65775F            gs ja 0x54fb
0000549C  61                popa
0000549D  6C                insb
0000549E  6C                insb
0000549F  6F                outsd
000054A0  636174            arpl [ecx+0x74],sp
000054A3  6F                outsd
000054A4  7249              jc 0x54ef
000054A6  53                push ebx
000054A7  7431              jz 0x54da
000054A9  335F52            xor ebx,[edi+0x52]
000054AC  625F74            bound ebx,[edi+0x74]
000054AF  7265              jc 0x5516
000054B1  655F              gs pop edi
000054B3  6E                outsb
000054B4  6F                outsd
000054B5  646549            gs dec ecx
000054B8  53                push ebx
000054B9  7434              jz 0x54ef
000054BB  7061              jo 0x551e
000054BD  6972494B696945    imul esi,[edx+0x49],dword 0x4569694b
000054C4  45                inc ebp
000054C5  45                inc ebp
000054C6  38616C            cmp [ecx+0x6c],ah
000054C9  6C                insb
000054CA  6F                outsd
000054CB  636174            arpl [ecx+0x74],sp
000054CE  6545              gs inc ebp
000054D0  6A50              push byte +0x50
000054D2  4B                dec ebx
000054D3  7600              jna 0x54d5
000054D5  5F                pop edi
000054D6  5A                pop edx
000054D7  4E                dec esi
000054D8  4B                dec ebx
000054D9  53                push ebx
000054DA  7431              jz 0x550d
000054DC  37                aaa
000054DD  5F                pop edi
000054DE  52                push edx
000054DF  625F74            bound ebx,[edi+0x74]
000054E2  7265              jc 0x5549
000054E4  655F              gs pop edi
000054E6  6974657261746F72  imul esi,[ebp+0x72],dword 0x726f7461
000054EE  49                dec ecx
000054EF  53                push ebx
000054F0  7434              jz 0x5526
000054F2  7061              jo 0x5555
000054F4  6972494B696945    imul esi,[edx+0x49],dword 0x4569694b
000054FB  45                inc ebp
000054FC  6E                outsb
000054FD  6545              gs inc ebp
000054FF  52                push edx
00005500  4B                dec ebx
00005501  53                push ebx
00005502  335F00            xor ebx,[edi+0x0]
00005505  5F                pop edi
00005506  5A                pop edx
00005507  4E                dec esi
00005508  4B                dec ebx
00005509  53                push ebx
0000550A  7438              jz 0x5544
0000550C  5F                pop edi
0000550D  52                push edx
0000550E  625F74            bound ebx,[edi+0x74]
00005511  7265              jc 0x5578
00005513  6549              gs dec ecx
00005515  69537434706169    imul edx,[ebx+0x74],dword 0x69617034
0000551C  7249              jc 0x5567
0000551E  4B                dec ebx
0000551F  69694553743130    imul ebp,[ecx+0x45],dword 0x30317453
00005526  5F                pop edi
00005527  53                push ebx
00005528  656C              gs insb
0000552A  6563743173        arpl [gs:ecx+esi+0x73],si
0000552F  7449              jz 0x557a
00005531  53                push ebx
00005532  325F45            xor bl,[edi+0x45]
00005535  53                push ebx
00005536  7434              jz 0x556c
00005538  6C                insb
00005539  657373            gs jnc 0x55af
0000553C  49                dec ecx
0000553D  69455361495332    imul eax,[ebp+0x53],dword 0x32534961
00005544  5F                pop edi
00005545  45                inc ebp
00005546  45                inc ebp
00005547  386B65            cmp [ebx+0x65],ch
0000554A  795F              jns 0x55ab
0000554C  636F6D            arpl [edi+0x6d],bp
0000554F  7045              jo 0x5596
00005551  7600              jna 0x5553
00005553  5F                pop edi
00005554  5A                pop edx
00005555  4E                dec esi
00005556  53                push ebx
00005557  7438              jz 0x5591
00005559  5F                pop edi
0000555A  52                push edx
0000555B  625F74            bound ebx,[edi+0x74]
0000555E  7265              jc 0x55c5
00005560  6549              gs dec ecx
00005562  69537434706169    imul edx,[ebx+0x74],dword 0x69617034
00005569  7249              jc 0x55b4
0000556B  4B                dec ebx
0000556C  69694553743130    imul ebp,[ecx+0x45],dword 0x30317453
00005573  5F                pop edi
00005574  53                push ebx
00005575  656C              gs insb
00005577  6563743173        arpl [gs:ecx+esi+0x73],si
0000557C  7449              jz 0x55c7
0000557E  53                push ebx
0000557F  325F45            xor bl,[edi+0x45]
00005582  53                push ebx
00005583  7434              jz 0x55b9
00005585  6C                insb
00005586  657373            gs jnc 0x55fc
00005589  49                dec ecx
0000558A  69455361495332    imul eax,[ebp+0x53],dword 0x32534961
00005591  5F                pop edi
00005592  45                inc ebp
00005593  45                inc ebp
00005594  3466              xor al,0x66
00005596  696E6445525331    imul ebp,[esi+0x64],dword 0x31535245
0000559D  5F                pop edi
0000559E  005F5A            add [edi+0x5a],bl
000055A1  4E                dec esi
000055A2  53                push ebx
000055A3  7438              jz 0x55dd
000055A5  5F                pop edi
000055A6  52                push edx
000055A7  625F74            bound ebx,[edi+0x74]
000055AA  7265              jc 0x5611
000055AC  6549              gs dec ecx
000055AE  69537434706169    imul edx,[ebx+0x74],dword 0x69617034
000055B5  7249              jc 0x5600
000055B7  4B                dec ebx
000055B8  69694553743130    imul ebp,[ecx+0x45],dword 0x30317453
000055BF  5F                pop edi
000055C0  53                push ebx
000055C1  656C              gs insb
000055C3  6563743173        arpl [gs:ecx+esi+0x73],si
000055C8  7449              jz 0x5613
000055CA  53                push ebx
000055CB  325F45            xor bl,[edi+0x45]
000055CE  53                push ebx
000055CF  7434              jz 0x5605
000055D1  6C                insb
000055D2  657373            gs jnc 0x5648
000055D5  49                dec ecx
000055D6  69455361495332    imul eax,[ebp+0x53],dword 0x32534961
000055DD  5F                pop edi
000055DE  45                inc ebp
000055DF  45                inc ebp
000055E0  385F4D            cmp [edi+0x4d],bl
000055E3  5F                pop edi
000055E4  626567            bound esp,[ebp+0x67]
000055E7  696E4576006100    imul ebp,[esi+0x45],dword 0x610076
000055EE  7374              jnc 0x5664
000055F0  005F5A            add [edi+0x5a],bl
000055F3  4E                dec esi
000055F4  53                push ebx
000055F5  7438              jz 0x562f
000055F7  5F                pop edi
000055F8  52                push edx
000055F9  625F74            bound ebx,[edi+0x74]
000055FC  7265              jc 0x5663
000055FE  6549              gs dec ecx
00005600  69537434706169    imul edx,[ebx+0x74],dword 0x69617034
00005607  7249              jc 0x5652
00005609  4B                dec ebx
0000560A  69694553743130    imul ebp,[ecx+0x45],dword 0x30317453
00005611  5F                pop edi
00005612  53                push ebx
00005613  656C              gs insb
00005615  6563743173        arpl [gs:ecx+esi+0x73],si
0000561A  7449              jz 0x5665
0000561C  53                push ebx
0000561D  325F45            xor bl,[edi+0x45]
00005620  53                push ebx
00005621  7434              jz 0x5657
00005623  6C                insb
00005624  657373            gs jnc 0x569a
00005627  49                dec ecx
00005628  69455361495332    imul eax,[ebp+0x53],dword 0x32534961
0000562F  5F                pop edi
00005630  45                inc ebp
00005631  45                inc ebp
00005632  385F53            cmp [edi+0x53],bl
00005635  5F                pop edi
00005636  7269              jc 0x56a1
00005638  676874455053      a16 push dword 0x53504574
0000563E  7431              jz 0x5671
00005640  385F52            cmp [edi+0x52],bl
00005643  625F74            bound ebx,[edi+0x74]
00005646  7265              jc 0x56ad
00005648  655F              gs pop edi
0000564A  6E                outsb
0000564B  6F                outsd
0000564C  64655F            gs pop edi
0000564F  626173            bound esp,[ecx+0x73]
00005652  65005F5F          add [gs:edi+0x5f],bl
00005656  54                push esp
00005657  4D                dec ebp
00005658  43                inc ebx
00005659  5F                pop edi
0000565A  45                inc ebp
0000565B  4E                dec esi
0000565C  44                inc esp
0000565D  5F                pop edi
0000565E  5F                pop edi
0000565F  005F5A            add [edi+0x5a],bl
00005662  4E                dec esi
00005663  53                push ebx
00005664  7438              jz 0x569e
00005666  5F                pop edi
00005667  52                push edx
00005668  625F74            bound ebx,[edi+0x74]
0000566B  7265              jc 0x56d2
0000566D  6549              gs dec ecx
0000566F  69537434706169    imul edx,[ebx+0x74],dword 0x69617034
00005676  7249              jc 0x56c1
00005678  4B                dec ebx
00005679  69694553743130    imul ebp,[ecx+0x45],dword 0x30317453
00005680  5F                pop edi
00005681  53                push ebx
00005682  656C              gs insb
00005684  6563743173        arpl [gs:ecx+esi+0x73],si
00005689  7449              jz 0x56d4
0000568B  53                push ebx
0000568C  325F45            xor bl,[edi+0x45]
0000568F  53                push ebx
00005690  7434              jz 0x56c6
00005692  6C                insb
00005693  657373            gs jnc 0x5709
00005696  49                dec ecx
00005697  69455361495332    imul eax,[ebp+0x53],dword 0x32534961
0000569E  5F                pop edi
0000569F  45                inc ebp
000056A0  45                inc ebp
000056A1  365F              ss pop edi
000056A3  53                push ebx
000056A4  5F                pop edi
000056A5  6B657945          imul esp,[ebp+0x79],byte +0x45
000056A9  50                push eax
000056AA  4B                dec ebx
000056AB  53                push ebx
000056AC  7431              jz 0x56df
000056AE  335F52            xor ebx,[edi+0x52]
000056B1  625F74            bound ebx,[edi+0x74]
000056B4  7265              jc 0x571b
000056B6  655F              gs pop edi
000056B8  6E                outsb
000056B9  6F                outsd
000056BA  646549            gs dec ecx
000056BD  53                push ebx
000056BE  325F45            xor bl,[edi+0x45]
000056C1  006672            add [esi+0x72],ah
000056C4  656F              gs outsd
000056C6  7065              jo 0x572d
000056C8  6E                outsb
000056C9  40                inc eax
000056CA  40                inc eax
000056CB  47                inc edi
000056CC  4C                dec esp
000056CD  49                dec ecx
000056CE  42                inc edx
000056CF  43                inc ebx
000056D0  5F                pop edi
000056D1  322E              xor ch,[esi]
000056D3  3000              xor [eax],al
000056D5  5F                pop edi
000056D6  5F                pop edi
000056D7  64736F            fs jnc 0x5749
000056DA  5F                pop edi
000056DB  68616E646C        push dword 0x6c646e61
000056E0  65005F5A          add [gs:edi+0x5a],bl
000056E4  4E                dec esi
000056E5  395F5F            cmp [edi+0x5f],ebx
000056E8  676E              a16 outsb
000056EA  755F              jnz 0x574b
000056EC  637878            arpl [eax+0x78],di
000056EF  3133              xor [ebx],esi
000056F1  6E                outsb
000056F2  65775F            gs ja 0x5754
000056F5  61                popa
000056F6  6C                insb
000056F7  6C                insb
000056F8  6F                outsd
000056F9  636174            arpl [ecx+0x74],sp
000056FC  6F                outsd
000056FD  7249              jc 0x5748
000056FF  53                push ebx
00005700  7434              jz 0x5736
00005702  7061              jo 0x5765
00005704  6972494B696945    imul esi,[edx+0x49],dword 0x4569694b
0000570B  45                inc ebp
0000570C  43                inc ebx
0000570D  324576            xor al,[ebp+0x76]
00005710  005F5A            add [edi+0x5a],bl
00005713  4E                dec esi
00005714  53                push ebx
00005715  7431              jz 0x5748
00005717  37                aaa
00005718  5F                pop edi
00005719  52                push edx
0000571A  625F74            bound ebx,[edi+0x74]
0000571D  7265              jc 0x5784
0000571F  655F              gs pop edi
00005721  6974657261746F72  imul esi,[ebp+0x72],dword 0x726f7461
00005729  49                dec ecx
0000572A  53                push ebx
0000572B  7434              jz 0x5761
0000572D  7061              jo 0x5790
0000572F  6972494B696945    imul esi,[edx+0x49],dword 0x4569694b
00005736  45                inc ebp
00005737  7070              jo 0x57a9
00005739  45                inc ebp
0000573A  7600              jna 0x573c
0000573C  5F                pop edi
0000573D  5F                pop edi
0000573E  44                inc esp
0000573F  54                push esp
00005740  4F                dec edi
00005741  52                push edx
00005742  5F                pop edi
00005743  45                inc ebp
00005744  4E                dec esi
00005745  44                inc esp
00005746  5F                pop edi
00005747  5F                pop edi
00005748  005F5F            add [edi+0x5f],bl
0000574B  6C                insb
0000574C  6962635F637375    imul esp,[edx+0x63],dword 0x7573635f
00005753  5F                pop edi
00005754  696E6974007072    imul ebp,[esi+0x69],dword 0x72700074
0000575B  696E7466404047    imul ebp,[esi+0x74],dword 0x47404066
00005762  4C                dec esp
00005763  49                dec ecx
00005764  42                inc edx
00005765  43                inc ebx
00005766  5F                pop edi
00005767  322E              xor ch,[esi]
00005769  3000              xor [eax],al
0000576B  5F                pop edi
0000576C  5A                pop edx
0000576D  4E                dec esi
0000576E  53                push ebx
0000576F  61                popa
00005770  49                dec ecx
00005771  53                push ebx
00005772  7431              jz 0x57a5
00005774  335F52            xor ebx,[edi+0x52]
00005777  625F74            bound ebx,[edi+0x74]
0000577A  7265              jc 0x57e1
0000577C  655F              gs pop edi
0000577E  6E                outsb
0000577F  6F                outsd
00005780  646549            gs dec ecx
00005783  53                push ebx
00005784  7434              jz 0x57ba
00005786  7061              jo 0x57e9
00005788  6972494B696945    imul esi,[edx+0x49],dword 0x4569694b
0000578F  45                inc ebp
00005790  45                inc ebp
00005791  44                inc esp
00005792  314576            xor [ebp+0x76],eax
00005795  005F5A            add [edi+0x5a],bl
00005798  4E                dec esi
00005799  395F5F            cmp [edi+0x5f],ebx
0000579C  676E              a16 outsb
0000579E  755F              jnz 0x57ff
000057A0  637878            arpl [eax+0x78],di
000057A3  3133              xor [ebx],esi
000057A5  6E                outsb
000057A6  65775F            gs ja 0x5808
000057A9  61                popa
000057AA  6C                insb
000057AB  6C                insb
000057AC  6F                outsd
000057AD  636174            arpl [ecx+0x74],sp
000057B0  6F                outsd
000057B1  7249              jc 0x57fc
000057B3  53                push ebx
000057B4  7434              jz 0x57ea
000057B6  7061              jo 0x5819
000057B8  6972494B696945    imul esi,[edx+0x49],dword 0x4569694b
000057BF  45                inc ebp
000057C0  44                inc esp
000057C1  314576            xor [ebp+0x76],eax
000057C4  005F5A            add [edi+0x5a],bl
000057C7  4E                dec esi
000057C8  53                push ebx
000057C9  7438              jz 0x5803
000057CB  5F                pop edi
000057CC  52                push edx
000057CD  625F74            bound ebx,[edi+0x74]
000057D0  7265              jc 0x5837
000057D2  6549              gs dec ecx
000057D4  69537434706169    imul edx,[ebx+0x74],dword 0x69617034
000057DB  7249              jc 0x5826
000057DD  4B                dec ebx
000057DE  69694553743130    imul ebp,[ecx+0x45],dword 0x30317453
000057E5  5F                pop edi
000057E6  53                push ebx
000057E7  656C              gs insb
000057E9  6563743173        arpl [gs:ecx+esi+0x73],si
000057EE  7449              jz 0x5839
000057F0  53                push ebx
000057F1  325F45            xor bl,[edi+0x45]
000057F4  53                push ebx
000057F5  7434              jz 0x582b
000057F7  6C                insb
000057F8  657373            gs jnc 0x586e
000057FB  49                dec ecx
000057FC  69455361495332    imul eax,[ebp+0x53],dword 0x32534961
00005803  5F                pop edi
00005804  45                inc ebp
00005805  45                inc ebp
00005806  31355F4D5F64      xor [0x645f4d5f],esi
0000580C  657374            gs jnc 0x5883
0000580F  726F              jc 0x5880
00005811  795F              jns 0x5872
00005813  6E                outsb
00005814  6F                outsd
00005815  646545            gs inc ebp
00005818  50                push eax
00005819  53                push ebx
0000581A  7431              jz 0x584d
0000581C  335F52            xor ebx,[edi+0x52]
0000581F  625F74            bound ebx,[edi+0x74]
00005822  7265              jc 0x5889
00005824  655F              gs pop edi
00005826  6E                outsb
00005827  6F                outsd
00005828  646549            gs dec ecx
0000582B  53                push ebx
0000582C  325F45            xor bl,[edi+0x45]
0000582F  005F5A            add [edi+0x5a],bl
00005832  53                push ebx
00005833  7431              jz 0x5866
00005835  315F5F            xor [edi+0x5f],ebx
00005838  61                popa
00005839  64647265          fs jc 0x58a2
0000583D  7373              jnc 0x58b2
0000583F  6F                outsd
00005840  6649              dec cx
00005842  53                push ebx
00005843  7434              jz 0x5879
00005845  7061              jo 0x58a8
00005847  6972494B696945    imul esi,[edx+0x49],dword 0x4569694b
0000584E  45                inc ebp
0000584F  50                push eax
00005850  54                push esp
00005851  5F                pop edi
00005852  52                push edx
00005853  53                push ebx
00005854  335F00            xor ebx,[edi+0x0]
00005857  5F                pop edi
00005858  5A                pop edx
00005859  6E                outsb
0000585A  776A              ja 0x58c6
0000585C  40                inc eax
0000585D  40                inc eax
0000585E  47                inc edi
0000585F  4C                dec esp
00005860  49                dec ecx
00005861  42                inc edx
00005862  43                inc ebx
00005863  58                pop eax
00005864  58                pop eax
00005865  5F                pop edi
00005866  332E              xor ebp,[esi]
00005868  3400              xor al,0x0
0000586A  5F                pop edi
0000586B  5A                pop edx
0000586C  4E                dec esi
0000586D  53                push ebx
0000586E  61                popa
0000586F  49                dec ecx
00005870  53                push ebx
00005871  7431              jz 0x58a4
00005873  335F52            xor ebx,[edi+0x52]
00005876  625F74            bound ebx,[edi+0x74]
00005879  7265              jc 0x58e0
0000587B  655F              gs pop edi
0000587D  6E                outsb
0000587E  6F                outsd
0000587F  646549            gs dec ecx
00005882  53                push ebx
00005883  7434              jz 0x58b9
00005885  7061              jo 0x58e8
00005887  6972494B696945    imul esi,[edx+0x49],dword 0x4569694b
0000588E  45                inc ebp
0000588F  45                inc ebp
00005890  44                inc esp
00005891  324576            xor al,[ebp+0x76]
00005894  005F5A            add [edi+0x5a],bl
00005897  4E                dec esi
00005898  53                push ebx
00005899  61                popa
0000589A  49                dec ecx
0000589B  53                push ebx
0000589C  7431              jz 0x58cf
0000589E  335F52            xor ebx,[edi+0x52]
000058A1  625F74            bound ebx,[edi+0x74]
000058A4  7265              jc 0x590b
000058A6  655F              gs pop edi
000058A8  6E                outsb
000058A9  6F                outsd
000058AA  646549            gs dec ecx
000058AD  53                push ebx
000058AE  7434              jz 0x58e4
000058B0  7061              jo 0x5913
000058B2  6972494B696945    imul esi,[edx+0x49],dword 0x4569694b
000058B9  45                inc ebp
000058BA  45                inc ebp
000058BB  43                inc ebx
000058BC  314576            xor [ebp+0x76],eax
000058BF  005F5A            add [edi+0x5a],bl
000058C2  4E                dec esi
000058C3  53                push ebx
000058C4  7433              jz 0x58f9
000058C6  6D                insd
000058C7  61                popa
000058C8  7049              jo 0x5913
000058CA  69695374346C65    imul ebp,[ecx+0x53],dword 0x656c3474
000058D1  7373              jnc 0x5946
000058D3  49                dec ecx
000058D4  69455361495374    imul eax,[ebp+0x53],dword 0x74534961
000058DB  3470              xor al,0x70
000058DD  61                popa
000058DE  6972494B696945    imul esi,[edx+0x49],dword 0x4569694b
000058E5  45                inc ebp
000058E6  45                inc ebp
000058E7  43                inc ebx
000058E8  314576            xor [ebp+0x76],eax
000058EB  005F5A            add [edi+0x5a],bl
000058EE  4E                dec esi
000058EF  53                push ebx
000058F0  7433              jz 0x5925
000058F2  6D                insd
000058F3  61                popa
000058F4  7049              jo 0x593f
000058F6  69695374346C65    imul ebp,[ecx+0x53],dword 0x656c3474
000058FD  7373              jnc 0x5972
000058FF  49                dec ecx
00005900  69455361495374    imul eax,[ebp+0x53],dword 0x74534961
00005907  3470              xor al,0x70
00005909  61                popa
0000590A  6972494B696945    imul esi,[edx+0x49],dword 0x4569694b
00005911  45                inc ebp
00005912  45                inc ebp
00005913  44                inc esp
00005914  324576            xor al,[ebp+0x76]
00005917  005F5A            add [edi+0x5a],bl
0000591A  4E                dec esi
0000591B  53                push ebx
0000591C  7432              jz 0x5950
0000591E  335F52            xor ebx,[edi+0x52]
00005921  625F74            bound ebx,[edi+0x74]
00005924  7265              jc 0x598b
00005926  655F              gs pop edi
00005928  636F6E            arpl [edi+0x6e],bp
0000592B  7374              jnc 0x59a1
0000592D  5F                pop edi
0000592E  6974657261746F72  imul esi,[ebp+0x72],dword 0x726f7461
00005936  49                dec ecx
00005937  53                push ebx
00005938  7434              jz 0x596e
0000593A  7061              jo 0x599d
0000593C  6972494B696945    imul esi,[edx+0x49],dword 0x4569694b
00005943  45                inc ebp
00005944  43                inc ebx
00005945  314552            xor [ebp+0x52],eax
00005948  4B                dec ebx
00005949  53                push ebx
0000594A  7431              jz 0x597d
0000594C  37                aaa
0000594D  5F                pop edi
0000594E  52                push edx
0000594F  625F74            bound ebx,[edi+0x74]
00005952  7265              jc 0x59b9
00005954  655F              gs pop edi
00005956  6974657261746F72  imul esi,[ebp+0x72],dword 0x726f7461
0000595E  49                dec ecx
0000595F  53                push ebx
00005960  325F45            xor bl,[edi+0x45]
00005963  005F5A            add [edi+0x5a],bl
00005966  4E                dec esi
00005967  53                push ebx
00005968  7438              jz 0x59a2
0000596A  5F                pop edi
0000596B  52                push edx
0000596C  625F74            bound ebx,[edi+0x74]
0000596F  7265              jc 0x59d6
00005971  6549              gs dec ecx
00005973  69537434706169    imul edx,[ebx+0x74],dword 0x69617034
0000597A  7249              jc 0x59c5
0000597C  4B                dec ebx
0000597D  69694553743130    imul ebp,[ecx+0x45],dword 0x30317453
00005984  5F                pop edi
00005985  53                push ebx
00005986  656C              gs insb
00005988  6563743173        arpl [gs:ecx+esi+0x73],si
0000598D  7449              jz 0x59d8
0000598F  53                push ebx
00005990  325F45            xor bl,[edi+0x45]
00005993  53                push ebx
00005994  7434              jz 0x59ca
00005996  6C                insb
00005997  657373            gs jnc 0x5a0d
0000599A  49                dec ecx
0000599B  69455361495332    imul eax,[ebp+0x53],dword 0x32534961
000059A2  5F                pop edi
000059A3  45                inc ebp
000059A4  45                inc ebp
000059A5  3131              xor [ecx],esi
000059A7  5F                pop edi
000059A8  4D                dec ebp
000059A9  5F                pop edi
000059AA  7075              jo 0x5a21
000059AC  745F              jz 0x5a0d
000059AE  6E                outsb
000059AF  6F                outsd
000059B0  646545            gs inc ebp
000059B3  50                push eax
000059B4  53                push ebx
000059B5  7431              jz 0x59e8
000059B7  335F52            xor ebx,[edi+0x52]
000059BA  625F74            bound ebx,[edi+0x74]
000059BD  7265              jc 0x5a24
000059BF  655F              gs pop edi
000059C1  6E                outsb
000059C2  6F                outsd
000059C3  646549            gs dec ecx
000059C6  53                push ebx
000059C7  325F45            xor bl,[edi+0x45]
000059CA  005F5F            add [edi+0x5f],bl
000059CD  627373            bound esi,[ebx+0x73]
000059D0  5F                pop edi
000059D1  7374              jnc 0x5a47
000059D3  61                popa
000059D4  7274              jc 0x5a4a
000059D6  005F5A            add [edi+0x5a],bl
000059D9  53                push ebx
000059DA  7432              jz 0x5a0e
000059DC  395F52            cmp [edi+0x52],ebx
000059DF  625F74            bound ebx,[edi+0x74]
000059E2  7265              jc 0x5a49
000059E4  655F              gs pop edi
000059E6  696E736572745F    imul ebp,[esi+0x73],dword 0x5f747265
000059ED  61                popa
000059EE  6E                outsb
000059EF  645F              fs pop edi
000059F1  7265              jc 0x5a58
000059F3  62616C            bound esp,[ecx+0x6c]
000059F6  61                popa
000059F7  6E                outsb
000059F8  636562            arpl [ebp+0x62],sp
000059FB  50                push eax
000059FC  53                push ebx
000059FD  7431              jz 0x5a30
000059FF  385F52            cmp [edi+0x52],bl
00005A02  625F74            bound ebx,[edi+0x74]
00005A05  7265              jc 0x5a6c
00005A07  655F              gs pop edi
00005A09  6E                outsb
00005A0A  6F                outsd
00005A0B  64655F            gs pop edi
00005A0E  626173            bound esp,[ecx+0x73]
00005A11  6553              gs push ebx
00005A13  305F52            xor [edi+0x52],bl
00005A16  53                push ebx
00005A17  5F                pop edi
00005A18  40                inc eax
00005A19  40                inc eax
00005A1A  47                inc edi
00005A1B  4C                dec esp
00005A1C  49                dec ecx
00005A1D  42                inc edx
00005A1E  43                inc ebx
00005A1F  58                pop eax
00005A20  58                pop eax
00005A21  5F                pop edi
00005A22  332E              xor ebp,[esi]
00005A24  3400              xor al,0x0
00005A26  5F                pop edi
00005A27  5A                pop edx
00005A28  4E                dec esi
00005A29  53                push ebx
00005A2A  7438              jz 0x5a64
00005A2C  5F                pop edi
00005A2D  52                push edx
00005A2E  625F74            bound ebx,[edi+0x74]
00005A31  7265              jc 0x5a98
00005A33  6549              gs dec ecx
00005A35  69537434706169    imul edx,[ebx+0x74],dword 0x69617034
00005A3C  7249              jc 0x5a87
00005A3E  4B                dec ebx
00005A3F  69694553743130    imul ebp,[ecx+0x45],dword 0x30317453
00005A46  5F                pop edi
00005A47  53                push ebx
00005A48  656C              gs insb
00005A4A  6563743173        arpl [gs:ecx+esi+0x73],si
00005A4F  7449              jz 0x5a9a
00005A51  53                push ebx
00005A52  325F45            xor bl,[edi+0x45]
00005A55  53                push ebx
00005A56  7434              jz 0x5a8c
00005A58  6C                insb
00005A59  657373            gs jnc 0x5acf
00005A5C  49                dec ecx
00005A5D  69455361495332    imul eax,[ebp+0x53],dword 0x32534961
00005A64  5F                pop edi
00005A65  45                inc ebp
00005A66  45                inc ebp
00005A67  3239              xor bh,[ecx]
00005A69  5F                pop edi
00005A6A  4D                dec ebp
00005A6B  5F                pop edi
00005A6C  6765745F          gs a16 jz 0x5acf
00005A70  696E736572745F    imul ebp,[esi+0x73],dword 0x5f747265
00005A77  68696E745F        push dword 0x5f746e69
00005A7C  756E              jnz 0x5aec
00005A7E  697175655F706F    imul esi,[ecx+0x75],dword 0x6f705f65
00005A85  7345              jnc 0x5acc
00005A87  53                push ebx
00005A88  7432              jz 0x5abc
00005A8A  335F52            xor ebx,[edi+0x52]
00005A8D  625F74            bound ebx,[edi+0x74]
00005A90  7265              jc 0x5af7
00005A92  655F              gs pop edi
00005A94  636F6E            arpl [edi+0x6e],bp
00005A97  7374              jnc 0x5b0d
00005A99  5F                pop edi
00005A9A  6974657261746F72  imul esi,[ebp+0x72],dword 0x726f7461
00005AA2  49                dec ecx
00005AA3  53                push ebx
00005AA4  325F45            xor bl,[edi+0x45]
00005AA7  52                push edx
00005AA8  53                push ebx
00005AA9  315F00            xor [edi+0x0],ebx
00005AAC  5F                pop edi
00005AAD  5A                pop edx
00005AAE  4E                dec esi
00005AAF  53                push ebx
00005AB0  7438              jz 0x5aea
00005AB2  5F                pop edi
00005AB3  52                push edx
00005AB4  625F74            bound ebx,[edi+0x74]
00005AB7  7265              jc 0x5b1e
00005AB9  6549              gs dec ecx
00005ABB  69537434706169    imul edx,[ebx+0x74],dword 0x69617034
00005AC2  7249              jc 0x5b0d
00005AC4  4B                dec ebx
00005AC5  69694553743130    imul ebp,[ecx+0x45],dword 0x30317453
00005ACC  5F                pop edi
00005ACD  53                push ebx
00005ACE  656C              gs insb
00005AD0  6563743173        arpl [gs:ecx+esi+0x73],si
00005AD5  7449              jz 0x5b20
00005AD7  53                push ebx
00005AD8  325F45            xor bl,[edi+0x45]
00005ADB  53                push ebx
00005ADC  7434              jz 0x5b12
00005ADE  6C                insb
00005ADF  657373            gs jnc 0x5b55
00005AE2  49                dec ecx
00005AE3  69455361495332    imul eax,[ebp+0x53],dword 0x32534961
00005AEA  5F                pop edi
00005AEB  45                inc ebp
00005AEC  45                inc ebp
00005AED  3562656769        xor eax,0x69676562
00005AF2  6E                outsb
00005AF3  45                inc ebp
00005AF4  7600              jna 0x5af6
00005AF6  5F                pop edi
00005AF7  5A                pop edx
00005AF8  4E                dec esi
00005AF9  53                push ebx
00005AFA  7438              jz 0x5b34
00005AFC  5F                pop edi
00005AFD  52                push edx
00005AFE  625F74            bound ebx,[edi+0x74]
00005B01  7265              jc 0x5b68
00005B03  6549              gs dec ecx
00005B05  69537434706169    imul edx,[ebx+0x74],dword 0x69617034
00005B0C  7249              jc 0x5b57
00005B0E  4B                dec ebx
00005B0F  69694553743130    imul ebp,[ecx+0x45],dword 0x30317453
00005B16  5F                pop edi
00005B17  53                push ebx
00005B18  656C              gs insb
00005B1A  6563743173        arpl [gs:ecx+esi+0x73],si
00005B1F  7449              jz 0x5b6a
00005B21  53                push ebx
00005B22  325F45            xor bl,[edi+0x45]
00005B25  53                push ebx
00005B26  7434              jz 0x5b5c
00005B28  6C                insb
00005B29  657373            gs jnc 0x5b9f
00005B2C  49                dec ecx
00005B2D  69455361495332    imul eax,[ebp+0x53],dword 0x32534961
00005B34  5F                pop edi
00005B35  45                inc ebp
00005B36  45                inc ebp
00005B37  31345F            xor [edi+ebx*2],esi
00005B3A  4D                dec ebp
00005B3B  5F                pop edi
00005B3C  6C                insb
00005B3D  6F                outsd
00005B3E  7765              ja 0x5ba5
00005B40  725F              jc 0x5ba1
00005B42  626F75            bound ebp,[edi+0x75]
00005B45  6E                outsb
00005B46  6445              fs inc ebp
00005B48  50                push eax
00005B49  53                push ebx
00005B4A  7431              jz 0x5b7d
00005B4C  335F52            xor ebx,[edi+0x52]
00005B4F  625F74            bound ebx,[edi+0x74]
00005B52  7265              jc 0x5bb9
00005B54  655F              gs pop edi
00005B56  6E                outsb
00005B57  6F                outsd
00005B58  646549            gs dec ecx
00005B5B  53                push ebx
00005B5C  325F45            xor bl,[edi+0x45]
00005B5F  53                push ebx
00005B60  42                inc edx
00005B61  5F                pop edi
00005B62  52                push edx
00005B63  53                push ebx
00005B64  315F00            xor [edi+0x0],ebx
00005B67  5F                pop edi
00005B68  5A                pop edx
00005B69  4E                dec esi
00005B6A  53                push ebx
00005B6B  7438              jz 0x5ba5
00005B6D  5F                pop edi
00005B6E  52                push edx
00005B6F  625F74            bound ebx,[edi+0x74]
00005B72  7265              jc 0x5bd9
00005B74  6549              gs dec ecx
00005B76  69537434706169    imul edx,[ebx+0x74],dword 0x69617034
00005B7D  7249              jc 0x5bc8
00005B7F  4B                dec ebx
00005B80  69694553743130    imul ebp,[ecx+0x45],dword 0x30317453
00005B87  5F                pop edi
00005B88  53                push ebx
00005B89  656C              gs insb
00005B8B  6563743173        arpl [gs:ecx+esi+0x73],si
00005B90  7449              jz 0x5bdb
00005B92  53                push ebx
00005B93  325F45            xor bl,[edi+0x45]
00005B96  53                push ebx
00005B97  7434              jz 0x5bcd
00005B99  6C                insb
00005B9A  657373            gs jnc 0x5c10
00005B9D  49                dec ecx
00005B9E  69455361495332    imul eax,[ebp+0x53],dword 0x32534961
00005BA5  5F                pop edi
00005BA6  45                inc ebp
00005BA7  45                inc ebp
00005BA8  3132              xor [edx],esi
00005BAA  5F                pop edi
00005BAB  4D                dec ebp
00005BAC  5F                pop edi
00005BAD  7269              jc 0x5c18
00005BAF  6768746D6F73      a16 push dword 0x736f6d74
00005BB5  7445              jz 0x5bfc
00005BB7  7600              jna 0x5bb9
00005BB9  5F                pop edi
00005BBA  5A                pop edx
00005BBB  4E                dec esi
00005BBC  53                push ebx
00005BBD  7438              jz 0x5bf7
00005BBF  5F                pop edi
00005BC0  52                push edx
00005BC1  625F74            bound ebx,[edi+0x74]
00005BC4  7265              jc 0x5c2b
00005BC6  6549              gs dec ecx
00005BC8  69537434706169    imul edx,[ebx+0x74],dword 0x69617034
00005BCF  7249              jc 0x5c1a
00005BD1  4B                dec ebx
00005BD2  69694553743130    imul ebp,[ecx+0x45],dword 0x30317453
00005BD9  5F                pop edi
00005BDA  53                push ebx
00005BDB  656C              gs insb
00005BDD  6563743173        arpl [gs:ecx+esi+0x73],si
00005BE2  7449              jz 0x5c2d
00005BE4  53                push ebx
00005BE5  325F45            xor bl,[edi+0x45]
00005BE8  53                push ebx
00005BE9  7434              jz 0x5c1f
00005BEB  6C                insb
00005BEC  657373            gs jnc 0x5c62
00005BEF  49                dec ecx
00005BF0  69455361495332    imul eax,[ebp+0x53],dword 0x32534961
00005BF7  5F                pop edi
00005BF8  45                inc ebp
00005BF9  45                inc ebp
00005BFA  385F4D            cmp [edi+0x4d],bl
00005BFD  5F                pop edi
00005BFE  657261            gs jc 0x5c62
00005C01  7365              jnc 0x5c68
00005C03  45                inc ebp
00005C04  50                push eax
00005C05  53                push ebx
00005C06  7431              jz 0x5c39
00005C08  335F52            xor ebx,[edi+0x52]
00005C0B  625F74            bound ebx,[edi+0x74]
00005C0E  7265              jc 0x5c75
00005C10  655F              gs pop edi
00005C12  6E                outsb
00005C13  6F                outsd
00005C14  646549            gs dec ecx
00005C17  53                push ebx
00005C18  325F45            xor bl,[edi+0x45]
00005C1B  005F5A            add [edi+0x5a],bl
00005C1E  4E                dec esi
00005C1F  53                push ebx
00005C20  7438              jz 0x5c5a
00005C22  5F                pop edi
00005C23  52                push edx
00005C24  625F74            bound ebx,[edi+0x74]
00005C27  7265              jc 0x5c8e
00005C29  6549              gs dec ecx
00005C2B  69537434706169    imul edx,[ebx+0x74],dword 0x69617034
00005C32  7249              jc 0x5c7d
00005C34  4B                dec ebx
00005C35  69694553743130    imul ebp,[ecx+0x45],dword 0x30317453
00005C3C  5F                pop edi
00005C3D  53                push ebx
00005C3E  656C              gs insb
00005C40  6563743173        arpl [gs:ecx+esi+0x73],si
00005C45  7449              jz 0x5c90
00005C47  53                push ebx
00005C48  325F45            xor bl,[edi+0x45]
00005C4B  53                push ebx
00005C4C  7434              jz 0x5c82
00005C4E  6C                insb
00005C4F  657373            gs jnc 0x5cc5
00005C52  49                dec ecx
00005C53  69455361495332    imul eax,[ebp+0x53],dword 0x32534961
00005C5A  5F                pop edi
00005C5B  45                inc ebp
00005C5C  45                inc ebp
00005C5D  385F53            cmp [edi+0x53],bl
00005C60  5F                pop edi
00005C61  7661              jna 0x5cc4
00005C63  6C                insb
00005C64  7565              jnz 0x5ccb
00005C66  45                inc ebp
00005C67  50                push eax
00005C68  4B                dec ebx
00005C69  53                push ebx
00005C6A  7431              jz 0x5c9d
00005C6C  335F52            xor ebx,[edi+0x52]
00005C6F  625F74            bound ebx,[edi+0x74]
00005C72  7265              jc 0x5cd9
00005C74  655F              gs pop edi
00005C76  6E                outsb
00005C77  6F                outsd
00005C78  646549            gs dec ecx
00005C7B  53                push ebx
00005C7C  325F45            xor bl,[edi+0x45]
00005C7F  007374            add [ebx+0x74],dh
00005C82  64696E4040474C49  imul ebp,[fs:esi+0x40],dword 0x494c4740
00005C8A  42                inc edx
00005C8B  43                inc ebx
00005C8C  5F                pop edi
00005C8D  322E              xor ch,[esi]
00005C8F  3000              xor [eax],al
00005C91  5F                pop edi
00005C92  5A                pop edx
00005C93  4E                dec esi
00005C94  53                push ebx
00005C95  7438              jz 0x5ccf
00005C97  5F                pop edi
00005C98  52                push edx
00005C99  625F74            bound ebx,[edi+0x74]
00005C9C  7265              jc 0x5d03
00005C9E  6549              gs dec ecx
00005CA0  69537434706169    imul edx,[ebx+0x74],dword 0x69617034
00005CA7  7249              jc 0x5cf2
00005CA9  4B                dec ebx
00005CAA  69694553743130    imul ebp,[ecx+0x45],dword 0x30317453
00005CB1  5F                pop edi
00005CB2  53                push ebx
00005CB3  656C              gs insb
00005CB5  6563743173        arpl [gs:ecx+esi+0x73],si
00005CBA  7449              jz 0x5d05
00005CBC  53                push ebx
00005CBD  325F45            xor bl,[edi+0x45]
00005CC0  53                push ebx
00005CC1  7434              jz 0x5cf7
00005CC3  6C                insb
00005CC4  657373            gs jnc 0x5d3a
00005CC7  49                dec ecx
00005CC8  69455361495332    imul eax,[ebp+0x53],dword 0x32534961
00005CCF  5F                pop edi
00005CD0  45                inc ebp
00005CD1  45                inc ebp
00005CD2  33656E            xor esp,[ebp+0x6e]
00005CD5  6445              fs inc ebp
00005CD7  7600              jna 0x5cd9
00005CD9  5F                pop edi
00005CDA  5A                pop edx
00005CDB  4E                dec esi
00005CDC  53                push ebx
00005CDD  7438              jz 0x5d17
00005CDF  5F                pop edi
00005CE0  52                push edx
00005CE1  625F74            bound ebx,[edi+0x74]
00005CE4  7265              jc 0x5d4b
00005CE6  6549              gs dec ecx
00005CE8  69537434706169    imul edx,[ebx+0x74],dword 0x69617034
00005CEF  7249              jc 0x5d3a
00005CF1  4B                dec ebx
00005CF2  69694553743130    imul ebp,[ecx+0x45],dword 0x30317453
00005CF9  5F                pop edi
00005CFA  53                push ebx
00005CFB  656C              gs insb
00005CFD  6563743173        arpl [gs:ecx+esi+0x73],si
00005D02  7449              jz 0x5d4d
00005D04  53                push ebx
00005D05  325F45            xor bl,[edi+0x45]
00005D08  53                push ebx
00005D09  7434              jz 0x5d3f
00005D0B  6C                insb
00005D0C  657373            gs jnc 0x5d82
00005D0F  49                dec ecx
00005D10  69455361495332    imul eax,[ebp+0x53],dword 0x32534961
00005D17  5F                pop edi
00005D18  45                inc ebp
00005D19  45                inc ebp
00005D1A  3130              xor [eax],esi
00005D1C  5F                pop edi
00005D1D  4D                dec ebp
00005D1E  5F                pop edi
00005D1F  696E736572745F    imul ebp,[esi+0x73],dword 0x5f747265
00005D26  45                inc ebp
00005D27  50                push eax
00005D28  53                push ebx
00005D29  7431              jz 0x5d5c
00005D2B  385F52            cmp [edi+0x52],bl
00005D2E  625F74            bound ebx,[edi+0x74]
00005D31  7265              jc 0x5d98
00005D33  655F              gs pop edi
00005D35  6E                outsb
00005D36  6F                outsd
00005D37  64655F            gs pop edi
00005D3A  626173            bound esp,[ecx+0x73]
00005D3D  6553              gs push ebx
00005D3F  41                inc ecx
00005D40  5F                pop edi
00005D41  52                push edx
00005D42  4B                dec ebx
00005D43  53                push ebx
00005D44  325F00            xor bl,[edi+0x0]
00005D47  5F                pop edi
00005D48  5A                pop edx
00005D49  4E                dec esi
00005D4A  53                push ebx
00005D4B  7434              jz 0x5d81
00005D4D  7061              jo 0x5db0
00005D4F  69724950537431    imul esi,[edx+0x49],dword 0x31745350
00005D56  385F52            cmp [edi+0x52],bl
00005D59  625F74            bound ebx,[edi+0x74]
00005D5C  7265              jc 0x5dc3
00005D5E  655F              gs pop edi
00005D60  6E                outsb
00005D61  6F                outsd
00005D62  64655F            gs pop edi
00005D65  626173            bound esp,[ecx+0x73]
00005D68  6553              gs push ebx
00005D6A  315F45            xor [edi+0x45],ebx
00005D6D  43                inc ebx
00005D6E  314552            xor [ebp+0x52],eax
00005D71  4B                dec ebx
00005D72  53                push ebx
00005D73  315F53            xor [edi+0x53],ebx
00005D76  345F              xor al,0x5f
00005D78  005F5A            add [edi+0x5a],bl
00005D7B  4E                dec esi
00005D7C  53                push ebx
00005D7D  7433              jz 0x5db2
00005D7F  6D                insd
00005D80  61                popa
00005D81  7049              jo 0x5dcc
00005D83  69695374346C65    imul ebp,[ecx+0x53],dword 0x656c3474
00005D8A  7373              jnc 0x5dff
00005D8C  49                dec ecx
00005D8D  69455361495374    imul eax,[ebp+0x53],dword 0x74534961
00005D94  3470              xor al,0x70
00005D96  61                popa
00005D97  6972494B696945    imul esi,[edx+0x49],dword 0x4569694b
00005D9E  45                inc ebp
00005D9F  45                inc ebp
00005DA0  6978455253335F    imul edi,[eax+0x45],dword 0x5f335352
00005DA7  006E00            add [esi+0x0],ch
00005DAA  5F                pop edi
00005DAB  5A                pop edx
00005DAC  4E                dec esi
00005DAD  53                push ebx
00005DAE  7438              jz 0x5de8
00005DB0  5F                pop edi
00005DB1  52                push edx
00005DB2  625F74            bound ebx,[edi+0x74]
00005DB5  7265              jc 0x5e1c
00005DB7  6549              gs dec ecx
00005DB9  69537434706169    imul edx,[ebx+0x74],dword 0x69617034
00005DC0  7249              jc 0x5e0b
00005DC2  4B                dec ebx
00005DC3  69694553743130    imul ebp,[ecx+0x45],dword 0x30317453
00005DCA  5F                pop edi
00005DCB  53                push ebx
00005DCC  656C              gs insb
00005DCE  6563743173        arpl [gs:ecx+esi+0x73],si
00005DD3  7449              jz 0x5e1e
00005DD5  53                push ebx
00005DD6  325F45            xor bl,[edi+0x45]
00005DD9  53                push ebx
00005DDA  7434              jz 0x5e10
00005DDC  6C                insb
00005DDD  657373            gs jnc 0x5e53
00005DE0  49                dec ecx
00005DE1  69455361495332    imul eax,[ebp+0x53],dword 0x32534961
00005DE8  5F                pop edi
00005DE9  45                inc ebp
00005DEA  45                inc ebp
00005DEB  3133              xor [ebx],esi
00005DED  5F                pop edi
00005DEE  52                push edx
00005DEF  625F74            bound ebx,[edi+0x74]
00005DF2  7265              jc 0x5e59
00005DF4  655F              gs pop edi
00005DF6  696D706C495336    imul ebp,[ebp+0x70],dword 0x3653496c
00005DFD  5F                pop edi
00005DFE  4C                dec esp
00005DFF  6230              bound esi,[eax]
00005E01  45                inc ebp
00005E02  45                inc ebp
00005E03  43                inc ebx
00005E04  314576            xor [ebp+0x76],eax
00005E07  005F5A            add [edi+0x5a],bl
00005E0A  4E                dec esi
00005E0B  53                push ebx
00005E0C  7434              jz 0x5e42
00005E0E  7061              jo 0x5e71
00005E10  69724950537431    imul esi,[edx+0x49],dword 0x31745350
00005E17  385F52            cmp [edi+0x52],bl
00005E1A  625F74            bound ebx,[edi+0x74]
00005E1D  7265              jc 0x5e84
00005E1F  655F              gs pop edi
00005E21  6E                outsb
00005E22  6F                outsd
00005E23  64655F            gs pop edi
00005E26  626173            bound esp,[ecx+0x73]
00005E29  6553              gs push ebx
00005E2B  315F45            xor [edi+0x45],ebx
00005E2E  43                inc ebx
00005E2F  324552            xor al,[ebp+0x52]
00005E32  4B                dec ebx
00005E33  53                push ebx
00005E34  315F53            xor [edi+0x53],ebx
00005E37  345F              xor al,0x5f
00005E39  005F5A            add [edi+0x5a],bl
00005E3C  4E                dec esi
00005E3D  53                push ebx
00005E3E  7438              jz 0x5e78
00005E40  5F                pop edi
00005E41  52                push edx
00005E42  625F74            bound ebx,[edi+0x74]
00005E45  7265              jc 0x5eac
00005E47  6549              gs dec ecx
00005E49  69537434706169    imul edx,[ebx+0x74],dword 0x69617034
00005E50  7249              jc 0x5e9b
00005E52  4B                dec ebx
00005E53  69694553743130    imul ebp,[ecx+0x45],dword 0x30317453
00005E5A  5F                pop edi
00005E5B  53                push ebx
00005E5C  656C              gs insb
00005E5E  6563743173        arpl [gs:ecx+esi+0x73],si
00005E63  7449              jz 0x5eae
00005E65  53                push ebx
00005E66  325F45            xor bl,[edi+0x45]
00005E69  53                push ebx
00005E6A  7434              jz 0x5ea0
00005E6C  6C                insb
00005E6D  657373            gs jnc 0x5ee3
00005E70  49                dec ecx
00005E71  69455361495332    imul eax,[ebp+0x53],dword 0x32534961
00005E78  5F                pop edi
00005E79  45                inc ebp
00005E7A  45                inc ebp
00005E7B  37                aaa
00005E7C  5F                pop edi
00005E7D  4D                dec ebp
00005E7E  5F                pop edi
00005E7F  726F              jc 0x5ef0
00005E81  6F                outsd
00005E82  7445              jz 0x5ec9
00005E84  7600              jna 0x5e86
00005E86  5F                pop edi
00005E87  656E              gs outsb
00005E89  64007374          add [fs:ebx+0x74],dh
00005E8D  646F              fs outsd
00005E8F  7574              jnz 0x5f05
00005E91  40                inc eax
00005E92  40                inc eax
00005E93  47                inc edi
00005E94  4C                dec esp
00005E95  49                dec ecx
00005E96  42                inc edx
00005E97  43                inc ebx
00005E98  5F                pop edi
00005E99  322E              xor ch,[esi]
00005E9B  3000              xor [eax],al
00005E9D  5F                pop edi
00005E9E  5A                pop edx
00005E9F  4E                dec esi
00005EA0  53                push ebx
00005EA1  7431              jz 0x5ed4
00005EA3  37                aaa
00005EA4  5F                pop edi
00005EA5  52                push edx
00005EA6  625F74            bound ebx,[edi+0x74]
00005EA9  7265              jc 0x5f10
00005EAB  655F              gs pop edi
00005EAD  6974657261746F72  imul esi,[ebp+0x72],dword 0x726f7461
00005EB5  49                dec ecx
00005EB6  53                push ebx
00005EB7  7434              jz 0x5eed
00005EB9  7061              jo 0x5f1c
00005EBB  6972494B696945    imul esi,[edx+0x49],dword 0x4569694b
00005EC2  45                inc ebp
00005EC3  6D                insd
00005EC4  6D                insd
00005EC5  45                inc ebp
00005EC6  7600              jna 0x5ec8
00005EC8  7075              jo 0x5f3f
00005ECA  7473              jz 0x5f3f
00005ECC  40                inc eax
00005ECD  40                inc eax
00005ECE  47                inc edi
00005ECF  4C                dec esp
00005ED0  49                dec ecx
00005ED1  42                inc edx
00005ED2  43                inc ebx
00005ED3  5F                pop edi
00005ED4  322E              xor ch,[esi]
00005ED6  3000              xor [eax],al
00005ED8  5F                pop edi
00005ED9  5A                pop edx
00005EDA  4E                dec esi
00005EDB  53                push ebx
00005EDC  7438              jz 0x5f16
00005EDE  5F                pop edi
00005EDF  52                push edx
00005EE0  625F74            bound ebx,[edi+0x74]
00005EE3  7265              jc 0x5f4a
00005EE5  6549              gs dec ecx
00005EE7  69537434706169    imul edx,[ebx+0x74],dword 0x69617034
00005EEE  7249              jc 0x5f39
00005EF0  4B                dec ebx
00005EF1  69694553743130    imul ebp,[ecx+0x45],dword 0x30317453
00005EF8  5F                pop edi
00005EF9  53                push ebx
00005EFA  656C              gs insb
00005EFC  6563743173        arpl [gs:ecx+esi+0x73],si
00005F01  7449              jz 0x5f4c
00005F03  53                push ebx
00005F04  325F45            xor bl,[edi+0x45]
00005F07  53                push ebx
00005F08  7434              jz 0x5f3e
00005F0A  6C                insb
00005F0B  657373            gs jnc 0x5f81
00005F0E  49                dec ecx
00005F0F  69455361495332    imul eax,[ebp+0x53],dword 0x32534961
00005F16  5F                pop edi
00005F17  45                inc ebp
00005F18  45                inc ebp
00005F19  3133              xor [ebx],esi
00005F1B  5F                pop edi
00005F1C  52                push edx
00005F1D  625F74            bound ebx,[edi+0x74]
00005F20  7265              jc 0x5f87
00005F22  655F              gs pop edi
00005F24  696D706C495336    imul ebp,[ebp+0x70],dword 0x3653496c
00005F2B  5F                pop edi
00005F2C  4C                dec esp
00005F2D  6230              bound esi,[eax]
00005F2F  45                inc ebp
00005F30  45                inc ebp
00005F31  44                inc esp
00005F32  314576            xor [ebp+0x76],eax
00005F35  005F5A            add [edi+0x5a],bl
00005F38  4E                dec esi
00005F39  53                push ebx
00005F3A  61                popa
00005F3B  49                dec ecx
00005F3C  53                push ebx
00005F3D  7434              jz 0x5f73
00005F3F  7061              jo 0x5fa2
00005F41  6972494B696945    imul esi,[edx+0x49],dword 0x4569694b
00005F48  45                inc ebp
00005F49  44                inc esp
00005F4A  324576            xor al,[ebp+0x76]
00005F4D  005F5A            add [edi+0x5a],bl
00005F50  4E                dec esi
00005F51  4B                dec ebx
00005F52  53                push ebx
00005F53  7432              jz 0x5f87
00005F55  335F52            xor ebx,[edi+0x52]
00005F58  625F74            bound ebx,[edi+0x74]
00005F5B  7265              jc 0x5fc2
00005F5D  655F              gs pop edi
00005F5F  636F6E            arpl [edi+0x6e],bp
00005F62  7374              jnc 0x5fd8
00005F64  5F                pop edi
00005F65  6974657261746F72  imul esi,[ebp+0x72],dword 0x726f7461
00005F6D  49                dec ecx
00005F6E  53                push ebx
00005F6F  7434              jz 0x5fa5
00005F71  7061              jo 0x5fd4
00005F73  6972494B696945    imul esi,[edx+0x49],dword 0x4569694b
00005F7A  45                inc ebp
00005F7B  3133              xor [ebx],esi
00005F7D  5F                pop edi
00005F7E  4D                dec ebp
00005F7F  5F                pop edi
00005F80  636F6E            arpl [edi+0x6e],bp
00005F83  7374              jnc 0x5ff9
00005F85  5F                pop edi
00005F86  636173            arpl [ecx+0x73],sp
00005F89  7445              jz 0x5fd0
00005F8B  7600              jna 0x5f8d
00005F8D  5F                pop edi
00005F8E  5A                pop edx
00005F8F  53                push ebx
00005F90  7431              jz 0x5fc3
00005F92  385F52            cmp [edi+0x52],bl
00005F95  625F74            bound ebx,[edi+0x74]
00005F98  7265              jc 0x5fff
00005F9A  655F              gs pop edi
00005F9C  696E6372656D65    imul ebp,[esi+0x63],dword 0x656d6572
00005FA3  6E                outsb
00005FA4  7450              jz 0x5ff6
00005FA6  53                push ebx
00005FA7  7431              jz 0x5fda
00005FA9  385F52            cmp [edi+0x52],bl
00005FAC  625F74            bound ebx,[edi+0x74]
00005FAF  7265              jc 0x6016
00005FB1  655F              gs pop edi
00005FB3  6E                outsb
00005FB4  6F                outsd
00005FB5  64655F            gs pop edi
00005FB8  626173            bound esp,[ecx+0x73]
00005FBB  6540              gs inc eax
00005FBD  40                inc eax
00005FBE  47                inc edi
00005FBF  4C                dec esp
00005FC0  49                dec ecx
00005FC1  42                inc edx
00005FC2  43                inc ebx
00005FC3  58                pop eax
00005FC4  58                pop eax
00005FC5  5F                pop edi
00005FC6  332E              xor ebp,[esi]
00005FC8  3400              xor al,0x0
00005FCA  5F                pop edi
00005FCB  5A                pop edx
00005FCC  53                push ebx
00005FCD  7431              jz 0x6000
00005FCF  37                aaa
00005FD0  5F                pop edi
00005FD1  5F                pop edi
00005FD2  7468              jz 0x603c
00005FD4  726F              jc 0x6045
00005FD6  775F              ja 0x6037
00005FD8  626164            bound esp,[ecx+0x64]
00005FDB  5F                pop edi
00005FDC  61                popa
00005FDD  6C                insb
00005FDE  6C                insb
00005FDF  6F                outsd
00005FE0  637640            arpl [esi+0x40],si
00005FE3  40                inc eax
00005FE4  47                inc edi
00005FE5  4C                dec esp
00005FE6  49                dec ecx
00005FE7  42                inc edx
00005FE8  43                inc ebx
00005FE9  58                pop eax
00005FEA  58                pop eax
00005FEB  5F                pop edi
00005FEC  332E              xor ebp,[esi]
00005FEE  3400              xor al,0x0
00005FF0  5F                pop edi
00005FF1  5A                pop edx
00005FF2  4E                dec esi
00005FF3  53                push ebx
00005FF4  7438              jz 0x602e
00005FF6  5F                pop edi
00005FF7  52                push edx
00005FF8  625F74            bound ebx,[edi+0x74]
00005FFB  7265              jc 0x6062
00005FFD  6549              gs dec ecx
00005FFF  69537434706169    imul edx,[ebx+0x74],dword 0x69617034
00006006  7249              jc 0x6051
00006008  4B                dec ebx
00006009  69694553743130    imul ebp,[ecx+0x45],dword 0x30317453
00006010  5F                pop edi
00006011  53                push ebx
00006012  656C              gs insb
00006014  6563743173        arpl [gs:ecx+esi+0x73],si
00006019  7449              jz 0x6064
0000601B  53                push ebx
0000601C  325F45            xor bl,[edi+0x45]
0000601F  53                push ebx
00006020  7434              jz 0x6056
00006022  6C                insb
00006023  657373            gs jnc 0x6099
00006026  49                dec ecx
00006027  69455361495332    imul eax,[ebp+0x53],dword 0x32534961
0000602E  5F                pop edi
0000602F  45                inc ebp
00006030  45                inc ebp
00006031  365F              ss pop edi
00006033  4D                dec ebp
00006034  5F                pop edi
00006035  656E              gs outsb
00006037  6445              fs inc ebp
00006039  7600              jna 0x603b
0000603B  5F                pop edi
0000603C  5A                pop edx
0000603D  4E                dec esi
0000603E  4B                dec ebx
0000603F  53                push ebx
00006040  7431              jz 0x6073
00006042  37                aaa
00006043  5F                pop edi
00006044  52                push edx
00006045  625F74            bound ebx,[edi+0x74]
00006048  7265              jc 0x60af
0000604A  655F              gs pop edi
0000604C  6974657261746F72  imul esi,[ebp+0x72],dword 0x726f7461
00006054  49                dec ecx
00006055  53                push ebx
00006056  7434              jz 0x608c
00006058  7061              jo 0x60bb
0000605A  6972494B696945    imul esi,[edx+0x49],dword 0x4569694b
00006061  45                inc ebp
00006062  646545            gs inc ebp
00006065  7600              jna 0x6067
00006067  5F                pop edi
00006068  5A                pop edx
00006069  4E                dec esi
0000606A  53                push ebx
0000606B  7438              jz 0x60a5
0000606D  5F                pop edi
0000606E  52                push edx
0000606F  625F74            bound ebx,[edi+0x74]
00006072  7265              jc 0x60d9
00006074  6549              gs dec ecx
00006076  69537434706169    imul edx,[ebx+0x74],dword 0x69617034
0000607D  7249              jc 0x60c8
0000607F  4B                dec ebx
00006080  69694553743130    imul ebp,[ecx+0x45],dword 0x30317453
00006087  5F                pop edi
00006088  53                push ebx
00006089  656C              gs insb
0000608B  6563743173        arpl [gs:ecx+esi+0x73],si
00006090  7449              jz 0x60db
00006092  53                push ebx
00006093  325F45            xor bl,[edi+0x45]
00006096  53                push ebx
00006097  7434              jz 0x60cd
00006099  6C                insb
0000609A  657373            gs jnc 0x6110
0000609D  49                dec ecx
0000609E  69455361495332    imul eax,[ebp+0x53],dword 0x32534961
000060A5  5F                pop edi
000060A6  45                inc ebp
000060A7  45                inc ebp
000060A8  3133              xor [ebx],esi
000060AA  5F                pop edi
000060AB  52                push edx
000060AC  625F74            bound ebx,[edi+0x74]
000060AF  7265              jc 0x6116
000060B1  655F              gs pop edi
000060B3  696D706C495336    imul ebp,[ebp+0x70],dword 0x3653496c
000060BA  5F                pop edi
000060BB  4C                dec esp
000060BC  6230              bound esi,[eax]
000060BE  45                inc ebp
000060BF  45                inc ebp
000060C0  3133              xor [ebx],esi
000060C2  5F                pop edi
000060C3  4D                dec ebp
000060C4  5F                pop edi
000060C5  696E697469616C    imul ebp,[esi+0x69],dword 0x6c616974
000060CC  697A654576005F    imul edi,[edx+0x65],dword 0x5f007645
000060D3  5A                pop edx
000060D4  4E                dec esi
000060D5  395F5F            cmp [edi+0x5f],ebx
000060D8  676E              a16 outsb
000060DA  755F              jnz 0x613b
000060DC  637878            arpl [eax+0x78],di
000060DF  3133              xor [ebx],esi
000060E1  6E                outsb
000060E2  65775F            gs ja 0x6144
000060E5  61                popa
000060E6  6C                insb
000060E7  6C                insb
000060E8  6F                outsd
000060E9  636174            arpl [ecx+0x74],sp
000060EC  6F                outsd
000060ED  7249              jc 0x6138
000060EF  53                push ebx
000060F0  7431              jz 0x6123
000060F2  335F52            xor ebx,[edi+0x52]
000060F5  625F74            bound ebx,[edi+0x74]
000060F8  7265              jc 0x615f
000060FA  655F              gs pop edi
000060FC  6E                outsb
000060FD  6F                outsd
000060FE  646549            gs dec ecx
00006101  53                push ebx
00006102  7434              jz 0x6138
00006104  7061              jo 0x6167
00006106  6972494B696945    imul esi,[edx+0x49],dword 0x4569694b
0000610D  45                inc ebp
0000610E  45                inc ebp
0000610F  3130              xor [eax],esi
00006111  646561            gs popa
00006114  6C                insb
00006115  6C                insb
00006116  6F                outsd
00006117  636174            arpl [ecx+0x74],sp
0000611A  6545              gs inc ebp
0000611C  50                push eax
0000611D  53                push ebx
0000611E  355F6A005F        xor eax,0x5f006a5f
00006123  5A                pop edx
00006124  4E                dec esi
00006125  53                push ebx
00006126  7434              jz 0x615c
00006128  7061              jo 0x618b
0000612A  6972494B696945    imul esi,[edx+0x49],dword 0x4569694b
00006131  43                inc ebx
00006132  314552            xor [ebp+0x52],eax
00006135  53                push ebx
00006136  305F53            xor [edi+0x53],bl
00006139  325F00            xor bl,[edi+0x0]
0000613C  5F                pop edi
0000613D  5A                pop edx
0000613E  4E                dec esi
0000613F  53                push ebx
00006140  7433              jz 0x6175
00006142  6D                insd
00006143  61                popa
00006144  7049              jo 0x618f
00006146  69695374346C65    imul ebp,[ecx+0x53],dword 0x656c3474
0000614D  7373              jnc 0x61c2
0000614F  49                dec ecx
00006150  69455361495374    imul eax,[ebp+0x53],dword 0x74534961
00006157  3470              xor al,0x70
00006159  61                popa
0000615A  6972494B696945    imul esi,[edx+0x49],dword 0x4569694b
00006161  45                inc ebp
00006162  45                inc ebp
00006163  3466              xor al,0x66
00006165  696E6445525333    imul ebp,[esi+0x64],dword 0x33535245
0000616C  5F                pop edi
0000616D  005F5A            add [edi+0x5a],bl
00006170  4E                dec esi
00006171  53                push ebx
00006172  7438              jz 0x61ac
00006174  5F                pop edi
00006175  52                push edx
00006176  625F74            bound ebx,[edi+0x74]
00006179  7265              jc 0x61e0
0000617B  6549              gs dec ecx
0000617D  69537434706169    imul edx,[ebx+0x74],dword 0x69617034
00006184  7249              jc 0x61cf
00006186  4B                dec ebx
00006187  69694553743130    imul ebp,[ecx+0x45],dword 0x30317453
0000618E  5F                pop edi
0000618F  53                push ebx
00006190  656C              gs insb
00006192  6563743173        arpl [gs:ecx+esi+0x73],si
00006197  7449              jz 0x61e2
00006199  53                push ebx
0000619A  325F45            xor bl,[edi+0x45]
0000619D  53                push ebx
0000619E  7434              jz 0x61d4
000061A0  6C                insb
000061A1  657373            gs jnc 0x6217
000061A4  49                dec ecx
000061A5  69455361495332    imul eax,[ebp+0x53],dword 0x32534961
000061AC  5F                pop edi
000061AD  45                inc ebp
000061AE  45                inc ebp
000061AF  385F53            cmp [edi+0x53],bl
000061B2  5F                pop edi
000061B3  7661              jna 0x6216
000061B5  6C                insb
000061B6  7565              jnz 0x621d
000061B8  45                inc ebp
000061B9  50                push eax
000061BA  4B                dec ebx
000061BB  53                push ebx
000061BC  7431              jz 0x61ef
000061BE  385F52            cmp [edi+0x52],bl
000061C1  625F74            bound ebx,[edi+0x74]
000061C4  7265              jc 0x622b
000061C6  655F              gs pop edi
000061C8  6E                outsb
000061C9  6F                outsd
000061CA  64655F            gs pop edi
000061CD  626173            bound esp,[ecx+0x73]
000061D0  65005F65          add [gs:edi+0x65],bl
000061D4  6461              fs popa
000061D6  7461              jz 0x6239
000061D8  005F5F            add [edi+0x5f],bl
000061DB  677878            a16 js 0x6256
000061DE  5F                pop edi
000061DF  7065              jo 0x6246
000061E1  7273              jc 0x6256
000061E3  6F                outsd
000061E4  6E                outsb
000061E5  61                popa
000061E6  6C                insb
000061E7  6974795F76304040  imul esi,[ecx+edi*2+0x5f],dword 0x40403076
000061EF  43                inc ebx
000061F0  58                pop eax
000061F1  58                pop eax
000061F2  41                inc ecx
000061F3  42                inc edx
000061F4  49                dec ecx
000061F5  5F                pop edi
000061F6  312E              xor [esi],ebp
000061F8  3300              xor eax,[eax]
000061FA  5F                pop edi
000061FB  5A                pop edx
000061FC  4E                dec esi
000061FD  53                push ebx
000061FE  7438              jz 0x6238
00006200  5F                pop edi
00006201  52                push edx
00006202  625F74            bound ebx,[edi+0x74]
00006205  7265              jc 0x626c
00006207  6549              gs dec ecx
00006209  69537434706169    imul edx,[ebx+0x74],dword 0x69617034
00006210  7249              jc 0x625b
00006212  4B                dec ebx
00006213  69694553743130    imul ebp,[ecx+0x45],dword 0x30317453
0000621A  5F                pop edi
0000621B  53                push ebx
0000621C  656C              gs insb
0000621E  6563743173        arpl [gs:ecx+esi+0x73],si
00006223  7449              jz 0x626e
00006225  53                push ebx
00006226  325F45            xor bl,[edi+0x45]
00006229  53                push ebx
0000622A  7434              jz 0x6260
0000622C  6C                insb
0000622D  657373            gs jnc 0x62a3
00006230  49                dec ecx
00006231  69455361495332    imul eax,[ebp+0x53],dword 0x32534961
00006238  5F                pop edi
00006239  45                inc ebp
0000623A  45                inc ebp
0000623B  3131              xor [ecx],esi
0000623D  5F                pop edi
0000623E  4D                dec ebp
0000623F  5F                pop edi
00006240  6765745F          gs a16 jz 0x62a3
00006244  6E                outsb
00006245  6F                outsd
00006246  646545            gs inc ebp
00006249  7600              jna 0x624b
0000624B  5F                pop edi
0000624C  5A                pop edx
0000624D  4E                dec esi
0000624E  53                push ebx
0000624F  7438              jz 0x6289
00006251  5F                pop edi
00006252  52                push edx
00006253  625F74            bound ebx,[edi+0x74]
00006256  7265              jc 0x62bd
00006258  6549              gs dec ecx
0000625A  69537434706169    imul edx,[ebx+0x74],dword 0x69617034
00006261  7249              jc 0x62ac
00006263  4B                dec ebx
00006264  69694553743130    imul ebp,[ecx+0x45],dword 0x30317453
0000626B  5F                pop edi
0000626C  53                push ebx
0000626D  656C              gs insb
0000626F  6563743173        arpl [gs:ecx+esi+0x73],si
00006274  7449              jz 0x62bf
00006276  53                push ebx
00006277  325F45            xor bl,[edi+0x45]
0000627A  53                push ebx
0000627B  7434              jz 0x62b1
0000627D  6C                insb
0000627E  657373            gs jnc 0x62f4
00006281  49                dec ecx
00006282  69455361495332    imul eax,[ebp+0x53],dword 0x32534961
00006289  5F                pop edi
0000628A  45                inc ebp
0000628B  45                inc ebp
0000628C  3131              xor [ecx],esi
0000628E  6C                insb
0000628F  6F                outsd
00006290  7765              ja 0x62f7
00006292  725F              jc 0x62f3
00006294  626F75            bound ebp,[edi+0x75]
00006297  6E                outsb
00006298  6445              fs inc ebp
0000629A  52                push edx
0000629B  53                push ebx
0000629C  315F00            xor [edi+0x0],ebx
0000629F  5F                pop edi
000062A0  55                push ebp
000062A1  6E                outsb
000062A2  7769              ja 0x630d
000062A4  6E                outsb
000062A5  645F              fs pop edi
000062A7  52                push edx
000062A8  657375            gs jnc 0x6320
000062AB  6D                insd
000062AC  6540              gs inc eax
000062AE  40                inc eax
000062AF  47                inc edi
000062B0  43                inc ebx
000062B1  43                inc ebx
000062B2  5F                pop edi
000062B3  332E              xor ebp,[esi]
000062B5  3000              xor [eax],al
000062B7  5F                pop edi
000062B8  5A                pop edx
000062B9  4E                dec esi
000062BA  53                push ebx
000062BB  7438              jz 0x62f5
000062BD  5F                pop edi
000062BE  52                push edx
000062BF  625F74            bound ebx,[edi+0x74]
000062C2  7265              jc 0x6329
000062C4  6549              gs dec ecx
000062C6  69537434706169    imul edx,[ebx+0x74],dword 0x69617034
000062CD  7249              jc 0x6318
000062CF  4B                dec ebx
000062D0  69694553743130    imul ebp,[ecx+0x45],dword 0x30317453
000062D7  5F                pop edi
000062D8  53                push ebx
000062D9  656C              gs insb
000062DB  6563743173        arpl [gs:ecx+esi+0x73],si
000062E0  7449              jz 0x632b
000062E2  53                push ebx
000062E3  325F45            xor bl,[edi+0x45]
000062E6  53                push ebx
000062E7  7434              jz 0x631d
000062E9  6C                insb
000062EA  657373            gs jnc 0x6360
000062ED  49                dec ecx
000062EE  69455361495332    imul eax,[ebp+0x53],dword 0x32534961
000062F5  5F                pop edi
000062F6  45                inc ebp
000062F7  45                inc ebp
000062F8  43                inc ebx
000062F9  314576            xor [ebp+0x76],eax
000062FC  005F5A            add [edi+0x5a],bl
000062FF  4E                dec esi
00006300  53                push ebx
00006301  7432              jz 0x6335
00006303  335F52            xor ebx,[edi+0x52]
00006306  625F74            bound ebx,[edi+0x74]
00006309  7265              jc 0x6370
0000630B  655F              gs pop edi
0000630D  636F6E            arpl [edi+0x6e],bp
00006310  7374              jnc 0x6386
00006312  5F                pop edi
00006313  6974657261746F72  imul esi,[ebp+0x72],dword 0x726f7461
0000631B  49                dec ecx
0000631C  53                push ebx
0000631D  7434              jz 0x6353
0000631F  7061              jo 0x6382
00006321  6972494B696945    imul esi,[edx+0x49],dword 0x4569694b
00006328  45                inc ebp
00006329  43                inc ebx
0000632A  324552            xor al,[ebp+0x52]
0000632D  4B                dec ebx
0000632E  53                push ebx
0000632F  7431              jz 0x6362
00006331  37                aaa
00006332  5F                pop edi
00006333  52                push edx
00006334  625F74            bound ebx,[edi+0x74]
00006337  7265              jc 0x639e
00006339  655F              gs pop edi
0000633B  6974657261746F72  imul esi,[ebp+0x72],dword 0x726f7461
00006343  49                dec ecx
00006344  53                push ebx
00006345  325F45            xor bl,[edi+0x45]
00006348  005F5F            add [edi+0x5f],bl
0000634B  693638362E67      imul esi,[esi],dword 0x672e3638
00006351  65745F            gs jz 0x63b3
00006354  7063              jo 0x63b9
00006356  5F                pop edi
00006357  7468              jz 0x63c1
00006359  756E              jnz 0x63c9
0000635B  6B2E62            imul ebp,[esi],byte +0x62
0000635E  7800              js 0x6360
00006360  6D                insd
00006361  61                popa
00006362  696E005F696E69    imul ebp,[esi+0x0],dword 0x696e695f
00006369  7400              jz 0x636b
