00000000  7F45              jg 0x47
00000002  4C                dec esp
00000003  46                inc esi
00000004  0101              add [ecx],eax
00000006  0100              add [eax],eax
00000008  0000              add [eax],al
0000000A  0000              add [eax],al
0000000C  0000              add [eax],al
0000000E  0000              add [eax],al
00000010  0200              add al,[eax]
00000012  0300              add eax,[eax]
00000014  0100              add [eax],eax
00000016  0000              add [eax],al
00000018  E087              loopne 0xffffffffffffffa1
0000001A  0408              add al,0x8
0000001C  3400              xor al,0x0
0000001E  0000              add [eax],al
00000020  50                push eax
00000021  260000            add [es:eax],al
00000024  0000              add [eax],al
00000026  0000              add [eax],al
00000028  3400              xor al,0x0
0000002A  2000              and [eax],al
0000002C  0800              or [eax],al
0000002E  2800              sub [eax],al
00000030  260023            add [es:ebx],ah
00000033  0006              add [esi],al
00000035  0000              add [eax],al
00000037  003400            add [eax+eax],dh
0000003A  0000              add [eax],al
0000003C  3480              xor al,0x80
0000003E  0408              add al,0x8
00000040  3480              xor al,0x80
00000042  0408              add al,0x8
00000044  0001              add [ecx],al
00000046  0000              add [eax],al
00000048  0001              add [ecx],al
0000004A  0000              add [eax],al
0000004C  0500000004        add eax,0x4000000
00000051  0000              add [eax],al
00000053  0003              add [ebx],al
00000055  0000              add [eax],al
00000057  003401            add [ecx+eax],dh
0000005A  0000              add [eax],al
0000005C  3481              xor al,0x81
0000005E  0408              add al,0x8
00000060  3481              xor al,0x81
00000062  0408              add al,0x8
00000064  1300              adc eax,[eax]
00000066  0000              add [eax],al
00000068  1300              adc eax,[eax]
0000006A  0000              add [eax],al
0000006C  0400              add al,0x0
0000006E  0000              add [eax],al
00000070  0100              add [eax],eax
00000072  0000              add [eax],al
00000074  0100              add [eax],eax
00000076  0000              add [eax],al
00000078  0000              add [eax],al
0000007A  0000              add [eax],al
0000007C  008004080080      add [eax+0x80000804],al
00000082  0408              add al,0x8
00000084  AC                lodsb
00000085  1C00              sbb al,0x0
00000087  00AC1C00000500    add [esp+ebx+0x50000],ch
0000008E  0000              add [eax],al
00000090  0010              add [eax],dl
00000092  0000              add [eax],al
00000094  0100              add [eax],eax
00000096  0000              add [eax],al
00000098  AC                lodsb
00000099  1C00              sbb al,0x0
0000009B  00ACAC0408ACAC    add [esp+ebp*4+0xacac0804],ch
000000A2  0408              add al,0x8
000000A4  4C                dec esp
000000A5  0100              add [eax],eax
000000A7  008C0200000600    add [edx+eax+0x60000],cl
000000AE  0000              add [eax],al
000000B0  0010              add [eax],dl
000000B2  0000              add [eax],al
000000B4  0200              add al,[eax]
000000B6  0000              add [eax],al
000000B8  C41C00            les ebx,[eax+eax]
000000BB  00C4              add ah,al
000000BD  AC                lodsb
000000BE  0408              add al,0x8
000000C0  C4AC0408E00000    les ebp,[esp+eax+0xe008]
000000C7  00E0              add al,ah
000000C9  0000              add [eax],al
000000CB  0006              add [esi],al
000000CD  0000              add [eax],al
000000CF  000400            add [eax+eax],al
000000D2  0000              add [eax],al
000000D4  0400              add al,0x0
000000D6  0000              add [eax],al
000000D8  48                dec eax
000000D9  0100              add [eax],eax
000000DB  004881            add [eax-0x7f],cl
000000DE  0408              add al,0x8
000000E0  48                dec eax
000000E1  81040820000000    add dword [eax+ecx],0x20
000000E8  2000              and [eax],al
000000EA  0000              add [eax],al
000000EC  0400              add al,0x0
000000EE  0000              add [eax],al
000000F0  0400              add al,0x0
000000F2  0000              add [eax],al
000000F4  50                push eax
000000F5  E574              in eax,0x74
000000F7  6448              fs dec eax
000000F9  17                pop ss
000000FA  0000              add [eax],al
000000FC  48                dec eax
000000FD  97                xchg eax,edi
000000FE  0408              add al,0x8
00000100  48                dec eax
00000101  97                xchg eax,edi
00000102  0408              add al,0x8
00000104  0401              add al,0x1
00000106  0000              add [eax],al
00000108  0401              add al,0x1
0000010A  0000              add [eax],al
0000010C  0400              add al,0x0
0000010E  0000              add [eax],al
00000110  0400              add al,0x0
00000112  0000              add [eax],al
00000114  51                push ecx
00000115  E574              in eax,0x74
00000117  640000            add [fs:eax],al
0000011A  0000              add [eax],al
0000011C  0000              add [eax],al
0000011E  0000              add [eax],al
00000120  0000              add [eax],al
00000122  0000              add [eax],al
00000124  0000              add [eax],al
00000126  0000              add [eax],al
00000128  0000              add [eax],al
0000012A  0000              add [eax],al
0000012C  06                push es
0000012D  0000              add [eax],al
0000012F  000400            add [eax+eax],al
00000132  0000              add [eax],al
00000134  2F                das
00000135  6C                insb
00000136  69622F6C642D6C    imul esp,[edx+0x2f],dword 0x6c2d646c
0000013D  696E75782E736F    imul ebp,[esi+0x75],dword 0x6f732e78
00000144  2E3200            xor al,[cs:eax]
00000147  000400            add [eax+eax],al
0000014A  0000              add [eax],al
0000014C  1000              adc [eax],al
0000014E  0000              add [eax],al
00000150  0100              add [eax],eax
00000152  0000              add [eax],al
00000154  47                inc edi
00000155  4E                dec esi
00000156  55                push ebp
00000157  0000              add [eax],al
00000159  0000              add [eax],al
0000015B  0002              add [edx],al
0000015D  0000              add [eax],al
0000015F  0000              add [eax],al
00000161  0000              add [eax],al
00000163  0000              add [eax],al
00000165  0000              add [eax],al
00000167  0011              add [ecx],dl
00000169  0000              add [eax],al
0000016B  0016              add [esi],dl
0000016D  0000              add [eax],al
0000016F  000D00000000      add [0x0],cl
00000175  0000              add [eax],al
00000177  000A              add [edx],cl
00000179  0000              add [eax],al
0000017B  000C00            add [eax+eax],cl
0000017E  0000              add [eax],al
00000180  1400              adc al,0x0
00000182  0000              add [eax],al
00000184  0F0000            sldt [eax]
00000187  001500000007      add [0x7000000],dl
0000018D  0000              add [eax],al
0000018F  0011              add [ecx],dl
00000191  0000              add [eax],al
00000193  0000              add [eax],al
00000195  0000              add [eax],al
00000197  0000              add [eax],al
00000199  0000              add [eax],al
0000019B  0000              add [eax],al
0000019D  0000              add [eax],al
0000019F  0009              add [ecx],cl
000001A1  0000              add [eax],al
000001A3  000B              add [ebx],cl
000001A5  0000              add [eax],al
000001A7  0003              add [ebx],al
000001A9  0000              add [eax],al
000001AB  000400            add [eax+eax],al
000001AE  0000              add [eax],al
000001B0  1300              adc eax,[eax]
000001B2  0000              add [eax],al
000001B4  0000              add [eax],al
000001B6  0000              add [eax],al
000001B8  0000              add [eax],al
000001BA  0000              add [eax],al
000001BC  0000              add [eax],al
000001BE  0000              add [eax],al
000001C0  0000              add [eax],al
000001C2  0000              add [eax],al
000001C4  0000              add [eax],al
000001C6  0000              add [eax],al
000001C8  0000              add [eax],al
000001CA  0000              add [eax],al
000001CC  0000              add [eax],al
000001CE  0000              add [eax],al
000001D0  0000              add [eax],al
000001D2  0000              add [eax],al
000001D4  0000              add [eax],al
000001D6  0000              add [eax],al
000001D8  06                push es
000001D9  0000              add [eax],al
000001DB  0002              add [edx],al
000001DD  0000              add [eax],al
000001DF  0008              add [eax],cl
000001E1  0000              add [eax],al
000001E3  000500000000      add [0x0],al
000001E9  0000              add [eax],al
000001EB  0001              add [ecx],al
000001ED  0000              add [eax],al
000001EF  0000              add [eax],al
000001F1  0000              add [eax],al
000001F3  0000              add [eax],al
000001F5  0000              add [eax],al
000001F7  0010              add [eax],dl
000001F9  0000              add [eax],al
000001FB  000E              add [esi],cl
000001FD  0000              add [eax],al
000001FF  0000              add [eax],al
00000201  0000              add [eax],al
00000203  0012              add [edx],dl
00000205  0000              add [eax],al
00000207  0000              add [eax],al
00000209  0000              add [eax],al
0000020B  0000              add [eax],al
0000020D  0000              add [eax],al
0000020F  0000              add [eax],al
00000211  0000              add [eax],al
00000213  0000              add [eax],al
00000215  0000              add [eax],al
00000217  0000              add [eax],al
00000219  0000              add [eax],al
0000021B  00FC              add ah,bh
0000021D  0000              add [eax],al
0000021F  0000              add [eax],al
00000221  AE                scasb
00000222  0408              add al,0x8
00000224  90                nop
00000225  0000              add [eax],al
00000227  0011              add [ecx],dl
00000229  0019              add [ecx],bl
0000022B  006101            add [ecx+0x1],ah
0000022E  0000              add [eax],al
00000230  0000              add [eax],al
00000232  0000              add [eax],al
00000234  0000              add [eax],al
00000236  0000              add [eax],al
00000238  1200              adc al,[eax]
0000023A  0000              add [eax],al
0000023C  AB                stosd
0000023D  0100              add [eax],eax
0000023F  0000              add [eax],al
00000241  0000              add [eax],al
00000243  0000              add [eax],al
00000245  0000              add [eax],al
00000247  0012              add [edx],dl
00000249  0000              add [eax],al
0000024B  00D2              add dl,dl
0000024D  0000              add [eax],al
0000024F  0000              add [eax],al
00000251  0000              add [eax],al
00000253  0000              add [eax],al
00000255  0000              add [eax],al
00000257  0020              add [eax],ah
00000259  0000              add [eax],al
0000025B  001D01000000      add [0x1],bl
00000261  0000              add [eax],al
00000263  0000              add [eax],al
00000265  0000              add [eax],al
00000267  0020              add [eax],ah
00000269  0000              add [eax],al
0000026B  000501000000      add [0x1],al
00000271  0000              add [eax],al
00000273  0000              add [eax],al
00000275  0000              add [eax],al
00000277  0012              add [edx],dl
00000279  0000              add [eax],al
0000027B  00C0              add al,al
0000027D  0100              add [eax],eax
0000027F  0000              add [eax],al
00000281  0000              add [eax],al
00000283  0000              add [eax],al
00000285  0000              add [eax],al
00000287  0012              add [edx],dl
00000289  0000              add [eax],al
0000028B  00BA00000040      add [edx+0x40000000],bh
00000291  870408            xchg eax,[eax+ecx]
00000294  0000              add [eax],al
00000296  0000              add [eax],al
00000298  1200              adc al,[eax]
0000029A  0000              add [eax],al
0000029C  5C                pop esp
0000029D  0000              add [eax],al
0000029F  0000              add [eax],al
000002A1  0000              add [eax],al
000002A3  0000              add [eax],al
000002A5  0000              add [eax],al
000002A7  0020              add [eax],ah
000002A9  0000              add [eax],al
000002AB  008200000000      add [edx+0x0],al
000002B1  0000              add [eax],al
000002B3  0000              add [eax],al
000002B5  0000              add [eax],al
000002B7  0012              add [edx],dl
000002B9  0000              add [eax],al
000002BB  009C0100003897    add [ecx+eax+0x97380000],bl
000002C2  0408              add al,0x8
000002C4  0400              add al,0x0
000002C6  0000              add [eax],al
000002C8  1100              adc [eax],eax
000002CA  0E                push cs
000002CB  004701            add [edi+0x1],al
000002CE  0000              add [eax],al
000002D0  0000              add [eax],al
000002D2  0000              add [eax],al
000002D4  0000              add [eax],al
000002D6  0000              add [eax],al
000002D8  2000              and [eax],al
000002DA  0000              add [eax],al
000002DC  7800              js 0x2de
000002DE  0000              add [eax],al
000002E0  A0AE04088C        mov al,[0x8c0804ae]
000002E5  0000              add [eax],al
000002E7  0011              add [ecx],dl
000002E9  0019              add [ecx],bl
000002EB  003C01            add [ecx+eax],bh
000002EE  0000              add [eax],al
000002F0  0000              add [eax],al
000002F2  0000              add [eax],al
000002F4  0000              add [eax],al
000002F6  0000              add [eax],al
000002F8  1200              adc al,[eax]
000002FA  0000              add [eax],al
000002FC  E100              loope 0x2fe
000002FE  0000              add [eax],al
00000300  0000              add [eax],al
00000302  0000              add [eax],al
00000304  0000              add [eax],al
00000306  0000              add [eax],al
00000308  1200              adc al,[eax]
0000030A  0000              add [eax],al
0000030C  3101              xor [ecx],eax
0000030E  0000              add [eax],al
00000310  0000              add [eax],al
00000312  0000              add [eax],al
00000314  0000              add [eax],al
00000316  0000              add [eax],al
00000318  1200              adc al,[eax]
0000031A  0000              add [eax],al
0000031C  B801000000        mov eax,0x1
00000321  0000              add [eax],al
00000323  0000              add [eax],al
00000325  0000              add [eax],al
00000327  0012              add [edx],dl
00000329  0000              add [eax],al
0000032B  0010              add [eax],dl
0000032D  0000              add [eax],al
0000032F  0000              add [eax],al
00000331  0000              add [eax],al
00000333  0000              add [eax],al
00000335  0000              add [eax],al
00000337  0012              add [edx],dl
00000339  0000              add [eax],al
0000033B  0021              add [ecx],ah
0000033D  0000              add [eax],al
0000033F  00B087040800      add [eax+0x80487],dh
00000345  0000              add [eax],al
00000347  0012              add [edx],dl
00000349  0000              add [eax],al
0000034B  00E7              add bh,ah
0000034D  0000              add [eax],al
0000034F  00C0              add al,al
00000351  870408            xchg eax,[eax+ecx]
00000354  0000              add [eax],al
00000356  0000              add [eax],al
00000358  1200              adc al,[eax]
0000035A  0000              add [eax],al
0000035C  830100            add dword [ecx],byte +0x0
0000035F  0000              add [eax],al
00000361  0000              add [eax],al
00000363  0000              add [eax],al
00000365  0000              add [eax],al
00000367  0012              add [edx],dl
00000369  0000              add [eax],al
0000036B  0000              add [eax],al
0000036D  6C                insb
0000036E  6962737464632B    imul esp,[edx+0x73],dword 0x2b636474
00000375  2B2E              sub ebp,[esi]
00000377  736F              jnc 0x3e8
00000379  2E36005F5A        add [ss:edi+0x5a],bl
0000037E  4E                dec esi
0000037F  53                push ebx
00000380  6F                outsd
00000381  6C                insb
00000382  7345              jnc 0x3c9
00000384  50                push eax
00000385  46                inc esi
00000386  52                push edx
00000387  53                push ebx
00000388  6F                outsd
00000389  53                push ebx
0000038A  5F                pop edi
0000038B  45                inc ebp
0000038C  005F5A            add [edi+0x5a],bl
0000038F  53                push ebx
00000390  7434              jz 0x3c6
00000392  656E              gs outsb
00000394  646C              fs insb
00000396  49                dec ecx
00000397  635374            arpl [ebx+0x74],dx
0000039A  3131              xor [ecx],esi
0000039C  636861            arpl [eax+0x61],bp
0000039F  725F              jc 0x400
000003A1  7472              jz 0x415
000003A3  61                popa
000003A4  6974734963454552  imul esi,[ebx+esi*2+0x49],dword 0x52454563
000003AC  53                push ebx
000003AD  7431              jz 0x3e0
000003AF  336261            xor esp,[edx+0x61]
000003B2  7369              jnc 0x41d
000003B4  635F6F            arpl [edi+0x6f],bx
000003B7  7374              jnc 0x42d
000003B9  7265              jc 0x420
000003BB  61                popa
000003BC  6D                insd
000003BD  49                dec ecx
000003BE  54                push esp
000003BF  5F                pop edi
000003C0  54                push esp
000003C1  305F45            xor [edi+0x45],bl
000003C4  53                push ebx
000003C5  365F              ss pop edi
000003C7  005F49            add [edi+0x49],bl
000003CA  54                push esp
000003CB  4D                dec ebp
000003CC  5F                pop edi
000003CD  64657265          gs jc 0x436
000003D1  676973746572544D  imul esi,[bp+di+0x74],dword 0x4d547265
000003D9  43                inc ebx
000003DA  6C                insb
000003DB  6F                outsd
000003DC  6E                outsb
000003DD  6554              gs push esp
000003DF  61                popa
000003E0  626C6500          bound ebp,[ebp+0x0]
000003E4  5F                pop edi
000003E5  5A                pop edx
000003E6  53                push ebx
000003E7  7434              jz 0x41d
000003E9  636F75            arpl [edi+0x75],bp
000003EC  7400              jz 0x3ee
000003EE  5F                pop edi
000003EF  5A                pop edx
000003F0  53                push ebx
000003F1  746C              jz 0x45f
000003F3  7349              jnc 0x43e
000003F5  53                push ebx
000003F6  7431              jz 0x429
000003F8  316368            xor [ebx+0x68],esp
000003FB  61                popa
000003FC  725F              jc 0x45d
000003FE  7472              jz 0x472
00000400  61                popa
00000401  6974734963454552  imul esi,[ebx+esi*2+0x49],dword 0x52454563
00000409  53                push ebx
0000040A  7431              jz 0x43d
0000040C  336261            xor esp,[edx+0x61]
0000040F  7369              jnc 0x47a
00000411  635F6F            arpl [edi+0x6f],bx
00000414  7374              jnc 0x48a
00000416  7265              jc 0x47d
00000418  61                popa
00000419  6D                insd
0000041A  49                dec ecx
0000041B  63545F45          arpl [edi+ebx*2+0x45],dx
0000041F  53                push ebx
00000420  355F504B63        xor eax,0x634b505f
00000425  005F5A            add [edi+0x5a],bl
00000428  4E                dec esi
00000429  53                push ebx
0000042A  7438              jz 0x464
0000042C  696F735F626173    imul ebp,[edi+0x73],dword 0x7361625f
00000433  653449            gs xor al,0x49
00000436  6E                outsb
00000437  697444314576005F  imul esi,[esp+eax*2+0x31],dword 0x5f007645
0000043F  5F                pop edi
00000440  676D              a16 insd
00000442  6F                outsd
00000443  6E                outsb
00000444  5F                pop edi
00000445  7374              jnc 0x4bb
00000447  61                popa
00000448  7274              jc 0x4be
0000044A  5F                pop edi
0000044B  5F                pop edi
0000044C  005F5A            add [edi+0x5a],bl
0000044F  6E                outsb
00000450  61                popa
00000451  6A00              push byte +0x0
00000453  5F                pop edi
00000454  5F                pop edi
00000455  677878            a16 js 0x4d0
00000458  5F                pop edi
00000459  7065              jo 0x4c0
0000045B  7273              jc 0x4d0
0000045D  6F                outsd
0000045E  6E                outsb
0000045F  61                popa
00000460  6C                insb
00000461  6974795F7630005F  imul esi,[ecx+edi*2+0x5f],dword 0x5f003076
00000469  5A                pop edx
0000046A  53                push ebx
0000046B  7433              jz 0x4a0
0000046D  63696E            arpl [ecx+0x6e],bp
00000470  005F5A            add [edi+0x5a],bl
00000473  4E                dec esi
00000474  53                push ebx
00000475  7438              jz 0x4af
00000477  696F735F626173    imul ebp,[edi+0x73],dword 0x7361625f
0000047E  653449            gs xor al,0x49
00000481  6E                outsb
00000482  697443314576005F  imul esi,[ebx+eax*2+0x31],dword 0x5f007645
0000048A  4A                dec edx
0000048B  765F              jna 0x4ec
0000048D  52                push edx
0000048E  6567697374657243  imul esi,[gs:bp+di+0x74],dword 0x6c437265
         -6C
00000497  61                popa
00000498  7373              jnc 0x50d
0000049A  657300            gs jnc 0x49d
0000049D  5F                pop edi
0000049E  5A                pop edx
0000049F  4E                dec esi
000004A0  53                push ebx
000004A1  69727345526900    imul esi,[edx+0x73],dword 0x695245
000004A8  5F                pop edi
000004A9  5A                pop edx
000004AA  4E                dec esi
000004AB  53                push ebx
000004AC  69727345526500    imul esi,[edx+0x73],dword 0x655245
000004B3  5F                pop edi
000004B4  49                dec ecx
000004B5  54                push esp
000004B6  4D                dec ebp
000004B7  5F                pop edi
000004B8  7265              jc 0x51f
000004BA  676973746572544D  imul esi,[bp+di+0x74],dword 0x4d547265
000004C2  43                inc ebx
000004C3  6C                insb
000004C4  6F                outsd
000004C5  6E                outsb
000004C6  6554              gs push esp
000004C8  61                popa
000004C9  626C6500          bound ebp,[ebp+0x0]
000004CD  5F                pop edi
000004CE  5A                pop edx
000004CF  4E                dec esi
000004D0  53                push ebx
000004D1  6F                outsd
000004D2  6C                insb
000004D3  7345              jnc 0x51a
000004D5  69006C69626D      imul eax,[eax],dword 0x6d62696c
000004DB  2E736F            cs jnc 0x54d
000004DE  2E36006C6962      add [ss:ecx+ebp*2+0x62],ch
000004E4  6763635F          arpl [bp+di+0x5f],sp
000004E8  732E              jnc 0x518
000004EA  736F              jnc 0x55b
000004EC  2E3100            xor [cs:eax],eax
000004EF  5F                pop edi
000004F0  55                push ebp
000004F1  6E                outsb
000004F2  7769              ja 0x55d
000004F4  6E                outsb
000004F5  645F              fs pop edi
000004F7  52                push edx
000004F8  657375            gs jnc 0x570
000004FB  6D                insd
000004FC  65006C6962        add [gs:ecx+ebp*2+0x62],ch
00000501  632E              arpl [esi],bp
00000503  736F              jnc 0x574
00000505  2E36005F49        add [ss:edi+0x49],bl
0000050A  4F                dec edi
0000050B  5F                pop edi
0000050C  7374              jnc 0x582
0000050E  64696E5F75736564  imul ebp,[fs:esi+0x5f],dword 0x64657375
00000516  005F5F            add [edi+0x5f],bl
00000519  637861            arpl [eax+0x61],di
0000051C  5F                pop edi
0000051D  61                popa
0000051E  7465              jz 0x585
00000520  7869              js 0x58b
00000522  7400              jz 0x524
00000524  6D                insd
00000525  656D              gs insd
00000527  6D                insd
00000528  6F                outsd
00000529  7665              jna 0x590
0000052B  005F5F            add [edi+0x5f],bl
0000052E  6C                insb
0000052F  6962635F737461    imul esp,[edx+0x63],dword 0x6174735f
00000536  7274              jc 0x5ac
00000538  5F                pop edi
00000539  6D                insd
0000053A  61                popa
0000053B  696E004743435F    imul ebp,[esi+0x0],dword 0x5f434347
00000542  332E              xor ebp,[esi]
00000544  3000              xor [eax],al
00000546  47                inc edi
00000547  4C                dec esp
00000548  49                dec ecx
00000549  42                inc edx
0000054A  43                inc ebx
0000054B  5F                pop edi
0000054C  322E              xor ch,[esi]
0000054E  3000              xor [eax],al
00000550  47                inc edi
00000551  4C                dec esp
00000552  49                dec ecx
00000553  42                inc edx
00000554  43                inc ebx
00000555  5F                pop edi
00000556  322E              xor ch,[esi]
00000558  312E              xor [esi],ebp
0000055A  3300              xor eax,[eax]
0000055C  43                inc ebx
0000055D  58                pop eax
0000055E  58                pop eax
0000055F  41                inc ecx
00000560  42                inc edx
00000561  49                dec ecx
00000562  5F                pop edi
00000563  312E              xor [esi],ebp
00000565  3300              xor eax,[eax]
00000567  47                inc edi
00000568  4C                dec esp
00000569  49                dec ecx
0000056A  42                inc edx
0000056B  43                inc ebx
0000056C  58                pop eax
0000056D  58                pop eax
0000056E  5F                pop edi
0000056F  332E              xor ebp,[esi]
00000571  3400              xor al,0x0
00000573  0000              add [eax],al
00000575  0002              add [edx],al
00000577  0002              add [edx],al
00000579  0003              add [ebx],al
0000057B  0000              add [eax],al
0000057D  0000              add [eax],al
0000057F  0002              add [edx],al
00000581  000400            add [eax+eax],al
00000584  0200              add al,[eax]
00000586  0000              add [eax],al
00000588  0200              add al,[eax]
0000058A  0100              add [eax],eax
0000058C  0000              add [eax],al
0000058E  0200              add al,[eax]
00000590  0200              add al,[eax]
00000592  0200              add al,[eax]
00000594  0200              add al,[eax]
00000596  0400              add al,0x0
00000598  0200              add al,[eax]
0000059A  0200              add al,[eax]
0000059C  0500060001        add eax,0x1000600
000005A1  0001              add [ecx],al
000005A3  007501            add [ebp+0x1],dh
000005A6  0000              add [eax],al
000005A8  1000              adc [eax],al
000005AA  0000              add [eax],al
000005AC  2000              and [eax],al
000005AE  0000              add [eax],al
000005B0  50                push eax
000005B1  26790B            es jns 0x5bf
000005B4  0000              add [eax],al
000005B6  06                push es
000005B7  00D2              add dl,dl
000005B9  0100              add [eax],eax
000005BB  0000              add [eax],al
000005BD  0000              add [eax],al
000005BF  0001              add [ecx],al
000005C1  0002              add [edx],al
000005C3  009201000010      add [edx+0x10000001],dl
000005C9  0000              add [eax],al
000005CB  0030              add [eax],dh
000005CD  0000              add [eax],al
000005CF  0010              add [eax],dl
000005D1  69690D00000400    imul ebp,[ecx+0xd],dword 0x40000
000005D8  DA01              fiadd dword [ecx]
000005DA  0000              add [eax],al
000005DC  1000              adc [eax],al
000005DE  0000              add [eax],al
000005E0  731F              jnc 0x601
000005E2  690900000300      imul ecx,[ecx],dword 0x30000
000005E8  E401              in al,0x1
000005EA  0000              add [eax],al
000005EC  0000              add [eax],al
000005EE  0000              add [eax],al
000005F0  0100              add [eax],eax
000005F2  0200              add al,[eax]
000005F4  0100              add [eax],eax
000005F6  0000              add [eax],al
000005F8  1000              adc [eax],al
000005FA  0000              add [eax],al
000005FC  0000              add [eax],al
000005FE  0000              add [eax],al
00000600  D3AF6B050000      shr dword [edi+0x56b],cl
00000606  0500F00100        add eax,0x1f000
0000060B  0010              add [eax],dl
0000060D  0000              add [eax],al
0000060F  00742992          add [ecx+ebp-0x6e],dh
00000613  0800              or [eax],al
00000615  0002              add [edx],al
00000617  00FB              add bl,bh
00000619  0100              add [eax],eax
0000061B  0000              add [eax],al
0000061D  0000              add [eax],al
0000061F  00A4AD04080604    add [ebp+ebp*4+0x4060804],ah
00000626  0000              add [eax],al
00000628  00AE04080501      add [esi+0x1050804],ch
0000062E  0000              add [eax],al
00000630  A0AE040805        mov al,[0x50804ae]
00000635  0D0000B4AD        or eax,0xadb40000
0000063A  0408              add al,0x8
0000063C  07                pop es
0000063D  0200              add al,[eax]
0000063F  00B8AD040807      add [eax+0x70804ad],bh
00000645  0300              add eax,[eax]
00000647  00BCAD04080704    add [ebp+ebp*4+0x4070804],bh
0000064E  0000              add [eax],al
00000650  C0AD0408070600    shr byte [ebp+0x6070804],0x0
00000657  00C4              add ah,al
00000659  AD                lodsd
0000065A  0408              add al,0x8
0000065C  07                pop es
0000065D  07                pop es
0000065E  0000              add [eax],al
00000660  C8AD0408          enter 0x4ad,0x8
00000664  07                pop es
00000665  0800              or [eax],al
00000667  00CC              add ah,cl
00000669  AD                lodsd
0000066A  0408              add al,0x8
0000066C  07                pop es
0000066D  0A00              or al,[eax]
0000066F  00D0              add al,dl
00000671  AD                lodsd
00000672  0408              add al,0x8
00000674  07                pop es
00000675  0E                push cs
00000676  0000              add [eax],al
00000678  D4AD              aam 0xad
0000067A  0408              add al,0x8
0000067C  07                pop es
0000067D  0F0000            sldt [eax]
00000680  D8AD04080710      fsubr dword [ebp+0x10070804]
00000686  0000              add [eax],al
00000688  DCAD04080711      fsubr qword [ebp+0x11070804]
0000068E  0000              add [eax],al
00000690  E0AD              loopne 0x63f
00000692  0408              add al,0x8
00000694  07                pop es
00000695  1200              adc al,[eax]
00000697  00E4              add ah,ah
00000699  AD                lodsd
0000069A  0408              add al,0x8
0000069C  07                pop es
0000069D  1300              adc eax,[eax]
0000069F  00E8              add al,ch
000006A1  AD                lodsd
000006A2  0408              add al,0x8
000006A4  07                pop es
000006A5  1400              adc al,0x0
000006A7  00EC              add ah,ch
000006A9  AD                lodsd
000006AA  0408              add al,0x8
000006AC  07                pop es
000006AD  1500005589        adc eax,0x89550000
000006B2  E553              in eax,0x53
000006B4  83EC04            sub esp,byte +0x4
000006B7  E800000000        call 0x6bc
000006BC  5B                pop ebx
000006BD  81C3EC260000      add ebx,0x26ec
000006C3  8B93FCFFFFFF      mov edx,[ebx+0xfffffffc]
000006C9  85D2              test edx,edx
000006CB  7405              jz 0x6d2
000006CD  E83E000000        call 0x710
000006D2  E8F9010000        call 0x8d0
000006D7  E814100000        call 0x16f0
000006DC  58                pop eax
000006DD  5B                pop ebx
000006DE  C9                leave
000006DF  C3                ret
000006E0  FF35ACAD0408      push dword [0x804adac]
000006E6  FF25B0AD0408      jmp near [0x804adb0]
000006EC  0000              add [eax],al
000006EE  0000              add [eax],al
000006F0  FF25B4AD0408      jmp near [0x804adb4]
000006F6  6800000000        push dword 0x0
000006FB  E9E0FFFFFF        jmp 0x1000006e0
00000700  FF25B8AD0408      jmp near [0x804adb8]
00000706  6808000000        push dword 0x8
0000070B  E9D0FFFFFF        jmp 0x1000006e0
00000710  FF25BCAD0408      jmp near [0x804adbc]
00000716  6810000000        push dword 0x10
0000071B  E9C0FFFFFF        jmp 0x1000006e0
00000720  FF25C0AD0408      jmp near [0x804adc0]
00000726  6818000000        push dword 0x18
0000072B  E9B0FFFFFF        jmp 0x1000006e0
00000730  FF25C4AD0408      jmp near [0x804adc4]
00000736  6820000000        push dword 0x20
0000073B  E9A0FFFFFF        jmp 0x1000006e0
00000740  FF25C8AD0408      jmp near [0x804adc8]
00000746  6828000000        push dword 0x28
0000074B  E990FFFFFF        jmp 0x1000006e0
00000750  FF25CCAD0408      jmp near [0x804adcc]
00000756  6830000000        push dword 0x30
0000075B  E980FFFFFF        jmp 0x1000006e0
00000760  FF25D0AD0408      jmp near [0x804add0]
00000766  6838000000        push dword 0x38
0000076B  E970FFFFFF        jmp 0x1000006e0
00000770  FF25D4AD0408      jmp near [0x804add4]
00000776  6840000000        push dword 0x40
0000077B  E960FFFFFF        jmp 0x1000006e0
00000780  FF25D8AD0408      jmp near [0x804add8]
00000786  6848000000        push dword 0x48
0000078B  E950FFFFFF        jmp 0x1000006e0
00000790  FF25DCAD0408      jmp near [0x804addc]
00000796  6850000000        push dword 0x50
0000079B  E940FFFFFF        jmp 0x1000006e0
000007A0  FF25E0AD0408      jmp near [0x804ade0]
000007A6  6858000000        push dword 0x58
000007AB  E930FFFFFF        jmp 0x1000006e0
000007B0  FF25E4AD0408      jmp near [0x804ade4]
000007B6  6860000000        push dword 0x60
000007BB  E920FFFFFF        jmp 0x1000006e0
000007C0  FF25E8AD0408      jmp near [0x804ade8]
000007C6  6868000000        push dword 0x68
000007CB  E910FFFFFF        jmp 0x1000006e0
000007D0  FF25ECAD0408      jmp near [0x804adec]
000007D6  6870000000        push dword 0x70
000007DB  E900FFFFFF        jmp 0x1000006e0
000007E0  31ED              xor ebp,ebp
000007E2  5E                pop esi
000007E3  89E1              mov ecx,esp
000007E5  83E4F0            and esp,byte -0x10
000007E8  50                push eax
000007E9  54                push esp
000007EA  52                push edx
000007EB  6880960408        push dword 0x8049680
000007F0  6890960408        push dword 0x8049690
000007F5  51                push ecx
000007F6  56                push esi
000007F7  6800890408        push dword 0x8048900
000007FC  E82FFFFFFF        call 0x100000730
00000801  F4                hlt
00000802  90                nop
00000803  90                nop
00000804  6690              o16 nop
00000806  6690              o16 nop
00000808  6690              o16 nop
0000080A  6690              o16 nop
0000080C  6690              o16 nop
0000080E  6690              o16 nop
00000810  B8FBAD0408        mov eax,0x804adfb
00000815  2DF8AD0408        sub eax,0x804adf8
0000081A  83F806            cmp eax,byte +0x6
0000081D  7701              ja 0x820
0000081F  C3                ret
00000820  B800000000        mov eax,0x0
00000825  85C0              test eax,eax
00000827  74F6              jz 0x81f
00000829  55                push ebp
0000082A  89E5              mov ebp,esp
0000082C  83EC18            sub esp,byte +0x18
0000082F  C70424F8AD0408    mov dword [esp],0x804adf8
00000836  FFD0              call eax
00000838  C9                leave
00000839  C3                ret
0000083A  8DB600000000      lea esi,[esi+0x0]
00000840  B8F8AD0408        mov eax,0x804adf8
00000845  2DF8AD0408        sub eax,0x804adf8
0000084A  C1F802            sar eax,0x2
0000084D  89C2              mov edx,eax
0000084F  C1EA1F            shr edx,0x1f
00000852  01D0              add eax,edx
00000854  D1F8              sar eax,1
00000856  7501              jnz 0x859
00000858  C3                ret
00000859  BA00000000        mov edx,0x0
0000085E  85D2              test edx,edx
00000860  74F6              jz 0x858
00000862  55                push ebp
00000863  89E5              mov ebp,esp
00000865  83EC18            sub esp,byte +0x18
00000868  89442404          mov [esp+0x4],eax
0000086C  C70424F8AD0408    mov dword [esp],0x804adf8
00000873  FFD2              call edx
00000875  C9                leave
00000876  C3                ret
00000877  89F6              mov esi,esi
00000879  8DBC2700000000    lea edi,[edi+0x0]
00000880  803D2CAF040800    cmp byte [0x804af2c],0x0
00000887  7544              jnz 0x8cd
00000889  55                push ebp
0000088A  89E5              mov ebp,esp
0000088C  53                push ebx
0000088D  BBBCAC0408        mov ebx,0x804acbc
00000892  52                push edx
00000893  81EBB8AC0408      sub ebx,0x804acb8
00000899  A130AF0408        mov eax,[0x804af30]
0000089E  C1FB02            sar ebx,0x2
000008A1  4B                dec ebx
000008A2  39D8              cmp eax,ebx
000008A4  7318              jnc 0x8be
000008A6  6690              o16 nop
000008A8  40                inc eax
000008A9  A330AF0408        mov [0x804af30],eax
000008AE  FF1485B8AC0408    call near [eax*4+0x804acb8]
000008B5  A130AF0408        mov eax,[0x804af30]
000008BA  39D8              cmp eax,ebx
000008BC  72EA              jc 0x8a8
000008BE  E84DFFFFFF        call 0x100000810
000008C3  C6052CAF040801    mov byte [0x804af2c],0x1
000008CA  58                pop eax
000008CB  5B                pop ebx
000008CC  5D                pop ebp
000008CD  C3                ret
000008CE  6690              o16 nop
000008D0  8B0DC0AC0408      mov ecx,[0x804acc0]
000008D6  85C9              test ecx,ecx
000008D8  741E              jz 0x8f8
000008DA  B800000000        mov eax,0x0
000008DF  85C0              test eax,eax
000008E1  7415              jz 0x8f8
000008E3  55                push ebp
000008E4  89E5              mov ebp,esp
000008E6  83EC18            sub esp,byte +0x18
000008E9  C70424C0AC0408    mov dword [esp],0x804acc0
000008F0  FFD0              call eax
000008F2  C9                leave
000008F3  E948FFFFFF        jmp 0x100000840
000008F8  E943FFFFFF        jmp 0x100000840
000008FD  6690              o16 nop
000008FF  90                nop
00000900  55                push ebp
00000901  89E5              mov ebp,esp
00000903  83E4F0            and esp,byte -0x10
00000906  83EC40            sub esp,byte +0x40
00000909  8D442420          lea eax,[esp+0x20]
0000090D  89442404          mov [esp+0x4],eax
00000911  C7042400AE0408    mov dword [esp],0x804ae00
00000918  E863FEFFFF        call 0x100000780
0000091D  C744243C01000000  mov dword [esp+0x3c],0x1
00000925  E9BA020000        jmp 0xbe4
0000092A  C74424043C970408  mov dword [esp+0x4],0x804973c
00000932  C70424A0AE0408    mov dword [esp],0x804aea0
00000939  E812FEFFFF        call 0x100000750
0000093E  8B54243C          mov edx,[esp+0x3c]
00000942  89542404          mov [esp+0x4],edx
00000946  890424            mov [esp],eax
00000949  E8A2FDFFFF        call 0x1000006f0
0000094E  C744240443970408  mov dword [esp+0x4],0x8049743
00000956  890424            mov [esp],eax
00000959  E8F2FDFFFF        call 0x100000750
0000095E  8D44241C          lea eax,[esp+0x1c]
00000962  89442404          mov [esp+0x4],eax
00000966  C7042400AE0408    mov dword [esp],0x804ae00
0000096D  E80EFEFFFF        call 0x100000780
00000972  8B44241C          mov eax,[esp+0x1c]
00000976  89C2              mov edx,eax
00000978  81FA0000A00A      cmp edx,0xaa00000
0000097E  770B              ja 0x98b
00000980  89D0              mov eax,edx
00000982  01C0              add eax,eax
00000984  01D0              add eax,edx
00000986  C1E002            shl eax,0x2
00000989  EB05              jmp short 0x990
0000098B  B8FFFFFFFF        mov eax,0xffffffff
00000990  890424            mov [esp],eax
00000993  E8D8FDFFFF        call 0x100000770
00000998  89442428          mov [esp+0x28],eax
0000099C  8B44241C          mov eax,[esp+0x1c]
000009A0  89C2              mov edx,eax
000009A2  81FA0000A00A      cmp edx,0xaa00000
000009A8  770B              ja 0x9b5
000009AA  89D0              mov eax,edx
000009AC  01C0              add eax,eax
000009AE  01D0              add eax,edx
000009B0  C1E002            shl eax,0x2
000009B3  EB05              jmp short 0x9ba
000009B5  B8FFFFFFFF        mov eax,0xffffffff
000009BA  890424            mov [esp],eax
000009BD  E8AEFDFFFF        call 0x100000770
000009C2  89442424          mov [esp+0x24],eax
000009C6  C744243800000000  mov dword [esp+0x38],0x0
000009CE  EB29              jmp short 0x9f9
000009D0  8B542438          mov edx,[esp+0x38]
000009D4  89D0              mov eax,edx
000009D6  01C0              add eax,eax
000009D8  01D0              add eax,edx
000009DA  C1E002            shl eax,0x2
000009DD  89C2              mov edx,eax
000009DF  8B442428          mov eax,[esp+0x28]
000009E3  01D0              add eax,edx
000009E5  89442404          mov [esp+0x4],eax
000009E9  C7042400AE0408    mov dword [esp],0x804ae00
000009F0  E86BFDFFFF        call 0x100000760
000009F5  FF442438          inc dword [esp+0x38]
000009F9  8B44241C          mov eax,[esp+0x1c]
000009FD  39442438          cmp [esp+0x38],eax
00000A01  7CCD              jl 0x9d0
00000A03  C744243400000000  mov dword [esp+0x34],0x0
00000A0B  EB29              jmp short 0xa36
00000A0D  8B542434          mov edx,[esp+0x34]
00000A11  89D0              mov eax,edx
00000A13  01C0              add eax,eax
00000A15  01D0              add eax,edx
00000A17  C1E002            shl eax,0x2
00000A1A  89C2              mov edx,eax
00000A1C  8B442424          mov eax,[esp+0x24]
00000A20  01D0              add eax,edx
00000A22  89442404          mov [esp+0x4],eax
00000A26  C7042400AE0408    mov dword [esp],0x804ae00
00000A2D  E82EFDFFFF        call 0x100000760
00000A32  FF442434          inc dword [esp+0x34]
00000A36  8B44241C          mov eax,[esp+0x1c]
00000A3A  39442434          cmp [esp+0x34],eax
00000A3E  7CCD              jl 0xa0d
00000A40  8B44241C          mov eax,[esp+0x1c]
00000A44  89C2              mov edx,eax
00000A46  89D0              mov eax,edx
00000A48  01C0              add eax,eax
00000A4A  01D0              add eax,edx
00000A4C  C1E002            shl eax,0x2
00000A4F  89C2              mov edx,eax
00000A51  8B442428          mov eax,[esp+0x28]
00000A55  01D0              add eax,edx
00000A57  89442404          mov [esp+0x4],eax
00000A5B  8B442428          mov eax,[esp+0x28]
00000A5F  890424            mov [esp],eax
00000A62  E811020000        call 0xc78
00000A67  8B44241C          mov eax,[esp+0x1c]
00000A6B  89C2              mov edx,eax
00000A6D  89D0              mov eax,edx
00000A6F  01C0              add eax,eax
00000A71  01D0              add eax,edx
00000A73  C1E002            shl eax,0x2
00000A76  89C2              mov edx,eax
00000A78  8B442424          mov eax,[esp+0x24]
00000A7C  01D0              add eax,edx
00000A7E  89442404          mov [esp+0x4],eax
00000A82  8B442424          mov eax,[esp+0x24]
00000A86  890424            mov [esp],eax
00000A89  E8EA010000        call 0xc78
00000A8E  C744243000000000  mov dword [esp+0x30],0x0
00000A96  C744242C00000000  mov dword [esp+0x2c],0x0
00000A9E  EB67              jmp short 0xb07
00000AA0  8B44241C          mov eax,[esp+0x1c]
00000AA4  3944242C          cmp [esp+0x2c],eax
00000AA8  7C02              jl 0xaac
00000AAA  EB65              jmp short 0xb11
00000AAC  EB04              jmp short 0xab2
00000AAE  FF44242C          inc dword [esp+0x2c]
00000AB2  8B54242C          mov edx,[esp+0x2c]
00000AB6  89D0              mov eax,edx
00000AB8  01C0              add eax,eax
00000ABA  01D0              add eax,edx
00000ABC  C1E002            shl eax,0x2
00000ABF  89C2              mov edx,eax
00000AC1  8B442428          mov eax,[esp+0x28]
00000AC5  01D0              add eax,edx
00000AC7  DB28              fld tword [eax]
00000AC9  8B542430          mov edx,[esp+0x30]
00000ACD  89D0              mov eax,edx
00000ACF  01C0              add eax,eax
00000AD1  01D0              add eax,edx
00000AD3  C1E002            shl eax,0x2
00000AD6  89C2              mov edx,eax
00000AD8  8B442424          mov eax,[esp+0x24]
00000ADC  01D0              add eax,edx
00000ADE  DB28              fld tword [eax]
00000AE0  DAE9              fucompp
00000AE2  DFE0              fnstsw ax
00000AE4  F6C445            test ah,0x45
00000AE7  750A              jnz 0xaf3
00000AE9  8B44241C          mov eax,[esp+0x1c]
00000AED  3944242C          cmp [esp+0x2c],eax
00000AF1  7CBB              jl 0xaae
00000AF3  8B44241C          mov eax,[esp+0x1c]
00000AF7  3944242C          cmp [esp+0x2c],eax
00000AFB  7C02              jl 0xaff
00000AFD  EB12              jmp short 0xb11
00000AFF  FF442430          inc dword [esp+0x30]
00000B03  FF44242C          inc dword [esp+0x2c]
00000B07  8B44241C          mov eax,[esp+0x1c]
00000B0B  39442430          cmp [esp+0x30],eax
00000B0F  7C8F              jl 0xaa0
00000B11  8B442430          mov eax,[esp+0x30]
00000B15  89442404          mov [esp+0x4],eax
00000B19  C70424A0AE0408    mov dword [esp],0x804aea0
00000B20  E8CBFBFFFF        call 0x1000006f0
00000B25  C744240446970408  mov dword [esp+0x4],0x8049746
00000B2D  890424            mov [esp],eax
00000B30  E81BFCFFFF        call 0x100000750
00000B35  C744243000000000  mov dword [esp+0x30],0x0
00000B3D  C744242C00000000  mov dword [esp+0x2c],0x0
00000B45  EB67              jmp short 0xbae
00000B47  8B44241C          mov eax,[esp+0x1c]
00000B4B  3944242C          cmp [esp+0x2c],eax
00000B4F  7C02              jl 0xb53
00000B51  EB65              jmp short 0xbb8
00000B53  EB04              jmp short 0xb59
00000B55  FF44242C          inc dword [esp+0x2c]
00000B59  8B54242C          mov edx,[esp+0x2c]
00000B5D  89D0              mov eax,edx
00000B5F  01C0              add eax,eax
00000B61  01D0              add eax,edx
00000B63  C1E002            shl eax,0x2
00000B66  89C2              mov edx,eax
00000B68  8B442424          mov eax,[esp+0x24]
00000B6C  01D0              add eax,edx
00000B6E  DB28              fld tword [eax]
00000B70  8B542430          mov edx,[esp+0x30]
00000B74  89D0              mov eax,edx
00000B76  01C0              add eax,eax
00000B78  01D0              add eax,edx
00000B7A  C1E002            shl eax,0x2
00000B7D  89C2              mov edx,eax
00000B7F  8B442428          mov eax,[esp+0x28]
00000B83  01D0              add eax,edx
00000B85  DB28              fld tword [eax]
00000B87  DAE9              fucompp
00000B89  DFE0              fnstsw ax
00000B8B  F6C445            test ah,0x45
00000B8E  750A              jnz 0xb9a
00000B90  8B44241C          mov eax,[esp+0x1c]
00000B94  3944242C          cmp [esp+0x2c],eax
00000B98  7CBB              jl 0xb55
00000B9A  8B44241C          mov eax,[esp+0x1c]
00000B9E  3944242C          cmp [esp+0x2c],eax
00000BA2  7C02              jl 0xba6
00000BA4  EB12              jmp short 0xbb8
00000BA6  FF442430          inc dword [esp+0x30]
00000BAA  FF44242C          inc dword [esp+0x2c]
00000BAE  8B44241C          mov eax,[esp+0x1c]
00000BB2  39442430          cmp [esp+0x30],eax
00000BB6  7C8F              jl 0xb47
00000BB8  8B44241C          mov eax,[esp+0x1c]
00000BBC  2B442430          sub eax,[esp+0x30]
00000BC0  89442404          mov [esp+0x4],eax
00000BC4  C70424A0AE0408    mov dword [esp],0x804aea0
00000BCB  E820FBFFFF        call 0x1000006f0
00000BD0  C7442404B0870408  mov dword [esp+0x4],0x80487b0
00000BD8  890424            mov [esp],eax
00000BDB  E8C0FBFFFF        call 0x1000007a0
00000BE0  FF44243C          inc dword [esp+0x3c]
00000BE4  8B442420          mov eax,[esp+0x20]
00000BE8  3944243C          cmp [esp+0x3c],eax
00000BEC  0F8E38FDFFFF      jng near 0x10000092a
00000BF2  B800000000        mov eax,0x0
00000BF7  EB0A              jmp short 0xc03
00000BF9  EB00              jmp short 0xbfb
00000BFB  890424            mov [esp],eax
00000BFE  E8CDFBFFFF        call 0x1000007d0
00000C03  C9                leave
00000C04  C3                ret
00000C05  55                push ebp
00000C06  89E5              mov ebp,esp
00000C08  83EC18            sub esp,byte +0x18
00000C0B  837D0801          cmp dword [ebp+0x8],byte +0x1
00000C0F  7531              jnz 0xc42
00000C11  817D0CFFFF0000    cmp dword [ebp+0xc],0xffff
00000C18  7528              jnz 0xc42
00000C1A  C7042434AF0408    mov dword [esp],0x804af34
00000C21  E8FAFAFFFF        call 0x100000720
00000C26  C7442408F4AD0408  mov dword [esp+0x8],0x804adf4
00000C2E  C744240434AF0408  mov dword [esp+0x4],0x804af34
00000C36  C7042440870408    mov dword [esp],0x8048740
00000C3D  E8BEFAFFFF        call 0x100000700
00000C42  C9                leave
00000C43  C3                ret
00000C44  55                push ebp
00000C45  89E5              mov ebp,esp
00000C47  83EC18            sub esp,byte +0x18
00000C4A  C7442404FFFF0000  mov dword [esp+0x4],0xffff
00000C52  C7042401000000    mov dword [esp],0x1
00000C59  E8A7FFFFFF        call 0x100000c05
00000C5E  C9                leave
00000C5F  C3                ret
00000C60  55                push ebp
00000C61  89E5              mov ebp,esp
00000C63  BA20000000        mov edx,0x20
00000C68  8B4508            mov eax,[ebp+0x8]
00000C6B  0FBDC0            bsr eax,eax
00000C6E  83F01F            xor eax,byte +0x1f
00000C71  29C2              sub edx,eax
00000C73  89D0              mov eax,edx
00000C75  48                dec eax
00000C76  5D                pop ebp
00000C77  C3                ret
00000C78  55                push ebp
00000C79  89E5              mov ebp,esp
00000C7B  83EC18            sub esp,byte +0x18
00000C7E  8B4508            mov eax,[ebp+0x8]
00000C81  3B450C            cmp eax,[ebp+0xc]
00000C84  7461              jz 0xce7
00000C86  8B550C            mov edx,[ebp+0xc]
00000C89  8B4508            mov eax,[ebp+0x8]
00000C8C  29C2              sub edx,eax
00000C8E  89D0              mov eax,edx
00000C90  C1F802            sar eax,0x2
00000C93  89C2              mov edx,eax
00000C95  89D0              mov eax,edx
00000C97  C1E002            shl eax,0x2
00000C9A  01D0              add eax,edx
00000C9C  89C1              mov ecx,eax
00000C9E  C1E104            shl ecx,0x4
00000CA1  01C8              add eax,ecx
00000CA3  89C1              mov ecx,eax
00000CA5  C1E108            shl ecx,0x8
00000CA8  01C8              add eax,ecx
00000CAA  89C1              mov ecx,eax
00000CAC  C1E110            shl ecx,0x10
00000CAF  01C8              add eax,ecx
00000CB1  01C0              add eax,eax
00000CB3  01D0              add eax,edx
00000CB5  890424            mov [esp],eax
00000CB8  E8A3FFFFFF        call 0x100000c60
00000CBD  01C0              add eax,eax
00000CBF  89442408          mov [esp+0x8],eax
00000CC3  8B450C            mov eax,[ebp+0xc]
00000CC6  89442404          mov [esp+0x4],eax
00000CCA  8B4508            mov eax,[ebp+0x8]
00000CCD  890424            mov [esp],eax
00000CD0  E814000000        call 0xce9
00000CD5  8B450C            mov eax,[ebp+0xc]
00000CD8  89442404          mov [esp+0x4],eax
00000CDC  8B4508            mov eax,[ebp+0x8]
00000CDF  890424            mov [esp],eax
00000CE2  E875000000        call 0xd5c
00000CE7  C9                leave
00000CE8  C3                ret
00000CE9  55                push ebp
00000CEA  89E5              mov ebp,esp
00000CEC  83EC28            sub esp,byte +0x28
00000CEF  EB58              jmp short 0xd49
00000CF1  837D1000          cmp dword [ebp+0x10],byte +0x0
00000CF5  751B              jnz 0xd12
00000CF7  8B450C            mov eax,[ebp+0xc]
00000CFA  89442408          mov [esp+0x8],eax
00000CFE  8B450C            mov eax,[ebp+0xc]
00000D01  89442404          mov [esp+0x4],eax
00000D05  8B4508            mov eax,[ebp+0x8]
00000D08  890424            mov [esp],eax
00000D0B  E8A8000000        call 0xdb8
00000D10  EB48              jmp short 0xd5a
00000D12  FF4D10            dec dword [ebp+0x10]
00000D15  8B450C            mov eax,[ebp+0xc]
00000D18  89442404          mov [esp+0x4],eax
00000D1C  8B4508            mov eax,[ebp+0x8]
00000D1F  890424            mov [esp],eax
00000D22  E8C4000000        call 0xdeb
00000D27  8945F4            mov [ebp-0xc],eax
00000D2A  8B4510            mov eax,[ebp+0x10]
00000D2D  89442408          mov [esp+0x8],eax
00000D31  8B450C            mov eax,[ebp+0xc]
00000D34  89442404          mov [esp+0x4],eax
00000D38  8B45F4            mov eax,[ebp-0xc]
00000D3B  890424            mov [esp],eax
00000D3E  E8A6FFFFFF        call 0x100000ce9
00000D43  8B45F4            mov eax,[ebp-0xc]
00000D46  89450C            mov [ebp+0xc],eax
00000D49  8B550C            mov edx,[ebp+0xc]
00000D4C  8B4508            mov eax,[ebp+0x8]
00000D4F  29C2              sub edx,eax
00000D51  89D0              mov eax,edx
00000D53  3DCB000000        cmp eax,0xcb
00000D58  7F97              jg 0xcf1
00000D5A  C9                leave
00000D5B  C3                ret
00000D5C  55                push ebp
00000D5D  89E5              mov ebp,esp
00000D5F  83EC18            sub esp,byte +0x18
00000D62  8B550C            mov edx,[ebp+0xc]
00000D65  8B4508            mov eax,[ebp+0x8]
00000D68  29C2              sub edx,eax
00000D6A  89D0              mov eax,edx
00000D6C  3DCB000000        cmp eax,0xcb
00000D71  7E31              jng 0xda4
00000D73  8B4508            mov eax,[ebp+0x8]
00000D76  05C0000000        add eax,0xc0
00000D7B  89442404          mov [esp+0x4],eax
00000D7F  8B4508            mov eax,[ebp+0x8]
00000D82  890424            mov [esp],eax
00000D85  E8EE000000        call 0xe78
00000D8A  8B4508            mov eax,[ebp+0x8]
00000D8D  8D90C0000000      lea edx,[eax+0xc0]
00000D93  8B450C            mov eax,[ebp+0xc]
00000D96  89442404          mov [esp+0x4],eax
00000D9A  891424            mov [esp],edx
00000D9D  E868010000        call 0xf0a
00000DA2  EB12              jmp short 0xdb6
00000DA4  8B450C            mov eax,[ebp+0xc]
00000DA7  89442404          mov [esp+0x4],eax
00000DAB  8B4508            mov eax,[ebp+0x8]
00000DAE  890424            mov [esp],eax
00000DB1  E8C2000000        call 0xe78
00000DB6  C9                leave
00000DB7  C3                ret
00000DB8  55                push ebp
00000DB9  89E5              mov ebp,esp
00000DBB  83EC18            sub esp,byte +0x18
00000DBE  8B4510            mov eax,[ebp+0x10]
00000DC1  89442408          mov [esp+0x8],eax
00000DC5  8B450C            mov eax,[ebp+0xc]
00000DC8  89442404          mov [esp+0x4],eax
00000DCC  8B4508            mov eax,[ebp+0x8]
00000DCF  890424            mov [esp],eax
00000DD2  E85A010000        call 0xf31
00000DD7  8B450C            mov eax,[ebp+0xc]
00000DDA  89442404          mov [esp+0x4],eax
00000DDE  8B4508            mov eax,[ebp+0x8]
00000DE1  890424            mov [esp],eax
00000DE4  E8A2010000        call 0xf8b
00000DE9  C9                leave
00000DEA  C3                ret
00000DEB  55                push ebp
00000DEC  89E5              mov ebp,esp
00000DEE  83EC28            sub esp,byte +0x28
00000DF1  8B550C            mov edx,[ebp+0xc]
00000DF4  8B4508            mov eax,[ebp+0x8]
00000DF7  29C2              sub edx,eax
00000DF9  89D0              mov eax,edx
00000DFB  C1F802            sar eax,0x2
00000DFE  89C2              mov edx,eax
00000E00  89D0              mov eax,edx
00000E02  C1E002            shl eax,0x2
00000E05  01D0              add eax,edx
00000E07  89C1              mov ecx,eax
00000E09  C1E104            shl ecx,0x4
00000E0C  01C8              add eax,ecx
00000E0E  89C1              mov ecx,eax
00000E10  C1E108            shl ecx,0x8
00000E13  01C8              add eax,ecx
00000E15  89C1              mov ecx,eax
00000E17  C1E110            shl ecx,0x10
00000E1A  01C8              add eax,ecx
00000E1C  01C0              add eax,eax
00000E1E  01D0              add eax,edx
00000E20  89C2              mov edx,eax
00000E22  C1EA1F            shr edx,0x1f
00000E25  01D0              add eax,edx
00000E27  D1F8              sar eax,1
00000E29  89C2              mov edx,eax
00000E2B  89D0              mov eax,edx
00000E2D  01C0              add eax,eax
00000E2F  01D0              add eax,edx
00000E31  C1E002            shl eax,0x2
00000E34  89C2              mov edx,eax
00000E36  8B4508            mov eax,[ebp+0x8]
00000E39  01D0              add eax,edx
00000E3B  8945F4            mov [ebp-0xc],eax
00000E3E  8B450C            mov eax,[ebp+0xc]
00000E41  83E80C            sub eax,byte +0xc
00000E44  89442408          mov [esp+0x8],eax
00000E48  8B45F4            mov eax,[ebp-0xc]
00000E4B  89442404          mov [esp+0x4],eax
00000E4F  8B4508            mov eax,[ebp+0x8]
00000E52  890424            mov [esp],eax
00000E55  E867010000        call 0xfc1
00000E5A  8B4508            mov eax,[ebp+0x8]
00000E5D  8D500C            lea edx,[eax+0xc]
00000E60  8B4508            mov eax,[ebp+0x8]
00000E63  89442408          mov [esp+0x8],eax
00000E67  8B450C            mov eax,[ebp+0xc]
00000E6A  89442404          mov [esp+0x4],eax
00000E6E  891424            mov [esp],edx
00000E71  E802020000        call 0x1078
00000E76  C9                leave
00000E77  C3                ret
00000E78  55                push ebp
00000E79  89E5              mov ebp,esp
00000E7B  53                push ebx
00000E7C  83EC24            sub esp,byte +0x24
00000E7F  8B4508            mov eax,[ebp+0x8]
00000E82  3B450C            cmp eax,[ebp+0xc]
00000E85  7502              jnz 0xe89
00000E87  EB7B              jmp short 0xf04
00000E89  8B4508            mov eax,[ebp+0x8]
00000E8C  83C00C            add eax,byte +0xc
00000E8F  8945F4            mov [ebp-0xc],eax
00000E92  EB68              jmp short 0xefc
00000E94  8B45F4            mov eax,[ebp-0xc]
00000E97  DB28              fld tword [eax]
00000E99  8B4508            mov eax,[ebp+0x8]
00000E9C  DB28              fld tword [eax]
00000E9E  DAE9              fucompp
00000EA0  DFE0              fnstsw ax
00000EA2  F6C445            test ah,0x45
00000EA5  7546              jnz 0xeed
00000EA7  8B45F4            mov eax,[ebp-0xc]
00000EAA  8B4808            mov ecx,[eax+0x8]
00000EAD  8B5004            mov edx,[eax+0x4]
00000EB0  8B00              mov eax,[eax]
00000EB2  8945E8            mov [ebp-0x18],eax
00000EB5  8955EC            mov [ebp-0x14],edx
00000EB8  894DF0            mov [ebp-0x10],ecx
00000EBB  8B45F4            mov eax,[ebp-0xc]
00000EBE  83C00C            add eax,byte +0xc
00000EC1  89442408          mov [esp+0x8],eax
00000EC5  8B45F4            mov eax,[ebp-0xc]
00000EC8  89442404          mov [esp+0x4],eax
00000ECC  8B4508            mov eax,[ebp+0x8]
00000ECF  890424            mov [esp],eax
00000ED2  E805020000        call 0x10dc
00000ED7  8B5D08            mov ebx,[ebp+0x8]
00000EDA  8B45E8            mov eax,[ebp-0x18]
00000EDD  8B55EC            mov edx,[ebp-0x14]
00000EE0  8B4DF0            mov ecx,[ebp-0x10]
00000EE3  8903              mov [ebx],eax
00000EE5  895304            mov [ebx+0x4],edx
00000EE8  894B08            mov [ebx+0x8],ecx
00000EEB  EB0B              jmp short 0xef8
00000EED  8B45F4            mov eax,[ebp-0xc]
00000EF0  890424            mov [esp],eax
00000EF3  E81C020000        call 0x1114
00000EF8  8345F40C          add dword [ebp-0xc],byte +0xc
00000EFC  8B45F4            mov eax,[ebp-0xc]
00000EFF  3B450C            cmp eax,[ebp+0xc]
00000F02  7590              jnz 0xe94
00000F04  83C424            add esp,byte +0x24
00000F07  5B                pop ebx
00000F08  5D                pop ebp
00000F09  C3                ret
00000F0A  55                push ebp
00000F0B  89E5              mov ebp,esp
00000F0D  83EC28            sub esp,byte +0x28
00000F10  8B4508            mov eax,[ebp+0x8]
00000F13  8945F4            mov [ebp-0xc],eax
00000F16  EB0F              jmp short 0xf27
00000F18  8B45F4            mov eax,[ebp-0xc]
00000F1B  890424            mov [esp],eax
00000F1E  E8F1010000        call 0x1114
00000F23  8345F40C          add dword [ebp-0xc],byte +0xc
00000F27  8B45F4            mov eax,[ebp-0xc]
00000F2A  3B450C            cmp eax,[ebp+0xc]
00000F2D  75E9              jnz 0xf18
00000F2F  C9                leave
00000F30  C3                ret
00000F31  55                push ebp
00000F32  89E5              mov ebp,esp
00000F34  83EC28            sub esp,byte +0x28
00000F37  8B450C            mov eax,[ebp+0xc]
00000F3A  89442404          mov [esp+0x4],eax
00000F3E  8B4508            mov eax,[ebp+0x8]
00000F41  890424            mov [esp],eax
00000F44  E83F020000        call 0x1188
00000F49  8B450C            mov eax,[ebp+0xc]
00000F4C  8945F4            mov [ebp-0xc],eax
00000F4F  EB30              jmp short 0xf81
00000F51  8B45F4            mov eax,[ebp-0xc]
00000F54  DB28              fld tword [eax]
00000F56  8B4508            mov eax,[ebp+0x8]
00000F59  DB28              fld tword [eax]
00000F5B  DAE9              fucompp
00000F5D  DFE0              fnstsw ax
00000F5F  F6C445            test ah,0x45
00000F62  7519              jnz 0xf7d
00000F64  8B45F4            mov eax,[ebp-0xc]
00000F67  89442408          mov [esp+0x8],eax
00000F6B  8B450C            mov eax,[ebp+0xc]
00000F6E  89442404          mov [esp+0x4],eax
00000F72  8B4508            mov eax,[ebp+0x8]
00000F75  890424            mov [esp],eax
00000F78  E8CA020000        call 0x1247
00000F7D  8345F40C          add dword [ebp-0xc],byte +0xc
00000F81  8B45F4            mov eax,[ebp-0xc]
00000F84  3B4510            cmp eax,[ebp+0x10]
00000F87  72C8              jc 0xf51
00000F89  C9                leave
00000F8A  C3                ret
00000F8B  55                push ebp
00000F8C  89E5              mov ebp,esp
00000F8E  83EC18            sub esp,byte +0x18
00000F91  EB1D              jmp short 0xfb0
00000F93  836D0C0C          sub dword [ebp+0xc],byte +0xc
00000F97  8B450C            mov eax,[ebp+0xc]
00000F9A  89442408          mov [esp+0x8],eax
00000F9E  8B450C            mov eax,[ebp+0xc]
00000FA1  89442404          mov [esp+0x4],eax
00000FA5  8B4508            mov eax,[ebp+0x8]
00000FA8  890424            mov [esp],eax
00000FAB  E897020000        call 0x1247
00000FB0  8B550C            mov edx,[ebp+0xc]
00000FB3  8B4508            mov eax,[ebp+0x8]
00000FB6  29C2              sub edx,eax
00000FB8  89D0              mov eax,edx
00000FBA  83F817            cmp eax,byte +0x17
00000FBD  7FD4              jg 0xf93
00000FBF  C9                leave
00000FC0  C3                ret
00000FC1  55                push ebp
00000FC2  89E5              mov ebp,esp
00000FC4  83EC18            sub esp,byte +0x18
00000FC7  8B4508            mov eax,[ebp+0x8]
00000FCA  DB28              fld tword [eax]
00000FCC  8B450C            mov eax,[ebp+0xc]
00000FCF  DB28              fld tword [eax]
00000FD1  DAE9              fucompp
00000FD3  DFE0              fnstsw ax
00000FD5  F6C445            test ah,0x45
00000FD8  754E              jnz 0x1028
00000FDA  8B450C            mov eax,[ebp+0xc]
00000FDD  DB28              fld tword [eax]
00000FDF  8B4510            mov eax,[ebp+0x10]
00000FE2  DB28              fld tword [eax]
00000FE4  DAE9              fucompp
00000FE6  DFE0              fnstsw ax
00000FE8  F6C445            test ah,0x45
00000FEB  7514              jnz 0x1001
00000FED  8B450C            mov eax,[ebp+0xc]
00000FF0  89442404          mov [esp+0x4],eax
00000FF4  8B4508            mov eax,[ebp+0x8]
00000FF7  890424            mov [esp],eax
00000FFA  E8DC020000        call 0x12db
00000FFF  EB75              jmp short 0x1076
00001001  8B4508            mov eax,[ebp+0x8]
00001004  DB28              fld tword [eax]
00001006  8B4510            mov eax,[ebp+0x10]
00001009  DB28              fld tword [eax]
0000100B  DAE9              fucompp
0000100D  DFE0              fnstsw ax
0000100F  F6C445            test ah,0x45
00001012  7562              jnz 0x1076
00001014  8B4510            mov eax,[ebp+0x10]
00001017  89442404          mov [esp+0x4],eax
0000101B  8B4508            mov eax,[ebp+0x8]
0000101E  890424            mov [esp],eax
00001021  E8B5020000        call 0x12db
00001026  EB4E              jmp short 0x1076
00001028  8B4508            mov eax,[ebp+0x8]
0000102B  DB28              fld tword [eax]
0000102D  8B4510            mov eax,[ebp+0x10]
00001030  DB28              fld tword [eax]
00001032  DAE9              fucompp
00001034  DFE0              fnstsw ax
00001036  F6C445            test ah,0x45
00001039  7502              jnz 0x103d
0000103B  EB39              jmp short 0x1076
0000103D  8B450C            mov eax,[ebp+0xc]
00001040  DB28              fld tword [eax]
00001042  8B4510            mov eax,[ebp+0x10]
00001045  DB28              fld tword [eax]
00001047  DAE9              fucompp
00001049  DFE0              fnstsw ax
0000104B  F6C445            test ah,0x45
0000104E  7514              jnz 0x1064
00001050  8B4510            mov eax,[ebp+0x10]
00001053  89442404          mov [esp+0x4],eax
00001057  8B4508            mov eax,[ebp+0x8]
0000105A  890424            mov [esp],eax
0000105D  E879020000        call 0x12db
00001062  EB12              jmp short 0x1076
00001064  8B450C            mov eax,[ebp+0xc]
00001067  89442404          mov [esp+0x4],eax
0000106B  8B4508            mov eax,[ebp+0x8]
0000106E  890424            mov [esp],eax
00001071  E865020000        call 0x12db
00001076  C9                leave
00001077  C3                ret
00001078  55                push ebp
00001079  89E5              mov ebp,esp
0000107B  83EC18            sub esp,byte +0x18
0000107E  EB04              jmp short 0x1084
00001080  8345080C          add dword [ebp+0x8],byte +0xc
00001084  8B4508            mov eax,[ebp+0x8]
00001087  DB28              fld tword [eax]
00001089  8B4510            mov eax,[ebp+0x10]
0000108C  DB28              fld tword [eax]
0000108E  DAE9              fucompp
00001090  DFE0              fnstsw ax
00001092  F6C445            test ah,0x45
00001095  74E9              jz 0x1080
00001097  836D0C0C          sub dword [ebp+0xc],byte +0xc
0000109B  EB04              jmp short 0x10a1
0000109D  836D0C0C          sub dword [ebp+0xc],byte +0xc
000010A1  8B4510            mov eax,[ebp+0x10]
000010A4  DB28              fld tword [eax]
000010A6  8B450C            mov eax,[ebp+0xc]
000010A9  DB28              fld tword [eax]
000010AB  DAE9              fucompp
000010AD  DFE0              fnstsw ax
000010AF  F6C445            test ah,0x45
000010B2  74E9              jz 0x109d
000010B4  8B4508            mov eax,[ebp+0x8]
000010B7  3B450C            cmp eax,[ebp+0xc]
000010BA  7205              jc 0x10c1
000010BC  8B4508            mov eax,[ebp+0x8]
000010BF  EB19              jmp short 0x10da
000010C1  8B450C            mov eax,[ebp+0xc]
000010C4  89442404          mov [esp+0x4],eax
000010C8  8B4508            mov eax,[ebp+0x8]
000010CB  890424            mov [esp],eax
000010CE  E808020000        call 0x12db
000010D3  8345080C          add dword [ebp+0x8],byte +0xc
000010D7  90                nop
000010D8  EBAA              jmp short 0x1084
000010DA  C9                leave
000010DB  C3                ret
000010DC  55                push ebp
000010DD  89E5              mov ebp,esp
000010DF  53                push ebx
000010E0  83EC14            sub esp,byte +0x14
000010E3  8B450C            mov eax,[ebp+0xc]
000010E6  890424            mov [esp],eax
000010E9  E807020000        call 0x12f5
000010EE  89C3              mov ebx,eax
000010F0  8B4508            mov eax,[ebp+0x8]
000010F3  890424            mov [esp],eax
000010F6  E8FA010000        call 0x12f5
000010FB  8B5510            mov edx,[ebp+0x10]
000010FE  89542408          mov [esp+0x8],edx
00001102  895C2404          mov [esp+0x4],ebx
00001106  890424            mov [esp],eax
00001109  E8FA010000        call 0x1308
0000110E  83C414            add esp,byte +0x14
00001111  5B                pop ebx
00001112  5D                pop ebp
00001113  C3                ret
00001114  55                push ebp
00001115  89E5              mov ebp,esp
00001117  53                push ebx
00001118  83EC10            sub esp,byte +0x10
0000111B  8B4508            mov eax,[ebp+0x8]
0000111E  8B4808            mov ecx,[eax+0x8]
00001121  8B5004            mov edx,[eax+0x4]
00001124  8B00              mov eax,[eax]
00001126  8945EC            mov [ebp-0x14],eax
00001129  8955F0            mov [ebp-0x10],edx
0000112C  894DF4            mov [ebp-0xc],ecx
0000112F  8B4508            mov eax,[ebp+0x8]
00001132  8945F8            mov [ebp-0x8],eax
00001135  836DF80C          sub dword [ebp-0x8],byte +0xc
00001139  EB20              jmp short 0x115b
0000113B  8B45F8            mov eax,[ebp-0x8]
0000113E  8B4808            mov ecx,[eax+0x8]
00001141  8B5004            mov edx,[eax+0x4]
00001144  8B00              mov eax,[eax]
00001146  8B5D08            mov ebx,[ebp+0x8]
00001149  8903              mov [ebx],eax
0000114B  895304            mov [ebx+0x4],edx
0000114E  894B08            mov [ebx+0x8],ecx
00001151  8B45F8            mov eax,[ebp-0x8]
00001154  894508            mov [ebp+0x8],eax
00001157  836DF80C          sub dword [ebp-0x8],byte +0xc
0000115B  8B45F8            mov eax,[ebp-0x8]
0000115E  DB28              fld tword [eax]
00001160  DB6DEC            fld tword [ebp-0x14]
00001163  D9C9              fxch
00001165  DAE9              fucompp
00001167  DFE0              fnstsw ax
00001169  F6C445            test ah,0x45
0000116C  74CD              jz 0x113b
0000116E  8B5D08            mov ebx,[ebp+0x8]
00001171  8B45EC            mov eax,[ebp-0x14]
00001174  8B55F0            mov edx,[ebp-0x10]
00001177  8B4DF4            mov ecx,[ebp-0xc]
0000117A  8903              mov [ebx],eax
0000117C  895304            mov [ebx+0x4],edx
0000117F  894B08            mov [ebx+0x8],ecx
00001182  83C410            add esp,byte +0x10
00001185  5B                pop ebx
00001186  5D                pop ebp
00001187  C3                ret
00001188  55                push ebp
00001189  89E5              mov ebp,esp
0000118B  83EC48            sub esp,byte +0x48
0000118E  8B550C            mov edx,[ebp+0xc]
00001191  8B4508            mov eax,[ebp+0x8]
00001194  29C2              sub edx,eax
00001196  89D0              mov eax,edx
00001198  83F817            cmp eax,byte +0x17
0000119B  7F05              jg 0x11a2
0000119D  E9A3000000        jmp 0x1245
000011A2  8B550C            mov edx,[ebp+0xc]
000011A5  8B4508            mov eax,[ebp+0x8]
000011A8  29C2              sub edx,eax
000011AA  89D0              mov eax,edx
000011AC  C1F802            sar eax,0x2
000011AF  89C2              mov edx,eax
000011B1  89D0              mov eax,edx
000011B3  C1E002            shl eax,0x2
000011B6  01D0              add eax,edx
000011B8  89C1              mov ecx,eax
000011BA  C1E104            shl ecx,0x4
000011BD  01C8              add eax,ecx
000011BF  89C1              mov ecx,eax
000011C1  C1E108            shl ecx,0x8
000011C4  01C8              add eax,ecx
000011C6  89C1              mov ecx,eax
000011C8  C1E110            shl ecx,0x10
000011CB  01C8              add eax,ecx
000011CD  01C0              add eax,eax
000011CF  01D0              add eax,edx
000011D1  8945F0            mov [ebp-0x10],eax
000011D4  8B45F0            mov eax,[ebp-0x10]
000011D7  83E802            sub eax,byte +0x2
000011DA  89C2              mov edx,eax
000011DC  C1EA1F            shr edx,0x1f
000011DF  01D0              add eax,edx
000011E1  D1F8              sar eax,1
000011E3  8945F4            mov [ebp-0xc],eax
000011E6  8B55F4            mov edx,[ebp-0xc]
000011E9  89D0              mov eax,edx
000011EB  01C0              add eax,eax
000011ED  01D0              add eax,edx
000011EF  C1E002            shl eax,0x2
000011F2  89C2              mov edx,eax
000011F4  8B4508            mov eax,[ebp+0x8]
000011F7  01D0              add eax,edx
000011F9  8B4808            mov ecx,[eax+0x8]
000011FC  8B5004            mov edx,[eax+0x4]
000011FF  8B00              mov eax,[eax]
00001201  8945D8            mov [ebp-0x28],eax
00001204  8955DC            mov [ebp-0x24],edx
00001207  894DE0            mov [ebp-0x20],ecx
0000120A  8B45D8            mov eax,[ebp-0x28]
0000120D  8B55DC            mov edx,[ebp-0x24]
00001210  8B4DE0            mov ecx,[ebp-0x20]
00001213  8944240C          mov [esp+0xc],eax
00001217  89542410          mov [esp+0x10],edx
0000121B  894C2414          mov [esp+0x14],ecx
0000121F  8B45F0            mov eax,[ebp-0x10]
00001222  89442408          mov [esp+0x8],eax
00001226  8B45F4            mov eax,[ebp-0xc]
00001229  89442404          mov [esp+0x4],eax
0000122D  8B4508            mov eax,[ebp+0x8]
00001230  890424            mov [esp],eax
00001233  E814010000        call 0x134c
00001238  837DF400          cmp dword [ebp-0xc],byte +0x0
0000123C  7502              jnz 0x1240
0000123E  EB05              jmp short 0x1245
00001240  FF4DF4            dec dword [ebp-0xc]
00001243  EBA1              jmp short 0x11e6
00001245  C9                leave
00001246  C3                ret
00001247  55                push ebp
00001248  89E5              mov ebp,esp
0000124A  53                push ebx
0000124B  83EC34            sub esp,byte +0x34
0000124E  8B4510            mov eax,[ebp+0x10]
00001251  8B4808            mov ecx,[eax+0x8]
00001254  8B5004            mov edx,[eax+0x4]
00001257  8B00              mov eax,[eax]
00001259  8945E8            mov [ebp-0x18],eax
0000125C  8955EC            mov [ebp-0x14],edx
0000125F  894DF0            mov [ebp-0x10],ecx
00001262  8B4508            mov eax,[ebp+0x8]
00001265  8B4808            mov ecx,[eax+0x8]
00001268  8B5004            mov edx,[eax+0x4]
0000126B  8B00              mov eax,[eax]
0000126D  8B5D10            mov ebx,[ebp+0x10]
00001270  8903              mov [ebx],eax
00001272  895304            mov [ebx+0x4],edx
00001275  894B08            mov [ebx+0x8],ecx
00001278  8B550C            mov edx,[ebp+0xc]
0000127B  8B4508            mov eax,[ebp+0x8]
0000127E  29C2              sub edx,eax
00001280  89D0              mov eax,edx
00001282  C1F802            sar eax,0x2
00001285  89C2              mov edx,eax
00001287  89D0              mov eax,edx
00001289  C1E002            shl eax,0x2
0000128C  01D0              add eax,edx
0000128E  89C1              mov ecx,eax
00001290  C1E104            shl ecx,0x4
00001293  01C8              add eax,ecx
00001295  89C1              mov ecx,eax
00001297  C1E108            shl ecx,0x8
0000129A  01C8              add eax,ecx
0000129C  89C1              mov ecx,eax
0000129E  C1E110            shl ecx,0x10
000012A1  01C8              add eax,ecx
000012A3  01C0              add eax,eax
000012A5  01D0              add eax,edx
000012A7  89C3              mov ebx,eax
000012A9  8B45E8            mov eax,[ebp-0x18]
000012AC  8B55EC            mov edx,[ebp-0x14]
000012AF  8B4DF0            mov ecx,[ebp-0x10]
000012B2  8944240C          mov [esp+0xc],eax
000012B6  89542410          mov [esp+0x10],edx
000012BA  894C2414          mov [esp+0x14],ecx
000012BE  895C2408          mov [esp+0x8],ebx
000012C2  C744240400000000  mov dword [esp+0x4],0x0
000012CA  8B4508            mov eax,[ebp+0x8]
000012CD  890424            mov [esp],eax
000012D0  E877000000        call 0x134c
000012D5  83C434            add esp,byte +0x34
000012D8  5B                pop ebx
000012D9  5D                pop ebp
000012DA  C3                ret
000012DB  55                push ebp
000012DC  89E5              mov ebp,esp
000012DE  83EC18            sub esp,byte +0x18
000012E1  8B450C            mov eax,[ebp+0xc]
000012E4  89442404          mov [esp+0x4],eax
000012E8  8B4508            mov eax,[ebp+0x8]
000012EB  890424            mov [esp],eax
000012EE  E89B010000        call 0x148e
000012F3  C9                leave
000012F4  C3                ret
000012F5  55                push ebp
000012F6  89E5              mov ebp,esp
000012F8  83EC18            sub esp,byte +0x18
000012FB  8B4508            mov eax,[ebp+0x8]
000012FE  890424            mov [esp],eax
00001301  E8A2010000        call 0x14a8
00001306  C9                leave
00001307  C3                ret
00001308  55                push ebp
00001309  89E5              mov ebp,esp
0000130B  56                push esi
0000130C  53                push ebx
0000130D  83EC10            sub esp,byte +0x10
00001310  8B4510            mov eax,[ebp+0x10]
00001313  890424            mov [esp],eax
00001316  E895010000        call 0x14b0
0000131B  89C6              mov esi,eax
0000131D  8B450C            mov eax,[ebp+0xc]
00001320  890424            mov [esp],eax
00001323  E888010000        call 0x14b0
00001328  89C3              mov ebx,eax
0000132A  8B4508            mov eax,[ebp+0x8]
0000132D  890424            mov [esp],eax
00001330  E87B010000        call 0x14b0
00001335  89742408          mov [esp+0x8],esi
00001339  895C2404          mov [esp+0x4],ebx
0000133D  890424            mov [esp],eax
00001340  E87E010000        call 0x14c3
00001345  83C410            add esp,byte +0x10
00001348  5B                pop ebx
00001349  5E                pop esi
0000134A  5D                pop ebp
0000134B  C3                ret
0000134C  55                push ebp
0000134D  89E5              mov ebp,esp
0000134F  53                push ebx
00001350  83EC34            sub esp,byte +0x34
00001353  8B450C            mov eax,[ebp+0xc]
00001356  8945F0            mov [ebp-0x10],eax
00001359  8B450C            mov eax,[ebp+0xc]
0000135C  8945F4            mov [ebp-0xc],eax
0000135F  EB7D              jmp short 0x13de
00001361  8B45F4            mov eax,[ebp-0xc]
00001364  40                inc eax
00001365  01C0              add eax,eax
00001367  8945F4            mov [ebp-0xc],eax
0000136A  8B55F4            mov edx,[ebp-0xc]
0000136D  89D0              mov eax,edx
0000136F  01C0              add eax,eax
00001371  01D0              add eax,edx
00001373  C1E002            shl eax,0x2
00001376  89C2              mov edx,eax
00001378  8B4508            mov eax,[ebp+0x8]
0000137B  01D0              add eax,edx
0000137D  DB28              fld tword [eax]
0000137F  8B55F4            mov edx,[ebp-0xc]
00001382  89D0              mov eax,edx
00001384  01C0              add eax,eax
00001386  01D0              add eax,edx
00001388  C1E002            shl eax,0x2
0000138B  8D50F4            lea edx,[eax-0xc]
0000138E  8B4508            mov eax,[ebp+0x8]
00001391  01D0              add eax,edx
00001393  DB28              fld tword [eax]
00001395  DAE9              fucompp
00001397  DFE0              fnstsw ax
00001399  F6C445            test ah,0x45
0000139C  7503              jnz 0x13a1
0000139E  FF4DF4            dec dword [ebp-0xc]
000013A1  8B550C            mov edx,[ebp+0xc]
000013A4  89D0              mov eax,edx
000013A6  01C0              add eax,eax
000013A8  01D0              add eax,edx
000013AA  C1E002            shl eax,0x2
000013AD  89C2              mov edx,eax
000013AF  8B4508            mov eax,[ebp+0x8]
000013B2  8D1C02            lea ebx,[edx+eax]
000013B5  8B55F4            mov edx,[ebp-0xc]
000013B8  89D0              mov eax,edx
000013BA  01C0              add eax,eax
000013BC  01D0              add eax,edx
000013BE  C1E002            shl eax,0x2
000013C1  89C2              mov edx,eax
000013C3  8B4508            mov eax,[ebp+0x8]
000013C6  01D0              add eax,edx
000013C8  8B4808            mov ecx,[eax+0x8]
000013CB  8B5004            mov edx,[eax+0x4]
000013CE  8B00              mov eax,[eax]
000013D0  8903              mov [ebx],eax
000013D2  895304            mov [ebx+0x4],edx
000013D5  894B08            mov [ebx+0x8],ecx
000013D8  8B45F4            mov eax,[ebp-0xc]
000013DB  89450C            mov [ebp+0xc],eax
000013DE  8B4510            mov eax,[ebp+0x10]
000013E1  48                dec eax
000013E2  89C2              mov edx,eax
000013E4  C1EA1F            shr edx,0x1f
000013E7  01D0              add eax,edx
000013E9  D1F8              sar eax,1
000013EB  3B45F4            cmp eax,[ebp-0xc]
000013EE  0F8F6DFFFFFF      jg near 0x100001361
000013F4  8B4510            mov eax,[ebp+0x10]
000013F7  83E001            and eax,byte +0x1
000013FA  85C0              test eax,eax
000013FC  755C              jnz 0x145a
000013FE  8B4510            mov eax,[ebp+0x10]
00001401  83E802            sub eax,byte +0x2
00001404  89C2              mov edx,eax
00001406  C1EA1F            shr edx,0x1f
00001409  01D0              add eax,edx
0000140B  D1F8              sar eax,1
0000140D  3B45F4            cmp eax,[ebp-0xc]
00001410  7548              jnz 0x145a
00001412  8B45F4            mov eax,[ebp-0xc]
00001415  40                inc eax
00001416  01C0              add eax,eax
00001418  8945F4            mov [ebp-0xc],eax
0000141B  8B550C            mov edx,[ebp+0xc]
0000141E  89D0              mov eax,edx
00001420  01C0              add eax,eax
00001422  01D0              add eax,edx
00001424  C1E002            shl eax,0x2
00001427  89C2              mov edx,eax
00001429  8B4508            mov eax,[ebp+0x8]
0000142C  8D1C02            lea ebx,[edx+eax]
0000142F  8B55F4            mov edx,[ebp-0xc]
00001432  89D0              mov eax,edx
00001434  01C0              add eax,eax
00001436  01D0              add eax,edx
00001438  C1E002            shl eax,0x2
0000143B  8D50F4            lea edx,[eax-0xc]
0000143E  8B4508            mov eax,[ebp+0x8]
00001441  01D0              add eax,edx
00001443  8B4808            mov ecx,[eax+0x8]
00001446  8B5004            mov edx,[eax+0x4]
00001449  8B00              mov eax,[eax]
0000144B  8903              mov [ebx],eax
0000144D  895304            mov [ebx+0x4],edx
00001450  894B08            mov [ebx+0x8],ecx
00001453  8B45F4            mov eax,[ebp-0xc]
00001456  48                dec eax
00001457  89450C            mov [ebp+0xc],eax
0000145A  8B4514            mov eax,[ebp+0x14]
0000145D  8B5518            mov edx,[ebp+0x18]
00001460  8B4D1C            mov ecx,[ebp+0x1c]
00001463  8944240C          mov [esp+0xc],eax
00001467  89542410          mov [esp+0x10],edx
0000146B  894C2414          mov [esp+0x14],ecx
0000146F  8B45F0            mov eax,[ebp-0x10]
00001472  89442408          mov [esp+0x8],eax
00001476  8B450C            mov eax,[ebp+0xc]
00001479  89442404          mov [esp+0x4],eax
0000147D  8B4508            mov eax,[ebp+0x8]
00001480  890424            mov [esp],eax
00001483  E860000000        call 0x14e8
00001488  83C434            add esp,byte +0x34
0000148B  5B                pop ebx
0000148C  5D                pop ebp
0000148D  C3                ret
0000148E  55                push ebp
0000148F  89E5              mov ebp,esp
00001491  83EC18            sub esp,byte +0x18
00001494  8B450C            mov eax,[ebp+0xc]
00001497  89442404          mov [esp+0x4],eax
0000149B  8B4508            mov eax,[ebp+0x8]
0000149E  890424            mov [esp],eax
000014A1  E8FC000000        call 0x15a2
000014A6  C9                leave
000014A7  C3                ret
000014A8  55                push ebp
000014A9  89E5              mov ebp,esp
000014AB  8B4508            mov eax,[ebp+0x8]
000014AE  5D                pop ebp
000014AF  C3                ret
000014B0  55                push ebp
000014B1  89E5              mov ebp,esp
000014B3  83EC18            sub esp,byte +0x18
000014B6  8B4508            mov eax,[ebp+0x8]
000014B9  890424            mov [esp],eax
000014BC  E8E7FFFFFF        call 0x1000014a8
000014C1  C9                leave
000014C2  C3                ret
000014C3  55                push ebp
000014C4  89E5              mov ebp,esp
000014C6  83EC28            sub esp,byte +0x28
000014C9  C645F701          mov byte [ebp-0x9],0x1
000014CD  8B4510            mov eax,[ebp+0x10]
000014D0  89442408          mov [esp+0x8],eax
000014D4  8B450C            mov eax,[ebp+0xc]
000014D7  89442404          mov [esp+0x4],eax
000014DB  8B4508            mov eax,[ebp+0x8]
000014DE  890424            mov [esp],eax
000014E1  E807010000        call 0x15ed
000014E6  C9                leave
000014E7  C3                ret
000014E8  55                push ebp
000014E9  89E5              mov ebp,esp
000014EB  53                push ebx
000014EC  83EC10            sub esp,byte +0x10
000014EF  8B450C            mov eax,[ebp+0xc]
000014F2  48                dec eax
000014F3  89C2              mov edx,eax
000014F5  C1EA1F            shr edx,0x1f
000014F8  01D0              add eax,edx
000014FA  D1F8              sar eax,1
000014FC  8945F8            mov [ebp-0x8],eax
000014FF  EB4D              jmp short 0x154e
00001501  8B550C            mov edx,[ebp+0xc]
00001504  89D0              mov eax,edx
00001506  01C0              add eax,eax
00001508  01D0              add eax,edx
0000150A  C1E002            shl eax,0x2
0000150D  89C2              mov edx,eax
0000150F  8B4508            mov eax,[ebp+0x8]
00001512  8D1C02            lea ebx,[edx+eax]
00001515  8B55F8            mov edx,[ebp-0x8]
00001518  89D0              mov eax,edx
0000151A  01C0              add eax,eax
0000151C  01D0              add eax,edx
0000151E  C1E002            shl eax,0x2
00001521  89C2              mov edx,eax
00001523  8B4508            mov eax,[ebp+0x8]
00001526  01D0              add eax,edx
00001528  8B4808            mov ecx,[eax+0x8]
0000152B  8B5004            mov edx,[eax+0x4]
0000152E  8B00              mov eax,[eax]
00001530  8903              mov [ebx],eax
00001532  895304            mov [ebx+0x4],edx
00001535  894B08            mov [ebx+0x8],ecx
00001538  8B45F8            mov eax,[ebp-0x8]
0000153B  89450C            mov [ebp+0xc],eax
0000153E  8B450C            mov eax,[ebp+0xc]
00001541  48                dec eax
00001542  89C2              mov edx,eax
00001544  C1EA1F            shr edx,0x1f
00001547  01D0              add eax,edx
00001549  D1F8              sar eax,1
0000154B  8945F8            mov [ebp-0x8],eax
0000154E  8B450C            mov eax,[ebp+0xc]
00001551  3B4510            cmp eax,[ebp+0x10]
00001554  7E21              jng 0x1577
00001556  8B55F8            mov edx,[ebp-0x8]
00001559  89D0              mov eax,edx
0000155B  01C0              add eax,eax
0000155D  01D0              add eax,edx
0000155F  C1E002            shl eax,0x2
00001562  89C2              mov edx,eax
00001564  8B4508            mov eax,[ebp+0x8]
00001567  01D0              add eax,edx
00001569  DB28              fld tword [eax]
0000156B  DB6D14            fld tword [ebp+0x14]
0000156E  DAE9              fucompp
00001570  DFE0              fnstsw ax
00001572  F6C445            test ah,0x45
00001575  748A              jz 0x1501
00001577  8B550C            mov edx,[ebp+0xc]
0000157A  89D0              mov eax,edx
0000157C  01C0              add eax,eax
0000157E  01D0              add eax,edx
00001580  C1E002            shl eax,0x2
00001583  89C2              mov edx,eax
00001585  8B4508            mov eax,[ebp+0x8]
00001588  8D1C02            lea ebx,[edx+eax]
0000158B  8B4514            mov eax,[ebp+0x14]
0000158E  8B5518            mov edx,[ebp+0x18]
00001591  8B4D1C            mov ecx,[ebp+0x1c]
00001594  8903              mov [ebx],eax
00001596  895304            mov [ebx+0x4],edx
00001599  894B08            mov [ebx+0x8],ecx
0000159C  83C410            add esp,byte +0x10
0000159F  5B                pop ebx
000015A0  5D                pop ebp
000015A1  C3                ret
000015A2  55                push ebp
000015A3  89E5              mov ebp,esp
000015A5  53                push ebx
000015A6  83EC10            sub esp,byte +0x10
000015A9  8B4508            mov eax,[ebp+0x8]
000015AC  8B4808            mov ecx,[eax+0x8]
000015AF  8B5004            mov edx,[eax+0x4]
000015B2  8B00              mov eax,[eax]
000015B4  8945EC            mov [ebp-0x14],eax
000015B7  8955F0            mov [ebp-0x10],edx
000015BA  894DF4            mov [ebp-0xc],ecx
000015BD  8B450C            mov eax,[ebp+0xc]
000015C0  8B4808            mov ecx,[eax+0x8]
000015C3  8B5004            mov edx,[eax+0x4]
000015C6  8B00              mov eax,[eax]
000015C8  8B5D08            mov ebx,[ebp+0x8]
000015CB  8903              mov [ebx],eax
000015CD  895304            mov [ebx+0x4],edx
000015D0  894B08            mov [ebx+0x8],ecx
000015D3  8B5D0C            mov ebx,[ebp+0xc]
000015D6  8B45EC            mov eax,[ebp-0x14]
000015D9  8B55F0            mov edx,[ebp-0x10]
000015DC  8B4DF4            mov ecx,[ebp-0xc]
000015DF  8903              mov [ebx],eax
000015E1  895304            mov [ebx+0x4],edx
000015E4  894B08            mov [ebx+0x8],ecx
000015E7  83C410            add esp,byte +0x10
000015EA  5B                pop ebx
000015EB  5D                pop ebp
000015EC  C3                ret
000015ED  55                push ebp
000015EE  89E5              mov ebp,esp
000015F0  83EC28            sub esp,byte +0x28
000015F3  8B550C            mov edx,[ebp+0xc]
000015F6  8B4508            mov eax,[ebp+0x8]
000015F9  29C2              sub edx,eax
000015FB  89D0              mov eax,edx
000015FD  C1F802            sar eax,0x2
00001600  89C2              mov edx,eax
00001602  89D0              mov eax,edx
00001604  C1E002            shl eax,0x2
00001607  01D0              add eax,edx
00001609  89C1              mov ecx,eax
0000160B  C1E104            shl ecx,0x4
0000160E  01C8              add eax,ecx
00001610  89C1              mov ecx,eax
00001612  C1E108            shl ecx,0x8
00001615  01C8              add eax,ecx
00001617  89C1              mov ecx,eax
00001619  C1E110            shl ecx,0x10
0000161C  01C8              add eax,ecx
0000161E  01C0              add eax,eax
00001620  01D0              add eax,edx
00001622  8945F4            mov [ebp-0xc],eax
00001625  837DF400          cmp dword [ebp-0xc],byte +0x0
00001629  7436              jz 0x1661
0000162B  8B55F4            mov edx,[ebp-0xc]
0000162E  89D0              mov eax,edx
00001630  01C0              add eax,eax
00001632  01D0              add eax,edx
00001634  C1E002            shl eax,0x2
00001637  89C2              mov edx,eax
00001639  8B4DF4            mov ecx,[ebp-0xc]
0000163C  89C8              mov eax,ecx
0000163E  01C0              add eax,eax
00001640  01C8              add eax,ecx
00001642  C1E002            shl eax,0x2
00001645  F7D8              neg eax
00001647  89C1              mov ecx,eax
00001649  8B4510            mov eax,[ebp+0x10]
0000164C  01C1              add ecx,eax
0000164E  89542408          mov [esp+0x8],edx
00001652  8B4508            mov eax,[ebp+0x8]
00001655  89442404          mov [esp+0x4],eax
00001659  890C24            mov [esp],ecx
0000165C  E82FF1FFFF        call 0x100000790
00001661  8B55F4            mov edx,[ebp-0xc]
00001664  89D0              mov eax,edx
00001666  01C0              add eax,eax
00001668  01D0              add eax,edx
0000166A  C1E002            shl eax,0x2
0000166D  F7D8              neg eax
0000166F  89C2              mov edx,eax
00001671  8B4510            mov eax,[ebp+0x10]
00001674  01D0              add eax,edx
00001676  C9                leave
00001677  C3                ret
00001678  6690              o16 nop
0000167A  6690              o16 nop
0000167C  6690              o16 nop
0000167E  6690              o16 nop
00001680  55                push ebp
00001681  89E5              mov ebp,esp
00001683  5D                pop ebp
00001684  C3                ret
00001685  66                db 0x66
00001686  66                db 0x66
00001687  2E                db 0x2E
00001688  0F                db 0x0F
00001689  1F                pop ds
0000168A  8400              test [eax],al
0000168C  0000              add [eax],al
0000168E  0000              add [eax],al
00001690  55                push ebp
00001691  89E5              mov ebp,esp
00001693  57                push edi
00001694  56                push esi
00001695  53                push ebx
00001696  E84F000000        call 0x16ea
0000169B  81C30D170000      add ebx,0x170d
000016A1  83EC1C            sub esp,byte +0x1c
000016A4  E807F0FFFF        call 0x1000006b0
000016A9  8DBB04FFFFFF      lea edi,[ebx+0xffffff04]
000016AF  8D8304FFFFFF      lea eax,[ebx+0xffffff04]
000016B5  29C7              sub edi,eax
000016B7  C1FF02            sar edi,0x2
000016BA  85FF              test edi,edi
000016BC  7424              jz 0x16e2
000016BE  31F6              xor esi,esi
000016C0  8B4510            mov eax,[ebp+0x10]
000016C3  89442408          mov [esp+0x8],eax
000016C7  8B450C            mov eax,[ebp+0xc]
000016CA  89442404          mov [esp+0x4],eax
000016CE  8B4508            mov eax,[ebp+0x8]
000016D1  890424            mov [esp],eax
000016D4  FF94B304FFFFFF    call near [ebx+esi*4+0xffffff04]
000016DB  83C601            add esi,byte +0x1
000016DE  39FE              cmp esi,edi
000016E0  72DE              jc 0x16c0
000016E2  83C41C            add esp,byte +0x1c
000016E5  5B                pop ebx
000016E6  5E                pop esi
000016E7  5F                pop edi
000016E8  5D                pop ebp
000016E9  C3                ret
000016EA  8B1C24            mov ebx,[esp]
000016ED  C3                ret
000016EE  6690              o16 nop
000016F0  55                push ebp
000016F1  89E5              mov ebp,esp
000016F3  53                push ebx
000016F4  52                push edx
000016F5  BBB0AC0408        mov ebx,0x804acb0
000016FA  A1B0AC0408        mov eax,[0x804acb0]
000016FF  83F8FF            cmp eax,byte -0x1
00001702  7410              jz 0x1714
00001704  8D742600          lea esi,[esi+0x0]
00001708  83EB04            sub ebx,byte +0x4
0000170B  FFD0              call eax
0000170D  8B03              mov eax,[ebx]
0000170F  83F8FF            cmp eax,byte -0x1
00001712  75F4              jnz 0x1708
00001714  58                pop eax
00001715  5B                pop ebx
00001716  5D                pop ebp
00001717  C3                ret
00001718  55                push ebp
00001719  89E5              mov ebp,esp
0000171B  53                push ebx
0000171C  83EC04            sub esp,byte +0x4
0000171F  E800000000        call 0x1724
00001724  5B                pop ebx
00001725  81C384160000      add ebx,0x1684
0000172B  E850F1FFFF        call 0x100000880
00001730  59                pop ecx
00001731  5B                pop ebx
00001732  C9                leave
00001733  C3                ret
00001734  0300              add eax,[eax]
00001736  0000              add [eax],al
00001738  0100              add [eax],eax
0000173A  0200              add al,[eax]
0000173C  43                inc ebx
0000173D  61                popa
0000173E  7365              jnc 0x17a5
00001740  2023              and [ebx],ah
00001742  003A              add [edx],bh
00001744  2000              and [eax],al
00001746  2000              and [eax],al
00001748  011B              add [ebx],ebx
0000174A  033B              add edi,[ebx]
0000174C  0001              add [ecx],al
0000174E  0000              add [eax],al
00001750  1F                pop ds
00001751  0000              add [eax],al
00001753  0098EFFFFF1C      add [eax+0x1cffffef],bl
00001759  0100              add [eax],eax
0000175B  00B8F1FFFF80      add [eax+0x80fffff1],bh
00001761  0100              add [eax],eax
00001763  00BDF4FFFF0C      add [ebp+0xcfffff4],bh
00001769  050000FCF4        add eax,0xf4fc0000
0000176E  FF                db 0xFF
0000176F  FF2C05000018F5    jmp far [eax+0xf5180000]
00001776  FF                db 0xFF
00001777  FF4001            inc dword [eax+0x1]
0000177A  0000              add [eax],al
0000177C  30F5              xor ch,dh
0000177E  FF                db 0xFF
0000177F  FFA4010000A1F5    jmp near [ecx+eax+0xf5a10000]
00001786  FF                db 0xFF
00001787  FFC4              inc esp
00001789  0100              add [eax],eax
0000178B  0014F6            add [esi+esi*8],dl
0000178E  FF                db 0xFF
0000178F  FFE4              jmp esp
00001791  0100              add [eax],eax
00001793  0070F6            add [eax-0xa],dh
00001796  FF                db 0xFF
00001797  FF0402            inc dword [edx+eax]
0000179A  0000              add [eax],al
0000179C  A3F6FFFF24        mov [0x24fffff6],eax
000017A1  0200              add al,[eax]
000017A3  0030              add [eax],dh
000017A5  F7FF              idiv edi
000017A7  FF440200          inc dword [edx+eax+0x0]
000017AB  00C2              add dl,al
000017AD  F7FF              idiv edi
000017AF  FF6802            jmp far [eax+0x2]
000017B2  0000              add [eax],al
000017B4  E9F7FFFF88        jmp 0x890017b0
000017B9  0200              add al,[eax]
000017BB  0043F8            add [ebx-0x8],al
000017BE  FF                db 0xFF
000017BF  FFA802000079      jmp far [eax+0x79000002]
000017C5  F8                clc
000017C6  FF                db 0xFF
000017C7  FFC8              dec eax
000017C9  0200              add al,[eax]
000017CB  0030              add [eax],dh
000017CD  F9                stc
000017CE  FF                db 0xFF
000017CF  FF                db 0xFF
000017D0  E802000094        call 0x940017d7
000017D5  F9                stc
000017D6  FF                db 0xFF
000017D7  FF08              dec dword [eax]
000017D9  0300              add eax,[eax]
000017DB  00CC              add ah,cl
000017DD  F9                stc
000017DE  FF                db 0xFF
000017DF  FF2C03            jmp far [ebx+eax]
000017E2  0000              add [eax],al
000017E4  40                inc eax
000017E5  FA                cli
000017E6  FF                db 0xFF
000017E7  FF5003            call near [eax+0x3]
000017EA  0000              add [eax],al
000017EC  FF                db 0xFF
000017ED  FA                cli
000017EE  FF                db 0xFF
000017EF  FF7003            push dword [eax+0x3]
000017F2  0000              add [eax],al
000017F4  93                xchg eax,ebx
000017F5  FB                sti
000017F6  FF                db 0xFF
000017F7  FF94030000ADFB    call near [ebx+eax+0xfbad0000]
000017FE  FF                db 0xFF
000017FF  FFB4030000C0FB    push dword [ebx+eax+0xfbc00000]
00001806  FF                db 0xFF
00001807  FFD4              call esp
00001809  0300              add eax,[eax]
0000180B  0004FC            add [esp+edi*8],al
0000180E  FF                db 0xFF
0000180F  FF                db 0xFF
00001810  FC                cld
00001811  0300              add eax,[eax]
00001813  0046FD            add [esi-0x3],al
00001816  FF                db 0xFF
00001817  FF2404            jmp near [esp+eax]
0000181A  0000              add [eax],al
0000181C  60                pusha
0000181D  FD                std
0000181E  FF                db 0xFF
0000181F  FF440400          inc dword [esp+eax+0x0]
00001823  0068FD            add [eax-0x3],ch
00001826  FF                db 0xFF
00001827  FF640400          jmp near [esp+eax+0x0]
0000182B  007BFD            add [ebx-0x3],bh
0000182E  FF                db 0xFF
0000182F  FF84040000A0FD    inc dword [esp+eax+0xfda00000]
00001836  FF                db 0xFF
00001837  FFA40400005AFE    jmp near [esp+eax+0xfe5a0000]
0000183E  FF                db 0xFF
0000183F  FFC8              dec eax
00001841  0400              add al,0x0
00001843  00A5FEFFFFEC      add [ebp+0xecfffffe],ah
00001849  0400              add al,0x0
0000184B  001400            add [eax+eax],dl
0000184E  0000              add [eax],al
00001850  0000              add [eax],al
00001852  0000              add [eax],al
00001854  017A52            add [edx+0x52],edi
00001857  0001              add [ecx],al
00001859  7C08              jl 0x1863
0000185B  011B              add [ebx],ebx
0000185D  0C04              or al,0x4
0000185F  0488              add al,0x88
00001861  0100              add [eax],eax
00001863  0020              add [eax],ah
00001865  0000              add [eax],al
00001867  001C00            add [eax+eax],bl
0000186A  0000              add [eax],al
0000186C  74EE              jz 0x185c
0000186E  FF                db 0xFF
0000186F  FF00              inc dword [eax]
00001871  0100              add [eax],eax
00001873  0000              add [eax],al
00001875  0E                push cs
00001876  08460E            or [esi+0xe],al
00001879  0C4A              or al,0x4a
0000187B  0F0B              ud2
0000187D  7404              jz 0x1883
0000187F  7800              js 0x1881
00001881  3F                aas
00001882  1A3B              sbb bh,[ebx]
00001884  2A32              sub dh,[edx]
00001886  2422              and al,0x22
00001888  1C00              sbb al,0x0
0000188A  0000              add [eax],al
0000188C  40                inc eax
0000188D  0000              add [eax],al
0000188F  00D0              add al,dl
00001891  F3                db 0xF3
00001892  FF                db 0xFF
00001893  FF18              call far [eax]
00001895  0000              add [eax],al
00001897  0000              add [eax],al
00001899  41                inc ecx
0000189A  0E                push cs
0000189B  088502420D05      or [ebp+0x50d4202],al
000018A1  54                push esp
000018A2  C50C04            lds ecx,[esp+eax]
000018A5  0400              add al,0x0
000018A7  001C00            add [eax+eax],bl
000018AA  0000              add [eax],al
000018AC  0000              add [eax],al
000018AE  0000              add [eax],al
000018B0  017A50            add [edx+0x50],edi
000018B3  4C                dec esp
000018B4  52                push edx
000018B5  0001              add [ecx],al
000018B7  7C08              jl 0x18c1
000018B9  07                pop es
000018BA  00C0              add al,al
000018BC  870408            xchg eax,[eax+ecx]
000018BF  001B              add [ebx],bl
000018C1  0C04              or al,0x4
000018C3  0488              add al,0x88
000018C5  0100              add [eax],eax
000018C7  0020              add [eax],ah
000018C9  0000              add [eax],al
000018CB  002400            add [eax+eax],ah
000018CE  0000              add [eax],al
000018D0  30F0              xor al,dh
000018D2  FF                db 0xFF
000018D3  FF0503000004      inc dword [0x4000003]
000018D9  98                cwde
000018DA  9C                pushf
000018DB  0408              add al,0x8
000018DD  41                inc ecx
000018DE  0E                push cs
000018DF  088502420D05      or [ebp+0x50d4202],al
000018E5  0301              add eax,[ecx]
000018E7  03C5              add eax,ebp
000018E9  0C04              or al,0x4
000018EB  041C              add al,0x1c
000018ED  0000              add [eax],al
000018EF  00A400000084F3    add [eax+eax+0xf3840000],ah
000018F6  FF                db 0xFF
000018F7  FF7100            push dword [ecx+0x0]
000018FA  0000              add [eax],al
000018FC  00410E            add [ecx+0xe],al
000018FF  088502420D05      or [ebp+0x50d4202],al
00001905  026DC5            add ch,[ebp-0x3b]
00001908  0C04              or al,0x4
0000190A  0400              add al,0x0
0000190C  1C00              sbb al,0x0
0000190E  0000              add [eax],al
00001910  C400              les eax,[eax]
00001912  0000              add [eax],al
00001914  D5F3              aad 0xf3
00001916  FF                db 0xFF
00001917  FF7300            push dword [ebx+0x0]
0000191A  0000              add [eax],al
0000191C  00410E            add [ecx+0xe],al
0000191F  088502420D05      or [ebp+0x50d4202],al
00001925  026FC5            add ch,[edi-0x3b]
00001928  0C04              or al,0x4
0000192A  0400              add al,0x0
0000192C  1C00              sbb al,0x0
0000192E  0000              add [eax],al
00001930  E400              in al,0x0
00001932  0000              add [eax],al
00001934  28F4              sub ah,dh
00001936  FF                db 0xFF
00001937  FF5C0000          call far [eax+eax+0x0]
0000193B  0000              add [eax],al
0000193D  41                inc ecx
0000193E  0E                push cs
0000193F  088502420D05      or [ebp+0x50d4202],al
00001945  0258C5            add bl,[eax-0x3b]
00001948  0C04              or al,0x4
0000194A  0400              add al,0x0
0000194C  1C00              sbb al,0x0
0000194E  0000              add [eax],al
00001950  0401              add al,0x1
00001952  0000              add [eax],al
00001954  64F4              fs hlt
00001956  FF                db 0xFF
00001957  FF33              push dword [ebx]
00001959  0000              add [eax],al
0000195B  0000              add [eax],al
0000195D  41                inc ecx
0000195E  0E                push cs
0000195F  088502420D05      or [ebp+0x50d4202],al
00001965  6F                outsd
00001966  C50C04            lds ecx,[esp+eax]
00001969  0400              add al,0x0
0000196B  001C00            add [eax+eax],bl
0000196E  0000              add [eax],al
00001970  2401              and al,0x1
00001972  0000              add [eax],al
00001974  77F4              ja 0x196a
00001976  FF                db 0xFF
00001977  FF8D00000000      dec dword [ebp+0x0]
0000197D  41                inc ecx
0000197E  0E                push cs
0000197F  088502420D05      or [ebp+0x50d4202],al
00001985  0289C50C0404      add cl,[ecx+0x4040cc5]
0000198B  0020              add [eax],ah
0000198D  0000              add [eax],al
0000198F  00440100          add [ecx+eax+0x0],al
00001993  00E4              add ah,ah
00001995  F4                hlt
00001996  FF                db 0xFF
00001997  FF9200000000      call near [edx+0x0]
0000199D  41                inc ecx
0000199E  0E                push cs
0000199F  088502420D05      or [ebp+0x50d4202],al
000019A5  44                inc esp
000019A6  830302            add dword [ebx],byte +0x2
000019A9  89C3              mov ebx,eax
000019AB  41                inc ecx
000019AC  C50C04            lds ecx,[esp+eax]
000019AF  041C              add al,0x1c
000019B1  0000              add [eax],al
000019B3  006801            add [eax+0x1],ch
000019B6  0000              add [eax],al
000019B8  52                push edx
000019B9  F5                cmc
000019BA  FF                db 0xFF
000019BB  FF27              jmp near [edi]
000019BD  0000              add [eax],al
000019BF  0000              add [eax],al
000019C1  41                inc ecx
000019C2  0E                push cs
000019C3  088502420D05      or [ebp+0x50d4202],al
000019C9  63C5              arpl bp,ax
000019CB  0C04              or al,0x4
000019CD  0400              add al,0x0
000019CF  001C00            add [eax+eax],bl
000019D2  0000              add [eax],al
000019D4  8801              mov [ecx],al
000019D6  0000              add [eax],al
000019D8  59                pop ecx
000019D9  F5                cmc
000019DA  FF                db 0xFF
000019DB  FF5A00            call far [edx+0x0]
000019DE  0000              add [eax],al
000019E0  00410E            add [ecx+0xe],al
000019E3  088502420D05      or [ebp+0x50d4202],al
000019E9  0256C5            add dl,[esi-0x3b]
000019EC  0C04              or al,0x4
000019EE  0400              add al,0x0
000019F0  1C00              sbb al,0x0
000019F2  0000              add [eax],al
000019F4  A801              test al,0x1
000019F6  0000              add [eax],al
000019F8  93                xchg eax,ebx
000019F9  F5                cmc
000019FA  FF                db 0xFF
000019FB  FF36              push dword [esi]
000019FD  0000              add [eax],al
000019FF  0000              add [eax],al
00001A01  41                inc ecx
00001A02  0E                push cs
00001A03  088502420D05      or [ebp+0x50d4202],al
00001A09  72C5              jc 0x19d0
00001A0B  0C04              or al,0x4
00001A0D  0400              add al,0x0
00001A0F  001C00            add [eax+eax],bl
00001A12  0000              add [eax],al
00001A14  C8010000          enter 0x1,0x0
00001A18  A9F5FFFFB7        test eax,0xb7fffff5
00001A1D  0000              add [eax],al
00001A1F  0000              add [eax],al
00001A21  41                inc ecx
00001A22  0E                push cs
00001A23  088502420D05      or [ebp+0x50d4202],al
00001A29  02B3C50C0404      add dh,[ebx+0x4040cc5]
00001A2F  001C00            add [eax+eax],bl
00001A32  0000              add [eax],al
00001A34  E801000040        call 0x40001a3a
00001A39  F6FF              idiv bh
00001A3B  FF640000          jmp near [eax+eax+0x0]
00001A3F  0000              add [eax],al
00001A41  41                inc ecx
00001A42  0E                push cs
00001A43  088502420D05      or [ebp+0x50d4202],al
00001A49  0260C5            add ah,[eax-0x3b]
00001A4C  0C04              or al,0x4
00001A4E  0400              add al,0x0
00001A50  2000              and [eax],al
00001A52  0000              add [eax],al
00001A54  0802              or [edx],al
00001A56  0000              add [eax],al
00001A58  84F6              test dh,dh
00001A5A  FF                db 0xFF
00001A5B  FF                db 0xFF
00001A5C  3800              cmp [eax],al
00001A5E  0000              add [eax],al
00001A60  00410E            add [ecx+0xe],al
00001A63  088502420D05      or [ebp+0x50d4202],al
00001A69  44                inc esp
00001A6A  83036F            add dword [ebx],byte +0x6f
00001A6D  C3                ret
00001A6E  41                inc ecx
00001A6F  C50C04            lds ecx,[esp+eax]
00001A72  0400              add al,0x0
00001A74  2000              and [eax],al
00001A76  0000              add [eax],al
00001A78  2C02              sub al,0x2
00001A7A  0000              add [eax],al
00001A7C  98                cwde
00001A7D  F6FF              idiv bh
00001A7F  FF740000          push dword [eax+eax+0x0]
00001A83  0000              add [eax],al
00001A85  41                inc ecx
00001A86  0E                push cs
00001A87  088502420D05      or [ebp+0x50d4202],al
00001A8D  44                inc esp
00001A8E  830302            add dword [ebx],byte +0x2
00001A91  6BC341            imul eax,ebx,byte +0x41
00001A94  C50C04            lds ecx,[esp+eax]
00001A97  041C              add al,0x1c
00001A99  0000              add [eax],al
00001A9B  005002            add [eax+0x2],dl
00001A9E  0000              add [eax],al
00001AA0  E8F6FFFFBF        call 0xc0001a9b
00001AA5  0000              add [eax],al
00001AA7  0000              add [eax],al
00001AA9  41                inc ecx
00001AAA  0E                push cs
00001AAB  088502420D05      or [ebp+0x50d4202],al
00001AB1  02BBC50C0404      add bh,[ebx+0x4040cc5]
00001AB7  0020              add [eax],ah
00001AB9  0000              add [eax],al
00001ABB  007002            add [eax+0x2],dh
00001ABE  0000              add [eax],al
00001AC0  87F7              xchg esi,edi
00001AC2  FF                db 0xFF
00001AC3  FF940000000041    call near [eax+eax+0x41000000]
00001ACA  0E                push cs
00001ACB  088502420D05      or [ebp+0x50d4202],al
00001AD1  44                inc esp
00001AD2  830302            add dword [ebx],byte +0x2
00001AD5  8BC3              mov eax,ebx
00001AD7  41                inc ecx
00001AD8  C50C04            lds ecx,[esp+eax]
00001ADB  041C              add al,0x1c
00001ADD  0000              add [eax],al
00001ADF  0094020000F7F7    add [edx+eax+0xf7f70000],dl
00001AE6  FF                db 0xFF
00001AE7  FF1A              call far [edx]
00001AE9  0000              add [eax],al
00001AEB  0000              add [eax],al
00001AED  41                inc ecx
00001AEE  0E                push cs
00001AEF  088502420D05      or [ebp+0x50d4202],al
00001AF5  56                push esi
00001AF6  C50C04            lds ecx,[esp+eax]
00001AF9  0400              add al,0x0
00001AFB  001C00            add [eax+eax],bl
00001AFE  0000              add [eax],al
00001B00  B402              mov ah,0x2
00001B02  0000              add [eax],al
00001B04  F1                int1
00001B05  F7FF              idiv edi
00001B07  FF13              call near [ebx]
00001B09  0000              add [eax],al
00001B0B  0000              add [eax],al
00001B0D  41                inc ecx
00001B0E  0E                push cs
00001B0F  088502420D05      or [ebp+0x50d4202],al
00001B15  4F                dec edi
00001B16  C50C04            lds ecx,[esp+eax]
00001B19  0400              add al,0x0
00001B1B  002400            add [eax+eax],ah
00001B1E  0000              add [eax],al
00001B20  D402              aam 0x2
00001B22  0000              add [eax],al
00001B24  E4F7              in al,0xf7
00001B26  FF                db 0xFF
00001B27  FF440000          inc dword [eax+eax+0x0]
00001B2B  0000              add [eax],al
00001B2D  41                inc ecx
00001B2E  0E                push cs
00001B2F  088502420D05      or [ebp+0x50d4202],al
00001B35  45                inc ebp
00001B36  8603              xchg al,[ebx]
00001B38  830479C3          add dword [ecx+edi*2],byte -0x3d
00001B3C  41                inc ecx
00001B3D  C641C50C          mov byte [ecx-0x3b],0xc
00001B41  0404              add al,0x4
00001B43  002400            add [eax+eax],ah
00001B46  0000              add [eax],al
00001B48  FC                cld
00001B49  0200              add al,[eax]
00001B4B  0000              add [eax],al
00001B4D  F8                clc
00001B4E  FF                db 0xFF
00001B4F  FF4201            inc dword [edx+0x1]
00001B52  0000              add [eax],al
00001B54  00410E            add [ecx+0xe],al
00001B57  088502420D05      or [ebp+0x50d4202],al
00001B5D  44                inc esp
00001B5E  830303            add dword [ebx],byte +0x3
00001B61  3901              cmp [ecx],eax
00001B63  C3                ret
00001B64  41                inc ecx
00001B65  C50C04            lds ecx,[esp+eax]
00001B68  0400              add al,0x0
00001B6A  0000              add [eax],al
00001B6C  1C00              sbb al,0x0
00001B6E  0000              add [eax],al
00001B70  2403              and al,0x3
00001B72  0000              add [eax],al
00001B74  1AF9              sbb bh,cl
00001B76  FF                db 0xFF
00001B77  FF1A              call far [edx]
00001B79  0000              add [eax],al
00001B7B  0000              add [eax],al
00001B7D  41                inc ecx
00001B7E  0E                push cs
00001B7F  088502420D05      or [ebp+0x50d4202],al
00001B85  56                push esi
00001B86  C50C04            lds ecx,[esp+eax]
00001B89  0400              add al,0x0
00001B8B  001C00            add [eax+eax],bl
00001B8E  0000              add [eax],al
00001B90  44                inc esp
00001B91  0300              add eax,[eax]
00001B93  0014F9            add [ecx+edi*8],dl
00001B96  FF                db 0xFF
00001B97  FF08              dec dword [eax]
00001B99  0000              add [eax],al
00001B9B  0000              add [eax],al
00001B9D  41                inc ecx
00001B9E  0E                push cs
00001B9F  088502420D05      or [ebp+0x50d4202],al
00001BA5  44                inc esp
00001BA6  C50C04            lds ecx,[esp+eax]
00001BA9  0400              add al,0x0
00001BAB  001C00            add [eax+eax],bl
00001BAE  0000              add [eax],al
00001BB0  640300            add eax,[fs:eax]
00001BB3  00FC              add ah,bh
00001BB5  F8                clc
00001BB6  FF                db 0xFF
00001BB7  FF13              call near [ebx]
00001BB9  0000              add [eax],al
00001BBB  0000              add [eax],al
00001BBD  41                inc ecx
00001BBE  0E                push cs
00001BBF  088502420D05      or [ebp+0x50d4202],al
00001BC5  4F                dec edi
00001BC6  C50C04            lds ecx,[esp+eax]
00001BC9  0400              add al,0x0
00001BCB  001C00            add [eax+eax],bl
00001BCE  0000              add [eax],al
00001BD0  8403              test [ebx],al
00001BD2  0000              add [eax],al
00001BD4  EF                out dx,eax
00001BD5  F8                clc
00001BD6  FF                db 0xFF
00001BD7  FF2500000000      jmp near [0x0]
00001BDD  41                inc ecx
00001BDE  0E                push cs
00001BDF  088502420D05      or [ebp+0x50d4202],al
00001BE5  61                popa
00001BE6  C50C04            lds ecx,[esp+eax]
00001BE9  0400              add al,0x0
00001BEB  0020              add [eax],ah
00001BED  0000              add [eax],al
00001BEF  00A4030000F4F8    add [ebx+eax+0xf8f40000],ah
00001BF6  FF                db 0xFF
00001BF7  FF                db 0xFF
00001BF8  BA00000000        mov edx,0x0
00001BFD  41                inc ecx
00001BFE  0E                push cs
00001BFF  088502420D05      or [ebp+0x50d4202],al
00001C05  44                inc esp
00001C06  830302            add dword [ebx],byte +0x2
00001C09  B1C3              mov cl,0xc3
00001C0B  41                inc ecx
00001C0C  C50C04            lds ecx,[esp+eax]
00001C0F  0420              add al,0x20
00001C11  0000              add [eax],al
00001C13  00C8              add al,cl
00001C15  0300              add eax,[eax]
00001C17  008AF9FFFF4B      add [edx+0x4bfffff9],cl
00001C1D  0000              add [eax],al
00001C1F  0000              add [eax],al
00001C21  41                inc ecx
00001C22  0E                push cs
00001C23  088502420D05      or [ebp+0x50d4202],al
00001C29  44                inc esp
00001C2A  830302            add dword [ebx],byte +0x2
00001C2D  42                inc edx
00001C2E  C3                ret
00001C2F  41                inc ecx
00001C30  C50C04            lds ecx,[esp+eax]
00001C33  041C              add al,0x1c
00001C35  0000              add [eax],al
00001C37  00EC              add ah,ch
00001C39  0300              add eax,[eax]
00001C3B  00B1F9FFFF8B      add [ecx+0x8bfffff9],dh
00001C41  0000              add [eax],al
00001C43  0000              add [eax],al
00001C45  41                inc ecx
00001C46  0E                push cs
00001C47  088502420D05      or [ebp+0x50d4202],al
00001C4D  0287C50C0404      add al,[edi+0x4040cc5]
00001C53  001C00            add [eax+eax],bl
00001C56  0000              add [eax],al
00001C58  0C04              or al,0x4
00001C5A  0000              add [eax],al
00001C5C  A9EFFFFF3F        test eax,0x3fffffef
00001C61  0000              add [eax],al
00001C63  0000              add [eax],al
00001C65  41                inc ecx
00001C66  0E                push cs
00001C67  088502420D05      or [ebp+0x50d4202],al
00001C6D  7BC5              jpo 0x1c34
00001C6F  0C04              or al,0x4
00001C71  0400              add al,0x0
00001C73  001C00            add [eax+eax],bl
00001C76  0000              add [eax],al
00001C78  2C04              sub al,0x4
00001C7A  0000              add [eax],al
00001C7C  C8EFFFFF          enter 0xffef,0xff
00001C80  1C00              sbb al,0x0
00001C82  0000              add [eax],al
00001C84  00410E            add [ecx+0xe],al
00001C87  088502420D05      or [ebp+0x50d4202],al
00001C8D  58                pop eax
00001C8E  C50C04            lds ecx,[esp+eax]
00001C91  0400              add al,0x0
00001C93  0000              add [eax],al
00001C95  0000              add [eax],al
00001C97  00FF              add bh,bh
00001C99  FF01              inc dword [ecx]
00001C9B  1018              adc [eax],bl
00001C9D  05FB050039        add eax,0x390005fb
00001CA2  A7                cmpsd
00001CA3  05F90500FE        add eax,0xfe0005f9
00001CA8  05050000FF        add eax,0xff000005
00001CAD  FF                db 0xFF
00001CAE  FF                db 0xFF
00001CAF  FF448C04          inc dword [esp+ecx*4+0x4]
00001CB3  0800              or [eax],al
00001CB5  0000              add [eax],al
00001CB7  00FF              add bh,bh
00001CB9  FF                db 0xFF
00001CBA  FF                db 0xFF
00001CBB  FF00              inc dword [eax]
00001CBD  0000              add [eax],al
00001CBF  0000              add [eax],al
00001CC1  0000              add [eax],al
00001CC3  0001              add [ecx],al
00001CC5  0000              add [eax],al
00001CC7  0001              add [ecx],al
00001CC9  0000              add [eax],al
00001CCB  0001              add [ecx],al
00001CCD  0000              add [eax],al
00001CCF  006B01            add [ebx+0x1],ch
00001CD2  0000              add [eax],al
00001CD4  0100              add [eax],eax
00001CD6  0000              add [eax],al
00001CD8  7501              jnz 0x1cdb
00001CDA  0000              add [eax],al
00001CDC  0100              add [eax],eax
00001CDE  0000              add [eax],al
00001CE0  92                xchg eax,edx
00001CE1  0100              add [eax],eax
00001CE3  000C00            add [eax+eax],cl
00001CE6  0000              add [eax],al
00001CE8  B086              mov al,0x86
00001CEA  0408              add al,0x8
00001CEC  0D00000018        or eax,0x18000000
00001CF1  97                xchg eax,edi
00001CF2  0408              add al,0x8
00001CF4  0400              add al,0x0
00001CF6  0000              add [eax],al
00001CF8  6881040805        push dword 0x5080481
00001CFD  0000              add [eax],al
00001CFF  006C8304          add [ebx+eax*4+0x4],ch
00001D03  0806              or [esi],al
00001D05  0000              add [eax],al
00001D07  000C82            add [edx+eax*4],cl
00001D0A  0408              add al,0x8
00001D0C  0A00              or al,[eax]
00001D0E  0000              add [eax],al
00001D10  07                pop es
00001D11  0200              add al,[eax]
00001D13  000B              add [ebx],cl
00001D15  0000              add [eax],al
00001D17  0010              add [eax],dl
00001D19  0000              add [eax],al
00001D1B  001500000000      add [0x0],dl
00001D21  0000              add [eax],al
00001D23  0003              add [ebx],al
00001D25  0000              add [eax],al
00001D27  00A8AD040802      add [eax+0x20804ad],ch
00001D2D  0000              add [eax],al
00001D2F  007800            add [eax+0x0],bh
00001D32  0000              add [eax],al
00001D34  1400              adc al,0x0
00001D36  0000              add [eax],al
00001D38  1100              adc [eax],eax
00001D3A  0000              add [eax],al
00001D3C  17                pop ss
00001D3D  0000              add [eax],al
00001D3F  0038              add [eax],bh
00001D41  860408            xchg al,[eax+ecx]
00001D44  1100              adc [eax],eax
00001D46  0000              add [eax],al
00001D48  208604081200      and [esi+0x120804],al
00001D4E  0000              add [eax],al
00001D50  1800              sbb [eax],al
00001D52  0000              add [eax],al
00001D54  1300              adc eax,[eax]
00001D56  0000              add [eax],al
00001D58  0800              or [eax],al
00001D5A  0000              add [eax],al
00001D5C  FE                db 0xFE
00001D5D  FF                db 0xFF
00001D5E  FF6FA0            jmp far [edi-0x60]
00001D61  850408            test [eax+ecx],eax
00001D64  FF                db 0xFF
00001D65  FF                db 0xFF
00001D66  FF6F03            jmp far [edi+0x3]
00001D69  0000              add [eax],al
00001D6B  00F0              add al,dh
00001D6D  FF                db 0xFF
00001D6E  FF6F74            jmp far [edi+0x74]
00001D71  850408            test [eax+ecx],eax
00001D74  0000              add [eax],al
00001D76  0000              add [eax],al
00001D78  0000              add [eax],al
00001D7A  0000              add [eax],al
00001D7C  0000              add [eax],al
00001D7E  0000              add [eax],al
00001D80  0000              add [eax],al
00001D82  0000              add [eax],al
00001D84  0000              add [eax],al
00001D86  0000              add [eax],al
00001D88  0000              add [eax],al
00001D8A  0000              add [eax],al
00001D8C  0000              add [eax],al
00001D8E  0000              add [eax],al
00001D90  0000              add [eax],al
00001D92  0000              add [eax],al
00001D94  0000              add [eax],al
00001D96  0000              add [eax],al
00001D98  0000              add [eax],al
00001D9A  0000              add [eax],al
00001D9C  0000              add [eax],al
00001D9E  0000              add [eax],al
00001DA0  0000              add [eax],al
00001DA2  0000              add [eax],al
00001DA4  0000              add [eax],al
00001DA6  0000              add [eax],al
00001DA8  C4AC0408000000    les ebp,[esp+eax+0x8]
00001DAF  0000              add [eax],al
00001DB1  0000              add [eax],al
00001DB3  00F6              add dh,dh
00001DB5  860408            xchg al,[eax+ecx]
00001DB8  06                push es
00001DB9  870408            xchg eax,[eax+ecx]
00001DBC  16                push ss
00001DBD  870408            xchg eax,[eax+ecx]
00001DC0  26870408          xchg eax,[es:eax+ecx]
00001DC4  36870408          xchg eax,[ss:eax+ecx]
00001DC8  46                inc esi
00001DC9  870408            xchg eax,[eax+ecx]
00001DCC  56                push esi
00001DCD  870408            xchg eax,[eax+ecx]
00001DD0  66870408          xchg ax,[eax+ecx]
00001DD4  7687              jna 0x1d5d
00001DD6  0408              add al,0x8
00001DD8  868704089687      xchg al,[edi+0x87960804]
00001DDE  0408              add al,0x8
00001DE0  A6                cmpsb
00001DE1  870408            xchg eax,[eax+ecx]
00001DE4  B687              mov dh,0x87
00001DE6  0408              add al,0x8
00001DE8  C6870408D68704    mov byte [edi+0x87d60804],0x4
00001DEF  0800              or [eax],al
00001DF1  0000              add [eax],al
00001DF3  0000              add [eax],al
00001DF5  0000              add [eax],al
00001DF7  004743            add [edi+0x43],al
00001DFA  43                inc ebx
00001DFB  3A20              cmp ah,[eax]
00001DFD  285562            sub [ebp+0x62],dl
00001E00  756E              jnz 0x1e70
00001E02  7475              jz 0x1e79
00001E04  20342E            and [esi+ebp],dh
00001E07  342E              xor al,0x2e
00001E09  332D34756275      xor ebp,[0x75627534]
00001E0F  6E                outsb
00001E10  7475              jz 0x1e87
00001E12  352920342E        xor eax,0x2e342029
00001E17  342E              xor al,0x2e
00001E19  3300              xor eax,[eax]
00001E1B  47                inc edi
00001E1C  43                inc ebx
00001E1D  43                inc ebx
00001E1E  3A20              cmp ah,[eax]
00001E20  28474E            sub [edi+0x4e],al
00001E23  55                push ebp
00001E24  2920              sub [eax],esp
00001E26  342E              xor al,0x2e
00001E28  382E              cmp [esi],ch
00001E2A  3100              xor [eax],eax
00001E2C  0000              add [eax],al
00001E2E  0000              add [eax],al
00001E30  1C00              sbb al,0x0
00001E32  0000              add [eax],al
00001E34  0200              add al,[eax]
00001E36  0000              add [eax],al
00001E38  0000              add [eax],al
00001E3A  0400              add al,0x0
00001E3C  0000              add [eax],al
00001E3E  0000              add [eax],al
00001E40  E087              loopne 0x1dc9
00001E42  0408              add al,0x8
00001E44  2200              and al,[eax]
00001E46  0000              add [eax],al
00001E48  0000              add [eax],al
00001E4A  0000              add [eax],al
00001E4C  0000              add [eax],al
00001E4E  0000              add [eax],al
00001E50  1C00              sbb al,0x0
00001E52  0000              add [eax],al
00001E54  0200              add al,[eax]
00001E56  0E                push cs
00001E57  0100              add [eax],eax
00001E59  000400            add [eax+eax],al
00001E5C  0000              add [eax],al
00001E5E  0000              add [eax],al
00001E60  809604086A0000    adc byte [esi+0x6a0804],0x0
00001E67  0000              add [eax],al
00001E69  0000              add [eax],al
00001E6B  0000              add [eax],al
00001E6D  0000              add [eax],al
00001E6F  0021              add [ecx],ah
00001E71  0000              add [eax],al
00001E73  0002              add [edx],al
00001E75  00810000008D      add [ecx+0x8d000000],al
00001E7B  0000              add [eax],al
00001E7D  007500            add [ebp+0x0],dh
00001E80  0000              add [eax],al
00001E82  5F                pop edi
00001E83  49                dec ecx
00001E84  4F                dec edi
00001E85  5F                pop edi
00001E86  7374              jnc 0x1efc
00001E88  64696E5F75736564  imul ebp,[fs:esi+0x5f],dword 0x64657375
00001E90  0000              add [eax],al
00001E92  0000              add [eax],al
00001E94  0036              add [esi],dh
00001E96  0000              add [eax],al
00001E98  0002              add [edx],al
00001E9A  000E              add [esi],cl
00001E9C  0100              add [eax],eax
00001E9E  0013              add [ebx],dl
00001EA0  0100              add [eax],eax
00001EA2  003E              add [esi],bh
00001EA4  0000              add [eax],al
00001EA6  005F5F            add [edi+0x5f],bl
00001EA9  6C                insb
00001EAA  6962635F637375    imul esp,[edx+0x63],dword 0x7573635f
00001EB1  5F                pop edi
00001EB2  66696E690053      imul bp,[esi+0x69],word 0x5300
00001EB8  0000              add [eax],al
00001EBA  005F5F            add [edi+0x5f],bl
00001EBD  6C                insb
00001EBE  6962635F637375    imul esp,[edx+0x63],dword 0x7573635f
00001EC5  5F                pop edi
00001EC6  696E6974000000    imul ebp,[esi+0x69],dword 0x74
00001ECD  0000              add [eax],al
00001ECF  7D00              jnl 0x1ed1
00001ED1  0000              add [eax],al
00001ED3  0200              add al,[eax]
00001ED5  0000              add [eax],al
00001ED7  0000              add [eax],al
00001ED9  0401              add al,0x1
00001EDB  0000              add [eax],al
00001EDD  0000              add [eax],al
00001EDF  E087              loopne 0x1e68
00001EE1  0408              add al,0x8
00001EE3  028804082E2E      add cl,[eax+0x2e2e0804]
00001EE9  2F                das
00001EEA  7379              jnc 0x1f65
00001EEC  7364              jnc 0x1f52
00001EEE  657073            gs jo 0x1f64
00001EF1  2F                das
00001EF2  693338362F65      imul esi,[ebx],dword 0x652f3638
00001EF8  6C                insb
00001EF9  662F              o16 das
00001EFB  7374              jnc 0x1f71
00001EFD  61                popa
00001EFE  7274              jc 0x1f74
00001F00  2E53              cs push ebx
00001F02  002F              add [edi],ch
00001F04  686F6D652F        push dword 0x2f656d6f
00001F09  7069              jo 0x1f74
00001F0B  657272            gs jc 0x1f80
00001F0E  652F              gs das
00001F10  42                inc edx
00001F11  7572              jnz 0x1f85
00001F13  6561              gs popa
00001F15  752F              jnz 0x1f46
00001F17  6865616465        push dword 0x65646165
00001F1C  7273              jc 0x1f91
00001F1E  2D676C6962        sub eax,0x62696c67
00001F23  632D666F722D      arpl [0x2d726f66],bp
00001F29  6C                insb
00001F2A  696E75782F676C    imul ebp,[esi+0x75],dword 0x6c672f78
00001F31  6962632D322E31    imul esp,[edx+0x63],dword 0x312e322d
00001F38  322E              xor ch,[esi]
00001F3A  322F              xor ch,[edi]
00001F3C  637375            arpl [ebx+0x75],si
00001F3F  00474E            add [edi+0x4e],al
00001F42  55                push ebp
00001F43  204153            and [ecx+0x53],al
00001F46  2032              and [edx],dh
00001F48  2E3230            xor dh,[cs:eax]
00001F4B  2E3100            xor [cs:eax],eax
00001F4E  018089000000      add [eax+0x89],eax
00001F54  0200              add al,[eax]
00001F56  1400              adc al,0x0
00001F58  0000              add [eax],al
00001F5A  0401              add al,0x1
00001F5C  8E00              mov es,[eax]
00001F5E  0000              add [eax],al
00001F60  01CD              add ebp,ecx
00001F62  0000              add [eax],al
00001F64  004300            add [ebx+0x0],al
00001F67  0000              add [eax],al
00001F69  0488              add al,0x88
00001F6B  0408              add al,0x8
00001F6D  0488              add al,0x88
00001F6F  0408              add al,0x8
00001F71  5B                pop ebx
00001F72  0000              add [eax],al
00001F74  0002              add [edx],al
00001F76  0108              add [eax],ecx
00001F78  800000            add byte [eax],0x0
00001F7B  0002              add [edx],al
00001F7D  0207              add al,[edi]
00001F7F  0000              add [eax],al
00001F81  0000              add [eax],al
00001F83  020407            add al,[edi+eax]
00001F86  360000            add [ss:eax],al
00001F89  0002              add [edx],al
00001F8B  0407              add al,0x7
00001F8D  3100              xor [eax],eax
00001F8F  0000              add [eax],al
00001F91  0201              add al,[ecx]
00001F93  06                push es
00001F94  82                db 0x82
00001F95  0000              add [eax],al
00001F97  0002              add [edx],al
00001F99  020513000000      add al,[0x13]
00001F9F  030405696E7400    add eax,[eax+0x746e69]
00001FA6  0208              add cl,[eax]
00001FA8  059A000000        add eax,0x9a
00001FAD  0208              add cl,[eax]
00001FAF  07                pop es
00001FB0  2C00              sub al,0x0
00001FB2  0000              add [eax],al
00001FB4  0204059F000000    add al,[eax+0x9f]
00001FBB  0404              add al,0x4
00001FBD  07                pop es
00001FBE  0201              add al,[ecx]
00001FC0  06                push es
00001FC1  8900              mov [eax],eax
00001FC3  0000              add [eax],al
00001FC5  051D000000        add eax,0x1d
00001FCA  0119              add [ecx],ebx
00001FCC  8700              xchg eax,[eax]
00001FCE  0000              add [eax],al
00001FD0  010503389704      add [0x4973803],eax
00001FD6  0806              or [esi],al
00001FD8  4F                dec edi
00001FD9  0000              add [eax],al
00001FDB  0000              add [eax],al
00001FDD  0F0100            sgdt [eax]
00001FE0  0002              add [edx],al
00001FE2  005F00            add [edi+0x0],bl
00001FE5  0000              add [eax],al
00001FE7  0401              add al,0x1
00001FE9  8E00              mov es,[eax]
00001FEB  0000              add [eax],al
00001FED  01C9              add ecx,ecx
00001FEF  0000              add [eax],al
00001FF1  004300            add [ebx+0x0],al
00001FF4  0000              add [eax],al
00001FF6  80960408EA9604    adc byte [esi+0x96ea0804],0x4
00001FFD  088200000002      or [edx+0x2000000],al
00002003  0405              add al,0x5
00002005  696E740003AD00    imul ebp,[esi+0x74],dword 0xad0300
0000200C  0000              add [eax],al
0000200E  02D3              add dl,bl
00002010  37                aaa
00002011  0000              add [eax],al
00002013  000404            add [esp+eax],al
00002016  07                pop es
00002017  360000            add [ss:eax],al
0000201A  000501FD0000      add [0xfd01],al
00002020  0001              add [ecx],al
00002022  830180            add dword [ecx],byte -0x80
00002025  96                xchg eax,esi
00002026  0408              add al,0x8
00002028  859604080000      test [esi+0x804],edx
0000202E  0000              add [eax],al
00002030  06                push es
00002031  01B900000001      add [ecx+0x1000000],edi
00002037  690190960408      imul eax,[ecx],dword 0x8049690
0000203D  EA9604082C0000    jmp 0x0:0x2c080496
00002044  00B900000007      add [ecx+0x7000000],bh
0000204A  B400              mov ah,0x0
0000204C  0000              add [eax],al
0000204E  016925            add [ecx+0x25],ebp
00002051  0000              add [eax],al
00002053  0002              add [edx],al
00002055  91                xchg eax,ecx
00002056  0007              add [edi],al
00002058  0D01000001        or eax,0x1000001
0000205D  69B9000000029104  imul edi,[ecx+0x2000000],dword 0xa8070491
         -07A8
00002067  0000              add [eax],al
00002069  0001              add [ecx],al
0000206B  69B9000000029108  imul edi,[ecx+0x2000000],dword 0xe7080891
         -08E7
00002075  0000              add [eax],al
00002077  0001              add [ecx],al
00002079  7ACC              jpe 0x2047
0000207B  0000              add [eax],al
0000207D  0009              add [ecx],cl
0000207F  A9960408E2        test eax,0xe2080496
00002084  96                xchg eax,esi
00002085  0408              add al,0x8
00002087  0A6900            or ch,[ecx+0x0]
0000208A  017B2C            add [ebx+0x2c],edi
0000208D  0000              add [eax],al
0000208F  005800            add [eax+0x0],bl
00002092  0000              add [eax],al
00002094  0000              add [eax],al
00002096  0B04BF            or eax,[edi+edi*4]
00002099  0000              add [eax],al
0000209B  000B              add [ebx],cl
0000209D  04C5              add al,0xc5
0000209F  0000              add [eax],al
000020A1  000401            add [ecx+eax],al
000020A4  06                push es
000020A5  8900              mov [eax],eax
000020A7  0000              add [eax],al
000020A9  0C2C              or al,0x2c
000020AB  0000              add [eax],al
000020AD  000DF2000000      add [0xf2],cl
000020B3  DC00              fadd qword [eax]
000020B5  0000              add [eax],al
000020B7  0E                push cs
000020B8  000F              add [edi],cl
000020BA  01F2              add edx,esi
000020BC  0000              add [eax],al
000020BE  0010              add [eax],dl
000020C0  2500000010        and eax,0x10000000
000020C5  B900000010        mov ecx,0x10000000
000020CA  B900000000        mov ecx,0x0
000020CF  0B04DC            or eax,[esp+ebx*8]
000020D2  0000              add [eax],al
000020D4  0011              add [ecx],dl
000020D6  D400              aam 0x0
000020D8  0000              add [eax],al
000020DA  013B              add [ebx],edi
000020DC  D100              rol dword [eax],1
000020DE  0000              add [eax],al
000020E0  0101              add [ecx],eax
000020E2  11EC              adc esp,ebp
000020E4  0000              add [eax],al
000020E6  0001              add [ecx],al
000020E8  3DD1000000        cmp eax,0xd1
000020ED  0101              add [ecx],eax
000020EF  0001              add [ecx],al
000020F1  1100              adc [eax],eax
000020F3  1006              adc [esi],al
000020F5  1101              adc [ecx],eax
000020F7  1201              adc al,[ecx]
000020F9  0308              add ecx,[eax]
000020FB  1B08              sbb ecx,[eax]
000020FD  2508130500        and eax,0x51308
00002102  0000              add [eax],al
00002104  0111              add [ecx],edx
00002106  01250E130B03      add [0x30b130e],esp
0000210C  0E                push cs
0000210D  1B0E              sbb ecx,[esi]
0000210F  1101              adc [ecx],eax
00002111  1201              adc al,[ecx]
00002113  1006              adc [esi],al
00002115  0000              add [eax],al
00002117  022400            add ah,[eax+eax]
0000211A  0B0B              or ecx,[ebx]
0000211C  3E0B03            or eax,[ds:ebx]
0000211F  0E                push cs
00002120  0000              add [eax],al
00002122  032400            add esp,[eax+eax]
00002125  0B0B              or ecx,[ebx]
00002127  3E0B03            or eax,[ds:ebx]
0000212A  0800              or [eax],al
0000212C  000424            add [esp],al
0000212F  000B              add [ebx],cl
00002131  0B3E              or edi,[esi]
00002133  0B00              or eax,[eax]
00002135  00053400030E      add [0xe030034],al
0000213B  3A0B              cmp cl,[ebx]
0000213D  3B0B              cmp ecx,[ebx]
0000213F  49                dec ecx
00002140  133F              adc edi,[edi]
00002142  0C02              or al,0x2
00002144  0A00              or al,[eax]
00002146  0006              add [esi],al
00002148  26004913          add [es:ecx+0x13],cl
0000214C  0000              add [eax],al
0000214E  0001              add [ecx],al
00002150  1101              adc [ecx],eax
00002152  250E130B03        and eax,0x30b130e
00002157  0E                push cs
00002158  1B0E              sbb ecx,[esi]
0000215A  1101              adc [ecx],eax
0000215C  1201              adc al,[ecx]
0000215E  1006              adc [esi],al
00002160  0000              add [eax],al
00002162  022400            add ah,[eax+eax]
00002165  0B0B              or ecx,[ebx]
00002167  3E0B03            or eax,[ds:ebx]
0000216A  0800              or [eax],al
0000216C  0003              add [ebx],al
0000216E  16                push ss
0000216F  0003              add [ebx],al
00002171  0E                push cs
00002172  3A0B              cmp cl,[ebx]
00002174  3B0B              cmp ecx,[ebx]
00002176  49                dec ecx
00002177  1300              adc eax,[eax]
00002179  000424            add [esp],al
0000217C  000B              add [ebx],cl
0000217E  0B3E              or edi,[esi]
00002180  0B03              or eax,[ebx]
00002182  0E                push cs
00002183  0000              add [eax],al
00002185  052E003F0C        add eax,0xc3f002e
0000218A  030E              add ecx,[esi]
0000218C  3A0B              cmp cl,[ebx]
0000218E  3B0B              cmp ecx,[ebx]
00002190  27                daa
00002191  0C11              or al,0x11
00002193  0112              add [edx],edx
00002195  014006            add [eax+0x6],eax
00002198  0000              add [eax],al
0000219A  06                push es
0000219B  2E013F            add [cs:edi],edi
0000219E  0C03              or al,0x3
000021A0  0E                push cs
000021A1  3A0B              cmp cl,[ebx]
000021A3  3B0B              cmp ecx,[ebx]
000021A5  27                daa
000021A6  0C11              or al,0x11
000021A8  0112              add [edx],edx
000021AA  014006            add [eax+0x6],eax
000021AD  0113              add [ebx],edx
000021AF  0000              add [eax],al
000021B1  07                pop es
000021B2  0500030E3A        add eax,0x3a0e0300
000021B7  0B3B              or edi,[ebx]
000021B9  0B4913            or ecx,[ecx+0x13]
000021BC  020A              add cl,[edx]
000021BE  0000              add [eax],al
000021C0  083400            or [eax+eax],dh
000021C3  030E              add ecx,[esi]
000021C5  3A0B              cmp cl,[ebx]
000021C7  3B0B              cmp ecx,[ebx]
000021C9  49                dec ecx
000021CA  1300              adc eax,[eax]
000021CC  0009              add [ecx],cl
000021CE  0B01              or eax,[ecx]
000021D0  1101              adc [ecx],eax
000021D2  1201              adc al,[ecx]
000021D4  0000              add [eax],al
000021D6  0A3400            or dh,[eax+eax]
000021D9  0308              add ecx,[eax]
000021DB  3A0B              cmp cl,[ebx]
000021DD  3B0B              cmp ecx,[ebx]
000021DF  49                dec ecx
000021E0  1302              adc eax,[edx]
000021E2  06                push es
000021E3  0000              add [eax],al
000021E5  0B0F              or ecx,[edi]
000021E7  000B              add [ebx],cl
000021E9  0B4913            or ecx,[ecx+0x13]
000021EC  0000              add [eax],al
000021EE  0C26              or al,0x26
000021F0  004913            add [ecx+0x13],cl
000021F3  0000              add [eax],al
000021F5  0D01014913        or eax,0x13490101
000021FA  0113              add [ebx],edx
000021FC  0000              add [eax],al
000021FE  0E                push cs
000021FF  2100              and [eax],eax
00002201  0000              add [eax],al
00002203  0F1501            unpckhps xmm0,[ecx]
00002206  27                daa
00002207  0C01              or al,0x1
00002209  1300              adc eax,[eax]
0000220B  0010              add [eax],dl
0000220D  0500491300        add eax,0x134900
00002212  0011              add [ecx],dl
00002214  3400              xor al,0x0
00002216  030E              add ecx,[esi]
00002218  3A0B              cmp cl,[ebx]
0000221A  3B0B              cmp ecx,[ebx]
0000221C  49                dec ecx
0000221D  133F              adc edi,[edi]
0000221F  0C3C              or al,0x3c
00002221  0C00              or al,0x0
00002223  0000              add [eax],al
00002225  57                push edi
00002226  0000              add [eax],al
00002228  0002              add [edx],al
0000222A  0032              add [edx],dh
0000222C  0000              add [eax],al
0000222E  0001              add [ecx],al
00002230  01FB              add ebx,edi
00002232  0E                push cs
00002233  0D00010101        or eax,0x1010100
00002238  0100              add [eax],eax
0000223A  0000              add [eax],al
0000223C  0100              add [eax],eax
0000223E  0001              add [ecx],al
00002240  2E2E2F            cs das
00002243  7379              jnc 0x22be
00002245  7364              jnc 0x22ab
00002247  657073            gs jo 0x22bd
0000224A  2F                das
0000224B  693338362F65      imul esi,[ebx],dword 0x652f3638
00002251  6C                insb
00002252  660000            o16 add [eax],al
00002255  7374              jnc 0x22cb
00002257  61                popa
00002258  7274              jc 0x22ce
0000225A  2E53              cs push ebx
0000225C  0001              add [ecx],al
0000225E  0000              add [eax],al
00002260  0000              add [eax],al
00002262  0502E08704        add eax,0x487e002
00002267  0803              or [ebx],al
00002269  C00001            rol byte [eax],0x1
0000226C  3321              xor esp,[ecx]
0000226E  343D              xor al,0x3d
00002270  2522031820        and eax,0x20180322
00002275  59                pop ecx
00002276  5A                pop edx
00002277  2122              and [edx],esp
00002279  5C                pop esp
0000227A  5B                pop ebx
0000227B  0201              add al,[ecx]
0000227D  0001              add [ecx],al
0000227F  0123              add [ebx],esp
00002281  0000              add [eax],al
00002283  0002              add [edx],al
00002285  001D00000001      add [0x1000000],bl
0000228B  01FB              add ebx,edi
0000228D  0E                push cs
0000228E  0D00010101        or eax,0x1010100
00002293  0100              add [eax],eax
00002295  0000              add [eax],al
00002297  0100              add [eax],eax
00002299  0001              add [ecx],al
0000229B  00696E            add [ecx+0x6e],ch
0000229E  69742E6300000000  imul esi,[esi+ebp+0x63],dword 0x0
000022A6  007B00            add [ebx+0x0],bh
000022A9  0000              add [eax],al
000022AB  0200              add al,[eax]
000022AD  57                push edi
000022AE  0000              add [eax],al
000022B0  0001              add [ecx],al
000022B2  01FB              add ebx,edi
000022B4  0E                push cs
000022B5  0D00010101        or eax,0x1010100
000022BA  0100              add [eax],eax
000022BC  0000              add [eax],al
000022BE  0100              add [eax],eax
000022C0  0001              add [ecx],al
000022C2  2F                das
000022C3  7573              jnz 0x2338
000022C5  722F              jc 0x22f6
000022C7  6C                insb
000022C8  69622F6763632F    imul esp,[edx+0x2f],dword 0x2f636367
000022CF  693438362D6C69    imul esi,[eax+edi],dword 0x696c2d36
000022D6  6E                outsb
000022D7  7578              jnz 0x2351
000022D9  2D676E752F        sub eax,0x2f756e67
000022DE  342E              xor al,0x2e
000022E0  342E              xor al,0x2e
000022E2  332F              xor ebp,[edi]
000022E4  696E636C756465    imul ebp,[esi+0x63],dword 0x6564756c
000022EB  0000              add [eax],al
000022ED  656C              gs insb
000022EF  662D696E          sub ax,0x6e69
000022F3  69742E6300000000  imul esi,[esi+ebp+0x63],dword 0x0
000022FB  7374              jnc 0x2371
000022FD  646465662E680001  cs push word 0x100
00002305  0000              add [eax],al
00002307  0000              add [eax],al
00002309  0502809604        add eax,0x4968002
0000230E  0803              or [ebx],al
00002310  830101            add dword [ecx],byte +0x1
00002313  44                inc esp
00002314  035EC8            add ebx,[esi-0x38]
00002317  030E              add ecx,[esi]
00002319  083C5B            or [ebx+ebx*2],bh
0000231C  086708            or [edi+0x8],ah
0000231F  9D                popf
00002320  7602              jna 0x2324
00002322  0800              or [eax],al
00002324  0101              add [ecx],eax
00002326  0000              add [eax],al
00002328  1000              adc [eax],al
0000232A  0000              add [eax],al
0000232C  FF                db 0xFF
0000232D  FF                db 0xFF
0000232E  FF                db 0xFF
0000232F  FF01              inc dword [ecx]
00002331  0001              add [ecx],al
00002333  7C08              jl 0x233d
00002335  0C04              or al,0x4
00002337  0488              add al,0x88
00002339  0100              add [eax],eax
0000233B  001400            add [eax+eax],dl
0000233E  0000              add [eax],al
00002340  0000              add [eax],al
00002342  0000              add [eax],al
00002344  80960408050000    adc byte [esi+0x50804],0x0
0000234B  00410E            add [ecx+0xe],al
0000234E  084285            or [edx-0x7b],al
00002351  020D051C0000      add cl,[0x1c05]
00002357  0000              add [eax],al
00002359  0000              add [eax],al
0000235B  00909604085A      add [eax+0x5a080496],dl
00002361  0000              add [eax],al
00002363  00410E            add [ecx+0xe],al
00002366  084285            or [edx-0x7b],al
00002369  020D054E8305      add cl,[0x5834e05]
0000236F  860487            xchg al,[edi+eax*4]
00002372  0300              add eax,[eax]
00002374  7368              jnc 0x23de
00002376  6F                outsd
00002377  7274              jc 0x23ed
00002379  20756E            and [ebp+0x6e],dh
0000237C  7369              jnc 0x23e7
0000237E  676E              a16 outsb
00002380  656420696E        and [fs:ecx+0x6e],ch
00002385  7400              jz 0x2387
00002387  7368              jnc 0x23f1
00002389  6F                outsd
0000238A  7274              jc 0x2400
0000238C  20696E            and [ecx+0x6e],ch
0000238F  7400              jz 0x2391
00002391  5F                pop edi
00002392  49                dec ecx
00002393  4F                dec edi
00002394  5F                pop edi
00002395  7374              jnc 0x240b
00002397  64696E5F75736564  imul ebp,[fs:esi+0x5f],dword 0x64657375
0000239F  006C6F6E          add [edi+ebp*2+0x6e],ch
000023A3  67206C6F          and [si+0x6f],ch
000023A7  6E                outsb
000023A8  6720756E          and [di+0x6e],dh
000023AC  7369              jnc 0x2417
000023AE  676E              a16 outsb
000023B0  656420696E        and [fs:ecx+0x6e],ch
000023B5  7400              jz 0x23b7
000023B7  2F                das
000023B8  686F6D652F        push dword 0x2f656d6f
000023BD  7069              jo 0x2428
000023BF  657272            gs jc 0x2434
000023C2  652F              gs das
000023C4  42                inc edx
000023C5  7572              jnz 0x2439
000023C7  6561              gs popa
000023C9  752F              jnz 0x23fa
000023CB  6865616465        push dword 0x65646165
000023D0  7273              jc 0x2445
000023D2  2D676C6962        sub eax,0x62696c67
000023D7  632D666F722D      arpl [0x2d726f66],bp
000023DD  6C                insb
000023DE  696E75782F676C    imul ebp,[esi+0x75],dword 0x6c672f78
000023E5  6962632D322E31    imul esp,[edx+0x63],dword 0x312e322d
000023EC  322E              xor ch,[esi]
000023EE  322F              xor ch,[edi]
000023F0  637375            arpl [ebx+0x75],si
000023F3  00756E            add [ebp+0x6e],dh
000023F6  7369              jnc 0x2461
000023F8  676E              a16 outsb
000023FA  6564206368        and [fs:ebx+0x68],ah
000023FF  61                popa
00002400  7200              jc 0x2402
00002402  47                inc edi
00002403  4E                dec esi
00002404  55                push ebp
00002405  204320            and [ebx+0x20],al
00002408  342E              xor al,0x2e
0000240A  342E              xor al,0x2e
0000240C  3300              xor eax,[eax]
0000240E  6C                insb
0000240F  6F                outsd
00002410  6E                outsb
00002411  67206C6F          and [si+0x6f],ch
00002415  6E                outsb
00002416  6720696E          and [bx+di+0x6e],ch
0000241A  7400              jz 0x241c
0000241C  656E              gs outsb
0000241E  7670              jna 0x2490
00002420  007369            add [ebx+0x69],dh
00002423  7A65              jpe 0x248a
00002425  5F                pop edi
00002426  7400              jz 0x2428
00002428  61                popa
00002429  7267              jc 0x2492
0000242B  6300              arpl [eax],ax
0000242D  5F                pop edi
0000242E  5F                pop edi
0000242F  6C                insb
00002430  6962635F637375    imul esp,[edx+0x63],dword 0x7573635f
00002437  5F                pop edi
00002438  696E697400656C    imul ebp,[esi+0x69],dword 0x6c650074
0000243F  662D696E          sub ax,0x6e69
00002443  69742E63005F5F69  imul esi,[esi+ebp+0x63],dword 0x695f5f00
0000244B  6E                outsb
0000244C  69745F6172726179  imul esi,[edi+ebx*2+0x61],dword 0x79617272
00002454  5F                pop edi
00002455  7374              jnc 0x24cb
00002457  61                popa
00002458  7274              jc 0x24ce
0000245A  007369            add [ebx+0x69],dh
0000245D  7A65              jpe 0x24c4
0000245F  005F5F            add [edi+0x5f],bl
00002462  696E69745F6172    imul ebp,[esi+0x69],dword 0x72615f74
00002469  7261              jc 0x24cc
0000246B  795F              jns 0x24cc
0000246D  656E              gs outsb
0000246F  64005F5F          add [fs:edi+0x5f],bl
00002473  6C                insb
00002474  6962635F637375    imul esp,[edx+0x63],dword 0x7573635f
0000247B  5F                pop edi
0000247C  66696E690061      imul bp,[esi+0x69],word 0x6100
00002482  7267              jc 0x24eb
00002484  7600              jna 0x2486
00002486  0000              add [eax],al
00002488  0000              add [eax],al
0000248A  0100              add [eax],eax
0000248C  0000              add [eax],al
0000248E  0200              add al,[eax]
00002490  7404              jz 0x2496
00002492  0100              add [eax],eax
00002494  0000              add [eax],al
00002496  0300              add eax,[eax]
00002498  0000              add [eax],al
0000249A  0200              add al,[eax]
0000249C  7408              jz 0x24a6
0000249E  0300              add eax,[eax]
000024A0  0000              add [eax],al
000024A2  0500000002        add eax,0x2000000
000024A7  007508            add [ebp+0x8],dh
000024AA  0000              add [eax],al
000024AC  0000              add [eax],al
000024AE  0000              add [eax],al
000024B0  0000              add [eax],al
000024B2  1000              adc [eax],al
000024B4  0000              add [eax],al
000024B6  1100              adc [eax],eax
000024B8  0000              add [eax],al
000024BA  0200              add al,[eax]
000024BC  7404              jz 0x24c2
000024BE  1100              adc [eax],eax
000024C0  0000              add [eax],al
000024C2  1300              adc eax,[eax]
000024C4  0000              add [eax],al
000024C6  0200              add al,[eax]
000024C8  7408              jz 0x24d2
000024CA  1300              adc eax,[eax]
000024CC  0000              add [eax],al
000024CE  6A00              push byte +0x0
000024D0  0000              add [eax],al
000024D2  0200              add al,[eax]
000024D4  7508              jnz 0x24de
000024D6  0000              add [eax],al
000024D8  0000              add [eax],al
000024DA  0000              add [eax],al
000024DC  0000              add [eax],al
000024DE  40                inc eax
000024DF  0000              add [eax],al
000024E1  006700            add [edi+0x0],ah
000024E4  0000              add [eax],al
000024E6  0100              add [eax],eax
000024E8  56                push esi
000024E9  0000              add [eax],al
000024EB  0000              add [eax],al
000024ED  0000              add [eax],al
000024EF  0000              add [eax],al
000024F1  002E              add [esi],ch
000024F3  7379              jnc 0x256e
000024F5  6D                insd
000024F6  7461              jz 0x2559
000024F8  6200              bound eax,[eax]
000024FA  2E7374            cs jnc 0x2571
000024FD  7274              jc 0x2573
000024FF  61                popa
00002500  6200              bound eax,[eax]
00002502  2E7368            cs jnc 0x256d
00002505  7374              jnc 0x257b
00002507  7274              jc 0x257d
00002509  61                popa
0000250A  6200              bound eax,[eax]
0000250C  2E696E7465727000  imul ebp,[cs:esi+0x74],dword 0x707265
00002514  2E6E              cs outsb
00002516  6F                outsd
00002517  7465              jz 0x257e
00002519  2E41              cs inc ecx
0000251B  42                inc edx
0000251C  49                dec ecx
0000251D  2D74616700        sub eax,0x676174
00002522  2E6861736800      cs push dword 0x687361
00002528  2E64796E          fs jns 0x259a
0000252C  7379              jnc 0x25a7
0000252E  6D                insd
0000252F  002E              add [esi],ch
00002531  64796E            fs jns 0x25a2
00002534  7374              jnc 0x25aa
00002536  7200              jc 0x2538
00002538  2E676E            cs a16 outsb
0000253B  752E              jnz 0x256b
0000253D  7665              jna 0x25a4
0000253F  7273              jc 0x25b4
00002541  696F6E002E676E    imul ebp,[edi+0x6e],dword 0x6e672e00
00002548  752E              jnz 0x2578
0000254A  7665              jna 0x25b1
0000254C  7273              jc 0x25c1
0000254E  696F6E5F72002E    imul ebp,[edi+0x6e],dword 0x2e00725f
00002555  7265              jc 0x25bc
00002557  6C                insb
00002558  2E64796E          fs jns 0x25ca
0000255C  002E              add [esi],ch
0000255E  7265              jc 0x25c5
00002560  6C                insb
00002561  2E706C            cs jo 0x25d0
00002564  7400              jz 0x2566
00002566  2E696E6974002E74  imul ebp,[cs:esi+0x69],dword 0x742e0074
0000256E  657874            gs js 0x25e5
00002571  002E              add [esi],ch
00002573  66696E69002E      imul bp,[esi+0x69],word 0x2e00
00002579  726F              jc 0x25ea
0000257B  6461              fs popa
0000257D  7461              jz 0x25e0
0000257F  002E              add [esi],ch
00002581  65685F667261      gs push dword 0x6172665f
00002587  6D                insd
00002588  655F              gs pop edi
0000258A  686472002E        push dword 0x2e007264
0000258F  65685F667261      gs push dword 0x6172665f
00002595  6D                insd
00002596  65002E            add [gs:esi],ch
00002599  6763635F          arpl [bp+di+0x5f],sp
0000259D  657863            gs js 0x2603
000025A0  657074            gs jo 0x2617
000025A3  5F                pop edi
000025A4  7461              jz 0x2607
000025A6  626C6500          bound ebp,[ebp+0x0]
000025AA  2E63746F72        arpl [cs:edi+ebp*2+0x72],si
000025AF  7300              jnc 0x25b1
000025B1  2E64746F          fs jz 0x2624
000025B5  7273              jc 0x262a
000025B7  002E              add [esi],ch
000025B9  6A63              push byte +0x63
000025BB  7200              jc 0x25bd
000025BD  2E64796E          fs jns 0x262f
000025C1  61                popa
000025C2  6D                insd
000025C3  6963002E676F74    imul esp,[ebx+0x0],dword 0x746f672e
000025CA  002E              add [esi],ch
000025CC  676F              a16 outsd
000025CE  742E              jz 0x25fe
000025D0  706C              jo 0x263e
000025D2  7400              jz 0x25d4
000025D4  2E6461            fs popa
000025D7  7461              jz 0x263a
000025D9  002E              add [esi],ch
000025DB  627373            bound esi,[ebx+0x73]
000025DE  002E              add [esi],ch
000025E0  636F6D            arpl [edi+0x6d],bp
000025E3  6D                insd
000025E4  656E              gs outsb
000025E6  7400              jz 0x25e8
000025E8  2E6465627567      bound esi,[gs:ebp+0x67]
000025EE  5F                pop edi
000025EF  61                popa
000025F0  7261              jc 0x2653
000025F2  6E                outsb
000025F3  67657300          gs a16 jnc 0x25f7
000025F7  2E6465627567      bound esi,[gs:ebp+0x67]
000025FD  5F                pop edi
000025FE  7075              jo 0x2675
00002600  626E61            bound ebp,[esi+0x61]
00002603  6D                insd
00002604  657300            gs jnc 0x2607
00002607  2E6465627567      bound esi,[gs:ebp+0x67]
0000260D  5F                pop edi
0000260E  696E666F002E64    imul ebp,[esi+0x66],dword 0x642e006f
00002615  65627567          bound esi,[gs:ebp+0x67]
00002619  5F                pop edi
0000261A  61                popa
0000261B  626272            bound esp,[edx+0x72]
0000261E  657600            gs jna 0x2621
00002621  2E6465627567      bound esi,[gs:ebp+0x67]
00002627  5F                pop edi
00002628  6C                insb
00002629  696E65002E6465    imul ebp,[esi+0x65],dword 0x65642e00
00002630  627567            bound esi,[ebp+0x67]
00002633  5F                pop edi
00002634  667261            o16 jc 0x2698
00002637  6D                insd
00002638  65002E            add [gs:esi],ch
0000263B  6465627567        bound esi,[gs:ebp+0x67]
00002640  5F                pop edi
00002641  7374              jnc 0x26b7
00002643  7200              jc 0x2645
00002645  2E6465627567      bound esi,[gs:ebp+0x67]
0000264B  5F                pop edi
0000264C  6C                insb
0000264D  6F                outsd
0000264E  6300              arpl [eax],ax
00002650  0000              add [eax],al
00002652  0000              add [eax],al
00002654  0000              add [eax],al
00002656  0000              add [eax],al
00002658  0000              add [eax],al
0000265A  0000              add [eax],al
0000265C  0000              add [eax],al
0000265E  0000              add [eax],al
00002660  0000              add [eax],al
00002662  0000              add [eax],al
00002664  0000              add [eax],al
00002666  0000              add [eax],al
00002668  0000              add [eax],al
0000266A  0000              add [eax],al
0000266C  0000              add [eax],al
0000266E  0000              add [eax],al
00002670  0000              add [eax],al
00002672  0000              add [eax],al
00002674  0000              add [eax],al
00002676  0000              add [eax],al
00002678  1B00              sbb eax,[eax]
0000267A  0000              add [eax],al
0000267C  0100              add [eax],eax
0000267E  0000              add [eax],al
00002680  0200              add al,[eax]
00002682  0000              add [eax],al
00002684  3481              xor al,0x81
00002686  0408              add al,0x8
00002688  3401              xor al,0x1
0000268A  0000              add [eax],al
0000268C  1300              adc eax,[eax]
0000268E  0000              add [eax],al
00002690  0000              add [eax],al
00002692  0000              add [eax],al
00002694  0000              add [eax],al
00002696  0000              add [eax],al
00002698  0100              add [eax],eax
0000269A  0000              add [eax],al
0000269C  0000              add [eax],al
0000269E  0000              add [eax],al
000026A0  2300              and eax,[eax]
000026A2  0000              add [eax],al
000026A4  07                pop es
000026A5  0000              add [eax],al
000026A7  0002              add [edx],al
000026A9  0000              add [eax],al
000026AB  004881            add [eax-0x7f],cl
000026AE  0408              add al,0x8
000026B0  48                dec eax
000026B1  0100              add [eax],eax
000026B3  0020              add [eax],ah
000026B5  0000              add [eax],al
000026B7  0000              add [eax],al
000026B9  0000              add [eax],al
000026BB  0000              add [eax],al
000026BD  0000              add [eax],al
000026BF  000400            add [eax+eax],al
000026C2  0000              add [eax],al
000026C4  0000              add [eax],al
000026C6  0000              add [eax],al
000026C8  3100              xor [eax],eax
000026CA  0000              add [eax],al
000026CC  0500000002        add eax,0x2000000
000026D1  0000              add [eax],al
000026D3  006881            add [eax-0x7f],ch
000026D6  0408              add al,0x8
000026D8  68010000A4        push dword 0xa4000001
000026DD  0000              add [eax],al
000026DF  000400            add [eax+eax],al
000026E2  0000              add [eax],al
000026E4  0000              add [eax],al
000026E6  0000              add [eax],al
000026E8  0400              add al,0x0
000026EA  0000              add [eax],al
000026EC  0400              add al,0x0
000026EE  0000              add [eax],al
000026F0  37                aaa
000026F1  0000              add [eax],al
000026F3  000B              add [ebx],cl
000026F5  0000              add [eax],al
000026F7  0002              add [edx],al
000026F9  0000              add [eax],al
000026FB  000C82            add [edx+eax*4],cl
000026FE  0408              add al,0x8
00002700  0C02              or al,0x2
00002702  0000              add [eax],al
00002704  60                pusha
00002705  0100              add [eax],eax
00002707  000500000001      add [0x1000000],al
0000270D  0000              add [eax],al
0000270F  000400            add [eax+eax],al
00002712  0000              add [eax],al
00002714  1000              adc [eax],al
00002716  0000              add [eax],al
00002718  3F                aas
00002719  0000              add [eax],al
0000271B  0003              add [ebx],al
0000271D  0000              add [eax],al
0000271F  0002              add [edx],al
00002721  0000              add [eax],al
00002723  006C8304          add [ebx+eax*4+0x4],ch
00002727  086C0300          or [ebx+eax+0x0],ch
0000272B  0007              add [edi],al
0000272D  0200              add al,[eax]
0000272F  0000              add [eax],al
00002731  0000              add [eax],al
00002733  0000              add [eax],al
00002735  0000              add [eax],al
00002737  0001              add [ecx],al
00002739  0000              add [eax],al
0000273B  0000              add [eax],al
0000273D  0000              add [eax],al
0000273F  004700            add [edi+0x0],al
00002742  0000              add [eax],al
00002744  FF                db 0xFF
00002745  FF                db 0xFF
00002746  FF6F02            jmp far [edi+0x2]
00002749  0000              add [eax],al
0000274B  00748504          add [ebp+eax*4+0x4],dh
0000274F  08740500          or [ebp+eax+0x0],dh
00002753  002C00            add [eax+eax],ch
00002756  0000              add [eax],al
00002758  0400              add al,0x0
0000275A  0000              add [eax],al
0000275C  0000              add [eax],al
0000275E  0000              add [eax],al
00002760  0200              add al,[eax]
00002762  0000              add [eax],al
00002764  0200              add al,[eax]
00002766  0000              add [eax],al
00002768  54                push esp
00002769  0000              add [eax],al
0000276B  00FE              add dh,bh
0000276D  FF                db 0xFF
0000276E  FF6F02            jmp far [edi+0x2]
00002771  0000              add [eax],al
00002773  00A0850408A0      add [eax+0xa0080485],ah
00002779  0500008000        add eax,0x800000
0000277E  0000              add [eax],al
00002780  0500000003        add eax,0x3000000
00002785  0000              add [eax],al
00002787  000400            add [eax+eax],al
0000278A  0000              add [eax],al
0000278C  0000              add [eax],al
0000278E  0000              add [eax],al
00002790  6300              arpl [eax],ax
00002792  0000              add [eax],al
00002794  0900              or [eax],eax
00002796  0000              add [eax],al
00002798  0200              add al,[eax]
0000279A  0000              add [eax],al
0000279C  208604082006      and [esi+0x6200804],al
000027A2  0000              add [eax],al
000027A4  1800              sbb [eax],al
000027A6  0000              add [eax],al
000027A8  0400              add al,0x0
000027AA  0000              add [eax],al
000027AC  0000              add [eax],al
000027AE  0000              add [eax],al
000027B0  0400              add al,0x0
000027B2  0000              add [eax],al
000027B4  0800              or [eax],al
000027B6  0000              add [eax],al
000027B8  6C                insb
000027B9  0000              add [eax],al
000027BB  0009              add [ecx],cl
000027BD  0000              add [eax],al
000027BF  0002              add [edx],al
000027C1  0000              add [eax],al
000027C3  0038              add [eax],bh
000027C5  860408            xchg al,[eax+ecx]
000027C8  3806              cmp [esi],al
000027CA  0000              add [eax],al
000027CC  7800              js 0x27ce
000027CE  0000              add [eax],al
000027D0  0400              add al,0x0
000027D2  0000              add [eax],al
000027D4  0B00              or eax,[eax]
000027D6  0000              add [eax],al
000027D8  0400              add al,0x0
000027DA  0000              add [eax],al
000027DC  0800              or [eax],al
000027DE  0000              add [eax],al
000027E0  7500              jnz 0x27e2
000027E2  0000              add [eax],al
000027E4  0100              add [eax],eax
000027E6  0000              add [eax],al
000027E8  06                push es
000027E9  0000              add [eax],al
000027EB  00B0860408B0      add [eax+0xb0080486],dh
000027F1  06                push es
000027F2  0000              add [eax],al
000027F4  3000              xor [eax],al
000027F6  0000              add [eax],al
000027F8  0000              add [eax],al
000027FA  0000              add [eax],al
000027FC  0000              add [eax],al
000027FE  0000              add [eax],al
00002800  0400              add al,0x0
00002802  0000              add [eax],al
00002804  0000              add [eax],al
00002806  0000              add [eax],al
00002808  7000              jo 0x280a
0000280A  0000              add [eax],al
0000280C  0100              add [eax],eax
0000280E  0000              add [eax],al
00002810  06                push es
00002811  0000              add [eax],al
00002813  00E0              add al,ah
00002815  860408            xchg al,[eax+ecx]
00002818  E006              loopne 0x2820
0000281A  0000              add [eax],al
0000281C  0001              add [ecx],al
0000281E  0000              add [eax],al
00002820  0000              add [eax],al
00002822  0000              add [eax],al
00002824  0000              add [eax],al
00002826  0000              add [eax],al
00002828  1000              adc [eax],al
0000282A  0000              add [eax],al
0000282C  0400              add al,0x0
0000282E  0000              add [eax],al
00002830  7B00              jpo 0x2832
00002832  0000              add [eax],al
00002834  0100              add [eax],eax
00002836  0000              add [eax],al
00002838  06                push es
00002839  0000              add [eax],al
0000283B  00E0              add al,ah
0000283D  870408            xchg eax,[eax+ecx]
00002840  E007              loopne 0x2849
00002842  0000              add [eax],al
00002844  380F              cmp [edi],cl
00002846  0000              add [eax],al
00002848  0000              add [eax],al
0000284A  0000              add [eax],al
0000284C  0000              add [eax],al
0000284E  0000              add [eax],al
00002850  1000              adc [eax],al
00002852  0000              add [eax],al
00002854  0000              add [eax],al
00002856  0000              add [eax],al
00002858  810000000100      add dword [eax],0x10000
0000285E  0000              add [eax],al
00002860  06                push es
00002861  0000              add [eax],al
00002863  0018              add [eax],bl
00002865  97                xchg eax,edi
00002866  0408              add al,0x8
00002868  1817              sbb [edi],dl
0000286A  0000              add [eax],al
0000286C  1C00              sbb al,0x0
0000286E  0000              add [eax],al
00002870  0000              add [eax],al
00002872  0000              add [eax],al
00002874  0000              add [eax],al
00002876  0000              add [eax],al
00002878  0400              add al,0x0
0000287A  0000              add [eax],al
0000287C  0000              add [eax],al
0000287E  0000              add [eax],al
00002880  8700              xchg eax,[eax]
00002882  0000              add [eax],al
00002884  0100              add [eax],eax
00002886  0000              add [eax],al
00002888  0200              add al,[eax]
0000288A  0000              add [eax],al
0000288C  3497              xor al,0x97
0000288E  0408              add al,0x8
00002890  3417              xor al,0x17
00002892  0000              add [eax],al
00002894  1400              adc al,0x0
00002896  0000              add [eax],al
00002898  0000              add [eax],al
0000289A  0000              add [eax],al
0000289C  0000              add [eax],al
0000289E  0000              add [eax],al
000028A0  0400              add al,0x0
000028A2  0000              add [eax],al
000028A4  0000              add [eax],al
000028A6  0000              add [eax],al
000028A8  8F00              pop dword [eax]
000028AA  0000              add [eax],al
000028AC  0100              add [eax],eax
000028AE  0000              add [eax],al
000028B0  0200              add al,[eax]
000028B2  0000              add [eax],al
000028B4  48                dec eax
000028B5  97                xchg eax,edi
000028B6  0408              add al,0x8
000028B8  48                dec eax
000028B9  17                pop ss
000028BA  0000              add [eax],al
000028BC  0401              add al,0x1
000028BE  0000              add [eax],al
000028C0  0000              add [eax],al
000028C2  0000              add [eax],al
000028C4  0000              add [eax],al
000028C6  0000              add [eax],al
000028C8  0400              add al,0x0
000028CA  0000              add [eax],al
000028CC  0000              add [eax],al
000028CE  0000              add [eax],al
000028D0  9D                popf
000028D1  0000              add [eax],al
000028D3  0001              add [ecx],al
000028D5  0000              add [eax],al
000028D7  0002              add [edx],al
000028D9  0000              add [eax],al
000028DB  004C9804          add [eax+ebx*4+0x4],cl
000028DF  084C1800          or [eax+ebx+0x0],cl
000028E3  004C0400          add [esp+eax+0x0],cl
000028E7  0000              add [eax],al
000028E9  0000              add [eax],al
000028EB  0000              add [eax],al
000028ED  0000              add [eax],al
000028EF  000400            add [eax+eax],al
000028F2  0000              add [eax],al
000028F4  0000              add [eax],al
000028F6  0000              add [eax],al
000028F8  A7                cmpsd
000028F9  0000              add [eax],al
000028FB  0001              add [ecx],al
000028FD  0000              add [eax],al
000028FF  0002              add [edx],al
00002901  0000              add [eax],al
00002903  00989C040898      add [eax+0x9808049c],bl
00002909  1C00              sbb al,0x0
0000290B  001400            add [eax+eax],dl
0000290E  0000              add [eax],al
00002910  0000              add [eax],al
00002912  0000              add [eax],al
00002914  0000              add [eax],al
00002916  0000              add [eax],al
00002918  0100              add [eax],eax
0000291A  0000              add [eax],al
0000291C  0000              add [eax],al
0000291E  0000              add [eax],al
00002920  B900000001        mov ecx,0x1000000
00002925  0000              add [eax],al
00002927  0003              add [ebx],al
00002929  0000              add [eax],al
0000292B  00ACAC0408AC1C    add [esp+ebp*4+0x1cac0804],ch
00002932  0000              add [eax],al
00002934  0C00              or al,0x0
00002936  0000              add [eax],al
00002938  0000              add [eax],al
0000293A  0000              add [eax],al
0000293C  0000              add [eax],al
0000293E  0000              add [eax],al
00002940  0400              add al,0x0
00002942  0000              add [eax],al
00002944  0000              add [eax],al
00002946  0000              add [eax],al
00002948  C00000            rol byte [eax],0x0
0000294B  0001              add [ecx],al
0000294D  0000              add [eax],al
0000294F  0003              add [ebx],al
00002951  0000              add [eax],al
00002953  00B8AC0408B8      add [eax+0xb80804ac],bh
00002959  1C00              sbb al,0x0
0000295B  0008              add [eax],cl
0000295D  0000              add [eax],al
0000295F  0000              add [eax],al
00002961  0000              add [eax],al
00002963  0000              add [eax],al
00002965  0000              add [eax],al
00002967  000400            add [eax+eax],al
0000296A  0000              add [eax],al
0000296C  0000              add [eax],al
0000296E  0000              add [eax],al
00002970  C70000000100      mov dword [eax],0x10000
00002976  0000              add [eax],al
00002978  0300              add eax,[eax]
0000297A  0000              add [eax],al
0000297C  C0AC0408C01C0000  shr byte [esp+eax+0x1cc008],0x0
00002984  0400              add al,0x0
00002986  0000              add [eax],al
00002988  0000              add [eax],al
0000298A  0000              add [eax],al
0000298C  0000              add [eax],al
0000298E  0000              add [eax],al
00002990  0400              add al,0x0
00002992  0000              add [eax],al
00002994  0000              add [eax],al
00002996  0000              add [eax],al
00002998  CC                int3
00002999  0000              add [eax],al
0000299B  0006              add [esi],al
0000299D  0000              add [eax],al
0000299F  0003              add [ebx],al
000029A1  0000              add [eax],al
000029A3  00C4              add ah,al
000029A5  AC                lodsb
000029A6  0408              add al,0x8
000029A8  C41C00            les ebx,[eax+eax]
000029AB  00E0              add al,ah
000029AD  0000              add [eax],al
000029AF  000500000000      add [0x0],al
000029B5  0000              add [eax],al
000029B7  000400            add [eax+eax],al
000029BA  0000              add [eax],al
000029BC  0800              or [eax],al
000029BE  0000              add [eax],al
000029C0  D500              aad 0x0
000029C2  0000              add [eax],al
000029C4  0100              add [eax],eax
000029C6  0000              add [eax],al
000029C8  0300              add eax,[eax]
000029CA  0000              add [eax],al
000029CC  A4                movsb
000029CD  AD                lodsd
000029CE  0408              add al,0x8
000029D0  A4                movsb
000029D1  1D00000400        sbb eax,0x40000
000029D6  0000              add [eax],al
000029D8  0000              add [eax],al
000029DA  0000              add [eax],al
000029DC  0000              add [eax],al
000029DE  0000              add [eax],al
000029E0  0400              add al,0x0
000029E2  0000              add [eax],al
000029E4  0400              add al,0x0
000029E6  0000              add [eax],al
000029E8  DA00              fiadd dword [eax]
000029EA  0000              add [eax],al
000029EC  0100              add [eax],eax
000029EE  0000              add [eax],al
000029F0  0300              add eax,[eax]
000029F2  0000              add [eax],al
000029F4  A8AD              test al,0xad
000029F6  0408              add al,0x8
000029F8  A81D              test al,0x1d
000029FA  0000              add [eax],al
000029FC  48                dec eax
000029FD  0000              add [eax],al
000029FF  0000              add [eax],al
00002A01  0000              add [eax],al
00002A03  0000              add [eax],al
00002A05  0000              add [eax],al
00002A07  000400            add [eax+eax],al
00002A0A  0000              add [eax],al
00002A0C  0400              add al,0x0
00002A0E  0000              add [eax],al
00002A10  E300              jecxz 0x2a12
00002A12  0000              add [eax],al
00002A14  0100              add [eax],eax
00002A16  0000              add [eax],al
00002A18  0300              add eax,[eax]
00002A1A  0000              add [eax],al
00002A1C  F0AD              lock lodsd
00002A1E  0408              add al,0x8
00002A20  F01D00000800      lock sbb eax,0x80000
00002A26  0000              add [eax],al
00002A28  0000              add [eax],al
00002A2A  0000              add [eax],al
00002A2C  0000              add [eax],al
00002A2E  0000              add [eax],al
00002A30  0400              add al,0x0
00002A32  0000              add [eax],al
00002A34  0000              add [eax],al
00002A36  0000              add [eax],al
00002A38  E900000008        jmp 0x8002a3d
00002A3D  0000              add [eax],al
00002A3F  0003              add [ebx],al
00002A41  0000              add [eax],al
00002A43  0000              add [eax],al
00002A45  AE                scasb
00002A46  0408              add al,0x8
00002A48  F8                clc
00002A49  1D00003801        sbb eax,0x1380000
00002A4E  0000              add [eax],al
00002A50  0000              add [eax],al
00002A52  0000              add [eax],al
00002A54  0000              add [eax],al
00002A56  0000              add [eax],al
00002A58  2000              and [eax],al
00002A5A  0000              add [eax],al
00002A5C  0000              add [eax],al
00002A5E  0000              add [eax],al
00002A60  EE                out dx,al
00002A61  0000              add [eax],al
00002A63  0001              add [ecx],al
00002A65  0000              add [eax],al
00002A67  0030              add [eax],dh
00002A69  0000              add [eax],al
00002A6B  0000              add [eax],al
00002A6D  0000              add [eax],al
00002A6F  00F8              add al,bh
00002A71  1D00003400        sbb eax,0x340000
00002A76  0000              add [eax],al
00002A78  0000              add [eax],al
00002A7A  0000              add [eax],al
00002A7C  0000              add [eax],al
00002A7E  0000              add [eax],al
00002A80  0100              add [eax],eax
00002A82  0000              add [eax],al
00002A84  0100              add [eax],eax
00002A86  0000              add [eax],al
00002A88  F70000000100      test dword [eax],0x10000
00002A8E  0000              add [eax],al
00002A90  0000              add [eax],al
00002A92  0000              add [eax],al
00002A94  0000              add [eax],al
00002A96  0000              add [eax],al
00002A98  301E              xor [esi],bl
00002A9A  0000              add [eax],al
00002A9C  40                inc eax
00002A9D  0000              add [eax],al
00002A9F  0000              add [eax],al
00002AA1  0000              add [eax],al
00002AA3  0000              add [eax],al
00002AA5  0000              add [eax],al
00002AA7  0008              add [eax],cl
00002AA9  0000              add [eax],al
00002AAB  0000              add [eax],al
00002AAD  0000              add [eax],al
00002AAF  0006              add [esi],al
00002AB1  0100              add [eax],eax
00002AB3  0001              add [ecx],al
00002AB5  0000              add [eax],al
00002AB7  0000              add [eax],al
00002AB9  0000              add [eax],al
00002ABB  0000              add [eax],al
00002ABD  0000              add [eax],al
00002ABF  00701E            add [eax+0x1e],dh
00002AC2  0000              add [eax],al
00002AC4  5F                pop edi
00002AC5  0000              add [eax],al
00002AC7  0000              add [eax],al
00002AC9  0000              add [eax],al
00002ACB  0000              add [eax],al
00002ACD  0000              add [eax],al
00002ACF  0001              add [ecx],al
00002AD1  0000              add [eax],al
00002AD3  0000              add [eax],al
00002AD5  0000              add [eax],al
00002AD7  0016              add [esi],dl
00002AD9  0100              add [eax],eax
00002ADB  0001              add [ecx],al
00002ADD  0000              add [eax],al
00002ADF  0000              add [eax],al
00002AE1  0000              add [eax],al
00002AE3  0000              add [eax],al
00002AE5  0000              add [eax],al
00002AE7  00CF              add bh,cl
00002AE9  1E                push ds
00002AEA  0000              add [eax],al
00002AEC  2102              and [edx],eax
00002AEE  0000              add [eax],al
00002AF0  0000              add [eax],al
00002AF2  0000              add [eax],al
00002AF4  0000              add [eax],al
00002AF6  0000              add [eax],al
00002AF8  0100              add [eax],eax
00002AFA  0000              add [eax],al
00002AFC  0000              add [eax],al
00002AFE  0000              add [eax],al
00002B00  2201              and al,[ecx]
00002B02  0000              add [eax],al
00002B04  0100              add [eax],eax
00002B06  0000              add [eax],al
00002B08  0000              add [eax],al
00002B0A  0000              add [eax],al
00002B0C  0000              add [eax],al
00002B0E  0000              add [eax],al
00002B10  F02000            lock and [eax],al
00002B13  003501000000      add [0x1],dh
00002B19  0000              add [eax],al
00002B1B  0000              add [eax],al
00002B1D  0000              add [eax],al
00002B1F  0001              add [ecx],al
00002B21  0000              add [eax],al
00002B23  0000              add [eax],al
00002B25  0000              add [eax],al
00002B27  0030              add [eax],dh
00002B29  0100              add [eax],eax
00002B2B  0001              add [ecx],al
00002B2D  0000              add [eax],al
00002B2F  0000              add [eax],al
00002B31  0000              add [eax],al
00002B33  0000              add [eax],al
00002B35  0000              add [eax],al
00002B37  002522000001      add [0x1000022],ah
00002B3D  0100              add [eax],eax
00002B3F  0000              add [eax],al
00002B41  0000              add [eax],al
00002B43  0000              add [eax],al
00002B45  0000              add [eax],al
00002B47  0001              add [ecx],al
00002B49  0000              add [eax],al
00002B4B  0000              add [eax],al
00002B4D  0000              add [eax],al
00002B4F  003C01            add [ecx+eax],bh
00002B52  0000              add [eax],al
00002B54  0100              add [eax],eax
00002B56  0000              add [eax],al
00002B58  0000              add [eax],al
00002B5A  0000              add [eax],al
00002B5C  0000              add [eax],al
00002B5E  0000              add [eax],al
00002B60  2823              sub [ebx],ah
00002B62  0000              add [eax],al
00002B64  4C                dec esp
00002B65  0000              add [eax],al
00002B67  0000              add [eax],al
00002B69  0000              add [eax],al
00002B6B  0000              add [eax],al
00002B6D  0000              add [eax],al
00002B6F  000400            add [eax+eax],al
00002B72  0000              add [eax],al
00002B74  0000              add [eax],al
00002B76  0000              add [eax],al
00002B78  49                dec ecx
00002B79  0100              add [eax],eax
00002B7B  0001              add [ecx],al
00002B7D  0000              add [eax],al
00002B7F  0030              add [eax],dh
00002B81  0000              add [eax],al
00002B83  0000              add [eax],al
00002B85  0000              add [eax],al
00002B87  00742300          add [ebx+0x0],dh
00002B8B  0012              add [edx],dl
00002B8D  0100              add [eax],eax
00002B8F  0000              add [eax],al
00002B91  0000              add [eax],al
00002B93  0000              add [eax],al
00002B95  0000              add [eax],al
00002B97  0001              add [ecx],al
00002B99  0000              add [eax],al
00002B9B  0001              add [ecx],al
00002B9D  0000              add [eax],al
00002B9F  00540100          add [ecx+eax+0x0],dl
00002BA3  0001              add [ecx],al
00002BA5  0000              add [eax],al
00002BA7  0000              add [eax],al
00002BA9  0000              add [eax],al
00002BAB  0000              add [eax],al
00002BAD  0000              add [eax],al
00002BAF  00862400006B      add [esi+0x6b000024],al
00002BB5  0000              add [eax],al
00002BB7  0000              add [eax],al
00002BB9  0000              add [eax],al
00002BBB  0000              add [eax],al
00002BBD  0000              add [eax],al
00002BBF  0001              add [ecx],al
00002BC1  0000              add [eax],al
00002BC3  0000              add [eax],al
00002BC5  0000              add [eax],al
00002BC7  0011              add [ecx],dl
00002BC9  0000              add [eax],al
00002BCB  0003              add [ebx],al
00002BCD  0000              add [eax],al
00002BCF  0000              add [eax],al
00002BD1  0000              add [eax],al
00002BD3  0000              add [eax],al
00002BD5  0000              add [eax],al
00002BD7  00F1              add cl,dh
00002BD9  2400              and al,0x0
00002BDB  005F01            add [edi+0x1],bl
00002BDE  0000              add [eax],al
00002BE0  0000              add [eax],al
00002BE2  0000              add [eax],al
00002BE4  0000              add [eax],al
00002BE6  0000              add [eax],al
00002BE8  0100              add [eax],eax
00002BEA  0000              add [eax],al
00002BEC  0000              add [eax],al
00002BEE  0000              add [eax],al
00002BF0  0100              add [eax],eax
00002BF2  0000              add [eax],al
00002BF4  0200              add al,[eax]
00002BF6  0000              add [eax],al
00002BF8  0000              add [eax],al
00002BFA  0000              add [eax],al
00002BFC  0000              add [eax],al
00002BFE  0000              add [eax],al
00002C00  40                inc eax
00002C01  2C00              sub al,0x0
00002C03  00F0              add al,dh
00002C05  07                pop es
00002C06  0000              add [eax],al
00002C08  250000003F        and eax,0x3f000000
00002C0D  0000              add [eax],al
00002C0F  000400            add [eax+eax],al
00002C12  0000              add [eax],al
00002C14  1000              adc [eax],al
00002C16  0000              add [eax],al
00002C18  0900              or [eax],eax
00002C1A  0000              add [eax],al
00002C1C  0300              add eax,[eax]
00002C1E  0000              add [eax],al
00002C20  0000              add [eax],al
00002C22  0000              add [eax],al
00002C24  0000              add [eax],al
00002C26  0000              add [eax],al
00002C28  303400            xor [eax+eax],dh
00002C2B  00F4              add ah,dh
00002C2D  0800              or [eax],al
00002C2F  0000              add [eax],al
00002C31  0000              add [eax],al
00002C33  0000              add [eax],al
00002C35  0000              add [eax],al
00002C37  0001              add [ecx],al
00002C39  0000              add [eax],al
00002C3B  0000              add [eax],al
00002C3D  0000              add [eax],al
00002C3F  0000              add [eax],al
00002C41  0000              add [eax],al
00002C43  0000              add [eax],al
00002C45  0000              add [eax],al
00002C47  0000              add [eax],al
00002C49  0000              add [eax],al
00002C4B  0000              add [eax],al
00002C4D  0000              add [eax],al
00002C4F  0000              add [eax],al
00002C51  0000              add [eax],al
00002C53  003481            add [ecx+eax*4],dh
00002C56  0408              add al,0x8
00002C58  0000              add [eax],al
00002C5A  0000              add [eax],al
00002C5C  0300              add eax,[eax]
00002C5E  0100              add [eax],eax
00002C60  0000              add [eax],al
00002C62  0000              add [eax],al
00002C64  48                dec eax
00002C65  81040800000000    add dword [eax+ecx],0x0
00002C6C  0300              add eax,[eax]
00002C6E  0200              add al,[eax]
00002C70  0000              add [eax],al
00002C72  0000              add [eax],al
00002C74  6881040800        push dword 0x80481
00002C79  0000              add [eax],al
00002C7B  0003              add [ebx],al
00002C7D  0003              add [ebx],al
00002C7F  0000              add [eax],al
00002C81  0000              add [eax],al
00002C83  000C82            add [edx+eax*4],cl
00002C86  0408              add al,0x8
00002C88  0000              add [eax],al
00002C8A  0000              add [eax],al
00002C8C  0300              add eax,[eax]
00002C8E  0400              add al,0x0
00002C90  0000              add [eax],al
00002C92  0000              add [eax],al
00002C94  6C                insb
00002C95  83040800          add dword [eax+ecx],byte +0x0
00002C99  0000              add [eax],al
00002C9B  0003              add [ebx],al
00002C9D  000500000000      add [0x0],al
00002CA3  00748504          add [ebp+eax*4+0x4],dh
00002CA7  0800              or [eax],al
00002CA9  0000              add [eax],al
00002CAB  0003              add [ebx],al
00002CAD  0006              add [esi],al
00002CAF  0000              add [eax],al
00002CB1  0000              add [eax],al
00002CB3  00A085040800      add [eax+0x80485],ah
00002CB9  0000              add [eax],al
00002CBB  0003              add [ebx],al
00002CBD  0007              add [edi],al
00002CBF  0000              add [eax],al
00002CC1  0000              add [eax],al
00002CC3  0020              add [eax],ah
00002CC5  860408            xchg al,[eax+ecx]
00002CC8  0000              add [eax],al
00002CCA  0000              add [eax],al
00002CCC  0300              add eax,[eax]
00002CCE  0800              or [eax],al
00002CD0  0000              add [eax],al
00002CD2  0000              add [eax],al
00002CD4  388604080000      cmp [esi+0x804],al
00002CDA  0000              add [eax],al
00002CDC  0300              add eax,[eax]
00002CDE  0900              or [eax],eax
00002CE0  0000              add [eax],al
00002CE2  0000              add [eax],al
00002CE4  B086              mov al,0x86
00002CE6  0408              add al,0x8
00002CE8  0000              add [eax],al
00002CEA  0000              add [eax],al
00002CEC  0300              add eax,[eax]
00002CEE  0A00              or al,[eax]
00002CF0  0000              add [eax],al
00002CF2  0000              add [eax],al
00002CF4  E086              loopne 0x2c7c
00002CF6  0408              add al,0x8
00002CF8  0000              add [eax],al
00002CFA  0000              add [eax],al
00002CFC  0300              add eax,[eax]
00002CFE  0B00              or eax,[eax]
00002D00  0000              add [eax],al
00002D02  0000              add [eax],al
00002D04  E087              loopne 0x2c8d
00002D06  0408              add al,0x8
00002D08  0000              add [eax],al
00002D0A  0000              add [eax],al
00002D0C  0300              add eax,[eax]
00002D0E  0C00              or al,0x0
00002D10  0000              add [eax],al
00002D12  0000              add [eax],al
00002D14  189704080000      sbb [edi+0x804],dl
00002D1A  0000              add [eax],al
00002D1C  0300              add eax,[eax]
00002D1E  0D00000000        or eax,0x0
00002D23  003497            add [edi+edx*4],dh
00002D26  0408              add al,0x8
00002D28  0000              add [eax],al
00002D2A  0000              add [eax],al
00002D2C  0300              add eax,[eax]
00002D2E  0E                push cs
00002D2F  0000              add [eax],al
00002D31  0000              add [eax],al
00002D33  004897            add [eax-0x69],cl
00002D36  0408              add al,0x8
00002D38  0000              add [eax],al
00002D3A  0000              add [eax],al
00002D3C  0300              add eax,[eax]
00002D3E  0F0000            sldt [eax]
00002D41  0000              add [eax],al
00002D43  004C9804          add [eax+ebx*4+0x4],cl
00002D47  0800              or [eax],al
00002D49  0000              add [eax],al
00002D4B  0003              add [ebx],al
00002D4D  0010              add [eax],dl
00002D4F  0000              add [eax],al
00002D51  0000              add [eax],al
00002D53  00989C040800      add [eax+0x8049c],bl
00002D59  0000              add [eax],al
00002D5B  0003              add [ebx],al
00002D5D  0011              add [ecx],dl
00002D5F  0000              add [eax],al
00002D61  0000              add [eax],al
00002D63  00ACAC04080000    add [esp+ebp*4+0x804],ch
00002D6A  0000              add [eax],al
00002D6C  0300              add eax,[eax]
00002D6E  1200              adc al,[eax]
00002D70  0000              add [eax],al
00002D72  0000              add [eax],al
00002D74  B8AC040800        mov eax,0x804ac
00002D79  0000              add [eax],al
00002D7B  0003              add [ebx],al
00002D7D  0013              add [ebx],dl
00002D7F  0000              add [eax],al
00002D81  0000              add [eax],al
00002D83  00C0              add al,al
00002D85  AC                lodsb
00002D86  0408              add al,0x8
00002D88  0000              add [eax],al
00002D8A  0000              add [eax],al
00002D8C  0300              add eax,[eax]
00002D8E  1400              adc al,0x0
00002D90  0000              add [eax],al
00002D92  0000              add [eax],al
00002D94  C4AC0408000000    les ebp,[esp+eax+0x8]
00002D9B  0003              add [ebx],al
00002D9D  001500000000      add [0x0],dl
00002DA3  00A4AD04080000    add [ebp+ebp*4+0x804],ah
00002DAA  0000              add [eax],al
00002DAC  0300              add eax,[eax]
00002DAE  16                push ss
00002DAF  0000              add [eax],al
00002DB1  0000              add [eax],al
00002DB3  00A8AD040800      add [eax+0x804ad],ch
00002DB9  0000              add [eax],al
00002DBB  0003              add [ebx],al
00002DBD  0017              add [edi],dl
00002DBF  0000              add [eax],al
00002DC1  0000              add [eax],al
00002DC3  00F0              add al,dh
00002DC5  AD                lodsd
00002DC6  0408              add al,0x8
00002DC8  0000              add [eax],al
00002DCA  0000              add [eax],al
00002DCC  0300              add eax,[eax]
00002DCE  1800              sbb [eax],al
00002DD0  0000              add [eax],al
00002DD2  0000              add [eax],al
00002DD4  00AE04080000      add [esi+0x804],ch
00002DDA  0000              add [eax],al
00002DDC  0300              add eax,[eax]
00002DDE  1900              sbb [eax],eax
00002DE0  0000              add [eax],al
00002DE2  0000              add [eax],al
00002DE4  0000              add [eax],al
00002DE6  0000              add [eax],al
00002DE8  0000              add [eax],al
00002DEA  0000              add [eax],al
00002DEC  0300              add eax,[eax]
00002DEE  1A00              sbb al,[eax]
00002DF0  0000              add [eax],al
00002DF2  0000              add [eax],al
00002DF4  0000              add [eax],al
00002DF6  0000              add [eax],al
00002DF8  0000              add [eax],al
00002DFA  0000              add [eax],al
00002DFC  0300              add eax,[eax]
00002DFE  1B00              sbb eax,[eax]
00002E00  0000              add [eax],al
00002E02  0000              add [eax],al
00002E04  0000              add [eax],al
00002E06  0000              add [eax],al
00002E08  0000              add [eax],al
00002E0A  0000              add [eax],al
00002E0C  0300              add eax,[eax]
00002E0E  1C00              sbb al,0x0
00002E10  0000              add [eax],al
00002E12  0000              add [eax],al
00002E14  0000              add [eax],al
00002E16  0000              add [eax],al
00002E18  0000              add [eax],al
00002E1A  0000              add [eax],al
00002E1C  0300              add eax,[eax]
00002E1E  1D00000000        sbb eax,0x0
00002E23  0000              add [eax],al
00002E25  0000              add [eax],al
00002E27  0000              add [eax],al
00002E29  0000              add [eax],al
00002E2B  0003              add [ebx],al
00002E2D  001E              add [esi],bl
00002E2F  0000              add [eax],al
00002E31  0000              add [eax],al
00002E33  0000              add [eax],al
00002E35  0000              add [eax],al
00002E37  0000              add [eax],al
00002E39  0000              add [eax],al
00002E3B  0003              add [ebx],al
00002E3D  001F              add [edi],bl
00002E3F  0000              add [eax],al
00002E41  0000              add [eax],al
00002E43  0000              add [eax],al
00002E45  0000              add [eax],al
00002E47  0000              add [eax],al
00002E49  0000              add [eax],al
00002E4B  0003              add [ebx],al
00002E4D  0020              add [eax],ah
00002E4F  0000              add [eax],al
00002E51  0000              add [eax],al
00002E53  0000              add [eax],al
00002E55  0000              add [eax],al
00002E57  0000              add [eax],al
00002E59  0000              add [eax],al
00002E5B  0003              add [ebx],al
00002E5D  0021              add [ecx],ah
00002E5F  0000              add [eax],al
00002E61  0000              add [eax],al
00002E63  0000              add [eax],al
00002E65  0000              add [eax],al
00002E67  0000              add [eax],al
00002E69  0000              add [eax],al
00002E6B  0003              add [ebx],al
00002E6D  0022              add [edx],ah
00002E6F  0001              add [ecx],al
00002E71  0000              add [eax],al
00002E73  0000              add [eax],al
00002E75  0000              add [eax],al
00002E77  0000              add [eax],al
00002E79  0000              add [eax],al
00002E7B  000400            add [eax+eax],al
00002E7E  F1                int1
00002E7F  FF08              dec dword [eax]
00002E81  0000              add [eax],al
00002E83  0000              add [eax],al
00002E85  0000              add [eax],al
00002E87  0000              add [eax],al
00002E89  0000              add [eax],al
00002E8B  000400            add [eax+eax],al
00002E8E  F1                int1
00002E8F  FF13              call near [ebx]
00002E91  0000              add [eax],al
00002E93  0000              add [eax],al
00002E95  0000              add [eax],al
00002E97  0000              add [eax],al
00002E99  0000              add [eax],al
00002E9B  000400            add [eax+eax],al
00002E9E  F1                int1
00002E9F  FF1E              call far [esi]
00002EA1  0000              add [eax],al
00002EA3  00ACAC04080000    add [esp+ebp*4+0x804],ch
00002EAA  0000              add [eax],al
00002EAC  0100              add [eax],eax
00002EAE  1200              adc al,[eax]
00002EB0  2C00              sub al,0x0
00002EB2  0000              add [eax],al
00002EB4  B8AC040800        mov eax,0x804ac
00002EB9  0000              add [eax],al
00002EBB  0001              add [ecx],al
00002EBD  0013              add [ebx],dl
00002EBF  003A              add [edx],bh
00002EC1  0000              add [eax],al
00002EC3  00C0              add al,al
00002EC5  AC                lodsb
00002EC6  0408              add al,0x8
00002EC8  0000              add [eax],al
00002ECA  0000              add [eax],al
00002ECC  0100              add [eax],eax
00002ECE  1400              adc al,0x0
00002ED0  47                inc edi
00002ED1  0000              add [eax],al
00002ED3  0010              add [eax],dl
00002ED5  880408            mov [eax+ecx],al
00002ED8  0000              add [eax],al
00002EDA  0000              add [eax],al
00002EDC  0200              add al,[eax]
00002EDE  0C00              or al,0x0
00002EE0  5C                pop esp
00002EE1  0000              add [eax],al
00002EE3  004088            add [eax-0x78],al
00002EE6  0408              add al,0x8
00002EE8  0000              add [eax],al
00002EEA  0000              add [eax],al
00002EEC  0200              add al,[eax]
00002EEE  0C00              or al,0x0
00002EF0  6F                outsd
00002EF1  0000              add [eax],al
00002EF3  008088040800      add [eax+0x80488],al
00002EF9  0000              add [eax],al
00002EFB  0002              add [edx],al
00002EFD  000C00            add [eax+eax],cl
00002F00  8500              test [eax],eax
00002F02  0000              add [eax],al
00002F04  2CAF              sub al,0xaf
00002F06  0408              add al,0x8
00002F08  0100              add [eax],eax
00002F0A  0000              add [eax],al
00002F0C  0100              add [eax],eax
00002F0E  1900              sbb [eax],eax
00002F10  94                xchg eax,esp
00002F11  0000              add [eax],al
00002F13  0030              add [eax],dh
00002F15  AF                scasd
00002F16  0408              add al,0x8
00002F18  0400              add al,0x0
00002F1A  0000              add [eax],al
00002F1C  0100              add [eax],eax
00002F1E  1900              sbb [eax],eax
00002F20  A2000000D0        mov [0xd0000000],al
00002F25  880408            mov [eax+ecx],al
00002F28  0000              add [eax],al
00002F2A  0000              add [eax],al
00002F2C  0200              add al,[eax]
00002F2E  0C00              or al,0x0
00002F30  1300              adc eax,[eax]
00002F32  0000              add [eax],al
00002F34  0000              add [eax],al
00002F36  0000              add [eax],al
00002F38  0000              add [eax],al
00002F3A  0000              add [eax],al
00002F3C  0400              add al,0x0
00002F3E  F1                int1
00002F3F  FFAE000000B4      jmp far [esi+0xb4000000]
00002F45  AC                lodsb
00002F46  0408              add al,0x8
00002F48  0000              add [eax],al
00002F4A  0000              add [eax],al
00002F4C  0100              add [eax],eax
00002F4E  1200              adc al,[eax]
00002F50  BB00000094        mov ebx,0x94000000
00002F55  9C                pushf
00002F56  0408              add al,0x8
00002F58  0000              add [eax],al
00002F5A  0000              add [eax],al
00002F5C  0100              add [eax],eax
00002F5E  1000              adc [eax],al
00002F60  C9                leave
00002F61  0000              add [eax],al
00002F63  00C0              add al,al
00002F65  AC                lodsb
00002F66  0408              add al,0x8
00002F68  0000              add [eax],al
00002F6A  0000              add [eax],al
00002F6C  0100              add [eax],eax
00002F6E  1400              adc al,0x0
00002F70  D500              aad 0x0
00002F72  0000              add [eax],al
00002F74  F096              lock xchg eax,esi
00002F76  0408              add al,0x8
00002F78  0000              add [eax],al
00002F7A  0000              add [eax],al
00002F7C  0200              add al,[eax]
00002F7E  0C00              or al,0x0
00002F80  0800              or [eax],al
00002F82  0000              add [eax],al
00002F84  0000              add [eax],al
00002F86  0000              add [eax],al
00002F88  0000              add [eax],al
00002F8A  0000              add [eax],al
00002F8C  0400              add al,0x0
00002F8E  F1                int1
00002F8F  FF                db 0xFF
00002F90  EB00              jmp short 0x2f92
00002F92  0000              add [eax],al
00002F94  0000              add [eax],al
00002F96  0000              add [eax],al
00002F98  0000              add [eax],al
00002F9A  0000              add [eax],al
00002F9C  0400              add al,0x0
00002F9E  F1                int1
00002F9F  FF0D01000034      dec dword [0x34000001]
00002FA5  AF                scasd
00002FA6  0408              add al,0x8
00002FA8  0100              add [eax],eax
00002FAA  0000              add [eax],al
00002FAC  0100              add [eax],eax
00002FAE  1900              sbb [eax],eax
00002FB0  1C01              sbb al,0x1
00002FB2  0000              add [eax],al
00002FB4  058C04083F        add eax,0x3f08048c
00002FB9  0000              add [eax],al
00002FBB  0002              add [edx],al
00002FBD  000C00            add [eax+eax],cl
00002FC0  4C                dec esp
00002FC1  0100              add [eax],eax
00002FC3  00448C04          add [esp+ecx*4+0x4],al
00002FC7  081C00            or [eax+eax],bl
00002FCA  0000              add [eax],al
00002FCC  0200              add al,[eax]
00002FCE  0C00              or al,0x0
00002FD0  60                pusha
00002FD1  0100              add [eax],eax
00002FD3  0000              add [eax],al
00002FD5  0000              add [eax],al
00002FD7  0000              add [eax],al
00002FD9  0000              add [eax],al
00002FDB  000400            add [eax+eax],al
00002FDE  F1                int1
00002FDF  FF00              inc dword [eax]
00002FE1  0000              add [eax],al
00002FE3  0000              add [eax],al
00002FE5  0000              add [eax],al
00002FE7  0000              add [eax],al
00002FE9  0000              add [eax],al
00002FEB  000400            add [eax+eax],al
00002FEE  F1                int1
00002FEF  FF6B01            jmp far [ebx+0x1]
00002FF2  0000              add [eax],al
00002FF4  A8AD              test al,0xad
00002FF6  0408              add al,0x8
00002FF8  0000              add [eax],al
00002FFA  0000              add [eax],al
00002FFC  0100              add [eax],eax
00002FFE  17                pop ss
00002FFF  0081010000AC      add [ecx+0xac000001],al
00003005  AC                lodsb
00003006  0408              add al,0x8
00003008  0000              add [eax],al
0000300A  0000              add [eax],al
0000300C  0000              add [eax],al
0000300E  1200              adc al,[eax]
00003010  92                xchg eax,edx
00003011  0100              add [eax],eax
00003013  00ACAC04080000    add [esp+ebp*4+0x804],ch
0000301A  0000              add [eax],al
0000301C  0000              add [eax],al
0000301E  1200              adc al,[eax]
00003020  A5                movsd
00003021  0100              add [eax],eax
00003023  00C4              add ah,al
00003025  AC                lodsb
00003026  0408              add al,0x8
00003028  0000              add [eax],al
0000302A  0000              add [eax],al
0000302C  0100              add [eax],eax
0000302E  1500AE0100        adc eax,0x1ae00
00003033  00F0              add al,dh
00003035  AD                lodsd
00003036  0408              add al,0x8
00003038  0000              add [eax],al
0000303A  0000              add [eax],al
0000303C  2000              and [eax],al
0000303E  1800              sbb [eax],al
00003040  B901000000        mov ecx,0x1
00003045  AE                scasb
00003046  0408              add al,0x8
00003048  90                nop
00003049  0000              add [eax],al
0000304B  0011              add [ecx],dl
0000304D  0019              add [ecx],bl
0000304F  00CF              add bh,cl
00003051  0100              add [eax],eax
00003053  001491            add [ecx+edx*4],dl
00003056  0408              add al,0x8
00003058  7400              jz 0x305a
0000305A  0000              add [eax],al
0000305C  2200              and al,[eax]
0000305E  0C00              or al,0x0
00003060  F60100            test byte [ecx],0x0
00003063  0000              add [eax],al
00003065  0000              add [eax],al
00003067  0000              add [eax],al
00003069  0000              add [eax],al
0000306B  0012              add [edx],dl
0000306D  0000              add [eax],al
0000306F  000D02000000      add [0x2],cl
00003075  0000              add [eax],al
00003077  0000              add [eax],al
00003079  0000              add [eax],al
0000307B  0012              add [edx],dl
0000307D  0000              add [eax],al
0000307F  0027              add [edi],ah
00003081  0200              add al,[eax]
00003083  008096040805      add [eax+0x5080496],al
00003089  0000              add [eax],al
0000308B  0012              add [edx],dl
0000308D  000C00            add [eax+eax],cl
00003090  37                aaa
00003091  0200              add al,[eax]
00003093  00E0              add al,ah
00003095  870408            xchg eax,[eax+ecx]
00003098  0000              add [eax],al
0000309A  0000              add [eax],al
0000309C  1200              adc al,[eax]
0000309E  0C00              or al,0x0
000030A0  3E0200            add al,[ds:eax]
000030A3  00608C            add [eax-0x74],ah
000030A6  0408              add al,0x8
000030A8  1800              sbb [eax],al
000030AA  0000              add [eax],al
000030AC  2200              and al,[eax]
000030AE  0C00              or al,0x0
000030B0  49                dec ecx
000030B1  0200              add al,[eax]
000030B3  0008              add [eax],cl
000030B5  93                xchg eax,ebx
000030B6  0408              add al,0x8
000030B8  44                inc esp
000030B9  0000              add [eax],al
000030BB  0022              add [edx],ah
000030BD  000C00            add [eax+eax],cl
000030C0  7E02              jng 0x30c4
000030C2  0000              add [eax],al
000030C4  0000              add [eax],al
000030C6  0000              add [eax],al
000030C8  0000              add [eax],al
000030CA  0000              add [eax],al
000030CC  2000              and [eax],al
000030CE  0000              add [eax],al
000030D0  8D02              lea eax,[edx]
000030D2  0000              add [eax],al
000030D4  0000              add [eax],al
000030D6  0000              add [eax],al
000030D8  0000              add [eax],al
000030DA  0000              add [eax],al
000030DC  2000              and [eax],al
000030DE  0000              add [eax],al
000030E0  A1020000ED        mov eax,[0xed000002]
000030E5  95                xchg eax,ebp
000030E6  0408              add al,0x8
000030E8  8B00              mov eax,[eax]
000030EA  0000              add [eax],al
000030EC  2200              and al,[eax]
000030EE  0C00              or al,0x0
000030F0  06                push es
000030F1  0300              add eax,[eax]
000030F3  003497            add [edi+edx*4],dh
000030F6  0408              add al,0x8
000030F8  0400              add al,0x0
000030FA  0000              add [eax],al
000030FC  1100              adc [eax],eax
000030FE  0E                push cs
000030FF  000D030000DC      add [0xdc000003],cl
00003105  90                nop
00003106  0408              add al,0x8
00003108  3800              cmp [eax],al
0000310A  0000              add [eax],al
0000310C  2200              and al,[eax]
0000310E  0C00              or al,0x0
00003110  3303              xor eax,[ebx]
00003112  0000              add [eax],al
00003114  A29504084B        mov [0x4b080495],al
00003119  0000              add [eax],al
0000311B  0022              add [edx],ah
0000311D  000C00            add [eax+eax],cl
00003120  47                inc edi
00003121  0300              add eax,[eax]
00003123  0018              add [eax],bl
00003125  97                xchg eax,edi
00003126  0408              add al,0x8
00003128  0000              add [eax],al
0000312A  0000              add [eax],al
0000312C  1200              adc al,[eax]
0000312E  0D004D0300        or eax,0x34d00
00003133  00A894040808      add [eax+0x8080494],ch
00003139  0000              add [eax],al
0000313B  0022              add [edx],ah
0000313D  000C00            add [eax+eax],cl
00003140  7303              jnc 0x3145
00003142  0000              add [eax],al
00003144  0000              add [eax],al
00003146  0000              add [eax],al
00003148  0000              add [eax],al
0000314A  0000              add [eax],al
0000314C  1200              adc al,[eax]
0000314E  0000              add [eax],al
00003150  98                cwde
00003151  0300              add eax,[eax]
00003153  004C9304          add [ebx+edx*4+0x4],cl
00003157  084201            or [edx+0x1],al
0000315A  0000              add [eax],al
0000315C  2200              and al,[eax]
0000315E  0C00              or al,0x0
00003160  BE03000031        mov esi,0x31000003
00003165  8F0408            pop dword [eax+ecx]
00003168  5A                pop edx
00003169  0000              add [eax],al
0000316B  0022              add [edx],ah
0000316D  000C00            add [eax+eax],cl
00003170  DF03              fild word [ebx]
00003172  0000              add [eax],al
00003174  0000              add [eax],al
00003176  0000              add [eax],al
00003178  0000              add [eax],al
0000317A  0000              add [eax],al
0000317C  1200              adc al,[eax]
0000317E  0000              add [eax],al
00003180  FC                cld
00003181  0300              add eax,[eax]
00003183  00DB              add bl,bl
00003185  92                xchg eax,edx
00003186  0408              add al,0x8
00003188  1A00              sbb al,[eax]
0000318A  0000              add [eax],al
0000318C  2200              and al,[eax]
0000318E  0C00              or al,0x0
00003190  180400            sbb [eax+eax],al
00003193  004087            add [eax-0x79],al
00003196  0408              add al,0x8
00003198  0000              add [eax],al
0000319A  0000              add [eax],al
0000319C  1200              adc al,[eax]
0000319E  0000              add [eax],al
000031A0  3D04000000        cmp eax,0x4
000031A5  0000              add [eax],al
000031A7  0000              add [eax],al
000031A9  0000              add [eax],al
000031AB  0020              add [eax],ah
000031AD  0000              add [eax],al
000031AF  005904            add [ecx+0x4],bl
000031B2  0000              add [eax],al
000031B4  0000              add [eax],al
000031B6  0000              add [eax],al
000031B8  0000              add [eax],al
000031BA  0000              add [eax],al
000031BC  1200              adc al,[eax]
000031BE  0000              add [eax],al
000031C0  9E                sahf
000031C1  0400              add al,0x0
000031C3  005C8D04          add [ebp+ecx*4+0x4],bl
000031C7  085C0000          or [eax+eax+0x0],bl
000031CB  0022              add [edx],ah
000031CD  000C00            add [eax+eax],cl
000031D0  C50400            lds eax,[eax+eax]
000031D3  0038              add [eax],bh
000031D5  97                xchg eax,edi
000031D6  0408              add al,0x8
000031D8  0400              add al,0x0
000031DA  0000              add [eax],al
000031DC  1100              adc [eax],eax
000031DE  0E                push cs
000031DF  00D4              add ah,dl
000031E1  0400              add al,0x0
000031E3  0088910408BF      add [eax+0xbf080491],cl
000031E9  0000              add [eax],al
000031EB  0022              add [edx],ah
000031ED  000C00            add [eax+eax],cl
000031F0  ED                in eax,dx
000031F1  0400              add al,0x0
000031F3  0000              add [eax],al
000031F5  0000              add [eax],al
000031F7  0000              add [eax],al
000031F9  0000              add [eax],al
000031FB  0020              add [eax],ah
000031FD  0000              add [eax],al
000031FF  0007              add [edi],al
00003201  050000F0AD        add eax,0xadf00000
00003206  0408              add al,0x8
00003208  0000              add [eax],al
0000320A  0000              add [eax],al
0000320C  1000              adc [eax],al
0000320E  1800              sbb [eax],al
00003210  1405              adc al,0x5
00003212  0000              add [eax],al
00003214  F8                clc
00003215  AD                lodsd
00003216  0408              add al,0x8
00003218  0000              add [eax],al
0000321A  0000              add [eax],al
0000321C  1102              adc [edx],eax
0000321E  1800              sbb [eax],al
00003220  20050000A0AE      and [0xaea00000],al
00003226  0408              add al,0x8
00003228  8C00              mov [eax],es
0000322A  0000              add [eax],al
0000322C  1100              adc [eax],eax
0000322E  1900              sbb [eax],eax
00003230  37                aaa
00003231  050000EB8D        add eax,0x8deb0000
00003236  0408              add al,0x8
00003238  8D00              lea eax,[eax]
0000323A  0000              add [eax],al
0000323C  2200              and al,[eax]
0000323E  0C00              or al,0x0
00003240  65050000F4AD      gs add eax,0xadf40000
00003246  0408              add al,0x8
00003248  0000              add [eax],al
0000324A  0000              add [eax],al
0000324C  1102              adc [edx],eax
0000324E  1800              sbb [eax],al
00003250  7205              jc 0x3257
00003252  0000              add [eax],al
00003254  7890              js 0x31e6
00003256  0408              add al,0x8
00003258  640000            add [fs:eax],al
0000325B  0022              add [edx],ah
0000325D  000C00            add [eax+eax],cl
00003260  A0050000BC        mov al,[0xbc000005]
00003265  AC                lodsb
00003266  0408              add al,0x8
00003268  0000              add [eax],al
0000326A  0000              add [eax],al
0000326C  1102              adc [edx],eax
0000326E  1300              adc eax,[eax]
00003270  AD                lodsd
00003271  0500009096        add eax,0x96900000
00003276  0408              add al,0x8
00003278  5A                pop edx
00003279  0000              add [eax],al
0000327B  0012              add [edx],dl
0000327D  000C00            add [eax+eax],cl
00003280  BD05000078        mov ebp,0x78000005
00003285  8C0408            mov [eax+ecx],es
00003288  7100              jno 0x328a
0000328A  0000              add [eax],al
0000328C  2200              and al,[eax]
0000328E  0C00              or al,0x0
00003290  D1050000E98C      rol dword [0x8ce90000],1
00003296  0408              add al,0x8
00003298  7300              jnc 0x329a
0000329A  0000              add [eax],al
0000329C  2200              and al,[eax]
0000329E  0C00              or al,0x0
000032A0  F6050000F59204    test byte [0x92f50000],0x4
000032A7  0813              or [ebx],dl
000032A9  0000              add [eax],al
000032AB  0022              add [edx],ah
000032AD  000C00            add [eax+eax],cl
000032B0  3406              xor al,0x6
000032B2  0000              add [eax],al
000032B4  C3                ret
000032B5  94                xchg eax,esp
000032B6  0408              add al,0x8
000032B8  2500000022        and eax,0x22000000
000032BD  000C00            add [eax+eax],cl
000032C0  6806000000        push dword 0x6
000032C5  0000              add [eax],al
000032C7  0000              add [eax],al
000032C9  0000              add [eax],al
000032CB  0012              add [edx],dl
000032CD  0000              add [eax],al
000032CF  008006000000      add [eax+0x6],al
000032D5  0000              add [eax],al
000032D7  0000              add [eax],al
000032D9  0000              add [eax],al
000032DB  0012              add [edx],dl
000032DD  0000              add [eax],al
000032DF  0093060000F8      add [ebx+0xf8000006],dl
000032E5  AD                lodsd
000032E6  0408              add al,0x8
000032E8  0000              add [eax],al
000032EA  0000              add [eax],al
000032EC  1000              adc [eax],al
000032EE  1900              sbb [eax],eax
000032F0  9F                lahf
000032F1  06                push es
000032F2  0000              add [eax],al
000032F4  8E9404081A0000    mov ss,[esp+eax+0x1a08]
000032FB  0022              add [edx],ah
000032FD  000C00            add [eax+eax],cl
00003300  D006              rol byte [esi],1
00003302  0000              add [eax],al
00003304  0A8F04082700      or cl,[edi+0x270804]
0000330A  0000              add [eax],al
0000330C  2200              and al,[eax]
0000330E  0C00              or al,0x0
00003310  FB                sti
00003311  06                push es
00003312  0000              add [eax],al
00003314  0000              add [eax],al
00003316  0000              add [eax],al
00003318  0000              add [eax],al
0000331A  0000              add [eax],al
0000331C  1200              adc al,[eax]
0000331E  0000              add [eax],al
00003320  1307              adc eax,[edi]
00003322  0000              add [eax],al
00003324  8B8F04083600      mov ecx,[edi+0x360804]
0000332A  0000              add [eax],al
0000332C  2200              and al,[eax]
0000332E  0C00              or al,0x0
00003330  2C07              sub al,0x7
00003332  0000              add [eax],al
00003334  0000              add [eax],al
00003336  0000              add [eax],al
00003338  0000              add [eax],al
0000333A  0000              add [eax],al
0000333C  1200              adc al,[eax]
0000333E  0000              add [eax],al
00003340  3F                aas
00003341  07                pop es
00003342  0000              add [eax],al
00003344  38AF04080000      cmp [edi+0x804],ch
0000334A  0000              add [eax],al
0000334C  1000              adc [eax],al
0000334E  1900              sbb [eax],eax
00003350  44                inc esp
00003351  07                pop es
00003352  0000              add [eax],al
00003354  0000              add [eax],al
00003356  0000              add [eax],al
00003358  0000              add [eax],al
0000335A  0000              add [eax],al
0000335C  1200              adc al,[eax]
0000335E  0000              add [eax],al
00003360  6207              bound eax,[edi]
00003362  0000              add [eax],al
00003364  788E              js 0x32f4
00003366  0408              add al,0x8
00003368  92                xchg eax,edx
00003369  0000              add [eax],al
0000336B  0022              add [edx],ah
0000336D  000C00            add [eax+eax],cl
00003370  830700            add dword [edi],byte +0x0
00003373  004792            add [edi-0x6e],al
00003376  0408              add al,0x8
00003378  94                xchg eax,esp
00003379  0000              add [eax],al
0000337B  0022              add [edx],ah
0000337D  000C00            add [eax+eax],cl
00003380  A1070000B0        mov eax,[0xb0000007]
00003385  870408            xchg eax,[eax+ecx]
00003388  0000              add [eax],al
0000338A  0000              add [eax],al
0000338C  1200              adc al,[eax]
0000338E  0000              add [eax],al
00003390  E9070000C1        jmp 0xc100339c
00003395  8F0408            pop dword [eax+ecx]
00003398  B700              mov bh,0x0
0000339A  0000              add [eax],al
0000339C  2200              and al,[eax]
0000339E  0C00              or al,0x0
000033A0  1008              adc [eax],cl
000033A2  0000              add [eax],al
000033A4  E8940408BA        call 0xba08383d
000033A9  0000              add [eax],al
000033AB  0022              add [edx],ah
000033AD  000C00            add [eax+eax],cl
000033B0  3408              xor al,0x8
000033B2  0000              add [eax],al
000033B4  F8                clc
000033B5  AD                lodsd
000033B6  0408              add al,0x8
000033B8  0000              add [eax],al
000033BA  0000              add [eax],al
000033BC  1000              adc [eax],al
000033BE  1800              sbb [eax],al
000033C0  3B08              cmp ecx,[eax]
000033C2  0000              add [eax],al
000033C4  B88D040833        mov eax,0x3308048d
000033C9  0000              add [eax],al
000033CB  0022              add [edx],ah
000033CD  000C00            add [eax+eax],cl
000033D0  5B                pop ebx
000033D1  0800              or [eax],al
000033D3  00C0              add al,al
000033D5  870408            xchg eax,[eax+ecx]
000033D8  0000              add [eax],al
000033DA  0000              add [eax],al
000033DC  1200              adc al,[eax]
000033DE  0000              add [eax],al
000033E0  7C08              jl 0x33ea
000033E2  0000              add [eax],al
000033E4  0000              add [eax],al
000033E6  0000              add [eax],al
000033E8  0000              add [eax],al
000033EA  0000              add [eax],al
000033EC  1200              adc al,[eax]
000033EE  0000              add [eax],al
000033F0  94                xchg eax,esp
000033F1  0800              or [eax],al
000033F3  00B094040813      add [eax+0x13080494],dh
000033F9  0000              add [eax],al
000033FB  0022              add [edx],ah
000033FD  000C00            add [eax+eax],cl
00003400  D208              ror byte [eax],cl
00003402  0000              add [eax],al
00003404  EA960408000000    jmp 0x0:0x80496
0000340B  0012              add [edx],dl
0000340D  020C00            add cl,[eax+eax]
00003410  E908000000        jmp 0x341d
00003415  890408            mov [eax+ecx],eax
00003418  0503000012        add eax,0x12000003
0000341D  000C00            add [eax+eax],cl
00003420  EE                out dx,al
00003421  0800              or [eax],al
00003423  00B086040800      add [eax+0x80486],dh
00003429  0000              add [eax],al
0000342B  0012              add [edx],dl
0000342D  000A              add [edx],cl
0000342F  0000              add [eax],al
00003431  696E69742E6300    imul ebp,[esi+0x69],dword 0x632e74
00003438  696E697466696E    imul ebp,[esi+0x69],dword 0x6e696674
0000343F  692E63006372      imul ebp,[esi],dword 0x72630063
00003445  7473              jz 0x34ba
00003447  7475              jz 0x34be
00003449  66662E6300        o16 arpl [cs:eax],ax
0000344E  5F                pop edi
0000344F  5F                pop edi
00003450  43                inc ebx
00003451  54                push esp
00003452  4F                dec edi
00003453  52                push edx
00003454  5F                pop edi
00003455  4C                dec esp
00003456  49                dec ecx
00003457  53                push ebx
00003458  54                push esp
00003459  5F                pop edi
0000345A  5F                pop edi
0000345B  005F5F            add [edi+0x5f],bl
0000345E  44                inc esp
0000345F  54                push esp
00003460  4F                dec edi
00003461  52                push edx
00003462  5F                pop edi
00003463  4C                dec esp
00003464  49                dec ecx
00003465  53                push ebx
00003466  54                push esp
00003467  5F                pop edi
00003468  5F                pop edi
00003469  005F5F            add [edi+0x5f],bl
0000346C  4A                dec edx
0000346D  43                inc ebx
0000346E  52                push edx
0000346F  5F                pop edi
00003470  4C                dec esp
00003471  49                dec ecx
00003472  53                push ebx
00003473  54                push esp
00003474  5F                pop edi
00003475  5F                pop edi
00003476  00646572          add [ebp+0x72],ah
0000347A  656769737465725F  imul esi,[gs:bp+di+0x74],dword 0x745f7265
         -74
00003483  6D                insd
00003484  5F                pop edi
00003485  636C6F6E          arpl [edi+ebp*2+0x6e],bp
00003489  657300            gs jnc 0x348c
0000348C  7265              jc 0x34f3
0000348E  6769737465725F74  imul esi,[bp+di+0x74],dword 0x745f7265
00003496  6D                insd
00003497  5F                pop edi
00003498  636C6F6E          arpl [edi+ebp*2+0x6e],bp
0000349C  657300            gs jnc 0x349f
0000349F  5F                pop edi
000034A0  5F                pop edi
000034A1  646F              fs outsd
000034A3  5F                pop edi
000034A4  676C              a16 insb
000034A6  6F                outsd
000034A7  62616C            bound esp,[ecx+0x6c]
000034AA  5F                pop edi
000034AB  64746F            fs jz 0x351d
000034AE  7273              jc 0x3523
000034B0  5F                pop edi
000034B1  61                popa
000034B2  7578              jnz 0x352c
000034B4  00636F            add [ebx+0x6f],ah
000034B7  6D                insd
000034B8  706C              jo 0x3526
000034BA  657465            gs jz 0x3522
000034BD  642E3333          xor esi,[cs:ebx]
000034C1  3238              xor bh,[eax]
000034C3  0064746F          add [esp+esi*2+0x6f],ah
000034C7  725F              jc 0x3528
000034C9  6964782E33333330  imul esp,[eax+edi*2+0x2e],dword 0x30333333
000034D1  006672            add [esi+0x72],ah
000034D4  61                popa
000034D5  6D                insd
000034D6  655F              gs pop edi
000034D8  64756D            fs jnz 0x3548
000034DB  6D                insd
000034DC  7900              jns 0x34de
000034DE  5F                pop edi
000034DF  5F                pop edi
000034E0  43                inc ebx
000034E1  54                push esp
000034E2  4F                dec edi
000034E3  52                push edx
000034E4  5F                pop edi
000034E5  45                inc ebp
000034E6  4E                dec esi
000034E7  44                inc esp
000034E8  5F                pop edi
000034E9  5F                pop edi
000034EA  005F5F            add [edi+0x5f],bl
000034ED  46                inc esi
000034EE  52                push edx
000034EF  41                inc ecx
000034F0  4D                dec ebp
000034F1  45                inc ebp
000034F2  5F                pop edi
000034F3  45                inc ebp
000034F4  4E                dec esi
000034F5  44                inc esp
000034F6  5F                pop edi
000034F7  5F                pop edi
000034F8  005F5F            add [edi+0x5f],bl
000034FB  4A                dec edx
000034FC  43                inc ebx
000034FD  52                push edx
000034FE  5F                pop edi
000034FF  45                inc ebp
00003500  4E                dec esi
00003501  44                inc esp
00003502  5F                pop edi
00003503  5F                pop edi
00003504  005F5F            add [edi+0x5f],bl
00003507  646F              fs outsd
00003509  5F                pop edi
0000350A  676C              a16 insb
0000350C  6F                outsd
0000350D  62616C            bound esp,[ecx+0x6c]
00003510  5F                pop edi
00003511  63746F72          arpl [edi+ebp*2+0x72],si
00003515  735F              jnc 0x3576
00003517  61                popa
00003518  7578              jnz 0x3592
0000351A  0032              add [edx],dh
0000351C  3937              cmp [edi],esi
0000351E  3434              xor al,0x34
00003520  3836              cmp [esi],dh
00003522  5F                pop edi
00003523  3536343437        xor eax,0x37343436
00003528  3338              xor edi,[eax]
0000352A  37                aaa
0000352B  3439              xor al,0x39
0000352D  3236              xor dh,[esi]
0000352F  37                aaa
00003530  3936              cmp [esi],esi
00003532  385F64            cmp [edi+0x64],bl
00003535  6C                insb
00003536  6C                insb
00003537  752E              jnz 0x3567
00003539  637070            arpl [eax+0x70],si
0000353C  005F5A            add [edi+0x5a],bl
0000353F  53                push ebx
00003540  744C              jz 0x358e
00003542  385F5F            cmp [edi+0x5f],bl
00003545  696F696E697400    imul ebp,[edi+0x69],dword 0x74696e
0000354C  5F                pop edi
0000354D  5A                pop edx
0000354E  3431              xor al,0x31
00003550  5F                pop edi
00003551  5F                pop edi
00003552  7374              jnc 0x35c8
00003554  61                popa
00003555  7469              jz 0x35c0
00003557  635F69            arpl [edi+0x69],bx
0000355A  6E                outsb
0000355B  697469616C697A61  imul esi,[ecx+ebp*2+0x61],dword 0x617a696c
00003563  7469              jz 0x35ce
00003565  6F                outsd
00003566  6E                outsb
00003567  5F                pop edi
00003568  61                popa
00003569  6E                outsb
0000356A  645F              fs pop edi
0000356C  64657374          gs jnc 0x35e4
00003570  7275              jc 0x35e7
00003572  6374696F          arpl [ecx+ebp*2+0x6f],si
00003576  6E                outsb
00003577  5F                pop edi
00003578  306969            xor [ecx+0x69],ch
0000357B  005F47            add [edi+0x47],bl
0000357E  4C                dec esp
0000357F  4F                dec edi
00003580  42                inc edx
00003581  41                inc ecx
00003582  4C                dec esp
00003583  5F                pop edi
00003584  5F                pop edi
00003585  7375              jnc 0x35fc
00003587  625F49            bound ebx,[edi+0x49]
0000358A  5F                pop edi
0000358B  6D                insd
0000358C  61                popa
0000358D  696E00656C662D    imul ebp,[esi+0x0],dword 0x2d666c65
00003594  696E69742E6300    imul ebp,[esi+0x69],dword 0x632e74
0000359B  5F                pop edi
0000359C  47                inc edi
0000359D  4C                dec esp
0000359E  4F                dec edi
0000359F  42                inc edx
000035A0  41                inc ecx
000035A1  4C                dec esp
000035A2  5F                pop edi
000035A3  4F                dec edi
000035A4  46                inc esi
000035A5  46                inc esi
000035A6  53                push ebx
000035A7  45                inc ebp
000035A8  54                push esp
000035A9  5F                pop edi
000035AA  54                push esp
000035AB  41                inc ecx
000035AC  42                inc edx
000035AD  4C                dec esp
000035AE  45                inc ebp
000035AF  5F                pop edi
000035B0  005F5F            add [edi+0x5f],bl
000035B3  696E69745F6172    imul ebp,[esi+0x69],dword 0x72615f74
000035BA  7261              jc 0x361d
000035BC  795F              jns 0x361d
000035BE  656E              gs outsb
000035C0  64005F5F          add [fs:edi+0x5f],bl
000035C4  696E69745F6172    imul ebp,[esi+0x69],dword 0x72615f74
000035CB  7261              jc 0x362e
000035CD  795F              jns 0x362e
000035CF  7374              jnc 0x3645
000035D1  61                popa
000035D2  7274              jc 0x3648
000035D4  005F44            add [edi+0x44],bl
000035D7  59                pop ecx
000035D8  4E                dec esi
000035D9  41                inc ecx
000035DA  4D                dec ebp
000035DB  49                dec ecx
000035DC  43                inc ebx
000035DD  00646174          add [ecx+0x74],ah
000035E1  61                popa
000035E2  5F                pop edi
000035E3  7374              jnc 0x3659
000035E5  61                popa
000035E6  7274              jc 0x365c
000035E8  005F5A            add [edi+0x5a],bl
000035EB  53                push ebx
000035EC  7433              jz 0x3621
000035EE  63696E            arpl [ecx+0x6e],bp
000035F1  40                inc eax
000035F2  40                inc eax
000035F3  47                inc edi
000035F4  4C                dec esp
000035F5  49                dec ecx
000035F6  42                inc edx
000035F7  43                inc ebx
000035F8  58                pop eax
000035F9  58                pop eax
000035FA  5F                pop edi
000035FB  332E              xor ebp,[esi]
000035FD  3400              xor al,0x0
000035FF  5F                pop edi
00003600  5A                pop edx
00003601  53                push ebx
00003602  7432              jz 0x3636
00003604  355F5F756E        xor eax,0x6e755f5f
00003609  677561            a16 jnz 0x366d
0000360C  7264              jc 0x3672
0000360E  65645F            fs pop edi
00003611  6C                insb
00003612  696E6561725F69    imul ebp,[esi+0x65],dword 0x695f7261
00003619  6E                outsb
0000361A  7365              jnc 0x3681
0000361C  7274              jc 0x3692
0000361E  49                dec ecx
0000361F  50                push eax
00003620  6545              gs inc ebp
00003622  7654              jna 0x3678
00003624  5F                pop edi
00003625  005F5A            add [edi+0x5a],bl
00003628  4E                dec esi
00003629  53                push ebx
0000362A  6F                outsd
0000362B  6C                insb
0000362C  7345              jnc 0x3673
0000362E  694040474C4942    imul eax,[eax+0x40],dword 0x42494c47
00003635  43                inc ebx
00003636  58                pop eax
00003637  58                pop eax
00003638  5F                pop edi
00003639  332E              xor ebp,[esi]
0000363B  3400              xor al,0x0
0000363D  5F                pop edi
0000363E  5F                pop edi
0000363F  637861            arpl [eax+0x61],di
00003642  5F                pop edi
00003643  61                popa
00003644  7465              jz 0x36ab
00003646  7869              js 0x36b1
00003648  7440              jz 0x368a
0000364A  40                inc eax
0000364B  47                inc edi
0000364C  4C                dec esp
0000364D  49                dec ecx
0000364E  42                inc edx
0000364F  43                inc ebx
00003650  5F                pop edi
00003651  322E              xor ch,[esi]
00003653  312E              xor [esi],ebp
00003655  3300              xor eax,[eax]
00003657  5F                pop edi
00003658  5F                pop edi
00003659  6C                insb
0000365A  6962635F637375    imul esp,[edx+0x63],dword 0x7573635f
00003661  5F                pop edi
00003662  66696E69005F      imul bp,[esi+0x69],word 0x5f00
00003668  7374              jnc 0x36de
0000366A  61                popa
0000366B  7274              jc 0x36e1
0000366D  005F5A            add [edi+0x5a],bl
00003670  53                push ebx
00003671  7434              jz 0x36a7
00003673  5F                pop edi
00003674  5F                pop edi
00003675  6C                insb
00003676  6769005F5A5374    imul eax,[bx+si],dword 0x74535a5f
0000367D  3233              xor dh,[ebx]
0000367F  5F                pop edi
00003680  5F                pop edi
00003681  636F70            arpl [edi+0x70],bp
00003684  795F              jns 0x36e5
00003686  6D                insd
00003687  6F                outsd
00003688  7665              jna 0x36ef
0000368A  5F                pop edi
0000368B  626163            bound esp,[ecx+0x63]
0000368E  6B776172          imul esi,[edi+0x61],byte +0x72
00003692  645F              fs pop edi
00003694  61                popa
00003695  32494C            xor cl,[ecx+0x4c]
00003698  6230              bound esi,[eax]
0000369A  45                inc ebp
0000369B  50                push eax
0000369C  6553              gs push ebx
0000369E  305F45            xor [edi+0x45],bl
000036A1  54                push esp
000036A2  315F54            xor [edi+0x54],ebx
000036A5  305F53            xor [edi+0x53],bl
000036A8  325F53            xor bl,[edi+0x53]
000036AB  315F00            xor [edi+0x0],ebx
000036AE  5F                pop edi
000036AF  5F                pop edi
000036B0  676D              a16 insd
000036B2  6F                outsd
000036B3  6E                outsb
000036B4  5F                pop edi
000036B5  7374              jnc 0x372b
000036B7  61                popa
000036B8  7274              jc 0x372e
000036BA  5F                pop edi
000036BB  5F                pop edi
000036BC  005F4A            add [edi+0x4a],bl
000036BF  765F              jna 0x3720
000036C1  52                push edx
000036C2  6567697374657243  imul esi,[gs:bp+di+0x74],dword 0x6c437265
         -6C
000036CB  61                popa
000036CC  7373              jnc 0x3741
000036CE  657300            gs jnc 0x36d1
000036D1  5F                pop edi
000036D2  5A                pop edx
000036D3  4E                dec esi
000036D4  53                push ebx
000036D5  7432              jz 0x3709
000036D7  305F5F            xor [edi+0x5f],bl
000036DA  636F70            arpl [edi+0x70],bp
000036DD  795F              jns 0x373e
000036DF  6D                insd
000036E0  6F                outsd
000036E1  7665              jna 0x3748
000036E3  5F                pop edi
000036E4  626163            bound esp,[ecx+0x63]
000036E7  6B776172          imul esi,[edi+0x61],byte +0x72
000036EB  6449              fs dec ecx
000036ED  4C                dec esp
000036EE  6230              bound esi,[eax]
000036F0  45                inc ebp
000036F1  4C                dec esp
000036F2  6231              bound esi,[ecx]
000036F4  45                inc ebp
000036F5  53                push ebx
000036F6  7432              jz 0x372a
000036F8  367261            ss jc 0x375c
000036FB  6E                outsb
000036FC  646F              fs outsd
000036FE  6D                insd
000036FF  5F                pop edi
00003700  61                popa
00003701  636365            arpl [ebx+0x65],sp
00003704  7373              jnc 0x3779
00003706  5F                pop edi
00003707  6974657261746F72  imul esi,[ebp+0x72],dword 0x726f7461
0000370F  5F                pop edi
00003710  7461              jz 0x3773
00003712  6745              a16 inc ebp
00003714  3133              xor [ebx],esi
00003716  5F                pop edi
00003717  5F                pop edi
00003718  636F70            arpl [edi+0x70],bp
0000371B  795F              jns 0x377c
0000371D  6D                insd
0000371E  6F                outsd
0000371F  7665              jna 0x3786
00003721  5F                pop edi
00003722  624965            bound ecx,[ecx+0x65]
00003725  45                inc ebp
00003726  45                inc ebp
00003727  50                push eax
00003728  54                push esp
00003729  5F                pop edi
0000372A  50                push eax
0000372B  4B                dec ebx
0000372C  53                push ebx
0000372D  335F53            xor ebx,[edi+0x53]
00003730  365F              ss pop edi
00003732  53                push ebx
00003733  345F              xor al,0x5f
00003735  005F66            add [edi+0x66],bl
00003738  705F              jo 0x3799
0000373A  6877005F5A        push dword 0x5a5f0077
0000373F  53                push ebx
00003740  7431              jz 0x3773
00003742  33636F            xor esp,[ebx+0x6f]
00003745  7079              jo 0x37c0
00003747  5F                pop edi
00003748  626163            bound esp,[ecx+0x63]
0000374B  6B776172          imul esi,[edi+0x61],byte +0x72
0000374F  6449              fs dec ecx
00003751  50                push eax
00003752  6553              gs push ebx
00003754  305F45            xor [edi+0x45],bl
00003757  54                push esp
00003758  305F54            xor [edi+0x54],bl
0000375B  5F                pop edi
0000375C  53                push ebx
0000375D  325F53            xor bl,[edi+0x53]
00003760  315F00            xor [edi+0x0],ebx
00003763  5F                pop edi
00003764  5A                pop edx
00003765  53                push ebx
00003766  7434              jz 0x379c
00003768  7377              jnc 0x37e1
0000376A  61                popa
0000376B  7049              jo 0x37b6
0000376D  6545              gs inc ebp
0000376F  7652              jna 0x37c3
00003771  54                push esp
00003772  5F                pop edi
00003773  53                push ebx
00003774  315F00            xor [edi+0x0],ebx
00003777  5F                pop edi
00003778  66696E69005F      imul bp,[esi+0x69],word 0x5f00
0000377E  5A                pop edx
0000377F  4E                dec esi
00003780  53                push ebx
00003781  7431              jz 0x37b4
00003783  305F49            xor [edi+0x49],bl
00003786  7465              jz 0x37ed
00003788  725F              jc 0x37e9
0000378A  626173            bound esp,[ecx+0x73]
0000378D  6549              gs dec ecx
0000378F  50                push eax
00003790  654C              gs dec esp
00003792  6230              bound esi,[eax]
00003794  45                inc ebp
00003795  45                inc ebp
00003796  37                aaa
00003797  5F                pop edi
00003798  53                push ebx
00003799  5F                pop edi
0000379A  626173            bound esp,[ecx+0x73]
0000379D  6545              gs inc ebp
0000379F  53                push ebx
000037A0  305F00            xor [edi+0x0],bl
000037A3  5F                pop edi
000037A4  5A                pop edx
000037A5  4E                dec esi
000037A6  53                push ebx
000037A7  7438              jz 0x37e1
000037A9  696F735F626173    imul ebp,[edi+0x73],dword 0x7361625f
000037B0  653449            gs xor al,0x49
000037B3  6E                outsb
000037B4  6974433145764040  imul esi,[ebx+eax*2+0x31],dword 0x40407645
000037BC  47                inc edi
000037BD  4C                dec esp
000037BE  49                dec ecx
000037BF  42                inc edx
000037C0  43                inc ebx
000037C1  58                pop eax
000037C2  58                pop eax
000037C3  5F                pop edi
000037C4  332E              xor ebp,[esi]
000037C6  3400              xor al,0x0
000037C8  5F                pop edi
000037C9  5A                pop edx
000037CA  53                push ebx
000037CB  7431              jz 0x37fe
000037CD  335F5F            xor ebx,[edi+0x5f]
000037D0  61                popa
000037D1  646A75            fs push byte +0x75
000037D4  7374              jnc 0x384a
000037D6  5F                pop edi
000037D7  6865617049        push dword 0x49706165
000037DC  50                push eax
000037DD  6569654576545F54  imul esp,[gs:ebp+0x45],dword 0x545f5476
000037E5  305F53            xor [edi+0x53],bl
000037E8  325F54            xor bl,[edi+0x54]
000037EB  315F00            xor [edi+0x0],ebx
000037EE  5F                pop edi
000037EF  5A                pop edx
000037F0  53                push ebx
000037F1  7431              jz 0x3824
000037F3  335F5F            xor ebx,[edi+0x5f]
000037F6  686561705F        push dword 0x5f706165
000037FB  7365              jnc 0x3862
000037FD  6C                insb
000037FE  6563744950        arpl [gs:ecx+ecx*2+0x50],si
00003803  6545              gs inc ebp
00003805  7654              jna 0x385b
00003807  5F                pop edi
00003808  53                push ebx
00003809  315F53            xor [edi+0x53],ebx
0000380C  315F00            xor [edi+0x0],ebx
0000380F  5F                pop edi
00003810  5F                pop edi
00003811  6C                insb
00003812  6962635F737461    imul esp,[edx+0x63],dword 0x6174735f
00003819  7274              jc 0x388f
0000381B  5F                pop edi
0000381C  6D                insd
0000381D  61                popa
0000381E  696E4040474C49    imul ebp,[esi+0x40],dword 0x494c4740
00003825  42                inc edx
00003826  43                inc ebx
00003827  5F                pop edi
00003828  322E              xor ch,[esi]
0000382A  3000              xor [eax],al
0000382C  5F                pop edi
0000382D  5A                pop edx
0000382E  53                push ebx
0000382F  7439              jz 0x386a
00003831  697465725F737761  imul esi,[ebp+0x72],dword 0x6177735f
00003839  7049              jo 0x3884
0000383B  50                push eax
0000383C  6553              gs push ebx
0000383E  305F45            xor [edi+0x45],bl
00003841  7654              jna 0x3897
00003843  5F                pop edi
00003844  54                push esp
00003845  305F00            xor [edi+0x0],bl
00003848  5F                pop edi
00003849  5A                pop edx
0000384A  4E                dec esi
0000384B  53                push ebx
0000384C  7438              jz 0x3886
0000384E  696F735F626173    imul ebp,[edi+0x73],dword 0x7361625f
00003855  653449            gs xor al,0x49
00003858  6E                outsb
00003859  6974443145764040  imul esi,[esp+eax*2+0x31],dword 0x40407645
00003861  47                inc edi
00003862  4C                dec esp
00003863  49                dec ecx
00003864  42                inc edx
00003865  43                inc ebx
00003866  58                pop eax
00003867  58                pop eax
00003868  5F                pop edi
00003869  332E              xor ebp,[esi]
0000386B  3400              xor al,0x0
0000386D  5F                pop edi
0000386E  49                dec ecx
0000386F  54                push esp
00003870  4D                dec ebp
00003871  5F                pop edi
00003872  64657265          gs jc 0x38db
00003876  676973746572544D  imul esi,[bp+di+0x74],dword 0x4d547265
0000387E  43                inc ebx
0000387F  6C                insb
00003880  6F                outsd
00003881  6E                outsb
00003882  6554              gs push esp
00003884  61                popa
00003885  626C6500          bound ebp,[ebp+0x0]
00003889  5F                pop edi
0000388A  5A                pop edx
0000388B  53                push ebx
0000388C  746C              jz 0x38fa
0000388E  7349              jnc 0x38d9
00003890  53                push ebx
00003891  7431              jz 0x38c4
00003893  316368            xor [ebx+0x68],esp
00003896  61                popa
00003897  725F              jc 0x38f8
00003899  7472              jz 0x390d
0000389B  61                popa
0000389C  6974734963454552  imul esi,[ebx+esi*2+0x49],dword 0x52454563
000038A4  53                push ebx
000038A5  7431              jz 0x38d8
000038A7  336261            xor esp,[edx+0x61]
000038AA  7369              jnc 0x3915
000038AC  635F6F            arpl [edi+0x6f],bx
000038AF  7374              jnc 0x3925
000038B1  7265              jc 0x3918
000038B3  61                popa
000038B4  6D                insd
000038B5  49                dec ecx
000038B6  63545F45          arpl [edi+ebx*2+0x45],dx
000038BA  53                push ebx
000038BB  355F504B63        xor eax,0x634b505f
000038C0  40                inc eax
000038C1  40                inc eax
000038C2  47                inc edi
000038C3  4C                dec esp
000038C4  49                dec ecx
000038C5  42                inc edx
000038C6  43                inc ebx
000038C7  58                pop eax
000038C8  58                pop eax
000038C9  5F                pop edi
000038CA  332E              xor ebp,[esi]
000038CC  3400              xor al,0x0
000038CE  5F                pop edi
000038CF  5A                pop edx
000038D0  53                push ebx
000038D1  7432              jz 0x3905
000038D3  325F5F            xor bl,[edi+0x5f]
000038D6  66696E616C5F      imul bp,[esi+0x61],word 0x5f6c
000038DC  696E7365727469    imul ebp,[esi+0x73],dword 0x69747265
000038E3  6F                outsd
000038E4  6E                outsb
000038E5  5F                pop edi
000038E6  736F              jnc 0x3957
000038E8  7274              jc 0x395e
000038EA  49                dec ecx
000038EB  50                push eax
000038EC  6545              gs inc ebp
000038EE  7654              jna 0x3944
000038F0  5F                pop edi
000038F1  53                push ebx
000038F2  315F00            xor [edi+0x0],ebx
000038F5  5F                pop edi
000038F6  49                dec ecx
000038F7  4F                dec edi
000038F8  5F                pop edi
000038F9  7374              jnc 0x396f
000038FB  64696E5F75736564  imul ebp,[fs:esi+0x5f],dword 0x64657375
00003903  005F5A            add [edi+0x5a],bl
00003906  53                push ebx
00003907  7439              jz 0x3942
00003909  6D                insd
0000390A  61                popa
0000390B  6B655F68          imul esp,[ebp+0x5f],byte +0x68
0000390F  6561              gs popa
00003911  7049              jo 0x395c
00003913  50                push eax
00003914  6545              gs inc ebp
00003916  7654              jna 0x396c
00003918  5F                pop edi
00003919  53                push ebx
0000391A  315F00            xor [edi+0x0],ebx
0000391D  5F                pop edi
0000391E  49                dec ecx
0000391F  54                push esp
00003920  4D                dec ebp
00003921  5F                pop edi
00003922  7265              jc 0x3989
00003924  676973746572544D  imul esi,[bp+di+0x74],dword 0x4d547265
0000392C  43                inc ebx
0000392D  6C                insb
0000392E  6F                outsd
0000392F  6E                outsb
00003930  6554              gs push esp
00003932  61                popa
00003933  626C6500          bound ebp,[ebp+0x0]
00003937  5F                pop edi
00003938  5F                pop edi
00003939  6461              fs popa
0000393B  7461              jz 0x399e
0000393D  5F                pop edi
0000393E  7374              jnc 0x39b4
00003940  61                popa
00003941  7274              jc 0x39b7
00003943  005F5F            add [edi+0x5f],bl
00003946  54                push esp
00003947  4D                dec ebp
00003948  43                inc ebx
00003949  5F                pop edi
0000394A  45                inc ebp
0000394B  4E                dec esi
0000394C  44                inc esp
0000394D  5F                pop edi
0000394E  5F                pop edi
0000394F  005F5A            add [edi+0x5a],bl
00003952  53                push ebx
00003953  7434              jz 0x3989
00003955  636F75            arpl [edi+0x75],bp
00003958  7440              jz 0x399a
0000395A  40                inc eax
0000395B  47                inc edi
0000395C  4C                dec esp
0000395D  49                dec ecx
0000395E  42                inc edx
0000395F  43                inc ebx
00003960  58                pop eax
00003961  58                pop eax
00003962  5F                pop edi
00003963  332E              xor ebp,[esi]
00003965  3400              xor al,0x0
00003967  5F                pop edi
00003968  5A                pop edx
00003969  53                push ebx
0000396A  7432              jz 0x399e
0000396C  37                aaa
0000396D  5F                pop edi
0000396E  5F                pop edi
0000396F  756E              jnz 0x39df
00003971  677561            a16 jnz 0x39d5
00003974  7264              jc 0x39da
00003976  65645F            fs pop edi
00003979  7061              jo 0x39dc
0000397B  7274              jc 0x39f1
0000397D  6974696F6E5F7069  imul esi,[ecx+ebp*2+0x6f],dword 0x69705f6e
00003985  766F              jna 0x39f6
00003987  7449              jz 0x39d2
00003989  50                push eax
0000398A  6545              gs inc ebp
0000398C  54                push esp
0000398D  5F                pop edi
0000398E  53                push ebx
0000398F  315F53            xor [edi+0x53],ebx
00003992  315F00            xor [edi+0x0],ebx
00003995  5F                pop edi
00003996  5F                pop edi
00003997  64736F            fs jnc 0x3a09
0000399A  5F                pop edi
0000399B  68616E646C        push dword 0x6c646e61
000039A0  65005F5A          add [gs:edi+0x5a],bl
000039A4  53                push ebx
000039A5  7432              jz 0x39d9
000039A7  315F5F            xor [edi+0x5f],ebx
000039AA  756E              jnz 0x3a1a
000039AC  677561            a16 jnz 0x3a10
000039AF  7264              jc 0x3a15
000039B1  65645F            fs pop edi
000039B4  7061              jo 0x3a17
000039B6  7274              jc 0x3a2c
000039B8  6974696F6E495065  imul esi,[ecx+ebp*2+0x6f],dword 0x6550496e
000039C0  6545              gs inc ebp
000039C2  54                push esp
000039C3  5F                pop edi
000039C4  53                push ebx
000039C5  315F53            xor [edi+0x53],ebx
000039C8  315F52            xor [edi+0x52],ebx
000039CB  4B                dec ebx
000039CC  54                push esp
000039CD  305F00            xor [edi+0x0],bl
000039D0  5F                pop edi
000039D1  5F                pop edi
000039D2  44                inc esp
000039D3  54                push esp
000039D4  4F                dec edi
000039D5  52                push edx
000039D6  5F                pop edi
000039D7  45                inc ebp
000039D8  4E                dec esi
000039D9  44                inc esp
000039DA  5F                pop edi
000039DB  5F                pop edi
000039DC  005F5F            add [edi+0x5f],bl
000039DF  6C                insb
000039E0  6962635F637375    imul esp,[edx+0x63],dword 0x7573635f
000039E7  5F                pop edi
000039E8  696E6974005F5A    imul ebp,[esi+0x69],dword 0x5a5f0074
000039EF  53                push ebx
000039F0  7434              jz 0x3a26
000039F2  736F              jnc 0x3a63
000039F4  7274              jc 0x3a6a
000039F6  49                dec ecx
000039F7  50                push eax
000039F8  6545              gs inc ebp
000039FA  7654              jna 0x3a50
000039FC  5F                pop edi
000039FD  53                push ebx
000039FE  315F00            xor [edi+0x0],ebx
00003A01  5F                pop edi
00003A02  5A                pop edx
00003A03  53                push ebx
00003A04  7431              jz 0x3a37
00003A06  365F              ss pop edi
00003A08  5F                pop edi
00003A09  696E74726F736F    imul ebp,[esi+0x74],dword 0x6f736f72
00003A10  7274              jc 0x3a86
00003A12  5F                pop edi
00003A13  6C                insb
00003A14  6F                outsd
00003A15  6F                outsd
00003A16  7049              jo 0x3a61
00003A18  50                push eax
00003A19  65694576545F5331  imul eax,[gs:ebp+0x76],dword 0x31535f54
00003A21  5F                pop edi
00003A22  54                push esp
00003A23  305F00            xor [edi+0x0],bl
00003A26  5F                pop edi
00003A27  5A                pop edx
00003A28  53                push ebx
00003A29  7431              jz 0x3a5c
00003A2B  325F5F            xor bl,[edi+0x5f]
00003A2E  6D                insd
00003A2F  697465725F626173  imul esi,[ebp+0x72],dword 0x7361625f
00003A37  6549              gs dec ecx
00003A39  50                push eax
00003A3A  6545              gs inc ebp
00003A3C  4E                dec esi
00003A3D  53                push ebx
00003A3E  7431              jz 0x3a71
00003A40  315F4D            xor [edi+0x4d],ebx
00003A43  697465725F626173  imul esi,[ebp+0x72],dword 0x7361625f
00003A4B  6549              gs dec ecx
00003A4D  54                push esp
00003A4E  5F                pop edi
00003A4F  45                inc ebp
00003A50  3133              xor [ebx],esi
00003A52  6974657261746F72  imul esi,[ebp+0x72],dword 0x726f7461
00003A5A  5F                pop edi
00003A5B  7479              jz 0x3ad6
00003A5D  7065              jo 0x3ac4
00003A5F  45                inc ebp
00003A60  53                push ebx
00003A61  325F00            xor bl,[edi+0x0]
00003A64  5F                pop edi
00003A65  5A                pop edx
00003A66  53                push ebx
00003A67  7432              jz 0x3a9b
00003A69  325F5F            xor bl,[edi+0x5f]
00003A6C  636F70            arpl [edi+0x70],bp
00003A6F  795F              jns 0x3ad0
00003A71  6D                insd
00003A72  6F                outsd
00003A73  7665              jna 0x3ada
00003A75  5F                pop edi
00003A76  626163            bound esp,[ecx+0x63]
00003A79  6B776172          imul esi,[edi+0x61],byte +0x72
00003A7D  645F              fs pop edi
00003A7F  61                popa
00003A80  49                dec ecx
00003A81  4C                dec esp
00003A82  6230              bound esi,[eax]
00003A84  45                inc ebp
00003A85  50                push eax
00003A86  6553              gs push ebx
00003A88  305F45            xor [edi+0x45],bl
00003A8B  54                push esp
00003A8C  315F54            xor [edi+0x54],ebx
00003A8F  305F53            xor [edi+0x53],bl
00003A92  325F53            xor bl,[edi+0x53]
00003A95  315F00            xor [edi+0x0],ebx
00003A98  5F                pop edi
00003A99  5A                pop edx
00003A9A  4E                dec esi
00003A9B  53                push ebx
00003A9C  69727345526540    imul esi,[edx+0x73],dword 0x40655245
00003AA3  40                inc eax
00003AA4  47                inc edi
00003AA5  4C                dec esp
00003AA6  49                dec ecx
00003AA7  42                inc edx
00003AA8  43                inc ebx
00003AA9  58                pop eax
00003AAA  58                pop eax
00003AAB  5F                pop edi
00003AAC  332E              xor ebp,[esi]
00003AAE  3400              xor al,0x0
00003AB0  5F                pop edi
00003AB1  5A                pop edx
00003AB2  6E                outsb
00003AB3  61                popa
00003AB4  6A40              push byte +0x40
00003AB6  40                inc eax
00003AB7  47                inc edi
00003AB8  4C                dec esp
00003AB9  49                dec ecx
00003ABA  42                inc edx
00003ABB  43                inc ebx
00003ABC  58                pop eax
00003ABD  58                pop eax
00003ABE  5F                pop edi
00003ABF  332E              xor ebp,[esi]
00003AC1  3400              xor al,0x0
00003AC3  5F                pop edi
00003AC4  5F                pop edi
00003AC5  627373            bound esi,[ebx+0x73]
00003AC8  5F                pop edi
00003AC9  7374              jnc 0x3b3f
00003ACB  61                popa
00003ACC  7274              jc 0x3b42
00003ACE  005F5A            add [edi+0x5a],bl
00003AD1  4E                dec esi
00003AD2  53                push ebx
00003AD3  7431              jz 0x3b06
00003AD5  315F5F            xor [edi+0x5f],ebx
00003AD8  697465725F737761  imul esi,[ebp+0x72],dword 0x6177735f
00003AE0  7049              jo 0x3b2b
00003AE2  4C                dec esp
00003AE3  6231              bound esi,[ecx]
00003AE5  45                inc ebp
00003AE6  45                inc ebp
00003AE7  396974            cmp [ecx+0x74],ebp
00003AEA  65725F            gs jc 0x3b4c
00003AED  7377              jnc 0x3b66
00003AEF  61                popa
00003AF0  7049              jo 0x3b3b
00003AF2  50                push eax
00003AF3  6553              gs push ebx
00003AF5  325F45            xor bl,[edi+0x45]
00003AF8  45                inc ebp
00003AF9  7654              jna 0x3b4f
00003AFB  5F                pop edi
00003AFC  54                push esp
00003AFD  305F00            xor [edi+0x0],bl
00003B00  5F                pop edi
00003B01  5A                pop edx
00003B02  53                push ebx
00003B03  7432              jz 0x3b37
00003B05  365F              ss pop edi
00003B07  5F                pop edi
00003B08  756E              jnz 0x3b78
00003B0A  677561            a16 jnz 0x3b6e
00003B0D  7264              jc 0x3b73
00003B0F  65645F            fs pop edi
00003B12  696E7365727469    imul ebp,[esi+0x73],dword 0x69747265
00003B19  6F                outsd
00003B1A  6E                outsb
00003B1B  5F                pop edi
00003B1C  736F              jnc 0x3b8d
00003B1E  7274              jc 0x3b94
00003B20  49                dec ecx
00003B21  50                push eax
00003B22  6545              gs inc ebp
00003B24  7654              jna 0x3b7a
00003B26  5F                pop edi
00003B27  53                push ebx
00003B28  315F00            xor [edi+0x0],ebx
00003B2B  5F                pop edi
00003B2C  5A                pop edx
00003B2D  4E                dec esi
00003B2E  53                push ebx
00003B2F  69727345526940    imul esi,[edx+0x73],dword 0x40695245
00003B36  40                inc eax
00003B37  47                inc edi
00003B38  4C                dec esp
00003B39  49                dec ecx
00003B3A  42                inc edx
00003B3B  43                inc ebx
00003B3C  58                pop eax
00003B3D  58                pop eax
00003B3E  5F                pop edi
00003B3F  332E              xor ebp,[esi]
00003B41  3400              xor al,0x0
00003B43  5F                pop edi
00003B44  5A                pop edx
00003B45  53                push ebx
00003B46  7439              jz 0x3b81
00003B48  736F              jnc 0x3bb9
00003B4A  7274              jc 0x3bc0
00003B4C  5F                pop edi
00003B4D  6865617049        push dword 0x49706165
00003B52  50                push eax
00003B53  6545              gs inc ebp
00003B55  7654              jna 0x3bab
00003B57  5F                pop edi
00003B58  53                push ebx
00003B59  315F00            xor [edi+0x0],ebx
00003B5C  6D                insd
00003B5D  656D              gs insd
00003B5F  6D                insd
00003B60  6F                outsd
00003B61  7665              jna 0x3bc8
00003B63  40                inc eax
00003B64  40                inc eax
00003B65  47                inc edi
00003B66  4C                dec esp
00003B67  49                dec ecx
00003B68  42                inc edx
00003B69  43                inc ebx
00003B6A  5F                pop edi
00003B6B  322E              xor ch,[esi]
00003B6D  3000              xor [eax],al
00003B6F  5F                pop edi
00003B70  656E              gs outsb
00003B72  64005F5A          add [fs:edi+0x5a],bl
00003B76  4E                dec esi
00003B77  53                push ebx
00003B78  6F                outsd
00003B79  6C                insb
00003B7A  7345              jnc 0x3bc1
00003B7C  50                push eax
00003B7D  46                inc esi
00003B7E  52                push edx
00003B7F  53                push ebx
00003B80  6F                outsd
00003B81  53                push ebx
00003B82  5F                pop edi
00003B83  45                inc ebp
00003B84  40                inc eax
00003B85  40                inc eax
00003B86  47                inc edi
00003B87  4C                dec esp
00003B88  49                dec ecx
00003B89  42                inc edx
00003B8A  43                inc ebx
00003B8B  58                pop eax
00003B8C  58                pop eax
00003B8D  5F                pop edi
00003B8E  332E              xor ebp,[esi]
00003B90  3400              xor al,0x0
00003B92  5F                pop edi
00003B93  5A                pop edx
00003B94  53                push ebx
00003B95  7431              jz 0x3bc8
00003B97  365F              ss pop edi
00003B99  5F                pop edi
00003B9A  696E7365727469    imul ebp,[esi+0x73],dword 0x69747265
00003BA1  6F                outsd
00003BA2  6E                outsb
00003BA3  5F                pop edi
00003BA4  736F              jnc 0x3c15
00003BA6  7274              jc 0x3c1c
00003BA8  49                dec ecx
00003BA9  50                push eax
00003BAA  6545              gs inc ebp
00003BAC  7654              jna 0x3c02
00003BAE  5F                pop edi
00003BAF  53                push ebx
00003BB0  315F00            xor [edi+0x0],ebx
00003BB3  5F                pop edi
00003BB4  5A                pop edx
00003BB5  53                push ebx
00003BB6  7431              jz 0x3be9
00003BB8  305F5F            xor [edi+0x5f],bl
00003BBB  706F              jo 0x3c2c
00003BBD  705F              jo 0x3c1e
00003BBF  6865617049        push dword 0x49706165
00003BC4  50                push eax
00003BC5  6545              gs inc ebp
00003BC7  7654              jna 0x3c1d
00003BC9  5F                pop edi
00003BCA  53                push ebx
00003BCB  315F53            xor [edi+0x53],ebx
00003BCE  315F00            xor [edi+0x0],ebx
00003BD1  5F                pop edi
00003BD2  5A                pop edx
00003BD3  53                push ebx
00003BD4  7434              jz 0x3c0a
00003BD6  656E              gs outsb
00003BD8  646C              fs insb
00003BDA  49                dec ecx
00003BDB  635374            arpl [ebx+0x74],dx
00003BDE  3131              xor [ecx],esi
00003BE0  636861            arpl [eax+0x61],bp
00003BE3  725F              jc 0x3c44
00003BE5  7472              jz 0x3c59
00003BE7  61                popa
00003BE8  6974734963454552  imul esi,[ebx+esi*2+0x49],dword 0x52454563
00003BF0  53                push ebx
00003BF1  7431              jz 0x3c24
00003BF3  336261            xor esp,[edx+0x61]
00003BF6  7369              jnc 0x3c61
00003BF8  635F6F            arpl [edi+0x6f],bx
00003BFB  7374              jnc 0x3c71
00003BFD  7265              jc 0x3c64
00003BFF  61                popa
00003C00  6D                insd
00003C01  49                dec ecx
00003C02  54                push esp
00003C03  5F                pop edi
00003C04  54                push esp
00003C05  305F45            xor [edi+0x45],bl
00003C08  53                push ebx
00003C09  365F              ss pop edi
00003C0B  40                inc eax
00003C0C  40                inc eax
00003C0D  47                inc edi
00003C0E  4C                dec esp
00003C0F  49                dec ecx
00003C10  42                inc edx
00003C11  43                inc ebx
00003C12  58                pop eax
00003C13  58                pop eax
00003C14  5F                pop edi
00003C15  332E              xor ebp,[esi]
00003C17  3400              xor al,0x0
00003C19  5F                pop edi
00003C1A  5A                pop edx
00003C1B  53                push ebx
00003C1C  7431              jz 0x3c4f
00003C1E  395F5F            cmp [edi+0x5f],ebx
00003C21  6D                insd
00003C22  6F                outsd
00003C23  7665              jna 0x3c8a
00003C25  5F                pop edi
00003C26  6D                insd
00003C27  656469616E5F6669  imul esp,[fs:ecx+0x6e],dword 0x7269665f
         -72
00003C30  7374              jnc 0x3ca6
00003C32  49                dec ecx
00003C33  50                push eax
00003C34  6545              gs inc ebp
00003C36  7654              jna 0x3c8c
00003C38  5F                pop edi
00003C39  53                push ebx
00003C3A  315F53            xor [edi+0x53],ebx
00003C3D  315F00            xor [edi+0x0],ebx
00003C40  5F                pop edi
00003C41  5A                pop edx
00003C42  53                push ebx
00003C43  7431              jz 0x3c76
00003C45  315F5F            xor [edi+0x5f],ebx
00003C48  7075              jo 0x3cbf
00003C4A  7368              jnc 0x3cb4
00003C4C  5F                pop edi
00003C4D  6865617049        push dword 0x49706165
00003C52  50                push eax
00003C53  6569654576545F54  imul esp,[gs:ebp+0x45],dword 0x545f5476
00003C5B  305F53            xor [edi+0x53],bl
00003C5E  325F54            xor bl,[edi+0x54]
00003C61  315F00            xor [edi+0x0],ebx
00003C64  5F                pop edi
00003C65  656461            fs popa
00003C68  7461              jz 0x3ccb
00003C6A  005F5A            add [edi+0x5a],bl
00003C6D  53                push ebx
00003C6E  7431              jz 0x3ca1
00003C70  327061            xor dh,[eax+0x61]
00003C73  7274              jc 0x3ce9
00003C75  69616C5F736F72    imul esp,[ecx+0x6c],dword 0x726f735f
00003C7C  7449              jz 0x3cc7
00003C7E  50                push eax
00003C7F  6545              gs inc ebp
00003C81  7654              jna 0x3cd7
00003C83  5F                pop edi
00003C84  53                push ebx
00003C85  315F53            xor [edi+0x53],ebx
00003C88  315F00            xor [edi+0x0],ebx
00003C8B  5F                pop edi
00003C8C  5F                pop edi
00003C8D  677878            a16 js 0x3d08
00003C90  5F                pop edi
00003C91  7065              jo 0x3cf8
00003C93  7273              jc 0x3d08
00003C95  6F                outsd
00003C96  6E                outsb
00003C97  61                popa
00003C98  6C                insb
00003C99  6974795F76304040  imul esi,[ecx+edi*2+0x5f],dword 0x40403076
00003CA1  43                inc ebx
00003CA2  58                pop eax
00003CA3  58                pop eax
00003CA4  41                inc ecx
00003CA5  42                inc edx
00003CA6  49                dec ecx
00003CA7  5F                pop edi
00003CA8  312E              xor [esi],ebp
00003CAA  3300              xor eax,[eax]
00003CAC  5F                pop edi
00003CAD  55                push ebp
00003CAE  6E                outsb
00003CAF  7769              ja 0x3d1a
00003CB1  6E                outsb
00003CB2  645F              fs pop edi
00003CB4  52                push edx
00003CB5  657375            gs jnc 0x3d2d
00003CB8  6D                insd
00003CB9  6540              gs inc eax
00003CBB  40                inc eax
00003CBC  47                inc edi
00003CBD  43                inc ebx
00003CBE  43                inc ebx
00003CBF  5F                pop edi
00003CC0  332E              xor ebp,[esi]
00003CC2  3000              xor [eax],al
00003CC4  5F                pop edi
00003CC5  5A                pop edx
00003CC6  53                push ebx
00003CC7  7431              jz 0x3cfa
00003CC9  325F5F            xor bl,[edi+0x5f]
00003CCC  6E                outsb
00003CCD  697465725F626173  imul esi,[ebp+0x72],dword 0x7361625f
00003CD5  6549              gs dec ecx
00003CD7  50                push eax
00003CD8  6545              gs inc ebp
00003CDA  4E                dec esi
00003CDB  53                push ebx
00003CDC  7431              jz 0x3d0f
00003CDE  315F4E            xor [edi+0x4e],ebx
00003CE1  697465725F626173  imul esi,[ebp+0x72],dword 0x7361625f
00003CE9  6549              gs dec ecx
00003CEB  54                push esp
00003CEC  5F                pop edi
00003CED  45                inc ebp
00003CEE  3133              xor [ebx],esi
00003CF0  6974657261746F72  imul esi,[ebp+0x72],dword 0x726f7461
00003CF8  5F                pop edi
00003CF9  7479              jz 0x3d74
00003CFB  7065              jo 0x3d62
00003CFD  45                inc ebp
00003CFE  53                push ebx
00003CFF  325F00            xor bl,[edi+0x0]
00003D02  5F                pop edi
00003D03  5F                pop edi
00003D04  693638362E67      imul esi,[esi],dword 0x672e3638
00003D0A  65745F            gs jz 0x3d6c
00003D0D  7063              jo 0x3d72
00003D0F  5F                pop edi
00003D10  7468              jz 0x3d7a
00003D12  756E              jnz 0x3d82
00003D14  6B2E62            imul ebp,[esi],byte +0x62
00003D17  7800              js 0x3d19
00003D19  6D                insd
00003D1A  61                popa
00003D1B  696E005F696E69    imul ebp,[esi+0x0],dword 0x696e695f
00003D22  7400              jz 0x3d24
