00000000  7F45              jg 0x47
00000002  4C                dec esp
00000003  46                inc esi
00000004  0101              add [ecx],eax
00000006  0100              add [eax],eax
00000008  0000              add [eax],al
0000000A  0000              add [eax],al
0000000C  0000              add [eax],al
0000000E  0000              add [eax],al
00000010  0200              add al,[eax]
00000012  0300              add eax,[eax]
00000014  0100              add [eax],eax
00000016  0000              add [eax],al
00000018  40                inc eax
00000019  870408            xchg eax,[eax+ecx]
0000001C  3400              xor al,0x0
0000001E  0000              add [eax],al
00000020  101D00000000      adc [0x0],bl
00000026  0000              add [eax],al
00000028  3400              xor al,0x0
0000002A  2000              and [eax],al
0000002C  0800              or [eax],al
0000002E  2800              sub [eax],al
00000030  260023            add [es:ebx],ah
00000033  0006              add [esi],al
00000035  0000              add [eax],al
00000037  003400            add [eax+eax],dh
0000003A  0000              add [eax],al
0000003C  3480              xor al,0x80
0000003E  0408              add al,0x8
00000040  3480              xor al,0x80
00000042  0408              add al,0x8
00000044  0001              add [ecx],al
00000046  0000              add [eax],al
00000048  0001              add [ecx],al
0000004A  0000              add [eax],al
0000004C  0500000004        add eax,0x4000000
00000051  0000              add [eax],al
00000053  0003              add [ebx],al
00000055  0000              add [eax],al
00000057  003401            add [ecx+eax],dh
0000005A  0000              add [eax],al
0000005C  3481              xor al,0x81
0000005E  0408              add al,0x8
00000060  3481              xor al,0x81
00000062  0408              add al,0x8
00000064  1300              adc eax,[eax]
00000066  0000              add [eax],al
00000068  1300              adc eax,[eax]
0000006A  0000              add [eax],al
0000006C  0400              add al,0x0
0000006E  0000              add [eax],al
00000070  0100              add [eax],eax
00000072  0000              add [eax],al
00000074  0100              add [eax],eax
00000076  0000              add [eax],al
00000078  0000              add [eax],al
0000007A  0000              add [eax],al
0000007C  008004080080      add [eax+0x80000804],al
00000082  0408              add al,0x8
00000084  7C13              jl 0x99
00000086  0000              add [eax],al
00000088  7C13              jl 0x9d
0000008A  0000              add [eax],al
0000008C  0500000000        add eax,0x0
00000091  1000              adc [eax],al
00000093  0001              add [ecx],al
00000095  0000              add [eax],al
00000097  007C1300          add [ebx+edx+0x0],bh
0000009B  007CA304          add [ebx+0x4],bh
0000009F  087CA304          or [ebx+0x4],bh
000000A3  084001            or [eax+0x1],al
000000A6  0000              add [eax],al
000000A8  8838              mov [eax],bh
000000AA  6E                outsb
000000AB  0106              add [esi],eax
000000AD  0000              add [eax],al
000000AF  0000              add [eax],al
000000B1  1000              adc [eax],al
000000B3  0002              add [edx],al
000000B5  0000              add [eax],al
000000B7  009413000094A3    add [ebx+edx+0xa3940000],dl
000000BE  0408              add al,0x8
000000C0  94                xchg eax,esp
000000C1  A30408E000        mov [0xe00804],eax
000000C6  0000              add [eax],al
000000C8  E000              loopne 0xca
000000CA  0000              add [eax],al
000000CC  06                push es
000000CD  0000              add [eax],al
000000CF  000400            add [eax+eax],al
000000D2  0000              add [eax],al
000000D4  0400              add al,0x0
000000D6  0000              add [eax],al
000000D8  48                dec eax
000000D9  0100              add [eax],eax
000000DB  004881            add [eax-0x7f],cl
000000DE  0408              add al,0x8
000000E0  48                dec eax
000000E1  81040820000000    add dword [eax+ecx],0x20
000000E8  2000              and [eax],al
000000EA  0000              add [eax],al
000000EC  0400              add al,0x0
000000EE  0000              add [eax],al
000000F0  0400              add al,0x0
000000F2  0000              add [eax],al
000000F4  50                push eax
000000F5  E574              in eax,0x74
000000F7  645C              fs pop esp
000000F9  1200              adc al,[eax]
000000FB  005C9204          add [edx+edx*4+0x4],bl
000000FF  085C9204          or [edx+edx*4+0x4],bl
00000103  082C00            or [eax+eax],ch
00000106  0000              add [eax],al
00000108  2C00              sub al,0x0
0000010A  0000              add [eax],al
0000010C  0400              add al,0x0
0000010E  0000              add [eax],al
00000110  0400              add al,0x0
00000112  0000              add [eax],al
00000114  51                push ecx
00000115  E574              in eax,0x74
00000117  640000            add [fs:eax],al
0000011A  0000              add [eax],al
0000011C  0000              add [eax],al
0000011E  0000              add [eax],al
00000120  0000              add [eax],al
00000122  0000              add [eax],al
00000124  0000              add [eax],al
00000126  0000              add [eax],al
00000128  0000              add [eax],al
0000012A  0000              add [eax],al
0000012C  06                push es
0000012D  0000              add [eax],al
0000012F  000400            add [eax+eax],al
00000132  0000              add [eax],al
00000134  2F                das
00000135  6C                insb
00000136  69622F6C642D6C    imul esp,[edx+0x2f],dword 0x6c2d646c
0000013D  696E75782E736F    imul ebp,[esi+0x75],dword 0x6f732e78
00000144  2E3200            xor al,[cs:eax]
00000147  000400            add [eax+eax],al
0000014A  0000              add [eax],al
0000014C  1000              adc [eax],al
0000014E  0000              add [eax],al
00000150  0100              add [eax],eax
00000152  0000              add [eax],al
00000154  47                inc edi
00000155  4E                dec esi
00000156  55                push ebp
00000157  0000              add [eax],al
00000159  0000              add [eax],al
0000015B  0002              add [edx],al
0000015D  0000              add [eax],al
0000015F  0000              add [eax],al
00000161  0000              add [eax],al
00000163  0000              add [eax],al
00000165  0000              add [eax],al
00000167  0011              add [ecx],dl
00000169  0000              add [eax],al
0000016B  0013              add [ebx],dl
0000016D  0000              add [eax],al
0000016F  000D00000000      add [0x0],cl
00000175  0000              add [eax],al
00000177  000A              add [edx],cl
00000179  0000              add [eax],al
0000017B  000C00            add [eax+eax],cl
0000017E  0000              add [eax],al
00000180  1100              adc [eax],eax
00000182  0000              add [eax],al
00000184  0000              add [eax],al
00000186  0000              add [eax],al
00000188  1200              adc al,[eax]
0000018A  0000              add [eax],al
0000018C  07                pop es
0000018D  0000              add [eax],al
0000018F  000E              add [esi],cl
00000191  0000              add [eax],al
00000193  0000              add [eax],al
00000195  0000              add [eax],al
00000197  0000              add [eax],al
00000199  0000              add [eax],al
0000019B  0000              add [eax],al
0000019D  0000              add [eax],al
0000019F  0009              add [ecx],cl
000001A1  0000              add [eax],al
000001A3  000B              add [ebx],cl
000001A5  0000              add [eax],al
000001A7  0003              add [ebx],al
000001A9  0000              add [eax],al
000001AB  000400            add [eax+eax],al
000001AE  0000              add [eax],al
000001B0  1000              adc [eax],al
000001B2  0000              add [eax],al
000001B4  0000              add [eax],al
000001B6  0000              add [eax],al
000001B8  0000              add [eax],al
000001BA  0000              add [eax],al
000001BC  0000              add [eax],al
000001BE  0000              add [eax],al
000001C0  0000              add [eax],al
000001C2  0000              add [eax],al
000001C4  0000              add [eax],al
000001C6  0000              add [eax],al
000001C8  0000              add [eax],al
000001CA  0000              add [eax],al
000001CC  0000              add [eax],al
000001CE  0000              add [eax],al
000001D0  0000              add [eax],al
000001D2  0000              add [eax],al
000001D4  0000              add [eax],al
000001D6  0000              add [eax],al
000001D8  06                push es
000001D9  0000              add [eax],al
000001DB  0002              add [edx],al
000001DD  0000              add [eax],al
000001DF  0008              add [eax],cl
000001E1  0000              add [eax],al
000001E3  000500000000      add [0x0],al
000001E9  0000              add [eax],al
000001EB  0000              add [eax],al
000001ED  0000              add [eax],al
000001EF  0001              add [ecx],al
000001F1  0000              add [eax],al
000001F3  0000              add [eax],al
000001F5  0000              add [eax],al
000001F7  000F              add [edi],cl
000001F9  0000              add [eax],al
000001FB  0000              add [eax],al
000001FD  0000              add [eax],al
000001FF  0000              add [eax],al
00000201  0000              add [eax],al
00000203  0000              add [eax],al
00000205  0000              add [eax],al
00000207  0000              add [eax],al
00000209  0000              add [eax],al
0000020B  0000              add [eax],al
0000020D  0000              add [eax],al
0000020F  00F6              add dh,dh
00000211  0000              add [eax],al
00000213  00C0              add al,al
00000215  A4                movsb
00000216  0408              add al,0x8
00000218  90                nop
00000219  0000              add [eax],al
0000021B  0011              add [ecx],dl
0000021D  0019              add [ecx],bl
0000021F  005001            add [eax+0x1],dl
00000222  0000              add [eax],al
00000224  0000              add [eax],al
00000226  0000              add [eax],al
00000228  0000              add [eax],al
0000022A  0000              add [eax],al
0000022C  1200              adc al,[eax]
0000022E  0000              add [eax],al
00000230  9A010000000000    call 0x0:0x1
00000237  0000              add [eax],al
00000239  0000              add [eax],al
0000023B  0012              add [edx],dl
0000023D  0000              add [eax],al
0000023F  00D2              add dl,dl
00000241  0000              add [eax],al
00000243  0000              add [eax],al
00000245  0000              add [eax],al
00000247  0000              add [eax],al
00000249  0000              add [eax],al
0000024B  0020              add [eax],ah
0000024D  0000              add [eax],al
0000024F  0017              add [edi],dl
00000251  0100              add [eax],eax
00000253  0000              add [eax],al
00000255  0000              add [eax],al
00000257  0000              add [eax],al
00000259  0000              add [eax],al
0000025B  0020              add [eax],ah
0000025D  0000              add [eax],al
0000025F  00FF              add bh,bh
00000261  0000              add [eax],al
00000263  0000              add [eax],al
00000265  0000              add [eax],al
00000267  0000              add [eax],al
00000269  0000              add [eax],al
0000026B  0012              add [edx],dl
0000026D  0000              add [eax],al
0000026F  00A701000000      add [edi+0x1],ah
00000275  0000              add [eax],al
00000277  0000              add [eax],al
00000279  0000              add [eax],al
0000027B  0012              add [edx],dl
0000027D  0000              add [eax],al
0000027F  00BA000000D0      add [edx+0xd0000000],bh
00000285  860408            xchg al,[eax+ecx]
00000288  0000              add [eax],al
0000028A  0000              add [eax],al
0000028C  1200              adc al,[eax]
0000028E  0000              add [eax],al
00000290  5C                pop esp
00000291  0000              add [eax],al
00000293  0000              add [eax],al
00000295  0000              add [eax],al
00000297  0000              add [eax],al
00000299  0000              add [eax],al
0000029B  0020              add [eax],ah
0000029D  0000              add [eax],al
0000029F  008200000000      add [edx+0x0],al
000002A5  0000              add [eax],al
000002A7  0000              add [eax],al
000002A9  0000              add [eax],al
000002AB  0012              add [edx],dl
000002AD  0000              add [eax],al
000002AF  008B01000004      add [ebx+0x4000001],cl
000002B5  92                xchg eax,edx
000002B6  0408              add al,0x8
000002B8  0400              add al,0x0
000002BA  0000              add [eax],al
000002BC  1100              adc [eax],eax
000002BE  0E                push cs
000002BF  0036              add [esi],dh
000002C1  0100              add [eax],eax
000002C3  0000              add [eax],al
000002C5  0000              add [eax],al
000002C7  0000              add [eax],al
000002C9  0000              add [eax],al
000002CB  0020              add [eax],ah
000002CD  0000              add [eax],al
000002CF  007800            add [eax+0x0],bh
000002D2  0000              add [eax],al
000002D4  60                pusha
000002D5  A5                movsd
000002D6  0408              add al,0x8
000002D8  8C00              mov [eax],es
000002DA  0000              add [eax],al
000002DC  1100              adc [eax],eax
000002DE  1900              sbb [eax],eax
000002E0  2B01              sub eax,[ecx]
000002E2  0000              add [eax],al
000002E4  0000              add [eax],al
000002E6  0000              add [eax],al
000002E8  0000              add [eax],al
000002EA  0000              add [eax],al
000002EC  1200              adc al,[eax]
000002EE  0000              add [eax],al
000002F0  1000              adc [eax],al
000002F2  0000              add [eax],al
000002F4  0000              add [eax],al
000002F6  0000              add [eax],al
000002F8  0000              add [eax],al
000002FA  0000              add [eax],al
000002FC  1200              adc al,[eax]
000002FE  0000              add [eax],al
00000300  2100              and [eax],eax
00000302  0000              add [eax],al
00000304  108704080000      adc [edi+0x804],al
0000030A  0000              add [eax],al
0000030C  1200              adc al,[eax]
0000030E  0000              add [eax],al
00000310  E100              loope 0x312
00000312  0000              add [eax],al
00000314  208704080000      and [edi+0x804],al
0000031A  0000              add [eax],al
0000031C  1200              adc al,[eax]
0000031E  0000              add [eax],al
00000320  7201              jc 0x323
00000322  0000              add [eax],al
00000324  0000              add [eax],al
00000326  0000              add [eax],al
00000328  0000              add [eax],al
0000032A  0000              add [eax],al
0000032C  1200              adc al,[eax]
0000032E  0000              add [eax],al
00000330  006C6962          add [ecx+ebp*2+0x62],ch
00000334  7374              jnc 0x3aa
00000336  64632B            arpl [fs:ebx],bp
00000339  2B2E              sub ebp,[esi]
0000033B  736F              jnc 0x3ac
0000033D  2E36005F5A        add [ss:edi+0x5a],bl
00000342  4E                dec esi
00000343  53                push ebx
00000344  6F                outsd
00000345  6C                insb
00000346  7345              jnc 0x38d
00000348  50                push eax
00000349  46                inc esi
0000034A  52                push edx
0000034B  53                push ebx
0000034C  6F                outsd
0000034D  53                push ebx
0000034E  5F                pop edi
0000034F  45                inc ebp
00000350  005F5A            add [edi+0x5a],bl
00000353  53                push ebx
00000354  7434              jz 0x38a
00000356  656E              gs outsb
00000358  646C              fs insb
0000035A  49                dec ecx
0000035B  635374            arpl [ebx+0x74],dx
0000035E  3131              xor [ecx],esi
00000360  636861            arpl [eax+0x61],bp
00000363  725F              jc 0x3c4
00000365  7472              jz 0x3d9
00000367  61                popa
00000368  6974734963454552  imul esi,[ebx+esi*2+0x49],dword 0x52454563
00000370  53                push ebx
00000371  7431              jz 0x3a4
00000373  336261            xor esp,[edx+0x61]
00000376  7369              jnc 0x3e1
00000378  635F6F            arpl [edi+0x6f],bx
0000037B  7374              jnc 0x3f1
0000037D  7265              jc 0x3e4
0000037F  61                popa
00000380  6D                insd
00000381  49                dec ecx
00000382  54                push esp
00000383  5F                pop edi
00000384  54                push esp
00000385  305F45            xor [edi+0x45],bl
00000388  53                push ebx
00000389  365F              ss pop edi
0000038B  005F49            add [edi+0x49],bl
0000038E  54                push esp
0000038F  4D                dec ebp
00000390  5F                pop edi
00000391  64657265          gs jc 0x3fa
00000395  676973746572544D  imul esi,[bp+di+0x74],dword 0x4d547265
0000039D  43                inc ebx
0000039E  6C                insb
0000039F  6F                outsd
000003A0  6E                outsb
000003A1  6554              gs push esp
000003A3  61                popa
000003A4  626C6500          bound ebp,[ebp+0x0]
000003A8  5F                pop edi
000003A9  5A                pop edx
000003AA  53                push ebx
000003AB  7434              jz 0x3e1
000003AD  636F75            arpl [edi+0x75],bp
000003B0  7400              jz 0x3b2
000003B2  5F                pop edi
000003B3  5A                pop edx
000003B4  53                push ebx
000003B5  746C              jz 0x423
000003B7  7349              jnc 0x402
000003B9  53                push ebx
000003BA  7431              jz 0x3ed
000003BC  316368            xor [ebx+0x68],esp
000003BF  61                popa
000003C0  725F              jc 0x421
000003C2  7472              jz 0x436
000003C4  61                popa
000003C5  6974734963454552  imul esi,[ebx+esi*2+0x49],dword 0x52454563
000003CD  53                push ebx
000003CE  7431              jz 0x401
000003D0  336261            xor esp,[edx+0x61]
000003D3  7369              jnc 0x43e
000003D5  635F6F            arpl [edi+0x6f],bx
000003D8  7374              jnc 0x44e
000003DA  7265              jc 0x441
000003DC  61                popa
000003DD  6D                insd
000003DE  49                dec ecx
000003DF  63545F45          arpl [edi+ebx*2+0x45],dx
000003E3  53                push ebx
000003E4  355F504B63        xor eax,0x634b505f
000003E9  005F5A            add [edi+0x5a],bl
000003EC  4E                dec esi
000003ED  53                push ebx
000003EE  7438              jz 0x428
000003F0  696F735F626173    imul ebp,[edi+0x73],dword 0x7361625f
000003F7  653449            gs xor al,0x49
000003FA  6E                outsb
000003FB  697444314576005F  imul esi,[esp+eax*2+0x31],dword 0x5f007645
00000403  5F                pop edi
00000404  676D              a16 insd
00000406  6F                outsd
00000407  6E                outsb
00000408  5F                pop edi
00000409  7374              jnc 0x47f
0000040B  61                popa
0000040C  7274              jc 0x482
0000040E  5F                pop edi
0000040F  5F                pop edi
00000410  005F5F            add [edi+0x5f],bl
00000413  677878            a16 js 0x48e
00000416  5F                pop edi
00000417  7065              jo 0x47e
00000419  7273              jc 0x48e
0000041B  6F                outsd
0000041C  6E                outsb
0000041D  61                popa
0000041E  6C                insb
0000041F  6974795F7630005F  imul esi,[ecx+edi*2+0x5f],dword 0x5f003076
00000427  5A                pop edx
00000428  53                push ebx
00000429  7433              jz 0x45e
0000042B  63696E            arpl [ecx+0x6e],bp
0000042E  005F5A            add [edi+0x5a],bl
00000431  4E                dec esi
00000432  53                push ebx
00000433  7438              jz 0x46d
00000435  696F735F626173    imul ebp,[edi+0x73],dword 0x7361625f
0000043C  653449            gs xor al,0x49
0000043F  6E                outsb
00000440  697443314576005F  imul esi,[ebx+eax*2+0x31],dword 0x5f007645
00000448  4A                dec edx
00000449  765F              jna 0x4aa
0000044B  52                push edx
0000044C  6567697374657243  imul esi,[gs:bp+di+0x74],dword 0x6c437265
         -6C
00000455  61                popa
00000456  7373              jnc 0x4cb
00000458  657300            gs jnc 0x45b
0000045B  5F                pop edi
0000045C  5A                pop edx
0000045D  4E                dec esi
0000045E  53                push ebx
0000045F  69727345526900    imul esi,[edx+0x73],dword 0x695245
00000466  5F                pop edi
00000467  49                dec ecx
00000468  54                push esp
00000469  4D                dec ebp
0000046A  5F                pop edi
0000046B  7265              jc 0x4d2
0000046D  676973746572544D  imul esi,[bp+di+0x74],dword 0x4d547265
00000475  43                inc ebx
00000476  6C                insb
00000477  6F                outsd
00000478  6E                outsb
00000479  6554              gs push esp
0000047B  61                popa
0000047C  626C6500          bound ebp,[ebp+0x0]
00000480  5F                pop edi
00000481  5A                pop edx
00000482  4E                dec esi
00000483  53                push ebx
00000484  6F                outsd
00000485  6C                insb
00000486  7345              jnc 0x4cd
00000488  69006C69626D      imul eax,[eax],dword 0x6d62696c
0000048E  2E736F            cs jnc 0x500
00000491  2E36006C6962      add [ss:ecx+ebp*2+0x62],ch
00000497  6763635F          arpl [bp+di+0x5f],sp
0000049B  732E              jnc 0x4cb
0000049D  736F              jnc 0x50e
0000049F  2E3100            xor [cs:eax],eax
000004A2  5F                pop edi
000004A3  55                push ebp
000004A4  6E                outsb
000004A5  7769              ja 0x510
000004A7  6E                outsb
000004A8  645F              fs pop edi
000004AA  52                push edx
000004AB  657375            gs jnc 0x523
000004AE  6D                insd
000004AF  65006C6962        add [gs:ecx+ebp*2+0x62],ch
000004B4  632E              arpl [esi],bp
000004B6  736F              jnc 0x527
000004B8  2E36005F49        add [ss:edi+0x49],bl
000004BD  4F                dec edi
000004BE  5F                pop edi
000004BF  7374              jnc 0x535
000004C1  64696E5F75736564  imul ebp,[fs:esi+0x5f],dword 0x64657375
000004C9  005F5F            add [edi+0x5f],bl
000004CC  637861            arpl [eax+0x61],di
000004CF  5F                pop edi
000004D0  61                popa
000004D1  7465              jz 0x538
000004D3  7869              js 0x53e
000004D5  7400              jz 0x4d7
000004D7  5F                pop edi
000004D8  5F                pop edi
000004D9  6C                insb
000004DA  6962635F737461    imul esp,[edx+0x63],dword 0x6174735f
000004E1  7274              jc 0x557
000004E3  5F                pop edi
000004E4  6D                insd
000004E5  61                popa
000004E6  696E004743435F    imul ebp,[esi+0x0],dword 0x5f434347
000004ED  332E              xor ebp,[esi]
000004EF  3000              xor [eax],al
000004F1  47                inc edi
000004F2  4C                dec esp
000004F3  49                dec ecx
000004F4  42                inc edx
000004F5  43                inc ebx
000004F6  5F                pop edi
000004F7  322E              xor ch,[esi]
000004F9  3000              xor [eax],al
000004FB  47                inc edi
000004FC  4C                dec esp
000004FD  49                dec ecx
000004FE  42                inc edx
000004FF  43                inc ebx
00000500  5F                pop edi
00000501  322E              xor ch,[esi]
00000503  312E              xor [esi],ebp
00000505  3300              xor eax,[eax]
00000507  43                inc ebx
00000508  58                pop eax
00000509  58                pop eax
0000050A  41                inc ecx
0000050B  42                inc edx
0000050C  49                dec ecx
0000050D  5F                pop edi
0000050E  312E              xor [esi],ebp
00000510  3300              xor eax,[eax]
00000512  47                inc edi
00000513  4C                dec esp
00000514  49                dec ecx
00000515  42                inc edx
00000516  43                inc ebx
00000517  58                pop eax
00000518  58                pop eax
00000519  5F                pop edi
0000051A  332E              xor ebp,[esi]
0000051C  3400              xor al,0x0
0000051E  0000              add [eax],al
00000520  0200              add al,[eax]
00000522  0200              add al,[eax]
00000524  0300              add eax,[eax]
00000526  0000              add [eax],al
00000528  0000              add [eax],al
0000052A  0200              add al,[eax]
0000052C  0400              add al,0x0
0000052E  0200              add al,[eax]
00000530  0000              add [eax],al
00000532  0200              add al,[eax]
00000534  0100              add [eax],eax
00000536  0000              add [eax],al
00000538  0200              add al,[eax]
0000053A  0200              add al,[eax]
0000053C  0200              add al,[eax]
0000053E  0200              add al,[eax]
00000540  0500060001        add eax,0x1000600
00000545  0001              add [ecx],al
00000547  00640100          add [ecx+eax+0x0],ah
0000054B  0010              add [eax],dl
0000054D  0000              add [eax],al
0000054F  0020              add [eax],ah
00000551  0000              add [eax],al
00000553  005026            add [eax+0x26],dl
00000556  790B              jns 0x563
00000558  0000              add [eax],al
0000055A  06                push es
0000055B  00B901000000      add [ecx+0x1],bh
00000561  0000              add [eax],al
00000563  0001              add [ecx],al
00000565  0002              add [edx],al
00000567  008101000010      add [ecx+0x10000001],al
0000056D  0000              add [eax],al
0000056F  0030              add [eax],dh
00000571  0000              add [eax],al
00000573  0010              add [eax],dl
00000575  69690D00000400    imul ebp,[ecx+0xd],dword 0x40000
0000057C  C10100            rol dword [ecx],0x0
0000057F  0010              add [eax],dl
00000581  0000              add [eax],al
00000583  00731F            add [ebx+0x1f],dh
00000586  690900000300      imul ecx,[ecx],dword 0x30000
0000058C  CB                retf
0000058D  0100              add [eax],eax
0000058F  0000              add [eax],al
00000591  0000              add [eax],al
00000593  0001              add [ecx],al
00000595  0002              add [edx],al
00000597  0001              add [ecx],al
00000599  0000              add [eax],al
0000059B  0010              add [eax],dl
0000059D  0000              add [eax],al
0000059F  0000              add [eax],al
000005A1  0000              add [eax],al
000005A3  00D3              add bl,dl
000005A5  AF                scasd
000005A6  6B0500000500D7    imul eax,[0x50000],byte -0x29
000005AD  0100              add [eax],eax
000005AF  0010              add [eax],dl
000005B1  0000              add [eax],al
000005B3  00742992          add [ecx+ebp-0x6e],dh
000005B7  0800              or [eax],al
000005B9  0002              add [edx],al
000005BB  00E2              add dl,ah
000005BD  0100              add [eax],eax
000005BF  0000              add [eax],al
000005C1  0000              add [eax],al
000005C3  0074A404          add [esp+0x4],dh
000005C7  0806              or [esi],al
000005C9  0400              add al,0x0
000005CB  00C0              add al,al
000005CD  A4                movsb
000005CE  0408              add al,0x8
000005D0  0501000060        add eax,0x60000001
000005D5  A5                movsd
000005D6  0408              add al,0x8
000005D8  050D000084        add eax,0x8400000d
000005DD  A4                movsb
000005DE  0408              add al,0x8
000005E0  07                pop es
000005E1  0200              add al,[eax]
000005E3  0088A4040807      add [eax+0x70804a4],cl
000005E9  0300              add eax,[eax]
000005EB  008CA404080704    add [esp+0x4070804],cl
000005F2  0000              add [eax],al
000005F4  90                nop
000005F5  A4                movsb
000005F6  0408              add al,0x8
000005F8  07                pop es
000005F9  06                push es
000005FA  0000              add [eax],al
000005FC  94                xchg eax,esp
000005FD  A4                movsb
000005FE  0408              add al,0x8
00000600  07                pop es
00000601  07                pop es
00000602  0000              add [eax],al
00000604  98                cwde
00000605  A4                movsb
00000606  0408              add al,0x8
00000608  07                pop es
00000609  0800              or [eax],al
0000060B  009CA40408070A    add [esp+0xa070804],bl
00000612  0000              add [eax],al
00000614  A0A4040807        mov al,[0x70804a4]
00000619  0E                push cs
0000061A  0000              add [eax],al
0000061C  A4                movsb
0000061D  A4                movsb
0000061E  0408              add al,0x8
00000620  07                pop es
00000621  0F0000            sldt [eax]
00000624  A8A4              test al,0xa4
00000626  0408              add al,0x8
00000628  07                pop es
00000629  1000              adc [eax],al
0000062B  00ACA404080711    add [esp+0x11070804],ch
00000632  0000              add [eax],al
00000634  B0A4              mov al,0xa4
00000636  0408              add al,0x8
00000638  07                pop es
00000639  1200              adc al,[eax]
0000063B  005589            add [ebp-0x77],dl
0000063E  E553              in eax,0x53
00000640  83EC04            sub esp,byte +0x4
00000643  E800000000        call 0x648
00000648  5B                pop ebx
00000649  81C3301E0000      add ebx,0x1e30
0000064F  8B93FCFFFFFF      mov edx,[ebx+0xfffffffc]
00000655  85D2              test edx,edx
00000657  7405              jz 0x65e
00000659  E842000000        call 0x6a0
0000065E  E8CD010000        call 0x830
00000663  E8480B0000        call 0x11b0
00000668  58                pop eax
00000669  5B                pop ebx
0000066A  C9                leave
0000066B  C3                ret
0000066C  0000              add [eax],al
0000066E  0000              add [eax],al
00000670  FF357CA40408      push dword [0x804a47c]
00000676  FF2580A40408      jmp near [0x804a480]
0000067C  0000              add [eax],al
0000067E  0000              add [eax],al
00000680  FF2584A40408      jmp near [0x804a484]
00000686  6800000000        push dword 0x0
0000068B  E9E0FFFFFF        jmp 0x100000670
00000690  FF2588A40408      jmp near [0x804a488]
00000696  6808000000        push dword 0x8
0000069B  E9D0FFFFFF        jmp 0x100000670
000006A0  FF258CA40408      jmp near [0x804a48c]
000006A6  6810000000        push dword 0x10
000006AB  E9C0FFFFFF        jmp 0x100000670
000006B0  FF2590A40408      jmp near [0x804a490]
000006B6  6818000000        push dword 0x18
000006BB  E9B0FFFFFF        jmp 0x100000670
000006C0  FF2594A40408      jmp near [0x804a494]
000006C6  6820000000        push dword 0x20
000006CB  E9A0FFFFFF        jmp 0x100000670
000006D0  FF2598A40408      jmp near [0x804a498]
000006D6  6828000000        push dword 0x28
000006DB  E990FFFFFF        jmp 0x100000670
000006E0  FF259CA40408      jmp near [0x804a49c]
000006E6  6830000000        push dword 0x30
000006EB  E980FFFFFF        jmp 0x100000670
000006F0  FF25A0A40408      jmp near [0x804a4a0]
000006F6  6838000000        push dword 0x38
000006FB  E970FFFFFF        jmp 0x100000670
00000700  FF25A4A40408      jmp near [0x804a4a4]
00000706  6840000000        push dword 0x40
0000070B  E960FFFFFF        jmp 0x100000670
00000710  FF25A8A40408      jmp near [0x804a4a8]
00000716  6848000000        push dword 0x48
0000071B  E950FFFFFF        jmp 0x100000670
00000720  FF25ACA40408      jmp near [0x804a4ac]
00000726  6850000000        push dword 0x50
0000072B  E940FFFFFF        jmp 0x100000670
00000730  FF25B0A40408      jmp near [0x804a4b0]
00000736  6858000000        push dword 0x58
0000073B  E930FFFFFF        jmp 0x100000670
00000740  31ED              xor ebp,ebp
00000742  5E                pop esi
00000743  89E1              mov ecx,esp
00000745  83E4F0            and esp,byte -0x10
00000748  50                push eax
00000749  54                push esp
0000074A  52                push edx
0000074B  6840910408        push dword 0x8049140
00000750  6850910408        push dword 0x8049150
00000755  51                push ecx
00000756  56                push esi
00000757  6860880408        push dword 0x8048860
0000075C  E85FFFFFFF        call 0x1000006c0
00000761  F4                hlt
00000762  90                nop
00000763  90                nop
00000764  6690              o16 nop
00000766  6690              o16 nop
00000768  6690              o16 nop
0000076A  6690              o16 nop
0000076C  6690              o16 nop
0000076E  6690              o16 nop
00000770  B8BFA40408        mov eax,0x804a4bf
00000775  2DBCA40408        sub eax,0x804a4bc
0000077A  83F806            cmp eax,byte +0x6
0000077D  7701              ja 0x780
0000077F  C3                ret
00000780  B800000000        mov eax,0x0
00000785  85C0              test eax,eax
00000787  74F6              jz 0x77f
00000789  55                push ebp
0000078A  89E5              mov ebp,esp
0000078C  83EC18            sub esp,byte +0x18
0000078F  C70424BCA40408    mov dword [esp],0x804a4bc
00000796  FFD0              call eax
00000798  C9                leave
00000799  C3                ret
0000079A  8DB600000000      lea esi,[esi+0x0]
000007A0  B8BCA40408        mov eax,0x804a4bc
000007A5  2DBCA40408        sub eax,0x804a4bc
000007AA  C1F802            sar eax,0x2
000007AD  89C2              mov edx,eax
000007AF  C1EA1F            shr edx,0x1f
000007B2  01D0              add eax,edx
000007B4  D1F8              sar eax,1
000007B6  7501              jnz 0x7b9
000007B8  C3                ret
000007B9  BA00000000        mov edx,0x0
000007BE  85D2              test edx,edx
000007C0  74F6              jz 0x7b8
000007C2  55                push ebp
000007C3  89E5              mov ebp,esp
000007C5  83EC18            sub esp,byte +0x18
000007C8  89442404          mov [esp+0x4],eax
000007CC  C70424BCA40408    mov dword [esp],0x804a4bc
000007D3  FFD2              call edx
000007D5  C9                leave
000007D6  C3                ret
000007D7  89F6              mov esi,esi
000007D9  8DBC2700000000    lea edi,[edi+0x0]
000007E0  803DECA5040800    cmp byte [0x804a5ec],0x0
000007E7  7544              jnz 0x82d
000007E9  55                push ebp
000007EA  89E5              mov ebp,esp
000007EC  53                push ebx
000007ED  BB8CA30408        mov ebx,0x804a38c
000007F2  52                push edx
000007F3  81EB88A30408      sub ebx,0x804a388
000007F9  A1F0A50408        mov eax,[0x804a5f0]
000007FE  C1FB02            sar ebx,0x2
00000801  4B                dec ebx
00000802  39D8              cmp eax,ebx
00000804  7318              jnc 0x81e
00000806  6690              o16 nop
00000808  40                inc eax
00000809  A3F0A50408        mov [0x804a5f0],eax
0000080E  FF148588A30408    call near [eax*4+0x804a388]
00000815  A1F0A50408        mov eax,[0x804a5f0]
0000081A  39D8              cmp eax,ebx
0000081C  72EA              jc 0x808
0000081E  E84DFFFFFF        call 0x100000770
00000823  C605ECA5040801    mov byte [0x804a5ec],0x1
0000082A  58                pop eax
0000082B  5B                pop ebx
0000082C  5D                pop ebp
0000082D  C3                ret
0000082E  6690              o16 nop
00000830  8B0D90A30408      mov ecx,[0x804a390]
00000836  85C9              test ecx,ecx
00000838  741E              jz 0x858
0000083A  B800000000        mov eax,0x0
0000083F  85C0              test eax,eax
00000841  7415              jz 0x858
00000843  55                push ebp
00000844  89E5              mov ebp,esp
00000846  83EC18            sub esp,byte +0x18
00000849  C7042490A30408    mov dword [esp],0x804a390
00000850  FFD0              call eax
00000852  C9                leave
00000853  E948FFFFFF        jmp 0x1000007a0
00000858  E943FFFFFF        jmp 0x1000007a0
0000085D  6690              o16 nop
0000085F  90                nop
00000860  55                push ebp
00000861  89E5              mov ebp,esp
00000863  57                push edi
00000864  56                push esi
00000865  53                push ebx
00000866  83E4F0            and esp,byte -0x10
00000869  81EC405E0000      sub esp,0x5e40
0000086F  8D8424E45D0000    lea eax,[esp+0x5de4]
00000876  89442404          mov [esp+0x4],eax
0000087A  C70424C0A40408    mov dword [esp],0x804a4c0
00000881  E86AFEFFFF        call 0x1000006f0
00000886  C784243C5E000000  mov dword [esp+0x5e3c],0x0
         -000000
00000891  E9CB000000        jmp 0x961
00000896  C78424385E000000  mov dword [esp+0x5e38],0x0
         -000000
000008A1  EB62              jmp short 0x905
000008A3  8B8424385E0000    mov eax,[esp+0x5e38]
000008AA  8B8C243C5E0000    mov ecx,[esp+0x5e3c]
000008B1  89C2              mov edx,eax
000008B3  01D2              add edx,edx
000008B5  01C2              add edx,eax
000008B7  8D049500000000    lea eax,[edx*4+0x0]
000008BE  89C2              mov edx,eax
000008C0  89C8              mov eax,ecx
000008C2  C1E002            shl eax,0x2
000008C5  01C8              add eax,ecx
000008C7  8D0C8500000000    lea ecx,[eax*4+0x0]
000008CE  01C8              add eax,ecx
000008D0  89C1              mov ecx,eax
000008D2  C1E104            shl ecx,0x4
000008D5  29C1              sub ecx,eax
000008D7  89C8              mov eax,ecx
000008D9  C1E005            shl eax,0x5
000008DC  89C1              mov ecx,eax
000008DE  8D040A            lea eax,[edx+ecx]
000008E1  8D9800A60408      lea ebx,[eax+0x804a600]
000008E7  B800000000        mov eax,0x0
000008EC  BA00000000        mov edx,0x0
000008F1  B900000000        mov ecx,0x0
000008F6  8903              mov [ebx],eax
000008F8  895304            mov [ebx+0x4],edx
000008FB  894B08            mov [ebx+0x8],ecx
000008FE  FF8424385E0000    inc dword [esp+0x5e38]
00000905  81BC24385E0000E7  cmp dword [esp+0x5e38],0x3e7
         -030000
00000910  7E91              jng 0x8a3
00000912  8B94243C5E0000    mov edx,[esp+0x5e3c]
00000919  89D0              mov eax,edx
0000091B  01C0              add eax,eax
0000091D  01D0              add eax,edx
0000091F  C1E002            shl eax,0x2
00000922  01D0              add eax,edx
00000924  8D14C500000000    lea edx,[eax*8+0x0]
0000092B  29C2              sub edx,eax
0000092D  89D0              mov eax,edx
0000092F  C1E005            shl eax,0x5
00000932  01C2              add edx,eax
00000934  8D049500000000    lea eax,[edx*4+0x0]
0000093B  89C2              mov edx,eax
0000093D  8D9A00A60408      lea ebx,[edx+0x804a600]
00000943  B800000000        mov eax,0x0
00000948  BA00000080        mov edx,0x80000000
0000094D  B9FF3F0000        mov ecx,0x3fff
00000952  8903              mov [ebx],eax
00000954  895304            mov [ebx+0x4],edx
00000957  894B08            mov [ebx+0x8],ecx
0000095A  FF84243C5E0000    inc dword [esp+0x5e3c]
00000961  81BC243C5E0000E7  cmp dword [esp+0x5e3c],0x3e7
         -030000
0000096C  0F8E24FFFFFF      jng near 0x100000896
00000972  C78424345E000000  mov dword [esp+0x5e34],0x0
         -000000
0000097D  E971030000        jmp 0xcf3
00000982  C78424305E000000  mov dword [esp+0x5e30],0x0
         -000000
0000098D  E9A6010000        jmp 0xb38
00000992  8B8424305E0000    mov eax,[esp+0x5e30]
00000999  8B8C24345E0000    mov ecx,[esp+0x5e34]
000009A0  89C2              mov edx,eax
000009A2  01D2              add edx,edx
000009A4  01C2              add edx,eax
000009A6  8D049500000000    lea eax,[edx*4+0x0]
000009AD  89C2              mov edx,eax
000009AF  89C8              mov eax,ecx
000009B1  C1E002            shl eax,0x2
000009B4  01C8              add eax,ecx
000009B6  8D0C8500000000    lea ecx,[eax*4+0x0]
000009BD  01C8              add eax,ecx
000009BF  89C1              mov ecx,eax
000009C1  C1E104            shl ecx,0x4
000009C4  29C1              sub ecx,eax
000009C6  89C8              mov eax,ecx
000009C8  C1E005            shl eax,0x5
000009CB  89C1              mov ecx,eax
000009CD  8D040A            lea eax,[edx+ecx]
000009D0  0500A60408        add eax,0x804a600
000009D5  8B4808            mov ecx,[eax+0x8]
000009D8  8B5004            mov edx,[eax+0x4]
000009DB  8B00              mov eax,[eax]
000009DD  8BB424305E0000    mov esi,[esp+0x5e30]
000009E4  89F3              mov ebx,esi
000009E6  01DB              add ebx,ebx
000009E8  01F3              add ebx,esi
000009EA  C1E302            shl ebx,0x2
000009ED  8DB424405E0000    lea esi,[esp+0x5e40]
000009F4  01F3              add ebx,esi
000009F6  81EB305E0000      sub ebx,0x5e30
000009FC  8903              mov [ebx],eax
000009FE  895304            mov [ebx+0x4],edx
00000A01  894B08            mov [ebx+0x8],ecx
00000A04  8B9424305E0000    mov edx,[esp+0x5e30]
00000A0B  89D0              mov eax,edx
00000A0D  01C0              add eax,eax
00000A0F  01D0              add eax,edx
00000A11  C1E002            shl eax,0x2
00000A14  8DB424405E0000    lea esi,[esp+0x5e40]
00000A1B  01F0              add eax,esi
00000A1D  8D98B0D0FFFF      lea ebx,[eax+0xffffd0b0]
00000A23  B800000000        mov eax,0x0
00000A28  BA00000000        mov edx,0x0
00000A2D  B900000000        mov ecx,0x0
00000A32  8903              mov [ebx],eax
00000A34  895304            mov [ebx+0x4],edx
00000A37  894B08            mov [ebx+0x8],ecx
00000A3A  C784242C5E000000  mov dword [esp+0x5e2c],0x0
         -000000
00000A45  E98E000000        jmp 0xad8
00000A4A  8B9424305E0000    mov edx,[esp+0x5e30]
00000A51  89D0              mov eax,edx
00000A53  01C0              add eax,eax
00000A55  01D0              add eax,edx
00000A57  C1E002            shl eax,0x2
00000A5A  8DB424405E0000    lea esi,[esp+0x5e40]
00000A61  01F0              add eax,esi
00000A63  2D502F0000        sub eax,0x2f50
00000A68  DB28              fld tword [eax]
00000A6A  8B8424305E0000    mov eax,[esp+0x5e30]
00000A71  8B8C242C5E0000    mov ecx,[esp+0x5e2c]
00000A78  89C2              mov edx,eax
00000A7A  01D2              add edx,edx
00000A7C  01C2              add edx,eax
00000A7E  8D049500000000    lea eax,[edx*4+0x0]
00000A85  89C2              mov edx,eax
00000A87  89C8              mov eax,ecx
00000A89  C1E002            shl eax,0x2
00000A8C  01C8              add eax,ecx
00000A8E  8D0C8500000000    lea ecx,[eax*4+0x0]
00000A95  01C8              add eax,ecx
00000A97  89C1              mov ecx,eax
00000A99  C1E104            shl ecx,0x4
00000A9C  29C1              sub ecx,eax
00000A9E  89C8              mov eax,ecx
00000AA0  C1E005            shl eax,0x5
00000AA3  89C1              mov ecx,eax
00000AA5  8D040A            lea eax,[edx+ecx]
00000AA8  0500A60408        add eax,0x804a600
00000AAD  DB28              fld tword [eax]
00000AAF  DEC1              faddp st1
00000AB1  8B9424305E0000    mov edx,[esp+0x5e30]
00000AB8  89D0              mov eax,edx
00000ABA  01C0              add eax,eax
00000ABC  01D0              add eax,edx
00000ABE  C1E002            shl eax,0x2
00000AC1  8DB424405E0000    lea esi,[esp+0x5e40]
00000AC8  01F0              add eax,esi
00000ACA  2D502F0000        sub eax,0x2f50
00000ACF  DB38              fstp tword [eax]
00000AD1  FF84242C5E0000    inc dword [esp+0x5e2c]
00000AD8  81BC242C5E0000E7  cmp dword [esp+0x5e2c],0x3e7
         -030000
00000AE3  0F8E61FFFFFF      jng near 0x100000a4a
00000AE9  8B9424305E0000    mov edx,[esp+0x5e30]
00000AF0  89D0              mov eax,edx
00000AF2  01C0              add eax,eax
00000AF4  01D0              add eax,edx
00000AF6  C1E002            shl eax,0x2
00000AF9  8DB424405E0000    lea esi,[esp+0x5e40]
00000B00  01F0              add eax,esi
00000B02  2D502F0000        sub eax,0x2f50
00000B07  DB28              fld tword [eax]
00000B09  DB2D30920408      fld tword [0x8049230]
00000B0F  DEF9              fdivp st1,st0
00000B11  8B9424305E0000    mov edx,[esp+0x5e30]
00000B18  89D0              mov eax,edx
00000B1A  01C0              add eax,eax
00000B1C  01D0              add eax,edx
00000B1E  C1E002            shl eax,0x2
00000B21  8DB424405E0000    lea esi,[esp+0x5e40]
00000B28  01F0              add eax,esi
00000B2A  2D502F0000        sub eax,0x2f50
00000B2F  DB38              fstp tword [eax]
00000B31  FF8424305E0000    inc dword [esp+0x5e30]
00000B38  81BC24305E0000E7  cmp dword [esp+0x5e30],0x3e7
         -030000
00000B43  0F8E49FEFFFF      jng near 0x100000992
00000B49  C78424285E000000  mov dword [esp+0x5e28],0x0
         -000000
00000B54  E9EB000000        jmp 0xc44
00000B59  C78424245E000000  mov dword [esp+0x5e24],0x0
         -000000
00000B64  E9C3000000        jmp 0xc2c
00000B69  8B8424245E0000    mov eax,[esp+0x5e24]
00000B70  8B8C24285E0000    mov ecx,[esp+0x5e28]
00000B77  89C2              mov edx,eax
00000B79  01D2              add edx,edx
00000B7B  01C2              add edx,eax
00000B7D  8D049500000000    lea eax,[edx*4+0x0]
00000B84  89C2              mov edx,eax
00000B86  89C8              mov eax,ecx
00000B88  C1E002            shl eax,0x2
00000B8B  01C8              add eax,ecx
00000B8D  8D0C8500000000    lea ecx,[eax*4+0x0]
00000B94  01C8              add eax,ecx
00000B96  89C1              mov ecx,eax
00000B98  C1E104            shl ecx,0x4
00000B9B  29C1              sub ecx,eax
00000B9D  89C8              mov eax,ecx
00000B9F  C1E005            shl eax,0x5
00000BA2  89C1              mov ecx,eax
00000BA4  8D040A            lea eax,[edx+ecx]
00000BA7  0500A60408        add eax,0x804a600
00000BAC  DB28              fld tword [eax]
00000BAE  DB2D40920408      fld tword [0x8049240]
00000BB4  DEC9              fmulp st1
00000BB6  8B9424245E0000    mov edx,[esp+0x5e24]
00000BBD  89D0              mov eax,edx
00000BBF  01C0              add eax,eax
00000BC1  01D0              add eax,edx
00000BC3  C1E002            shl eax,0x2
00000BC6  8DB424405E0000    lea esi,[esp+0x5e40]
00000BCD  01F0              add eax,esi
00000BCF  2D305E0000        sub eax,0x5e30
00000BD4  DB28              fld tword [eax]
00000BD6  DEC1              faddp st1
00000BD8  DB2D30920408      fld tword [0x8049230]
00000BDE  DEF9              fdivp st1,st0
00000BE0  8B8424245E0000    mov eax,[esp+0x5e24]
00000BE7  8B8C24285E0000    mov ecx,[esp+0x5e28]
00000BEE  89C2              mov edx,eax
00000BF0  01D2              add edx,edx
00000BF2  01C2              add edx,eax
00000BF4  8D049500000000    lea eax,[edx*4+0x0]
00000BFB  89C2              mov edx,eax
00000BFD  89C8              mov eax,ecx
00000BFF  C1E002            shl eax,0x2
00000C02  01C8              add eax,ecx
00000C04  8D0C8500000000    lea ecx,[eax*4+0x0]
00000C0B  01C8              add eax,ecx
00000C0D  89C1              mov ecx,eax
00000C0F  C1E104            shl ecx,0x4
00000C12  29C1              sub ecx,eax
00000C14  89C8              mov eax,ecx
00000C16  C1E005            shl eax,0x5
00000C19  89C1              mov ecx,eax
00000C1B  8D040A            lea eax,[edx+ecx]
00000C1E  0500A60408        add eax,0x804a600
00000C23  DB38              fstp tword [eax]
00000C25  FF8424245E0000    inc dword [esp+0x5e24]
00000C2C  81BC24245E0000E7  cmp dword [esp+0x5e24],0x3e7
         -030000
00000C37  0F8E2CFFFFFF      jng near 0x100000b69
00000C3D  FF8424285E0000    inc dword [esp+0x5e28]
00000C44  81BC24285E0000E7  cmp dword [esp+0x5e28],0x3e7
         -030000
00000C4F  0F8E04FFFFFF      jng near 0x100000b59
00000C55  C78424205E000000  mov dword [esp+0x5e20],0x0
         -000000
00000C60  EB79              jmp short 0xcdb
00000C62  8B9424205E0000    mov edx,[esp+0x5e20]
00000C69  89D0              mov eax,edx
00000C6B  01C0              add eax,eax
00000C6D  01D0              add eax,edx
00000C6F  C1E002            shl eax,0x2
00000C72  8DB424405E0000    lea esi,[esp+0x5e40]
00000C79  01F0              add eax,esi
00000C7B  2D502F0000        sub eax,0x2f50
00000C80  8B4808            mov ecx,[eax+0x8]
00000C83  8B5004            mov edx,[eax+0x4]
00000C86  8B00              mov eax,[eax]
00000C88  8B9C24205E0000    mov ebx,[esp+0x5e20]
00000C8F  8BBC24345E0000    mov edi,[esp+0x5e34]
00000C96  89DE              mov esi,ebx
00000C98  01F6              add esi,esi
00000C9A  01DE              add esi,ebx
00000C9C  8D1CB500000000    lea ebx,[esi*4+0x0]
00000CA3  89DE              mov esi,ebx
00000CA5  89FB              mov ebx,edi
00000CA7  C1E302            shl ebx,0x2
00000CAA  01FB              add ebx,edi
00000CAC  8D3C9D00000000    lea edi,[ebx*4+0x0]
00000CB3  01FB              add ebx,edi
00000CB5  89DF              mov edi,ebx
00000CB7  C1E704            shl edi,0x4
00000CBA  29DF              sub edi,ebx
00000CBC  C1E705            shl edi,0x5
00000CBF  89FB              mov ebx,edi
00000CC1  89DF              mov edi,ebx
00000CC3  8D1C3E            lea ebx,[esi+edi]
00000CC6  81C300A60408      add ebx,0x804a600
00000CCC  8903              mov [ebx],eax
00000CCE  895304            mov [ebx+0x4],edx
00000CD1  894B08            mov [ebx+0x8],ecx
00000CD4  FF8424205E0000    inc dword [esp+0x5e20]
00000CDB  81BC24205E0000E7  cmp dword [esp+0x5e20],0x3e7
         -030000
00000CE6  0F8E76FFFFFF      jng near 0x100000c62
00000CEC  FF8424345E0000    inc dword [esp+0x5e34]
00000CF3  81BC24345E0000E7  cmp dword [esp+0x5e34],0x3e7
         -030000
00000CFE  0F8E7EFCFFFF      jng near 0x100000982
00000D04  C784241C5E000001  mov dword [esp+0x5e1c],0x1
         -000000
00000D0F  E99F030000        jmp 0x10b3
00000D14  C744240410920408  mov dword [esp+0x4],0x8049210
00000D1C  C7042460A50408    mov dword [esp],0x804a560
00000D23  E8B8F9FFFF        call 0x1000006e0
00000D28  8B94241C5E0000    mov edx,[esp+0x5e1c]
00000D2F  89542404          mov [esp+0x4],edx
00000D33  890424            mov [esp],eax
00000D36  E845F9FFFF        call 0x100000680
00000D3B  C744240417920408  mov dword [esp+0x4],0x8049217
00000D43  890424            mov [esp],eax
00000D46  E895F9FFFF        call 0x1000006e0
00000D4B  8D8424E05D0000    lea eax,[esp+0x5de0]
00000D52  89442404          mov [esp+0x4],eax
00000D56  C70424C0A40408    mov dword [esp],0x804a4c0
00000D5D  E88EF9FFFF        call 0x1000006f0
00000D62  B800000000        mov eax,0x0
00000D67  BA00000080        mov edx,0x80000000
00000D6C  B9FF3F0000        mov ecx,0x3fff
00000D71  898424105E0000    mov [esp+0x5e10],eax
00000D78  899424145E0000    mov [esp+0x5e14],edx
00000D7F  898C24185E0000    mov [esp+0x5e18],ecx
00000D86  C784240C5E0000E8  mov dword [esp+0x5e0c],0x3e8
         -030000
00000D91  C78424085E000000  mov dword [esp+0x5e08],0x0
         -000000
00000D9C  E9C6000000        jmp 0xe67
00000DA1  C78424045E000000  mov dword [esp+0x5e04],0x0
         -000000
00000DAC  E99E000000        jmp 0xe4f
00000DB1  8B8424045E0000    mov eax,[esp+0x5e04]
00000DB8  8B8C24085E0000    mov ecx,[esp+0x5e08]
00000DBF  89C2              mov edx,eax
00000DC1  01D2              add edx,edx
00000DC3  01C2              add edx,eax
00000DC5  8D049500000000    lea eax,[edx*4+0x0]
00000DCC  89C2              mov edx,eax
00000DCE  89C8              mov eax,ecx
00000DD0  C1E002            shl eax,0x2
00000DD3  01C8              add eax,ecx
00000DD5  8D0C8500000000    lea ecx,[eax*4+0x0]
00000DDC  01C8              add eax,ecx
00000DDE  89C1              mov ecx,eax
00000DE0  C1E104            shl ecx,0x4
00000DE3  29C1              sub ecx,eax
00000DE5  89C8              mov eax,ecx
00000DE7  C1E005            shl eax,0x5
00000DEA  89C1              mov ecx,eax
00000DEC  8D040A            lea eax,[edx+ecx]
00000DEF  0500A60408        add eax,0x804a600
00000DF4  8B4808            mov ecx,[eax+0x8]
00000DF7  8B5004            mov edx,[eax+0x4]
00000DFA  8B00              mov eax,[eax]
00000DFC  8B9C24045E0000    mov ebx,[esp+0x5e04]
00000E03  8BBC24085E0000    mov edi,[esp+0x5e08]
00000E0A  89DE              mov esi,ebx
00000E0C  01F6              add esi,esi
00000E0E  01DE              add esi,ebx
00000E10  8D1CB500000000    lea ebx,[esi*4+0x0]
00000E17  89DE              mov esi,ebx
00000E19  89FB              mov ebx,edi
00000E1B  C1E302            shl ebx,0x2
00000E1E  01FB              add ebx,edi
00000E20  8D3C9D00000000    lea edi,[ebx*4+0x0]
00000E27  01FB              add ebx,edi
00000E29  89DF              mov edi,ebx
00000E2B  C1E704            shl edi,0x4
00000E2E  29DF              sub edi,ebx
00000E30  C1E705            shl edi,0x5
00000E33  89FB              mov ebx,edi
00000E35  89DF              mov edi,ebx
00000E37  8D1C3E            lea ebx,[esi+edi]
00000E3A  81C300C1BB08      add ebx,0x8bbc100
00000E40  8903              mov [ebx],eax
00000E42  895304            mov [ebx+0x4],edx
00000E45  894B08            mov [ebx+0x8],ecx
00000E48  FF8424045E0000    inc dword [esp+0x5e04]
00000E4F  81BC24045E0000E7  cmp dword [esp+0x5e04],0x3e7
         -030000
00000E5A  0F8E51FFFFFF      jng near 0x100000db1
00000E60  FF8424085E0000    inc dword [esp+0x5e08]
00000E67  81BC24085E0000E7  cmp dword [esp+0x5e08],0x3e7
         -030000
00000E72  0F8E29FFFFFF      jng near 0x100000da1
00000E78  C78424005E000000  mov dword [esp+0x5e00],0x0
         -000000
00000E83  E9A5010000        jmp 0x102d
00000E88  8D8424DC5D0000    lea eax,[esp+0x5ddc]
00000E8F  89442404          mov [esp+0x4],eax
00000E93  C70424C0A40408    mov dword [esp],0x804a4c0
00000E9A  E851F8FFFF        call 0x1000006f0
00000E9F  B800000000        mov eax,0x0
00000EA4  BA00000000        mov edx,0x0
00000EA9  B900000000        mov ecx,0x0
00000EAE  898424F05D0000    mov [esp+0x5df0],eax
00000EB5  899424F45D0000    mov [esp+0x5df4],edx
00000EBC  898C24F85D0000    mov [esp+0x5df8],ecx
00000EC3  C78424EC5D000000  mov dword [esp+0x5dec],0x0
         -000000
00000ECE  EB5C              jmp short 0xf2c
00000ED0  8B8424EC5D0000    mov eax,[esp+0x5dec]
00000ED7  8B8C24005E0000    mov ecx,[esp+0x5e00]
00000EDE  89C2              mov edx,eax
00000EE0  01D2              add edx,edx
00000EE2  01C2              add edx,eax
00000EE4  8D049500000000    lea eax,[edx*4+0x0]
00000EEB  89C2              mov edx,eax
00000EED  89C8              mov eax,ecx
00000EEF  C1E002            shl eax,0x2
00000EF2  01C8              add eax,ecx
00000EF4  8D0C8500000000    lea ecx,[eax*4+0x0]
00000EFB  01C8              add eax,ecx
00000EFD  89C1              mov ecx,eax
00000EFF  C1E104            shl ecx,0x4
00000F02  29C1              sub ecx,eax
00000F04  89C8              mov eax,ecx
00000F06  C1E005            shl eax,0x5
00000F09  89C1              mov ecx,eax
00000F0B  8D040A            lea eax,[edx+ecx]
00000F0E  0500C1BB08        add eax,0x8bbc100
00000F13  DB28              fld tword [eax]
00000F15  DBAC24F05D0000    fld tword [esp+0x5df0]
00000F1C  DEC1              faddp st1
00000F1E  DBBC24F05D0000    fstp tword [esp+0x5df0]
00000F25  FF8424EC5D0000    inc dword [esp+0x5dec]
00000F2C  81BC24EC5D0000E7  cmp dword [esp+0x5dec],0x3e7
         -030000
00000F37  7E97              jng 0xed0
00000F39  8B8424DC5D0000    mov eax,[esp+0x5ddc]
00000F40  8B8C24005E0000    mov ecx,[esp+0x5e00]
00000F47  89C2              mov edx,eax
00000F49  01D2              add edx,edx
00000F4B  01C2              add edx,eax
00000F4D  8D049500000000    lea eax,[edx*4+0x0]
00000F54  89C2              mov edx,eax
00000F56  89C8              mov eax,ecx
00000F58  C1E002            shl eax,0x2
00000F5B  01C8              add eax,ecx
00000F5D  8D0C8500000000    lea ecx,[eax*4+0x0]
00000F64  01C8              add eax,ecx
00000F66  89C1              mov ecx,eax
00000F68  C1E104            shl ecx,0x4
00000F6B  29C1              sub ecx,eax
00000F6D  89C8              mov eax,ecx
00000F6F  C1E005            shl eax,0x5
00000F72  89C1              mov ecx,eax
00000F74  8D040A            lea eax,[edx+ecx]
00000F77  0500C1BB08        add eax,0x8bbc100
00000F7C  DB28              fld tword [eax]
00000F7E  DBAC24F05D0000    fld tword [esp+0x5df0]
00000F85  DEF9              fdivp st1,st0
00000F87  DB84240C5E0000    fild dword [esp+0x5e0c]
00000F8E  DEC9              fmulp st1
00000F90  DBAC24105E0000    fld tword [esp+0x5e10]
00000F97  DEC9              fmulp st1
00000F99  DBBC24105E0000    fstp tword [esp+0x5e10]
00000FA0  8B8424005E0000    mov eax,[esp+0x5e00]
00000FA7  898424E85D0000    mov [esp+0x5de8],eax
00000FAE  EB62              jmp short 0x1012
00000FB0  8B8424DC5D0000    mov eax,[esp+0x5ddc]
00000FB7  8B8C24E85D0000    mov ecx,[esp+0x5de8]
00000FBE  89C2              mov edx,eax
00000FC0  01D2              add edx,edx
00000FC2  01C2              add edx,eax
00000FC4  8D049500000000    lea eax,[edx*4+0x0]
00000FCB  89C2              mov edx,eax
00000FCD  89C8              mov eax,ecx
00000FCF  C1E002            shl eax,0x2
00000FD2  01C8              add eax,ecx
00000FD4  8D0C8500000000    lea ecx,[eax*4+0x0]
00000FDB  01C8              add eax,ecx
00000FDD  89C1              mov ecx,eax
00000FDF  C1E104            shl ecx,0x4
00000FE2  29C1              sub ecx,eax
00000FE4  89C8              mov eax,ecx
00000FE6  C1E005            shl eax,0x5
00000FE9  89C1              mov ecx,eax
00000FEB  8D040A            lea eax,[edx+ecx]
00000FEE  8D9800C1BB08      lea ebx,[eax+0x8bbc100]
00000FF4  B800000000        mov eax,0x0
00000FF9  BA00000000        mov edx,0x0
00000FFE  B900000000        mov ecx,0x0
00001003  8903              mov [ebx],eax
00001005  895304            mov [ebx+0x4],edx
00001008  894B08            mov [ebx+0x8],ecx
0000100B  FF8424E85D0000    inc dword [esp+0x5de8]
00001012  81BC24E85D0000E7  cmp dword [esp+0x5de8],0x3e7
         -030000
0000101D  7E91              jng 0xfb0
0000101F  FF8C240C5E0000    dec dword [esp+0x5e0c]
00001026  FF8424005E0000    inc dword [esp+0x5e00]
0000102D  81BC24005E0000E7  cmp dword [esp+0x5e00],0x3e7
         -030000
00001038  0F8E4AFEFFFF      jng near 0x100000e88
0000103E  D9E8              fld1
00001040  DBAC24105E0000    fld tword [esp+0x5e10]
00001047  DEF9              fdivp st1,st0
00001049  D9E8              fld1
0000104B  DEC1              faddp st1
0000104D  D9E8              fld1
0000104F  DEF1              fdivrp st1
00001051  DB2D50920408      fld tword [0x8049250]
00001057  D9C9              fxch
00001059  DAE9              fucompp
0000105B  DFE0              fnstsw ax
0000105D  F6C445            test ah,0x45
00001060  7526              jnz 0x1088
00001062  C74424041A920408  mov dword [esp+0x4],0x804921a
0000106A  C7042460A50408    mov dword [esp],0x804a560
00001071  E86AF6FFFF        call 0x1000006e0
00001076  C744240410870408  mov dword [esp+0x4],0x8048710
0000107E  890424            mov [esp],eax
00001081  E87AF6FFFF        call 0x100000700
00001086  EB24              jmp short 0x10ac
00001088  C74424041E920408  mov dword [esp+0x4],0x804921e
00001090  C7042460A50408    mov dword [esp],0x804a560
00001097  E844F6FFFF        call 0x1000006e0
0000109C  C744240410870408  mov dword [esp+0x4],0x8048710
000010A4  890424            mov [esp],eax
000010A7  E854F6FFFF        call 0x100000700
000010AC  FF84241C5E0000    inc dword [esp+0x5e1c]
000010B3  8B8424E45D0000    mov eax,[esp+0x5de4]
000010BA  3984241C5E0000    cmp [esp+0x5e1c],eax
000010C1  0F8E4DFCFFFF      jng near 0x100000d14
000010C7  B800000000        mov eax,0x0
000010CC  EB0C              jmp short 0x10da
000010CE  EB02              jmp short 0x10d2
000010D0  EB00              jmp short 0x10d2
000010D2  890424            mov [esp],eax
000010D5  E856F6FFFF        call 0x100000730
000010DA  8D65F4            lea esp,[ebp-0xc]
000010DD  5B                pop ebx
000010DE  5E                pop esi
000010DF  5F                pop edi
000010E0  5D                pop ebp
000010E1  C3                ret
000010E2  55                push ebp
000010E3  89E5              mov ebp,esp
000010E5  83EC18            sub esp,byte +0x18
000010E8  837D0801          cmp dword [ebp+0x8],byte +0x1
000010EC  7531              jnz 0x111f
000010EE  817D0CFFFF0000    cmp dword [ebp+0xc],0xffff
000010F5  7528              jnz 0x111f
000010F7  C7042400DC7209    mov dword [esp],0x972dc00
000010FE  E8ADF5FFFF        call 0x1000006b0
00001103  C7442408B8A40408  mov dword [esp+0x8],0x804a4b8
0000110B  C744240400DC7209  mov dword [esp+0x4],0x972dc00
00001113  C70424D0860408    mov dword [esp],0x80486d0
0000111A  E871F5FFFF        call 0x100000690
0000111F  C9                leave
00001120  C3                ret
00001121  55                push ebp
00001122  89E5              mov ebp,esp
00001124  83EC18            sub esp,byte +0x18
00001127  C7442404FFFF0000  mov dword [esp+0x4],0xffff
0000112F  C7042401000000    mov dword [esp],0x1
00001136  E8A7FFFFFF        call 0x1000010e2
0000113B  C9                leave
0000113C  C3                ret
0000113D  6690              o16 nop
0000113F  90                nop
00001140  55                push ebp
00001141  89E5              mov ebp,esp
00001143  5D                pop ebp
00001144  C3                ret
00001145  66                db 0x66
00001146  66                db 0x66
00001147  2E                db 0x2E
00001148  0F                db 0x0F
00001149  1F                pop ds
0000114A  8400              test [eax],al
0000114C  0000              add [eax],al
0000114E  0000              add [eax],al
00001150  55                push ebp
00001151  89E5              mov ebp,esp
00001153  57                push edi
00001154  56                push esi
00001155  53                push ebx
00001156  E84F000000        call 0x11aa
0000115B  81C31D130000      add ebx,0x131d
00001161  83EC1C            sub esp,byte +0x1c
00001164  E8D3F4FFFF        call 0x10000063c
00001169  8DBB04FFFFFF      lea edi,[ebx+0xffffff04]
0000116F  8D8304FFFFFF      lea eax,[ebx+0xffffff04]
00001175  29C7              sub edi,eax
00001177  C1FF02            sar edi,0x2
0000117A  85FF              test edi,edi
0000117C  7424              jz 0x11a2
0000117E  31F6              xor esi,esi
00001180  8B4510            mov eax,[ebp+0x10]
00001183  89442408          mov [esp+0x8],eax
00001187  8B450C            mov eax,[ebp+0xc]
0000118A  89442404          mov [esp+0x4],eax
0000118E  8B4508            mov eax,[ebp+0x8]
00001191  890424            mov [esp],eax
00001194  FF94B304FFFFFF    call near [ebx+esi*4+0xffffff04]
0000119B  83C601            add esi,byte +0x1
0000119E  39FE              cmp esi,edi
000011A0  72DE              jc 0x1180
000011A2  83C41C            add esp,byte +0x1c
000011A5  5B                pop ebx
000011A6  5E                pop esi
000011A7  5F                pop edi
000011A8  5D                pop ebp
000011A9  C3                ret
000011AA  8B1C24            mov ebx,[esp]
000011AD  C3                ret
000011AE  6690              o16 nop
000011B0  55                push ebp
000011B1  89E5              mov ebp,esp
000011B3  53                push ebx
000011B4  52                push edx
000011B5  BB80A30408        mov ebx,0x804a380
000011BA  A180A30408        mov eax,[0x804a380]
000011BF  83F8FF            cmp eax,byte -0x1
000011C2  7410              jz 0x11d4
000011C4  8D742600          lea esi,[esi+0x0]
000011C8  83EB04            sub ebx,byte +0x4
000011CB  FFD0              call eax
000011CD  8B03              mov eax,[ebx]
000011CF  83F8FF            cmp eax,byte -0x1
000011D2  75F4              jnz 0x11c8
000011D4  58                pop eax
000011D5  5B                pop ebx
000011D6  5D                pop ebp
000011D7  C3                ret
000011D8  55                push ebp
000011D9  89E5              mov ebp,esp
000011DB  53                push ebx
000011DC  83EC04            sub esp,byte +0x4
000011DF  E800000000        call 0x11e4
000011E4  5B                pop ebx
000011E5  81C394120000      add ebx,0x1294
000011EB  E8F0F5FFFF        call 0x1000007e0
000011F0  59                pop ecx
000011F1  5B                pop ebx
000011F2  C9                leave
000011F3  C3                ret
000011F4  0000              add [eax],al
000011F6  0000              add [eax],al
000011F8  0000              add [eax],al
000011FA  0000              add [eax],al
000011FC  0000              add [eax],al
000011FE  0000              add [eax],al
00001200  0300              add eax,[eax]
00001202  0000              add [eax],al
00001204  0100              add [eax],eax
00001206  0200              add al,[eax]
00001208  0000              add [eax],al
0000120A  0000              add [eax],al
0000120C  0000              add [eax],al
0000120E  0000              add [eax],al
00001210  43                inc ebx
00001211  61                popa
00001212  7365              jnc 0x1279
00001214  2023              and [ebx],ah
00001216  003A              add [edx],bh
00001218  2000              and [eax],al
0000121A  42                inc edx
0000121B  41                inc ecx
0000121C  44                inc esp
0000121D  00474F            add [edi+0x4f],al
00001220  4F                dec edi
00001221  44                inc esp
00001222  0000              add [eax],al
00001224  E803000000        call 0x122c
00001229  0000              add [eax],al
0000122B  0000              add [eax],al
0000122D  0000              add [eax],al
0000122F  0000              add [eax],al
00001231  0000              add [eax],al
00001233  0000              add [eax],al
00001235  0000              add [eax],al
00001237  FA                cli
00001238  084000            or [eax+0x0],al
0000123B  0000              add [eax],al
0000123D  0000              add [eax],al
0000123F  0000              add [eax],al
00001241  0000              add [eax],al
00001243  0000              add [eax],al
00001245  00C0              add al,al
00001247  F9                stc
00001248  084000            or [eax+0x0],al
0000124B  0000              add [eax],al
0000124D  0000              add [eax],al
0000124F  0000              add [eax],al
00001251  0000              add [eax],al
00001253  0000              add [eax],al
00001255  0000              add [eax],al
00001257  80FE3F            cmp dh,0x3f
0000125A  0000              add [eax],al
0000125C  011B              add [ebx],ebx
0000125E  033B              add edi,[ebx]
00001260  2800              sub [eax],al
00001262  0000              add [eax],al
00001264  0400              add al,0x0
00001266  0000              add [eax],al
00001268  14F4              adc al,0xf4
0000126A  FF                db 0xFF
0000126B  FF440000          inc dword [eax+eax+0x0]
0000126F  0004F6            add [esi+esi*8],al
00001272  FF                db 0xFF
00001273  FF8800000086      dec dword [eax+0x86000000]
00001279  FE                db 0xFE
0000127A  FF                db 0xFF
0000127B  FF                db 0xFF
0000127C  BC000000C5        mov esp,0xc5000000
00001281  FE                db 0xFE
00001282  FF                db 0xFF
00001283  FF                db 0xFF
00001284  DC00              fadd qword [eax]
00001286  0000              add [eax],al
00001288  1400              adc al,0x0
0000128A  0000              add [eax],al
0000128C  0000              add [eax],al
0000128E  0000              add [eax],al
00001290  017A52            add [edx+0x52],edi
00001293  0001              add [ecx],al
00001295  7C08              jl 0x129f
00001297  011B              add [ebx],ebx
00001299  0C04              or al,0x4
0000129B  0488              add al,0x88
0000129D  0100              add [eax],eax
0000129F  0020              add [eax],ah
000012A1  0000              add [eax],al
000012A3  001C00            add [eax+eax],bl
000012A6  0000              add [eax],al
000012A8  C8F3FFFF          enter 0xfff3,0xff
000012AC  D000              rol byte [eax],1
000012AE  0000              add [eax],al
000012B0  000E              add [esi],cl
000012B2  08460E            or [esi+0xe],al
000012B5  0C4A              or al,0x4a
000012B7  0F0B              ud2
000012B9  7404              jz 0x12bf
000012BB  7800              js 0x12bd
000012BD  3F                aas
000012BE  1A3B              sbb bh,[ebx]
000012C0  2A32              sub dh,[edx]
000012C2  2422              and al,0x22
000012C4  1C00              sbb al,0x0
000012C6  0000              add [eax],al
000012C8  0000              add [eax],al
000012CA  0000              add [eax],al
000012CC  017A50            add [edx+0x50],edi
000012CF  4C                dec esp
000012D0  52                push edx
000012D1  0001              add [ecx],al
000012D3  7C08              jl 0x12dd
000012D5  07                pop es
000012D6  0020              add [eax],ah
000012D8  870408            xchg eax,[eax+ecx]
000012DB  001B              add [ebx],bl
000012DD  0C04              or al,0x4
000012DF  0488              add al,0x88
000012E1  0100              add [eax],eax
000012E3  0030              add [eax],dh
000012E5  0000              add [eax],al
000012E7  002400            add [eax+eax],ah
000012EA  0000              add [eax],al
000012EC  74F5              jz 0x12e3
000012EE  FF                db 0xFF
000012EF  FF8208000004      inc dword [edx+0x4000008]
000012F5  5C                pop esp
000012F6  93                xchg eax,ebx
000012F7  0408              add al,0x8
000012F9  41                inc ecx
000012FA  0E                push cs
000012FB  088502420D05      or [ebp+0x50d4202],al
00001301  4C                dec esp
00001302  8703              xchg eax,[ebx]
00001304  860483            xchg al,[ebx+eax*4]
00001307  05036F08C3        add eax,0xc3086f03
0000130C  41                inc ecx
0000130D  C641C741          mov byte [ecx-0x39],0x41
00001311  C50C04            lds ecx,[esp+eax]
00001314  0400              add al,0x0
00001316  0000              add [eax],al
00001318  1C00              sbb al,0x0
0000131A  0000              add [eax],al
0000131C  94                xchg eax,esp
0000131D  0000              add [eax],al
0000131F  00C2              add dl,al
00001321  FD                std
00001322  FF                db 0xFF
00001323  FF                db 0xFF
00001324  3F                aas
00001325  0000              add [eax],al
00001327  0000              add [eax],al
00001329  41                inc ecx
0000132A  0E                push cs
0000132B  088502420D05      or [ebp+0x50d4202],al
00001331  7BC5              jpo 0x12f8
00001333  0C04              or al,0x4
00001335  0400              add al,0x0
00001337  001C00            add [eax+eax],bl
0000133A  0000              add [eax],al
0000133C  B400              mov ah,0x0
0000133E  0000              add [eax],al
00001340  E1FD              loope 0x133f
00001342  FF                db 0xFF
00001343  FF1C00            call far [eax+eax]
00001346  0000              add [eax],al
00001348  00410E            add [ecx+0xe],al
0000134B  088502420D05      or [ebp+0x50d4202],al
00001351  58                pop eax
00001352  C50C04            lds ecx,[esp+eax]
00001355  0400              add al,0x0
00001357  0000              add [eax],al
00001359  0000              add [eax],al
0000135B  00FF              add bh,bh
0000135D  FF01              inc dword [ecx]
0000135F  1C21              sbb al,0x21
00001361  05F21000C3        add eax,0xc30010f2
00001366  093F              or [edi],edi
00001368  F01000            lock adc [eax],al
0000136B  BA0C05EE10        mov edx,0x10ee050c
00001370  0091103BF010      add [ecx+0x10f03b10],dl
00001376  00F5              add ch,dh
00001378  10050000FFFF      adc [0xffff0000],al
0000137E  FF                db 0xFF
0000137F  FF21              jmp near [ecx]
00001381  91                xchg eax,ecx
00001382  0408              add al,0x8
00001384  0000              add [eax],al
00001386  0000              add [eax],al
00001388  FF                db 0xFF
00001389  FF                db 0xFF
0000138A  FF                db 0xFF
0000138B  FF00              inc dword [eax]
0000138D  0000              add [eax],al
0000138F  0000              add [eax],al
00001391  0000              add [eax],al
00001393  0001              add [ecx],al
00001395  0000              add [eax],al
00001397  0001              add [ecx],al
00001399  0000              add [eax],al
0000139B  0001              add [ecx],al
0000139D  0000              add [eax],al
0000139F  005A01            add [edx+0x1],bl
000013A2  0000              add [eax],al
000013A4  0100              add [eax],eax
000013A6  0000              add [eax],al
000013A8  640100            add [fs:eax],eax
000013AB  0001              add [ecx],al
000013AD  0000              add [eax],al
000013AF  00810100000C      add [ecx+0xc000001],al
000013B5  0000              add [eax],al
000013B7  003C86            add [esi+eax*4],bh
000013BA  0408              add al,0x8
000013BC  0D000000D8        or eax,0xd8000000
000013C1  91                xchg eax,ecx
000013C2  0408              add al,0x8
000013C4  0400              add al,0x0
000013C6  0000              add [eax],al
000013C8  6881040805        push dword 0x5080481
000013CD  0000              add [eax],al
000013CF  0030              add [eax],dh
000013D1  83040806          add dword [eax+ecx],byte +0x6
000013D5  0000              add [eax],al
000013D7  0000              add [eax],al
000013D9  82                db 0x82
000013DA  0408              add al,0x8
000013DC  0A00              or al,[eax]
000013DE  0000              add [eax],al
000013E0  EE                out dx,al
000013E1  0100              add [eax],eax
000013E3  000B              add [ebx],cl
000013E5  0000              add [eax],al
000013E7  0010              add [eax],dl
000013E9  0000              add [eax],al
000013EB  001500000000      add [0x0],dl
000013F1  0000              add [eax],al
000013F3  0003              add [ebx],al
000013F5  0000              add [eax],al
000013F7  0078A4            add [eax-0x5c],bh
000013FA  0408              add al,0x8
000013FC  0200              add al,[eax]
000013FE  0000              add [eax],al
00001400  60                pusha
00001401  0000              add [eax],al
00001403  001400            add [eax+eax],dl
00001406  0000              add [eax],al
00001408  1100              adc [eax],eax
0000140A  0000              add [eax],al
0000140C  17                pop ss
0000140D  0000              add [eax],al
0000140F  00DC              add ah,bl
00001411  850408            test [eax+ecx],eax
00001414  1100              adc [eax],eax
00001416  0000              add [eax],al
00001418  C48504081200      les eax,[ebp+0x120804]
0000141E  0000              add [eax],al
00001420  1800              sbb [eax],al
00001422  0000              add [eax],al
00001424  1300              adc eax,[eax]
00001426  0000              add [eax],al
00001428  0800              or [eax],al
0000142A  0000              add [eax],al
0000142C  FE                db 0xFE
0000142D  FF                db 0xFF
0000142E  FF6F44            jmp far [edi+0x44]
00001431  850408            test [eax+ecx],eax
00001434  FF                db 0xFF
00001435  FF                db 0xFF
00001436  FF6F03            jmp far [edi+0x3]
00001439  0000              add [eax],al
0000143B  00F0              add al,dh
0000143D  FF                db 0xFF
0000143E  FF6F1E            jmp far [edi+0x1e]
00001441  850408            test [eax+ecx],eax
00001444  0000              add [eax],al
00001446  0000              add [eax],al
00001448  0000              add [eax],al
0000144A  0000              add [eax],al
0000144C  0000              add [eax],al
0000144E  0000              add [eax],al
00001450  0000              add [eax],al
00001452  0000              add [eax],al
00001454  0000              add [eax],al
00001456  0000              add [eax],al
00001458  0000              add [eax],al
0000145A  0000              add [eax],al
0000145C  0000              add [eax],al
0000145E  0000              add [eax],al
00001460  0000              add [eax],al
00001462  0000              add [eax],al
00001464  0000              add [eax],al
00001466  0000              add [eax],al
00001468  0000              add [eax],al
0000146A  0000              add [eax],al
0000146C  0000              add [eax],al
0000146E  0000              add [eax],al
00001470  0000              add [eax],al
00001472  0000              add [eax],al
00001474  0000              add [eax],al
00001476  0000              add [eax],al
00001478  94                xchg eax,esp
00001479  A304080000        mov [0x804],eax
0000147E  0000              add [eax],al
00001480  0000              add [eax],al
00001482  0000              add [eax],al
00001484  868604089686      xchg al,[esi+0x86960804]
0000148A  0408              add al,0x8
0000148C  A6                cmpsb
0000148D  860408            xchg al,[eax+ecx]
00001490  B686              mov dh,0x86
00001492  0408              add al,0x8
00001494  C6860408D68604    mov byte [esi+0x86d60804],0x4
0000149B  08E6              or dh,ah
0000149D  860408            xchg al,[eax+ecx]
000014A0  F6860408068704    test byte [esi+0x87060804],0x4
000014A7  0816              or [esi],dl
000014A9  870408            xchg eax,[eax+ecx]
000014AC  26870408          xchg eax,[es:eax+ecx]
000014B0  36870408          xchg eax,[ss:eax+ecx]
000014B4  0000              add [eax],al
000014B6  0000              add [eax],al
000014B8  0000              add [eax],al
000014BA  0000              add [eax],al
000014BC  47                inc edi
000014BD  43                inc ebx
000014BE  43                inc ebx
000014BF  3A20              cmp ah,[eax]
000014C1  285562            sub [ebp+0x62],dl
000014C4  756E              jnz 0x1534
000014C6  7475              jz 0x153d
000014C8  20342E            and [esi+ebp],dh
000014CB  342E              xor al,0x2e
000014CD  332D34756275      xor ebp,[0x75627534]
000014D3  6E                outsb
000014D4  7475              jz 0x154b
000014D6  352920342E        xor eax,0x2e342029
000014DB  342E              xor al,0x2e
000014DD  3300              xor eax,[eax]
000014DF  47                inc edi
000014E0  43                inc ebx
000014E1  43                inc ebx
000014E2  3A20              cmp ah,[eax]
000014E4  28474E            sub [edi+0x4e],al
000014E7  55                push ebp
000014E8  2920              sub [eax],esp
000014EA  342E              xor al,0x2e
000014EC  382E              cmp [esi],ch
000014EE  3100              xor [eax],eax
000014F0  1C00              sbb al,0x0
000014F2  0000              add [eax],al
000014F4  0200              add al,[eax]
000014F6  0000              add [eax],al
000014F8  0000              add [eax],al
000014FA  0400              add al,0x0
000014FC  0000              add [eax],al
000014FE  0000              add [eax],al
00001500  40                inc eax
00001501  870408            xchg eax,[eax+ecx]
00001504  2200              and al,[eax]
00001506  0000              add [eax],al
00001508  0000              add [eax],al
0000150A  0000              add [eax],al
0000150C  0000              add [eax],al
0000150E  0000              add [eax],al
00001510  1C00              sbb al,0x0
00001512  0000              add [eax],al
00001514  0200              add al,[eax]
00001516  0E                push cs
00001517  0100              add [eax],eax
00001519  000400            add [eax+eax],al
0000151C  0000              add [eax],al
0000151E  0000              add [eax],al
00001520  40                inc eax
00001521  91                xchg eax,ecx
00001522  0408              add al,0x8
00001524  6A00              push byte +0x0
00001526  0000              add [eax],al
00001528  0000              add [eax],al
0000152A  0000              add [eax],al
0000152C  0000              add [eax],al
0000152E  0000              add [eax],al
00001530  2100              and [eax],eax
00001532  0000              add [eax],al
00001534  0200              add al,[eax]
00001536  810000008D00      add dword [eax],0x8d0000
0000153C  0000              add [eax],al
0000153E  7500              jnz 0x1540
00001540  0000              add [eax],al
00001542  5F                pop edi
00001543  49                dec ecx
00001544  4F                dec edi
00001545  5F                pop edi
00001546  7374              jnc 0x15bc
00001548  64696E5F75736564  imul ebp,[fs:esi+0x5f],dword 0x64657375
00001550  0000              add [eax],al
00001552  0000              add [eax],al
00001554  0036              add [esi],dh
00001556  0000              add [eax],al
00001558  0002              add [edx],al
0000155A  000E              add [esi],cl
0000155C  0100              add [eax],eax
0000155E  0013              add [ebx],dl
00001560  0100              add [eax],eax
00001562  003E              add [esi],bh
00001564  0000              add [eax],al
00001566  005F5F            add [edi+0x5f],bl
00001569  6C                insb
0000156A  6962635F637375    imul esp,[edx+0x63],dword 0x7573635f
00001571  5F                pop edi
00001572  66696E690053      imul bp,[esi+0x69],word 0x5300
00001578  0000              add [eax],al
0000157A  005F5F            add [edi+0x5f],bl
0000157D  6C                insb
0000157E  6962635F637375    imul esp,[edx+0x63],dword 0x7573635f
00001585  5F                pop edi
00001586  696E6974000000    imul ebp,[esi+0x69],dword 0x74
0000158D  0000              add [eax],al
0000158F  7D00              jnl 0x1591
00001591  0000              add [eax],al
00001593  0200              add al,[eax]
00001595  0000              add [eax],al
00001597  0000              add [eax],al
00001599  0401              add al,0x1
0000159B  0000              add [eax],al
0000159D  0000              add [eax],al
0000159F  40                inc eax
000015A0  870408            xchg eax,[eax+ecx]
000015A3  628704082E2E      bound eax,[edi+0x2e2e0804]
000015A9  2F                das
000015AA  7379              jnc 0x1625
000015AC  7364              jnc 0x1612
000015AE  657073            gs jo 0x1624
000015B1  2F                das
000015B2  693338362F65      imul esi,[ebx],dword 0x652f3638
000015B8  6C                insb
000015B9  662F              o16 das
000015BB  7374              jnc 0x1631
000015BD  61                popa
000015BE  7274              jc 0x1634
000015C0  2E53              cs push ebx
000015C2  002F              add [edi],ch
000015C4  686F6D652F        push dword 0x2f656d6f
000015C9  7069              jo 0x1634
000015CB  657272            gs jc 0x1640
000015CE  652F              gs das
000015D0  42                inc edx
000015D1  7572              jnz 0x1645
000015D3  6561              gs popa
000015D5  752F              jnz 0x1606
000015D7  6865616465        push dword 0x65646165
000015DC  7273              jc 0x1651
000015DE  2D676C6962        sub eax,0x62696c67
000015E3  632D666F722D      arpl [0x2d726f66],bp
000015E9  6C                insb
000015EA  696E75782F676C    imul ebp,[esi+0x75],dword 0x6c672f78
000015F1  6962632D322E31    imul esp,[edx+0x63],dword 0x312e322d
000015F8  322E              xor ch,[esi]
000015FA  322F              xor ch,[edi]
000015FC  637375            arpl [ebx+0x75],si
000015FF  00474E            add [edi+0x4e],al
00001602  55                push ebp
00001603  204153            and [ecx+0x53],al
00001606  2032              and [edx],dh
00001608  2E3230            xor dh,[cs:eax]
0000160B  2E3100            xor [cs:eax],eax
0000160E  018089000000      add [eax+0x89],eax
00001614  0200              add al,[eax]
00001616  1400              adc al,0x0
00001618  0000              add [eax],al
0000161A  0401              add al,0x1
0000161C  8E00              mov es,[eax]
0000161E  0000              add [eax],al
00001620  01CD              add ebp,ecx
00001622  0000              add [eax],al
00001624  004300            add [ebx+0x0],al
00001627  0000              add [eax],al
00001629  64870408          xchg eax,[fs:eax+ecx]
0000162D  64870408          xchg eax,[fs:eax+ecx]
00001631  5B                pop ebx
00001632  0000              add [eax],al
00001634  0002              add [edx],al
00001636  0108              add [eax],ecx
00001638  800000            add byte [eax],0x0
0000163B  0002              add [edx],al
0000163D  0207              add al,[edi]
0000163F  0000              add [eax],al
00001641  0000              add [eax],al
00001643  020407            add al,[edi+eax]
00001646  360000            add [ss:eax],al
00001649  0002              add [edx],al
0000164B  0407              add al,0x7
0000164D  3100              xor [eax],eax
0000164F  0000              add [eax],al
00001651  0201              add al,[ecx]
00001653  06                push es
00001654  82                db 0x82
00001655  0000              add [eax],al
00001657  0002              add [edx],al
00001659  020513000000      add al,[0x13]
0000165F  030405696E7400    add eax,[eax+0x746e69]
00001666  0208              add cl,[eax]
00001668  059A000000        add eax,0x9a
0000166D  0208              add cl,[eax]
0000166F  07                pop es
00001670  2C00              sub al,0x0
00001672  0000              add [eax],al
00001674  0204059F000000    add al,[eax+0x9f]
0000167B  0404              add al,0x4
0000167D  07                pop es
0000167E  0201              add al,[ecx]
00001680  06                push es
00001681  8900              mov [eax],eax
00001683  0000              add [eax],al
00001685  051D000000        add eax,0x1d
0000168A  0119              add [ecx],ebx
0000168C  8700              xchg eax,[eax]
0000168E  0000              add [eax],al
00001690  010503049204      add [0x4920403],eax
00001696  0806              or [esi],al
00001698  4F                dec edi
00001699  0000              add [eax],al
0000169B  0000              add [eax],al
0000169D  0F0100            sgdt [eax]
000016A0  0002              add [edx],al
000016A2  005F00            add [edi+0x0],bl
000016A5  0000              add [eax],al
000016A7  0401              add al,0x1
000016A9  8E00              mov es,[eax]
000016AB  0000              add [eax],al
000016AD  01C9              add ecx,ecx
000016AF  0000              add [eax],al
000016B1  004300            add [ebx+0x0],al
000016B4  0000              add [eax],al
000016B6  40                inc eax
000016B7  91                xchg eax,ecx
000016B8  0408              add al,0x8
000016BA  AA                stosb
000016BB  91                xchg eax,ecx
000016BC  0408              add al,0x8
000016BE  82                db 0x82
000016BF  0000              add [eax],al
000016C1  0002              add [edx],al
000016C3  0405              add al,0x5
000016C5  696E740003AD00    imul ebp,[esi+0x74],dword 0xad0300
000016CC  0000              add [eax],al
000016CE  02D3              add dl,bl
000016D0  37                aaa
000016D1  0000              add [eax],al
000016D3  000404            add [esp+eax],al
000016D6  07                pop es
000016D7  360000            add [ss:eax],al
000016DA  000501FD0000      add [0xfd01],al
000016E0  0001              add [ecx],al
000016E2  830140            add dword [ecx],byte +0x40
000016E5  91                xchg eax,ecx
000016E6  0408              add al,0x8
000016E8  45                inc ebp
000016E9  91                xchg eax,ecx
000016EA  0408              add al,0x8
000016EC  0000              add [eax],al
000016EE  0000              add [eax],al
000016F0  06                push es
000016F1  01B900000001      add [ecx+0x1000000],edi
000016F7  690150910408      imul eax,[ecx],dword 0x8049150
000016FD  AA                stosb
000016FE  91                xchg eax,ecx
000016FF  0408              add al,0x8
00001701  2C00              sub al,0x0
00001703  0000              add [eax],al
00001705  B900000007        mov ecx,0x7000000
0000170A  B400              mov ah,0x0
0000170C  0000              add [eax],al
0000170E  016925            add [ecx+0x25],ebp
00001711  0000              add [eax],al
00001713  0002              add [edx],al
00001715  91                xchg eax,ecx
00001716  0007              add [edi],al
00001718  0D01000001        or eax,0x1000001
0000171D  69B9000000029104  imul edi,[ecx+0x2000000],dword 0xa8070491
         -07A8
00001727  0000              add [eax],al
00001729  0001              add [ecx],al
0000172B  69B9000000029108  imul edi,[ecx+0x2000000],dword 0xe7080891
         -08E7
00001735  0000              add [eax],al
00001737  0001              add [ecx],al
00001739  7ACC              jpe 0x1707
0000173B  0000              add [eax],al
0000173D  0009              add [ecx],cl
0000173F  69910408A2910408  imul edx,[ecx+0x91a20804],dword 0x690a0804
         -0A69
00001749  0001              add [ecx],al
0000174B  7B2C              jpo 0x1779
0000174D  0000              add [eax],al
0000174F  005800            add [eax+0x0],bl
00001752  0000              add [eax],al
00001754  0000              add [eax],al
00001756  0B04BF            or eax,[edi+edi*4]
00001759  0000              add [eax],al
0000175B  000B              add [ebx],cl
0000175D  04C5              add al,0xc5
0000175F  0000              add [eax],al
00001761  000401            add [ecx+eax],al
00001764  06                push es
00001765  8900              mov [eax],eax
00001767  0000              add [eax],al
00001769  0C2C              or al,0x2c
0000176B  0000              add [eax],al
0000176D  000DF2000000      add [0xf2],cl
00001773  DC00              fadd qword [eax]
00001775  0000              add [eax],al
00001777  0E                push cs
00001778  000F              add [edi],cl
0000177A  01F2              add edx,esi
0000177C  0000              add [eax],al
0000177E  0010              add [eax],dl
00001780  2500000010        and eax,0x10000000
00001785  B900000010        mov ecx,0x10000000
0000178A  B900000000        mov ecx,0x0
0000178F  0B04DC            or eax,[esp+ebx*8]
00001792  0000              add [eax],al
00001794  0011              add [ecx],dl
00001796  D400              aam 0x0
00001798  0000              add [eax],al
0000179A  013B              add [ebx],edi
0000179C  D100              rol dword [eax],1
0000179E  0000              add [eax],al
000017A0  0101              add [ecx],eax
000017A2  11EC              adc esp,ebp
000017A4  0000              add [eax],al
000017A6  0001              add [ecx],al
000017A8  3DD1000000        cmp eax,0xd1
000017AD  0101              add [ecx],eax
000017AF  0001              add [ecx],al
000017B1  1100              adc [eax],eax
000017B3  1006              adc [esi],al
000017B5  1101              adc [ecx],eax
000017B7  1201              adc al,[ecx]
000017B9  0308              add ecx,[eax]
000017BB  1B08              sbb ecx,[eax]
000017BD  2508130500        and eax,0x51308
000017C2  0000              add [eax],al
000017C4  0111              add [ecx],edx
000017C6  01250E130B03      add [0x30b130e],esp
000017CC  0E                push cs
000017CD  1B0E              sbb ecx,[esi]
000017CF  1101              adc [ecx],eax
000017D1  1201              adc al,[ecx]
000017D3  1006              adc [esi],al
000017D5  0000              add [eax],al
000017D7  022400            add ah,[eax+eax]
000017DA  0B0B              or ecx,[ebx]
000017DC  3E0B03            or eax,[ds:ebx]
000017DF  0E                push cs
000017E0  0000              add [eax],al
000017E2  032400            add esp,[eax+eax]
000017E5  0B0B              or ecx,[ebx]
000017E7  3E0B03            or eax,[ds:ebx]
000017EA  0800              or [eax],al
000017EC  000424            add [esp],al
000017EF  000B              add [ebx],cl
000017F1  0B3E              or edi,[esi]
000017F3  0B00              or eax,[eax]
000017F5  00053400030E      add [0xe030034],al
000017FB  3A0B              cmp cl,[ebx]
000017FD  3B0B              cmp ecx,[ebx]
000017FF  49                dec ecx
00001800  133F              adc edi,[edi]
00001802  0C02              or al,0x2
00001804  0A00              or al,[eax]
00001806  0006              add [esi],al
00001808  26004913          add [es:ecx+0x13],cl
0000180C  0000              add [eax],al
0000180E  0001              add [ecx],al
00001810  1101              adc [ecx],eax
00001812  250E130B03        and eax,0x30b130e
00001817  0E                push cs
00001818  1B0E              sbb ecx,[esi]
0000181A  1101              adc [ecx],eax
0000181C  1201              adc al,[ecx]
0000181E  1006              adc [esi],al
00001820  0000              add [eax],al
00001822  022400            add ah,[eax+eax]
00001825  0B0B              or ecx,[ebx]
00001827  3E0B03            or eax,[ds:ebx]
0000182A  0800              or [eax],al
0000182C  0003              add [ebx],al
0000182E  16                push ss
0000182F  0003              add [ebx],al
00001831  0E                push cs
00001832  3A0B              cmp cl,[ebx]
00001834  3B0B              cmp ecx,[ebx]
00001836  49                dec ecx
00001837  1300              adc eax,[eax]
00001839  000424            add [esp],al
0000183C  000B              add [ebx],cl
0000183E  0B3E              or edi,[esi]
00001840  0B03              or eax,[ebx]
00001842  0E                push cs
00001843  0000              add [eax],al
00001845  052E003F0C        add eax,0xc3f002e
0000184A  030E              add ecx,[esi]
0000184C  3A0B              cmp cl,[ebx]
0000184E  3B0B              cmp ecx,[ebx]
00001850  27                daa
00001851  0C11              or al,0x11
00001853  0112              add [edx],edx
00001855  014006            add [eax+0x6],eax
00001858  0000              add [eax],al
0000185A  06                push es
0000185B  2E013F            add [cs:edi],edi
0000185E  0C03              or al,0x3
00001860  0E                push cs
00001861  3A0B              cmp cl,[ebx]
00001863  3B0B              cmp ecx,[ebx]
00001865  27                daa
00001866  0C11              or al,0x11
00001868  0112              add [edx],edx
0000186A  014006            add [eax+0x6],eax
0000186D  0113              add [ebx],edx
0000186F  0000              add [eax],al
00001871  07                pop es
00001872  0500030E3A        add eax,0x3a0e0300
00001877  0B3B              or edi,[ebx]
00001879  0B4913            or ecx,[ecx+0x13]
0000187C  020A              add cl,[edx]
0000187E  0000              add [eax],al
00001880  083400            or [eax+eax],dh
00001883  030E              add ecx,[esi]
00001885  3A0B              cmp cl,[ebx]
00001887  3B0B              cmp ecx,[ebx]
00001889  49                dec ecx
0000188A  1300              adc eax,[eax]
0000188C  0009              add [ecx],cl
0000188E  0B01              or eax,[ecx]
00001890  1101              adc [ecx],eax
00001892  1201              adc al,[ecx]
00001894  0000              add [eax],al
00001896  0A3400            or dh,[eax+eax]
00001899  0308              add ecx,[eax]
0000189B  3A0B              cmp cl,[ebx]
0000189D  3B0B              cmp ecx,[ebx]
0000189F  49                dec ecx
000018A0  1302              adc eax,[edx]
000018A2  06                push es
000018A3  0000              add [eax],al
000018A5  0B0F              or ecx,[edi]
000018A7  000B              add [ebx],cl
000018A9  0B4913            or ecx,[ecx+0x13]
000018AC  0000              add [eax],al
000018AE  0C26              or al,0x26
000018B0  004913            add [ecx+0x13],cl
000018B3  0000              add [eax],al
000018B5  0D01014913        or eax,0x13490101
000018BA  0113              add [ebx],edx
000018BC  0000              add [eax],al
000018BE  0E                push cs
000018BF  2100              and [eax],eax
000018C1  0000              add [eax],al
000018C3  0F1501            unpckhps xmm0,[ecx]
000018C6  27                daa
000018C7  0C01              or al,0x1
000018C9  1300              adc eax,[eax]
000018CB  0010              add [eax],dl
000018CD  0500491300        add eax,0x134900
000018D2  0011              add [ecx],dl
000018D4  3400              xor al,0x0
000018D6  030E              add ecx,[esi]
000018D8  3A0B              cmp cl,[ebx]
000018DA  3B0B              cmp ecx,[ebx]
000018DC  49                dec ecx
000018DD  133F              adc edi,[edi]
000018DF  0C3C              or al,0x3c
000018E1  0C00              or al,0x0
000018E3  0000              add [eax],al
000018E5  57                push edi
000018E6  0000              add [eax],al
000018E8  0002              add [edx],al
000018EA  0032              add [edx],dh
000018EC  0000              add [eax],al
000018EE  0001              add [ecx],al
000018F0  01FB              add ebx,edi
000018F2  0E                push cs
000018F3  0D00010101        or eax,0x1010100
000018F8  0100              add [eax],eax
000018FA  0000              add [eax],al
000018FC  0100              add [eax],eax
000018FE  0001              add [ecx],al
00001900  2E2E2F            cs das
00001903  7379              jnc 0x197e
00001905  7364              jnc 0x196b
00001907  657073            gs jo 0x197d
0000190A  2F                das
0000190B  693338362F65      imul esi,[ebx],dword 0x652f3638
00001911  6C                insb
00001912  660000            o16 add [eax],al
00001915  7374              jnc 0x198b
00001917  61                popa
00001918  7274              jc 0x198e
0000191A  2E53              cs push ebx
0000191C  0001              add [ecx],al
0000191E  0000              add [eax],al
00001920  0000              add [eax],al
00001922  0502408704        add eax,0x4874002
00001927  0803              or [ebx],al
00001929  C00001            rol byte [eax],0x1
0000192C  3321              xor esp,[ecx]
0000192E  343D              xor al,0x3d
00001930  2522031820        and eax,0x20180322
00001935  59                pop ecx
00001936  5A                pop edx
00001937  2122              and [edx],esp
00001939  5C                pop esp
0000193A  5B                pop ebx
0000193B  0201              add al,[ecx]
0000193D  0001              add [ecx],al
0000193F  0123              add [ebx],esp
00001941  0000              add [eax],al
00001943  0002              add [edx],al
00001945  001D00000001      add [0x1000000],bl
0000194B  01FB              add ebx,edi
0000194D  0E                push cs
0000194E  0D00010101        or eax,0x1010100
00001953  0100              add [eax],eax
00001955  0000              add [eax],al
00001957  0100              add [eax],eax
00001959  0001              add [ecx],al
0000195B  00696E            add [ecx+0x6e],ch
0000195E  69742E6300000000  imul esi,[esi+ebp+0x63],dword 0x0
00001966  007B00            add [ebx+0x0],bh
00001969  0000              add [eax],al
0000196B  0200              add al,[eax]
0000196D  57                push edi
0000196E  0000              add [eax],al
00001970  0001              add [ecx],al
00001972  01FB              add ebx,edi
00001974  0E                push cs
00001975  0D00010101        or eax,0x1010100
0000197A  0100              add [eax],eax
0000197C  0000              add [eax],al
0000197E  0100              add [eax],eax
00001980  0001              add [ecx],al
00001982  2F                das
00001983  7573              jnz 0x19f8
00001985  722F              jc 0x19b6
00001987  6C                insb
00001988  69622F6763632F    imul esp,[edx+0x2f],dword 0x2f636367
0000198F  693438362D6C69    imul esi,[eax+edi],dword 0x696c2d36
00001996  6E                outsb
00001997  7578              jnz 0x1a11
00001999  2D676E752F        sub eax,0x2f756e67
0000199E  342E              xor al,0x2e
000019A0  342E              xor al,0x2e
000019A2  332F              xor ebp,[edi]
000019A4  696E636C756465    imul ebp,[esi+0x63],dword 0x6564756c
000019AB  0000              add [eax],al
000019AD  656C              gs insb
000019AF  662D696E          sub ax,0x6e69
000019B3  69742E6300000000  imul esi,[esi+ebp+0x63],dword 0x0
000019BB  7374              jnc 0x1a31
000019BD  646465662E680001  cs push word 0x100
000019C5  0000              add [eax],al
000019C7  0000              add [eax],al
000019C9  0502409104        add eax,0x4914002
000019CE  0803              or [ebx],al
000019D0  830101            add dword [ecx],byte +0x1
000019D3  44                inc esp
000019D4  035EC8            add ebx,[esi-0x38]
000019D7  030E              add ecx,[esi]
000019D9  083C5B            or [ebx+ebx*2],bh
000019DC  086708            or [edi+0x8],ah
000019DF  9D                popf
000019E0  7602              jna 0x19e4
000019E2  0800              or [eax],al
000019E4  0101              add [ecx],eax
000019E6  0000              add [eax],al
000019E8  1000              adc [eax],al
000019EA  0000              add [eax],al
000019EC  FF                db 0xFF
000019ED  FF                db 0xFF
000019EE  FF                db 0xFF
000019EF  FF01              inc dword [ecx]
000019F1  0001              add [ecx],al
000019F3  7C08              jl 0x19fd
000019F5  0C04              or al,0x4
000019F7  0488              add al,0x88
000019F9  0100              add [eax],eax
000019FB  001400            add [eax+eax],dl
000019FE  0000              add [eax],al
00001A00  0000              add [eax],al
00001A02  0000              add [eax],al
00001A04  40                inc eax
00001A05  91                xchg eax,ecx
00001A06  0408              add al,0x8
00001A08  0500000041        add eax,0x41000000
00001A0D  0E                push cs
00001A0E  084285            or [edx-0x7b],al
00001A11  020D051C0000      add cl,[0x1c05]
00001A17  0000              add [eax],al
00001A19  0000              add [eax],al
00001A1B  005091            add [eax-0x6f],dl
00001A1E  0408              add al,0x8
00001A20  5A                pop edx
00001A21  0000              add [eax],al
00001A23  00410E            add [ecx+0xe],al
00001A26  084285            or [edx-0x7b],al
00001A29  020D054E8305      add cl,[0x5834e05]
00001A2F  860487            xchg al,[edi+eax*4]
00001A32  0300              add eax,[eax]
00001A34  7368              jnc 0x1a9e
00001A36  6F                outsd
00001A37  7274              jc 0x1aad
00001A39  20756E            and [ebp+0x6e],dh
00001A3C  7369              jnc 0x1aa7
00001A3E  676E              a16 outsb
00001A40  656420696E        and [fs:ecx+0x6e],ch
00001A45  7400              jz 0x1a47
00001A47  7368              jnc 0x1ab1
00001A49  6F                outsd
00001A4A  7274              jc 0x1ac0
00001A4C  20696E            and [ecx+0x6e],ch
00001A4F  7400              jz 0x1a51
00001A51  5F                pop edi
00001A52  49                dec ecx
00001A53  4F                dec edi
00001A54  5F                pop edi
00001A55  7374              jnc 0x1acb
00001A57  64696E5F75736564  imul ebp,[fs:esi+0x5f],dword 0x64657375
00001A5F  006C6F6E          add [edi+ebp*2+0x6e],ch
00001A63  67206C6F          and [si+0x6f],ch
00001A67  6E                outsb
00001A68  6720756E          and [di+0x6e],dh
00001A6C  7369              jnc 0x1ad7
00001A6E  676E              a16 outsb
00001A70  656420696E        and [fs:ecx+0x6e],ch
00001A75  7400              jz 0x1a77
00001A77  2F                das
00001A78  686F6D652F        push dword 0x2f656d6f
00001A7D  7069              jo 0x1ae8
00001A7F  657272            gs jc 0x1af4
00001A82  652F              gs das
00001A84  42                inc edx
00001A85  7572              jnz 0x1af9
00001A87  6561              gs popa
00001A89  752F              jnz 0x1aba
00001A8B  6865616465        push dword 0x65646165
00001A90  7273              jc 0x1b05
00001A92  2D676C6962        sub eax,0x62696c67
00001A97  632D666F722D      arpl [0x2d726f66],bp
00001A9D  6C                insb
00001A9E  696E75782F676C    imul ebp,[esi+0x75],dword 0x6c672f78
00001AA5  6962632D322E31    imul esp,[edx+0x63],dword 0x312e322d
00001AAC  322E              xor ch,[esi]
00001AAE  322F              xor ch,[edi]
00001AB0  637375            arpl [ebx+0x75],si
00001AB3  00756E            add [ebp+0x6e],dh
00001AB6  7369              jnc 0x1b21
00001AB8  676E              a16 outsb
00001ABA  6564206368        and [fs:ebx+0x68],ah
00001ABF  61                popa
00001AC0  7200              jc 0x1ac2
00001AC2  47                inc edi
00001AC3  4E                dec esi
00001AC4  55                push ebp
00001AC5  204320            and [ebx+0x20],al
00001AC8  342E              xor al,0x2e
00001ACA  342E              xor al,0x2e
00001ACC  3300              xor eax,[eax]
00001ACE  6C                insb
00001ACF  6F                outsd
00001AD0  6E                outsb
00001AD1  67206C6F          and [si+0x6f],ch
00001AD5  6E                outsb
00001AD6  6720696E          and [bx+di+0x6e],ch
00001ADA  7400              jz 0x1adc
00001ADC  656E              gs outsb
00001ADE  7670              jna 0x1b50
00001AE0  007369            add [ebx+0x69],dh
00001AE3  7A65              jpe 0x1b4a
00001AE5  5F                pop edi
00001AE6  7400              jz 0x1ae8
00001AE8  61                popa
00001AE9  7267              jc 0x1b52
00001AEB  6300              arpl [eax],ax
00001AED  5F                pop edi
00001AEE  5F                pop edi
00001AEF  6C                insb
00001AF0  6962635F637375    imul esp,[edx+0x63],dword 0x7573635f
00001AF7  5F                pop edi
00001AF8  696E697400656C    imul ebp,[esi+0x69],dword 0x6c650074
00001AFF  662D696E          sub ax,0x6e69
00001B03  69742E63005F5F69  imul esi,[esi+ebp+0x63],dword 0x695f5f00
00001B0B  6E                outsb
00001B0C  69745F6172726179  imul esi,[edi+ebx*2+0x61],dword 0x79617272
00001B14  5F                pop edi
00001B15  7374              jnc 0x1b8b
00001B17  61                popa
00001B18  7274              jc 0x1b8e
00001B1A  007369            add [ebx+0x69],dh
00001B1D  7A65              jpe 0x1b84
00001B1F  005F5F            add [edi+0x5f],bl
00001B22  696E69745F6172    imul ebp,[esi+0x69],dword 0x72615f74
00001B29  7261              jc 0x1b8c
00001B2B  795F              jns 0x1b8c
00001B2D  656E              gs outsb
00001B2F  64005F5F          add [fs:edi+0x5f],bl
00001B33  6C                insb
00001B34  6962635F637375    imul esp,[edx+0x63],dword 0x7573635f
00001B3B  5F                pop edi
00001B3C  66696E690061      imul bp,[esi+0x69],word 0x6100
00001B42  7267              jc 0x1bab
00001B44  7600              jna 0x1b46
00001B46  0000              add [eax],al
00001B48  0000              add [eax],al
00001B4A  0100              add [eax],eax
00001B4C  0000              add [eax],al
00001B4E  0200              add al,[eax]
00001B50  7404              jz 0x1b56
00001B52  0100              add [eax],eax
00001B54  0000              add [eax],al
00001B56  0300              add eax,[eax]
00001B58  0000              add [eax],al
00001B5A  0200              add al,[eax]
00001B5C  7408              jz 0x1b66
00001B5E  0300              add eax,[eax]
00001B60  0000              add [eax],al
00001B62  0500000002        add eax,0x2000000
00001B67  007508            add [ebp+0x8],dh
00001B6A  0000              add [eax],al
00001B6C  0000              add [eax],al
00001B6E  0000              add [eax],al
00001B70  0000              add [eax],al
00001B72  1000              adc [eax],al
00001B74  0000              add [eax],al
00001B76  1100              adc [eax],eax
00001B78  0000              add [eax],al
00001B7A  0200              add al,[eax]
00001B7C  7404              jz 0x1b82
00001B7E  1100              adc [eax],eax
00001B80  0000              add [eax],al
00001B82  1300              adc eax,[eax]
00001B84  0000              add [eax],al
00001B86  0200              add al,[eax]
00001B88  7408              jz 0x1b92
00001B8A  1300              adc eax,[eax]
00001B8C  0000              add [eax],al
00001B8E  6A00              push byte +0x0
00001B90  0000              add [eax],al
00001B92  0200              add al,[eax]
00001B94  7508              jnz 0x1b9e
00001B96  0000              add [eax],al
00001B98  0000              add [eax],al
00001B9A  0000              add [eax],al
00001B9C  0000              add [eax],al
00001B9E  40                inc eax
00001B9F  0000              add [eax],al
00001BA1  006700            add [edi+0x0],ah
00001BA4  0000              add [eax],al
00001BA6  0100              add [eax],eax
00001BA8  56                push esi
00001BA9  0000              add [eax],al
00001BAB  0000              add [eax],al
00001BAD  0000              add [eax],al
00001BAF  0000              add [eax],al
00001BB1  002E              add [esi],ch
00001BB3  7379              jnc 0x1c2e
00001BB5  6D                insd
00001BB6  7461              jz 0x1c19
00001BB8  6200              bound eax,[eax]
00001BBA  2E7374            cs jnc 0x1c31
00001BBD  7274              jc 0x1c33
00001BBF  61                popa
00001BC0  6200              bound eax,[eax]
00001BC2  2E7368            cs jnc 0x1c2d
00001BC5  7374              jnc 0x1c3b
00001BC7  7274              jc 0x1c3d
00001BC9  61                popa
00001BCA  6200              bound eax,[eax]
00001BCC  2E696E7465727000  imul ebp,[cs:esi+0x74],dword 0x707265
00001BD4  2E6E              cs outsb
00001BD6  6F                outsd
00001BD7  7465              jz 0x1c3e
00001BD9  2E41              cs inc ecx
00001BDB  42                inc edx
00001BDC  49                dec ecx
00001BDD  2D74616700        sub eax,0x676174
00001BE2  2E6861736800      cs push dword 0x687361
00001BE8  2E64796E          fs jns 0x1c5a
00001BEC  7379              jnc 0x1c67
00001BEE  6D                insd
00001BEF  002E              add [esi],ch
00001BF1  64796E            fs jns 0x1c62
00001BF4  7374              jnc 0x1c6a
00001BF6  7200              jc 0x1bf8
00001BF8  2E676E            cs a16 outsb
00001BFB  752E              jnz 0x1c2b
00001BFD  7665              jna 0x1c64
00001BFF  7273              jc 0x1c74
00001C01  696F6E002E676E    imul ebp,[edi+0x6e],dword 0x6e672e00
00001C08  752E              jnz 0x1c38
00001C0A  7665              jna 0x1c71
00001C0C  7273              jc 0x1c81
00001C0E  696F6E5F72002E    imul ebp,[edi+0x6e],dword 0x2e00725f
00001C15  7265              jc 0x1c7c
00001C17  6C                insb
00001C18  2E64796E          fs jns 0x1c8a
00001C1C  002E              add [esi],ch
00001C1E  7265              jc 0x1c85
00001C20  6C                insb
00001C21  2E706C            cs jo 0x1c90
00001C24  7400              jz 0x1c26
00001C26  2E696E6974002E74  imul ebp,[cs:esi+0x69],dword 0x742e0074
00001C2E  657874            gs js 0x1ca5
00001C31  002E              add [esi],ch
00001C33  66696E69002E      imul bp,[esi+0x69],word 0x2e00
00001C39  726F              jc 0x1caa
00001C3B  6461              fs popa
00001C3D  7461              jz 0x1ca0
00001C3F  002E              add [esi],ch
00001C41  65685F667261      gs push dword 0x6172665f
00001C47  6D                insd
00001C48  655F              gs pop edi
00001C4A  686472002E        push dword 0x2e007264
00001C4F  65685F667261      gs push dword 0x6172665f
00001C55  6D                insd
00001C56  65002E            add [gs:esi],ch
00001C59  6763635F          arpl [bp+di+0x5f],sp
00001C5D  657863            gs js 0x1cc3
00001C60  657074            gs jo 0x1cd7
00001C63  5F                pop edi
00001C64  7461              jz 0x1cc7
00001C66  626C6500          bound ebp,[ebp+0x0]
00001C6A  2E63746F72        arpl [cs:edi+ebp*2+0x72],si
00001C6F  7300              jnc 0x1c71
00001C71  2E64746F          fs jz 0x1ce4
00001C75  7273              jc 0x1cea
00001C77  002E              add [esi],ch
00001C79  6A63              push byte +0x63
00001C7B  7200              jc 0x1c7d
00001C7D  2E64796E          fs jns 0x1cef
00001C81  61                popa
00001C82  6D                insd
00001C83  6963002E676F74    imul esp,[ebx+0x0],dword 0x746f672e
00001C8A  002E              add [esi],ch
00001C8C  676F              a16 outsd
00001C8E  742E              jz 0x1cbe
00001C90  706C              jo 0x1cfe
00001C92  7400              jz 0x1c94
00001C94  2E6461            fs popa
00001C97  7461              jz 0x1cfa
00001C99  002E              add [esi],ch
00001C9B  627373            bound esi,[ebx+0x73]
00001C9E  002E              add [esi],ch
00001CA0  636F6D            arpl [edi+0x6d],bp
00001CA3  6D                insd
00001CA4  656E              gs outsb
00001CA6  7400              jz 0x1ca8
00001CA8  2E6465627567      bound esi,[gs:ebp+0x67]
00001CAE  5F                pop edi
00001CAF  61                popa
00001CB0  7261              jc 0x1d13
00001CB2  6E                outsb
00001CB3  67657300          gs a16 jnc 0x1cb7
00001CB7  2E6465627567      bound esi,[gs:ebp+0x67]
00001CBD  5F                pop edi
00001CBE  7075              jo 0x1d35
00001CC0  626E61            bound ebp,[esi+0x61]
00001CC3  6D                insd
00001CC4  657300            gs jnc 0x1cc7
00001CC7  2E6465627567      bound esi,[gs:ebp+0x67]
00001CCD  5F                pop edi
00001CCE  696E666F002E64    imul ebp,[esi+0x66],dword 0x642e006f
00001CD5  65627567          bound esi,[gs:ebp+0x67]
00001CD9  5F                pop edi
00001CDA  61                popa
00001CDB  626272            bound esp,[edx+0x72]
00001CDE  657600            gs jna 0x1ce1
00001CE1  2E6465627567      bound esi,[gs:ebp+0x67]
00001CE7  5F                pop edi
00001CE8  6C                insb
00001CE9  696E65002E6465    imul ebp,[esi+0x65],dword 0x65642e00
00001CF0  627567            bound esi,[ebp+0x67]
00001CF3  5F                pop edi
00001CF4  667261            o16 jc 0x1d58
00001CF7  6D                insd
00001CF8  65002E            add [gs:esi],ch
00001CFB  6465627567        bound esi,[gs:ebp+0x67]
00001D00  5F                pop edi
00001D01  7374              jnc 0x1d77
00001D03  7200              jc 0x1d05
00001D05  2E6465627567      bound esi,[gs:ebp+0x67]
00001D0B  5F                pop edi
00001D0C  6C                insb
00001D0D  6F                outsd
00001D0E  6300              arpl [eax],ax
00001D10  0000              add [eax],al
00001D12  0000              add [eax],al
00001D14  0000              add [eax],al
00001D16  0000              add [eax],al
00001D18  0000              add [eax],al
00001D1A  0000              add [eax],al
00001D1C  0000              add [eax],al
00001D1E  0000              add [eax],al
00001D20  0000              add [eax],al
00001D22  0000              add [eax],al
00001D24  0000              add [eax],al
00001D26  0000              add [eax],al
00001D28  0000              add [eax],al
00001D2A  0000              add [eax],al
00001D2C  0000              add [eax],al
00001D2E  0000              add [eax],al
00001D30  0000              add [eax],al
00001D32  0000              add [eax],al
00001D34  0000              add [eax],al
00001D36  0000              add [eax],al
00001D38  1B00              sbb eax,[eax]
00001D3A  0000              add [eax],al
00001D3C  0100              add [eax],eax
00001D3E  0000              add [eax],al
00001D40  0200              add al,[eax]
00001D42  0000              add [eax],al
00001D44  3481              xor al,0x81
00001D46  0408              add al,0x8
00001D48  3401              xor al,0x1
00001D4A  0000              add [eax],al
00001D4C  1300              adc eax,[eax]
00001D4E  0000              add [eax],al
00001D50  0000              add [eax],al
00001D52  0000              add [eax],al
00001D54  0000              add [eax],al
00001D56  0000              add [eax],al
00001D58  0100              add [eax],eax
00001D5A  0000              add [eax],al
00001D5C  0000              add [eax],al
00001D5E  0000              add [eax],al
00001D60  2300              and eax,[eax]
00001D62  0000              add [eax],al
00001D64  07                pop es
00001D65  0000              add [eax],al
00001D67  0002              add [edx],al
00001D69  0000              add [eax],al
00001D6B  004881            add [eax-0x7f],cl
00001D6E  0408              add al,0x8
00001D70  48                dec eax
00001D71  0100              add [eax],eax
00001D73  0020              add [eax],ah
00001D75  0000              add [eax],al
00001D77  0000              add [eax],al
00001D79  0000              add [eax],al
00001D7B  0000              add [eax],al
00001D7D  0000              add [eax],al
00001D7F  000400            add [eax+eax],al
00001D82  0000              add [eax],al
00001D84  0000              add [eax],al
00001D86  0000              add [eax],al
00001D88  3100              xor [eax],eax
00001D8A  0000              add [eax],al
00001D8C  0500000002        add eax,0x2000000
00001D91  0000              add [eax],al
00001D93  006881            add [eax-0x7f],ch
00001D96  0408              add al,0x8
00001D98  6801000098        push dword 0x98000001
00001D9D  0000              add [eax],al
00001D9F  000400            add [eax+eax],al
00001DA2  0000              add [eax],al
00001DA4  0000              add [eax],al
00001DA6  0000              add [eax],al
00001DA8  0400              add al,0x0
00001DAA  0000              add [eax],al
00001DAC  0400              add al,0x0
00001DAE  0000              add [eax],al
00001DB0  37                aaa
00001DB1  0000              add [eax],al
00001DB3  000B              add [ebx],cl
00001DB5  0000              add [eax],al
00001DB7  0002              add [edx],al
00001DB9  0000              add [eax],al
00001DBB  0000              add [eax],al
00001DBD  82                db 0x82
00001DBE  0408              add al,0x8
00001DC0  0002              add [edx],al
00001DC2  0000              add [eax],al
00001DC4  3001              xor [ecx],al
00001DC6  0000              add [eax],al
00001DC8  0500000001        add eax,0x1000000
00001DCD  0000              add [eax],al
00001DCF  000400            add [eax+eax],al
00001DD2  0000              add [eax],al
00001DD4  1000              adc [eax],al
00001DD6  0000              add [eax],al
00001DD8  3F                aas
00001DD9  0000              add [eax],al
00001DDB  0003              add [ebx],al
00001DDD  0000              add [eax],al
00001DDF  0002              add [edx],al
00001DE1  0000              add [eax],al
00001DE3  0030              add [eax],dh
00001DE5  83040830          add dword [eax+ecx],byte +0x30
00001DE9  0300              add eax,[eax]
00001DEB  00EE              add dh,ch
00001DED  0100              add [eax],eax
00001DEF  0000              add [eax],al
00001DF1  0000              add [eax],al
00001DF3  0000              add [eax],al
00001DF5  0000              add [eax],al
00001DF7  0001              add [ecx],al
00001DF9  0000              add [eax],al
00001DFB  0000              add [eax],al
00001DFD  0000              add [eax],al
00001DFF  004700            add [edi+0x0],al
00001E02  0000              add [eax],al
00001E04  FF                db 0xFF
00001E05  FF                db 0xFF
00001E06  FF6F02            jmp far [edi+0x2]
00001E09  0000              add [eax],al
00001E0B  001E              add [esi],bl
00001E0D  850408            test [eax+ecx],eax
00001E10  1E                push ds
00001E11  0500002600        add eax,0x260000
00001E16  0000              add [eax],al
00001E18  0400              add al,0x0
00001E1A  0000              add [eax],al
00001E1C  0000              add [eax],al
00001E1E  0000              add [eax],al
00001E20  0200              add al,[eax]
00001E22  0000              add [eax],al
00001E24  0200              add al,[eax]
00001E26  0000              add [eax],al
00001E28  54                push esp
00001E29  0000              add [eax],al
00001E2B  00FE              add dh,bh
00001E2D  FF                db 0xFF
00001E2E  FF6F02            jmp far [edi+0x2]
00001E31  0000              add [eax],al
00001E33  00448504          add [ebp+eax*4+0x4],al
00001E37  08440500          or [ebp+eax+0x0],al
00001E3B  008000000005      add [eax+0x5000000],al
00001E41  0000              add [eax],al
00001E43  0003              add [ebx],al
00001E45  0000              add [eax],al
00001E47  000400            add [eax+eax],al
00001E4A  0000              add [eax],al
00001E4C  0000              add [eax],al
00001E4E  0000              add [eax],al
00001E50  6300              arpl [eax],ax
00001E52  0000              add [eax],al
00001E54  0900              or [eax],eax
00001E56  0000              add [eax],al
00001E58  0200              add al,[eax]
00001E5A  0000              add [eax],al
00001E5C  C4850408C405      les eax,[ebp+0x5c40804]
00001E62  0000              add [eax],al
00001E64  1800              sbb [eax],al
00001E66  0000              add [eax],al
00001E68  0400              add al,0x0
00001E6A  0000              add [eax],al
00001E6C  0000              add [eax],al
00001E6E  0000              add [eax],al
00001E70  0400              add al,0x0
00001E72  0000              add [eax],al
00001E74  0800              or [eax],al
00001E76  0000              add [eax],al
00001E78  6C                insb
00001E79  0000              add [eax],al
00001E7B  0009              add [ecx],cl
00001E7D  0000              add [eax],al
00001E7F  0002              add [edx],al
00001E81  0000              add [eax],al
00001E83  00DC              add ah,bl
00001E85  850408            test [eax+ecx],eax
00001E88  DC0500006000      fadd qword [0x600000]
00001E8E  0000              add [eax],al
00001E90  0400              add al,0x0
00001E92  0000              add [eax],al
00001E94  0B00              or eax,[eax]
00001E96  0000              add [eax],al
00001E98  0400              add al,0x0
00001E9A  0000              add [eax],al
00001E9C  0800              or [eax],al
00001E9E  0000              add [eax],al
00001EA0  7500              jnz 0x1ea2
00001EA2  0000              add [eax],al
00001EA4  0100              add [eax],eax
00001EA6  0000              add [eax],al
00001EA8  06                push es
00001EA9  0000              add [eax],al
00001EAB  003C86            add [esi+eax*4],bh
00001EAE  0408              add al,0x8
00001EB0  3C06              cmp al,0x6
00001EB2  0000              add [eax],al
00001EB4  3000              xor [eax],al
00001EB6  0000              add [eax],al
00001EB8  0000              add [eax],al
00001EBA  0000              add [eax],al
00001EBC  0000              add [eax],al
00001EBE  0000              add [eax],al
00001EC0  0400              add al,0x0
00001EC2  0000              add [eax],al
00001EC4  0000              add [eax],al
00001EC6  0000              add [eax],al
00001EC8  7000              jo 0x1eca
00001ECA  0000              add [eax],al
00001ECC  0100              add [eax],eax
00001ECE  0000              add [eax],al
00001ED0  06                push es
00001ED1  0000              add [eax],al
00001ED3  007086            add [eax-0x7a],dh
00001ED6  0408              add al,0x8
00001ED8  7006              jo 0x1ee0
00001EDA  0000              add [eax],al
00001EDC  D000              rol byte [eax],1
00001EDE  0000              add [eax],al
00001EE0  0000              add [eax],al
00001EE2  0000              add [eax],al
00001EE4  0000              add [eax],al
00001EE6  0000              add [eax],al
00001EE8  1000              adc [eax],al
00001EEA  0000              add [eax],al
00001EEC  0400              add al,0x0
00001EEE  0000              add [eax],al
00001EF0  7B00              jpo 0x1ef2
00001EF2  0000              add [eax],al
00001EF4  0100              add [eax],eax
00001EF6  0000              add [eax],al
00001EF8  06                push es
00001EF9  0000              add [eax],al
00001EFB  004087            add [eax-0x79],al
00001EFE  0408              add al,0x8
00001F00  40                inc eax
00001F01  07                pop es
00001F02  0000              add [eax],al
00001F04  98                cwde
00001F05  0A00              or al,[eax]
00001F07  0000              add [eax],al
00001F09  0000              add [eax],al
00001F0B  0000              add [eax],al
00001F0D  0000              add [eax],al
00001F0F  0010              add [eax],dl
00001F11  0000              add [eax],al
00001F13  0000              add [eax],al
00001F15  0000              add [eax],al
00001F17  008100000001      add [ecx+0x1000000],al
00001F1D  0000              add [eax],al
00001F1F  0006              add [esi],al
00001F21  0000              add [eax],al
00001F23  00D8              add al,bl
00001F25  91                xchg eax,ecx
00001F26  0408              add al,0x8
00001F28  D811              fcom dword [ecx]
00001F2A  0000              add [eax],al
00001F2C  1C00              sbb al,0x0
00001F2E  0000              add [eax],al
00001F30  0000              add [eax],al
00001F32  0000              add [eax],al
00001F34  0000              add [eax],al
00001F36  0000              add [eax],al
00001F38  0400              add al,0x0
00001F3A  0000              add [eax],al
00001F3C  0000              add [eax],al
00001F3E  0000              add [eax],al
00001F40  8700              xchg eax,[eax]
00001F42  0000              add [eax],al
00001F44  0100              add [eax],eax
00001F46  0000              add [eax],al
00001F48  0200              add al,[eax]
00001F4A  0000              add [eax],al
00001F4C  009204080012      add [edx+0x12000804],dl
00001F52  0000              add [eax],al
00001F54  5C                pop esp
00001F55  0000              add [eax],al
00001F57  0000              add [eax],al
00001F59  0000              add [eax],al
00001F5B  0000              add [eax],al
00001F5D  0000              add [eax],al
00001F5F  0010              add [eax],dl
00001F61  0000              add [eax],al
00001F63  0000              add [eax],al
00001F65  0000              add [eax],al
00001F67  008F00000001      add [edi+0x1000000],cl
00001F6D  0000              add [eax],al
00001F6F  0002              add [edx],al
00001F71  0000              add [eax],al
00001F73  005C9204          add [edx+edx*4+0x4],bl
00001F77  085C1200          or [edx+edx+0x0],bl
00001F7B  002C00            add [eax+eax],ch
00001F7E  0000              add [eax],al
00001F80  0000              add [eax],al
00001F82  0000              add [eax],al
00001F84  0000              add [eax],al
00001F86  0000              add [eax],al
00001F88  0400              add al,0x0
00001F8A  0000              add [eax],al
00001F8C  0000              add [eax],al
00001F8E  0000              add [eax],al
00001F90  9D                popf
00001F91  0000              add [eax],al
00001F93  0001              add [ecx],al
00001F95  0000              add [eax],al
00001F97  0002              add [edx],al
00001F99  0000              add [eax],al
00001F9B  008892040888      add [eax+0x88080492],cl
00001FA1  1200              adc al,[eax]
00001FA3  00D4              add ah,dl
00001FA5  0000              add [eax],al
00001FA7  0000              add [eax],al
00001FA9  0000              add [eax],al
00001FAB  0000              add [eax],al
00001FAD  0000              add [eax],al
00001FAF  000400            add [eax+eax],al
00001FB2  0000              add [eax],al
00001FB4  0000              add [eax],al
00001FB6  0000              add [eax],al
00001FB8  A7                cmpsd
00001FB9  0000              add [eax],al
00001FBB  0001              add [ecx],al
00001FBD  0000              add [eax],al
00001FBF  0002              add [edx],al
00001FC1  0000              add [eax],al
00001FC3  005C9304          add [ebx+edx*4+0x4],bl
00001FC7  085C1300          or [ebx+edx+0x0],bl
00001FCB  0020              add [eax],ah
00001FCD  0000              add [eax],al
00001FCF  0000              add [eax],al
00001FD1  0000              add [eax],al
00001FD3  0000              add [eax],al
00001FD5  0000              add [eax],al
00001FD7  0001              add [ecx],al
00001FD9  0000              add [eax],al
00001FDB  0000              add [eax],al
00001FDD  0000              add [eax],al
00001FDF  00B900000001      add [ecx+0x1000000],bh
00001FE5  0000              add [eax],al
00001FE7  0003              add [ebx],al
00001FE9  0000              add [eax],al
00001FEB  007CA304          add [ebx+0x4],bh
00001FEF  087C1300          or [ebx+edx+0x0],bh
00001FF3  000C00            add [eax+eax],cl
00001FF6  0000              add [eax],al
00001FF8  0000              add [eax],al
00001FFA  0000              add [eax],al
00001FFC  0000              add [eax],al
00001FFE  0000              add [eax],al
00002000  0400              add al,0x0
00002002  0000              add [eax],al
00002004  0000              add [eax],al
00002006  0000              add [eax],al
00002008  C00000            rol byte [eax],0x0
0000200B  0001              add [ecx],al
0000200D  0000              add [eax],al
0000200F  0003              add [ebx],al
00002011  0000              add [eax],al
00002013  0088A3040888      add [eax+0x880804a3],cl
00002019  1300              adc eax,[eax]
0000201B  0008              add [eax],cl
0000201D  0000              add [eax],al
0000201F  0000              add [eax],al
00002021  0000              add [eax],al
00002023  0000              add [eax],al
00002025  0000              add [eax],al
00002027  000400            add [eax+eax],al
0000202A  0000              add [eax],al
0000202C  0000              add [eax],al
0000202E  0000              add [eax],al
00002030  C70000000100      mov dword [eax],0x10000
00002036  0000              add [eax],al
00002038  0300              add eax,[eax]
0000203A  0000              add [eax],al
0000203C  90                nop
0000203D  A304089013        mov [0x13900804],eax
00002042  0000              add [eax],al
00002044  0400              add al,0x0
00002046  0000              add [eax],al
00002048  0000              add [eax],al
0000204A  0000              add [eax],al
0000204C  0000              add [eax],al
0000204E  0000              add [eax],al
00002050  0400              add al,0x0
00002052  0000              add [eax],al
00002054  0000              add [eax],al
00002056  0000              add [eax],al
00002058  CC                int3
00002059  0000              add [eax],al
0000205B  0006              add [esi],al
0000205D  0000              add [eax],al
0000205F  0003              add [ebx],al
00002061  0000              add [eax],al
00002063  0094A304089413    add [ebx+0x13940804],dl
0000206A  0000              add [eax],al
0000206C  E000              loopne 0x206e
0000206E  0000              add [eax],al
00002070  0500000000        add eax,0x0
00002075  0000              add [eax],al
00002077  000400            add [eax+eax],al
0000207A  0000              add [eax],al
0000207C  0800              or [eax],al
0000207E  0000              add [eax],al
00002080  D500              aad 0x0
00002082  0000              add [eax],al
00002084  0100              add [eax],eax
00002086  0000              add [eax],al
00002088  0300              add eax,[eax]
0000208A  0000              add [eax],al
0000208C  74A4              jz 0x2032
0000208E  0408              add al,0x8
00002090  7414              jz 0x20a6
00002092  0000              add [eax],al
00002094  0400              add al,0x0
00002096  0000              add [eax],al
00002098  0000              add [eax],al
0000209A  0000              add [eax],al
0000209C  0000              add [eax],al
0000209E  0000              add [eax],al
000020A0  0400              add al,0x0
000020A2  0000              add [eax],al
000020A4  0400              add al,0x0
000020A6  0000              add [eax],al
000020A8  DA00              fiadd dword [eax]
000020AA  0000              add [eax],al
000020AC  0100              add [eax],eax
000020AE  0000              add [eax],al
000020B0  0300              add eax,[eax]
000020B2  0000              add [eax],al
000020B4  78A4              js 0x205a
000020B6  0408              add al,0x8
000020B8  7814              js 0x20ce
000020BA  0000              add [eax],al
000020BC  3C00              cmp al,0x0
000020BE  0000              add [eax],al
000020C0  0000              add [eax],al
000020C2  0000              add [eax],al
000020C4  0000              add [eax],al
000020C6  0000              add [eax],al
000020C8  0400              add al,0x0
000020CA  0000              add [eax],al
000020CC  0400              add al,0x0
000020CE  0000              add [eax],al
000020D0  E300              jecxz 0x20d2
000020D2  0000              add [eax],al
000020D4  0100              add [eax],eax
000020D6  0000              add [eax],al
000020D8  0300              add eax,[eax]
000020DA  0000              add [eax],al
000020DC  B4A4              mov ah,0xa4
000020DE  0408              add al,0x8
000020E0  B414              mov ah,0x14
000020E2  0000              add [eax],al
000020E4  0800              or [eax],al
000020E6  0000              add [eax],al
000020E8  0000              add [eax],al
000020EA  0000              add [eax],al
000020EC  0000              add [eax],al
000020EE  0000              add [eax],al
000020F0  0400              add al,0x0
000020F2  0000              add [eax],al
000020F4  0000              add [eax],al
000020F6  0000              add [eax],al
000020F8  E900000008        jmp 0x80020fd
000020FD  0000              add [eax],al
000020FF  0003              add [ebx],al
00002101  0000              add [eax],al
00002103  00C0              add al,al
00002105  A4                movsb
00002106  0408              add al,0x8
00002108  BC14000044        mov esp,0x44000014
0000210D  37                aaa
0000210E  6E                outsb
0000210F  0100              add [eax],eax
00002111  0000              add [eax],al
00002113  0000              add [eax],al
00002115  0000              add [eax],al
00002117  0020              add [eax],ah
00002119  0000              add [eax],al
0000211B  0000              add [eax],al
0000211D  0000              add [eax],al
0000211F  00EE              add dh,ch
00002121  0000              add [eax],al
00002123  0001              add [ecx],al
00002125  0000              add [eax],al
00002127  0030              add [eax],dh
00002129  0000              add [eax],al
0000212B  0000              add [eax],al
0000212D  0000              add [eax],al
0000212F  00BC1400003400    add [esp+edx+0x340000],bh
00002136  0000              add [eax],al
00002138  0000              add [eax],al
0000213A  0000              add [eax],al
0000213C  0000              add [eax],al
0000213E  0000              add [eax],al
00002140  0100              add [eax],eax
00002142  0000              add [eax],al
00002144  0100              add [eax],eax
00002146  0000              add [eax],al
00002148  F70000000100      test dword [eax],0x10000
0000214E  0000              add [eax],al
00002150  0000              add [eax],al
00002152  0000              add [eax],al
00002154  0000              add [eax],al
00002156  0000              add [eax],al
00002158  F01400            lock adc al,0x0
0000215B  004000            add [eax+0x0],al
0000215E  0000              add [eax],al
00002160  0000              add [eax],al
00002162  0000              add [eax],al
00002164  0000              add [eax],al
00002166  0000              add [eax],al
00002168  0800              or [eax],al
0000216A  0000              add [eax],al
0000216C  0000              add [eax],al
0000216E  0000              add [eax],al
00002170  06                push es
00002171  0100              add [eax],eax
00002173  0001              add [ecx],al
00002175  0000              add [eax],al
00002177  0000              add [eax],al
00002179  0000              add [eax],al
0000217B  0000              add [eax],al
0000217D  0000              add [eax],al
0000217F  0030              add [eax],dh
00002181  1500005F00        adc eax,0x5f0000
00002186  0000              add [eax],al
00002188  0000              add [eax],al
0000218A  0000              add [eax],al
0000218C  0000              add [eax],al
0000218E  0000              add [eax],al
00002190  0100              add [eax],eax
00002192  0000              add [eax],al
00002194  0000              add [eax],al
00002196  0000              add [eax],al
00002198  16                push ss
00002199  0100              add [eax],eax
0000219B  0001              add [ecx],al
0000219D  0000              add [eax],al
0000219F  0000              add [eax],al
000021A1  0000              add [eax],al
000021A3  0000              add [eax],al
000021A5  0000              add [eax],al
000021A7  008F15000021      add [edi+0x21000015],cl
000021AD  0200              add al,[eax]
000021AF  0000              add [eax],al
000021B1  0000              add [eax],al
000021B3  0000              add [eax],al
000021B5  0000              add [eax],al
000021B7  0001              add [ecx],al
000021B9  0000              add [eax],al
000021BB  0000              add [eax],al
000021BD  0000              add [eax],al
000021BF  0022              add [edx],ah
000021C1  0100              add [eax],eax
000021C3  0001              add [ecx],al
000021C5  0000              add [eax],al
000021C7  0000              add [eax],al
000021C9  0000              add [eax],al
000021CB  0000              add [eax],al
000021CD  0000              add [eax],al
000021CF  00B017000035      add [eax+0x35000017],dh
000021D5  0100              add [eax],eax
000021D7  0000              add [eax],al
000021D9  0000              add [eax],al
000021DB  0000              add [eax],al
000021DD  0000              add [eax],al
000021DF  0001              add [ecx],al
000021E1  0000              add [eax],al
000021E3  0000              add [eax],al
000021E5  0000              add [eax],al
000021E7  0030              add [eax],dh
000021E9  0100              add [eax],eax
000021EB  0001              add [ecx],al
000021ED  0000              add [eax],al
000021EF  0000              add [eax],al
000021F1  0000              add [eax],al
000021F3  0000              add [eax],al
000021F5  0000              add [eax],al
000021F7  00E5              add ch,ah
000021F9  1800              sbb [eax],al
000021FB  0001              add [ecx],al
000021FD  0100              add [eax],eax
000021FF  0000              add [eax],al
00002201  0000              add [eax],al
00002203  0000              add [eax],al
00002205  0000              add [eax],al
00002207  0001              add [ecx],al
00002209  0000              add [eax],al
0000220B  0000              add [eax],al
0000220D  0000              add [eax],al
0000220F  003C01            add [ecx+eax],bh
00002212  0000              add [eax],al
00002214  0100              add [eax],eax
00002216  0000              add [eax],al
00002218  0000              add [eax],al
0000221A  0000              add [eax],al
0000221C  0000              add [eax],al
0000221E  0000              add [eax],al
00002220  E81900004C        call 0x4c00223e
00002225  0000              add [eax],al
00002227  0000              add [eax],al
00002229  0000              add [eax],al
0000222B  0000              add [eax],al
0000222D  0000              add [eax],al
0000222F  000400            add [eax+eax],al
00002232  0000              add [eax],al
00002234  0000              add [eax],al
00002236  0000              add [eax],al
00002238  49                dec ecx
00002239  0100              add [eax],eax
0000223B  0001              add [ecx],al
0000223D  0000              add [eax],al
0000223F  0030              add [eax],dh
00002241  0000              add [eax],al
00002243  0000              add [eax],al
00002245  0000              add [eax],al
00002247  00341A            add [edx+ebx],dh
0000224A  0000              add [eax],al
0000224C  1201              adc al,[ecx]
0000224E  0000              add [eax],al
00002250  0000              add [eax],al
00002252  0000              add [eax],al
00002254  0000              add [eax],al
00002256  0000              add [eax],al
00002258  0100              add [eax],eax
0000225A  0000              add [eax],al
0000225C  0100              add [eax],eax
0000225E  0000              add [eax],al
00002260  54                push esp
00002261  0100              add [eax],eax
00002263  0001              add [ecx],al
00002265  0000              add [eax],al
00002267  0000              add [eax],al
00002269  0000              add [eax],al
0000226B  0000              add [eax],al
0000226D  0000              add [eax],al
0000226F  00461B            add [esi+0x1b],al
00002272  0000              add [eax],al
00002274  6B0000            imul eax,[eax],byte +0x0
00002277  0000              add [eax],al
00002279  0000              add [eax],al
0000227B  0000              add [eax],al
0000227D  0000              add [eax],al
0000227F  0001              add [ecx],al
00002281  0000              add [eax],al
00002283  0000              add [eax],al
00002285  0000              add [eax],al
00002287  0011              add [ecx],dl
00002289  0000              add [eax],al
0000228B  0003              add [ebx],al
0000228D  0000              add [eax],al
0000228F  0000              add [eax],al
00002291  0000              add [eax],al
00002293  0000              add [eax],al
00002295  0000              add [eax],al
00002297  00B11B00005F      add [ecx+0x5f00001b],dh
0000229D  0100              add [eax],eax
0000229F  0000              add [eax],al
000022A1  0000              add [eax],al
000022A3  0000              add [eax],al
000022A5  0000              add [eax],al
000022A7  0001              add [ecx],al
000022A9  0000              add [eax],al
000022AB  0000              add [eax],al
000022AD  0000              add [eax],al
000022AF  0001              add [ecx],al
000022B1  0000              add [eax],al
000022B3  0002              add [edx],al
000022B5  0000              add [eax],al
000022B7  0000              add [eax],al
000022B9  0000              add [eax],al
000022BB  0000              add [eax],al
000022BD  0000              add [eax],al
000022BF  0000              add [eax],al
000022C1  2300              and eax,[eax]
000022C3  004006            add [eax+0x6],al
000022C6  0000              add [eax],al
000022C8  2500000040        and eax,0x40000000
000022CD  0000              add [eax],al
000022CF  000400            add [eax+eax],al
000022D2  0000              add [eax],al
000022D4  1000              adc [eax],al
000022D6  0000              add [eax],al
000022D8  0900              or [eax],eax
000022DA  0000              add [eax],al
000022DC  0300              add eax,[eax]
000022DE  0000              add [eax],al
000022E0  0000              add [eax],al
000022E2  0000              add [eax],al
000022E4  0000              add [eax],al
000022E6  0000              add [eax],al
000022E8  40                inc eax
000022E9  2900              sub [eax],eax
000022EB  00A304000000      add [ebx+0x4],ah
000022F1  0000              add [eax],al
000022F3  0000              add [eax],al
000022F5  0000              add [eax],al
000022F7  0001              add [ecx],al
000022F9  0000              add [eax],al
000022FB  0000              add [eax],al
000022FD  0000              add [eax],al
000022FF  0000              add [eax],al
00002301  0000              add [eax],al
00002303  0000              add [eax],al
00002305  0000              add [eax],al
00002307  0000              add [eax],al
00002309  0000              add [eax],al
0000230B  0000              add [eax],al
0000230D  0000              add [eax],al
0000230F  0000              add [eax],al
00002311  0000              add [eax],al
00002313  003481            add [ecx+eax*4],dh
00002316  0408              add al,0x8
00002318  0000              add [eax],al
0000231A  0000              add [eax],al
0000231C  0300              add eax,[eax]
0000231E  0100              add [eax],eax
00002320  0000              add [eax],al
00002322  0000              add [eax],al
00002324  48                dec eax
00002325  81040800000000    add dword [eax+ecx],0x0
0000232C  0300              add eax,[eax]
0000232E  0200              add al,[eax]
00002330  0000              add [eax],al
00002332  0000              add [eax],al
00002334  6881040800        push dword 0x80481
00002339  0000              add [eax],al
0000233B  0003              add [ebx],al
0000233D  0003              add [ebx],al
0000233F  0000              add [eax],al
00002341  0000              add [eax],al
00002343  0000              add [eax],al
00002345  82                db 0x82
00002346  0408              add al,0x8
00002348  0000              add [eax],al
0000234A  0000              add [eax],al
0000234C  0300              add eax,[eax]
0000234E  0400              add al,0x0
00002350  0000              add [eax],al
00002352  0000              add [eax],al
00002354  308304080000      xor [ebx+0x804],al
0000235A  0000              add [eax],al
0000235C  0300              add eax,[eax]
0000235E  0500000000        add eax,0x0
00002363  001E              add [esi],bl
00002365  850408            test [eax+ecx],eax
00002368  0000              add [eax],al
0000236A  0000              add [eax],al
0000236C  0300              add eax,[eax]
0000236E  06                push es
0000236F  0000              add [eax],al
00002371  0000              add [eax],al
00002373  00448504          add [ebp+eax*4+0x4],al
00002377  0800              or [eax],al
00002379  0000              add [eax],al
0000237B  0003              add [ebx],al
0000237D  0007              add [edi],al
0000237F  0000              add [eax],al
00002381  0000              add [eax],al
00002383  00C4              add ah,al
00002385  850408            test [eax+ecx],eax
00002388  0000              add [eax],al
0000238A  0000              add [eax],al
0000238C  0300              add eax,[eax]
0000238E  0800              or [eax],al
00002390  0000              add [eax],al
00002392  0000              add [eax],al
00002394  DC8504080000      fadd qword [ebp+0x804]
0000239A  0000              add [eax],al
0000239C  0300              add eax,[eax]
0000239E  0900              or [eax],eax
000023A0  0000              add [eax],al
000023A2  0000              add [eax],al
000023A4  3C86              cmp al,0x86
000023A6  0408              add al,0x8
000023A8  0000              add [eax],al
000023AA  0000              add [eax],al
000023AC  0300              add eax,[eax]
000023AE  0A00              or al,[eax]
000023B0  0000              add [eax],al
000023B2  0000              add [eax],al
000023B4  7086              jo 0x233c
000023B6  0408              add al,0x8
000023B8  0000              add [eax],al
000023BA  0000              add [eax],al
000023BC  0300              add eax,[eax]
000023BE  0B00              or eax,[eax]
000023C0  0000              add [eax],al
000023C2  0000              add [eax],al
000023C4  40                inc eax
000023C5  870408            xchg eax,[eax+ecx]
000023C8  0000              add [eax],al
000023CA  0000              add [eax],al
000023CC  0300              add eax,[eax]
000023CE  0C00              or al,0x0
000023D0  0000              add [eax],al
000023D2  0000              add [eax],al
000023D4  D89104080000      fcom dword [ecx+0x804]
000023DA  0000              add [eax],al
000023DC  0300              add eax,[eax]
000023DE  0D00000000        or eax,0x0
000023E3  0000              add [eax],al
000023E5  92                xchg eax,edx
000023E6  0408              add al,0x8
000023E8  0000              add [eax],al
000023EA  0000              add [eax],al
000023EC  0300              add eax,[eax]
000023EE  0E                push cs
000023EF  0000              add [eax],al
000023F1  0000              add [eax],al
000023F3  005C9204          add [edx+edx*4+0x4],bl
000023F7  0800              or [eax],al
000023F9  0000              add [eax],al
000023FB  0003              add [ebx],al
000023FD  000F              add [edi],cl
000023FF  0000              add [eax],al
00002401  0000              add [eax],al
00002403  008892040800      add [eax+0x80492],cl
00002409  0000              add [eax],al
0000240B  0003              add [ebx],al
0000240D  0010              add [eax],dl
0000240F  0000              add [eax],al
00002411  0000              add [eax],al
00002413  005C9304          add [ebx+edx*4+0x4],bl
00002417  0800              or [eax],al
00002419  0000              add [eax],al
0000241B  0003              add [ebx],al
0000241D  0011              add [ecx],dl
0000241F  0000              add [eax],al
00002421  0000              add [eax],al
00002423  007CA304          add [ebx+0x4],bh
00002427  0800              or [eax],al
00002429  0000              add [eax],al
0000242B  0003              add [ebx],al
0000242D  0012              add [edx],dl
0000242F  0000              add [eax],al
00002431  0000              add [eax],al
00002433  0088A3040800      add [eax+0x804a3],cl
00002439  0000              add [eax],al
0000243B  0003              add [ebx],al
0000243D  0013              add [ebx],dl
0000243F  0000              add [eax],al
00002441  0000              add [eax],al
00002443  0090A3040800      add [eax+0x804a3],dl
00002449  0000              add [eax],al
0000244B  0003              add [ebx],al
0000244D  001400            add [eax+eax],dl
00002450  0000              add [eax],al
00002452  0000              add [eax],al
00002454  94                xchg eax,esp
00002455  A304080000        mov [0x804],eax
0000245A  0000              add [eax],al
0000245C  0300              add eax,[eax]
0000245E  1500000000        adc eax,0x0
00002463  0074A404          add [esp+0x4],dh
00002467  0800              or [eax],al
00002469  0000              add [eax],al
0000246B  0003              add [ebx],al
0000246D  0016              add [esi],dl
0000246F  0000              add [eax],al
00002471  0000              add [eax],al
00002473  0078A4            add [eax-0x5c],bh
00002476  0408              add al,0x8
00002478  0000              add [eax],al
0000247A  0000              add [eax],al
0000247C  0300              add eax,[eax]
0000247E  17                pop ss
0000247F  0000              add [eax],al
00002481  0000              add [eax],al
00002483  00B4A404080000    add [esp+0x804],dh
0000248A  0000              add [eax],al
0000248C  0300              add eax,[eax]
0000248E  1800              sbb [eax],al
00002490  0000              add [eax],al
00002492  0000              add [eax],al
00002494  C0A4040800000000  shl byte [esp+eax+0x8],0x0
0000249C  0300              add eax,[eax]
0000249E  1900              sbb [eax],eax
000024A0  0000              add [eax],al
000024A2  0000              add [eax],al
000024A4  0000              add [eax],al
000024A6  0000              add [eax],al
000024A8  0000              add [eax],al
000024AA  0000              add [eax],al
000024AC  0300              add eax,[eax]
000024AE  1A00              sbb al,[eax]
000024B0  0000              add [eax],al
000024B2  0000              add [eax],al
000024B4  0000              add [eax],al
000024B6  0000              add [eax],al
000024B8  0000              add [eax],al
000024BA  0000              add [eax],al
000024BC  0300              add eax,[eax]
000024BE  1B00              sbb eax,[eax]
000024C0  0000              add [eax],al
000024C2  0000              add [eax],al
000024C4  0000              add [eax],al
000024C6  0000              add [eax],al
000024C8  0000              add [eax],al
000024CA  0000              add [eax],al
000024CC  0300              add eax,[eax]
000024CE  1C00              sbb al,0x0
000024D0  0000              add [eax],al
000024D2  0000              add [eax],al
000024D4  0000              add [eax],al
000024D6  0000              add [eax],al
000024D8  0000              add [eax],al
000024DA  0000              add [eax],al
000024DC  0300              add eax,[eax]
000024DE  1D00000000        sbb eax,0x0
000024E3  0000              add [eax],al
000024E5  0000              add [eax],al
000024E7  0000              add [eax],al
000024E9  0000              add [eax],al
000024EB  0003              add [ebx],al
000024ED  001E              add [esi],bl
000024EF  0000              add [eax],al
000024F1  0000              add [eax],al
000024F3  0000              add [eax],al
000024F5  0000              add [eax],al
000024F7  0000              add [eax],al
000024F9  0000              add [eax],al
000024FB  0003              add [ebx],al
000024FD  001F              add [edi],bl
000024FF  0000              add [eax],al
00002501  0000              add [eax],al
00002503  0000              add [eax],al
00002505  0000              add [eax],al
00002507  0000              add [eax],al
00002509  0000              add [eax],al
0000250B  0003              add [ebx],al
0000250D  0020              add [eax],ah
0000250F  0000              add [eax],al
00002511  0000              add [eax],al
00002513  0000              add [eax],al
00002515  0000              add [eax],al
00002517  0000              add [eax],al
00002519  0000              add [eax],al
0000251B  0003              add [ebx],al
0000251D  0021              add [ecx],ah
0000251F  0000              add [eax],al
00002521  0000              add [eax],al
00002523  0000              add [eax],al
00002525  0000              add [eax],al
00002527  0000              add [eax],al
00002529  0000              add [eax],al
0000252B  0003              add [ebx],al
0000252D  0022              add [edx],ah
0000252F  0001              add [ecx],al
00002531  0000              add [eax],al
00002533  0000              add [eax],al
00002535  0000              add [eax],al
00002537  0000              add [eax],al
00002539  0000              add [eax],al
0000253B  000400            add [eax+eax],al
0000253E  F1                int1
0000253F  FF08              dec dword [eax]
00002541  0000              add [eax],al
00002543  0000              add [eax],al
00002545  0000              add [eax],al
00002547  0000              add [eax],al
00002549  0000              add [eax],al
0000254B  000400            add [eax+eax],al
0000254E  F1                int1
0000254F  FF13              call near [ebx]
00002551  0000              add [eax],al
00002553  0000              add [eax],al
00002555  0000              add [eax],al
00002557  0000              add [eax],al
00002559  0000              add [eax],al
0000255B  000400            add [eax+eax],al
0000255E  F1                int1
0000255F  FF1E              call far [esi]
00002561  0000              add [eax],al
00002563  007CA304          add [ebx+0x4],bh
00002567  0800              or [eax],al
00002569  0000              add [eax],al
0000256B  0001              add [ecx],al
0000256D  0012              add [edx],dl
0000256F  002C00            add [eax+eax],ch
00002572  0000              add [eax],al
00002574  88A304080000      mov [ebx+0x804],ah
0000257A  0000              add [eax],al
0000257C  0100              add [eax],eax
0000257E  1300              adc eax,[eax]
00002580  3A00              cmp al,[eax]
00002582  0000              add [eax],al
00002584  90                nop
00002585  A304080000        mov [0x804],eax
0000258A  0000              add [eax],al
0000258C  0100              add [eax],eax
0000258E  1400              adc al,0x0
00002590  47                inc edi
00002591  0000              add [eax],al
00002593  007087            add [eax-0x79],dh
00002596  0408              add al,0x8
00002598  0000              add [eax],al
0000259A  0000              add [eax],al
0000259C  0200              add al,[eax]
0000259E  0C00              or al,0x0
000025A0  5C                pop esp
000025A1  0000              add [eax],al
000025A3  00A087040800      add [eax+0x80487],ah
000025A9  0000              add [eax],al
000025AB  0002              add [edx],al
000025AD  000C00            add [eax+eax],cl
000025B0  6F                outsd
000025B1  0000              add [eax],al
000025B3  00E0              add al,ah
000025B5  870408            xchg eax,[eax+ecx]
000025B8  0000              add [eax],al
000025BA  0000              add [eax],al
000025BC  0200              add al,[eax]
000025BE  0C00              or al,0x0
000025C0  8500              test [eax],eax
000025C2  0000              add [eax],al
000025C4  EC                in al,dx
000025C5  A5                movsd
000025C6  0408              add al,0x8
000025C8  0100              add [eax],eax
000025CA  0000              add [eax],al
000025CC  0100              add [eax],eax
000025CE  1900              sbb [eax],eax
000025D0  94                xchg eax,esp
000025D1  0000              add [eax],al
000025D3  00F0              add al,dh
000025D5  A5                movsd
000025D6  0408              add al,0x8
000025D8  0400              add al,0x0
000025DA  0000              add [eax],al
000025DC  0100              add [eax],eax
000025DE  1900              sbb [eax],eax
000025E0  A200000030        mov [0x30000000],al
000025E5  880408            mov [eax+ecx],al
000025E8  0000              add [eax],al
000025EA  0000              add [eax],al
000025EC  0200              add al,[eax]
000025EE  0C00              or al,0x0
000025F0  1300              adc eax,[eax]
000025F2  0000              add [eax],al
000025F4  0000              add [eax],al
000025F6  0000              add [eax],al
000025F8  0000              add [eax],al
000025FA  0000              add [eax],al
000025FC  0400              add al,0x0
000025FE  F1                int1
000025FF  FFAE00000084      jmp far [esi+0x84000000]
00002605  A304080000        mov [0x804],eax
0000260A  0000              add [eax],al
0000260C  0100              add [eax],eax
0000260E  1200              adc al,[eax]
00002610  BB00000058        mov ebx,0x58000000
00002615  93                xchg eax,ebx
00002616  0408              add al,0x8
00002618  0000              add [eax],al
0000261A  0000              add [eax],al
0000261C  0100              add [eax],eax
0000261E  1000              adc [eax],al
00002620  C9                leave
00002621  0000              add [eax],al
00002623  0090A3040800      add [eax+0x804a3],dl
00002629  0000              add [eax],al
0000262B  0001              add [ecx],al
0000262D  001400            add [eax+eax],dl
00002630  D500              aad 0x0
00002632  0000              add [eax],al
00002634  B091              mov al,0x91
00002636  0408              add al,0x8
00002638  0000              add [eax],al
0000263A  0000              add [eax],al
0000263C  0200              add al,[eax]
0000263E  0C00              or al,0x0
00002640  0800              or [eax],al
00002642  0000              add [eax],al
00002644  0000              add [eax],al
00002646  0000              add [eax],al
00002648  0000              add [eax],al
0000264A  0000              add [eax],al
0000264C  0400              add al,0x0
0000264E  F1                int1
0000264F  FF                db 0xFF
00002650  EB00              jmp short 0x2652
00002652  0000              add [eax],al
00002654  0000              add [eax],al
00002656  0000              add [eax],al
00002658  0000              add [eax],al
0000265A  0000              add [eax],al
0000265C  0400              add al,0x0
0000265E  F1                int1
0000265F  FF0D01000000      dec dword [0x1]
00002665  DC7209            fdiv qword [edx+0x9]
00002668  0100              add [eax],eax
0000266A  0000              add [eax],al
0000266C  0100              add [eax],eax
0000266E  1900              sbb [eax],eax
00002670  1C01              sbb al,0x1
00002672  0000              add [eax],al
00002674  E290              loop 0x2606
00002676  0408              add al,0x8
00002678  3F                aas
00002679  0000              add [eax],al
0000267B  0002              add [edx],al
0000267D  000C00            add [eax+eax],cl
00002680  4C                dec esp
00002681  0100              add [eax],eax
00002683  002492            add [edx+edx*4],ah
00002686  0408              add al,0x8
00002688  0400              add al,0x0
0000268A  0000              add [eax],al
0000268C  0100              add [eax],eax
0000268E  0E                push cs
0000268F  005201            add [edx+0x1],dl
00002692  0000              add [eax],al
00002694  219104081C00      and [ecx+0x1c0804],edx
0000269A  0000              add [eax],al
0000269C  0200              add al,[eax]
0000269E  0C00              or al,0x0
000026A0  6B0100            imul eax,[ecx],byte +0x0
000026A3  0000              add [eax],al
000026A5  0000              add [eax],al
000026A7  0000              add [eax],al
000026A9  0000              add [eax],al
000026AB  000400            add [eax+eax],al
000026AE  F1                int1
000026AF  FF00              inc dword [eax]
000026B1  0000              add [eax],al
000026B3  0000              add [eax],al
000026B5  0000              add [eax],al
000026B7  0000              add [eax],al
000026B9  0000              add [eax],al
000026BB  000400            add [eax+eax],al
000026BE  F1                int1
000026BF  FF7601            push dword [esi+0x1]
000026C2  0000              add [eax],al
000026C4  78A4              js 0x266a
000026C6  0408              add al,0x8
000026C8  0000              add [eax],al
000026CA  0000              add [eax],al
000026CC  0100              add [eax],eax
000026CE  17                pop ss
000026CF  008C0100007CA3    add [ecx+eax+0xa37c0000],cl
000026D6  0408              add al,0x8
000026D8  0000              add [eax],al
000026DA  0000              add [eax],al
000026DC  0000              add [eax],al
000026DE  1200              adc al,[eax]
000026E0  9D                popf
000026E1  0100              add [eax],eax
000026E3  007CA304          add [ebx+0x4],bh
000026E7  0800              or [eax],al
000026E9  0000              add [eax],al
000026EB  0000              add [eax],al
000026ED  0012              add [edx],dl
000026EF  00B001000094      add [eax+0x94000001],dh
000026F5  A304080000        mov [0x804],eax
000026FA  0000              add [eax],al
000026FC  0100              add [eax],eax
000026FE  1500B90100        adc eax,0x1b900
00002703  00B4A404080000    add [esp+0x804],dh
0000270A  0000              add [eax],al
0000270C  2000              and [eax],al
0000270E  1800              sbb [eax],al
00002710  C401              les eax,[ecx]
00002712  0000              add [eax],al
00002714  C0A4040890000000  shl byte [esp+eax+0x9008],0x0
0000271C  1100              adc [eax],eax
0000271E  1900              sbb [eax],eax
00002720  DA01              fiadd dword [ecx]
00002722  0000              add [eax],al
00002724  0000              add [eax],al
00002726  0000              add [eax],al
00002728  0000              add [eax],al
0000272A  0000              add [eax],al
0000272C  1200              adc al,[eax]
0000272E  0000              add [eax],al
00002730  F1                int1
00002731  0100              add [eax],eax
00002733  0000              add [eax],al
00002735  0000              add [eax],al
00002737  0000              add [eax],al
00002739  0000              add [eax],al
0000273B  0012              add [edx],dl
0000273D  0000              add [eax],al
0000273F  000B              add [ebx],cl
00002741  0200              add al,[eax]
00002743  004091            add [eax-0x6f],al
00002746  0408              add al,0x8
00002748  0500000012        add eax,0x12000000
0000274D  000C00            add [eax+eax],cl
00002750  1B02              sbb eax,[edx]
00002752  0000              add [eax],al
00002754  40                inc eax
00002755  870408            xchg eax,[eax+ecx]
00002758  0000              add [eax],al
0000275A  0000              add [eax],al
0000275C  1200              adc al,[eax]
0000275E  0C00              or al,0x0
00002760  2202              and al,[edx]
00002762  0000              add [eax],al
00002764  0000              add [eax],al
00002766  0000              add [eax],al
00002768  0000              add [eax],al
0000276A  0000              add [eax],al
0000276C  2000              and [eax],al
0000276E  0000              add [eax],al
00002770  3102              xor [edx],eax
00002772  0000              add [eax],al
00002774  0000              add [eax],al
00002776  0000              add [eax],al
00002778  0000              add [eax],al
0000277A  0000              add [eax],al
0000277C  2000              and [eax],al
0000277E  0000              add [eax],al
00002780  45                inc ebp
00002781  0200              add al,[eax]
00002783  0000              add [eax],al
00002785  92                xchg eax,edx
00002786  0408              add al,0x8
00002788  0400              add al,0x0
0000278A  0000              add [eax],al
0000278C  1100              adc [eax],eax
0000278E  0E                push cs
0000278F  004C0200          add [edx+eax+0x0],cl
00002793  00D8              add al,bl
00002795  91                xchg eax,ecx
00002796  0408              add al,0x8
00002798  0000              add [eax],al
0000279A  0000              add [eax],al
0000279C  1200              adc al,[eax]
0000279E  0D00520200        or eax,0x25200
000027A3  0000              add [eax],al
000027A5  0000              add [eax],al
000027A7  0000              add [eax],al
000027A9  0000              add [eax],al
000027AB  0012              add [edx],dl
000027AD  0000              add [eax],al
000027AF  007702            add [edi+0x2],dh
000027B2  0000              add [eax],al
000027B4  0000              add [eax],al
000027B6  0000              add [eax],al
000027B8  0000              add [eax],al
000027BA  0000              add [eax],al
000027BC  1200              adc al,[eax]
000027BE  0000              add [eax],al
000027C0  94                xchg eax,esp
000027C1  0200              add al,[eax]
000027C3  00D0              add al,dl
000027C5  860408            xchg al,[eax+ecx]
000027C8  0000              add [eax],al
000027CA  0000              add [eax],al
000027CC  1200              adc al,[eax]
000027CE  0000              add [eax],al
000027D0  B902000000        mov ecx,0x2
000027D5  0000              add [eax],al
000027D7  0000              add [eax],al
000027D9  0000              add [eax],al
000027DB  0020              add [eax],ah
000027DD  0000              add [eax],al
000027DF  00D5              add ch,dl
000027E1  0200              add al,[eax]
000027E3  0000              add [eax],al
000027E5  0000              add [eax],al
000027E7  0000              add [eax],al
000027E9  0000              add [eax],al
000027EB  0012              add [edx],dl
000027ED  0000              add [eax],al
000027EF  001A              add [edx],bl
000027F1  0300              add eax,[eax]
000027F3  000492            add [edx+edx*4],al
000027F6  0408              add al,0x8
000027F8  0400              add al,0x0
000027FA  0000              add [eax],al
000027FC  1100              adc [eax],eax
000027FE  0E                push cs
000027FF  0029              add [ecx],ch
00002801  0300              add eax,[eax]
00002803  0000              add [eax],al
00002805  0000              add [eax],al
00002807  0000              add [eax],al
00002809  0000              add [eax],al
0000280B  0020              add [eax],ah
0000280D  0000              add [eax],al
0000280F  004303            add [ebx+0x3],al
00002812  0000              add [eax],al
00002814  B4A4              mov ah,0xa4
00002816  0408              add al,0x8
00002818  0000              add [eax],al
0000281A  0000              add [eax],al
0000281C  1000              adc [eax],al
0000281E  1800              sbb [eax],al
00002820  50                push eax
00002821  0300              add eax,[eax]
00002823  00BCA404080000    add [esp+0x804],bh
0000282A  0000              add [eax],al
0000282C  1102              adc [edx],eax
0000282E  1800              sbb [eax],al
00002830  5C                pop esp
00002831  0300              add eax,[eax]
00002833  0060A5            add [eax-0x5b],ah
00002836  0408              add al,0x8
00002838  8C00              mov [eax],es
0000283A  0000              add [eax],al
0000283C  1100              adc [eax],eax
0000283E  1900              sbb [eax],eax
00002840  7303              jnc 0x2845
00002842  0000              add [eax],al
00002844  B8A4040800        mov eax,0x804a4
00002849  0000              add [eax],al
0000284B  0011              add [ecx],dl
0000284D  0218              add bl,[eax]
0000284F  00800300008C      add [eax+0x8c000003],al
00002855  A304080000        mov [0x804],eax
0000285A  0000              add [eax],al
0000285C  1102              adc [edx],eax
0000285E  1300              adc eax,[eax]
00002860  8D03              lea eax,[ebx]
00002862  0000              add [eax],al
00002864  50                push eax
00002865  91                xchg eax,ecx
00002866  0408              add al,0x8
00002868  5A                pop edx
00002869  0000              add [eax],al
0000286B  0012              add [edx],dl
0000286D  000C00            add [eax+eax],cl
00002870  9D                popf
00002871  0300              add eax,[eax]
00002873  0000              add [eax],al
00002875  C1BB08001BB700    sar dword [ebx+0xb71b0008],0x0
0000287C  1100              adc [eax],eax
0000287E  1900              sbb [eax],eax
00002880  A803              test al,0x3
00002882  0000              add [eax],al
00002884  BCA4040800        mov esp,0x804a4
00002889  0000              add [eax],al
0000288B  0010              add [eax],dl
0000288D  0019              add [ecx],bl
0000288F  00B40300000000    add [ebx+eax+0x0],dh
00002896  0000              add [eax],al
00002898  0000              add [eax],al
0000289A  0000              add [eax],al
0000289C  1200              adc al,[eax]
0000289E  0000              add [eax],al
000028A0  CC                int3
000028A1  0300              add eax,[eax]
000028A3  0004DC            add [esp+ebx*8],al
000028A6  7209              jc 0x28b1
000028A8  0000              add [eax],al
000028AA  0000              add [eax],al
000028AC  1000              adc [eax],al
000028AE  1900              sbb [eax],eax
000028B0  D103              rol dword [ebx],1
000028B2  0000              add [eax],al
000028B4  0000              add [eax],al
000028B6  0000              add [eax],al
000028B8  0000              add [eax],al
000028BA  0000              add [eax],al
000028BC  1200              adc al,[eax]
000028BE  0000              add [eax],al
000028C0  EF                out dx,eax
000028C1  0300              add eax,[eax]
000028C3  0010              add [eax],dl
000028C5  870408            xchg eax,[eax+ecx]
000028C8  0000              add [eax],al
000028CA  0000              add [eax],al
000028CC  1200              adc al,[eax]
000028CE  0000              add [eax],al
000028D0  37                aaa
000028D1  0400              add al,0x0
000028D3  0000              add [eax],al
000028D5  A6                cmpsb
000028D6  0408              add al,0x8
000028D8  001B              add [ebx],bl
000028DA  B700              mov bh,0x0
000028DC  1100              adc [eax],eax
000028DE  1900              sbb [eax],eax
000028E0  41                inc ecx
000028E1  0400              add al,0x0
000028E3  00BCA404080000    add [esp+0x804],bh
000028EA  0000              add [eax],al
000028EC  1000              adc [eax],al
000028EE  1800              sbb [eax],al
000028F0  48                dec eax
000028F1  0400              add al,0x0
000028F3  0020              add [eax],ah
000028F5  870408            xchg eax,[eax+ecx]
000028F8  0000              add [eax],al
000028FA  0000              add [eax],al
000028FC  1200              adc al,[eax]
000028FE  0000              add [eax],al
00002900  69040000000000    imul eax,[eax+eax],dword 0x0
00002907  0000              add [eax],al
00002909  0000              add [eax],al
0000290B  0012              add [edx],dl
0000290D  0000              add [eax],al
0000290F  0081040000AA      add [ecx+0xaa000004],al
00002915  91                xchg eax,ecx
00002916  0408              add al,0x8
00002918  0000              add [eax],al
0000291A  0000              add [eax],al
0000291C  1202              adc al,[edx]
0000291E  0C00              or al,0x0
00002920  98                cwde
00002921  0400              add al,0x0
00002923  006088            add [eax-0x78],ah
00002926  0408              add al,0x8
00002928  82                db 0x82
00002929  0800              or [eax],al
0000292B  0012              add [edx],dl
0000292D  000C00            add [eax+eax],cl
00002930  9D                popf
00002931  0400              add al,0x0
00002933  003C86            add [esi+eax*4],bh
00002936  0408              add al,0x8
00002938  0000              add [eax],al
0000293A  0000              add [eax],al
0000293C  1200              adc al,[eax]
0000293E  0A00              or al,[eax]
00002940  00696E            add [ecx+0x6e],ch
00002943  69742E6300696E69  imul esi,[esi+ebp+0x63],dword 0x696e6900
0000294B  7466              jz 0x29b3
0000294D  696E692E630063    imul ebp,[esi+0x69],dword 0x6300632e
00002954  7274              jc 0x29ca
00002956  7374              jnc 0x29cc
00002958  7566              jnz 0x29c0
0000295A  662E6300          o16 arpl [cs:eax],ax
0000295E  5F                pop edi
0000295F  5F                pop edi
00002960  43                inc ebx
00002961  54                push esp
00002962  4F                dec edi
00002963  52                push edx
00002964  5F                pop edi
00002965  4C                dec esp
00002966  49                dec ecx
00002967  53                push ebx
00002968  54                push esp
00002969  5F                pop edi
0000296A  5F                pop edi
0000296B  005F5F            add [edi+0x5f],bl
0000296E  44                inc esp
0000296F  54                push esp
00002970  4F                dec edi
00002971  52                push edx
00002972  5F                pop edi
00002973  4C                dec esp
00002974  49                dec ecx
00002975  53                push ebx
00002976  54                push esp
00002977  5F                pop edi
00002978  5F                pop edi
00002979  005F5F            add [edi+0x5f],bl
0000297C  4A                dec edx
0000297D  43                inc ebx
0000297E  52                push edx
0000297F  5F                pop edi
00002980  4C                dec esp
00002981  49                dec ecx
00002982  53                push ebx
00002983  54                push esp
00002984  5F                pop edi
00002985  5F                pop edi
00002986  00646572          add [ebp+0x72],ah
0000298A  656769737465725F  imul esi,[gs:bp+di+0x74],dword 0x745f7265
         -74
00002993  6D                insd
00002994  5F                pop edi
00002995  636C6F6E          arpl [edi+ebp*2+0x6e],bp
00002999  657300            gs jnc 0x299c
0000299C  7265              jc 0x2a03
0000299E  6769737465725F74  imul esi,[bp+di+0x74],dword 0x745f7265
000029A6  6D                insd
000029A7  5F                pop edi
000029A8  636C6F6E          arpl [edi+ebp*2+0x6e],bp
000029AC  657300            gs jnc 0x29af
000029AF  5F                pop edi
000029B0  5F                pop edi
000029B1  646F              fs outsd
000029B3  5F                pop edi
000029B4  676C              a16 insb
000029B6  6F                outsd
000029B7  62616C            bound esp,[ecx+0x6c]
000029BA  5F                pop edi
000029BB  64746F            fs jz 0x2a2d
000029BE  7273              jc 0x2a33
000029C0  5F                pop edi
000029C1  61                popa
000029C2  7578              jnz 0x2a3c
000029C4  00636F            add [ebx+0x6f],ah
000029C7  6D                insd
000029C8  706C              jo 0x2a36
000029CA  657465            gs jz 0x2a32
000029CD  642E3333          xor esi,[cs:ebx]
000029D1  3238              xor bh,[eax]
000029D3  0064746F          add [esp+esi*2+0x6f],ah
000029D7  725F              jc 0x2a38
000029D9  6964782E33333330  imul esp,[eax+edi*2+0x2e],dword 0x30333333
000029E1  006672            add [esi+0x72],ah
000029E4  61                popa
000029E5  6D                insd
000029E6  655F              gs pop edi
000029E8  64756D            fs jnz 0x2a58
000029EB  6D                insd
000029EC  7900              jns 0x29ee
000029EE  5F                pop edi
000029EF  5F                pop edi
000029F0  43                inc ebx
000029F1  54                push esp
000029F2  4F                dec edi
000029F3  52                push edx
000029F4  5F                pop edi
000029F5  45                inc ebp
000029F6  4E                dec esi
000029F7  44                inc esp
000029F8  5F                pop edi
000029F9  5F                pop edi
000029FA  005F5F            add [edi+0x5f],bl
000029FD  46                inc esi
000029FE  52                push edx
000029FF  41                inc ecx
00002A00  4D                dec ebp
00002A01  45                inc ebp
00002A02  5F                pop edi
00002A03  45                inc ebp
00002A04  4E                dec esi
00002A05  44                inc esp
00002A06  5F                pop edi
00002A07  5F                pop edi
00002A08  005F5F            add [edi+0x5f],bl
00002A0B  4A                dec edx
00002A0C  43                inc ebx
00002A0D  52                push edx
00002A0E  5F                pop edi
00002A0F  45                inc ebp
00002A10  4E                dec esi
00002A11  44                inc esp
00002A12  5F                pop edi
00002A13  5F                pop edi
00002A14  005F5F            add [edi+0x5f],bl
00002A17  646F              fs outsd
00002A19  5F                pop edi
00002A1A  676C              a16 insb
00002A1C  6F                outsd
00002A1D  62616C            bound esp,[ecx+0x6c]
00002A20  5F                pop edi
00002A21  63746F72          arpl [edi+ebp*2+0x72],si
00002A25  735F              jnc 0x2a86
00002A27  61                popa
00002A28  7578              jnz 0x2aa2
00002A2A  0032              add [edx],dh
00002A2C  3938              cmp [eax],edi
00002A2E  3434              xor al,0x34
00002A30  3836              cmp [esi],dh
00002A32  5F                pop edi
00002A33  3537353231        xor eax,0x31323537
00002A38  303430            xor [eax+esi],dh
00002A3B  37                aaa
00002A3C  3332              xor esi,[edx]
00002A3E  3937              cmp [edi],esi
00002A40  3932              cmp [edx],esi
00002A42  305F64            xor [edi+0x64],bl
00002A45  6C                insb
00002A46  6C                insb
00002A47  752E              jnz 0x2a77
00002A49  637070            arpl [eax+0x70],si
00002A4C  005F5A            add [edi+0x5a],bl
00002A4F  53                push ebx
00002A50  744C              jz 0x2a9e
00002A52  385F5F            cmp [edi+0x5f],bl
00002A55  696F696E697400    imul ebp,[edi+0x69],dword 0x74696e
00002A5C  5F                pop edi
00002A5D  5A                pop edx
00002A5E  3431              xor al,0x31
00002A60  5F                pop edi
00002A61  5F                pop edi
00002A62  7374              jnc 0x2ad8
00002A64  61                popa
00002A65  7469              jz 0x2ad0
00002A67  635F69            arpl [edi+0x69],bx
00002A6A  6E                outsb
00002A6B  697469616C697A61  imul esi,[ecx+ebp*2+0x61],dword 0x617a696c
00002A73  7469              jz 0x2ade
00002A75  6F                outsd
00002A76  6E                outsb
00002A77  5F                pop edi
00002A78  61                popa
00002A79  6E                outsb
00002A7A  645F              fs pop edi
00002A7C  64657374          gs jnc 0x2af4
00002A80  7275              jc 0x2af7
00002A82  6374696F          arpl [ecx+ebp*2+0x6f],si
00002A86  6E                outsb
00002A87  5F                pop edi
00002A88  306969            xor [ecx+0x69],ch
00002A8B  005F5A            add [edi+0x5a],bl
00002A8E  4C                dec esp
00002A8F  314D00            xor [ebp+0x0],ecx
00002A92  5F                pop edi
00002A93  47                inc edi
00002A94  4C                dec esp
00002A95  4F                dec edi
00002A96  42                inc edx
00002A97  41                inc ecx
00002A98  4C                dec esp
00002A99  5F                pop edi
00002A9A  5F                pop edi
00002A9B  7375              jnc 0x2b12
00002A9D  625F49            bound ebx,[edi+0x49]
00002AA0  5F                pop edi
00002AA1  686973746F        push dword 0x6f747369
00002AA6  677261            a16 jc 0x2b0a
00002AA9  6D                insd
00002AAA  00656C            add [ebp+0x6c],ah
00002AAD  662D696E          sub ax,0x6e69
00002AB1  69742E63005F474C  imul esi,[esi+ebp+0x63],dword 0x4c475f00
00002AB9  4F                dec edi
00002ABA  42                inc edx
00002ABB  41                inc ecx
00002ABC  4C                dec esp
00002ABD  5F                pop edi
00002ABE  4F                dec edi
00002ABF  46                inc esi
00002AC0  46                inc esi
00002AC1  53                push ebx
00002AC2  45                inc ebp
00002AC3  54                push esp
00002AC4  5F                pop edi
00002AC5  54                push esp
00002AC6  41                inc ecx
00002AC7  42                inc edx
00002AC8  4C                dec esp
00002AC9  45                inc ebp
00002ACA  5F                pop edi
00002ACB  005F5F            add [edi+0x5f],bl
00002ACE  696E69745F6172    imul ebp,[esi+0x69],dword 0x72615f74
00002AD5  7261              jc 0x2b38
00002AD7  795F              jns 0x2b38
00002AD9  656E              gs outsb
00002ADB  64005F5F          add [fs:edi+0x5f],bl
00002ADF  696E69745F6172    imul ebp,[esi+0x69],dword 0x72615f74
00002AE6  7261              jc 0x2b49
00002AE8  795F              jns 0x2b49
00002AEA  7374              jnc 0x2b60
00002AEC  61                popa
00002AED  7274              jc 0x2b63
00002AEF  005F44            add [edi+0x44],bl
00002AF2  59                pop ecx
00002AF3  4E                dec esi
00002AF4  41                inc ecx
00002AF5  4D                dec ebp
00002AF6  49                dec ecx
00002AF7  43                inc ebx
00002AF8  00646174          add [ecx+0x74],ah
00002AFC  61                popa
00002AFD  5F                pop edi
00002AFE  7374              jnc 0x2b74
00002B00  61                popa
00002B01  7274              jc 0x2b77
00002B03  005F5A            add [edi+0x5a],bl
00002B06  53                push ebx
00002B07  7433              jz 0x2b3c
00002B09  63696E            arpl [ecx+0x6e],bp
00002B0C  40                inc eax
00002B0D  40                inc eax
00002B0E  47                inc edi
00002B0F  4C                dec esp
00002B10  49                dec ecx
00002B11  42                inc edx
00002B12  43                inc ebx
00002B13  58                pop eax
00002B14  58                pop eax
00002B15  5F                pop edi
00002B16  332E              xor ebp,[esi]
00002B18  3400              xor al,0x0
00002B1A  5F                pop edi
00002B1B  5A                pop edx
00002B1C  4E                dec esi
00002B1D  53                push ebx
00002B1E  6F                outsd
00002B1F  6C                insb
00002B20  7345              jnc 0x2b67
00002B22  694040474C4942    imul eax,[eax+0x40],dword 0x42494c47
00002B29  43                inc ebx
00002B2A  58                pop eax
00002B2B  58                pop eax
00002B2C  5F                pop edi
00002B2D  332E              xor ebp,[esi]
00002B2F  3400              xor al,0x0
00002B31  5F                pop edi
00002B32  5F                pop edi
00002B33  637861            arpl [eax+0x61],di
00002B36  5F                pop edi
00002B37  61                popa
00002B38  7465              jz 0x2b9f
00002B3A  7869              js 0x2ba5
00002B3C  7440              jz 0x2b7e
00002B3E  40                inc eax
00002B3F  47                inc edi
00002B40  4C                dec esp
00002B41  49                dec ecx
00002B42  42                inc edx
00002B43  43                inc ebx
00002B44  5F                pop edi
00002B45  322E              xor ch,[esi]
00002B47  312E              xor [esi],ebp
00002B49  3300              xor eax,[eax]
00002B4B  5F                pop edi
00002B4C  5F                pop edi
00002B4D  6C                insb
00002B4E  6962635F637375    imul esp,[edx+0x63],dword 0x7573635f
00002B55  5F                pop edi
00002B56  66696E69005F      imul bp,[esi+0x69],word 0x5f00
00002B5C  7374              jnc 0x2bd2
00002B5E  61                popa
00002B5F  7274              jc 0x2bd5
00002B61  005F5F            add [edi+0x5f],bl
00002B64  676D              a16 insd
00002B66  6F                outsd
00002B67  6E                outsb
00002B68  5F                pop edi
00002B69  7374              jnc 0x2bdf
00002B6B  61                popa
00002B6C  7274              jc 0x2be2
00002B6E  5F                pop edi
00002B6F  5F                pop edi
00002B70  005F4A            add [edi+0x4a],bl
00002B73  765F              jna 0x2bd4
00002B75  52                push edx
00002B76  6567697374657243  imul esi,[gs:bp+di+0x74],dword 0x6c437265
         -6C
00002B7F  61                popa
00002B80  7373              jnc 0x2bf5
00002B82  657300            gs jnc 0x2b85
00002B85  5F                pop edi
00002B86  66705F            o16 jo 0x2be8
00002B89  6877005F66        push dword 0x665f0077
00002B8E  696E69005F5A4E    imul ebp,[esi+0x69],dword 0x4e5a5f00
00002B95  53                push ebx
00002B96  7438              jz 0x2bd0
00002B98  696F735F626173    imul ebp,[edi+0x73],dword 0x7361625f
00002B9F  653449            gs xor al,0x49
00002BA2  6E                outsb
00002BA3  6974433145764040  imul esi,[ebx+eax*2+0x31],dword 0x40407645
00002BAB  47                inc edi
00002BAC  4C                dec esp
00002BAD  49                dec ecx
00002BAE  42                inc edx
00002BAF  43                inc ebx
00002BB0  58                pop eax
00002BB1  58                pop eax
00002BB2  5F                pop edi
00002BB3  332E              xor ebp,[esi]
00002BB5  3400              xor al,0x0
00002BB7  5F                pop edi
00002BB8  5F                pop edi
00002BB9  6C                insb
00002BBA  6962635F737461    imul esp,[edx+0x63],dword 0x6174735f
00002BC1  7274              jc 0x2c37
00002BC3  5F                pop edi
00002BC4  6D                insd
00002BC5  61                popa
00002BC6  696E4040474C49    imul ebp,[esi+0x40],dword 0x494c4740
00002BCD  42                inc edx
00002BCE  43                inc ebx
00002BCF  5F                pop edi
00002BD0  322E              xor ch,[esi]
00002BD2  3000              xor [eax],al
00002BD4  5F                pop edi
00002BD5  5A                pop edx
00002BD6  4E                dec esi
00002BD7  53                push ebx
00002BD8  7438              jz 0x2c12
00002BDA  696F735F626173    imul ebp,[edi+0x73],dword 0x7361625f
00002BE1  653449            gs xor al,0x49
00002BE4  6E                outsb
00002BE5  6974443145764040  imul esi,[esp+eax*2+0x31],dword 0x40407645
00002BED  47                inc edi
00002BEE  4C                dec esp
00002BEF  49                dec ecx
00002BF0  42                inc edx
00002BF1  43                inc ebx
00002BF2  58                pop eax
00002BF3  58                pop eax
00002BF4  5F                pop edi
00002BF5  332E              xor ebp,[esi]
00002BF7  3400              xor al,0x0
00002BF9  5F                pop edi
00002BFA  49                dec ecx
00002BFB  54                push esp
00002BFC  4D                dec ebp
00002BFD  5F                pop edi
00002BFE  64657265          gs jc 0x2c67
00002C02  676973746572544D  imul esi,[bp+di+0x74],dword 0x4d547265
00002C0A  43                inc ebx
00002C0B  6C                insb
00002C0C  6F                outsd
00002C0D  6E                outsb
00002C0E  6554              gs push esp
00002C10  61                popa
00002C11  626C6500          bound ebp,[ebp+0x0]
00002C15  5F                pop edi
00002C16  5A                pop edx
00002C17  53                push ebx
00002C18  746C              jz 0x2c86
00002C1A  7349              jnc 0x2c65
00002C1C  53                push ebx
00002C1D  7431              jz 0x2c50
00002C1F  316368            xor [ebx+0x68],esp
00002C22  61                popa
00002C23  725F              jc 0x2c84
00002C25  7472              jz 0x2c99
00002C27  61                popa
00002C28  6974734963454552  imul esi,[ebx+esi*2+0x49],dword 0x52454563
00002C30  53                push ebx
00002C31  7431              jz 0x2c64
00002C33  336261            xor esp,[edx+0x61]
00002C36  7369              jnc 0x2ca1
00002C38  635F6F            arpl [edi+0x6f],bx
00002C3B  7374              jnc 0x2cb1
00002C3D  7265              jc 0x2ca4
00002C3F  61                popa
00002C40  6D                insd
00002C41  49                dec ecx
00002C42  63545F45          arpl [edi+ebx*2+0x45],dx
00002C46  53                push ebx
00002C47  355F504B63        xor eax,0x634b505f
00002C4C  40                inc eax
00002C4D  40                inc eax
00002C4E  47                inc edi
00002C4F  4C                dec esp
00002C50  49                dec ecx
00002C51  42                inc edx
00002C52  43                inc ebx
00002C53  58                pop eax
00002C54  58                pop eax
00002C55  5F                pop edi
00002C56  332E              xor ebp,[esi]
00002C58  3400              xor al,0x0
00002C5A  5F                pop edi
00002C5B  49                dec ecx
00002C5C  4F                dec edi
00002C5D  5F                pop edi
00002C5E  7374              jnc 0x2cd4
00002C60  64696E5F75736564  imul ebp,[fs:esi+0x5f],dword 0x64657375
00002C68  005F49            add [edi+0x49],bl
00002C6B  54                push esp
00002C6C  4D                dec ebp
00002C6D  5F                pop edi
00002C6E  7265              jc 0x2cd5
00002C70  676973746572544D  imul esi,[bp+di+0x74],dword 0x4d547265
00002C78  43                inc ebx
00002C79  6C                insb
00002C7A  6F                outsd
00002C7B  6E                outsb
00002C7C  6554              gs push esp
00002C7E  61                popa
00002C7F  626C6500          bound ebp,[ebp+0x0]
00002C83  5F                pop edi
00002C84  5F                pop edi
00002C85  6461              fs popa
00002C87  7461              jz 0x2cea
00002C89  5F                pop edi
00002C8A  7374              jnc 0x2d00
00002C8C  61                popa
00002C8D  7274              jc 0x2d03
00002C8F  005F5F            add [edi+0x5f],bl
00002C92  54                push esp
00002C93  4D                dec ebp
00002C94  43                inc ebx
00002C95  5F                pop edi
00002C96  45                inc ebp
00002C97  4E                dec esi
00002C98  44                inc esp
00002C99  5F                pop edi
00002C9A  5F                pop edi
00002C9B  005F5A            add [edi+0x5a],bl
00002C9E  53                push ebx
00002C9F  7434              jz 0x2cd5
00002CA1  636F75            arpl [edi+0x75],bp
00002CA4  7440              jz 0x2ce6
00002CA6  40                inc eax
00002CA7  47                inc edi
00002CA8  4C                dec esp
00002CA9  49                dec ecx
00002CAA  42                inc edx
00002CAB  43                inc ebx
00002CAC  58                pop eax
00002CAD  58                pop eax
00002CAE  5F                pop edi
00002CAF  332E              xor ebp,[esi]
00002CB1  3400              xor al,0x0
00002CB3  5F                pop edi
00002CB4  5F                pop edi
00002CB5  64736F            fs jnc 0x2d27
00002CB8  5F                pop edi
00002CB9  68616E646C        push dword 0x6c646e61
00002CBE  65005F5F          add [gs:edi+0x5f],bl
00002CC2  44                inc esp
00002CC3  54                push esp
00002CC4  4F                dec edi
00002CC5  52                push edx
00002CC6  5F                pop edi
00002CC7  45                inc ebp
00002CC8  4E                dec esi
00002CC9  44                inc esp
00002CCA  5F                pop edi
00002CCB  5F                pop edi
00002CCC  005F5F            add [edi+0x5f],bl
00002CCF  6C                insb
00002CD0  6962635F637375    imul esp,[edx+0x63],dword 0x7573635f
00002CD7  5F                pop edi
00002CD8  696E6974006869    imul ebp,[esi+0x69],dword 0x69680074
00002CDF  7374              jnc 0x2d55
00002CE1  6F                outsd
00002CE2  677261            a16 jc 0x2d46
00002CE5  6D                insd
00002CE6  3200              xor al,[eax]
00002CE8  5F                pop edi
00002CE9  5F                pop edi
00002CEA  627373            bound esi,[ebx+0x73]
00002CED  5F                pop edi
00002CEE  7374              jnc 0x2d64
00002CF0  61                popa
00002CF1  7274              jc 0x2d67
00002CF3  005F5A            add [edi+0x5a],bl
00002CF6  4E                dec esi
00002CF7  53                push ebx
00002CF8  69727345526940    imul esi,[edx+0x73],dword 0x40695245
00002CFF  40                inc eax
00002D00  47                inc edi
00002D01  4C                dec esp
00002D02  49                dec ecx
00002D03  42                inc edx
00002D04  43                inc ebx
00002D05  58                pop eax
00002D06  58                pop eax
00002D07  5F                pop edi
00002D08  332E              xor ebp,[esi]
00002D0A  3400              xor al,0x0
00002D0C  5F                pop edi
00002D0D  656E              gs outsb
00002D0F  64005F5A          add [fs:edi+0x5a],bl
00002D13  4E                dec esi
00002D14  53                push ebx
00002D15  6F                outsd
00002D16  6C                insb
00002D17  7345              jnc 0x2d5e
00002D19  50                push eax
00002D1A  46                inc esi
00002D1B  52                push edx
00002D1C  53                push ebx
00002D1D  6F                outsd
00002D1E  53                push ebx
00002D1F  5F                pop edi
00002D20  45                inc ebp
00002D21  40                inc eax
00002D22  40                inc eax
00002D23  47                inc edi
00002D24  4C                dec esp
00002D25  49                dec ecx
00002D26  42                inc edx
00002D27  43                inc ebx
00002D28  58                pop eax
00002D29  58                pop eax
00002D2A  5F                pop edi
00002D2B  332E              xor ebp,[esi]
00002D2D  3400              xor al,0x0
00002D2F  5F                pop edi
00002D30  5A                pop edx
00002D31  53                push ebx
00002D32  7434              jz 0x2d68
00002D34  656E              gs outsb
00002D36  646C              fs insb
00002D38  49                dec ecx
00002D39  635374            arpl [ebx+0x74],dx
00002D3C  3131              xor [ecx],esi
00002D3E  636861            arpl [eax+0x61],bp
00002D41  725F              jc 0x2da2
00002D43  7472              jz 0x2db7
00002D45  61                popa
00002D46  6974734963454552  imul esi,[ebx+esi*2+0x49],dword 0x52454563
00002D4E  53                push ebx
00002D4F  7431              jz 0x2d82
00002D51  336261            xor esp,[edx+0x61]
00002D54  7369              jnc 0x2dbf
00002D56  635F6F            arpl [edi+0x6f],bx
00002D59  7374              jnc 0x2dcf
00002D5B  7265              jc 0x2dc2
00002D5D  61                popa
00002D5E  6D                insd
00002D5F  49                dec ecx
00002D60  54                push esp
00002D61  5F                pop edi
00002D62  54                push esp
00002D63  305F45            xor [edi+0x45],bl
00002D66  53                push ebx
00002D67  365F              ss pop edi
00002D69  40                inc eax
00002D6A  40                inc eax
00002D6B  47                inc edi
00002D6C  4C                dec esp
00002D6D  49                dec ecx
00002D6E  42                inc edx
00002D6F  43                inc ebx
00002D70  58                pop eax
00002D71  58                pop eax
00002D72  5F                pop edi
00002D73  332E              xor ebp,[esi]
00002D75  3400              xor al,0x0
00002D77  686973746F        push dword 0x6f747369
00002D7C  677261            a16 jc 0x2de0
00002D7F  6D                insd
00002D80  005F65            add [edi+0x65],bl
00002D83  6461              fs popa
00002D85  7461              jz 0x2de8
00002D87  005F5F            add [edi+0x5f],bl
00002D8A  677878            a16 js 0x2e05
00002D8D  5F                pop edi
00002D8E  7065              jo 0x2df5
00002D90  7273              jc 0x2e05
00002D92  6F                outsd
00002D93  6E                outsb
00002D94  61                popa
00002D95  6C                insb
00002D96  6974795F76304040  imul esi,[ecx+edi*2+0x5f],dword 0x40403076
00002D9E  43                inc ebx
00002D9F  58                pop eax
00002DA0  58                pop eax
00002DA1  41                inc ecx
00002DA2  42                inc edx
00002DA3  49                dec ecx
00002DA4  5F                pop edi
00002DA5  312E              xor [esi],ebp
00002DA7  3300              xor eax,[eax]
00002DA9  5F                pop edi
00002DAA  55                push ebp
00002DAB  6E                outsb
00002DAC  7769              ja 0x2e17
00002DAE  6E                outsb
00002DAF  645F              fs pop edi
00002DB1  52                push edx
00002DB2  657375            gs jnc 0x2e2a
00002DB5  6D                insd
00002DB6  6540              gs inc eax
00002DB8  40                inc eax
00002DB9  47                inc edi
00002DBA  43                inc ebx
00002DBB  43                inc ebx
00002DBC  5F                pop edi
00002DBD  332E              xor ebp,[esi]
00002DBF  3000              xor [eax],al
00002DC1  5F                pop edi
00002DC2  5F                pop edi
00002DC3  693638362E67      imul esi,[esi],dword 0x672e3638
00002DC9  65745F            gs jz 0x2e2b
00002DCC  7063              jo 0x2e31
00002DCE  5F                pop edi
00002DCF  7468              jz 0x2e39
00002DD1  756E              jnz 0x2e41
00002DD3  6B2E62            imul ebp,[esi],byte +0x62
00002DD6  7800              js 0x2dd8
00002DD8  6D                insd
00002DD9  61                popa
00002DDA  696E005F696E69    imul ebp,[esi+0x0],dword 0x696e695f
00002DE1  7400              jz 0x2de3
