00000000  7F45              jg 0x47
00000002  4C                dec esp
00000003  46                inc esi
00000004  0101              add [ecx],eax
00000006  0100              add [eax],eax
00000008  0000              add [eax],al
0000000A  0000              add [eax],al
0000000C  0000              add [eax],al
0000000E  0000              add [eax],al
00000010  0200              add al,[eax]
00000012  0300              add eax,[eax]
00000014  0100              add [eax],eax
00000016  0000              add [eax],al
00000018  808B0408340000    or byte [ebx+0x340804],0x0
0000001F  007025            add [eax+0x25],dh
00000022  0000              add [eax],al
00000024  0000              add [eax],al
00000026  0000              add [eax],al
00000028  3400              xor al,0x0
0000002A  2000              and [eax],al
0000002C  0800              or [eax],al
0000002E  2800              sub [eax],al
00000030  260023            add [es:ebx],ah
00000033  0006              add [esi],al
00000035  0000              add [eax],al
00000037  003400            add [eax+eax],dh
0000003A  0000              add [eax],al
0000003C  3480              xor al,0x80
0000003E  0408              add al,0x8
00000040  3480              xor al,0x80
00000042  0408              add al,0x8
00000044  0001              add [ecx],al
00000046  0000              add [eax],al
00000048  0001              add [ecx],al
0000004A  0000              add [eax],al
0000004C  0500000004        add eax,0x4000000
00000051  0000              add [eax],al
00000053  0003              add [ebx],al
00000055  0000              add [eax],al
00000057  003401            add [ecx+eax],dh
0000005A  0000              add [eax],al
0000005C  3481              xor al,0x81
0000005E  0408              add al,0x8
00000060  3481              xor al,0x81
00000062  0408              add al,0x8
00000064  1300              adc eax,[eax]
00000066  0000              add [eax],al
00000068  1300              adc eax,[eax]
0000006A  0000              add [eax],al
0000006C  0400              add al,0x0
0000006E  0000              add [eax],al
00000070  0100              add [eax],eax
00000072  0000              add [eax],al
00000074  0100              add [eax],eax
00000076  0000              add [eax],al
00000078  0000              add [eax],al
0000007A  0000              add [eax],al
0000007C  008004080080      add [eax+0x80000804],al
00000082  0408              add al,0x8
00000084  9A1B00009A1B00    call 0x1b:0x9a00001b
0000008B  000500000000      add [0x0],al
00000091  1000              adc [eax],al
00000093  0001              add [ecx],al
00000095  0000              add [eax],al
00000097  009C1B00009CAB    add [ebx+ebx+0xab9c0000],bl
0000009E  0408              add al,0x8
000000A0  9C                pushf
000000A1  AB                stosd
000000A2  0408              add al,0x8
000000A4  800100            add byte [ecx],0x0
000000A7  00C4              add ah,al
000000A9  0200              add al,[eax]
000000AB  0006              add [esi],al
000000AD  0000              add [eax],al
000000AF  0000              add [eax],al
000000B1  1000              adc [eax],al
000000B3  0002              add [edx],al
000000B5  0000              add [eax],al
000000B7  00B41B0000B4AB    add [ebx+ebx+0xabb40000],dh
000000BE  0408              add al,0x8
000000C0  B4AB              mov ah,0xab
000000C2  0408              add al,0x8
000000C4  E000              loopne 0xc6
000000C6  0000              add [eax],al
000000C8  E000              loopne 0xca
000000CA  0000              add [eax],al
000000CC  06                push es
000000CD  0000              add [eax],al
000000CF  000400            add [eax+eax],al
000000D2  0000              add [eax],al
000000D4  0400              add al,0x0
000000D6  0000              add [eax],al
000000D8  48                dec eax
000000D9  0100              add [eax],eax
000000DB  004881            add [eax-0x7f],cl
000000DE  0408              add al,0x8
000000E0  48                dec eax
000000E1  81040820000000    add dword [eax+ecx],0x20
000000E8  2000              and [eax],al
000000EA  0000              add [eax],al
000000EC  0400              add al,0x0
000000EE  0000              add [eax],al
000000F0  0400              add al,0x0
000000F2  0000              add [eax],al
000000F4  50                push eax
000000F5  E574              in eax,0x74
000000F7  64F4              fs hlt
000000F9  150000F495        adc eax,0x95f40000
000000FE  0408              add al,0x8
00000100  F4                hlt
00000101  95                xchg eax,ebp
00000102  0408              add al,0x8
00000104  FC                cld
00000105  0000              add [eax],al
00000107  00FC              add ah,bh
00000109  0000              add [eax],al
0000010B  000400            add [eax+eax],al
0000010E  0000              add [eax],al
00000110  0400              add al,0x0
00000112  0000              add [eax],al
00000114  51                push ecx
00000115  E574              in eax,0x74
00000117  640000            add [fs:eax],al
0000011A  0000              add [eax],al
0000011C  0000              add [eax],al
0000011E  0000              add [eax],al
00000120  0000              add [eax],al
00000122  0000              add [eax],al
00000124  0000              add [eax],al
00000126  0000              add [eax],al
00000128  0000              add [eax],al
0000012A  0000              add [eax],al
0000012C  06                push es
0000012D  0000              add [eax],al
0000012F  000400            add [eax+eax],al
00000132  0000              add [eax],al
00000134  2F                das
00000135  6C                insb
00000136  69622F6C642D6C    imul esp,[edx+0x2f],dword 0x6c2d646c
0000013D  696E75782E736F    imul ebp,[esi+0x75],dword 0x6f732e78
00000144  2E3200            xor al,[cs:eax]
00000147  000400            add [eax+eax],al
0000014A  0000              add [eax],al
0000014C  1000              adc [eax],al
0000014E  0000              add [eax],al
00000150  0100              add [eax],eax
00000152  0000              add [eax],al
00000154  47                inc edi
00000155  4E                dec esi
00000156  55                push ebp
00000157  0000              add [eax],al
00000159  0000              add [eax],al
0000015B  0002              add [edx],al
0000015D  0000              add [eax],al
0000015F  0000              add [eax],al
00000161  0000              add [eax],al
00000163  0000              add [eax],al
00000165  0000              add [eax],al
00000167  0011              add [ecx],dl
00000169  0000              add [eax],al
0000016B  002400            add [eax+eax],ah
0000016E  0000              add [eax],al
00000170  1A00              sbb al,[eax]
00000172  0000              add [eax],al
00000174  0000              add [eax],al
00000176  0000              add [eax],al
00000178  1200              adc al,[eax]
0000017A  0000              add [eax],al
0000017C  1E                push ds
0000017D  0000              add [eax],al
0000017F  0021              add [ecx],ah
00000181  0000              add [eax],al
00000183  0000              add [eax],al
00000185  0000              add [eax],al
00000187  0022              add [edx],ah
00000189  0000              add [eax],al
0000018B  0016              add [esi],dl
0000018D  0000              add [eax],al
0000018F  001C00            add [eax+eax],bl
00000192  0000              add [eax],al
00000194  0B00              or eax,[eax]
00000196  0000              add [eax],al
00000198  2300              and eax,[eax]
0000019A  0000              add [eax],al
0000019C  0900              or [eax],eax
0000019E  0000              add [eax],al
000001A0  1100              adc [eax],eax
000001A2  0000              add [eax],al
000001A4  1300              adc eax,[eax]
000001A6  0000              add [eax],al
000001A8  0F0000            sldt [eax]
000001AB  0007              add [edi],al
000001AD  0000              add [eax],al
000001AF  0020              add [eax],ah
000001B1  0000              add [eax],al
000001B3  0000              add [eax],al
000001B5  0000              add [eax],al
000001B7  0000              add [eax],al
000001B9  0000              add [eax],al
000001BB  0001              add [ecx],al
000001BD  0000              add [eax],al
000001BF  0000              add [eax],al
000001C1  0000              add [eax],al
000001C3  0000              add [eax],al
000001C5  0000              add [eax],al
000001C7  0000              add [eax],al
000001C9  0000              add [eax],al
000001CB  0000              add [eax],al
000001CD  0000              add [eax],al
000001CF  0000              add [eax],al
000001D1  0000              add [eax],al
000001D3  0003              add [ebx],al
000001D5  0000              add [eax],al
000001D7  0000              add [eax],al
000001D9  0000              add [eax],al
000001DB  0006              add [esi],al
000001DD  0000              add [eax],al
000001DF  0000              add [eax],al
000001E1  0000              add [eax],al
000001E3  0000              add [eax],al
000001E5  0000              add [eax],al
000001E7  0000              add [eax],al
000001E9  0000              add [eax],al
000001EB  000A              add [edx],cl
000001ED  0000              add [eax],al
000001EF  00050000000D      add [0xd000000],al
000001F5  0000              add [eax],al
000001F7  000C00            add [eax+eax],cl
000001FA  0000              add [eax],al
000001FC  0400              add al,0x0
000001FE  0000              add [eax],al
00000200  1000              adc [eax],al
00000202  0000              add [eax],al
00000204  0800              or [eax],al
00000206  0000              add [eax],al
00000208  1400              adc al,0x0
0000020A  0000              add [eax],al
0000020C  0E                push cs
0000020D  0000              add [eax],al
0000020F  0000              add [eax],al
00000211  0000              add [eax],al
00000213  0000              add [eax],al
00000215  0000              add [eax],al
00000217  0018              add [eax],bl
00000219  0000              add [eax],al
0000021B  0019              add [ecx],bl
0000021D  0000              add [eax],al
0000021F  0002              add [edx],al
00000221  0000              add [eax],al
00000223  0000              add [eax],al
00000225  0000              add [eax],al
00000227  001B              add [ebx],bl
00000229  0000              add [eax],al
0000022B  001500000000      add [0x0],dl
00000231  0000              add [eax],al
00000233  001F              add [edi],bl
00000235  0000              add [eax],al
00000237  001D00000017      add [0x17000000],bl
0000023D  0000              add [eax],al
0000023F  0000              add [eax],al
00000241  0000              add [eax],al
00000243  0000              add [eax],al
00000245  0000              add [eax],al
00000247  0000              add [eax],al
00000249  0000              add [eax],al
0000024B  0000              add [eax],al
0000024D  0000              add [eax],al
0000024F  0000              add [eax],al
00000251  0000              add [eax],al
00000253  00DD              add ch,bl
00000255  0100              add [eax],eax
00000257  0020              add [eax],ah
00000259  AD                lodsd
0000025A  0408              add al,0x8
0000025C  90                nop
0000025D  0000              add [eax],al
0000025F  0011              add [ecx],dl
00000261  0019              add [ecx],bl
00000263  006201            add [edx+0x1],ah
00000266  0000              add [eax],al
00000268  0000              add [eax],al
0000026A  0000              add [eax],al
0000026C  0000              add [eax],al
0000026E  0000              add [eax],al
00000270  1200              adc al,[eax]
00000272  0000              add [eax],al
00000274  BD01000000        mov ebp,0x1
00000279  0000              add [eax],al
0000027B  0000              add [eax],al
0000027D  0000              add [eax],al
0000027F  0012              add [edx],dl
00000281  0000              add [eax],al
00000283  0037              add [edi],dh
00000285  0200              add al,[eax]
00000287  0000              add [eax],al
00000289  0000              add [eax],al
0000028B  0000              add [eax],al
0000028D  0000              add [eax],al
0000028F  0012              add [edx],dl
00000291  0000              add [eax],al
00000293  00DD              add ch,bl
00000295  0200              add al,[eax]
00000297  0000              add [eax],al
00000299  0000              add [eax],al
0000029B  0000              add [eax],al
0000029D  0000              add [eax],al
0000029F  0012              add [edx],dl
000002A1  0000              add [eax],al
000002A3  006C0100          add [ecx+eax+0x0],ch
000002A7  0000              add [eax],al
000002A9  0000              add [eax],al
000002AB  0000              add [eax],al
000002AD  0000              add [eax],al
000002AF  0012              add [edx],dl
000002B1  0000              add [eax],al
000002B3  0026              add [esi],ah
000002B5  0100              add [eax],eax
000002B7  0000              add [eax],al
000002B9  0000              add [eax],al
000002BB  0000              add [eax],al
000002BD  0000              add [eax],al
000002BF  0020              add [eax],ah
000002C1  0000              add [eax],al
000002C3  00FE              add dh,bh
000002C5  0100              add [eax],eax
000002C7  0000              add [eax],al
000002C9  0000              add [eax],al
000002CB  0000              add [eax],al
000002CD  0000              add [eax],al
000002CF  0020              add [eax],ah
000002D1  0000              add [eax],al
000002D3  000F              add [edi],cl
000002D5  0100              add [eax],eax
000002D7  0000              add [eax],al
000002D9  0000              add [eax],al
000002DB  0000              add [eax],al
000002DD  0000              add [eax],al
000002DF  0012              add [edx],dl
000002E1  0000              add [eax],al
000002E3  007100            add [ecx+0x0],dh
000002E6  0000              add [eax],al
000002E8  0000              add [eax],al
000002EA  0000              add [eax],al
000002EC  0000              add [eax],al
000002EE  0000              add [eax],al
000002F0  1200              adc al,[eax]
000002F2  0000              add [eax],al
000002F4  3F                aas
000002F5  0100              add [eax],eax
000002F7  0000              add [eax],al
000002F9  0000              add [eax],al
000002FB  0000              add [eax],al
000002FD  0000              add [eax],al
000002FF  0012              add [edx],dl
00000301  0000              add [eax],al
00000303  00E6              add dh,ah
00000305  0100              add [eax],eax
00000307  0000              add [eax],al
00000309  0000              add [eax],al
0000030B  0000              add [eax],al
0000030D  0000              add [eax],al
0000030F  0012              add [edx],dl
00000311  0000              add [eax],al
00000313  00EA              add dl,ch
00000315  0200              add al,[eax]
00000317  0000              add [eax],al
00000319  0000              add [eax],al
0000031B  0000              add [eax],al
0000031D  0000              add [eax],al
0000031F  0012              add [edx],dl
00000321  0000              add [eax],al
00000323  00F1              add cl,dh
00000325  0200              add al,[eax]
00000327  0000              add [eax],al
00000329  0000              add [eax],al
0000032B  0000              add [eax],al
0000032D  0000              add [eax],al
0000032F  0012              add [edx],dl
00000331  0000              add [eax],al
00000333  006702            add [edi+0x2],ah
00000336  0000              add [eax],al
00000338  0000              add [eax],al
0000033A  0000              add [eax],al
0000033C  0000              add [eax],al
0000033E  0000              add [eax],al
00000340  1200              adc al,[eax]
00000342  0000              add [eax],al
00000344  F1                int1
00000345  0000              add [eax],al
00000347  00908A040800      add [eax+0x8048a],dl
0000034D  0000              add [eax],al
0000034F  0012              add [edx],dl
00000351  0000              add [eax],al
00000353  007800            add [eax+0x0],bh
00000356  0000              add [eax],al
00000358  0000              add [eax],al
0000035A  0000              add [eax],al
0000035C  0000              add [eax],al
0000035E  0000              add [eax],al
00000360  2000              and [eax],al
00000362  0000              add [eax],al
00000364  A900000000        test eax,0x0
00000369  0000              add [eax],al
0000036B  0000              add [eax],al
0000036D  0000              add [eax],al
0000036F  0012              add [edx],dl
00000371  0000              add [eax],al
00000373  00CE              add dh,cl
00000375  0200              add al,[eax]
00000377  00D8              add al,bl
00000379  94                xchg eax,esp
0000037A  0408              add al,0x8
0000037C  0400              add al,0x0
0000037E  0000              add [eax],al
00000380  1100              adc [eax],eax
00000382  0E                push cs
00000383  0035010000B0      add [0xb0000001],dh
00000389  8A0408            mov al,[eax+ecx]
0000038C  0000              add [eax],al
0000038E  0000              add [eax],al
00000390  1200              adc al,[eax]
00000392  0000              add [eax],al
00000394  1D02000000        sbb eax,0x2
00000399  0000              add [eax],al
0000039B  0000              add [eax],al
0000039D  0000              add [eax],al
0000039F  0020              add [eax],ah
000003A1  0000              add [eax],al
000003A3  00940000000000    add [eax+eax+0x0],dl
000003AA  0000              add [eax],al
000003AC  0000              add [eax],al
000003AE  0000              add [eax],al
000003B0  1200              adc al,[eax]
000003B2  0000              add [eax],al
000003B4  CA0100            retf 0x1
000003B7  0000              add [eax],al
000003B9  0000              add [eax],al
000003BB  0000              add [eax],al
000003BD  0000              add [eax],al
000003BF  0012              add [edx],dl
000003C1  0000              add [eax],al
000003C3  009F000000C0      add [edi+0xc0000000],bl
000003C9  AD                lodsd
000003CA  0408              add al,0x8
000003CC  8C00              mov [eax],es
000003CE  0000              add [eax],al
000003D0  1100              adc [eax],eax
000003D2  1900              sbb [eax],eax
000003D4  0901              or [ecx],eax
000003D6  0000              add [eax],al
000003D8  0000              add [eax],al
000003DA  0000              add [eax],al
000003DC  0000              add [eax],al
000003DE  0000              add [eax],al
000003E0  1200              adc al,[eax]
000003E2  0000              add [eax],al
000003E4  5A                pop edx
000003E5  0200              add al,[eax]
000003E7  0000              add [eax],al
000003E9  0000              add [eax],al
000003EB  0000              add [eax],al
000003ED  0000              add [eax],al
000003EF  0012              add [edx],dl
000003F1  0000              add [eax],al
000003F3  0021              add [ecx],ah
000003F5  0000              add [eax],al
000003F7  0000              add [eax],al
000003F9  0000              add [eax],al
000003FB  0000              add [eax],al
000003FD  0000              add [eax],al
000003FF  0020              add [eax],ah
00000401  0000              add [eax],al
00000403  0012              add [edx],dl
00000405  0200              add al,[eax]
00000407  0000              add [eax],al
00000409  0000              add [eax],al
0000040B  0000              add [eax],al
0000040D  0000              add [eax],al
0000040F  0012              add [edx],dl
00000411  0000              add [eax],al
00000413  0010              add [eax],dl
00000415  0000              add [eax],al
00000417  0000              add [eax],al
00000419  0000              add [eax],al
0000041B  0000              add [eax],al
0000041D  0000              add [eax],al
0000041F  0012              add [edx],dl
00000421  0000              add [eax],al
00000423  004102            add [ecx+0x2],al
00000426  0000              add [eax],al
00000428  0000              add [eax],al
0000042A  0000              add [eax],al
0000042C  0000              add [eax],al
0000042E  0000              add [eax],al
00000430  1200              adc al,[eax]
00000432  0000              add [eax],al
00000434  360000            add [ss:eax],al
00000437  0030              add [eax],dh
00000439  8B0408            mov eax,[eax+ecx]
0000043C  0000              add [eax],al
0000043E  0000              add [eax],al
00000440  1200              adc al,[eax]
00000442  0000              add [eax],al
00000444  1901              sbb [ecx],eax
00000446  0000              add [eax],al
00000448  0000              add [eax],al
0000044A  0000              add [eax],al
0000044C  0000              add [eax],al
0000044E  0000              add [eax],al
00000450  1200              adc al,[eax]
00000452  0000              add [eax],al
00000454  4D                dec ebp
00000455  0100              add [eax],eax
00000457  00508B            add [eax-0x75],dl
0000045A  0408              add al,0x8
0000045C  0000              add [eax],al
0000045E  0000              add [eax],al
00000460  1200              adc al,[eax]
00000462  0000              add [eax],al
00000464  B502              mov ch,0x2
00000466  0000              add [eax],al
00000468  0000              add [eax],al
0000046A  0000              add [eax],al
0000046C  0000              add [eax],al
0000046E  0000              add [eax],al
00000470  1200              adc al,[eax]
00000472  0000              add [eax],al
00000474  E100              loope 0x476
00000476  0000              add [eax],al
00000478  0000              add [eax],al
0000047A  0000              add [eax],al
0000047C  0000              add [eax],al
0000047E  0000              add [eax],al
00000480  1200              adc al,[eax]
00000482  0000              add [eax],al
00000484  006C6962          add [ecx+ebp*2+0x62],ch
00000488  7374              jnc 0x4fe
0000048A  64632B            arpl [fs:ebx],bp
0000048D  2B2E              sub ebp,[esi]
0000048F  736F              jnc 0x500
00000491  2E36005F5A        add [ss:edi+0x5a],bl
00000496  4E                dec esi
00000497  53                push ebx
00000498  6F                outsd
00000499  6C                insb
0000049A  7345              jnc 0x4e1
0000049C  50                push eax
0000049D  46                inc esi
0000049E  52                push edx
0000049F  53                push ebx
000004A0  6F                outsd
000004A1  53                push ebx
000004A2  5F                pop edi
000004A3  45                inc ebp
000004A4  005F5F            add [edi+0x5f],bl
000004A7  7074              jo 0x51d
000004A9  6872656164        push dword 0x64616572
000004AE  5F                pop edi
000004AF  6B65795F          imul esp,[ebp+0x79],byte +0x5f
000004B3  637265            arpl [edx+0x65],si
000004B6  61                popa
000004B7  7465              jz 0x51e
000004B9  005F5A            add [edi+0x5a],bl
000004BC  53                push ebx
000004BD  7434              jz 0x4f3
000004BF  656E              gs outsb
000004C1  646C              fs insb
000004C3  49                dec ecx
000004C4  635374            arpl [ebx+0x74],dx
000004C7  3131              xor [ecx],esi
000004C9  636861            arpl [eax+0x61],bp
000004CC  725F              jc 0x52d
000004CE  7472              jz 0x542
000004D0  61                popa
000004D1  6974734963454552  imul esi,[ebx+esi*2+0x49],dword 0x52454563
000004D9  53                push ebx
000004DA  7431              jz 0x50d
000004DC  336261            xor esp,[edx+0x61]
000004DF  7369              jnc 0x54a
000004E1  635F6F            arpl [edi+0x6f],bx
000004E4  7374              jnc 0x55a
000004E6  7265              jc 0x54d
000004E8  61                popa
000004E9  6D                insd
000004EA  49                dec ecx
000004EB  54                push esp
000004EC  5F                pop edi
000004ED  54                push esp
000004EE  305F45            xor [edi+0x45],bl
000004F1  53                push ebx
000004F2  365F              ss pop edi
000004F4  005F5A            add [edi+0x5a],bl
000004F7  646C              fs insb
000004F9  50                push eax
000004FA  7600              jna 0x4fc
000004FC  5F                pop edi
000004FD  49                dec ecx
000004FE  54                push esp
000004FF  4D                dec ebp
00000500  5F                pop edi
00000501  64657265          gs jc 0x56a
00000505  676973746572544D  imul esi,[bp+di+0x74],dword 0x4d547265
0000050D  43                inc ebx
0000050E  6C                insb
0000050F  6F                outsd
00000510  6E                outsb
00000511  6554              gs push esp
00000513  61                popa
00000514  626C6500          bound ebp,[ebp+0x0]
00000518  5F                pop edi
00000519  5A                pop edx
0000051A  4E                dec esi
0000051B  4B                dec ebx
0000051C  53                push ebx
0000051D  7369              jnc 0x588
0000051F  7845              js 0x566
00000521  6A00              push byte +0x0
00000523  5F                pop edi
00000524  5A                pop edx
00000525  53                push ebx
00000526  7434              jz 0x55c
00000528  636F75            arpl [edi+0x75],bp
0000052B  7400              jz 0x52d
0000052D  5F                pop edi
0000052E  5A                pop edx
0000052F  53                push ebx
00000530  746C              jz 0x59e
00000532  7349              jnc 0x57d
00000534  53                push ebx
00000535  7431              jz 0x568
00000537  316368            xor [ebx+0x68],esp
0000053A  61                popa
0000053B  725F              jc 0x59c
0000053D  7472              jz 0x5b1
0000053F  61                popa
00000540  6974734963454552  imul esi,[ebx+esi*2+0x49],dword 0x52454563
00000548  53                push ebx
00000549  7431              jz 0x57c
0000054B  336261            xor esp,[edx+0x61]
0000054E  7369              jnc 0x5b9
00000550  635F6F            arpl [edi+0x6f],bx
00000553  7374              jnc 0x5c9
00000555  7265              jc 0x5bc
00000557  61                popa
00000558  6D                insd
00000559  49                dec ecx
0000055A  63545F45          arpl [edi+ebx*2+0x45],dx
0000055E  53                push ebx
0000055F  355F504B63        xor eax,0x634b505f
00000564  005F5A            add [edi+0x5a],bl
00000567  4E                dec esi
00000568  53                push ebx
00000569  61                popa
0000056A  49                dec ecx
0000056B  634543            arpl [ebp+0x43],ax
0000056E  324552            xor al,[ebp+0x52]
00000571  4B                dec ebx
00000572  53                push ebx
00000573  5F                pop edi
00000574  005F5A            add [edi+0x5a],bl
00000577  4E                dec esi
00000578  53                push ebx
00000579  7438              jz 0x5b3
0000057B  696F735F626173    imul ebp,[edi+0x73],dword 0x7361625f
00000582  653449            gs xor al,0x49
00000585  6E                outsb
00000586  697444314576005F  imul esi,[esp+eax*2+0x31],dword 0x5f007645
0000058E  5A                pop edx
0000058F  6E                outsb
00000590  776A              ja 0x5fc
00000592  005F5A            add [edi+0x5a],bl
00000595  4E                dec esi
00000596  53                push ebx
00000597  7369              jnc 0x602
00000599  7845              js 0x5e0
0000059B  6A00              push byte +0x0
0000059D  5F                pop edi
0000059E  5A                pop edx
0000059F  4E                dec esi
000005A0  53                push ebx
000005A1  61                popa
000005A2  49                dec ecx
000005A3  634543            arpl [ebp+0x43],ax
000005A6  314576            xor [ebp+0x76],eax
000005A9  005F5F            add [edi+0x5f],bl
000005AC  676D              a16 insd
000005AE  6F                outsd
000005AF  6E                outsb
000005B0  5F                pop edi
000005B1  7374              jnc 0x627
000005B3  61                popa
000005B4  7274              jc 0x62a
000005B6  5F                pop edi
000005B7  5F                pop edi
000005B8  005F5A            add [edi+0x5a],bl
000005BB  4E                dec esi
000005BC  53                push ebx
000005BD  7344              jnc 0x603
000005BF  314576            xor [ebp+0x76],eax
000005C2  005F5A            add [edi+0x5a],bl
000005C5  4E                dec esi
000005C6  4B                dec ebx
000005C7  53                push ebx
000005C8  7334              jnc 0x5fe
000005CA  7369              jnc 0x635
000005CC  7A65              jpe 0x633
000005CE  45                inc ebp
000005CF  7600              jna 0x5d1
000005D1  5F                pop edi
000005D2  5F                pop edi
000005D3  677878            a16 js 0x64e
000005D6  5F                pop edi
000005D7  7065              jo 0x63e
000005D9  7273              jc 0x64e
000005DB  6F                outsd
000005DC  6E                outsb
000005DD  61                popa
000005DE  6C                insb
000005DF  6974795F7630005F  imul esi,[ecx+edi*2+0x5f],dword 0x5f003076
000005E7  5A                pop edx
000005E8  4E                dec esi
000005E9  53                push ebx
000005EA  7343              jnc 0x62f
000005EC  314576            xor [ebp+0x76],eax
000005EF  005F5A            add [edi+0x5a],bl
000005F2  53                push ebx
000005F3  7437              jz 0x62c
000005F5  6765746C          gs a16 jz 0x665
000005F9  696E6549635374    imul ebp,[esi+0x65],dword 0x74536349
00000600  3131              xor [ecx],esi
00000602  636861            arpl [eax+0x61],bp
00000605  725F              jc 0x666
00000607  7472              jz 0x67b
00000609  61                popa
0000060A  6974734963455361  imul esi,[ebx+esi*2+0x49],dword 0x61534563
00000612  49                dec ecx
00000613  634545            arpl [ebp+0x45],ax
00000616  52                push edx
00000617  53                push ebx
00000618  7431              jz 0x64b
0000061A  336261            xor esp,[edx+0x61]
0000061D  7369              jnc 0x688
0000061F  635F69            arpl [edi+0x69],bx
00000622  7374              jnc 0x698
00000624  7265              jc 0x68b
00000626  61                popa
00000627  6D                insd
00000628  49                dec ecx
00000629  54                push esp
0000062A  5F                pop edi
0000062B  54                push esp
0000062C  305F45            xor [edi+0x45],bl
0000062F  53                push ebx
00000630  37                aaa
00000631  5F                pop edi
00000632  52                push edx
00000633  53                push ebx
00000634  624953            bound ecx,[ecx+0x53]
00000637  345F              xor al,0x5f
00000639  53                push ebx
0000063A  355F54315F        xor eax,0x5f31545f
0000063F  45                inc ebp
00000640  005F5A            add [edi+0x5a],bl
00000643  4E                dec esi
00000644  53                push ebx
00000645  61                popa
00000646  49                dec ecx
00000647  634544            arpl [ebp+0x44],ax
0000064A  324576            xor al,[ebp+0x76]
0000064D  005F5A            add [edi+0x5a],bl
00000650  4E                dec esi
00000651  53                push ebx
00000652  7343              jnc 0x697
00000654  314550            xor [ebp+0x50],eax
00000657  4B                dec ebx
00000658  63524B            arpl [edx+0x4b],dx
0000065B  53                push ebx
0000065C  61                popa
0000065D  49                dec ecx
0000065E  634500            arpl [ebp+0x0],ax
00000661  5F                pop edi
00000662  5A                pop edx
00000663  53                push ebx
00000664  7433              jz 0x699
00000666  63696E            arpl [ecx+0x6e],bp
00000669  005F5A            add [edi+0x5a],bl
0000066C  4E                dec esi
0000066D  53                push ebx
0000066E  7438              jz 0x6a8
00000670  696F735F626173    imul ebp,[edi+0x73],dword 0x7361625f
00000677  653449            gs xor al,0x49
0000067A  6E                outsb
0000067B  697443314576005F  imul esi,[ebx+eax*2+0x31],dword 0x5f007645
00000683  4A                dec edx
00000684  765F              jna 0x6e5
00000686  52                push edx
00000687  6567697374657243  imul esi,[gs:bp+di+0x74],dword 0x6c437265
         -6C
00000690  61                popa
00000691  7373              jnc 0x706
00000693  657300            gs jnc 0x696
00000696  5F                pop edi
00000697  5A                pop edx
00000698  4E                dec esi
00000699  53                push ebx
0000069A  69727345526900    imul esi,[edx+0x73],dword 0x695245
000006A1  5F                pop edi
000006A2  49                dec ecx
000006A3  54                push esp
000006A4  4D                dec ebp
000006A5  5F                pop edi
000006A6  7265              jc 0x70d
000006A8  676973746572544D  imul esi,[bp+di+0x74],dword 0x4d547265
000006B0  43                inc ebx
000006B1  6C                insb
000006B2  6F                outsd
000006B3  6E                outsb
000006B4  6554              gs push esp
000006B6  61                popa
000006B7  626C6500          bound ebp,[ebp+0x0]
000006BB  5F                pop edi
000006BC  5A                pop edx
000006BD  4E                dec esi
000006BE  53                push ebx
000006BF  6F                outsd
000006C0  6C                insb
000006C1  7345              jnc 0x708
000006C3  69005F5A5374      imul eax,[eax],dword 0x74535a5f
000006C9  3137              xor [edi],esi
000006CB  5F                pop edi
000006CC  5F                pop edi
000006CD  7468              jz 0x737
000006CF  726F              jc 0x740
000006D1  775F              ja 0x732
000006D3  626164            bound esp,[ecx+0x64]
000006D6  5F                pop edi
000006D7  61                popa
000006D8  6C                insb
000006D9  6C                insb
000006DA  6F                outsd
000006DB  637600            arpl [esi+0x0],si
000006DE  5F                pop edi
000006DF  5A                pop edx
000006E0  4E                dec esi
000006E1  53                push ebx
000006E2  61                popa
000006E3  49                dec ecx
000006E4  634544            arpl [ebp+0x44],ax
000006E7  314576            xor [ebp+0x76],eax
000006EA  005F5A            add [edi+0x5a],bl
000006ED  53                push ebx
000006EE  746C              jz 0x75c
000006F0  7349              jnc 0x73b
000006F2  53                push ebx
000006F3  7431              jz 0x726
000006F5  316368            xor [ebx+0x68],esp
000006F8  61                popa
000006F9  725F              jc 0x75a
000006FB  7472              jz 0x76f
000006FD  61                popa
000006FE  6974734963454552  imul esi,[ebx+esi*2+0x49],dword 0x52454563
00000706  53                push ebx
00000707  7431              jz 0x73a
00000709  336261            xor esp,[edx+0x61]
0000070C  7369              jnc 0x777
0000070E  635F6F            arpl [edi+0x6f],bx
00000711  7374              jnc 0x787
00000713  7265              jc 0x77a
00000715  61                popa
00000716  6D                insd
00000717  49                dec ecx
00000718  63545F45          arpl [edi+ebx*2+0x45],dx
0000071C  53                push ebx
0000071D  355F63006C        xor eax,0x6c00635f
00000722  69626D2E736F2E    imul esp,[edx+0x6d],dword 0x2e6f732e
00000729  36006C6962        add [ss:ecx+ebp*2+0x62],ch
0000072E  6763635F          arpl [bp+di+0x5f],sp
00000732  732E              jnc 0x762
00000734  736F              jnc 0x7a5
00000736  2E3100            xor [cs:eax],eax
00000739  5F                pop edi
0000073A  55                push ebp
0000073B  6E                outsb
0000073C  7769              ja 0x7a7
0000073E  6E                outsb
0000073F  645F              fs pop edi
00000741  52                push edx
00000742  657375            gs jnc 0x7ba
00000745  6D                insd
00000746  65006C6962        add [gs:ecx+ebp*2+0x62],ch
0000074B  632E              arpl [esi],bp
0000074D  736F              jnc 0x7be
0000074F  2E36005F49        add [ss:edi+0x49],bl
00000754  4F                dec edi
00000755  5F                pop edi
00000756  7374              jnc 0x7cc
00000758  64696E5F75736564  imul ebp,[fs:esi+0x5f],dword 0x64657375
00000760  005F5F            add [edi+0x5f],bl
00000763  637861            arpl [eax+0x61],di
00000766  5F                pop edi
00000767  61                popa
00000768  7465              jz 0x7cf
0000076A  7869              js 0x7d5
0000076C  7400              jz 0x76e
0000076E  6D                insd
0000076F  656D              gs insd
00000771  7365              jnc 0x7d8
00000773  7400              jz 0x775
00000775  5F                pop edi
00000776  5F                pop edi
00000777  6C                insb
00000778  6962635F737461    imul esp,[edx+0x63],dword 0x6174735f
0000077F  7274              jc 0x7f5
00000781  5F                pop edi
00000782  6D                insd
00000783  61                popa
00000784  696E004743435F    imul ebp,[esi+0x0],dword 0x5f434347
0000078B  332E              xor ebp,[esi]
0000078D  3000              xor [eax],al
0000078F  47                inc edi
00000790  4C                dec esp
00000791  49                dec ecx
00000792  42                inc edx
00000793  43                inc ebx
00000794  5F                pop edi
00000795  322E              xor ch,[esi]
00000797  3000              xor [eax],al
00000799  47                inc edi
0000079A  4C                dec esp
0000079B  49                dec ecx
0000079C  42                inc edx
0000079D  43                inc ebx
0000079E  5F                pop edi
0000079F  322E              xor ch,[esi]
000007A1  312E              xor [esi],ebp
000007A3  3300              xor eax,[eax]
000007A5  43                inc ebx
000007A6  58                pop eax
000007A7  58                pop eax
000007A8  41                inc ecx
000007A9  42                inc edx
000007AA  49                dec ecx
000007AB  5F                pop edi
000007AC  312E              xor [esi],ebp
000007AE  3300              xor eax,[eax]
000007B0  47                inc edi
000007B1  4C                dec esp
000007B2  49                dec ecx
000007B3  42                inc edx
000007B4  43                inc ebx
000007B5  58                pop eax
000007B6  58                pop eax
000007B7  5F                pop edi
000007B8  332E              xor ebp,[esi]
000007BA  3400              xor al,0x0
000007BC  0000              add [eax],al
000007BE  0200              add al,[eax]
000007C0  0200              add al,[eax]
000007C2  0200              add al,[eax]
000007C4  0200              add al,[eax]
000007C6  0300              add eax,[eax]
000007C8  0200              add al,[eax]
000007CA  0000              add [eax],al
000007CC  0000              add [eax],al
000007CE  0200              add al,[eax]
000007D0  0200              add al,[eax]
000007D2  0200              add al,[eax]
000007D4  0200              add al,[eax]
000007D6  0400              add al,0x0
000007D8  0400              add al,0x0
000007DA  0200              add al,[eax]
000007DC  0200              add al,[eax]
000007DE  0000              add [eax],al
000007E0  0200              add al,[eax]
000007E2  0100              add [eax],eax
000007E4  0200              add al,[eax]
000007E6  0000              add [eax],al
000007E8  0200              add al,[eax]
000007EA  0200              add al,[eax]
000007EC  0200              add al,[eax]
000007EE  0200              add al,[eax]
000007F0  0200              add al,[eax]
000007F2  0000              add [eax],al
000007F4  0200              add al,[eax]
000007F6  0200              add al,[eax]
000007F8  0200              add al,[eax]
000007FA  0200              add al,[eax]
000007FC  0200              add al,[eax]
000007FE  0500060002        add eax,0x2000600
00000803  0001              add [ecx],al
00000805  0001              add [ecx],al
00000807  00A702000010      add [edi+0x10000002],ah
0000080D  0000              add [eax],al
0000080F  0020              add [eax],ah
00000811  0000              add [eax],al
00000813  005026            add [eax+0x26],dl
00000816  790B              jns 0x823
00000818  0000              add [eax],al
0000081A  06                push es
0000081B  0003              add [ebx],al
0000081D  0300              add eax,[eax]
0000081F  0000              add [eax],al
00000821  0000              add [eax],al
00000823  0001              add [ecx],al
00000825  0002              add [edx],al
00000827  00C4              add ah,al
00000829  0200              add al,[eax]
0000082B  0010              add [eax],dl
0000082D  0000              add [eax],al
0000082F  0030              add [eax],dh
00000831  0000              add [eax],al
00000833  0010              add [eax],dl
00000835  69690D00000400    imul ebp,[ecx+0xd],dword 0x40000
0000083C  0B03              or eax,[ebx]
0000083E  0000              add [eax],al
00000840  1000              adc [eax],al
00000842  0000              add [eax],al
00000844  731F              jnc 0x865
00000846  690900000300      imul ecx,[ecx],dword 0x30000
0000084C  1503000000        adc eax,0x3
00000851  0000              add [eax],al
00000853  0001              add [ecx],al
00000855  0002              add [edx],al
00000857  0001              add [ecx],al
00000859  0000              add [eax],al
0000085B  0010              add [eax],dl
0000085D  0000              add [eax],al
0000085F  0000              add [eax],al
00000861  0000              add [eax],al
00000863  00D3              add bl,dl
00000865  AF                scasd
00000866  6B050000050021    imul eax,[0x50000],byte +0x21
0000086D  0300              add eax,[eax]
0000086F  0010              add [eax],dl
00000871  0000              add [eax],al
00000873  00742992          add [ecx+ebp-0x6e],dh
00000877  0800              or [eax],al
00000879  0002              add [edx],al
0000087B  002C03            add [ebx+eax],ch
0000087E  0000              add [eax],al
00000880  0000              add [eax],al
00000882  0000              add [eax],al
00000884  94                xchg eax,esp
00000885  AC                lodsb
00000886  0408              add al,0x8
00000888  06                push es
00000889  07                pop es
0000088A  0000              add [eax],al
0000088C  20AD04080501      and [ebp+0x1050804],ch
00000892  0000              add [eax],al
00000894  C0AD0408051800    shr byte [ebp+0x18050804],0x0
0000089B  00A4AC04080702    add [esp+ebp*4+0x2070804],ah
000008A2  0000              add [eax],al
000008A4  A8AC              test al,0xac
000008A6  0408              add al,0x8
000008A8  07                pop es
000008A9  0300              add eax,[eax]
000008AB  00ACAC04080704    add [esp+ebp*4+0x4070804],ch
000008B2  0000              add [eax],al
000008B4  B0AC              mov al,0xac
000008B6  0408              add al,0x8
000008B8  07                pop es
000008B9  050000B4AC        add eax,0xacb40000
000008BE  0408              add al,0x8
000008C0  07                pop es
000008C1  06                push es
000008C2  0000              add [eax],al
000008C4  B8AC040807        mov eax,0x70804ac
000008C9  07                pop es
000008CA  0000              add [eax],al
000008CC  BCAC040807        mov esp,0x70804ac
000008D1  0900              or [eax],eax
000008D3  00C0              add al,al
000008D5  AC                lodsb
000008D6  0408              add al,0x8
000008D8  07                pop es
000008D9  0A00              or al,[eax]
000008DB  00C4              add ah,al
000008DD  AC                lodsb
000008DE  0408              add al,0x8
000008E0  07                pop es
000008E1  0B00              or eax,[eax]
000008E3  00C8              add al,cl
000008E5  AC                lodsb
000008E6  0408              add al,0x8
000008E8  07                pop es
000008E9  0C00              or al,0x0
000008EB  00CC              add ah,cl
000008ED  AC                lodsb
000008EE  0408              add al,0x8
000008F0  07                pop es
000008F1  0D0000D0AC        or eax,0xacd00000
000008F6  0408              add al,0x8
000008F8  07                pop es
000008F9  0E                push cs
000008FA  0000              add [eax],al
000008FC  D4AC              aam 0xac
000008FE  0408              add al,0x8
00000900  07                pop es
00000901  0F0000            sldt [eax]
00000904  D8AC0408071000    fsubr dword [esp+eax+0x100708]
0000090B  00DC              add ah,bl
0000090D  AC                lodsb
0000090E  0408              add al,0x8
00000910  07                pop es
00000911  1200              adc al,[eax]
00000913  00E0              add al,ah
00000915  AC                lodsb
00000916  0408              add al,0x8
00000918  07                pop es
00000919  1400              adc al,0x0
0000091B  00E4              add ah,ah
0000091D  AC                lodsb
0000091E  0408              add al,0x8
00000920  07                pop es
00000921  16                push ss
00000922  0000              add [eax],al
00000924  E8AC040807        call 0x7080dd5
00000929  17                pop ss
0000092A  0000              add [eax],al
0000092C  EC                in al,dx
0000092D  AC                lodsb
0000092E  0408              add al,0x8
00000930  07                pop es
00000931  1900              sbb [eax],eax
00000933  00F0              add al,dh
00000935  AC                lodsb
00000936  0408              add al,0x8
00000938  07                pop es
00000939  1A00              sbb al,[eax]
0000093B  00F4              add ah,dh
0000093D  AC                lodsb
0000093E  0408              add al,0x8
00000940  07                pop es
00000941  1C00              sbb al,0x0
00000943  00F8              add al,bh
00000945  AC                lodsb
00000946  0408              add al,0x8
00000948  07                pop es
00000949  1D0000FCAC        sbb eax,0xacfc0000
0000094E  0408              add al,0x8
00000950  07                pop es
00000951  1E                push ds
00000952  0000              add [eax],al
00000954  00AD0408071F      add [ebp+0x1f070804],ch
0000095A  0000              add [eax],al
0000095C  04AD              add al,0xad
0000095E  0408              add al,0x8
00000960  07                pop es
00000961  2000              and [eax],al
00000963  0008              add [eax],cl
00000965  AD                lodsd
00000966  0408              add al,0x8
00000968  07                pop es
00000969  2100              and [eax],eax
0000096B  000CAD04080722    add [ebp*4+0x22070804],cl
00000972  0000              add [eax],al
00000974  10AD04080723      adc [ebp+0x23070804],ch
0000097A  0000              add [eax],al
0000097C  55                push ebp
0000097D  89E5              mov ebp,esp
0000097F  53                push ebx
00000980  83EC04            sub esp,byte +0x4
00000983  E800000000        call 0x988
00000988  5B                pop ebx
00000989  81C310230000      add ebx,0x2310
0000098F  8B93FCFFFFFF      mov edx,[ebx+0xfffffffc]
00000995  85D2              test edx,edx
00000997  7405              jz 0x99e
00000999  E872000000        call 0xa10
0000099E  E8CD020000        call 0xc70
000009A3  E8E80A0000        call 0x1490
000009A8  58                pop eax
000009A9  5B                pop ebx
000009AA  C9                leave
000009AB  C3                ret
000009AC  0000              add [eax],al
000009AE  0000              add [eax],al
000009B0  FF359CAC0408      push dword [0x804ac9c]
000009B6  FF25A0AC0408      jmp near [0x804aca0]
000009BC  0000              add [eax],al
000009BE  0000              add [eax],al
000009C0  FF25A4AC0408      jmp near [0x804aca4]
000009C6  6800000000        push dword 0x0
000009CB  E9E0FFFFFF        jmp 0x1000009b0
000009D0  FF25A8AC0408      jmp near [0x804aca8]
000009D6  6808000000        push dword 0x8
000009DB  E9D0FFFFFF        jmp 0x1000009b0
000009E0  FF25ACAC0408      jmp near [0x804acac]
000009E6  6810000000        push dword 0x10
000009EB  E9C0FFFFFF        jmp 0x1000009b0
000009F0  FF25B0AC0408      jmp near [0x804acb0]
000009F6  6818000000        push dword 0x18
000009FB  E9B0FFFFFF        jmp 0x1000009b0
00000A00  FF25B4AC0408      jmp near [0x804acb4]
00000A06  6820000000        push dword 0x20
00000A0B  E9A0FFFFFF        jmp 0x1000009b0
00000A10  FF25B8AC0408      jmp near [0x804acb8]
00000A16  6828000000        push dword 0x28
00000A1B  E990FFFFFF        jmp 0x1000009b0
00000A20  FF25BCAC0408      jmp near [0x804acbc]
00000A26  6830000000        push dword 0x30
00000A2B  E980FFFFFF        jmp 0x1000009b0
00000A30  FF25C0AC0408      jmp near [0x804acc0]
00000A36  6838000000        push dword 0x38
00000A3B  E970FFFFFF        jmp 0x1000009b0
00000A40  FF25C4AC0408      jmp near [0x804acc4]
00000A46  6840000000        push dword 0x40
00000A4B  E960FFFFFF        jmp 0x1000009b0
00000A50  FF25C8AC0408      jmp near [0x804acc8]
00000A56  6848000000        push dword 0x48
00000A5B  E950FFFFFF        jmp 0x1000009b0
00000A60  FF25CCAC0408      jmp near [0x804accc]
00000A66  6850000000        push dword 0x50
00000A6B  E940FFFFFF        jmp 0x1000009b0
00000A70  FF25D0AC0408      jmp near [0x804acd0]
00000A76  6858000000        push dword 0x58
00000A7B  E930FFFFFF        jmp 0x1000009b0
00000A80  FF25D4AC0408      jmp near [0x804acd4]
00000A86  6860000000        push dword 0x60
00000A8B  E920FFFFFF        jmp 0x1000009b0
00000A90  FF25D8AC0408      jmp near [0x804acd8]
00000A96  6868000000        push dword 0x68
00000A9B  E910FFFFFF        jmp 0x1000009b0
00000AA0  FF25DCAC0408      jmp near [0x804acdc]
00000AA6  6870000000        push dword 0x70
00000AAB  E900FFFFFF        jmp 0x1000009b0
00000AB0  FF25E0AC0408      jmp near [0x804ace0]
00000AB6  6878000000        push dword 0x78
00000ABB  E9F0FEFFFF        jmp 0x1000009b0
00000AC0  FF25E4AC0408      jmp near [0x804ace4]
00000AC6  6880000000        push dword 0x80
00000ACB  E9E0FEFFFF        jmp 0x1000009b0
00000AD0  FF25E8AC0408      jmp near [0x804ace8]
00000AD6  6888000000        push dword 0x88
00000ADB  E9D0FEFFFF        jmp 0x1000009b0
00000AE0  FF25ECAC0408      jmp near [0x804acec]
00000AE6  6890000000        push dword 0x90
00000AEB  E9C0FEFFFF        jmp 0x1000009b0
00000AF0  FF25F0AC0408      jmp near [0x804acf0]
00000AF6  6898000000        push dword 0x98
00000AFB  E9B0FEFFFF        jmp 0x1000009b0
00000B00  FF25F4AC0408      jmp near [0x804acf4]
00000B06  68A0000000        push dword 0xa0
00000B0B  E9A0FEFFFF        jmp 0x1000009b0
00000B10  FF25F8AC0408      jmp near [0x804acf8]
00000B16  68A8000000        push dword 0xa8
00000B1B  E990FEFFFF        jmp 0x1000009b0
00000B20  FF25FCAC0408      jmp near [0x804acfc]
00000B26  68B0000000        push dword 0xb0
00000B2B  E980FEFFFF        jmp 0x1000009b0
00000B30  FF2500AD0408      jmp near [0x804ad00]
00000B36  68B8000000        push dword 0xb8
00000B3B  E970FEFFFF        jmp 0x1000009b0
00000B40  FF2504AD0408      jmp near [0x804ad04]
00000B46  68C0000000        push dword 0xc0
00000B4B  E960FEFFFF        jmp 0x1000009b0
00000B50  FF2508AD0408      jmp near [0x804ad08]
00000B56  68C8000000        push dword 0xc8
00000B5B  E950FEFFFF        jmp 0x1000009b0
00000B60  FF250CAD0408      jmp near [0x804ad0c]
00000B66  68D0000000        push dword 0xd0
00000B6B  E940FEFFFF        jmp 0x1000009b0
00000B70  FF2510AD0408      jmp near [0x804ad10]
00000B76  68D8000000        push dword 0xd8
00000B7B  E930FEFFFF        jmp 0x1000009b0
00000B80  31ED              xor ebp,ebp
00000B82  5E                pop esi
00000B83  89E1              mov ecx,esp
00000B85  83E4F0            and esp,byte -0x10
00000B88  50                push eax
00000B89  54                push esp
00000B8A  52                push edx
00000B8B  6820940408        push dword 0x8049420
00000B90  6830940408        push dword 0x8049430
00000B95  51                push ecx
00000B96  56                push esi
00000B97  68A08C0408        push dword 0x8048ca0
00000B9C  E8CFFEFFFF        call 0x100000a70
00000BA1  F4                hlt
00000BA2  90                nop
00000BA3  90                nop
00000BA4  6690              o16 nop
00000BA6  6690              o16 nop
00000BA8  6690              o16 nop
00000BAA  6690              o16 nop
00000BAC  6690              o16 nop
00000BAE  6690              o16 nop
00000BB0  B81FAD0408        mov eax,0x804ad1f
00000BB5  2D1CAD0408        sub eax,0x804ad1c
00000BBA  83F806            cmp eax,byte +0x6
00000BBD  7701              ja 0xbc0
00000BBF  C3                ret
00000BC0  B800000000        mov eax,0x0
00000BC5  85C0              test eax,eax
00000BC7  74F6              jz 0xbbf
00000BC9  55                push ebp
00000BCA  89E5              mov ebp,esp
00000BCC  83EC18            sub esp,byte +0x18
00000BCF  C704241CAD0408    mov dword [esp],0x804ad1c
00000BD6  FFD0              call eax
00000BD8  C9                leave
00000BD9  C3                ret
00000BDA  8DB600000000      lea esi,[esi+0x0]
00000BE0  B81CAD0408        mov eax,0x804ad1c
00000BE5  2D1CAD0408        sub eax,0x804ad1c
00000BEA  C1F802            sar eax,0x2
00000BED  89C2              mov edx,eax
00000BEF  C1EA1F            shr edx,0x1f
00000BF2  01D0              add eax,edx
00000BF4  D1F8              sar eax,1
00000BF6  7501              jnz 0xbf9
00000BF8  C3                ret
00000BF9  BA00000000        mov edx,0x0
00000BFE  85D2              test edx,edx
00000C00  74F6              jz 0xbf8
00000C02  55                push ebp
00000C03  89E5              mov ebp,esp
00000C05  83EC18            sub esp,byte +0x18
00000C08  89442404          mov [esp+0x4],eax
00000C0C  C704241CAD0408    mov dword [esp],0x804ad1c
00000C13  FFD2              call edx
00000C15  C9                leave
00000C16  C3                ret
00000C17  89F6              mov esi,esi
00000C19  8DBC2700000000    lea edi,[edi+0x0]
00000C20  803D4CAE040800    cmp byte [0x804ae4c],0x0
00000C27  7544              jnz 0xc6d
00000C29  55                push ebp
00000C2A  89E5              mov ebp,esp
00000C2C  53                push ebx
00000C2D  BBACAB0408        mov ebx,0x804abac
00000C32  52                push edx
00000C33  81EBA8AB0408      sub ebx,0x804aba8
00000C39  A150AE0408        mov eax,[0x804ae50]
00000C3E  C1FB02            sar ebx,0x2
00000C41  4B                dec ebx
00000C42  39D8              cmp eax,ebx
00000C44  7318              jnc 0xc5e
00000C46  6690              o16 nop
00000C48  40                inc eax
00000C49  A350AE0408        mov [0x804ae50],eax
00000C4E  FF1485A8AB0408    call near [eax*4+0x804aba8]
00000C55  A150AE0408        mov eax,[0x804ae50]
00000C5A  39D8              cmp eax,ebx
00000C5C  72EA              jc 0xc48
00000C5E  E84DFFFFFF        call 0x100000bb0
00000C63  C6054CAE040801    mov byte [0x804ae4c],0x1
00000C6A  58                pop eax
00000C6B  5B                pop ebx
00000C6C  5D                pop ebp
00000C6D  C3                ret
00000C6E  6690              o16 nop
00000C70  8B0DB0AB0408      mov ecx,[0x804abb0]
00000C76  85C9              test ecx,ecx
00000C78  741E              jz 0xc98
00000C7A  B800000000        mov eax,0x0
00000C7F  85C0              test eax,eax
00000C81  7415              jz 0xc98
00000C83  55                push ebp
00000C84  89E5              mov ebp,esp
00000C86  83EC18            sub esp,byte +0x18
00000C89  C70424B0AB0408    mov dword [esp],0x804abb0
00000C90  FFD0              call eax
00000C92  C9                leave
00000C93  E948FFFFFF        jmp 0x100000be0
00000C98  E943FFFFFF        jmp 0x100000be0
00000C9D  6690              o16 nop
00000C9F  90                nop
00000CA0  55                push ebp
00000CA1  89E5              mov ebp,esp
00000CA3  53                push ebx
00000CA4  83E4F0            and esp,byte -0x10
00000CA7  83EC40            sub esp,byte +0x40
00000CAA  8D442432          lea eax,[esp+0x32]
00000CAE  890424            mov [esp],eax
00000CB1  E88AFEFFFF        call 0x100000b40
00000CB6  C64424333F        mov byte [esp+0x33],0x3f
00000CBB  8D442432          lea eax,[esp+0x32]
00000CBF  8944240C          mov [esp+0xc],eax
00000CC3  8D442433          lea eax,[esp+0x33]
00000CC7  89442408          mov [esp+0x8],eax
00000CCB  C744240480000000  mov dword [esp+0x4],0x80
00000CD3  8D442424          lea eax,[esp+0x24]
00000CD7  890424            mov [esp],eax
00000CDA  E819030000        call 0xff8
00000CDF  8D442432          lea eax,[esp+0x32]
00000CE3  890424            mov [esp],eax
00000CE6  E805FEFFFF        call 0x100000af0
00000CEB  C744243C00000000  mov dword [esp+0x3c],0x0
00000CF3  EB47              jmp short 0xd3c
00000CF5  8B44243C          mov eax,[esp+0x3c]
00000CF9  89442404          mov [esp+0x4],eax
00000CFD  C7042458AE0408    mov dword [esp],0x804ae58
00000D04  E8B7FDFFFF        call 0x100000ac0
00000D09  8A00              mov al,[eax]
00000D0B  0FBEC0            movsx eax,al
00000D0E  89442404          mov [esp+0x4],eax
00000D12  8D442424          lea eax,[esp+0x24]
00000D16  890424            mov [esp],eax
00000D19  E88A030000        call 0x10a8
00000D1E  89C3              mov ebx,eax
00000D20  8B44243C          mov eax,[esp+0x3c]
00000D24  89442404          mov [esp+0x4],eax
00000D28  C704245CAE0408    mov dword [esp],0x804ae5c
00000D2F  E88CFDFFFF        call 0x100000ac0
00000D34  8A00              mov al,[eax]
00000D36  8803              mov [ebx],al
00000D38  FF44243C          inc dword [esp+0x3c]
00000D3C  C7042458AE0408    mov dword [esp],0x804ae58
00000D43  E8F8FCFFFF        call 0x100000a40
00000D48  3B44243C          cmp eax,[esp+0x3c]
00000D4C  0F9FC0            setg al
00000D4F  84C0              test al,al
00000D51  75A2              jnz 0xcf5
00000D53  8D442420          lea eax,[esp+0x20]
00000D57  89442404          mov [esp+0x4],eax
00000D5B  C7042420AD0408    mov dword [esp],0x804ad20
00000D62  E899FDFFFF        call 0x100000b00
00000D67  8D44241C          lea eax,[esp+0x1c]
00000D6B  890424            mov [esp],eax
00000D6E  E84DFCFFFF        call 0x1000009c0
00000D73  8D44241C          lea eax,[esp+0x1c]
00000D77  89442404          mov [esp+0x4],eax
00000D7B  C7042420AD0408    mov dword [esp],0x804ad20
00000D82  E879FCFFFF        call 0x100000a00
00000D87  C744243801000000  mov dword [esp+0x38],0x1
00000D8F  E9C3000000        jmp 0xe57
00000D94  8D44241C          lea eax,[esp+0x1c]
00000D98  89442404          mov [esp+0x4],eax
00000D9C  C7042420AD0408    mov dword [esp],0x804ad20
00000DA3  E858FCFFFF        call 0x100000a00
00000DA8  C7442404DC940408  mov dword [esp+0x4],0x80494dc
00000DB0  C70424C0AD0408    mov dword [esp],0x804adc0
00000DB7  E8E4FCFFFF        call 0x100000aa0
00000DBC  8B542438          mov edx,[esp+0x38]
00000DC0  89542404          mov [esp+0x4],edx
00000DC4  890424            mov [esp],eax
00000DC7  E814FCFFFF        call 0x1000009e0
00000DCC  C7442404E3940408  mov dword [esp+0x4],0x80494e3
00000DD4  890424            mov [esp],eax
00000DD7  E8C4FCFFFF        call 0x100000aa0
00000DDC  C744243400000000  mov dword [esp+0x34],0x0
00000DE4  EB42              jmp short 0xe28
00000DE6  8B442434          mov eax,[esp+0x34]
00000DEA  89442404          mov [esp+0x4],eax
00000DEE  8D44241C          lea eax,[esp+0x1c]
00000DF2  890424            mov [esp],eax
00000DF5  E826FCFFFF        call 0x100000a20
00000DFA  8A00              mov al,[eax]
00000DFC  0FBEC0            movsx eax,al
00000DFF  89442404          mov [esp+0x4],eax
00000E03  8D442424          lea eax,[esp+0x24]
00000E07  890424            mov [esp],eax
00000E0A  E899020000        call 0x10a8
00000E0F  8A00              mov al,[eax]
00000E11  0FBEC0            movsx eax,al
00000E14  89442404          mov [esp+0x4],eax
00000E18  C70424C0AD0408    mov dword [esp],0x804adc0
00000E1F  E85CFCFFFF        call 0x100000a80
00000E24  FF442434          inc dword [esp+0x34]
00000E28  8D44241C          lea eax,[esp+0x1c]
00000E2C  890424            mov [esp],eax
00000E2F  E80CFCFFFF        call 0x100000a40
00000E34  3B442434          cmp eax,[esp+0x34]
00000E38  0F9FC0            setg al
00000E3B  84C0              test al,al
00000E3D  75A7              jnz 0xde6
00000E3F  C7442404308B0408  mov dword [esp+0x4],0x8048b30
00000E47  C70424C0AD0408    mov dword [esp],0x804adc0
00000E4E  E8BDFCFFFF        call 0x100000b10
00000E53  FF442438          inc dword [esp+0x38]
00000E57  8B442420          mov eax,[esp+0x20]
00000E5B  39442438          cmp [esp+0x38],eax
00000E5F  0F8E2FFFFFFF      jng near 0x100000d94
00000E65  8D44241C          lea eax,[esp+0x1c]
00000E69  890424            mov [esp],eax
00000E6C  E83FFCFFFF        call 0x100000ab0
00000E71  8D442424          lea eax,[esp+0x24]
00000E75  890424            mov [esp],eax
00000E78  E8D3010000        call 0x1050
00000E7D  B800000000        mov eax,0x0
00000E82  EB3C              jmp short 0xec0
00000E84  89C3              mov ebx,eax
00000E86  8D442432          lea eax,[esp+0x32]
00000E8A  890424            mov [esp],eax
00000E8D  E85EFCFFFF        call 0x100000af0
00000E92  89D8              mov eax,ebx
00000E94  EB22              jmp short 0xeb8
00000E96  89C3              mov ebx,eax
00000E98  8D44241C          lea eax,[esp+0x1c]
00000E9C  890424            mov [esp],eax
00000E9F  E80CFCFFFF        call 0x100000ab0
00000EA4  EB02              jmp short 0xea8
00000EA6  89C3              mov ebx,eax
00000EA8  8D442424          lea eax,[esp+0x24]
00000EAC  890424            mov [esp],eax
00000EAF  E89C010000        call 0x1050
00000EB4  89D8              mov eax,ebx
00000EB6  EB00              jmp short 0xeb8
00000EB8  890424            mov [esp],eax
00000EBB  E8A0FCFFFF        call 0x100000b60
00000EC0  8B5DFC            mov ebx,[ebp-0x4]
00000EC3  C9                leave
00000EC4  C3                ret
00000EC5  55                push ebp
00000EC6  89E5              mov ebp,esp
00000EC8  53                push ebx
00000EC9  83EC24            sub esp,byte +0x24
00000ECC  837D0801          cmp dword [ebp+0x8],byte +0x1
00000ED0  0F85FF000000      jnz near 0xfd5
00000ED6  817D0CFFFF0000    cmp dword [ebp+0xc],0xffff
00000EDD  0F85F2000000      jnz near 0xfd5
00000EE3  C7042454AE0408    mov dword [esp],0x804ae54
00000EEA  E861FBFFFF        call 0x100000a50
00000EEF  C744240818AD0408  mov dword [esp+0x8],0x804ad18
00000EF7  C744240454AE0408  mov dword [esp+0x4],0x804ae54
00000EFF  C70424908A0408    mov dword [esp],0x8048a90
00000F06  E8E5FAFFFF        call 0x1000009f0
00000F0B  8D45F6            lea eax,[ebp-0xa]
00000F0E  890424            mov [esp],eax
00000F11  E82AFCFFFF        call 0x100000b40
00000F16  8D45F6            lea eax,[ebp-0xa]
00000F19  89442408          mov [esp+0x8],eax
00000F1D  C7442404E8940408  mov dword [esp+0x4],0x80494e8
00000F25  C7042458AE0408    mov dword [esp],0x804ae58
00000F2C  E89FFBFFFF        call 0x100000ad0
00000F31  8D45F6            lea eax,[ebp-0xa]
00000F34  890424            mov [esp],eax
00000F37  E8B4FBFFFF        call 0x100000af0
00000F3C  C744240818AD0408  mov dword [esp+0x8],0x804ad18
00000F44  C744240458AE0408  mov dword [esp+0x4],0x804ae58
00000F4C  C70424B08A0408    mov dword [esp],0x8048ab0
00000F53  E898FAFFFF        call 0x1000009f0
00000F58  8D45F7            lea eax,[ebp-0x9]
00000F5B  890424            mov [esp],eax
00000F5E  E8DDFBFFFF        call 0x100000b40
00000F63  8D45F7            lea eax,[ebp-0x9]
00000F66  89442408          mov [esp+0x8],eax
00000F6A  C74424046C950408  mov dword [esp+0x4],0x804956c
00000F72  C704245CAE0408    mov dword [esp],0x804ae5c
00000F79  E852FBFFFF        call 0x100000ad0
00000F7E  8D45F7            lea eax,[ebp-0x9]
00000F81  890424            mov [esp],eax
00000F84  E867FBFFFF        call 0x100000af0
00000F89  C744240818AD0408  mov dword [esp+0x8],0x804ad18
00000F91  C74424045CAE0408  mov dword [esp+0x4],0x804ae5c
00000F99  C70424B08A0408    mov dword [esp],0x8048ab0
00000FA0  E84BFAFFFF        call 0x1000009f0
00000FA5  EB2E              jmp short 0xfd5
00000FA7  89C3              mov ebx,eax
00000FA9  8D45F6            lea eax,[ebp-0xa]
00000FAC  890424            mov [esp],eax
00000FAF  E83CFBFFFF        call 0x100000af0
00000FB4  89D8              mov eax,ebx
00000FB6  890424            mov [esp],eax
00000FB9  E8A2FBFFFF        call 0x100000b60
00000FBE  89C3              mov ebx,eax
00000FC0  8D45F7            lea eax,[ebp-0x9]
00000FC3  890424            mov [esp],eax
00000FC6  E825FBFFFF        call 0x100000af0
00000FCB  89D8              mov eax,ebx
00000FCD  890424            mov [esp],eax
00000FD0  E88BFBFFFF        call 0x100000b60
00000FD5  83C424            add esp,byte +0x24
00000FD8  5B                pop ebx
00000FD9  5D                pop ebp
00000FDA  C3                ret
00000FDB  55                push ebp
00000FDC  89E5              mov ebp,esp
00000FDE  83EC18            sub esp,byte +0x18
00000FE1  C7442404FFFF0000  mov dword [esp+0x4],0xffff
00000FE9  C7042401000000    mov dword [esp],0x1
00000FF0  E8D0FEFFFF        call 0x100000ec5
00000FF5  C9                leave
00000FF6  C3                ret
00000FF7  90                nop
00000FF8  55                push ebp
00000FF9  89E5              mov ebp,esp
00000FFB  53                push ebx
00000FFC  83EC14            sub esp,byte +0x14
00000FFF  8B4508            mov eax,[ebp+0x8]
00001002  8B5514            mov edx,[ebp+0x14]
00001005  89542408          mov [esp+0x8],edx
00001009  8B550C            mov edx,[ebp+0xc]
0000100C  89542404          mov [esp+0x4],edx
00001010  890424            mov [esp],eax
00001013  E8B4000000        call 0x10cc
00001018  8B4510            mov eax,[ebp+0x10]
0000101B  89442408          mov [esp+0x8],eax
0000101F  8B450C            mov eax,[ebp+0xc]
00001022  89442404          mov [esp+0x4],eax
00001026  8B4508            mov eax,[ebp+0x8]
00001029  890424            mov [esp],eax
0000102C  E841010000        call 0x1172
00001031  EB17              jmp short 0x104a
00001033  89C3              mov ebx,eax
00001035  8B4508            mov eax,[ebp+0x8]
00001038  890424            mov [esp],eax
0000103B  E8D6000000        call 0x1116
00001040  89D8              mov eax,ebx
00001042  890424            mov [esp],eax
00001045  E816FBFFFF        call 0x100000b60
0000104A  83C414            add esp,byte +0x14
0000104D  5B                pop ebx
0000104E  5D                pop ebp
0000104F  C3                ret
00001050  55                push ebp
00001051  89E5              mov ebp,esp
00001053  53                push ebx
00001054  83EC14            sub esp,byte +0x14
00001057  8B4508            mov eax,[ebp+0x8]
0000105A  890424            mov [esp],eax
0000105D  E84E010000        call 0x11b0
00001062  8B5508            mov edx,[ebp+0x8]
00001065  8B4A04            mov ecx,[edx+0x4]
00001068  8B5508            mov edx,[ebp+0x8]
0000106B  8B12              mov edx,[edx]
0000106D  89442408          mov [esp+0x8],eax
00001071  894C2404          mov [esp+0x4],ecx
00001075  891424            mov [esp],edx
00001078  E83B010000        call 0x11b8
0000107D  8B4508            mov eax,[ebp+0x8]
00001080  890424            mov [esp],eax
00001083  E88E000000        call 0x1116
00001088  EB17              jmp short 0x10a1
0000108A  89C3              mov ebx,eax
0000108C  8B4508            mov eax,[ebp+0x8]
0000108F  890424            mov [esp],eax
00001092  E87F000000        call 0x1116
00001097  89D8              mov eax,ebx
00001099  890424            mov [esp],eax
0000109C  E8BFFAFFFF        call 0x100000b60
000010A1  83C414            add esp,byte +0x14
000010A4  5B                pop ebx
000010A5  5D                pop ebp
000010A6  C3                ret
000010A7  90                nop
000010A8  55                push ebp
000010A9  89E5              mov ebp,esp
000010AB  8B4508            mov eax,[ebp+0x8]
000010AE  8B10              mov edx,[eax]
000010B0  8B450C            mov eax,[ebp+0xc]
000010B3  01D0              add eax,edx
000010B5  5D                pop ebp
000010B6  C3                ret
000010B7  90                nop
000010B8  55                push ebp
000010B9  89E5              mov ebp,esp
000010BB  83EC18            sub esp,byte +0x18
000010BE  8B4508            mov eax,[ebp+0x8]
000010C1  890424            mov [esp],eax
000010C4  E807F9FFFF        call 0x1000009d0
000010C9  C9                leave
000010CA  C3                ret
000010CB  90                nop
000010CC  55                push ebp
000010CD  89E5              mov ebp,esp
000010CF  53                push ebx
000010D0  83EC14            sub esp,byte +0x14
000010D3  8B4508            mov eax,[ebp+0x8]
000010D6  8B5510            mov edx,[ebp+0x10]
000010D9  89542404          mov [esp+0x4],edx
000010DD  890424            mov [esp],eax
000010E0  E8ED000000        call 0x11d2
000010E5  8B450C            mov eax,[ebp+0xc]
000010E8  89442404          mov [esp+0x4],eax
000010EC  8B4508            mov eax,[ebp+0x8]
000010EF  890424            mov [esp],eax
000010F2  E813010000        call 0x120a
000010F7  EB17              jmp short 0x1110
000010F9  89C3              mov ebx,eax
000010FB  8B4508            mov eax,[ebp+0x8]
000010FE  890424            mov [esp],eax
00001101  E8B2FFFFFF        call 0x1000010b8
00001106  89D8              mov eax,ebx
00001108  890424            mov [esp],eax
0000110B  E850FAFFFF        call 0x100000b60
00001110  83C414            add esp,byte +0x14
00001113  5B                pop ebx
00001114  5D                pop ebp
00001115  C3                ret
00001116  55                push ebp
00001117  89E5              mov ebp,esp
00001119  53                push ebx
0000111A  83EC14            sub esp,byte +0x14
0000111D  8B4508            mov eax,[ebp+0x8]
00001120  8B4008            mov eax,[eax+0x8]
00001123  89C2              mov edx,eax
00001125  8B4508            mov eax,[ebp+0x8]
00001128  8B00              mov eax,[eax]
0000112A  29C2              sub edx,eax
0000112C  89D0              mov eax,edx
0000112E  89C2              mov edx,eax
00001130  8B4508            mov eax,[ebp+0x8]
00001133  8B00              mov eax,[eax]
00001135  89542408          mov [esp+0x8],edx
00001139  89442404          mov [esp+0x4],eax
0000113D  8B4508            mov eax,[ebp+0x8]
00001140  890424            mov [esp],eax
00001143  E8FC000000        call 0x1244
00001148  8B4508            mov eax,[ebp+0x8]
0000114B  890424            mov [esp],eax
0000114E  E865FFFFFF        call 0x1000010b8
00001153  EB17              jmp short 0x116c
00001155  89C3              mov ebx,eax
00001157  8B4508            mov eax,[ebp+0x8]
0000115A  890424            mov [esp],eax
0000115D  E856FFFFFF        call 0x1000010b8
00001162  89D8              mov eax,ebx
00001164  890424            mov [esp],eax
00001167  E8F4F9FFFF        call 0x100000b60
0000116C  83C414            add esp,byte +0x14
0000116F  5B                pop ebx
00001170  5D                pop ebp
00001171  C3                ret
00001172  55                push ebp
00001173  89E5              mov ebp,esp
00001175  83EC18            sub esp,byte +0x18
00001178  8B4508            mov eax,[ebp+0x8]
0000117B  890424            mov [esp],eax
0000117E  E82D000000        call 0x11b0
00001183  8B5508            mov edx,[ebp+0x8]
00001186  8B12              mov edx,[edx]
00001188  8944240C          mov [esp+0xc],eax
0000118C  8B4510            mov eax,[ebp+0x10]
0000118F  89442408          mov [esp+0x8],eax
00001193  8B450C            mov eax,[ebp+0xc]
00001196  89442404          mov [esp+0x4],eax
0000119A  891424            mov [esp],edx
0000119D  E8C9000000        call 0x126b
000011A2  8B4508            mov eax,[ebp+0x8]
000011A5  8B5008            mov edx,[eax+0x8]
000011A8  8B4508            mov eax,[ebp+0x8]
000011AB  895004            mov [eax+0x4],edx
000011AE  C9                leave
000011AF  C3                ret
000011B0  55                push ebp
000011B1  89E5              mov ebp,esp
000011B3  8B4508            mov eax,[ebp+0x8]
000011B6  5D                pop ebp
000011B7  C3                ret
000011B8  55                push ebp
000011B9  89E5              mov ebp,esp
000011BB  83EC18            sub esp,byte +0x18
000011BE  8B450C            mov eax,[ebp+0xc]
000011C1  89442404          mov [esp+0x4],eax
000011C5  8B4508            mov eax,[ebp+0x8]
000011C8  890424            mov [esp],eax
000011CB  E8BC000000        call 0x128c
000011D0  C9                leave
000011D1  C3                ret
000011D2  55                push ebp
000011D3  89E5              mov ebp,esp
000011D5  83EC18            sub esp,byte +0x18
000011D8  8B450C            mov eax,[ebp+0xc]
000011DB  89442404          mov [esp+0x4],eax
000011DF  8B4508            mov eax,[ebp+0x8]
000011E2  890424            mov [esp],eax
000011E5  E886F9FFFF        call 0x100000b70
000011EA  8B4508            mov eax,[ebp+0x8]
000011ED  C70000000000      mov dword [eax],0x0
000011F3  8B4508            mov eax,[ebp+0x8]
000011F6  C7400400000000    mov dword [eax+0x4],0x0
000011FD  8B4508            mov eax,[ebp+0x8]
00001200  C7400800000000    mov dword [eax+0x8],0x0
00001207  C9                leave
00001208  C3                ret
00001209  90                nop
0000120A  55                push ebp
0000120B  89E5              mov ebp,esp
0000120D  83EC18            sub esp,byte +0x18
00001210  8B450C            mov eax,[ebp+0xc]
00001213  89442404          mov [esp+0x4],eax
00001217  8B4508            mov eax,[ebp+0x8]
0000121A  890424            mov [esp],eax
0000121D  E884000000        call 0x12a6
00001222  8B5508            mov edx,[ebp+0x8]
00001225  8902              mov [edx],eax
00001227  8B4508            mov eax,[ebp+0x8]
0000122A  8B10              mov edx,[eax]
0000122C  8B4508            mov eax,[ebp+0x8]
0000122F  895004            mov [eax+0x4],edx
00001232  8B4508            mov eax,[ebp+0x8]
00001235  8B10              mov edx,[eax]
00001237  8B450C            mov eax,[ebp+0xc]
0000123A  01C2              add edx,eax
0000123C  8B4508            mov eax,[ebp+0x8]
0000123F  895008            mov [eax+0x8],edx
00001242  C9                leave
00001243  C3                ret
00001244  55                push ebp
00001245  89E5              mov ebp,esp
00001247  83EC18            sub esp,byte +0x18
0000124A  837D0C00          cmp dword [ebp+0xc],byte +0x0
0000124E  7419              jz 0x1269
00001250  8B4508            mov eax,[ebp+0x8]
00001253  8B5510            mov edx,[ebp+0x10]
00001256  89542408          mov [esp+0x8],edx
0000125A  8B550C            mov edx,[ebp+0xc]
0000125D  89542404          mov [esp+0x4],edx
00001261  890424            mov [esp],eax
00001264  E86D000000        call 0x12d6
00001269  C9                leave
0000126A  C3                ret
0000126B  55                push ebp
0000126C  89E5              mov ebp,esp
0000126E  83EC18            sub esp,byte +0x18
00001271  8B4510            mov eax,[ebp+0x10]
00001274  89442408          mov [esp+0x8],eax
00001278  8B450C            mov eax,[ebp+0xc]
0000127B  89442404          mov [esp+0x4],eax
0000127F  8B4508            mov eax,[ebp+0x8]
00001282  890424            mov [esp],eax
00001285  E85F000000        call 0x12e9
0000128A  C9                leave
0000128B  C3                ret
0000128C  55                push ebp
0000128D  89E5              mov ebp,esp
0000128F  83EC18            sub esp,byte +0x18
00001292  8B450C            mov eax,[ebp+0xc]
00001295  89442404          mov [esp+0x4],eax
00001299  8B4508            mov eax,[ebp+0x8]
0000129C  890424            mov [esp],eax
0000129F  E866000000        call 0x130a
000012A4  C9                leave
000012A5  C3                ret
000012A6  55                push ebp
000012A7  89E5              mov ebp,esp
000012A9  83EC18            sub esp,byte +0x18
000012AC  837D0C00          cmp dword [ebp+0xc],byte +0x0
000012B0  741C              jz 0x12ce
000012B2  8B4508            mov eax,[ebp+0x8]
000012B5  C744240800000000  mov dword [esp+0x8],0x0
000012BD  8B550C            mov edx,[ebp+0xc]
000012C0  89542404          mov [esp+0x4],edx
000012C4  890424            mov [esp],eax
000012C7  E844000000        call 0x1310
000012CC  EB05              jmp short 0x12d3
000012CE  B800000000        mov eax,0x0
000012D3  C9                leave
000012D4  C3                ret
000012D5  90                nop
000012D6  55                push ebp
000012D7  89E5              mov ebp,esp
000012D9  83EC18            sub esp,byte +0x18
000012DC  8B450C            mov eax,[ebp+0xc]
000012DF  890424            mov [esp],eax
000012E2  E849F7FFFF        call 0x100000a30
000012E7  C9                leave
000012E8  C3                ret
000012E9  55                push ebp
000012EA  89E5              mov ebp,esp
000012EC  83EC18            sub esp,byte +0x18
000012EF  8B4510            mov eax,[ebp+0x10]
000012F2  89442408          mov [esp+0x8],eax
000012F6  8B450C            mov eax,[ebp+0xc]
000012F9  89442404          mov [esp+0x4],eax
000012FD  8B4508            mov eax,[ebp+0x8]
00001300  890424            mov [esp],eax
00001303  E835000000        call 0x133d
00001308  C9                leave
00001309  C3                ret
0000130A  55                push ebp
0000130B  89E5              mov ebp,esp
0000130D  5D                pop ebp
0000130E  C3                ret
0000130F  90                nop
00001310  55                push ebp
00001311  89E5              mov ebp,esp
00001313  83EC18            sub esp,byte +0x18
00001316  8B4508            mov eax,[ebp+0x8]
00001319  890424            mov [esp],eax
0000131C  E83D000000        call 0x135e
00001321  3B450C            cmp eax,[ebp+0xc]
00001324  0F92C0            setc al
00001327  84C0              test al,al
00001329  7405              jz 0x1330
0000132B  E8F0F7FFFF        call 0x100000b20
00001330  8B450C            mov eax,[ebp+0xc]
00001333  890424            mov [esp],eax
00001336  E8A5F7FFFF        call 0x100000ae0
0000133B  C9                leave
0000133C  C3                ret
0000133D  55                push ebp
0000133E  89E5              mov ebp,esp
00001340  83EC18            sub esp,byte +0x18
00001343  8B4510            mov eax,[ebp+0x10]
00001346  89442408          mov [esp+0x8],eax
0000134A  8B450C            mov eax,[ebp+0xc]
0000134D  89442404          mov [esp+0x4],eax
00001351  8B4508            mov eax,[ebp+0x8]
00001354  890424            mov [esp],eax
00001357  E80C000000        call 0x1368
0000135C  C9                leave
0000135D  C3                ret
0000135E  55                push ebp
0000135F  89E5              mov ebp,esp
00001361  B8FFFFFFFF        mov eax,0xffffffff
00001366  5D                pop ebp
00001367  C3                ret
00001368  55                push ebp
00001369  89E5              mov ebp,esp
0000136B  83EC18            sub esp,byte +0x18
0000136E  8B4508            mov eax,[ebp+0x8]
00001371  890424            mov [esp],eax
00001374  E818000000        call 0x1391
00001379  8B5510            mov edx,[ebp+0x10]
0000137C  89542408          mov [esp+0x8],edx
00001380  8B550C            mov edx,[ebp+0xc]
00001383  89542404          mov [esp+0x4],edx
00001387  890424            mov [esp],eax
0000138A  E815000000        call 0x13a4
0000138F  C9                leave
00001390  C3                ret
00001391  55                push ebp
00001392  89E5              mov ebp,esp
00001394  83EC18            sub esp,byte +0x18
00001397  8B4508            mov eax,[ebp+0x8]
0000139A  890424            mov [esp],eax
0000139D  E830000000        call 0x13d2
000013A2  C9                leave
000013A3  C3                ret
000013A4  55                push ebp
000013A5  89E5              mov ebp,esp
000013A7  83EC18            sub esp,byte +0x18
000013AA  8B450C            mov eax,[ebp+0xc]
000013AD  8B5508            mov edx,[ebp+0x8]
000013B0  01C2              add edx,eax
000013B2  8B4510            mov eax,[ebp+0x10]
000013B5  89442408          mov [esp+0x8],eax
000013B9  89542404          mov [esp+0x4],edx
000013BD  8B4508            mov eax,[ebp+0x8]
000013C0  890424            mov [esp],eax
000013C3  E812000000        call 0x13da
000013C8  8B450C            mov eax,[ebp+0xc]
000013CB  8B5508            mov edx,[ebp+0x8]
000013CE  01D0              add eax,edx
000013D0  C9                leave
000013D1  C3                ret
000013D2  55                push ebp
000013D3  89E5              mov ebp,esp
000013D5  8B4508            mov eax,[ebp+0x8]
000013D8  5D                pop ebp
000013D9  C3                ret
000013DA  55                push ebp
000013DB  89E5              mov ebp,esp
000013DD  83EC28            sub esp,byte +0x28
000013E0  8B4510            mov eax,[ebp+0x10]
000013E3  8A00              mov al,[eax]
000013E5  8845F7            mov [ebp-0x9],al
000013E8  8B550C            mov edx,[ebp+0xc]
000013EB  8B4508            mov eax,[ebp+0x8]
000013EE  29C2              sub edx,eax
000013F0  89D0              mov eax,edx
000013F2  89C2              mov edx,eax
000013F4  8A45F7            mov al,[ebp-0x9]
000013F7  25FF000000        and eax,0xff
000013FC  89542408          mov [esp+0x8],edx
00001400  89442404          mov [esp+0x4],eax
00001404  8B4508            mov eax,[ebp+0x8]
00001407  890424            mov [esp],eax
0000140A  E851F6FFFF        call 0x100000a60
0000140F  C9                leave
00001410  C3                ret
00001411  6690              o16 nop
00001413  6690              o16 nop
00001415  6690              o16 nop
00001417  6690              o16 nop
00001419  6690              o16 nop
0000141B  6690              o16 nop
0000141D  6690              o16 nop
0000141F  90                nop
00001420  55                push ebp
00001421  89E5              mov ebp,esp
00001423  5D                pop ebp
00001424  C3                ret
00001425  66                db 0x66
00001426  66                db 0x66
00001427  2E                db 0x2E
00001428  0F                db 0x0F
00001429  1F                pop ds
0000142A  8400              test [eax],al
0000142C  0000              add [eax],al
0000142E  0000              add [eax],al
00001430  55                push ebp
00001431  89E5              mov ebp,esp
00001433  57                push edi
00001434  56                push esi
00001435  53                push ebx
00001436  E84F000000        call 0x148a
0000143B  81C35D180000      add ebx,0x185d
00001441  83EC1C            sub esp,byte +0x1c
00001444  E833F5FFFF        call 0x10000097c
00001449  8DBB02FFFFFF      lea edi,[ebx+0xffffff02]
0000144F  8D8302FFFFFF      lea eax,[ebx+0xffffff02]
00001455  29C7              sub edi,eax
00001457  C1FF02            sar edi,0x2
0000145A  85FF              test edi,edi
0000145C  7424              jz 0x1482
0000145E  31F6              xor esi,esi
00001460  8B4510            mov eax,[ebp+0x10]
00001463  89442408          mov [esp+0x8],eax
00001467  8B450C            mov eax,[ebp+0xc]
0000146A  89442404          mov [esp+0x4],eax
0000146E  8B4508            mov eax,[ebp+0x8]
00001471  890424            mov [esp],eax
00001474  FF94B302FFFFFF    call near [ebx+esi*4+0xffffff02]
0000147B  83C601            add esi,byte +0x1
0000147E  39FE              cmp esi,edi
00001480  72DE              jc 0x1460
00001482  83C41C            add esp,byte +0x1c
00001485  5B                pop ebx
00001486  5E                pop esi
00001487  5F                pop edi
00001488  5D                pop ebp
00001489  C3                ret
0000148A  8B1C24            mov ebx,[esp]
0000148D  C3                ret
0000148E  6690              o16 nop
00001490  55                push ebp
00001491  89E5              mov ebp,esp
00001493  53                push ebx
00001494  52                push edx
00001495  BBA0AB0408        mov ebx,0x804aba0
0000149A  A1A0AB0408        mov eax,[0x804aba0]
0000149F  83F8FF            cmp eax,byte -0x1
000014A2  7410              jz 0x14b4
000014A4  8D742600          lea esi,[esi+0x0]
000014A8  83EB04            sub ebx,byte +0x4
000014AB  FFD0              call eax
000014AD  8B03              mov eax,[ebx]
000014AF  83F8FF            cmp eax,byte -0x1
000014B2  75F4              jnz 0x14a8
000014B4  58                pop eax
000014B5  5B                pop ebx
000014B6  5D                pop ebp
000014B7  C3                ret
000014B8  55                push ebp
000014B9  89E5              mov ebp,esp
000014BB  53                push ebx
000014BC  83EC04            sub esp,byte +0x4
000014BF  E800000000        call 0x14c4
000014C4  5B                pop ebx
000014C5  81C3D4170000      add ebx,0x17d4
000014CB  E850F7FFFF        call 0x100000c20
000014D0  59                pop ecx
000014D1  5B                pop ebx
000014D2  C9                leave
000014D3  C3                ret
000014D4  0300              add eax,[eax]
000014D6  0000              add [eax],al
000014D8  0100              add [eax],eax
000014DA  0200              add al,[eax]
000014DC  43                inc ebx
000014DD  61                popa
000014DE  7365              jnc 0x1545
000014E0  2023              and [ebx],ah
000014E2  003A              add [edx],bh
000014E4  2000              and [eax],al
000014E6  0000              add [eax],al
000014E8  656A70            gs push byte +0x70
000014EB  206D79            and [ebp+0x79],ch
000014EE  736C              jnc 0x155c
000014F0  6A79              push byte +0x79
000014F2  6C                insb
000014F3  6320              arpl [eax],sp
000014F5  6B64206B78        imul esp,[eax+0x6b],byte +0x78
000014FA  7665              jna 0x1561
000014FC  64646B6E6D63      imul ebp,[fs:esi+0x6d],byte +0x63
00001502  207265            and [edx+0x65],dh
00001505  206A73            and [edx+0x73],ch
00001508  69637064727973    imul esp,[ebx+0x70],dword 0x73797264
0000150F  69726263706320    imul esi,[edx+0x62],dword 0x20637063
00001516  7970              jns 0x1588
00001518  6320              arpl [eax],sp
0000151A  7274              jc 0x1590
0000151C  637372            arpl [ebx+0x72],si
0000151F  61                popa
00001520  20646B68          and [ebx+ebp*2+0x68],ah
00001524  207779            and [edi+0x79],dh
00001527  667265            o16 jc 0x158f
0000152A  706B              jo 0x1597
0000152C  796D              jns 0x159b
0000152E  207665            and [esi+0x65],dh
00001531  64646B6E6B6D      imul ebp,[fs:esi+0x6b],byte +0x6d
00001537  6B726B63          imul esi,[edx+0x6b],byte +0x63
0000153B  646465206B72      and [gs:ebx+0x72],ch
00001541  206B64            and [ebx+0x64],ch
00001544  20656F            and [ebp+0x6f],ah
00001547  7961              jns 0x15aa
00001549  206B77            and [ebx+0x77],ch
0000154C  206165            and [ecx+0x65],ah
0000154F  6A20              push byte +0x20
00001551  7479              jz 0x15cc
00001553  7372              jnc 0x15c7
00001555  207265            and [edx+0x65],dh
00001558  20756A            and [ebp+0x6a],dh
0000155B  647220            fs jc 0x157e
0000155E  6C                insb
0000155F  6B676320          imul esp,[edi+0x63],byte +0x20
00001563  6A76              push byte +0x76
00001565  207120            and [ecx+0x20],dh
00001568  7A00              jpe 0x156a
0000156A  0000              add [eax],al
0000156C  6F                outsd
0000156D  7572              jnz 0x15e1
0000156F  206C616E          and [ecx+0x6e],ch
00001573  677561            a16 jnz 0x15d7
00001576  6765206973        and [gs:bx+di+0x73],ch
0000157B  20696D            and [ecx+0x6d],ch
0000157E  706F              jo 0x15ef
00001580  7373              jnc 0x15f5
00001582  69626C6520746F    imul esp,[edx+0x6c],dword 0x6f742065
00001589  20756E            and [ebp+0x6e],dh
0000158C  64657273          gs jc 0x1603
00001590  7461              jz 0x15f3
00001592  6E                outsb
00001593  647468            fs jz 0x15fe
00001596  657265            gs jc 0x15fe
00001599  206172            and [ecx+0x72],ah
0000159C  6520747765        and [gs:edi+esi*2+0x65],dh
000015A1  6E                outsb
000015A2  7479              jz 0x161d
000015A4  207369            and [ebx+0x69],dh
000015A7  7820              js 0x15c9
000015A9  6661              popaw
000015AB  63746F72          arpl [edi+ebp*2+0x72],si
000015AF  69616C20706F73    imul esp,[ecx+0x6c],dword 0x736f7020
000015B6  7369              jnc 0x1621
000015B8  62696C            bound ebp,[ecx+0x6c]
000015BB  6974696573736F20  imul esi,[ecx+ebp*2+0x65],dword 0x206f7373
000015C3  6974206973206F6B  imul esi,[eax+0x69],dword 0x6b6f2073
000015CB  61                popa
000015CC  7920              jns 0x15ee
000015CE  696620796F7520    imul esp,[esi+0x20],dword 0x20756f79
000015D5  7761              ja 0x1638
000015D7  6E                outsb
000015D8  7420              jz 0x15fa
000015DA  746F              jz 0x164b
000015DC  206A75            and [edx+0x75],ch
000015DF  7374              jnc 0x1655
000015E1  206769            and [edi+0x69],ah
000015E4  7665              jna 0x164b
000015E6  207570            and [ebp+0x70],dh
000015E9  207A20            and [edx+0x20],bh
000015EC  7100              jno 0x15ee
000015EE  0000              add [eax],al
000015F0  0000              add [eax],al
000015F2  0000              add [eax],al
000015F4  011B              add [ebx],ebx
000015F6  033B              add edi,[ebx]
000015F8  F8                clc
000015F9  0000              add [eax],al
000015FB  001E              add [esi],bl
000015FD  0000              add [eax],al
000015FF  00BCF3FFFF1401    add [ebx+esi*8+0x114ffff],bh
00001606  0000              add [eax],al
00001608  AC                lodsb
00001609  F6FF              idiv bh
0000160B  FF5801            call far [eax+0x1]
0000160E  0000              add [eax],al
00001610  D1F8              sar eax,1
00001612  FF                db 0xFF
00001613  FFE0              jmp eax
00001615  0400              add al,0x0
00001617  00E7              add bh,ah
00001619  F9                stc
0000161A  FF                db 0xFF
0000161B  FF0C05000004FA    dec dword [eax+0xfa040000]
00001622  FF                db 0xFF
00001623  FF800100005C      inc dword [eax+0x5c000001]
00001629  FA                cli
0000162A  FF                db 0xFF
0000162B  FFA8010000B4      jmp far [eax+0xb4000001]
00001631  FA                cli
00001632  FF                db 0xFF
00001633  FFD0              call eax
00001635  0100              add [eax],eax
00001637  00C4              add ah,al
00001639  FA                cli
0000163A  FF                db 0xFF
0000163B  FFF0              push eax
0000163D  0100              add [eax],eax
0000163F  00D8              add al,bl
00001641  FA                cli
00001642  FF                db 0xFF
00001643  FF10              call near [eax]
00001645  0200              add al,[eax]
00001647  0022              add [edx],ah
00001649  FB                sti
0000164A  FF                db 0xFF
0000164B  FF                db 0xFF
0000164C  3802              cmp [edx],al
0000164E  0000              add [eax],al
00001650  7EFB              jng 0x164d
00001652  FF                db 0xFF
00001653  FF6002            jmp near [eax+0x2]
00001656  0000              add [eax],al
00001658  BCFBFFFF80        mov esp,0x80fffffb
0000165D  0200              add al,[eax]
0000165F  00C4              add ah,al
00001661  FB                sti
00001662  FF                db 0xFF
00001663  FFA0020000DE      jmp near [eax+0xde000002]
00001669  FB                sti
0000166A  FF                db 0xFF
0000166B  FFC0              inc eax
0000166D  0200              add al,[eax]
0000166F  0016              add [esi],dl
00001671  FC                cld
00001672  FF                db 0xFF
00001673  FFE0              jmp eax
00001675  0200              add al,[eax]
00001677  0050FC            add [eax-0x4],dl
0000167A  FF                db 0xFF
0000167B  FF00              inc dword [eax]
0000167D  0300              add eax,[eax]
0000167F  0077FC            add [edi-0x4],dh
00001682  FF                db 0xFF
00001683  FF20              jmp near [eax]
00001685  0300              add eax,[eax]
00001687  0098FCFFFF40      add [eax+0x40fffffc],bl
0000168D  0300              add eax,[eax]
0000168F  00B2FCFFFF60      add [edx+0x60fffffc],dh
00001695  0300              add eax,[eax]
00001697  00E2              add dl,ah
00001699  FC                cld
0000169A  FF                db 0xFF
0000169B  FF80030000F5      inc dword [eax+0xf5000003]
000016A1  FC                cld
000016A2  FF                db 0xFF
000016A3  FFA003000016      jmp near [eax+0x16000003]
000016A9  FD                std
000016AA  FF                db 0xFF
000016AB  FFC0              inc eax
000016AD  0300              add eax,[eax]
000016AF  001CFDFFFFE003    add [edi*8+0x3e0ffff],bl
000016B6  0000              add [eax],al
000016B8  49                dec ecx
000016B9  FD                std
000016BA  FF                db 0xFF
000016BB  FF00              inc dword [eax]
000016BD  0400              add al,0x0
000016BF  006AFD            add [edx-0x3],ch
000016C2  FF                db 0xFF
000016C3  FF20              jmp near [eax]
000016C5  0400              add al,0x0
000016C7  0074FDFF          add [ebp+edi*8-0x1],dh
000016CB  FF4004            inc dword [eax+0x4]
000016CE  0000              add [eax],al
000016D0  9D                popf
000016D1  FD                std
000016D2  FF                db 0xFF
000016D3  FF6004            jmp near [eax+0x4]
000016D6  0000              add [eax],al
000016D8  B0FD              mov al,0xfd
000016DA  FF                db 0xFF
000016DB  FF80040000DE      inc dword [eax+0xde000004]
000016E1  FD                std
000016E2  FF                db 0xFF
000016E3  FFA0040000E6      jmp near [eax+0xe6000004]
000016E9  FD                std
000016EA  FF                db 0xFF
000016EB  FFC0              inc eax
000016ED  0400              add al,0x0
000016EF  001400            add [eax+eax],dl
000016F2  0000              add [eax],al
000016F4  0000              add [eax],al
000016F6  0000              add [eax],al
000016F8  017A52            add [edx+0x52],edi
000016FB  0001              add [ecx],al
000016FD  7C08              jl 0x1707
000016FF  011B              add [ebx],ebx
00001701  0C04              or al,0x4
00001703  0488              add al,0x88
00001705  0100              add [eax],eax
00001707  0020              add [eax],ah
00001709  0000              add [eax],al
0000170B  001C00            add [eax+eax],bl
0000170E  0000              add [eax],al
00001710  A0F2FFFFD0        mov al,[0xd0fffff2]
00001715  0100              add [eax],eax
00001717  0000              add [eax],al
00001719  0E                push cs
0000171A  08460E            or [esi+0xe],al
0000171D  0C4A              or al,0x4a
0000171F  0F0B              ud2
00001721  7404              jz 0x1727
00001723  7800              js 0x1725
00001725  3F                aas
00001726  1A3B              sbb bh,[ebx]
00001728  2A32              sub dh,[edx]
0000172A  2422              and al,0x22
0000172C  1C00              sbb al,0x0
0000172E  0000              add [eax],al
00001730  0000              add [eax],al
00001732  0000              add [eax],al
00001734  017A50            add [edx+0x50],edi
00001737  4C                dec esp
00001738  52                push edx
00001739  0001              add [ecx],al
0000173B  7C08              jl 0x1745
0000173D  07                pop es
0000173E  00508B            add [eax-0x75],dl
00001741  0408              add al,0x8
00001743  001B              add [ebx],bl
00001745  0C04              or al,0x4
00001747  0488              add al,0x88
00001749  0100              add [eax],eax
0000174B  002400            add [eax+eax],ah
0000174E  0000              add [eax],al
00001750  2400              and al,0x0
00001752  0000              add [eax],al
00001754  4C                dec esp
00001755  F5                cmc
00001756  FF                db 0xFF
00001757  FF2502000004      jmp near [0x4000002]
0000175D  249B              and al,0x9b
0000175F  0408              add al,0x8
00001761  41                inc ecx
00001762  0E                push cs
00001763  088502420D05      or [ebp+0x50d4202],al
00001769  47                inc edi
0000176A  830303            add dword [ebx],byte +0x3
0000176D  1A02              sbb al,[edx]
0000176F  C5                db 0xC5
00001770  C3                ret
00001771  0C04              or al,0x4
00001773  0424              add al,0x24
00001775  0000              add [eax],al
00001777  004C0000          add [eax+eax+0x0],cl
0000177B  007CF8FF          add [eax+edi*8-0x1],bh
0000177F  FF5800            call far [eax+0x0]
00001782  0000              add [eax],al
00001784  044A              add al,0x4a
00001786  9B                wait
00001787  0408              add al,0x8
00001789  41                inc ecx
0000178A  0E                push cs
0000178B  088502420D05      or [ebp+0x50d4202],al
00001791  44                inc esp
00001792  830302            add dword [ebx],byte +0x2
00001795  4F                dec edi
00001796  C3                ret
00001797  41                inc ecx
00001798  C50C04            lds ecx,[esp+eax]
0000179B  0424              add al,0x24
0000179D  0000              add [eax],al
0000179F  00740000          add [eax+eax+0x0],dh
000017A3  00ACF8FFFF5700    add [eax+edi*8+0x57ffff],ch
000017AA  0000              add [eax],al
000017AC  045A              add al,0x5a
000017AE  9B                wait
000017AF  0408              add al,0x8
000017B1  41                inc ecx
000017B2  0E                push cs
000017B3  088502420D05      or [ebp+0x50d4202],al
000017B9  44                inc esp
000017BA  830302            add dword [ebx],byte +0x2
000017BD  4E                dec esi
000017BE  C3                ret
000017BF  41                inc ecx
000017C0  C50C04            lds ecx,[esp+eax]
000017C3  041C              add al,0x1c
000017C5  0000              add [eax],al
000017C7  00D8              add al,bl
000017C9  0000              add [eax],al
000017CB  00DC              add ah,bl
000017CD  F8                clc
000017CE  FF                db 0xFF
000017CF  FF0F              dec dword [edi]
000017D1  0000              add [eax],al
000017D3  0000              add [eax],al
000017D5  41                inc ecx
000017D6  0E                push cs
000017D7  088502420D05      or [ebp+0x50d4202],al
000017DD  4B                dec ebx
000017DE  C50C04            lds ecx,[esp+eax]
000017E1  0400              add al,0x0
000017E3  001C00            add [eax+eax],bl
000017E6  0000              add [eax],al
000017E8  F8                clc
000017E9  0000              add [eax],al
000017EB  00CC              add ah,cl
000017ED  F8                clc
000017EE  FF                db 0xFF
000017EF  FF13              call near [ebx]
000017F1  0000              add [eax],al
000017F3  0000              add [eax],al
000017F5  41                inc ecx
000017F6  0E                push cs
000017F7  088502420D05      or [ebp+0x50d4202],al
000017FD  4F                dec edi
000017FE  C50C04            lds ecx,[esp+eax]
00001801  0400              add al,0x0
00001803  002400            add [eax+eax],ah
00001806  0000              add [eax],al
00001808  DC00              fadd qword [eax]
0000180A  0000              add [eax],al
0000180C  C0F8FF            sar al,0xff
0000180F  FF4A00            dec dword [edx+0x0]
00001812  0000              add [eax],al
00001814  046A              add al,0x6a
00001816  9B                wait
00001817  0408              add al,0x8
00001819  41                inc ecx
0000181A  0E                push cs
0000181B  088502420D05      or [ebp+0x50d4202],al
00001821  44                inc esp
00001822  830302            add dword [ebx],byte +0x2
00001825  41                inc ecx
00001826  C3                ret
00001827  41                inc ecx
00001828  C50C04            lds ecx,[esp+eax]
0000182B  0424              add al,0x24
0000182D  0000              add [eax],al
0000182F  000401            add [ecx+eax],al
00001832  0000              add [eax],al
00001834  E2F8              loop 0x182e
00001836  FF                db 0xFF
00001837  FF5C0000          call far [eax+eax+0x0]
0000183B  000476            add [esi+esi*2],al
0000183E  9B                wait
0000183F  0408              add al,0x8
00001841  41                inc ecx
00001842  0E                push cs
00001843  088502420D05      or [ebp+0x50d4202],al
00001849  44                inc esp
0000184A  830302            add dword [ebx],byte +0x2
0000184D  53                push ebx
0000184E  C3                ret
0000184F  41                inc ecx
00001850  C50C04            lds ecx,[esp+eax]
00001853  041C              add al,0x1c
00001855  0000              add [eax],al
00001857  006801            add [eax+0x1],ch
0000185A  0000              add [eax],al
0000185C  16                push ss
0000185D  F9                stc
0000185E  FF                db 0xFF
0000185F  FF                db 0xFF
00001860  3E0000            add [ds:eax],al
00001863  0000              add [eax],al
00001865  41                inc ecx
00001866  0E                push cs
00001867  088502420D05      or [ebp+0x50d4202],al
0000186D  7AC5              jpe 0x1834
0000186F  0C04              or al,0x4
00001871  0400              add al,0x0
00001873  001C00            add [eax+eax],bl
00001876  0000              add [eax],al
00001878  8801              mov [ecx],al
0000187A  0000              add [eax],al
0000187C  34F9              xor al,0xf9
0000187E  FF                db 0xFF
0000187F  FF08              dec dword [eax]
00001881  0000              add [eax],al
00001883  0000              add [eax],al
00001885  41                inc ecx
00001886  0E                push cs
00001887  088502420D05      or [ebp+0x50d4202],al
0000188D  44                inc esp
0000188E  C50C04            lds ecx,[esp+eax]
00001891  0400              add al,0x0
00001893  001C00            add [eax+eax],bl
00001896  0000              add [eax],al
00001898  A801              test al,0x1
0000189A  0000              add [eax],al
0000189C  1CF9              sbb al,0xf9
0000189E  FF                db 0xFF
0000189F  FF1A              call far [edx]
000018A1  0000              add [eax],al
000018A3  0000              add [eax],al
000018A5  41                inc ecx
000018A6  0E                push cs
000018A7  088502420D05      or [ebp+0x50d4202],al
000018AD  56                push esi
000018AE  C50C04            lds ecx,[esp+eax]
000018B1  0400              add al,0x0
000018B3  001C00            add [eax+eax],bl
000018B6  0000              add [eax],al
000018B8  C8010000          enter 0x1,0x0
000018BC  16                push ss
000018BD  F9                stc
000018BE  FF                db 0xFF
000018BF  FF37              push dword [edi]
000018C1  0000              add [eax],al
000018C3  0000              add [eax],al
000018C5  41                inc ecx
000018C6  0E                push cs
000018C7  088502420D05      or [ebp+0x50d4202],al
000018CD  73C5              jnc 0x1894
000018CF  0C04              or al,0x4
000018D1  0400              add al,0x0
000018D3  001C00            add [eax+eax],bl
000018D6  0000              add [eax],al
000018D8  E80100002E        call 0x2e0018de
000018DD  F9                stc
000018DE  FF                db 0xFF
000018DF  FF                db 0xFF
000018E0  3A00              cmp al,[eax]
000018E2  0000              add [eax],al
000018E4  00410E            add [ecx+0xe],al
000018E7  088502420D05      or [ebp+0x50d4202],al
000018ED  76C5              jna 0x18b4
000018EF  0C04              or al,0x4
000018F1  0400              add al,0x0
000018F3  001C00            add [eax+eax],bl
000018F6  0000              add [eax],al
000018F8  0802              or [edx],al
000018FA  0000              add [eax],al
000018FC  48                dec eax
000018FD  F9                stc
000018FE  FF                db 0xFF
000018FF  FF27              jmp near [edi]
00001901  0000              add [eax],al
00001903  0000              add [eax],al
00001905  41                inc ecx
00001906  0E                push cs
00001907  088502420D05      or [ebp+0x50d4202],al
0000190D  63C5              arpl bp,ax
0000190F  0C04              or al,0x4
00001911  0400              add al,0x0
00001913  001C00            add [eax+eax],bl
00001916  0000              add [eax],al
00001918  2802              sub [edx],al
0000191A  0000              add [eax],al
0000191C  4F                dec edi
0000191D  F9                stc
0000191E  FF                db 0xFF
0000191F  FF21              jmp near [ecx]
00001921  0000              add [eax],al
00001923  0000              add [eax],al
00001925  41                inc ecx
00001926  0E                push cs
00001927  088502420D05      or [ebp+0x50d4202],al
0000192D  5D                pop ebp
0000192E  C50C04            lds ecx,[esp+eax]
00001931  0400              add al,0x0
00001933  001C00            add [eax+eax],bl
00001936  0000              add [eax],al
00001938  48                dec eax
00001939  0200              add al,[eax]
0000193B  0050F9            add [eax-0x7],dl
0000193E  FF                db 0xFF
0000193F  FF1A              call far [edx]
00001941  0000              add [eax],al
00001943  0000              add [eax],al
00001945  41                inc ecx
00001946  0E                push cs
00001947  088502420D05      or [ebp+0x50d4202],al
0000194D  56                push esi
0000194E  C50C04            lds ecx,[esp+eax]
00001951  0400              add al,0x0
00001953  001C00            add [eax+eax],bl
00001956  0000              add [eax],al
00001958  680200004A        push dword 0x4a000002
0000195D  F9                stc
0000195E  FF                db 0xFF
0000195F  FF2F              jmp far [edi]
00001961  0000              add [eax],al
00001963  0000              add [eax],al
00001965  41                inc ecx
00001966  0E                push cs
00001967  088502420D05      or [ebp+0x50d4202],al
0000196D  6BC50C            imul eax,ebp,byte +0xc
00001970  0404              add al,0x4
00001972  0000              add [eax],al
00001974  1C00              sbb al,0x0
00001976  0000              add [eax],al
00001978  8802              mov [edx],al
0000197A  0000              add [eax],al
0000197C  5A                pop edx
0000197D  F9                stc
0000197E  FF                db 0xFF
0000197F  FF13              call near [ebx]
00001981  0000              add [eax],al
00001983  0000              add [eax],al
00001985  41                inc ecx
00001986  0E                push cs
00001987  088502420D05      or [ebp+0x50d4202],al
0000198D  4F                dec edi
0000198E  C50C04            lds ecx,[esp+eax]
00001991  0400              add al,0x0
00001993  001C00            add [eax+eax],bl
00001996  0000              add [eax],al
00001998  A802              test al,0x2
0000199A  0000              add [eax],al
0000199C  4D                dec ebp
0000199D  F9                stc
0000199E  FF                db 0xFF
0000199F  FF21              jmp near [ecx]
000019A1  0000              add [eax],al
000019A3  0000              add [eax],al
000019A5  41                inc ecx
000019A6  0E                push cs
000019A7  088502420D05      or [ebp+0x50d4202],al
000019AD  5D                pop ebp
000019AE  C50C04            lds ecx,[esp+eax]
000019B1  0400              add al,0x0
000019B3  001C00            add [eax+eax],bl
000019B6  0000              add [eax],al
000019B8  C8020000          enter 0x2,0x0
000019BC  4E                dec esi
000019BD  F9                stc
000019BE  FF                db 0xFF
000019BF  FF0500000000      inc dword [0x0]
000019C5  41                inc ecx
000019C6  0E                push cs
000019C7  088502420D05      or [ebp+0x50d4202],al
000019CD  41                inc ecx
000019CE  C50C04            lds ecx,[esp+eax]
000019D1  0400              add al,0x0
000019D3  001C00            add [eax+eax],bl
000019D6  0000              add [eax],al
000019D8  E802000034        call 0x340019df
000019DD  F9                stc
000019DE  FF                db 0xFF
000019DF  FF2D00000000      jmp far [0x0]
000019E5  41                inc ecx
000019E6  0E                push cs
000019E7  088502420D05      or [ebp+0x50d4202],al
000019ED  69C50C040400      imul eax,ebp,dword 0x4040c
000019F3  001C00            add [eax+eax],bl
000019F6  0000              add [eax],al
000019F8  0803              or [ebx],al
000019FA  0000              add [eax],al
000019FC  41                inc ecx
000019FD  F9                stc
000019FE  FF                db 0xFF
000019FF  FF21              jmp near [ecx]
00001A01  0000              add [eax],al
00001A03  0000              add [eax],al
00001A05  41                inc ecx
00001A06  0E                push cs
00001A07  088502420D05      or [ebp+0x50d4202],al
00001A0D  5D                pop ebp
00001A0E  C50C04            lds ecx,[esp+eax]
00001A11  0400              add al,0x0
00001A13  001C00            add [eax+eax],bl
00001A16  0000              add [eax],al
00001A18  2803              sub [ebx],al
00001A1A  0000              add [eax],al
00001A1C  42                inc edx
00001A1D  F9                stc
00001A1E  FF                db 0xFF
00001A1F  FF0A              dec dword [edx]
00001A21  0000              add [eax],al
00001A23  0000              add [eax],al
00001A25  41                inc ecx
00001A26  0E                push cs
00001A27  088502420D05      or [ebp+0x50d4202],al
00001A2D  46                inc esi
00001A2E  C50C04            lds ecx,[esp+eax]
00001A31  0400              add al,0x0
00001A33  001C00            add [eax+eax],bl
00001A36  0000              add [eax],al
00001A38  48                dec eax
00001A39  0300              add eax,[eax]
00001A3B  002CF9            add [ecx+edi*8],ch
00001A3E  FF                db 0xFF
00001A3F  FF29              jmp far [ecx]
00001A41  0000              add [eax],al
00001A43  0000              add [eax],al
00001A45  41                inc ecx
00001A46  0E                push cs
00001A47  088502420D05      or [ebp+0x50d4202],al
00001A4D  65C50C04          lds ecx,[gs:esp+eax]
00001A51  0400              add al,0x0
00001A53  001C00            add [eax+eax],bl
00001A56  0000              add [eax],al
00001A58  6803000035        push dword 0x35000003
00001A5D  F9                stc
00001A5E  FF                db 0xFF
00001A5F  FF13              call near [ebx]
00001A61  0000              add [eax],al
00001A63  0000              add [eax],al
00001A65  41                inc ecx
00001A66  0E                push cs
00001A67  088502420D05      or [ebp+0x50d4202],al
00001A6D  4F                dec edi
00001A6E  C50C04            lds ecx,[esp+eax]
00001A71  0400              add al,0x0
00001A73  001C00            add [eax+eax],bl
00001A76  0000              add [eax],al
00001A78  8803              mov [ebx],al
00001A7A  0000              add [eax],al
00001A7C  28F9              sub cl,bh
00001A7E  FF                db 0xFF
00001A7F  FF2E              jmp far [esi]
00001A81  0000              add [eax],al
00001A83  0000              add [eax],al
00001A85  41                inc ecx
00001A86  0E                push cs
00001A87  088502420D05      or [ebp+0x50d4202],al
00001A8D  6AC5              push byte -0x3b
00001A8F  0C04              or al,0x4
00001A91  0400              add al,0x0
00001A93  001C00            add [eax+eax],bl
00001A96  0000              add [eax],al
00001A98  A803              test al,0x3
00001A9A  0000              add [eax],al
00001A9C  36F9              ss stc
00001A9E  FF                db 0xFF
00001A9F  FF08              dec dword [eax]
00001AA1  0000              add [eax],al
00001AA3  0000              add [eax],al
00001AA5  41                inc ecx
00001AA6  0E                push cs
00001AA7  088502420D05      or [ebp+0x50d4202],al
00001AAD  44                inc esp
00001AAE  C50C04            lds ecx,[esp+eax]
00001AB1  0400              add al,0x0
00001AB3  001C00            add [eax+eax],bl
00001AB6  0000              add [eax],al
00001AB8  C8030000          enter 0x3,0x0
00001ABC  1E                push ds
00001ABD  F9                stc
00001ABE  FF                db 0xFF
00001ABF  FF37              push dword [edi]
00001AC1  0000              add [eax],al
00001AC3  0000              add [eax],al
00001AC5  41                inc ecx
00001AC6  0E                push cs
00001AC7  088502420D05      or [ebp+0x50d4202],al
00001ACD  73C5              jnc 0x1a94
00001ACF  0C04              or al,0x4
00001AD1  0400              add al,0x0
00001AD3  0028              add [eax],ch
00001AD5  0000              add [eax],al
00001AD7  00AC030000E9F3    add [ebx+eax+0xf3e90000],ch
00001ADE  FF                db 0xFF
00001ADF  FF16              call near [esi]
00001AE1  0100              add [eax],eax
00001AE3  000482            add [edx+eax*4],al
00001AE6  9B                wait
00001AE7  0408              add al,0x8
00001AE9  41                inc ecx
00001AEA  0E                push cs
00001AEB  088502420D05      or [ebp+0x50d4202],al
00001AF1  44                inc esp
00001AF2  830303            add dword [ebx],byte +0x3
00001AF5  0D01C341C5        or eax,0xc541c301
00001AFA  0C04              or al,0x4
00001AFC  0400              add al,0x0
00001AFE  0000              add [eax],al
00001B00  1C00              sbb al,0x0
00001B02  0000              add [eax],al
00001B04  1404              adc al,0x4
00001B06  0000              add [eax],al
00001B08  D3                db 0xD3
00001B09  F4                hlt
00001B0A  FF                db 0xFF
00001B0B  FF1C00            call far [eax+eax]
00001B0E  0000              add [eax],al
00001B10  00410E            add [ecx+0xe],al
00001B13  088502420D05      or [ebp+0x50d4202],al
00001B19  58                pop eax
00001B1A  C50C04            lds ecx,[esp+eax]
00001B1D  0400              add al,0x0
00001B1F  0000              add [eax],al
00001B21  0000              add [eax],al
00001B23  00FF              add bh,bh
00001B25  FF01              inc dword [ecx]
00001B27  223A              and bh,[edx]
00001B29  05E4030064        add eax,0x640003e4
00001B2E  6F                outsd
00001B2F  860400            xchg al,[eax+eax]
00001B32  E201              loop 0x1b35
00001B34  D101              rol dword [ecx],1
00001B36  F60300            test byte [ebx],0x0
00001B39  CC                int3
00001B3A  0305860400D8      add eax,[0xd8000486]
00001B40  03059804009B      add eax,[0x9b000498]
00001B46  0405              add al,0x5
00001B48  0000              add [eax],al
00001B4A  FF                db 0xFF
00001B4B  FF01              inc dword [ecx]
00001B4D  0C1B              or al,0x1b
00001B4F  0500003405        add eax,0x5340000
00001B54  3B00              cmp eax,[eax]
00001B56  4D                dec ebp
00001B57  050000FFFF        add eax,0xffff0000
00001B5C  010C28            add [eax+ebp],ecx
00001B5F  053A003305        add eax,0x533003a
00001B64  0000              add [eax],al
00001B66  4C                dec esp
00001B67  050000FFFF        add eax,0xffff0000
00001B6C  0108              add [eax],ecx
00001B6E  26052D003F05      es add eax,0x53f002d
00001B74  0000              add [eax],al
00001B76  FF                db 0xFF
00001B77  FF01              inc dword [ecx]
00001B79  082D053F0051      or [0x51003f05],ch
00001B7F  050000FFFF        add eax,0xffff0000
00001B84  01142505000067    add [0x67000005],edx
00001B8B  05E20100B4        add eax,0xb40001e2
00001B90  0105F90100F4      add [0xf40001f9],eax
00001B96  011C00            add [eax+eax],ebx
00001B99  0000              add [eax],al
00001B9B  00FF              add bh,bh
00001B9D  FF                db 0xFF
00001B9E  FF                db 0xFF
00001B9F  FF                db 0xFF
00001BA0  DB8F04080000      fisttp word [edi+0x804]
00001BA6  0000              add [eax],al
00001BA8  FF                db 0xFF
00001BA9  FF                db 0xFF
00001BAA  FF                db 0xFF
00001BAB  FF00              inc dword [eax]
00001BAD  0000              add [eax],al
00001BAF  0000              add [eax],al
00001BB1  0000              add [eax],al
00001BB3  0001              add [ecx],al
00001BB5  0000              add [eax],al
00001BB7  0001              add [ecx],al
00001BB9  0000              add [eax],al
00001BBB  0001              add [ecx],al
00001BBD  0000              add [eax],al
00001BBF  009D02000001      add [ebp+0x1000002],bl
00001BC5  0000              add [eax],al
00001BC7  00A702000001      add [edi+0x1000002],ah
00001BCD  0000              add [eax],al
00001BCF  00C4              add ah,al
00001BD1  0200              add al,[eax]
00001BD3  000C00            add [eax+eax],cl
00001BD6  0000              add [eax],al
00001BD8  7C89              jl 0x1b63
00001BDA  0408              add al,0x8
00001BDC  0D000000B8        or eax,0xb8000000
00001BE1  94                xchg eax,esp
00001BE2  0408              add al,0x8
00001BE4  0400              add al,0x0
00001BE6  0000              add [eax],al
00001BE8  6881040805        push dword 0x5080481
00001BED  0000              add [eax],al
00001BEF  00848404080600    add [esp+eax*4+0x60804],al
00001BF6  0000              add [eax],al
00001BF8  44                inc esp
00001BF9  82                db 0x82
00001BFA  0408              add al,0x8
00001BFC  0A00              or al,[eax]
00001BFE  0000              add [eax],al
00001C00  3803              cmp [ebx],al
00001C02  0000              add [eax],al
00001C04  0B00              or eax,[eax]
00001C06  0000              add [eax],al
00001C08  1000              adc [eax],al
00001C0A  0000              add [eax],al
00001C0C  1500000000        adc eax,0x0
00001C11  0000              add [eax],al
00001C13  0003              add [ebx],al
00001C15  0000              add [eax],al
00001C17  0098AC040802      add [eax+0x20804ac],bl
00001C1D  0000              add [eax],al
00001C1F  00E0              add al,ah
00001C21  0000              add [eax],al
00001C23  001400            add [eax+eax],dl
00001C26  0000              add [eax],al
00001C28  1100              adc [eax],eax
00001C2A  0000              add [eax],al
00001C2C  17                pop ss
00001C2D  0000              add [eax],al
00001C2F  009C8804081100    add [eax+ecx*4+0x110804],bl
00001C36  0000              add [eax],al
00001C38  848804081200      test [eax+0x120804],cl
00001C3E  0000              add [eax],al
00001C40  1800              sbb [eax],al
00001C42  0000              add [eax],al
00001C44  1300              adc eax,[eax]
00001C46  0000              add [eax],al
00001C48  0800              or [eax],al
00001C4A  0000              add [eax],al
00001C4C  FE                db 0xFE
00001C4D  FF                db 0xFF
00001C4E  FF6F04            jmp far [edi+0x4]
00001C51  880408            mov [eax+ecx],al
00001C54  FF                db 0xFF
00001C55  FF                db 0xFF
00001C56  FF6F03            jmp far [edi+0x3]
00001C59  0000              add [eax],al
00001C5B  00F0              add al,dh
00001C5D  FF                db 0xFF
00001C5E  FF6FBC            jmp far [edi-0x44]
00001C61  870408            xchg eax,[eax+ecx]
00001C64  0000              add [eax],al
00001C66  0000              add [eax],al
00001C68  0000              add [eax],al
00001C6A  0000              add [eax],al
00001C6C  0000              add [eax],al
00001C6E  0000              add [eax],al
00001C70  0000              add [eax],al
00001C72  0000              add [eax],al
00001C74  0000              add [eax],al
00001C76  0000              add [eax],al
00001C78  0000              add [eax],al
00001C7A  0000              add [eax],al
00001C7C  0000              add [eax],al
00001C7E  0000              add [eax],al
00001C80  0000              add [eax],al
00001C82  0000              add [eax],al
00001C84  0000              add [eax],al
00001C86  0000              add [eax],al
00001C88  0000              add [eax],al
00001C8A  0000              add [eax],al
00001C8C  0000              add [eax],al
00001C8E  0000              add [eax],al
00001C90  0000              add [eax],al
00001C92  0000              add [eax],al
00001C94  0000              add [eax],al
00001C96  0000              add [eax],al
00001C98  B4AB              mov ah,0xab
00001C9A  0408              add al,0x8
00001C9C  0000              add [eax],al
00001C9E  0000              add [eax],al
00001CA0  0000              add [eax],al
00001CA2  0000              add [eax],al
00001CA4  C6                db 0xC6
00001CA5  890408            mov [eax+ecx],eax
00001CA8  D6                salc
00001CA9  890408            mov [eax+ecx],eax
00001CAC  E689              out 0x89,al
00001CAE  0408              add al,0x8
00001CB0  F6                db 0xF6
00001CB1  890408            mov [eax+ecx],eax
00001CB4  06                push es
00001CB5  8A0408            mov al,[eax+ecx]
00001CB8  16                push ss
00001CB9  8A0408            mov al,[eax+ecx]
00001CBC  268A0408          mov al,[es:eax+ecx]
00001CC0  368A0408          mov al,[ss:eax+ecx]
00001CC4  46                inc esi
00001CC5  8A0408            mov al,[eax+ecx]
00001CC8  56                push esi
00001CC9  8A0408            mov al,[eax+ecx]
00001CCC  668A0408          o16 mov al,[eax+ecx]
00001CD0  768A              jna 0x1c5c
00001CD2  0408              add al,0x8
00001CD4  868A0408968A      xchg cl,[edx+0x8a960804]
00001CDA  0408              add al,0x8
00001CDC  A6                cmpsb
00001CDD  8A0408            mov al,[eax+ecx]
00001CE0  B68A              mov dh,0x8a
00001CE2  0408              add al,0x8
00001CE4  C6                db 0xC6
00001CE5  8A0408            mov al,[eax+ecx]
00001CE8  D6                salc
00001CE9  8A0408            mov al,[eax+ecx]
00001CEC  E68A              out 0x8a,al
00001CEE  0408              add al,0x8
00001CF0  F6                db 0xF6
00001CF1  8A0408            mov al,[eax+ecx]
00001CF4  06                push es
00001CF5  8B0408            mov eax,[eax+ecx]
00001CF8  16                push ss
00001CF9  8B0408            mov eax,[eax+ecx]
00001CFC  268B0408          mov eax,[es:eax+ecx]
00001D00  368B0408          mov eax,[ss:eax+ecx]
00001D04  46                inc esi
00001D05  8B0408            mov eax,[eax+ecx]
00001D08  56                push esi
00001D09  8B0408            mov eax,[eax+ecx]
00001D0C  668B0408          mov ax,[eax+ecx]
00001D10  768B              jna 0x1c9d
00001D12  0408              add al,0x8
00001D14  0000              add [eax],al
00001D16  0000              add [eax],al
00001D18  0000              add [eax],al
00001D1A  0000              add [eax],al
00001D1C  47                inc edi
00001D1D  43                inc ebx
00001D1E  43                inc ebx
00001D1F  3A20              cmp ah,[eax]
00001D21  285562            sub [ebp+0x62],dl
00001D24  756E              jnz 0x1d94
00001D26  7475              jz 0x1d9d
00001D28  20342E            and [esi+ebp],dh
00001D2B  342E              xor al,0x2e
00001D2D  332D34756275      xor ebp,[0x75627534]
00001D33  6E                outsb
00001D34  7475              jz 0x1dab
00001D36  352920342E        xor eax,0x2e342029
00001D3B  342E              xor al,0x2e
00001D3D  3300              xor eax,[eax]
00001D3F  47                inc edi
00001D40  43                inc ebx
00001D41  43                inc ebx
00001D42  3A20              cmp ah,[eax]
00001D44  28474E            sub [edi+0x4e],al
00001D47  55                push ebp
00001D48  2920              sub [eax],esp
00001D4A  342E              xor al,0x2e
00001D4C  382E              cmp [esi],ch
00001D4E  3100              xor [eax],eax
00001D50  1C00              sbb al,0x0
00001D52  0000              add [eax],al
00001D54  0200              add al,[eax]
00001D56  0000              add [eax],al
00001D58  0000              add [eax],al
00001D5A  0400              add al,0x0
00001D5C  0000              add [eax],al
00001D5E  0000              add [eax],al
00001D60  808B0408220000    or byte [ebx+0x220804],0x0
00001D67  0000              add [eax],al
00001D69  0000              add [eax],al
00001D6B  0000              add [eax],al
00001D6D  0000              add [eax],al
00001D6F  001C00            add [eax+eax],bl
00001D72  0000              add [eax],al
00001D74  0200              add al,[eax]
00001D76  0E                push cs
00001D77  0100              add [eax],eax
00001D79  000400            add [eax+eax],al
00001D7C  0000              add [eax],al
00001D7E  0000              add [eax],al
00001D80  209404086A0000    and [esp+eax+0x6a08],dl
00001D87  0000              add [eax],al
00001D89  0000              add [eax],al
00001D8B  0000              add [eax],al
00001D8D  0000              add [eax],al
00001D8F  0021              add [ecx],ah
00001D91  0000              add [eax],al
00001D93  0002              add [edx],al
00001D95  00810000008D      add [ecx+0x8d000000],al
00001D9B  0000              add [eax],al
00001D9D  007500            add [ebp+0x0],dh
00001DA0  0000              add [eax],al
00001DA2  5F                pop edi
00001DA3  49                dec ecx
00001DA4  4F                dec edi
00001DA5  5F                pop edi
00001DA6  7374              jnc 0x1e1c
00001DA8  64696E5F75736564  imul ebp,[fs:esi+0x5f],dword 0x64657375
00001DB0  0000              add [eax],al
00001DB2  0000              add [eax],al
00001DB4  0036              add [esi],dh
00001DB6  0000              add [eax],al
00001DB8  0002              add [edx],al
00001DBA  000E              add [esi],cl
00001DBC  0100              add [eax],eax
00001DBE  0013              add [ebx],dl
00001DC0  0100              add [eax],eax
00001DC2  003E              add [esi],bh
00001DC4  0000              add [eax],al
00001DC6  005F5F            add [edi+0x5f],bl
00001DC9  6C                insb
00001DCA  6962635F637375    imul esp,[edx+0x63],dword 0x7573635f
00001DD1  5F                pop edi
00001DD2  66696E690053      imul bp,[esi+0x69],word 0x5300
00001DD8  0000              add [eax],al
00001DDA  005F5F            add [edi+0x5f],bl
00001DDD  6C                insb
00001DDE  6962635F637375    imul esp,[edx+0x63],dword 0x7573635f
00001DE5  5F                pop edi
00001DE6  696E6974000000    imul ebp,[esi+0x69],dword 0x74
00001DED  0000              add [eax],al
00001DEF  7D00              jnl 0x1df1
00001DF1  0000              add [eax],al
00001DF3  0200              add al,[eax]
00001DF5  0000              add [eax],al
00001DF7  0000              add [eax],al
00001DF9  0401              add al,0x1
00001DFB  0000              add [eax],al
00001DFD  0000              add [eax],al
00001DFF  808B0408A28B04    or byte [ebx+0x8ba20804],0x4
00001E06  082E              or [esi],ch
00001E08  2E2F              cs das
00001E0A  7379              jnc 0x1e85
00001E0C  7364              jnc 0x1e72
00001E0E  657073            gs jo 0x1e84
00001E11  2F                das
00001E12  693338362F65      imul esi,[ebx],dword 0x652f3638
00001E18  6C                insb
00001E19  662F              o16 das
00001E1B  7374              jnc 0x1e91
00001E1D  61                popa
00001E1E  7274              jc 0x1e94
00001E20  2E53              cs push ebx
00001E22  002F              add [edi],ch
00001E24  686F6D652F        push dword 0x2f656d6f
00001E29  7069              jo 0x1e94
00001E2B  657272            gs jc 0x1ea0
00001E2E  652F              gs das
00001E30  42                inc edx
00001E31  7572              jnz 0x1ea5
00001E33  6561              gs popa
00001E35  752F              jnz 0x1e66
00001E37  6865616465        push dword 0x65646165
00001E3C  7273              jc 0x1eb1
00001E3E  2D676C6962        sub eax,0x62696c67
00001E43  632D666F722D      arpl [0x2d726f66],bp
00001E49  6C                insb
00001E4A  696E75782F676C    imul ebp,[esi+0x75],dword 0x6c672f78
00001E51  6962632D322E31    imul esp,[edx+0x63],dword 0x312e322d
00001E58  322E              xor ch,[esi]
00001E5A  322F              xor ch,[edi]
00001E5C  637375            arpl [ebx+0x75],si
00001E5F  00474E            add [edi+0x4e],al
00001E62  55                push ebp
00001E63  204153            and [ecx+0x53],al
00001E66  2032              and [edx],dh
00001E68  2E3230            xor dh,[cs:eax]
00001E6B  2E3100            xor [cs:eax],eax
00001E6E  018089000000      add [eax+0x89],eax
00001E74  0200              add al,[eax]
00001E76  1400              adc al,0x0
00001E78  0000              add [eax],al
00001E7A  0401              add al,0x1
00001E7C  8E00              mov es,[eax]
00001E7E  0000              add [eax],al
00001E80  01CD              add ebp,ecx
00001E82  0000              add [eax],al
00001E84  004300            add [ebx+0x0],al
00001E87  0000              add [eax],al
00001E89  A4                movsb
00001E8A  8B0408            mov eax,[eax+ecx]
00001E8D  A4                movsb
00001E8E  8B0408            mov eax,[eax+ecx]
00001E91  5B                pop ebx
00001E92  0000              add [eax],al
00001E94  0002              add [edx],al
00001E96  0108              add [eax],ecx
00001E98  800000            add byte [eax],0x0
00001E9B  0002              add [edx],al
00001E9D  0207              add al,[edi]
00001E9F  0000              add [eax],al
00001EA1  0000              add [eax],al
00001EA3  020407            add al,[edi+eax]
00001EA6  360000            add [ss:eax],al
00001EA9  0002              add [edx],al
00001EAB  0407              add al,0x7
00001EAD  3100              xor [eax],eax
00001EAF  0000              add [eax],al
00001EB1  0201              add al,[ecx]
00001EB3  06                push es
00001EB4  82                db 0x82
00001EB5  0000              add [eax],al
00001EB7  0002              add [edx],al
00001EB9  020513000000      add al,[0x13]
00001EBF  030405696E7400    add eax,[eax+0x746e69]
00001EC6  0208              add cl,[eax]
00001EC8  059A000000        add eax,0x9a
00001ECD  0208              add cl,[eax]
00001ECF  07                pop es
00001ED0  2C00              sub al,0x0
00001ED2  0000              add [eax],al
00001ED4  0204059F000000    add al,[eax+0x9f]
00001EDB  0404              add al,0x4
00001EDD  07                pop es
00001EDE  0201              add al,[ecx]
00001EE0  06                push es
00001EE1  8900              mov [eax],eax
00001EE3  0000              add [eax],al
00001EE5  051D000000        add eax,0x1d
00001EEA  0119              add [ecx],ebx
00001EEC  8700              xchg eax,[eax]
00001EEE  0000              add [eax],al
00001EF0  010503D89404      add [0x494d803],eax
00001EF6  0806              or [esi],al
00001EF8  4F                dec edi
00001EF9  0000              add [eax],al
00001EFB  0000              add [eax],al
00001EFD  0F0100            sgdt [eax]
00001F00  0002              add [edx],al
00001F02  005F00            add [edi+0x0],bl
00001F05  0000              add [eax],al
00001F07  0401              add al,0x1
00001F09  8E00              mov es,[eax]
00001F0B  0000              add [eax],al
00001F0D  01C9              add ecx,ecx
00001F0F  0000              add [eax],al
00001F11  004300            add [ebx+0x0],al
00001F14  0000              add [eax],al
00001F16  209404088A9404    and [esp+eax+0x4948a08],dl
00001F1D  088200000002      or [edx+0x2000000],al
00001F23  0405              add al,0x5
00001F25  696E740003AD00    imul ebp,[esi+0x74],dword 0xad0300
00001F2C  0000              add [eax],al
00001F2E  02D3              add dl,bl
00001F30  37                aaa
00001F31  0000              add [eax],al
00001F33  000404            add [esp+eax],al
00001F36  07                pop es
00001F37  360000            add [ss:eax],al
00001F3A  000501FD0000      add [0xfd01],al
00001F40  0001              add [ecx],al
00001F42  830120            add dword [ecx],byte +0x20
00001F45  94                xchg eax,esp
00001F46  0408              add al,0x8
00001F48  2594040800        and eax,0x80494
00001F4D  0000              add [eax],al
00001F4F  0006              add [esi],al
00001F51  01B900000001      add [ecx+0x1000000],edi
00001F57  690130940408      imul eax,[ecx],dword 0x8049430
00001F5D  8A9404082C0000    mov dl,[esp+eax+0x2c08]
00001F64  00B900000007      add [ecx+0x7000000],bh
00001F6A  B400              mov ah,0x0
00001F6C  0000              add [eax],al
00001F6E  016925            add [ecx+0x25],ebp
00001F71  0000              add [eax],al
00001F73  0002              add [edx],al
00001F75  91                xchg eax,ecx
00001F76  0007              add [edi],al
00001F78  0D01000001        or eax,0x1000001
00001F7D  69B9000000029104  imul edi,[ecx+0x2000000],dword 0xa8070491
         -07A8
00001F87  0000              add [eax],al
00001F89  0001              add [ecx],al
00001F8B  69B9000000029108  imul edi,[ecx+0x2000000],dword 0xe7080891
         -08E7
00001F95  0000              add [eax],al
00001F97  0001              add [ecx],al
00001F99  7ACC              jpe 0x1f67
00001F9B  0000              add [eax],al
00001F9D  0009              add [ecx],cl
00001F9F  49                dec ecx
00001FA0  94                xchg eax,esp
00001FA1  0408              add al,0x8
00001FA3  82                db 0x82
00001FA4  94                xchg eax,esp
00001FA5  0408              add al,0x8
00001FA7  0A6900            or ch,[ecx+0x0]
00001FAA  017B2C            add [ebx+0x2c],edi
00001FAD  0000              add [eax],al
00001FAF  005800            add [eax+0x0],bl
00001FB2  0000              add [eax],al
00001FB4  0000              add [eax],al
00001FB6  0B04BF            or eax,[edi+edi*4]
00001FB9  0000              add [eax],al
00001FBB  000B              add [ebx],cl
00001FBD  04C5              add al,0xc5
00001FBF  0000              add [eax],al
00001FC1  000401            add [ecx+eax],al
00001FC4  06                push es
00001FC5  8900              mov [eax],eax
00001FC7  0000              add [eax],al
00001FC9  0C2C              or al,0x2c
00001FCB  0000              add [eax],al
00001FCD  000DF2000000      add [0xf2],cl
00001FD3  DC00              fadd qword [eax]
00001FD5  0000              add [eax],al
00001FD7  0E                push cs
00001FD8  000F              add [edi],cl
00001FDA  01F2              add edx,esi
00001FDC  0000              add [eax],al
00001FDE  0010              add [eax],dl
00001FE0  2500000010        and eax,0x10000000
00001FE5  B900000010        mov ecx,0x10000000
00001FEA  B900000000        mov ecx,0x0
00001FEF  0B04DC            or eax,[esp+ebx*8]
00001FF2  0000              add [eax],al
00001FF4  0011              add [ecx],dl
00001FF6  D400              aam 0x0
00001FF8  0000              add [eax],al
00001FFA  013B              add [ebx],edi
00001FFC  D100              rol dword [eax],1
00001FFE  0000              add [eax],al
00002000  0101              add [ecx],eax
00002002  11EC              adc esp,ebp
00002004  0000              add [eax],al
00002006  0001              add [ecx],al
00002008  3DD1000000        cmp eax,0xd1
0000200D  0101              add [ecx],eax
0000200F  0001              add [ecx],al
00002011  1100              adc [eax],eax
00002013  1006              adc [esi],al
00002015  1101              adc [ecx],eax
00002017  1201              adc al,[ecx]
00002019  0308              add ecx,[eax]
0000201B  1B08              sbb ecx,[eax]
0000201D  2508130500        and eax,0x51308
00002022  0000              add [eax],al
00002024  0111              add [ecx],edx
00002026  01250E130B03      add [0x30b130e],esp
0000202C  0E                push cs
0000202D  1B0E              sbb ecx,[esi]
0000202F  1101              adc [ecx],eax
00002031  1201              adc al,[ecx]
00002033  1006              adc [esi],al
00002035  0000              add [eax],al
00002037  022400            add ah,[eax+eax]
0000203A  0B0B              or ecx,[ebx]
0000203C  3E0B03            or eax,[ds:ebx]
0000203F  0E                push cs
00002040  0000              add [eax],al
00002042  032400            add esp,[eax+eax]
00002045  0B0B              or ecx,[ebx]
00002047  3E0B03            or eax,[ds:ebx]
0000204A  0800              or [eax],al
0000204C  000424            add [esp],al
0000204F  000B              add [ebx],cl
00002051  0B3E              or edi,[esi]
00002053  0B00              or eax,[eax]
00002055  00053400030E      add [0xe030034],al
0000205B  3A0B              cmp cl,[ebx]
0000205D  3B0B              cmp ecx,[ebx]
0000205F  49                dec ecx
00002060  133F              adc edi,[edi]
00002062  0C02              or al,0x2
00002064  0A00              or al,[eax]
00002066  0006              add [esi],al
00002068  26004913          add [es:ecx+0x13],cl
0000206C  0000              add [eax],al
0000206E  0001              add [ecx],al
00002070  1101              adc [ecx],eax
00002072  250E130B03        and eax,0x30b130e
00002077  0E                push cs
00002078  1B0E              sbb ecx,[esi]
0000207A  1101              adc [ecx],eax
0000207C  1201              adc al,[ecx]
0000207E  1006              adc [esi],al
00002080  0000              add [eax],al
00002082  022400            add ah,[eax+eax]
00002085  0B0B              or ecx,[ebx]
00002087  3E0B03            or eax,[ds:ebx]
0000208A  0800              or [eax],al
0000208C  0003              add [ebx],al
0000208E  16                push ss
0000208F  0003              add [ebx],al
00002091  0E                push cs
00002092  3A0B              cmp cl,[ebx]
00002094  3B0B              cmp ecx,[ebx]
00002096  49                dec ecx
00002097  1300              adc eax,[eax]
00002099  000424            add [esp],al
0000209C  000B              add [ebx],cl
0000209E  0B3E              or edi,[esi]
000020A0  0B03              or eax,[ebx]
000020A2  0E                push cs
000020A3  0000              add [eax],al
000020A5  052E003F0C        add eax,0xc3f002e
000020AA  030E              add ecx,[esi]
000020AC  3A0B              cmp cl,[ebx]
000020AE  3B0B              cmp ecx,[ebx]
000020B0  27                daa
000020B1  0C11              or al,0x11
000020B3  0112              add [edx],edx
000020B5  014006            add [eax+0x6],eax
000020B8  0000              add [eax],al
000020BA  06                push es
000020BB  2E013F            add [cs:edi],edi
000020BE  0C03              or al,0x3
000020C0  0E                push cs
000020C1  3A0B              cmp cl,[ebx]
000020C3  3B0B              cmp ecx,[ebx]
000020C5  27                daa
000020C6  0C11              or al,0x11
000020C8  0112              add [edx],edx
000020CA  014006            add [eax+0x6],eax
000020CD  0113              add [ebx],edx
000020CF  0000              add [eax],al
000020D1  07                pop es
000020D2  0500030E3A        add eax,0x3a0e0300
000020D7  0B3B              or edi,[ebx]
000020D9  0B4913            or ecx,[ecx+0x13]
000020DC  020A              add cl,[edx]
000020DE  0000              add [eax],al
000020E0  083400            or [eax+eax],dh
000020E3  030E              add ecx,[esi]
000020E5  3A0B              cmp cl,[ebx]
000020E7  3B0B              cmp ecx,[ebx]
000020E9  49                dec ecx
000020EA  1300              adc eax,[eax]
000020EC  0009              add [ecx],cl
000020EE  0B01              or eax,[ecx]
000020F0  1101              adc [ecx],eax
000020F2  1201              adc al,[ecx]
000020F4  0000              add [eax],al
000020F6  0A3400            or dh,[eax+eax]
000020F9  0308              add ecx,[eax]
000020FB  3A0B              cmp cl,[ebx]
000020FD  3B0B              cmp ecx,[ebx]
000020FF  49                dec ecx
00002100  1302              adc eax,[edx]
00002102  06                push es
00002103  0000              add [eax],al
00002105  0B0F              or ecx,[edi]
00002107  000B              add [ebx],cl
00002109  0B4913            or ecx,[ecx+0x13]
0000210C  0000              add [eax],al
0000210E  0C26              or al,0x26
00002110  004913            add [ecx+0x13],cl
00002113  0000              add [eax],al
00002115  0D01014913        or eax,0x13490101
0000211A  0113              add [ebx],edx
0000211C  0000              add [eax],al
0000211E  0E                push cs
0000211F  2100              and [eax],eax
00002121  0000              add [eax],al
00002123  0F1501            unpckhps xmm0,[ecx]
00002126  27                daa
00002127  0C01              or al,0x1
00002129  1300              adc eax,[eax]
0000212B  0010              add [eax],dl
0000212D  0500491300        add eax,0x134900
00002132  0011              add [ecx],dl
00002134  3400              xor al,0x0
00002136  030E              add ecx,[esi]
00002138  3A0B              cmp cl,[ebx]
0000213A  3B0B              cmp ecx,[ebx]
0000213C  49                dec ecx
0000213D  133F              adc edi,[edi]
0000213F  0C3C              or al,0x3c
00002141  0C00              or al,0x0
00002143  0000              add [eax],al
00002145  57                push edi
00002146  0000              add [eax],al
00002148  0002              add [edx],al
0000214A  0032              add [edx],dh
0000214C  0000              add [eax],al
0000214E  0001              add [ecx],al
00002150  01FB              add ebx,edi
00002152  0E                push cs
00002153  0D00010101        or eax,0x1010100
00002158  0100              add [eax],eax
0000215A  0000              add [eax],al
0000215C  0100              add [eax],eax
0000215E  0001              add [ecx],al
00002160  2E2E2F            cs das
00002163  7379              jnc 0x21de
00002165  7364              jnc 0x21cb
00002167  657073            gs jo 0x21dd
0000216A  2F                das
0000216B  693338362F65      imul esi,[ebx],dword 0x652f3638
00002171  6C                insb
00002172  660000            o16 add [eax],al
00002175  7374              jnc 0x21eb
00002177  61                popa
00002178  7274              jc 0x21ee
0000217A  2E53              cs push ebx
0000217C  0001              add [ecx],al
0000217E  0000              add [eax],al
00002180  0000              add [eax],al
00002182  0502808B04        add eax,0x48b8002
00002187  0803              or [ebx],al
00002189  C00001            rol byte [eax],0x1
0000218C  3321              xor esp,[ecx]
0000218E  343D              xor al,0x3d
00002190  2522031820        and eax,0x20180322
00002195  59                pop ecx
00002196  5A                pop edx
00002197  2122              and [edx],esp
00002199  5C                pop esp
0000219A  5B                pop ebx
0000219B  0201              add al,[ecx]
0000219D  0001              add [ecx],al
0000219F  0123              add [ebx],esp
000021A1  0000              add [eax],al
000021A3  0002              add [edx],al
000021A5  001D00000001      add [0x1000000],bl
000021AB  01FB              add ebx,edi
000021AD  0E                push cs
000021AE  0D00010101        or eax,0x1010100
000021B3  0100              add [eax],eax
000021B5  0000              add [eax],al
000021B7  0100              add [eax],eax
000021B9  0001              add [ecx],al
000021BB  00696E            add [ecx+0x6e],ch
000021BE  69742E6300000000  imul esi,[esi+ebp+0x63],dword 0x0
000021C6  007B00            add [ebx+0x0],bh
000021C9  0000              add [eax],al
000021CB  0200              add al,[eax]
000021CD  57                push edi
000021CE  0000              add [eax],al
000021D0  0001              add [ecx],al
000021D2  01FB              add ebx,edi
000021D4  0E                push cs
000021D5  0D00010101        or eax,0x1010100
000021DA  0100              add [eax],eax
000021DC  0000              add [eax],al
000021DE  0100              add [eax],eax
000021E0  0001              add [ecx],al
000021E2  2F                das
000021E3  7573              jnz 0x2258
000021E5  722F              jc 0x2216
000021E7  6C                insb
000021E8  69622F6763632F    imul esp,[edx+0x2f],dword 0x2f636367
000021EF  693438362D6C69    imul esi,[eax+edi],dword 0x696c2d36
000021F6  6E                outsb
000021F7  7578              jnz 0x2271
000021F9  2D676E752F        sub eax,0x2f756e67
000021FE  342E              xor al,0x2e
00002200  342E              xor al,0x2e
00002202  332F              xor ebp,[edi]
00002204  696E636C756465    imul ebp,[esi+0x63],dword 0x6564756c
0000220B  0000              add [eax],al
0000220D  656C              gs insb
0000220F  662D696E          sub ax,0x6e69
00002213  69742E6300000000  imul esi,[esi+ebp+0x63],dword 0x0
0000221B  7374              jnc 0x2291
0000221D  646465662E680001  cs push word 0x100
00002225  0000              add [eax],al
00002227  0000              add [eax],al
00002229  0502209404        add eax,0x4942002
0000222E  0803              or [ebx],al
00002230  830101            add dword [ecx],byte +0x1
00002233  44                inc esp
00002234  035EC8            add ebx,[esi-0x38]
00002237  030E              add ecx,[esi]
00002239  083C5B            or [ebx+ebx*2],bh
0000223C  086708            or [edi+0x8],ah
0000223F  9D                popf
00002240  7602              jna 0x2244
00002242  0800              or [eax],al
00002244  0101              add [ecx],eax
00002246  0000              add [eax],al
00002248  1000              adc [eax],al
0000224A  0000              add [eax],al
0000224C  FF                db 0xFF
0000224D  FF                db 0xFF
0000224E  FF                db 0xFF
0000224F  FF01              inc dword [ecx]
00002251  0001              add [ecx],al
00002253  7C08              jl 0x225d
00002255  0C04              or al,0x4
00002257  0488              add al,0x88
00002259  0100              add [eax],eax
0000225B  001400            add [eax+eax],dl
0000225E  0000              add [eax],al
00002260  0000              add [eax],al
00002262  0000              add [eax],al
00002264  20940408050000    and [esp+eax+0x508],dl
0000226B  00410E            add [ecx+0xe],al
0000226E  084285            or [edx-0x7b],al
00002271  020D051C0000      add cl,[0x1c05]
00002277  0000              add [eax],al
00002279  0000              add [eax],al
0000227B  0030              add [eax],dh
0000227D  94                xchg eax,esp
0000227E  0408              add al,0x8
00002280  5A                pop edx
00002281  0000              add [eax],al
00002283  00410E            add [ecx+0xe],al
00002286  084285            or [edx-0x7b],al
00002289  020D054E8305      add cl,[0x5834e05]
0000228F  860487            xchg al,[edi+eax*4]
00002292  0300              add eax,[eax]
00002294  7368              jnc 0x22fe
00002296  6F                outsd
00002297  7274              jc 0x230d
00002299  20756E            and [ebp+0x6e],dh
0000229C  7369              jnc 0x2307
0000229E  676E              a16 outsb
000022A0  656420696E        and [fs:ecx+0x6e],ch
000022A5  7400              jz 0x22a7
000022A7  7368              jnc 0x2311
000022A9  6F                outsd
000022AA  7274              jc 0x2320
000022AC  20696E            and [ecx+0x6e],ch
000022AF  7400              jz 0x22b1
000022B1  5F                pop edi
000022B2  49                dec ecx
000022B3  4F                dec edi
000022B4  5F                pop edi
000022B5  7374              jnc 0x232b
000022B7  64696E5F75736564  imul ebp,[fs:esi+0x5f],dword 0x64657375
000022BF  006C6F6E          add [edi+ebp*2+0x6e],ch
000022C3  67206C6F          and [si+0x6f],ch
000022C7  6E                outsb
000022C8  6720756E          and [di+0x6e],dh
000022CC  7369              jnc 0x2337
000022CE  676E              a16 outsb
000022D0  656420696E        and [fs:ecx+0x6e],ch
000022D5  7400              jz 0x22d7
000022D7  2F                das
000022D8  686F6D652F        push dword 0x2f656d6f
000022DD  7069              jo 0x2348
000022DF  657272            gs jc 0x2354
000022E2  652F              gs das
000022E4  42                inc edx
000022E5  7572              jnz 0x2359
000022E7  6561              gs popa
000022E9  752F              jnz 0x231a
000022EB  6865616465        push dword 0x65646165
000022F0  7273              jc 0x2365
000022F2  2D676C6962        sub eax,0x62696c67
000022F7  632D666F722D      arpl [0x2d726f66],bp
000022FD  6C                insb
000022FE  696E75782F676C    imul ebp,[esi+0x75],dword 0x6c672f78
00002305  6962632D322E31    imul esp,[edx+0x63],dword 0x312e322d
0000230C  322E              xor ch,[esi]
0000230E  322F              xor ch,[edi]
00002310  637375            arpl [ebx+0x75],si
00002313  00756E            add [ebp+0x6e],dh
00002316  7369              jnc 0x2381
00002318  676E              a16 outsb
0000231A  6564206368        and [fs:ebx+0x68],ah
0000231F  61                popa
00002320  7200              jc 0x2322
00002322  47                inc edi
00002323  4E                dec esi
00002324  55                push ebp
00002325  204320            and [ebx+0x20],al
00002328  342E              xor al,0x2e
0000232A  342E              xor al,0x2e
0000232C  3300              xor eax,[eax]
0000232E  6C                insb
0000232F  6F                outsd
00002330  6E                outsb
00002331  67206C6F          and [si+0x6f],ch
00002335  6E                outsb
00002336  6720696E          and [bx+di+0x6e],ch
0000233A  7400              jz 0x233c
0000233C  656E              gs outsb
0000233E  7670              jna 0x23b0
00002340  007369            add [ebx+0x69],dh
00002343  7A65              jpe 0x23aa
00002345  5F                pop edi
00002346  7400              jz 0x2348
00002348  61                popa
00002349  7267              jc 0x23b2
0000234B  6300              arpl [eax],ax
0000234D  5F                pop edi
0000234E  5F                pop edi
0000234F  6C                insb
00002350  6962635F637375    imul esp,[edx+0x63],dword 0x7573635f
00002357  5F                pop edi
00002358  696E697400656C    imul ebp,[esi+0x69],dword 0x6c650074
0000235F  662D696E          sub ax,0x6e69
00002363  69742E63005F5F69  imul esi,[esi+ebp+0x63],dword 0x695f5f00
0000236B  6E                outsb
0000236C  69745F6172726179  imul esi,[edi+ebx*2+0x61],dword 0x79617272
00002374  5F                pop edi
00002375  7374              jnc 0x23eb
00002377  61                popa
00002378  7274              jc 0x23ee
0000237A  007369            add [ebx+0x69],dh
0000237D  7A65              jpe 0x23e4
0000237F  005F5F            add [edi+0x5f],bl
00002382  696E69745F6172    imul ebp,[esi+0x69],dword 0x72615f74
00002389  7261              jc 0x23ec
0000238B  795F              jns 0x23ec
0000238D  656E              gs outsb
0000238F  64005F5F          add [fs:edi+0x5f],bl
00002393  6C                insb
00002394  6962635F637375    imul esp,[edx+0x63],dword 0x7573635f
0000239B  5F                pop edi
0000239C  66696E690061      imul bp,[esi+0x69],word 0x6100
000023A2  7267              jc 0x240b
000023A4  7600              jna 0x23a6
000023A6  0000              add [eax],al
000023A8  0000              add [eax],al
000023AA  0100              add [eax],eax
000023AC  0000              add [eax],al
000023AE  0200              add al,[eax]
000023B0  7404              jz 0x23b6
000023B2  0100              add [eax],eax
000023B4  0000              add [eax],al
000023B6  0300              add eax,[eax]
000023B8  0000              add [eax],al
000023BA  0200              add al,[eax]
000023BC  7408              jz 0x23c6
000023BE  0300              add eax,[eax]
000023C0  0000              add [eax],al
000023C2  0500000002        add eax,0x2000000
000023C7  007508            add [ebp+0x8],dh
000023CA  0000              add [eax],al
000023CC  0000              add [eax],al
000023CE  0000              add [eax],al
000023D0  0000              add [eax],al
000023D2  1000              adc [eax],al
000023D4  0000              add [eax],al
000023D6  1100              adc [eax],eax
000023D8  0000              add [eax],al
000023DA  0200              add al,[eax]
000023DC  7404              jz 0x23e2
000023DE  1100              adc [eax],eax
000023E0  0000              add [eax],al
000023E2  1300              adc eax,[eax]
000023E4  0000              add [eax],al
000023E6  0200              add al,[eax]
000023E8  7408              jz 0x23f2
000023EA  1300              adc eax,[eax]
000023EC  0000              add [eax],al
000023EE  6A00              push byte +0x0
000023F0  0000              add [eax],al
000023F2  0200              add al,[eax]
000023F4  7508              jnz 0x23fe
000023F6  0000              add [eax],al
000023F8  0000              add [eax],al
000023FA  0000              add [eax],al
000023FC  0000              add [eax],al
000023FE  40                inc eax
000023FF  0000              add [eax],al
00002401  006700            add [edi+0x0],ah
00002404  0000              add [eax],al
00002406  0100              add [eax],eax
00002408  56                push esi
00002409  0000              add [eax],al
0000240B  0000              add [eax],al
0000240D  0000              add [eax],al
0000240F  0000              add [eax],al
00002411  002E              add [esi],ch
00002413  7379              jnc 0x248e
00002415  6D                insd
00002416  7461              jz 0x2479
00002418  6200              bound eax,[eax]
0000241A  2E7374            cs jnc 0x2491
0000241D  7274              jc 0x2493
0000241F  61                popa
00002420  6200              bound eax,[eax]
00002422  2E7368            cs jnc 0x248d
00002425  7374              jnc 0x249b
00002427  7274              jc 0x249d
00002429  61                popa
0000242A  6200              bound eax,[eax]
0000242C  2E696E7465727000  imul ebp,[cs:esi+0x74],dword 0x707265
00002434  2E6E              cs outsb
00002436  6F                outsd
00002437  7465              jz 0x249e
00002439  2E41              cs inc ecx
0000243B  42                inc edx
0000243C  49                dec ecx
0000243D  2D74616700        sub eax,0x676174
00002442  2E6861736800      cs push dword 0x687361
00002448  2E64796E          fs jns 0x24ba
0000244C  7379              jnc 0x24c7
0000244E  6D                insd
0000244F  002E              add [esi],ch
00002451  64796E            fs jns 0x24c2
00002454  7374              jnc 0x24ca
00002456  7200              jc 0x2458
00002458  2E676E            cs a16 outsb
0000245B  752E              jnz 0x248b
0000245D  7665              jna 0x24c4
0000245F  7273              jc 0x24d4
00002461  696F6E002E676E    imul ebp,[edi+0x6e],dword 0x6e672e00
00002468  752E              jnz 0x2498
0000246A  7665              jna 0x24d1
0000246C  7273              jc 0x24e1
0000246E  696F6E5F72002E    imul ebp,[edi+0x6e],dword 0x2e00725f
00002475  7265              jc 0x24dc
00002477  6C                insb
00002478  2E64796E          fs jns 0x24ea
0000247C  002E              add [esi],ch
0000247E  7265              jc 0x24e5
00002480  6C                insb
00002481  2E706C            cs jo 0x24f0
00002484  7400              jz 0x2486
00002486  2E696E6974002E74  imul ebp,[cs:esi+0x69],dword 0x742e0074
0000248E  657874            gs js 0x2505
00002491  002E              add [esi],ch
00002493  66696E69002E      imul bp,[esi+0x69],word 0x2e00
00002499  726F              jc 0x250a
0000249B  6461              fs popa
0000249D  7461              jz 0x2500
0000249F  002E              add [esi],ch
000024A1  65685F667261      gs push dword 0x6172665f
000024A7  6D                insd
000024A8  655F              gs pop edi
000024AA  686472002E        push dword 0x2e007264
000024AF  65685F667261      gs push dword 0x6172665f
000024B5  6D                insd
000024B6  65002E            add [gs:esi],ch
000024B9  6763635F          arpl [bp+di+0x5f],sp
000024BD  657863            gs js 0x2523
000024C0  657074            gs jo 0x2537
000024C3  5F                pop edi
000024C4  7461              jz 0x2527
000024C6  626C6500          bound ebp,[ebp+0x0]
000024CA  2E63746F72        arpl [cs:edi+ebp*2+0x72],si
000024CF  7300              jnc 0x24d1
000024D1  2E64746F          fs jz 0x2544
000024D5  7273              jc 0x254a
000024D7  002E              add [esi],ch
000024D9  6A63              push byte +0x63
000024DB  7200              jc 0x24dd
000024DD  2E64796E          fs jns 0x254f
000024E1  61                popa
000024E2  6D                insd
000024E3  6963002E676F74    imul esp,[ebx+0x0],dword 0x746f672e
000024EA  002E              add [esi],ch
000024EC  676F              a16 outsd
000024EE  742E              jz 0x251e
000024F0  706C              jo 0x255e
000024F2  7400              jz 0x24f4
000024F4  2E6461            fs popa
000024F7  7461              jz 0x255a
000024F9  002E              add [esi],ch
000024FB  627373            bound esi,[ebx+0x73]
000024FE  002E              add [esi],ch
00002500  636F6D            arpl [edi+0x6d],bp
00002503  6D                insd
00002504  656E              gs outsb
00002506  7400              jz 0x2508
00002508  2E6465627567      bound esi,[gs:ebp+0x67]
0000250E  5F                pop edi
0000250F  61                popa
00002510  7261              jc 0x2573
00002512  6E                outsb
00002513  67657300          gs a16 jnc 0x2517
00002517  2E6465627567      bound esi,[gs:ebp+0x67]
0000251D  5F                pop edi
0000251E  7075              jo 0x2595
00002520  626E61            bound ebp,[esi+0x61]
00002523  6D                insd
00002524  657300            gs jnc 0x2527
00002527  2E6465627567      bound esi,[gs:ebp+0x67]
0000252D  5F                pop edi
0000252E  696E666F002E64    imul ebp,[esi+0x66],dword 0x642e006f
00002535  65627567          bound esi,[gs:ebp+0x67]
00002539  5F                pop edi
0000253A  61                popa
0000253B  626272            bound esp,[edx+0x72]
0000253E  657600            gs jna 0x2541
00002541  2E6465627567      bound esi,[gs:ebp+0x67]
00002547  5F                pop edi
00002548  6C                insb
00002549  696E65002E6465    imul ebp,[esi+0x65],dword 0x65642e00
00002550  627567            bound esi,[ebp+0x67]
00002553  5F                pop edi
00002554  667261            o16 jc 0x25b8
00002557  6D                insd
00002558  65002E            add [gs:esi],ch
0000255B  6465627567        bound esi,[gs:ebp+0x67]
00002560  5F                pop edi
00002561  7374              jnc 0x25d7
00002563  7200              jc 0x2565
00002565  2E6465627567      bound esi,[gs:ebp+0x67]
0000256B  5F                pop edi
0000256C  6C                insb
0000256D  6F                outsd
0000256E  6300              arpl [eax],ax
00002570  0000              add [eax],al
00002572  0000              add [eax],al
00002574  0000              add [eax],al
00002576  0000              add [eax],al
00002578  0000              add [eax],al
0000257A  0000              add [eax],al
0000257C  0000              add [eax],al
0000257E  0000              add [eax],al
00002580  0000              add [eax],al
00002582  0000              add [eax],al
00002584  0000              add [eax],al
00002586  0000              add [eax],al
00002588  0000              add [eax],al
0000258A  0000              add [eax],al
0000258C  0000              add [eax],al
0000258E  0000              add [eax],al
00002590  0000              add [eax],al
00002592  0000              add [eax],al
00002594  0000              add [eax],al
00002596  0000              add [eax],al
00002598  1B00              sbb eax,[eax]
0000259A  0000              add [eax],al
0000259C  0100              add [eax],eax
0000259E  0000              add [eax],al
000025A0  0200              add al,[eax]
000025A2  0000              add [eax],al
000025A4  3481              xor al,0x81
000025A6  0408              add al,0x8
000025A8  3401              xor al,0x1
000025AA  0000              add [eax],al
000025AC  1300              adc eax,[eax]
000025AE  0000              add [eax],al
000025B0  0000              add [eax],al
000025B2  0000              add [eax],al
000025B4  0000              add [eax],al
000025B6  0000              add [eax],al
000025B8  0100              add [eax],eax
000025BA  0000              add [eax],al
000025BC  0000              add [eax],al
000025BE  0000              add [eax],al
000025C0  2300              and eax,[eax]
000025C2  0000              add [eax],al
000025C4  07                pop es
000025C5  0000              add [eax],al
000025C7  0002              add [edx],al
000025C9  0000              add [eax],al
000025CB  004881            add [eax-0x7f],cl
000025CE  0408              add al,0x8
000025D0  48                dec eax
000025D1  0100              add [eax],eax
000025D3  0020              add [eax],ah
000025D5  0000              add [eax],al
000025D7  0000              add [eax],al
000025D9  0000              add [eax],al
000025DB  0000              add [eax],al
000025DD  0000              add [eax],al
000025DF  000400            add [eax+eax],al
000025E2  0000              add [eax],al
000025E4  0000              add [eax],al
000025E6  0000              add [eax],al
000025E8  3100              xor [eax],eax
000025EA  0000              add [eax],al
000025EC  0500000002        add eax,0x2000000
000025F1  0000              add [eax],al
000025F3  006881            add [eax-0x7f],ch
000025F6  0408              add al,0x8
000025F8  68010000DC        push dword 0xdc000001
000025FD  0000              add [eax],al
000025FF  000400            add [eax+eax],al
00002602  0000              add [eax],al
00002604  0000              add [eax],al
00002606  0000              add [eax],al
00002608  0400              add al,0x0
0000260A  0000              add [eax],al
0000260C  0400              add al,0x0
0000260E  0000              add [eax],al
00002610  37                aaa
00002611  0000              add [eax],al
00002613  000B              add [ebx],cl
00002615  0000              add [eax],al
00002617  0002              add [edx],al
00002619  0000              add [eax],al
0000261B  00448204          add [edx+eax*4+0x4],al
0000261F  08440200          or [edx+eax+0x0],al
00002623  004002            add [eax+0x2],al
00002626  0000              add [eax],al
00002628  0500000001        add eax,0x1000000
0000262D  0000              add [eax],al
0000262F  000400            add [eax+eax],al
00002632  0000              add [eax],al
00002634  1000              adc [eax],al
00002636  0000              add [eax],al
00002638  3F                aas
00002639  0000              add [eax],al
0000263B  0003              add [ebx],al
0000263D  0000              add [eax],al
0000263F  0002              add [edx],al
00002641  0000              add [eax],al
00002643  00848404088404    add [esp+eax*4+0x4840804],al
0000264A  0000              add [eax],al
0000264C  3803              cmp [ebx],al
0000264E  0000              add [eax],al
00002650  0000              add [eax],al
00002652  0000              add [eax],al
00002654  0000              add [eax],al
00002656  0000              add [eax],al
00002658  0100              add [eax],eax
0000265A  0000              add [eax],al
0000265C  0000              add [eax],al
0000265E  0000              add [eax],al
00002660  47                inc edi
00002661  0000              add [eax],al
00002663  00FF              add bh,bh
00002665  FF                db 0xFF
00002666  FF6F02            jmp far [edi+0x2]
00002669  0000              add [eax],al
0000266B  00BC870408BC07    add [edi+eax*4+0x7bc0804],bh
00002672  0000              add [eax],al
00002674  48                dec eax
00002675  0000              add [eax],al
00002677  000400            add [eax+eax],al
0000267A  0000              add [eax],al
0000267C  0000              add [eax],al
0000267E  0000              add [eax],al
00002680  0200              add al,[eax]
00002682  0000              add [eax],al
00002684  0200              add al,[eax]
00002686  0000              add [eax],al
00002688  54                push esp
00002689  0000              add [eax],al
0000268B  00FE              add dh,bh
0000268D  FF                db 0xFF
0000268E  FF6F02            jmp far [edi+0x2]
00002691  0000              add [eax],al
00002693  000488            add [eax+ecx*4],al
00002696  0408              add al,0x8
00002698  0408              add al,0x8
0000269A  0000              add [eax],al
0000269C  800000            add byte [eax],0x0
0000269F  000500000003      add [0x3000000],al
000026A5  0000              add [eax],al
000026A7  000400            add [eax+eax],al
000026AA  0000              add [eax],al
000026AC  0000              add [eax],al
000026AE  0000              add [eax],al
000026B0  6300              arpl [eax],ax
000026B2  0000              add [eax],al
000026B4  0900              or [eax],eax
000026B6  0000              add [eax],al
000026B8  0200              add al,[eax]
000026BA  0000              add [eax],al
000026BC  848804088408      test [eax+0x8840804],cl
000026C2  0000              add [eax],al
000026C4  1800              sbb [eax],al
000026C6  0000              add [eax],al
000026C8  0400              add al,0x0
000026CA  0000              add [eax],al
000026CC  0000              add [eax],al
000026CE  0000              add [eax],al
000026D0  0400              add al,0x0
000026D2  0000              add [eax],al
000026D4  0800              or [eax],al
000026D6  0000              add [eax],al
000026D8  6C                insb
000026D9  0000              add [eax],al
000026DB  0009              add [ecx],cl
000026DD  0000              add [eax],al
000026DF  0002              add [edx],al
000026E1  0000              add [eax],al
000026E3  009C8804089C08    add [eax+ecx*4+0x89c0804],bl
000026EA  0000              add [eax],al
000026EC  E000              loopne 0x26ee
000026EE  0000              add [eax],al
000026F0  0400              add al,0x0
000026F2  0000              add [eax],al
000026F4  0B00              or eax,[eax]
000026F6  0000              add [eax],al
000026F8  0400              add al,0x0
000026FA  0000              add [eax],al
000026FC  0800              or [eax],al
000026FE  0000              add [eax],al
00002700  7500              jnz 0x2702
00002702  0000              add [eax],al
00002704  0100              add [eax],eax
00002706  0000              add [eax],al
00002708  06                push es
00002709  0000              add [eax],al
0000270B  007C8904          add [ecx+ecx*4+0x4],bh
0000270F  087C0900          or [ecx+ecx+0x0],bh
00002713  0030              add [eax],dh
00002715  0000              add [eax],al
00002717  0000              add [eax],al
00002719  0000              add [eax],al
0000271B  0000              add [eax],al
0000271D  0000              add [eax],al
0000271F  000400            add [eax+eax],al
00002722  0000              add [eax],al
00002724  0000              add [eax],al
00002726  0000              add [eax],al
00002728  7000              jo 0x272a
0000272A  0000              add [eax],al
0000272C  0100              add [eax],eax
0000272E  0000              add [eax],al
00002730  06                push es
00002731  0000              add [eax],al
00002733  00B0890408B0      add [eax+0xb0080489],dh
00002739  0900              or [eax],eax
0000273B  00D0              add al,dl
0000273D  0100              add [eax],eax
0000273F  0000              add [eax],al
00002741  0000              add [eax],al
00002743  0000              add [eax],al
00002745  0000              add [eax],al
00002747  0010              add [eax],dl
00002749  0000              add [eax],al
0000274B  000400            add [eax+eax],al
0000274E  0000              add [eax],al
00002750  7B00              jpo 0x2752
00002752  0000              add [eax],al
00002754  0100              add [eax],eax
00002756  0000              add [eax],al
00002758  06                push es
00002759  0000              add [eax],al
0000275B  00808B040880      add [eax+0x8008048b],al
00002761  0B00              or eax,[eax]
00002763  0038              add [eax],bh
00002765  0900              or [eax],eax
00002767  0000              add [eax],al
00002769  0000              add [eax],al
0000276B  0000              add [eax],al
0000276D  0000              add [eax],al
0000276F  0010              add [eax],dl
00002771  0000              add [eax],al
00002773  0000              add [eax],al
00002775  0000              add [eax],al
00002777  008100000001      add [ecx+0x1000000],al
0000277D  0000              add [eax],al
0000277F  0006              add [esi],al
00002781  0000              add [eax],al
00002783  00B8940408B8      add [eax+0xb8080494],bh
00002789  1400              adc al,0x0
0000278B  001C00            add [eax+eax],bl
0000278E  0000              add [eax],al
00002790  0000              add [eax],al
00002792  0000              add [eax],al
00002794  0000              add [eax],al
00002796  0000              add [eax],al
00002798  0400              add al,0x0
0000279A  0000              add [eax],al
0000279C  0000              add [eax],al
0000279E  0000              add [eax],al
000027A0  8700              xchg eax,[eax]
000027A2  0000              add [eax],al
000027A4  0100              add [eax],eax
000027A6  0000              add [eax],al
000027A8  0200              add al,[eax]
000027AA  0000              add [eax],al
000027AC  D494              aam 0x94
000027AE  0408              add al,0x8
000027B0  D414              aam 0x14
000027B2  0000              add [eax],al
000027B4  2001              and [ecx],al
000027B6  0000              add [eax],al
000027B8  0000              add [eax],al
000027BA  0000              add [eax],al
000027BC  0000              add [eax],al
000027BE  0000              add [eax],al
000027C0  0400              add al,0x0
000027C2  0000              add [eax],al
000027C4  0000              add [eax],al
000027C6  0000              add [eax],al
000027C8  8F00              pop dword [eax]
000027CA  0000              add [eax],al
000027CC  0100              add [eax],eax
000027CE  0000              add [eax],al
000027D0  0200              add al,[eax]
000027D2  0000              add [eax],al
000027D4  F4                hlt
000027D5  95                xchg eax,ebp
000027D6  0408              add al,0x8
000027D8  F4                hlt
000027D9  150000FC00        adc eax,0xfc0000
000027DE  0000              add [eax],al
000027E0  0000              add [eax],al
000027E2  0000              add [eax],al
000027E4  0000              add [eax],al
000027E6  0000              add [eax],al
000027E8  0400              add al,0x0
000027EA  0000              add [eax],al
000027EC  0000              add [eax],al
000027EE  0000              add [eax],al
000027F0  9D                popf
000027F1  0000              add [eax],al
000027F3  0001              add [ecx],al
000027F5  0000              add [eax],al
000027F7  0002              add [edx],al
000027F9  0000              add [eax],al
000027FB  00F0              add al,dh
000027FD  96                xchg eax,esi
000027FE  0408              add al,0x8
00002800  F016              lock push ss
00002802  0000              add [eax],al
00002804  3404              xor al,0x4
00002806  0000              add [eax],al
00002808  0000              add [eax],al
0000280A  0000              add [eax],al
0000280C  0000              add [eax],al
0000280E  0000              add [eax],al
00002810  0400              add al,0x0
00002812  0000              add [eax],al
00002814  0000              add [eax],al
00002816  0000              add [eax],al
00002818  A7                cmpsd
00002819  0000              add [eax],al
0000281B  0001              add [ecx],al
0000281D  0000              add [eax],al
0000281F  0002              add [edx],al
00002821  0000              add [eax],al
00002823  00249B            add [ebx+ebx*4],ah
00002826  0408              add al,0x8
00002828  241B              and al,0x1b
0000282A  0000              add [eax],al
0000282C  7600              jna 0x282e
0000282E  0000              add [eax],al
00002830  0000              add [eax],al
00002832  0000              add [eax],al
00002834  0000              add [eax],al
00002836  0000              add [eax],al
00002838  0100              add [eax],eax
0000283A  0000              add [eax],al
0000283C  0000              add [eax],al
0000283E  0000              add [eax],al
00002840  B900000001        mov ecx,0x1000000
00002845  0000              add [eax],al
00002847  0003              add [ebx],al
00002849  0000              add [eax],al
0000284B  009CAB04089C1B    add [ebx+ebp*4+0x1b9c0804],bl
00002852  0000              add [eax],al
00002854  0C00              or al,0x0
00002856  0000              add [eax],al
00002858  0000              add [eax],al
0000285A  0000              add [eax],al
0000285C  0000              add [eax],al
0000285E  0000              add [eax],al
00002860  0400              add al,0x0
00002862  0000              add [eax],al
00002864  0000              add [eax],al
00002866  0000              add [eax],al
00002868  C00000            rol byte [eax],0x0
0000286B  0001              add [ecx],al
0000286D  0000              add [eax],al
0000286F  0003              add [ebx],al
00002871  0000              add [eax],al
00002873  00A8AB0408A8      add [eax+0xa80804ab],ch
00002879  1B00              sbb eax,[eax]
0000287B  0008              add [eax],cl
0000287D  0000              add [eax],al
0000287F  0000              add [eax],al
00002881  0000              add [eax],al
00002883  0000              add [eax],al
00002885  0000              add [eax],al
00002887  000400            add [eax+eax],al
0000288A  0000              add [eax],al
0000288C  0000              add [eax],al
0000288E  0000              add [eax],al
00002890  C70000000100      mov dword [eax],0x10000
00002896  0000              add [eax],al
00002898  0300              add eax,[eax]
0000289A  0000              add [eax],al
0000289C  B0AB              mov al,0xab
0000289E  0408              add al,0x8
000028A0  B01B              mov al,0x1b
000028A2  0000              add [eax],al
000028A4  0400              add al,0x0
000028A6  0000              add [eax],al
000028A8  0000              add [eax],al
000028AA  0000              add [eax],al
000028AC  0000              add [eax],al
000028AE  0000              add [eax],al
000028B0  0400              add al,0x0
000028B2  0000              add [eax],al
000028B4  0000              add [eax],al
000028B6  0000              add [eax],al
000028B8  CC                int3
000028B9  0000              add [eax],al
000028BB  0006              add [esi],al
000028BD  0000              add [eax],al
000028BF  0003              add [ebx],al
000028C1  0000              add [eax],al
000028C3  00B4AB0408B41B    add [ebx+ebp*4+0x1bb40804],dh
000028CA  0000              add [eax],al
000028CC  E000              loopne 0x28ce
000028CE  0000              add [eax],al
000028D0  0500000000        add eax,0x0
000028D5  0000              add [eax],al
000028D7  000400            add [eax+eax],al
000028DA  0000              add [eax],al
000028DC  0800              or [eax],al
000028DE  0000              add [eax],al
000028E0  D500              aad 0x0
000028E2  0000              add [eax],al
000028E4  0100              add [eax],eax
000028E6  0000              add [eax],al
000028E8  0300              add eax,[eax]
000028EA  0000              add [eax],al
000028EC  94                xchg eax,esp
000028ED  AC                lodsb
000028EE  0408              add al,0x8
000028F0  94                xchg eax,esp
000028F1  1C00              sbb al,0x0
000028F3  000400            add [eax+eax],al
000028F6  0000              add [eax],al
000028F8  0000              add [eax],al
000028FA  0000              add [eax],al
000028FC  0000              add [eax],al
000028FE  0000              add [eax],al
00002900  0400              add al,0x0
00002902  0000              add [eax],al
00002904  0400              add al,0x0
00002906  0000              add [eax],al
00002908  DA00              fiadd dword [eax]
0000290A  0000              add [eax],al
0000290C  0100              add [eax],eax
0000290E  0000              add [eax],al
00002910  0300              add eax,[eax]
00002912  0000              add [eax],al
00002914  98                cwde
00002915  AC                lodsb
00002916  0408              add al,0x8
00002918  98                cwde
00002919  1C00              sbb al,0x0
0000291B  007C0000          add [eax+eax+0x0],bh
0000291F  0000              add [eax],al
00002921  0000              add [eax],al
00002923  0000              add [eax],al
00002925  0000              add [eax],al
00002927  000400            add [eax+eax],al
0000292A  0000              add [eax],al
0000292C  0400              add al,0x0
0000292E  0000              add [eax],al
00002930  E300              jecxz 0x2932
00002932  0000              add [eax],al
00002934  0100              add [eax],eax
00002936  0000              add [eax],al
00002938  0300              add eax,[eax]
0000293A  0000              add [eax],al
0000293C  14AD              adc al,0xad
0000293E  0408              add al,0x8
00002940  141D              adc al,0x1d
00002942  0000              add [eax],al
00002944  0800              or [eax],al
00002946  0000              add [eax],al
00002948  0000              add [eax],al
0000294A  0000              add [eax],al
0000294C  0000              add [eax],al
0000294E  0000              add [eax],al
00002950  0400              add al,0x0
00002952  0000              add [eax],al
00002954  0000              add [eax],al
00002956  0000              add [eax],al
00002958  E900000008        jmp 0x800295d
0000295D  0000              add [eax],al
0000295F  0003              add [ebx],al
00002961  0000              add [eax],al
00002963  0020              add [eax],ah
00002965  AD                lodsd
00002966  0408              add al,0x8
00002968  1C1D              sbb al,0x1d
0000296A  0000              add [eax],al
0000296C  40                inc eax
0000296D  0100              add [eax],eax
0000296F  0000              add [eax],al
00002971  0000              add [eax],al
00002973  0000              add [eax],al
00002975  0000              add [eax],al
00002977  0020              add [eax],ah
00002979  0000              add [eax],al
0000297B  0000              add [eax],al
0000297D  0000              add [eax],al
0000297F  00EE              add dh,ch
00002981  0000              add [eax],al
00002983  0001              add [ecx],al
00002985  0000              add [eax],al
00002987  0030              add [eax],dh
00002989  0000              add [eax],al
0000298B  0000              add [eax],al
0000298D  0000              add [eax],al
0000298F  001C1D00003400    add [ebx+0x340000],bl
00002996  0000              add [eax],al
00002998  0000              add [eax],al
0000299A  0000              add [eax],al
0000299C  0000              add [eax],al
0000299E  0000              add [eax],al
000029A0  0100              add [eax],eax
000029A2  0000              add [eax],al
000029A4  0100              add [eax],eax
000029A6  0000              add [eax],al
000029A8  F70000000100      test dword [eax],0x10000
000029AE  0000              add [eax],al
000029B0  0000              add [eax],al
000029B2  0000              add [eax],al
000029B4  0000              add [eax],al
000029B6  0000              add [eax],al
000029B8  50                push eax
000029B9  1D00004000        sbb eax,0x400000
000029BE  0000              add [eax],al
000029C0  0000              add [eax],al
000029C2  0000              add [eax],al
000029C4  0000              add [eax],al
000029C6  0000              add [eax],al
000029C8  0800              or [eax],al
000029CA  0000              add [eax],al
000029CC  0000              add [eax],al
000029CE  0000              add [eax],al
000029D0  06                push es
000029D1  0100              add [eax],eax
000029D3  0001              add [ecx],al
000029D5  0000              add [eax],al
000029D7  0000              add [eax],al
000029D9  0000              add [eax],al
000029DB  0000              add [eax],al
000029DD  0000              add [eax],al
000029DF  00901D00005F      add [eax+0x5f00001d],dl
000029E5  0000              add [eax],al
000029E7  0000              add [eax],al
000029E9  0000              add [eax],al
000029EB  0000              add [eax],al
000029ED  0000              add [eax],al
000029EF  0001              add [ecx],al
000029F1  0000              add [eax],al
000029F3  0000              add [eax],al
000029F5  0000              add [eax],al
000029F7  0016              add [esi],dl
000029F9  0100              add [eax],eax
000029FB  0001              add [ecx],al
000029FD  0000              add [eax],al
000029FF  0000              add [eax],al
00002A01  0000              add [eax],al
00002A03  0000              add [eax],al
00002A05  0000              add [eax],al
00002A07  00EF              add bh,ch
00002A09  1D00002102        sbb eax,0x2210000
00002A0E  0000              add [eax],al
00002A10  0000              add [eax],al
00002A12  0000              add [eax],al
00002A14  0000              add [eax],al
00002A16  0000              add [eax],al
00002A18  0100              add [eax],eax
00002A1A  0000              add [eax],al
00002A1C  0000              add [eax],al
00002A1E  0000              add [eax],al
00002A20  2201              and al,[ecx]
00002A22  0000              add [eax],al
00002A24  0100              add [eax],eax
00002A26  0000              add [eax],al
00002A28  0000              add [eax],al
00002A2A  0000              add [eax],al
00002A2C  0000              add [eax],al
00002A2E  0000              add [eax],al
00002A30  1020              adc [eax],ah
00002A32  0000              add [eax],al
00002A34  3501000000        xor eax,0x1
00002A39  0000              add [eax],al
00002A3B  0000              add [eax],al
00002A3D  0000              add [eax],al
00002A3F  0001              add [ecx],al
00002A41  0000              add [eax],al
00002A43  0000              add [eax],al
00002A45  0000              add [eax],al
00002A47  0030              add [eax],dh
00002A49  0100              add [eax],eax
00002A4B  0001              add [ecx],al
00002A4D  0000              add [eax],al
00002A4F  0000              add [eax],al
00002A51  0000              add [eax],al
00002A53  0000              add [eax],al
00002A55  0000              add [eax],al
00002A57  004521            add [ebp+0x21],al
00002A5A  0000              add [eax],al
00002A5C  0101              add [ecx],eax
00002A5E  0000              add [eax],al
00002A60  0000              add [eax],al
00002A62  0000              add [eax],al
00002A64  0000              add [eax],al
00002A66  0000              add [eax],al
00002A68  0100              add [eax],eax
00002A6A  0000              add [eax],al
00002A6C  0000              add [eax],al
00002A6E  0000              add [eax],al
00002A70  3C01              cmp al,0x1
00002A72  0000              add [eax],al
00002A74  0100              add [eax],eax
00002A76  0000              add [eax],al
00002A78  0000              add [eax],al
00002A7A  0000              add [eax],al
00002A7C  0000              add [eax],al
00002A7E  0000              add [eax],al
00002A80  48                dec eax
00002A81  2200              and al,[eax]
00002A83  004C0000          add [eax+eax+0x0],cl
00002A87  0000              add [eax],al
00002A89  0000              add [eax],al
00002A8B  0000              add [eax],al
00002A8D  0000              add [eax],al
00002A8F  000400            add [eax+eax],al
00002A92  0000              add [eax],al
00002A94  0000              add [eax],al
00002A96  0000              add [eax],al
00002A98  49                dec ecx
00002A99  0100              add [eax],eax
00002A9B  0001              add [ecx],al
00002A9D  0000              add [eax],al
00002A9F  0030              add [eax],dh
00002AA1  0000              add [eax],al
00002AA3  0000              add [eax],al
00002AA5  0000              add [eax],al
00002AA7  00942200001201    add [edx+0x1120000],dl
00002AAE  0000              add [eax],al
00002AB0  0000              add [eax],al
00002AB2  0000              add [eax],al
00002AB4  0000              add [eax],al
00002AB6  0000              add [eax],al
00002AB8  0100              add [eax],eax
00002ABA  0000              add [eax],al
00002ABC  0100              add [eax],eax
00002ABE  0000              add [eax],al
00002AC0  54                push esp
00002AC1  0100              add [eax],eax
00002AC3  0001              add [ecx],al
00002AC5  0000              add [eax],al
00002AC7  0000              add [eax],al
00002AC9  0000              add [eax],al
00002ACB  0000              add [eax],al
00002ACD  0000              add [eax],al
00002ACF  00A62300006B      add [esi+0x6b000023],ah
00002AD5  0000              add [eax],al
00002AD7  0000              add [eax],al
00002AD9  0000              add [eax],al
00002ADB  0000              add [eax],al
00002ADD  0000              add [eax],al
00002ADF  0001              add [ecx],al
00002AE1  0000              add [eax],al
00002AE3  0000              add [eax],al
00002AE5  0000              add [eax],al
00002AE7  0011              add [ecx],dl
00002AE9  0000              add [eax],al
00002AEB  0003              add [ebx],al
00002AED  0000              add [eax],al
00002AEF  0000              add [eax],al
00002AF1  0000              add [eax],al
00002AF3  0000              add [eax],al
00002AF5  0000              add [eax],al
00002AF7  0011              add [ecx],dl
00002AF9  2400              and al,0x0
00002AFB  005F01            add [edi+0x1],bl
00002AFE  0000              add [eax],al
00002B00  0000              add [eax],al
00002B02  0000              add [eax],al
00002B04  0000              add [eax],al
00002B06  0000              add [eax],al
00002B08  0100              add [eax],eax
00002B0A  0000              add [eax],al
00002B0C  0000              add [eax],al
00002B0E  0000              add [eax],al
00002B10  0100              add [eax],eax
00002B12  0000              add [eax],al
00002B14  0200              add al,[eax]
00002B16  0000              add [eax],al
00002B18  0000              add [eax],al
00002B1A  0000              add [eax],al
00002B1C  0000              add [eax],al
00002B1E  0000              add [eax],al
00002B20  60                pusha
00002B21  2B00              sub eax,[eax]
00002B23  005009            add [eax+0x9],dl
00002B26  0000              add [eax],al
00002B28  2500000042        and eax,0x42000000
00002B2D  0000              add [eax],al
00002B2F  000400            add [eax+eax],al
00002B32  0000              add [eax],al
00002B34  1000              adc [eax],al
00002B36  0000              add [eax],al
00002B38  0900              or [eax],eax
00002B3A  0000              add [eax],al
00002B3C  0300              add eax,[eax]
00002B3E  0000              add [eax],al
00002B40  0000              add [eax],al
00002B42  0000              add [eax],al
00002B44  0000              add [eax],al
00002B46  0000              add [eax],al
00002B48  B034              mov al,0x34
00002B4A  0000              add [eax],al
00002B4C  760C              jna 0x2b5a
00002B4E  0000              add [eax],al
00002B50  0000              add [eax],al
00002B52  0000              add [eax],al
00002B54  0000              add [eax],al
00002B56  0000              add [eax],al
00002B58  0100              add [eax],eax
00002B5A  0000              add [eax],al
00002B5C  0000              add [eax],al
00002B5E  0000              add [eax],al
00002B60  0000              add [eax],al
00002B62  0000              add [eax],al
00002B64  0000              add [eax],al
00002B66  0000              add [eax],al
00002B68  0000              add [eax],al
00002B6A  0000              add [eax],al
00002B6C  0000              add [eax],al
00002B6E  0000              add [eax],al
00002B70  0000              add [eax],al
00002B72  0000              add [eax],al
00002B74  3481              xor al,0x81
00002B76  0408              add al,0x8
00002B78  0000              add [eax],al
00002B7A  0000              add [eax],al
00002B7C  0300              add eax,[eax]
00002B7E  0100              add [eax],eax
00002B80  0000              add [eax],al
00002B82  0000              add [eax],al
00002B84  48                dec eax
00002B85  81040800000000    add dword [eax+ecx],0x0
00002B8C  0300              add eax,[eax]
00002B8E  0200              add al,[eax]
00002B90  0000              add [eax],al
00002B92  0000              add [eax],al
00002B94  6881040800        push dword 0x80481
00002B99  0000              add [eax],al
00002B9B  0003              add [ebx],al
00002B9D  0003              add [ebx],al
00002B9F  0000              add [eax],al
00002BA1  0000              add [eax],al
00002BA3  00448204          add [edx+eax*4+0x4],al
00002BA7  0800              or [eax],al
00002BA9  0000              add [eax],al
00002BAB  0003              add [ebx],al
00002BAD  000400            add [eax+eax],al
00002BB0  0000              add [eax],al
00002BB2  0000              add [eax],al
00002BB4  84840408000000    test [esp+eax+0x8],al
00002BBB  0003              add [ebx],al
00002BBD  000500000000      add [0x0],al
00002BC3  00BC8704080000    add [edi+eax*4+0x804],bh
00002BCA  0000              add [eax],al
00002BCC  0300              add eax,[eax]
00002BCE  06                push es
00002BCF  0000              add [eax],al
00002BD1  0000              add [eax],al
00002BD3  000488            add [eax+ecx*4],al
00002BD6  0408              add al,0x8
00002BD8  0000              add [eax],al
00002BDA  0000              add [eax],al
00002BDC  0300              add eax,[eax]
00002BDE  07                pop es
00002BDF  0000              add [eax],al
00002BE1  0000              add [eax],al
00002BE3  00848804080000    add [eax+ecx*4+0x804],al
00002BEA  0000              add [eax],al
00002BEC  0300              add eax,[eax]
00002BEE  0800              or [eax],al
00002BF0  0000              add [eax],al
00002BF2  0000              add [eax],al
00002BF4  9C                pushf
00002BF5  880408            mov [eax+ecx],al
00002BF8  0000              add [eax],al
00002BFA  0000              add [eax],al
00002BFC  0300              add eax,[eax]
00002BFE  0900              or [eax],eax
00002C00  0000              add [eax],al
00002C02  0000              add [eax],al
00002C04  7C89              jl 0x2b8f
00002C06  0408              add al,0x8
00002C08  0000              add [eax],al
00002C0A  0000              add [eax],al
00002C0C  0300              add eax,[eax]
00002C0E  0A00              or al,[eax]
00002C10  0000              add [eax],al
00002C12  0000              add [eax],al
00002C14  B089              mov al,0x89
00002C16  0408              add al,0x8
00002C18  0000              add [eax],al
00002C1A  0000              add [eax],al
00002C1C  0300              add eax,[eax]
00002C1E  0B00              or eax,[eax]
00002C20  0000              add [eax],al
00002C22  0000              add [eax],al
00002C24  808B0408000000    or byte [ebx+0x804],0x0
00002C2B  0003              add [ebx],al
00002C2D  000C00            add [eax+eax],cl
00002C30  0000              add [eax],al
00002C32  0000              add [eax],al
00002C34  B894040800        mov eax,0x80494
00002C39  0000              add [eax],al
00002C3B  0003              add [ebx],al
00002C3D  000D00000000      add [0x0],cl
00002C43  00D4              add ah,dl
00002C45  94                xchg eax,esp
00002C46  0408              add al,0x8
00002C48  0000              add [eax],al
00002C4A  0000              add [eax],al
00002C4C  0300              add eax,[eax]
00002C4E  0E                push cs
00002C4F  0000              add [eax],al
00002C51  0000              add [eax],al
00002C53  00F4              add ah,dh
00002C55  95                xchg eax,ebp
00002C56  0408              add al,0x8
00002C58  0000              add [eax],al
00002C5A  0000              add [eax],al
00002C5C  0300              add eax,[eax]
00002C5E  0F0000            sldt [eax]
00002C61  0000              add [eax],al
00002C63  00F0              add al,dh
00002C65  96                xchg eax,esi
00002C66  0408              add al,0x8
00002C68  0000              add [eax],al
00002C6A  0000              add [eax],al
00002C6C  0300              add eax,[eax]
00002C6E  1000              adc [eax],al
00002C70  0000              add [eax],al
00002C72  0000              add [eax],al
00002C74  249B              and al,0x9b
00002C76  0408              add al,0x8
00002C78  0000              add [eax],al
00002C7A  0000              add [eax],al
00002C7C  0300              add eax,[eax]
00002C7E  1100              adc [eax],eax
00002C80  0000              add [eax],al
00002C82  0000              add [eax],al
00002C84  9C                pushf
00002C85  AB                stosd
00002C86  0408              add al,0x8
00002C88  0000              add [eax],al
00002C8A  0000              add [eax],al
00002C8C  0300              add eax,[eax]
00002C8E  1200              adc al,[eax]
00002C90  0000              add [eax],al
00002C92  0000              add [eax],al
00002C94  A8AB              test al,0xab
00002C96  0408              add al,0x8
00002C98  0000              add [eax],al
00002C9A  0000              add [eax],al
00002C9C  0300              add eax,[eax]
00002C9E  1300              adc eax,[eax]
00002CA0  0000              add [eax],al
00002CA2  0000              add [eax],al
00002CA4  B0AB              mov al,0xab
00002CA6  0408              add al,0x8
00002CA8  0000              add [eax],al
00002CAA  0000              add [eax],al
00002CAC  0300              add eax,[eax]
00002CAE  1400              adc al,0x0
00002CB0  0000              add [eax],al
00002CB2  0000              add [eax],al
00002CB4  B4AB              mov ah,0xab
00002CB6  0408              add al,0x8
00002CB8  0000              add [eax],al
00002CBA  0000              add [eax],al
00002CBC  0300              add eax,[eax]
00002CBE  1500000000        adc eax,0x0
00002CC3  0094AC04080000    add [esp+ebp*4+0x804],dl
00002CCA  0000              add [eax],al
00002CCC  0300              add eax,[eax]
00002CCE  16                push ss
00002CCF  0000              add [eax],al
00002CD1  0000              add [eax],al
00002CD3  0098AC040800      add [eax+0x804ac],bl
00002CD9  0000              add [eax],al
00002CDB  0003              add [ebx],al
00002CDD  0017              add [edi],dl
00002CDF  0000              add [eax],al
00002CE1  0000              add [eax],al
00002CE3  0014AD04080000    add [ebp*4+0x804],dl
00002CEA  0000              add [eax],al
00002CEC  0300              add eax,[eax]
00002CEE  1800              sbb [eax],al
00002CF0  0000              add [eax],al
00002CF2  0000              add [eax],al
00002CF4  20AD04080000      and [ebp+0x804],ch
00002CFA  0000              add [eax],al
00002CFC  0300              add eax,[eax]
00002CFE  1900              sbb [eax],eax
00002D00  0000              add [eax],al
00002D02  0000              add [eax],al
00002D04  0000              add [eax],al
00002D06  0000              add [eax],al
00002D08  0000              add [eax],al
00002D0A  0000              add [eax],al
00002D0C  0300              add eax,[eax]
00002D0E  1A00              sbb al,[eax]
00002D10  0000              add [eax],al
00002D12  0000              add [eax],al
00002D14  0000              add [eax],al
00002D16  0000              add [eax],al
00002D18  0000              add [eax],al
00002D1A  0000              add [eax],al
00002D1C  0300              add eax,[eax]
00002D1E  1B00              sbb eax,[eax]
00002D20  0000              add [eax],al
00002D22  0000              add [eax],al
00002D24  0000              add [eax],al
00002D26  0000              add [eax],al
00002D28  0000              add [eax],al
00002D2A  0000              add [eax],al
00002D2C  0300              add eax,[eax]
00002D2E  1C00              sbb al,0x0
00002D30  0000              add [eax],al
00002D32  0000              add [eax],al
00002D34  0000              add [eax],al
00002D36  0000              add [eax],al
00002D38  0000              add [eax],al
00002D3A  0000              add [eax],al
00002D3C  0300              add eax,[eax]
00002D3E  1D00000000        sbb eax,0x0
00002D43  0000              add [eax],al
00002D45  0000              add [eax],al
00002D47  0000              add [eax],al
00002D49  0000              add [eax],al
00002D4B  0003              add [ebx],al
00002D4D  001E              add [esi],bl
00002D4F  0000              add [eax],al
00002D51  0000              add [eax],al
00002D53  0000              add [eax],al
00002D55  0000              add [eax],al
00002D57  0000              add [eax],al
00002D59  0000              add [eax],al
00002D5B  0003              add [ebx],al
00002D5D  001F              add [edi],bl
00002D5F  0000              add [eax],al
00002D61  0000              add [eax],al
00002D63  0000              add [eax],al
00002D65  0000              add [eax],al
00002D67  0000              add [eax],al
00002D69  0000              add [eax],al
00002D6B  0003              add [ebx],al
00002D6D  0020              add [eax],ah
00002D6F  0000              add [eax],al
00002D71  0000              add [eax],al
00002D73  0000              add [eax],al
00002D75  0000              add [eax],al
00002D77  0000              add [eax],al
00002D79  0000              add [eax],al
00002D7B  0003              add [ebx],al
00002D7D  0021              add [ecx],ah
00002D7F  0000              add [eax],al
00002D81  0000              add [eax],al
00002D83  0000              add [eax],al
00002D85  0000              add [eax],al
00002D87  0000              add [eax],al
00002D89  0000              add [eax],al
00002D8B  0003              add [ebx],al
00002D8D  0022              add [edx],ah
00002D8F  0001              add [ecx],al
00002D91  0000              add [eax],al
00002D93  0000              add [eax],al
00002D95  0000              add [eax],al
00002D97  0000              add [eax],al
00002D99  0000              add [eax],al
00002D9B  000400            add [eax+eax],al
00002D9E  F1                int1
00002D9F  FF08              dec dword [eax]
00002DA1  0000              add [eax],al
00002DA3  0000              add [eax],al
00002DA5  0000              add [eax],al
00002DA7  0000              add [eax],al
00002DA9  0000              add [eax],al
00002DAB  000400            add [eax+eax],al
00002DAE  F1                int1
00002DAF  FF13              call near [ebx]
00002DB1  0000              add [eax],al
00002DB3  0000              add [eax],al
00002DB5  0000              add [eax],al
00002DB7  0000              add [eax],al
00002DB9  0000              add [eax],al
00002DBB  000400            add [eax+eax],al
00002DBE  F1                int1
00002DBF  FF1E              call far [esi]
00002DC1  0000              add [eax],al
00002DC3  009CAB04080000    add [ebx+ebp*4+0x804],bl
00002DCA  0000              add [eax],al
00002DCC  0100              add [eax],eax
00002DCE  1200              adc al,[eax]
00002DD0  2C00              sub al,0x0
00002DD2  0000              add [eax],al
00002DD4  A8AB              test al,0xab
00002DD6  0408              add al,0x8
00002DD8  0000              add [eax],al
00002DDA  0000              add [eax],al
00002DDC  0100              add [eax],eax
00002DDE  1300              adc eax,[eax]
00002DE0  3A00              cmp al,[eax]
00002DE2  0000              add [eax],al
00002DE4  B0AB              mov al,0xab
00002DE6  0408              add al,0x8
00002DE8  0000              add [eax],al
00002DEA  0000              add [eax],al
00002DEC  0100              add [eax],eax
00002DEE  1400              adc al,0x0
00002DF0  47                inc edi
00002DF1  0000              add [eax],al
00002DF3  00B08B040800      add [eax+0x8048b],dh
00002DF9  0000              add [eax],al
00002DFB  0002              add [edx],al
00002DFD  000C00            add [eax+eax],cl
00002E00  5C                pop esp
00002E01  0000              add [eax],al
00002E03  00E0              add al,ah
00002E05  8B0408            mov eax,[eax+ecx]
00002E08  0000              add [eax],al
00002E0A  0000              add [eax],al
00002E0C  0200              add al,[eax]
00002E0E  0C00              or al,0x0
00002E10  6F                outsd
00002E11  0000              add [eax],al
00002E13  0020              add [eax],ah
00002E15  8C0408            mov [eax+ecx],es
00002E18  0000              add [eax],al
00002E1A  0000              add [eax],al
00002E1C  0200              add al,[eax]
00002E1E  0C00              or al,0x0
00002E20  8500              test [eax],eax
00002E22  0000              add [eax],al
00002E24  4C                dec esp
00002E25  AE                scasb
00002E26  0408              add al,0x8
00002E28  0100              add [eax],eax
00002E2A  0000              add [eax],al
00002E2C  0100              add [eax],eax
00002E2E  1900              sbb [eax],eax
00002E30  94                xchg eax,esp
00002E31  0000              add [eax],al
00002E33  0050AE            add [eax-0x52],dl
00002E36  0408              add al,0x8
00002E38  0400              add al,0x0
00002E3A  0000              add [eax],al
00002E3C  0100              add [eax],eax
00002E3E  1900              sbb [eax],eax
00002E40  A200000070        mov [0x70000000],al
00002E45  8C0408            mov [eax+ecx],es
00002E48  0000              add [eax],al
00002E4A  0000              add [eax],al
00002E4C  0200              add al,[eax]
00002E4E  0C00              or al,0x0
00002E50  1300              adc eax,[eax]
00002E52  0000              add [eax],al
00002E54  0000              add [eax],al
00002E56  0000              add [eax],al
00002E58  0000              add [eax],al
00002E5A  0000              add [eax],al
00002E5C  0400              add al,0x0
00002E5E  F1                int1
00002E5F  FFAE000000A4      jmp far [esi+0xa4000000]
00002E65  AB                stosd
00002E66  0408              add al,0x8
00002E68  0000              add [eax],al
00002E6A  0000              add [eax],al
00002E6C  0100              add [eax],eax
00002E6E  1200              adc al,[eax]
00002E70  BB00000020        mov ebx,0x20000000
00002E75  9B                wait
00002E76  0408              add al,0x8
00002E78  0000              add [eax],al
00002E7A  0000              add [eax],al
00002E7C  0100              add [eax],eax
00002E7E  1000              adc [eax],al
00002E80  C9                leave
00002E81  0000              add [eax],al
00002E83  00B0AB040800      add [eax+0x804ab],dh
00002E89  0000              add [eax],al
00002E8B  0001              add [ecx],al
00002E8D  001400            add [eax+eax],dl
00002E90  D500              aad 0x0
00002E92  0000              add [eax],al
00002E94  90                nop
00002E95  94                xchg eax,esp
00002E96  0408              add al,0x8
00002E98  0000              add [eax],al
00002E9A  0000              add [eax],al
00002E9C  0200              add al,[eax]
00002E9E  0C00              or al,0x0
00002EA0  0800              or [eax],al
00002EA2  0000              add [eax],al
00002EA4  0000              add [eax],al
00002EA6  0000              add [eax],al
00002EA8  0000              add [eax],al
00002EAA  0000              add [eax],al
00002EAC  0400              add al,0x0
00002EAE  F1                int1
00002EAF  FF                db 0xFF
00002EB0  EB00              jmp short 0x2eb2
00002EB2  0000              add [eax],al
00002EB4  0000              add [eax],al
00002EB6  0000              add [eax],al
00002EB8  0000              add [eax],al
00002EBA  0000              add [eax],al
00002EBC  0400              add al,0x0
00002EBE  F1                int1
00002EBF  FF0501000054      inc dword [0x54000001]
00002EC5  AE                scasb
00002EC6  0408              add al,0x8
00002EC8  0100              add [eax],eax
00002ECA  0000              add [eax],al
00002ECC  0100              add [eax],eax
00002ECE  1900              sbb [eax],eax
00002ED0  1401              adc al,0x1
00002ED2  0000              add [eax],al
00002ED4  58                pop eax
00002ED5  AE                scasb
00002ED6  0408              add al,0x8
00002ED8  0400              add al,0x0
00002EDA  0000              add [eax],al
00002EDC  0100              add [eax],eax
00002EDE  1900              sbb [eax],eax
00002EE0  1C01              sbb al,0x1
00002EE2  0000              add [eax],al
00002EE4  5C                pop esp
00002EE5  AE                scasb
00002EE6  0408              add al,0x8
00002EE8  0400              add al,0x0
00002EEA  0000              add [eax],al
00002EEC  0100              add [eax],eax
00002EEE  1900              sbb [eax],eax
00002EF0  2401              and al,0x1
00002EF2  0000              add [eax],al
00002EF4  C58E04081601      lds ecx,[esi+0x1160804]
00002EFA  0000              add [eax],al
00002EFC  0200              add al,[eax]
00002EFE  0C00              or al,0x0
00002F00  54                push esp
00002F01  0100              add [eax],eax
00002F03  00DB              add bl,bl
00002F05  8F0408            pop dword [eax+ecx]
00002F08  1C00              sbb al,0x0
00002F0A  0000              add [eax],al
00002F0C  0200              add al,[eax]
00002F0E  0C00              or al,0x0
00002F10  68010000F0        push dword 0xf0000001
00002F15  95                xchg eax,ebp
00002F16  0408              add al,0x8
00002F18  0400              add al,0x0
00002F1A  0000              add [eax],al
00002F1C  0100              add [eax],eax
00002F1E  0E                push cs
00002F1F  009901000000      add [ecx+0x1],bl
00002F25  0000              add [eax],al
00002F27  0000              add [eax],al
00002F29  0000              add [eax],al
00002F2B  000400            add [eax+eax],al
00002F2E  F1                int1
00002F2F  FF00              inc dword [eax]
00002F31  0000              add [eax],al
00002F33  0000              add [eax],al
00002F35  0000              add [eax],al
00002F37  0000              add [eax],al
00002F39  0000              add [eax],al
00002F3B  000400            add [eax+eax],al
00002F3E  F1                int1
00002F3F  FFA401000098AC    jmp near [ecx+eax+0xac980000]
00002F46  0408              add al,0x8
00002F48  0000              add [eax],al
00002F4A  0000              add [eax],al
00002F4C  0100              add [eax],eax
00002F4E  17                pop ss
00002F4F  00BA0100009A      add [edx+0x9a000001],bh
00002F55  AB                stosd
00002F56  0408              add al,0x8
00002F58  0000              add [eax],al
00002F5A  0000              add [eax],al
00002F5C  0000              add [eax],al
00002F5E  1200              adc al,[eax]
00002F60  CB                retf
00002F61  0100              add [eax],eax
00002F63  009AAB040800      add [edx+0x804ab],bl
00002F69  0000              add [eax],al
00002F6B  0000              add [eax],al
00002F6D  0012              add [edx],dl
00002F6F  00DE              add dh,bl
00002F71  0100              add [eax],eax
00002F73  00B4AB04080000    add [ebx+ebp*4+0x804],dh
00002F7A  0000              add [eax],al
00002F7C  0100              add [eax],eax
00002F7E  1500E70100        adc eax,0x1e700
00002F83  0014AD04080000    add [ebp*4+0x804],dl
00002F8A  0000              add [eax],al
00002F8C  2000              and [eax],al
00002F8E  1800              sbb [eax],al
00002F90  F20100            repne add [eax],eax
00002F93  0020              add [eax],ah
00002F95  AD                lodsd
00002F96  0408              add al,0x8
00002F98  90                nop
00002F99  0000              add [eax],al
00002F9B  0011              add [ecx],dl
00002F9D  0019              add [ecx],bl
00002F9F  0008              add [eax],cl
00002FA1  0200              add al,[eax]
00002FA3  0000              add [eax],al
00002FA5  0000              add [eax],al
00002FA7  0000              add [eax],al
00002FA9  0000              add [eax],al
00002FAB  0012              add [edx],dl
00002FAD  0000              add [eax],al
00002FAF  001F              add [edi],bl
00002FB1  0200              add al,[eax]
00002FB3  0000              add [eax],al
00002FB5  0000              add [eax],al
00002FB7  0000              add [eax],al
00002FB9  0000              add [eax],al
00002FBB  0012              add [edx],dl
00002FBD  0000              add [eax],al
00002FBF  0039              add [ecx],bh
00002FC1  0200              add al,[eax]
00002FC3  0000              add [eax],al
00002FC5  0000              add [eax],al
00002FC7  0000              add [eax],al
00002FC9  0000              add [eax],al
00002FCB  0012              add [edx],dl
00002FCD  0000              add [eax],al
00002FCF  005002            add [eax+0x2],dl
00002FD2  0000              add [eax],al
00002FD4  44                inc esp
00002FD5  92                xchg eax,edx
00002FD6  0408              add al,0x8
00002FD8  27                daa
00002FD9  0000              add [eax],al
00002FDB  0022              add [edx],ah
00002FDD  000C00            add [eax+eax],cl
00002FE0  7F02              jg 0x2fe4
00002FE2  0000              add [eax],al
00002FE4  0000              add [eax],al
00002FE6  0000              add [eax],al
00002FE8  0000              add [eax],al
00002FEA  0000              add [eax],al
00002FEC  1200              adc al,[eax]
00002FEE  0000              add [eax],al
00002FF0  99                cdq
00002FF1  0200              add al,[eax]
00002FF3  0020              add [eax],ah
00002FF5  94                xchg eax,esp
00002FF6  0408              add al,0x8
00002FF8  0500000012        add eax,0x12000000
00002FFD  000C00            add [eax+eax],cl
00003000  A902000010        test eax,0x10000002
00003005  93                xchg eax,ebx
00003006  0408              add al,0x8
00003008  2D00000022        sub eax,0x22000000
0000300D  000C00            add [eax+eax],cl
00003010  D7                xlatb
00003011  0200              add al,[eax]
00003013  00808B040800      add [eax+0x8048b],al
00003019  0000              add [eax],al
0000301B  0012              add [edx],dl
0000301D  000C00            add [eax+eax],cl
00003020  DE02              fiadd word [edx]
00003022  0000              add [eax],al
00003024  0000              add [eax],al
00003026  0000              add [eax],al
00003028  0000              add [eax],al
0000302A  0000              add [eax],al
0000302C  1200              adc al,[eax]
0000302E  0000              add [eax],al
00003030  3C03              cmp al,0x3
00003032  0000              add [eax],al
00003034  B890040813        mov eax,0x13080490
00003039  0000              add [eax],al
0000303B  0022              add [edx],ah
0000303D  000C00            add [eax+eax],cl
00003040  6A03              push byte +0x3
00003042  0000              add [eax],al
00003044  0A9204083A00      or dl,[edx+0x3a0804]
0000304A  0000              add [eax],al
0000304C  2200              and al,[eax]
0000304E  0C00              or al,0x0
00003050  9B                wait
00003051  0300              add eax,[eax]
00003053  0000              add [eax],al
00003055  0000              add [eax],al
00003057  0000              add [eax],al
00003059  0000              add [eax],al
0000305B  0020              add [eax],ah
0000305D  0000              add [eax],al
0000305F  00AA03000000      add [edx+0x3],ch
00003065  0000              add [eax],al
00003067  0000              add [eax],al
00003069  0000              add [eax],al
0000306B  0020              add [eax],ah
0000306D  0000              add [eax],al
0000306F  00BE030000D4      add [esi+0xd4000003],bh
00003075  94                xchg eax,esp
00003076  0408              add al,0x8
00003078  0400              add al,0x0
0000307A  0000              add [eax],al
0000307C  1100              adc [eax],eax
0000307E  0E                push cs
0000307F  00C5              add ch,al
00003081  0300              add eax,[eax]
00003083  0000              add [eax],al
00003085  0000              add [eax],al
00003087  0000              add [eax],al
00003089  0000              add [eax],al
0000308B  0012              add [edx],dl
0000308D  0000              add [eax],al
0000308F  00DC              add ah,bl
00003091  0300              add eax,[eax]
00003093  0000              add [eax],al
00003095  0000              add [eax],al
00003097  0000              add [eax],al
00003099  0000              add [eax],al
0000309B  0012              add [edx],dl
0000309D  0000              add [eax],al
0000309F  00F0              add al,dh
000030A1  0300              add eax,[eax]
000030A3  00B894040800      add [eax+0x80494],bh
000030A9  0000              add [eax],al
000030AB  0012              add [edx],dl
000030AD  000D00F60300      add [0x3f600],cl
000030B3  0000              add [eax],al
000030B5  0000              add [eax],al
000030B7  0000              add [eax],al
000030B9  0000              add [eax],al
000030BB  0012              add [edx],dl
000030BD  0000              add [eax],al
000030BF  0011              add [ecx],dl
000030C1  0400              add al,0x0
000030C3  0000              add [eax],al
000030C5  0000              add [eax],al
000030C7  0000              add [eax],al
000030C9  0000              add [eax],al
000030CB  0012              add [edx],dl
000030CD  0000              add [eax],al
000030CF  0036              add [esi],dh
000030D1  0400              add al,0x0
000030D3  0016              add [esi],dl
000030D5  91                xchg eax,ecx
000030D6  0408              add al,0x8
000030D8  5C                pop esp
000030D9  0000              add [eax],al
000030DB  0022              add [edx],ah
000030DD  000C00            add [eax+eax],cl
000030E0  56                push esi
000030E1  0400              add al,0x0
000030E3  0000              add [eax],al
000030E5  0000              add [eax],al
000030E7  0000              add [eax],al
000030E9  0000              add [eax],al
000030EB  0012              add [edx],dl
000030ED  0000              add [eax],al
000030EF  006804            add [eax+0x4],ch
000030F2  0000              add [eax],al
000030F4  A6                cmpsb
000030F5  92                xchg eax,edx
000030F6  0408              add al,0x8
000030F8  2F                das
000030F9  0000              add [eax],al
000030FB  0022              add [edx],ah
000030FD  000C00            add [eax+eax],cl
00003100  93                xchg eax,ebx
00003101  0400              add al,0x0
00003103  0000              add [eax],al
00003105  0000              add [eax],al
00003107  0000              add [eax],al
00003109  0000              add [eax],al
0000310B  0012              add [edx],dl
0000310D  0000              add [eax],al
0000310F  00B0040000E9      add [eax+0xe9000004],dh
00003115  92                xchg eax,edx
00003116  0408              add al,0x8
00003118  2100              and [eax],eax
0000311A  0000              add [eax],al
0000311C  2200              and al,[eax]
0000311E  0C00              or al,0x0
00003120  DC0400            fadd qword [eax+eax]
00003123  0000              add [eax],al
00003125  0000              add [eax],al
00003127  0000              add [eax],al
00003129  0000              add [eax],al
0000312B  0012              add [edx],dl
0000312D  0000              add [eax],al
0000312F  001F              add [edi],bl
00003131  0500001691        add eax,0x91160000
00003136  0408              add al,0x8
00003138  5C                pop esp
00003139  0000              add [eax],al
0000313B  0022              add [edx],ah
0000313D  000C00            add [eax+eax],cl
00003140  3F                aas
00003141  0500007291        add eax,0x91720000
00003146  0408              add al,0x8
00003148  3E0000            add [ds:eax],al
0000314B  0022              add [edx],ah
0000314D  000C00            add [eax+eax],cl
00003150  6D                insd
00003151  050000908A        add eax,0x8a900000
00003156  0408              add al,0x8
00003158  0000              add [eax],al
0000315A  0000              add [eax],al
0000315C  1200              adc al,[eax]
0000315E  0000              add [eax],al
00003160  92                xchg eax,edx
00003161  0500000000        add eax,0x0
00003166  0000              add [eax],al
00003168  0000              add [eax],al
0000316A  0000              add [eax],al
0000316C  2000              and [eax],al
0000316E  0000              add [eax],al
00003170  AE                scasb
00003171  0500000000        add eax,0x0
00003176  0000              add [eax],al
00003178  0000              add [eax],al
0000317A  0000              add [eax],al
0000317C  1200              adc al,[eax]
0000317E  0000              add [eax],al
00003180  F3050000B091      rep add eax,0x91b00000
00003186  0408              add al,0x8
00003188  0800              or [eax],al
0000318A  0000              add [eax],al
0000318C  2200              and al,[eax]
0000318E  0C00              or al,0x0
00003190  2606              es push es
00003192  0000              add [eax],al
00003194  D8940408040000    fcom dword [esp+eax+0x408]
0000319B  0011              add [ecx],dl
0000319D  000E              add [esi],cl
0000319F  0035060000B0      add [0xb0000006],dh
000031A5  8A0408            mov al,[eax+ecx]
000031A8  0000              add [eax],al
000031AA  0000              add [eax],al
000031AC  1200              adc al,[eax]
000031AE  0000              add [eax],al
000031B0  4C                dec esp
000031B1  06                push es
000031B2  0000              add [eax],al
000031B4  0000              add [eax],al
000031B6  0000              add [eax],al
000031B8  0000              add [eax],al
000031BA  0000              add [eax],al
000031BC  2000              and [eax],al
000031BE  0000              add [eax],al
000031C0  6606              o16 push es
000031C2  0000              add [eax],al
000031C4  14AD              adc al,0xad
000031C6  0408              add al,0x8
000031C8  0000              add [eax],al
000031CA  0000              add [eax],al
000031CC  1000              adc [eax],al
000031CE  1800              sbb [eax],al
000031D0  7306              jnc 0x31d8
000031D2  0000              add [eax],al
000031D4  A890              test al,0x90
000031D6  0408              add al,0x8
000031D8  0F0000            sldt [eax]
000031DB  0022              add [edx],ah
000031DD  000C00            add [eax+eax],cl
000031E0  8C06              mov [esi],es
000031E2  0000              add [eax],al
000031E4  0000              add [eax],al
000031E6  0000              add [eax],al
000031E8  0000              add [eax],al
000031EA  0000              add [eax],al
000031EC  1200              adc al,[eax]
000031EE  0000              add [eax],al
000031F0  A4                movsb
000031F1  06                push es
000031F2  0000              add [eax],al
000031F4  DA9304083700      ficom dword [ebx+0x370804]
000031FA  0000              add [eax],al
000031FC  2200              and al,[eax]
000031FE  0C00              or al,0x0
00003200  0007              add [edi],al
00003202  0000              add [eax],al
00003204  B890040813        mov eax,0x13080490
00003209  0000              add [eax],al
0000320B  0022              add [edx],ah
0000320D  000C00            add [eax+eax],cl
00003210  2E07              cs pop es
00003212  0000              add [eax],al
00003214  A4                movsb
00003215  93                xchg eax,ebx
00003216  0408              add al,0x8
00003218  2E0000            add [cs:eax],al
0000321B  0022              add [edx],ah
0000321D  000C00            add [eax+eax],cl
00003220  90                nop
00003221  07                pop es
00003222  0000              add [eax],al
00003224  CC                int3
00003225  90                nop
00003226  0408              add al,0x8
00003228  4A                dec edx
00003229  0000              add [eax],al
0000322B  0022              add [edx],ah
0000322D  000C00            add [eax+eax],cl
00003230  B507              mov ch,0x7
00003232  0000              add [eax],al
00003234  D29104083700      rcl byte [ecx+0x370804],cl
0000323A  0000              add [eax],al
0000323C  2200              and al,[eax]
0000323E  0C00              or al,0x0
00003240  E707              out 0x7,eax
00003242  0000              add [eax],al
00003244  1CAD              sbb al,0xad
00003246  0408              add al,0x8
00003248  0000              add [eax],al
0000324A  0000              add [eax],al
0000324C  1102              adc [edx],eax
0000324E  1800              sbb [eax],al
00003250  F307              rep pop es
00003252  0000              add [eax],al
00003254  0000              add [eax],al
00003256  0000              add [eax],al
00003258  0000              add [eax],al
0000325A  0000              add [eax],al
0000325C  1200              adc al,[eax]
0000325E  0000              add [eax],al
00003260  1308              adc ecx,[eax]
00003262  0000              add [eax],al
00003264  C0AD04088C0000    shr byte [ebp+0x8c0804],0x0
0000326B  0011              add [ecx],dl
0000326D  0019              add [ecx],bl
0000326F  002A              add [edx],ch
00003271  0800              or [eax],al
00003273  0018              add [eax],bl
00003275  AD                lodsd
00003276  0408              add al,0x8
00003278  0000              add [eax],al
0000327A  0000              add [eax],al
0000327C  1102              adc [edx],eax
0000327E  1800              sbb [eax],al
00003280  37                aaa
00003281  0800              or [eax],al
00003283  00CC              add ah,cl
00003285  90                nop
00003286  0408              add al,0x8
00003288  4A                dec edx
00003289  0000              add [eax],al
0000328B  0022              add [edx],ah
0000328D  000C00            add [eax+eax],cl
00003290  5C                pop esp
00003291  0800              or [eax],al
00003293  005090            add [eax-0x70],dl
00003296  0408              add al,0x8
00003298  57                push edi
00003299  0000              add [eax],al
0000329B  0022              add [edx],ah
0000329D  000C00            add [eax+eax],cl
000032A0  7508              jnz 0x32aa
000032A2  0000              add [eax],al
000032A4  AC                lodsb
000032A5  AB                stosd
000032A6  0408              add al,0x8
000032A8  0000              add [eax],al
000032AA  0000              add [eax],al
000032AC  1102              adc [edx],eax
000032AE  1300              adc eax,[eax]
000032B0  82                db 0x82
000032B1  0800              or [eax],al
000032B3  0030              add [eax],dh
000032B5  94                xchg eax,esp
000032B6  0408              add al,0x8
000032B8  5A                pop edx
000032B9  0000              add [eax],al
000032BB  0012              add [edx],dl
000032BD  000C00            add [eax+eax],cl
000032C0  92                xchg eax,edx
000032C1  0800              or [eax],al
000032C3  003D93040821      add [0x21080493],bh
000032C9  0000              add [eax],al
000032CB  0022              add [edx],ah
000032CD  000C00            add [eax+eax],cl
000032D0  D9                db 0xD9
000032D1  0800              or [eax],al
000032D3  0000              add [eax],al
000032D5  0000              add [eax],al
000032D7  0000              add [eax],al
000032D9  0000              add [eax],al
000032DB  0012              add [edx],dl
000032DD  0000              add [eax],al
000032DF  00EC              add ah,ch
000032E1  0800              or [eax],al
000032E3  00F8              add al,bh
000032E5  8F0408            pop dword [eax+ecx]
000032E8  58                pop eax
000032E9  0000              add [eax],al
000032EB  0022              add [edx],ah
000032ED  000C00            add [eax+eax],cl
000032F0  0D090000D6        or eax,0xd6000009
000032F5  92                xchg eax,edx
000032F6  0408              add al,0x8
000032F8  1300              adc eax,[eax]
000032FA  0000              add [eax],al
000032FC  2200              and al,[eax]
000032FE  0C00              or al,0x0
00003300  3D0900001C        cmp eax,0x1c000009
00003305  AD                lodsd
00003306  0408              add al,0x8
00003308  0000              add [eax],al
0000330A  0000              add [eax],al
0000330C  1000              adc [eax],al
0000330E  1900              sbb [eax],eax
00003310  49                dec ecx
00003311  0900              or [eax],eax
00003313  009193040813      add [ecx+0x13080493],dl
00003319  0000              add [eax],al
0000331B  0022              add [edx],ah
0000331D  000C00            add [eax+eax],cl
00003320  8709              xchg ecx,[ecx]
00003322  0000              add [eax],al
00003324  0000              add [eax],al
00003326  0000              add [eax],al
00003328  0000              add [eax],al
0000332A  0000              add [eax],al
0000332C  1200              adc al,[eax]
0000332E  0000              add [eax],al
00003330  A109000068        mov eax,[0x68000009]
00003335  93                xchg eax,ebx
00003336  0408              add al,0x8
00003338  2900              sub [eax],eax
0000333A  0000              add [eax],al
0000333C  2200              and al,[eax]
0000333E  0C00              or al,0x0
00003340  C00900            ror byte [ecx],0x0
00003343  0000              add [eax],al
00003345  0000              add [eax],al
00003347  0000              add [eax],al
00003349  0000              add [eax],al
0000334B  0020              add [eax],ah
0000334D  0000              add [eax],al
0000334F  00D5              add ch,dl
00003351  0900              or [eax],eax
00003353  0000              add [eax],al
00003355  0000              add [eax],al
00003357  0000              add [eax],al
00003359  0000              add [eax],al
0000335B  0012              add [edx],dl
0000335D  0000              add [eax],al
0000335F  00ED              add ch,ch
00003361  0900              or [eax],eax
00003363  005E93            add [esi-0x6d],bl
00003366  0408              add al,0x8
00003368  0A00              or al,[eax]
0000336A  0000              add [eax],al
0000336C  2200              and al,[eax]
0000336E  0C00              or al,0x0
00003370  190A              sbb [edx],ecx
00003372  0000              add [eax],al
00003374  60                pusha
00003375  AE                scasb
00003376  0408              add al,0x8
00003378  0000              add [eax],al
0000337A  0000              add [eax],al
0000337C  1000              adc [eax],al
0000337E  1900              sbb [eax],eax
00003380  1E                push ds
00003381  0A00              or al,[eax]
00003383  0000              add [eax],al
00003385  0000              add [eax],al
00003387  0000              add [eax],al
00003389  0000              add [eax],al
0000338B  0012              add [edx],dl
0000338D  0000              add [eax],al
0000338F  003C0A            add [edx+ecx],bh
00003392  0000              add [eax],al
00003394  8C9204081A00      mov [edx+0x1a0804],ss
0000339A  0000              add [eax],al
0000339C  2200              and al,[eax]
0000339E  0C00              or al,0x0
000033A0  54                push esp
000033A1  0A00              or al,[eax]
000033A3  0000              add [eax],al
000033A5  0000              add [eax],al
000033A7  0000              add [eax],al
000033A9  0000              add [eax],al
000033AB  0012              add [edx],dl
000033AD  0000              add [eax],al
000033AF  007A0A            add [edx+0xa],bh
000033B2  0000              add [eax],al
000033B4  0A9304080500      or dl,[ebx+0x50804]
000033BA  0000              add [eax],al
000033BC  2200              and al,[eax]
000033BE  0C00              or al,0x0
000033C0  A90A0000D2        test eax,0xd200000a
000033C5  93                xchg eax,ebx
000033C6  0408              add al,0x8
000033C8  0800              or [eax],al
000033CA  0000              add [eax],al
000033CC  2200              and al,[eax]
000033CE  0C00              or al,0x0
000033D0  CF                iret
000033D1  0A00              or al,[eax]
000033D3  00D2              add dl,dl
000033D5  91                xchg eax,ecx
000033D6  0408              add al,0x8
000033D8  37                aaa
000033D9  0000              add [eax],al
000033DB  0022              add [edx],ah
000033DD  000C00            add [eax+eax],cl
000033E0  010B              add [ebx],ecx
000033E2  0000              add [eax],al
000033E4  308B04080000      xor [ebx+0x804],cl
000033EA  0000              add [eax],al
000033EC  1200              adc al,[eax]
000033EE  0000              add [eax],al
000033F0  49                dec ecx
000033F1  0B00              or eax,[eax]
000033F3  00F8              add al,bh
000033F5  8F0408            pop dword [eax+ecx]
000033F8  58                pop eax
000033F9  0000              add [eax],al
000033FB  0022              add [edx],ah
000033FD  000C00            add [eax+eax],cl
00003400  6A0B              push byte +0xb
00003402  0000              add [eax],al
00003404  1CAD              sbb al,0xad
00003406  0408              add al,0x8
00003408  0000              add [eax],al
0000340A  0000              add [eax],al
0000340C  1000              adc [eax],al
0000340E  1800              sbb [eax],al
00003410  710B              jno 0x341d
00003412  0000              add [eax],al
00003414  0000              add [eax],al
00003416  0000              add [eax],al
00003418  0000              add [eax],al
0000341A  0000              add [eax],al
0000341C  1200              adc al,[eax]
0000341E  0000              add [eax],al
00003420  8B0B              mov ecx,[ebx]
00003422  0000              add [eax],al
00003424  50                push eax
00003425  8B0408            mov eax,[eax+ecx]
00003428  0000              add [eax],al
0000342A  0000              add [eax],al
0000342C  1200              adc al,[eax]
0000342E  0000              add [eax],al
00003430  AC                lodsb
00003431  0B00              or eax,[eax]
00003433  005090            add [eax-0x70],dl
00003436  0408              add al,0x8
00003438  57                push edi
00003439  0000              add [eax],al
0000343B  0022              add [edx],ah
0000343D  000C00            add [eax+eax],cl
00003440  C50B              lds ecx,[ebx]
00003442  0000              add [eax],al
00003444  6B920408210000    imul edx,[edx+0x210804],byte +0x0
0000344B  0022              add [edx],ah
0000344D  000C00            add [eax+eax],cl
00003450  FE0B              dec byte [ebx]
00003452  0000              add [eax],al
00003454  0000              add [eax],al
00003456  0000              add [eax],al
00003458  0000              add [eax],al
0000345A  0000              add [eax],al
0000345C  1200              adc al,[eax]
0000345E  0000              add [eax],al
00003460  16                push ss
00003461  0C00              or al,0x0
00003463  0000              add [eax],al
00003465  0000              add [eax],al
00003467  0000              add [eax],al
00003469  0000              add [eax],al
0000346B  0012              add [edx],dl
0000346D  0000              add [eax],al
0000346F  0033              add [ebx],dh
00003471  0C00              or al,0x0
00003473  00B89104081A      add [eax+0x1a080491],bh
00003479  0000              add [eax],al
0000347B  0022              add [edx],ah
0000347D  000C00            add [eax+eax],cl
00003480  54                push esp
00003481  0C00              or al,0x0
00003483  008A94040800      add [edx+0x80494],cl
00003489  0000              add [eax],al
0000348B  0012              add [edx],dl
0000348D  020C00            add cl,[eax+eax]
00003490  6B0C0000          imul ecx,[eax+eax],byte +0x0
00003494  A08C040825        mov al,[0x2508048c]
00003499  0200              add al,[eax]
0000349B  0012              add [edx],dl
0000349D  000C00            add [eax+eax],cl
000034A0  700C              jo 0x34ae
000034A2  0000              add [eax],al
000034A4  7C89              jl 0x342f
000034A6  0408              add al,0x8
000034A8  0000              add [eax],al
000034AA  0000              add [eax],al
000034AC  1200              adc al,[eax]
000034AE  0A00              or al,[eax]
000034B0  00696E            add [ecx+0x6e],ch
000034B3  69742E6300696E69  imul esi,[esi+ebp+0x63],dword 0x696e6900
000034BB  7466              jz 0x3523
000034BD  696E692E630063    imul ebp,[esi+0x69],dword 0x6300632e
000034C4  7274              jc 0x353a
000034C6  7374              jnc 0x353c
000034C8  7566              jnz 0x3530
000034CA  662E6300          o16 arpl [cs:eax],ax
000034CE  5F                pop edi
000034CF  5F                pop edi
000034D0  43                inc ebx
000034D1  54                push esp
000034D2  4F                dec edi
000034D3  52                push edx
000034D4  5F                pop edi
000034D5  4C                dec esp
000034D6  49                dec ecx
000034D7  53                push ebx
000034D8  54                push esp
000034D9  5F                pop edi
000034DA  5F                pop edi
000034DB  005F5F            add [edi+0x5f],bl
000034DE  44                inc esp
000034DF  54                push esp
000034E0  4F                dec edi
000034E1  52                push edx
000034E2  5F                pop edi
000034E3  4C                dec esp
000034E4  49                dec ecx
000034E5  53                push ebx
000034E6  54                push esp
000034E7  5F                pop edi
000034E8  5F                pop edi
000034E9  005F5F            add [edi+0x5f],bl
000034EC  4A                dec edx
000034ED  43                inc ebx
000034EE  52                push edx
000034EF  5F                pop edi
000034F0  4C                dec esp
000034F1  49                dec ecx
000034F2  53                push ebx
000034F3  54                push esp
000034F4  5F                pop edi
000034F5  5F                pop edi
000034F6  00646572          add [ebp+0x72],ah
000034FA  656769737465725F  imul esi,[gs:bp+di+0x74],dword 0x745f7265
         -74
00003503  6D                insd
00003504  5F                pop edi
00003505  636C6F6E          arpl [edi+ebp*2+0x6e],bp
00003509  657300            gs jnc 0x350c
0000350C  7265              jc 0x3573
0000350E  6769737465725F74  imul esi,[bp+di+0x74],dword 0x745f7265
00003516  6D                insd
00003517  5F                pop edi
00003518  636C6F6E          arpl [edi+ebp*2+0x6e],bp
0000351C  657300            gs jnc 0x351f
0000351F  5F                pop edi
00003520  5F                pop edi
00003521  646F              fs outsd
00003523  5F                pop edi
00003524  676C              a16 insb
00003526  6F                outsd
00003527  62616C            bound esp,[ecx+0x6c]
0000352A  5F                pop edi
0000352B  64746F            fs jz 0x359d
0000352E  7273              jc 0x35a3
00003530  5F                pop edi
00003531  61                popa
00003532  7578              jnz 0x35ac
00003534  00636F            add [ebx+0x6f],ah
00003537  6D                insd
00003538  706C              jo 0x35a6
0000353A  657465            gs jz 0x35a2
0000353D  642E3333          xor esi,[cs:ebx]
00003541  3238              xor bh,[eax]
00003543  0064746F          add [esp+esi*2+0x6f],ah
00003547  725F              jc 0x35a8
00003549  6964782E33333330  imul esp,[eax+edi*2+0x2e],dword 0x30333333
00003551  006672            add [esi+0x72],ah
00003554  61                popa
00003555  6D                insd
00003556  655F              gs pop edi
00003558  64756D            fs jnz 0x35c8
0000355B  6D                insd
0000355C  7900              jns 0x355e
0000355E  5F                pop edi
0000355F  5F                pop edi
00003560  43                inc ebx
00003561  54                push esp
00003562  4F                dec edi
00003563  52                push edx
00003564  5F                pop edi
00003565  45                inc ebp
00003566  4E                dec esi
00003567  44                inc esp
00003568  5F                pop edi
00003569  5F                pop edi
0000356A  005F5F            add [edi+0x5f],bl
0000356D  46                inc esi
0000356E  52                push edx
0000356F  41                inc ecx
00003570  4D                dec ebp
00003571  45                inc ebp
00003572  5F                pop edi
00003573  45                inc ebp
00003574  4E                dec esi
00003575  44                inc esp
00003576  5F                pop edi
00003577  5F                pop edi
00003578  005F5F            add [edi+0x5f],bl
0000357B  4A                dec edx
0000357C  43                inc ebx
0000357D  52                push edx
0000357E  5F                pop edi
0000357F  45                inc ebp
00003580  4E                dec esi
00003581  44                inc esp
00003582  5F                pop edi
00003583  5F                pop edi
00003584  005F5F            add [edi+0x5f],bl
00003587  646F              fs outsd
00003589  5F                pop edi
0000358A  676C              a16 insb
0000358C  6F                outsd
0000358D  62616C            bound esp,[ecx+0x6c]
00003590  5F                pop edi
00003591  63746F72          arpl [edi+ebp*2+0x72],si
00003595  735F              jnc 0x35f6
00003597  61                popa
00003598  7578              jnz 0x3612
0000359A  0031              add [ecx],dh
0000359C  3436              xor al,0x36
0000359E  303438            xor [eax+edi],dh
000035A1  385F31            cmp [edi+0x31],bl
000035A4  3438              xor al,0x38
000035A6  333438            xor esi,[eax+edi]
000035A9  355F46656C        xor eax,0x6c65465f
000035AE  69782E63707000    imul edi,[eax+0x2e],dword 0x707063
000035B5  5F                pop edi
000035B6  5A                pop edx
000035B7  53                push ebx
000035B8  744C              jz 0x3606
000035BA  385F5F            cmp [edi+0x5f],bl
000035BD  696F696E697400    imul ebp,[edi+0x69],dword 0x74696e
000035C4  5F                pop edi
000035C5  5A                pop edx
000035C6  4C                dec esp
000035C7  33474F            xor eax,[edi+0x4f]
000035CA  4F                dec edi
000035CB  005F5A            add [edi+0x5a],bl
000035CE  4C                dec esp
000035CF  33454E            xor eax,[ebp+0x4e]
000035D2  47                inc edi
000035D3  005F5A            add [edi+0x5a],bl
000035D6  3431              xor al,0x31
000035D8  5F                pop edi
000035D9  5F                pop edi
000035DA  7374              jnc 0x3650
000035DC  61                popa
000035DD  7469              jz 0x3648
000035DF  635F69            arpl [edi+0x69],bx
000035E2  6E                outsb
000035E3  697469616C697A61  imul esi,[ecx+ebp*2+0x61],dword 0x617a696c
000035EB  7469              jz 0x3656
000035ED  6F                outsd
000035EE  6E                outsb
000035EF  5F                pop edi
000035F0  61                popa
000035F1  6E                outsb
000035F2  645F              fs pop edi
000035F4  64657374          gs jnc 0x366c
000035F8  7275              jc 0x366f
000035FA  6374696F          arpl [ecx+ebp*2+0x6f],si
000035FE  6E                outsb
000035FF  5F                pop edi
00003600  306969            xor [ecx+0x69],ch
00003603  005F47            add [edi+0x47],bl
00003606  4C                dec esp
00003607  4F                dec edi
00003608  42                inc edx
00003609  41                inc ecx
0000360A  4C                dec esp
0000360B  5F                pop edi
0000360C  5F                pop edi
0000360D  7375              jnc 0x3684
0000360F  625F49            bound ebx,[edi+0x49]
00003612  5F                pop edi
00003613  6D                insd
00003614  61                popa
00003615  696E005F5A5A4C    imul ebp,[esi+0x0],dword 0x4c5a5a5f
0000361C  3138              xor [eax],edi
0000361E  5F                pop edi
0000361F  5F                pop edi
00003620  677468            a16 jz 0x368b
00003623  7265              jc 0x368a
00003625  61                popa
00003626  645F              fs pop edi
00003628  61                popa
00003629  63746976          arpl [ecx+ebp*2+0x76],si
0000362D  655F              gs pop edi
0000362F  7076              jo 0x36a7
00003631  45                inc ebp
00003632  3230              xor dh,[eax]
00003634  5F                pop edi
00003635  5F                pop edi
00003636  677468            a16 jz 0x36a1
00003639  7265              jc 0x36a0
0000363B  61                popa
0000363C  645F              fs pop edi
0000363E  61                popa
0000363F  63746976          arpl [ecx+ebp*2+0x76],si
00003643  655F              gs pop edi
00003645  7074              jo 0x36bb
00003647  7200              jc 0x3649
00003649  656C              gs insb
0000364B  662D696E          sub ax,0x6e69
0000364F  69742E63005F474C  imul esi,[esi+ebp+0x63],dword 0x4c475f00
00003657  4F                dec edi
00003658  42                inc edx
00003659  41                inc ecx
0000365A  4C                dec esp
0000365B  5F                pop edi
0000365C  4F                dec edi
0000365D  46                inc esi
0000365E  46                inc esi
0000365F  53                push ebx
00003660  45                inc ebp
00003661  54                push esp
00003662  5F                pop edi
00003663  54                push esp
00003664  41                inc ecx
00003665  42                inc edx
00003666  4C                dec esp
00003667  45                inc ebp
00003668  5F                pop edi
00003669  005F5F            add [edi+0x5f],bl
0000366C  696E69745F6172    imul ebp,[esi+0x69],dword 0x72615f74
00003673  7261              jc 0x36d6
00003675  795F              jns 0x36d6
00003677  656E              gs outsb
00003679  64005F5F          add [fs:edi+0x5f],bl
0000367D  696E69745F6172    imul ebp,[esi+0x69],dword 0x72615f74
00003684  7261              jc 0x36e7
00003686  795F              jns 0x36e7
00003688  7374              jnc 0x36fe
0000368A  61                popa
0000368B  7274              jc 0x3701
0000368D  005F44            add [edi+0x44],bl
00003690  59                pop ecx
00003691  4E                dec esi
00003692  41                inc ecx
00003693  4D                dec ebp
00003694  49                dec ecx
00003695  43                inc ebx
00003696  00646174          add [ecx+0x74],ah
0000369A  61                popa
0000369B  5F                pop edi
0000369C  7374              jnc 0x3712
0000369E  61                popa
0000369F  7274              jc 0x3715
000036A1  005F5A            add [edi+0x5a],bl
000036A4  53                push ebx
000036A5  7433              jz 0x36da
000036A7  63696E            arpl [ecx+0x6e],bp
000036AA  40                inc eax
000036AB  40                inc eax
000036AC  47                inc edi
000036AD  4C                dec esp
000036AE  49                dec ecx
000036AF  42                inc edx
000036B0  43                inc ebx
000036B1  58                pop eax
000036B2  58                pop eax
000036B3  5F                pop edi
000036B4  332E              xor ebp,[esi]
000036B6  3400              xor al,0x0
000036B8  5F                pop edi
000036B9  5A                pop edx
000036BA  4E                dec esi
000036BB  53                push ebx
000036BC  7343              jnc 0x3701
000036BE  314576            xor [ebp+0x76],eax
000036C1  40                inc eax
000036C2  40                inc eax
000036C3  47                inc edi
000036C4  4C                dec esp
000036C5  49                dec ecx
000036C6  42                inc edx
000036C7  43                inc ebx
000036C8  58                pop eax
000036C9  58                pop eax
000036CA  5F                pop edi
000036CB  332E              xor ebp,[esi]
000036CD  3400              xor al,0x0
000036CF  5F                pop edi
000036D0  5A                pop edx
000036D1  4E                dec esi
000036D2  53                push ebx
000036D3  61                popa
000036D4  49                dec ecx
000036D5  634544            arpl [ebp+0x44],ax
000036D8  324576            xor al,[ebp+0x76]
000036DB  40                inc eax
000036DC  40                inc eax
000036DD  47                inc edi
000036DE  4C                dec esp
000036DF  49                dec ecx
000036E0  42                inc edx
000036E1  43                inc ebx
000036E2  58                pop eax
000036E3  58                pop eax
000036E4  5F                pop edi
000036E5  332E              xor ebp,[esi]
000036E7  3400              xor al,0x0
000036E9  5F                pop edi
000036EA  5A                pop edx
000036EB  4E                dec esi
000036EC  53                push ebx
000036ED  6F                outsd
000036EE  6C                insb
000036EF  7345              jnc 0x3736
000036F1  694040474C4942    imul eax,[eax+0x40],dword 0x42494c47
000036F8  43                inc ebx
000036F9  58                pop eax
000036FA  58                pop eax
000036FB  5F                pop edi
000036FC  332E              xor ebp,[esi]
000036FE  3400              xor al,0x0
00003700  5F                pop edi
00003701  5A                pop edx
00003702  4E                dec esi
00003703  53                push ebx
00003704  7431              jz 0x3737
00003706  325F56            xor bl,[edi+0x56]
00003709  6563746F72        arpl [gs:edi+ebp*2+0x72],si
0000370E  5F                pop edi
0000370F  626173            bound esp,[ecx+0x73]
00003712  6549              gs dec ecx
00003714  635361            arpl [ebx+0x61],dx
00003717  49                dec ecx
00003718  634545            arpl [ebp+0x45],ax
0000371B  3133              xor [ebx],esi
0000371D  5F                pop edi
0000371E  4D                dec ebp
0000371F  5F                pop edi
00003720  646561            gs popa
00003723  6C                insb
00003724  6C                insb
00003725  6F                outsd
00003726  636174            arpl [ecx+0x74],sp
00003729  6545              gs inc ebp
0000372B  50                push eax
0000372C  636A00            arpl [edx+0x0],bp
0000372F  5F                pop edi
00003730  5F                pop edi
00003731  637861            arpl [eax+0x61],di
00003734  5F                pop edi
00003735  61                popa
00003736  7465              jz 0x379d
00003738  7869              js 0x37a3
0000373A  7440              jz 0x377c
0000373C  40                inc eax
0000373D  47                inc edi
0000373E  4C                dec esp
0000373F  49                dec ecx
00003740  42                inc edx
00003741  43                inc ebx
00003742  5F                pop edi
00003743  322E              xor ch,[esi]
00003745  312E              xor [esi],ebp
00003747  3300              xor eax,[eax]
00003749  5F                pop edi
0000374A  5F                pop edi
0000374B  6C                insb
0000374C  6962635F637375    imul esp,[edx+0x63],dword 0x7573635f
00003753  5F                pop edi
00003754  66696E69005F      imul bp,[esi+0x69],word 0x5f00
0000375A  5A                pop edx
0000375B  4E                dec esi
0000375C  395F5F            cmp [edi+0x5f],ebx
0000375F  676E              a16 outsb
00003761  755F              jnz 0x37c2
00003763  637878            arpl [eax+0x78],di
00003766  3133              xor [ebx],esi
00003768  6E                outsb
00003769  65775F            gs ja 0x37cb
0000376C  61                popa
0000376D  6C                insb
0000376E  6C                insb
0000376F  6F                outsd
00003770  636174            arpl [ecx+0x74],sp
00003773  6F                outsd
00003774  7249              jc 0x37bf
00003776  634538            arpl [ebp+0x38],ax
00003779  61                popa
0000377A  6C                insb
0000377B  6C                insb
0000377C  6F                outsd
0000377D  636174            arpl [ecx+0x74],sp
00003780  6545              gs inc ebp
00003782  6A50              push byte +0x50
00003784  4B                dec ebx
00003785  7600              jna 0x3787
00003787  5F                pop edi
00003788  7374              jnc 0x37fe
0000378A  61                popa
0000378B  7274              jc 0x3801
0000378D  005F5A            add [edi+0x5a],bl
00003790  53                push ebx
00003791  7437              jz 0x37ca
00003793  6765746C          gs a16 jz 0x3803
00003797  696E6549635374    imul ebp,[esi+0x65],dword 0x74536349
0000379E  3131              xor [ecx],esi
000037A0  636861            arpl [eax+0x61],bp
000037A3  725F              jc 0x3804
000037A5  7472              jz 0x3819
000037A7  61                popa
000037A8  6974734963455361  imul esi,[ebx+esi*2+0x49],dword 0x61534563
000037B0  49                dec ecx
000037B1  634545            arpl [ebp+0x45],ax
000037B4  52                push edx
000037B5  53                push ebx
000037B6  7431              jz 0x37e9
000037B8  336261            xor esp,[edx+0x61]
000037BB  7369              jnc 0x3826
000037BD  635F69            arpl [edi+0x69],bx
000037C0  7374              jnc 0x3836
000037C2  7265              jc 0x3829
000037C4  61                popa
000037C5  6D                insd
000037C6  49                dec ecx
000037C7  54                push esp
000037C8  5F                pop edi
000037C9  54                push esp
000037CA  305F45            xor [edi+0x45],bl
000037CD  53                push ebx
000037CE  37                aaa
000037CF  5F                pop edi
000037D0  52                push edx
000037D1  53                push ebx
000037D2  624953            bound ecx,[ecx+0x53]
000037D5  345F              xor al,0x5f
000037D7  53                push ebx
000037D8  355F54315F        xor eax,0x5f31545f
000037DD  45                inc ebp
000037DE  40                inc eax
000037DF  40                inc eax
000037E0  47                inc edi
000037E1  4C                dec esp
000037E2  49                dec ecx
000037E3  42                inc edx
000037E4  43                inc ebx
000037E5  58                pop eax
000037E6  58                pop eax
000037E7  5F                pop edi
000037E8  332E              xor ebp,[esi]
000037EA  3400              xor al,0x0
000037EC  5F                pop edi
000037ED  5A                pop edx
000037EE  4E                dec esi
000037EF  53                push ebx
000037F0  7431              jz 0x3823
000037F2  325F56            xor bl,[edi+0x56]
000037F5  6563746F72        arpl [gs:edi+ebp*2+0x72],si
000037FA  5F                pop edi
000037FB  626173            bound esp,[ecx+0x73]
000037FE  6549              gs dec ecx
00003800  635361            arpl [ebx+0x61],dx
00003803  49                dec ecx
00003804  634545            arpl [ebp+0x45],ax
00003807  3132              xor [edx],esi
00003809  5F                pop edi
0000380A  56                push esi
0000380B  6563746F72        arpl [gs:edi+ebp*2+0x72],si
00003810  5F                pop edi
00003811  696D706C443145    imul ebp,[ebp+0x70],dword 0x4531446c
00003818  7600              jna 0x381a
0000381A  5F                pop edi
0000381B  5A                pop edx
0000381C  4E                dec esi
0000381D  53                push ebx
0000381E  7431              jz 0x3851
00003820  325F56            xor bl,[edi+0x56]
00003823  6563746F72        arpl [gs:edi+ebp*2+0x72],si
00003828  5F                pop edi
00003829  626173            bound esp,[ecx+0x73]
0000382C  6549              gs dec ecx
0000382E  635361            arpl [ebx+0x61],dx
00003831  49                dec ecx
00003832  634545            arpl [ebp+0x45],ax
00003835  3137              xor [edi],esi
00003837  5F                pop edi
00003838  4D                dec ebp
00003839  5F                pop edi
0000383A  637265            arpl [edx+0x65],si
0000383D  61                popa
0000383E  7465              jz 0x38a5
00003840  5F                pop edi
00003841  7374              jnc 0x38b7
00003843  6F                outsd
00003844  7261              jc 0x38a7
00003846  676545            gs a16 inc ebp
00003849  6A00              push byte +0x0
0000384B  5F                pop edi
0000384C  5F                pop edi
0000384D  676D              a16 insd
0000384F  6F                outsd
00003850  6E                outsb
00003851  5F                pop edi
00003852  7374              jnc 0x38c8
00003854  61                popa
00003855  7274              jc 0x38cb
00003857  5F                pop edi
00003858  5F                pop edi
00003859  005F4A            add [edi+0x4a],bl
0000385C  765F              jna 0x38bd
0000385E  52                push edx
0000385F  6567697374657243  imul esi,[gs:bp+di+0x74],dword 0x6c437265
         -6C
00003868  61                popa
00003869  7373              jnc 0x38de
0000386B  657300            gs jnc 0x386e
0000386E  5F                pop edi
0000386F  66705F            o16 jo 0x38d1
00003872  6877005F5A        push dword 0x5a5f0077
00003877  4E                dec esi
00003878  53                push ebx
00003879  7369              jnc 0x38e4
0000387B  7845              js 0x38c2
0000387D  6A40              push byte +0x40
0000387F  40                inc eax
00003880  47                inc edi
00003881  4C                dec esp
00003882  49                dec ecx
00003883  42                inc edx
00003884  43                inc ebx
00003885  58                pop eax
00003886  58                pop eax
00003887  5F                pop edi
00003888  332E              xor ebp,[esi]
0000388A  3400              xor al,0x0
0000388C  5F                pop edi
0000388D  5A                pop edx
0000388E  646C              fs insb
00003890  50                push eax
00003891  7640              jna 0x38d3
00003893  40                inc eax
00003894  47                inc edi
00003895  4C                dec esp
00003896  49                dec ecx
00003897  42                inc edx
00003898  43                inc ebx
00003899  58                pop eax
0000389A  58                pop eax
0000389B  5F                pop edi
0000389C  332E              xor ebp,[esi]
0000389E  3400              xor al,0x0
000038A0  5F                pop edi
000038A1  66696E69005F      imul bp,[esi+0x69],word 0x5f00
000038A7  5A                pop edx
000038A8  4E                dec esi
000038A9  4B                dec ebx
000038AA  53                push ebx
000038AB  7334              jnc 0x38e1
000038AD  7369              jnc 0x3918
000038AF  7A65              jpe 0x3916
000038B1  45                inc ebp
000038B2  7640              jna 0x38f4
000038B4  40                inc eax
000038B5  47                inc edi
000038B6  4C                dec esp
000038B7  49                dec ecx
000038B8  42                inc edx
000038B9  43                inc ebx
000038BA  58                pop eax
000038BB  58                pop eax
000038BC  5F                pop edi
000038BD  332E              xor ebp,[esi]
000038BF  3400              xor al,0x0
000038C1  5F                pop edi
000038C2  5A                pop edx
000038C3  4E                dec esi
000038C4  53                push ebx
000038C5  7438              jz 0x38ff
000038C7  696F735F626173    imul ebp,[edi+0x73],dword 0x7361625f
000038CE  653449            gs xor al,0x49
000038D1  6E                outsb
000038D2  6974433145764040  imul esi,[ebx+eax*2+0x31],dword 0x40407645
000038DA  47                inc edi
000038DB  4C                dec esp
000038DC  49                dec ecx
000038DD  42                inc edx
000038DE  43                inc ebx
000038DF  58                pop eax
000038E0  58                pop eax
000038E1  5F                pop edi
000038E2  332E              xor ebp,[esi]
000038E4  3400              xor al,0x0
000038E6  5F                pop edi
000038E7  5A                pop edx
000038E8  4E                dec esi
000038E9  53                push ebx
000038EA  7431              jz 0x391d
000038EC  325F56            xor bl,[edi+0x56]
000038EF  6563746F72        arpl [gs:edi+ebp*2+0x72],si
000038F4  5F                pop edi
000038F5  626173            bound esp,[ecx+0x73]
000038F8  6549              gs dec ecx
000038FA  635361            arpl [ebx+0x61],dx
000038FD  49                dec ecx
000038FE  634545            arpl [ebp+0x45],ax
00003901  44                inc esp
00003902  314576            xor [ebp+0x76],eax
00003905  006D65            add [ebp+0x65],ch
00003908  6D                insd
00003909  7365              jnc 0x3970
0000390B  7440              jz 0x394d
0000390D  40                inc eax
0000390E  47                inc edi
0000390F  4C                dec esp
00003910  49                dec ecx
00003911  42                inc edx
00003912  43                inc ebx
00003913  5F                pop edi
00003914  322E              xor ch,[esi]
00003916  3000              xor [eax],al
00003918  5F                pop edi
00003919  5A                pop edx
0000391A  4E                dec esi
0000391B  53                push ebx
0000391C  7431              jz 0x394f
0000391E  325F56            xor bl,[edi+0x56]
00003921  6563746F72        arpl [gs:edi+ebp*2+0x72],si
00003926  5F                pop edi
00003927  626173            bound esp,[ecx+0x73]
0000392A  6549              gs dec ecx
0000392C  635361            arpl [ebx+0x61],dx
0000392F  49                dec ecx
00003930  634545            arpl [ebp+0x45],ax
00003933  3131              xor [ecx],esi
00003935  5F                pop edi
00003936  4D                dec ebp
00003937  5F                pop edi
00003938  61                popa
00003939  6C                insb
0000393A  6C                insb
0000393B  6F                outsd
0000393C  636174            arpl [ecx+0x74],sp
0000393F  6545              gs inc ebp
00003941  6A00              push byte +0x0
00003943  5F                pop edi
00003944  5F                pop edi
00003945  6C                insb
00003946  6962635F737461    imul esp,[edx+0x63],dword 0x6174735f
0000394D  7274              jc 0x39c3
0000394F  5F                pop edi
00003950  6D                insd
00003951  61                popa
00003952  696E4040474C49    imul ebp,[esi+0x40],dword 0x494c4740
00003959  42                inc edx
0000395A  43                inc ebx
0000395B  5F                pop edi
0000395C  322E              xor ch,[esi]
0000395E  3000              xor [eax],al
00003960  5F                pop edi
00003961  5A                pop edx
00003962  53                push ebx
00003963  7432              jz 0x3997
00003965  30756E            xor [ebp+0x6e],dh
00003968  696E697469616C    imul ebp,[esi+0x69],dword 0x6c616974
0000396F  697A65645F6669    imul edi,[edx+0x65],dword 0x69665f64
00003976  6C                insb
00003977  6C                insb
00003978  5F                pop edi
00003979  6E                outsb
0000397A  49                dec ecx
0000397B  50                push eax
0000397C  636A63            arpl [edx+0x63],bp
0000397F  45                inc ebp
00003980  7654              jna 0x39d6
00003982  5F                pop edi
00003983  54                push esp
00003984  305F52            xor [edi+0x52],bl
00003987  4B                dec ebx
00003988  54                push esp
00003989  315F00            xor [edi+0x0],ebx
0000398C  5F                pop edi
0000398D  5A                pop edx
0000398E  53                push ebx
0000398F  746C              jz 0x39fd
00003991  7349              jnc 0x39dc
00003993  53                push ebx
00003994  7431              jz 0x39c7
00003996  316368            xor [ebx+0x68],esp
00003999  61                popa
0000399A  725F              jc 0x39fb
0000399C  7472              jz 0x3a10
0000399E  61                popa
0000399F  6974734963454552  imul esi,[ebx+esi*2+0x49],dword 0x52454563
000039A7  53                push ebx
000039A8  7431              jz 0x39db
000039AA  336261            xor esp,[edx+0x61]
000039AD  7369              jnc 0x3a18
000039AF  635F6F            arpl [edi+0x6f],bx
000039B2  7374              jnc 0x3a28
000039B4  7265              jc 0x3a1b
000039B6  61                popa
000039B7  6D                insd
000039B8  49                dec ecx
000039B9  63545F45          arpl [edi+ebx*2+0x45],dx
000039BD  53                push ebx
000039BE  355F634040        xor eax,0x4040635f
000039C3  47                inc edi
000039C4  4C                dec esp
000039C5  49                dec ecx
000039C6  42                inc edx
000039C7  43                inc ebx
000039C8  58                pop eax
000039C9  58                pop eax
000039CA  5F                pop edi
000039CB  332E              xor ebp,[esi]
000039CD  3400              xor al,0x0
000039CF  5F                pop edi
000039D0  5A                pop edx
000039D1  4E                dec esi
000039D2  53                push ebx
000039D3  7431              jz 0x3a06
000039D5  325F56            xor bl,[edi+0x56]
000039D8  6563746F72        arpl [gs:edi+ebp*2+0x72],si
000039DD  5F                pop edi
000039DE  626173            bound esp,[ecx+0x73]
000039E1  6549              gs dec ecx
000039E3  635361            arpl [ebx+0x61],dx
000039E6  49                dec ecx
000039E7  634545            arpl [ebp+0x45],ax
000039EA  44                inc esp
000039EB  324576            xor al,[ebp+0x76]
000039EE  005F5A            add [edi+0x5a],bl
000039F1  4E                dec esi
000039F2  53                push ebx
000039F3  7436              jz 0x3a2b
000039F5  7665              jna 0x3a5c
000039F7  63746F72          arpl [edi+ebp*2+0x72],si
000039FB  49                dec ecx
000039FC  635361            arpl [ebx+0x61],dx
000039FF  49                dec ecx
00003A00  634545            arpl [ebp+0x45],ax
00003A03  3138              xor [eax],edi
00003A05  5F                pop edi
00003A06  4D                dec ebp
00003A07  5F                pop edi
00003A08  66696C6C5F696E    imul bp,[esp+ebp*2+0x5f],word 0x6e69
00003A0F  697469616C697A65  imul esi,[ecx+ebp*2+0x61],dword 0x657a696c
00003A17  45                inc ebp
00003A18  6A52              push byte +0x52
00003A1A  4B                dec ebx
00003A1B  6300              arpl [eax],ax
00003A1D  5F                pop edi
00003A1E  5A                pop edx
00003A1F  4E                dec esi
00003A20  53                push ebx
00003A21  7438              jz 0x3a5b
00003A23  696F735F626173    imul ebp,[edi+0x73],dword 0x7361625f
00003A2A  653449            gs xor al,0x49
00003A2D  6E                outsb
00003A2E  6974443145764040  imul esi,[esp+eax*2+0x31],dword 0x40407645
00003A36  47                inc edi
00003A37  4C                dec esp
00003A38  49                dec ecx
00003A39  42                inc edx
00003A3A  43                inc ebx
00003A3B  58                pop eax
00003A3C  58                pop eax
00003A3D  5F                pop edi
00003A3E  332E              xor ebp,[esi]
00003A40  3400              xor al,0x0
00003A42  5F                pop edi
00003A43  49                dec ecx
00003A44  54                push esp
00003A45  4D                dec ebp
00003A46  5F                pop edi
00003A47  64657265          gs jc 0x3ab0
00003A4B  676973746572544D  imul esi,[bp+di+0x74],dword 0x4d547265
00003A53  43                inc ebx
00003A54  6C                insb
00003A55  6F                outsd
00003A56  6E                outsb
00003A57  6554              gs push esp
00003A59  61                popa
00003A5A  626C6500          bound ebp,[ebp+0x0]
00003A5E  5F                pop edi
00003A5F  5A                pop edx
00003A60  53                push ebx
00003A61  746C              jz 0x3acf
00003A63  7349              jnc 0x3aae
00003A65  53                push ebx
00003A66  7431              jz 0x3a99
00003A68  316368            xor [ebx+0x68],esp
00003A6B  61                popa
00003A6C  725F              jc 0x3acd
00003A6E  7472              jz 0x3ae2
00003A70  61                popa
00003A71  6974734963454552  imul esi,[ebx+esi*2+0x49],dword 0x52454563
00003A79  53                push ebx
00003A7A  7431              jz 0x3aad
00003A7C  336261            xor esp,[edx+0x61]
00003A7F  7369              jnc 0x3aea
00003A81  635F6F            arpl [edi+0x6f],bx
00003A84  7374              jnc 0x3afa
00003A86  7265              jc 0x3aed
00003A88  61                popa
00003A89  6D                insd
00003A8A  49                dec ecx
00003A8B  63545F45          arpl [edi+ebx*2+0x45],dx
00003A8F  53                push ebx
00003A90  355F504B63        xor eax,0x634b505f
00003A95  40                inc eax
00003A96  40                inc eax
00003A97  47                inc edi
00003A98  4C                dec esp
00003A99  49                dec ecx
00003A9A  42                inc edx
00003A9B  43                inc ebx
00003A9C  58                pop eax
00003A9D  58                pop eax
00003A9E  5F                pop edi
00003A9F  332E              xor ebp,[esi]
00003AA1  3400              xor al,0x0
00003AA3  5F                pop edi
00003AA4  5A                pop edx
00003AA5  4E                dec esi
00003AA6  53                push ebx
00003AA7  7431              jz 0x3ada
00003AA9  325F56            xor bl,[edi+0x56]
00003AAC  6563746F72        arpl [gs:edi+ebp*2+0x72],si
00003AB1  5F                pop edi
00003AB2  626173            bound esp,[ecx+0x73]
00003AB5  6549              gs dec ecx
00003AB7  635361            arpl [ebx+0x61],dx
00003ABA  49                dec ecx
00003ABB  634545            arpl [ebp+0x45],ax
00003ABE  3139              xor [ecx],edi
00003AC0  5F                pop edi
00003AC1  4D                dec ebp
00003AC2  5F                pop edi
00003AC3  6765745F          gs a16 jz 0x3b26
00003AC7  54                push esp
00003AC8  705F              jo 0x3b29
00003ACA  61                popa
00003ACB  6C                insb
00003ACC  6C                insb
00003ACD  6F                outsd
00003ACE  636174            arpl [ecx+0x74],sp
00003AD1  6F                outsd
00003AD2  7245              jc 0x3b19
00003AD4  7600              jna 0x3ad6
00003AD6  5F                pop edi
00003AD7  49                dec ecx
00003AD8  4F                dec edi
00003AD9  5F                pop edi
00003ADA  7374              jnc 0x3b50
00003ADC  64696E5F75736564  imul ebp,[fs:esi+0x5f],dword 0x64657375
00003AE4  005F5A            add [edi+0x5a],bl
00003AE7  4E                dec esi
00003AE8  53                push ebx
00003AE9  7344              jnc 0x3b2f
00003AEB  314576            xor [ebp+0x76],eax
00003AEE  40                inc eax
00003AEF  40                inc eax
00003AF0  47                inc edi
00003AF1  4C                dec esp
00003AF2  49                dec ecx
00003AF3  42                inc edx
00003AF4  43                inc ebx
00003AF5  58                pop eax
00003AF6  58                pop eax
00003AF7  5F                pop edi
00003AF8  332E              xor ebp,[esi]
00003AFA  3400              xor al,0x0
00003AFC  5F                pop edi
00003AFD  49                dec ecx
00003AFE  54                push esp
00003AFF  4D                dec ebp
00003B00  5F                pop edi
00003B01  7265              jc 0x3b68
00003B03  676973746572544D  imul esi,[bp+di+0x74],dword 0x4d547265
00003B0B  43                inc ebx
00003B0C  6C                insb
00003B0D  6F                outsd
00003B0E  6E                outsb
00003B0F  6554              gs push esp
00003B11  61                popa
00003B12  626C6500          bound ebp,[ebp+0x0]
00003B16  5F                pop edi
00003B17  5F                pop edi
00003B18  6461              fs popa
00003B1A  7461              jz 0x3b7d
00003B1C  5F                pop edi
00003B1D  7374              jnc 0x3b93
00003B1F  61                popa
00003B20  7274              jc 0x3b96
00003B22  005F5A            add [edi+0x5a],bl
00003B25  4E                dec esi
00003B26  53                push ebx
00003B27  7436              jz 0x3b5f
00003B29  7665              jna 0x3b90
00003B2B  63746F72          arpl [edi+ebp*2+0x72],si
00003B2F  49                dec ecx
00003B30  635361            arpl [ebx+0x61],dx
00003B33  49                dec ecx
00003B34  634545            arpl [ebp+0x45],ax
00003B37  6978456A005F5A    imul edi,[eax+0x45],dword 0x5a5f006a
00003B3E  4E                dec esi
00003B3F  4B                dec ebx
00003B40  53                push ebx
00003B41  7369              jnc 0x3bac
00003B43  7845              js 0x3b8a
00003B45  6A40              push byte +0x40
00003B47  40                inc eax
00003B48  47                inc edi
00003B49  4C                dec esp
00003B4A  49                dec ecx
00003B4B  42                inc edx
00003B4C  43                inc ebx
00003B4D  58                pop eax
00003B4E  58                pop eax
00003B4F  5F                pop edi
00003B50  332E              xor ebp,[esi]
00003B52  3400              xor al,0x0
00003B54  5F                pop edi
00003B55  5A                pop edx
00003B56  53                push ebx
00003B57  7438              jz 0x3b91
00003B59  5F                pop edi
00003B5A  5F                pop edi
00003B5B  66696C6C5F6149    imul bp,[esp+ebp*2+0x5f],word 0x4961
00003B62  63454E            arpl [ebp+0x4e],ax
00003B65  395F5F            cmp [edi+0x5f],ebx
00003B68  676E              a16 outsb
00003B6A  755F              jnz 0x3bcb
00003B6C  637878            arpl [eax+0x78],di
00003B6F  3131              xor [ecx],esi
00003B71  5F                pop edi
00003B72  5F                pop edi
00003B73  656E              gs outsb
00003B75  61                popa
00003B76  626C655F          bound ebp,[ebp+0x5f]
00003B7A  69664958737253    imul esp,[esi+0x49],dword 0x53727358
00003B81  7439              jz 0x3bbc
00003B83  5F                pop edi
00003B84  5F                pop edi
00003B85  69735F62797465    imul esi,[ebx+0x5f],dword 0x65747962
00003B8C  49                dec ecx
00003B8D  54                push esp
00003B8E  5F                pop edi
00003B8F  45                inc ebp
00003B90  37                aaa
00003B91  5F                pop edi
00003B92  5F                pop edi
00003B93  7661              jna 0x3bf6
00003B95  6C                insb
00003B96  7565              jnz 0x3bfd
00003B98  45                inc ebp
00003B99  7645              jna 0x3be0
00003B9B  365F              ss pop edi
00003B9D  5F                pop edi
00003B9E  7479              jz 0x3c19
00003BA0  7065              jo 0x3c07
00003BA2  45                inc ebp
00003BA3  50                push eax
00003BA4  53                push ebx
00003BA5  335F53            xor ebx,[edi+0x53]
00003BA8  37                aaa
00003BA9  5F                pop edi
00003BAA  52                push edx
00003BAB  4B                dec ebx
00003BAC  53                push ebx
00003BAD  335F00            xor ebx,[edi+0x0]
00003BB0  5F                pop edi
00003BB1  5A                pop edx
00003BB2  4E                dec esi
00003BB3  53                push ebx
00003BB4  7431              jz 0x3be7
00003BB6  325F56            xor bl,[edi+0x56]
00003BB9  6563746F72        arpl [gs:edi+ebp*2+0x72],si
00003BBE  5F                pop edi
00003BBF  626173            bound esp,[ecx+0x73]
00003BC2  6549              gs dec ecx
00003BC4  635361            arpl [ebx+0x61],dx
00003BC7  49                dec ecx
00003BC8  634545            arpl [ebp+0x45],ax
00003BCB  3132              xor [edx],esi
00003BCD  5F                pop edi
00003BCE  56                push esi
00003BCF  6563746F72        arpl [gs:edi+ebp*2+0x72],si
00003BD4  5F                pop edi
00003BD5  696D706C443245    imul ebp,[ebp+0x70],dword 0x4532446c
00003BDC  7600              jna 0x3bde
00003BDE  5F                pop edi
00003BDF  5A                pop edx
00003BE0  53                push ebx
00003BE1  7431              jz 0x3c14
00003BE3  305F5F            xor [edi+0x5f],bl
00003BE6  66696C6C5F6E5F    imul bp,[esp+ebp*2+0x5f],word 0x5f6e
00003BED  61                popa
00003BEE  49                dec ecx
00003BEF  6A63              push byte +0x63
00003BF1  45                inc ebp
00003BF2  4E                dec esi
00003BF3  395F5F            cmp [edi+0x5f],ebx
00003BF6  676E              a16 outsb
00003BF8  755F              jnz 0x3c59
00003BFA  637878            arpl [eax+0x78],di
00003BFD  3131              xor [ecx],esi
00003BFF  5F                pop edi
00003C00  5F                pop edi
00003C01  656E              gs outsb
00003C03  61                popa
00003C04  626C655F          bound ebp,[ebp+0x5f]
00003C08  69664958737253    imul esp,[esi+0x49],dword 0x53727358
00003C0F  7439              jz 0x3c4a
00003C11  5F                pop edi
00003C12  5F                pop edi
00003C13  69735F62797465    imul esi,[ebx+0x5f],dword 0x65747962
00003C1A  49                dec ecx
00003C1B  54                push esp
00003C1C  305F45            xor [edi+0x45],bl
00003C1F  37                aaa
00003C20  5F                pop edi
00003C21  5F                pop edi
00003C22  7661              jna 0x3c85
00003C24  6C                insb
00003C25  7565              jnz 0x3c8c
00003C27  45                inc ebp
00003C28  50                push eax
00003C29  53                push ebx
00003C2A  335F45            xor ebx,[edi+0x45]
00003C2D  365F              ss pop edi
00003C2F  5F                pop edi
00003C30  7479              jz 0x3cab
00003C32  7065              jo 0x3c99
00003C34  45                inc ebp
00003C35  53                push ebx
00003C36  355F545F52        xor eax,0x525f545f
00003C3B  4B                dec ebx
00003C3C  53                push ebx
00003C3D  335F00            xor ebx,[edi+0x0]
00003C40  5F                pop edi
00003C41  5A                pop edx
00003C42  4E                dec esi
00003C43  53                push ebx
00003C44  7431              jz 0x3c77
00003C46  325F56            xor bl,[edi+0x56]
00003C49  6563746F72        arpl [gs:edi+ebp*2+0x72],si
00003C4E  5F                pop edi
00003C4F  626173            bound esp,[ecx+0x73]
00003C52  6549              gs dec ecx
00003C54  635361            arpl [ebx+0x61],dx
00003C57  49                dec ecx
00003C58  634545            arpl [ebp+0x45],ax
00003C5B  43                inc ebx
00003C5C  32456A            xor al,[ebp+0x6a]
00003C5F  52                push edx
00003C60  4B                dec ebx
00003C61  53                push ebx
00003C62  305F00            xor [edi+0x0],bl
00003C65  5F                pop edi
00003C66  5A                pop edx
00003C67  4E                dec esi
00003C68  53                push ebx
00003C69  7431              jz 0x3c9c
00003C6B  325F56            xor bl,[edi+0x56]
00003C6E  6563746F72        arpl [gs:edi+ebp*2+0x72],si
00003C73  5F                pop edi
00003C74  626173            bound esp,[ecx+0x73]
00003C77  6549              gs dec ecx
00003C79  635361            arpl [ebx+0x61],dx
00003C7C  49                dec ecx
00003C7D  634545            arpl [ebp+0x45],ax
00003C80  3132              xor [edx],esi
00003C82  5F                pop edi
00003C83  56                push esi
00003C84  6563746F72        arpl [gs:edi+ebp*2+0x72],si
00003C89  5F                pop edi
00003C8A  696D706C433245    imul ebp,[ebp+0x70],dword 0x4532436c
00003C91  52                push edx
00003C92  4B                dec ebx
00003C93  53                push ebx
00003C94  305F00            xor [edi+0x0],bl
00003C97  5F                pop edi
00003C98  5F                pop edi
00003C99  54                push esp
00003C9A  4D                dec ebp
00003C9B  43                inc ebx
00003C9C  5F                pop edi
00003C9D  45                inc ebp
00003C9E  4E                dec esi
00003C9F  44                inc esp
00003CA0  5F                pop edi
00003CA1  5F                pop edi
00003CA2  005F5A            add [edi+0x5a],bl
00003CA5  4E                dec esi
00003CA6  53                push ebx
00003CA7  7343              jnc 0x3cec
00003CA9  314550            xor [ebp+0x50],eax
00003CAC  4B                dec ebx
00003CAD  63524B            arpl [edx+0x4b],dx
00003CB0  53                push ebx
00003CB1  61                popa
00003CB2  49                dec ecx
00003CB3  634540            arpl [ebp+0x40],ax
00003CB6  40                inc eax
00003CB7  47                inc edi
00003CB8  4C                dec esp
00003CB9  49                dec ecx
00003CBA  42                inc edx
00003CBB  43                inc ebx
00003CBC  58                pop eax
00003CBD  58                pop eax
00003CBE  5F                pop edi
00003CBF  332E              xor ebp,[esi]
00003CC1  3400              xor al,0x0
00003CC3  5F                pop edi
00003CC4  5A                pop edx
00003CC5  53                push ebx
00003CC6  7434              jz 0x3cfc
00003CC8  636F75            arpl [edi+0x75],bp
00003CCB  7440              jz 0x3d0d
00003CCD  40                inc eax
00003CCE  47                inc edi
00003CCF  4C                dec esp
00003CD0  49                dec ecx
00003CD1  42                inc edx
00003CD2  43                inc ebx
00003CD3  58                pop eax
00003CD4  58                pop eax
00003CD5  5F                pop edi
00003CD6  332E              xor ebp,[esi]
00003CD8  3400              xor al,0x0
00003CDA  5F                pop edi
00003CDB  5F                pop edi
00003CDC  64736F            fs jnc 0x3d4e
00003CDF  5F                pop edi
00003CE0  68616E646C        push dword 0x6c646e61
00003CE5  65005F5A          add [gs:edi+0x5a],bl
00003CE9  4E                dec esi
00003CEA  53                push ebx
00003CEB  7431              jz 0x3d1e
00003CED  325F56            xor bl,[edi+0x56]
00003CF0  6563746F72        arpl [gs:edi+ebp*2+0x72],si
00003CF5  5F                pop edi
00003CF6  626173            bound esp,[ecx+0x73]
00003CF9  6549              gs dec ecx
00003CFB  635361            arpl [ebx+0x61],dx
00003CFE  49                dec ecx
00003CFF  634545            arpl [ebp+0x45],ax
00003D02  43                inc ebx
00003D03  31456A            xor [ebp+0x6a],eax
00003D06  52                push edx
00003D07  4B                dec ebx
00003D08  53                push ebx
00003D09  305F00            xor [edi+0x0],bl
00003D0C  5F                pop edi
00003D0D  5A                pop edx
00003D0E  4E                dec esi
00003D0F  53                push ebx
00003D10  7436              jz 0x3d48
00003D12  7665              jna 0x3d79
00003D14  63746F72          arpl [edi+ebp*2+0x72],si
00003D18  49                dec ecx
00003D19  635361            arpl [ebx+0x61],dx
00003D1C  49                dec ecx
00003D1D  634545            arpl [ebp+0x45],ax
00003D20  44                inc esp
00003D21  314576            xor [ebp+0x76],eax
00003D24  005F5F            add [edi+0x5f],bl
00003D27  44                inc esp
00003D28  54                push esp
00003D29  4F                dec edi
00003D2A  52                push edx
00003D2B  5F                pop edi
00003D2C  45                inc ebp
00003D2D  4E                dec esi
00003D2E  44                inc esp
00003D2F  5F                pop edi
00003D30  5F                pop edi
00003D31  005F5F            add [edi+0x5f],bl
00003D34  6C                insb
00003D35  6962635F637375    imul esp,[edx+0x63],dword 0x7573635f
00003D3C  5F                pop edi
00003D3D  696E6974005F5A    imul ebp,[esi+0x69],dword 0x5a5f0074
00003D44  4E                dec esi
00003D45  53                push ebx
00003D46  7432              jz 0x3d7a
00003D48  325F5F            xor bl,[edi+0x5f]
00003D4B  756E              jnz 0x3dbb
00003D4D  696E697469616C    imul ebp,[esi+0x69],dword 0x6c616974
00003D54  697A65645F6669    imul edi,[edx+0x65],dword 0x69665f64
00003D5B  6C                insb
00003D5C  6C                insb
00003D5D  5F                pop edi
00003D5E  6E                outsb
00003D5F  49                dec ecx
00003D60  4C                dec esp
00003D61  6231              bound esi,[ecx]
00003D63  45                inc ebp
00003D64  45                inc ebp
00003D65  31355F5F756E      xor [0x6e755f5f],esi
00003D6B  696E69745F6669    imul ebp,[esi+0x69],dword 0x69665f74
00003D72  6C                insb
00003D73  6C                insb
00003D74  5F                pop edi
00003D75  6E                outsb
00003D76  49                dec ecx
00003D77  50                push eax
00003D78  636A63            arpl [edx+0x63],bp
00003D7B  45                inc ebp
00003D7C  45                inc ebp
00003D7D  7654              jna 0x3dd3
00003D7F  5F                pop edi
00003D80  54                push esp
00003D81  305F52            xor [edi+0x52],bl
00003D84  4B                dec ebx
00003D85  54                push esp
00003D86  315F00            xor [edi+0x0],ebx
00003D89  5F                pop edi
00003D8A  5A                pop edx
00003D8B  6E                outsb
00003D8C  776A              ja 0x3df8
00003D8E  40                inc eax
00003D8F  40                inc eax
00003D90  47                inc edi
00003D91  4C                dec esp
00003D92  49                dec ecx
00003D93  42                inc edx
00003D94  43                inc ebx
00003D95  58                pop eax
00003D96  58                pop eax
00003D97  5F                pop edi
00003D98  332E              xor ebp,[esi]
00003D9A  3400              xor al,0x0
00003D9C  5F                pop edi
00003D9D  5A                pop edx
00003D9E  4E                dec esi
00003D9F  53                push ebx
00003DA0  7436              jz 0x3dd8
00003DA2  7665              jna 0x3e09
00003DA4  63746F72          arpl [edi+ebp*2+0x72],si
00003DA8  49                dec ecx
00003DA9  635361            arpl [ebx+0x61],dx
00003DAC  49                dec ecx
00003DAD  634545            arpl [ebp+0x45],ax
00003DB0  43                inc ebx
00003DB1  32456A            xor al,[ebp+0x6a]
00003DB4  52                push edx
00003DB5  4B                dec ebx
00003DB6  63524B            arpl [edx+0x4b],dx
00003DB9  53                push ebx
00003DBA  305F00            xor [edi+0x0],bl
00003DBD  5F                pop edi
00003DBE  5A                pop edx
00003DBF  4E                dec esi
00003DC0  395F5F            cmp [edi+0x5f],ebx
00003DC3  676E              a16 outsb
00003DC5  755F              jnz 0x3e26
00003DC7  637878            arpl [eax+0x78],di
00003DCA  3133              xor [ebx],esi
00003DCC  6E                outsb
00003DCD  65775F            gs ja 0x3e2f
00003DD0  61                popa
00003DD1  6C                insb
00003DD2  6C                insb
00003DD3  6F                outsd
00003DD4  636174            arpl [ecx+0x74],sp
00003DD7  6F                outsd
00003DD8  7249              jc 0x3e23
00003DDA  634531            arpl [ebp+0x31],ax
00003DDD  30646561          xor [ebp+0x61],ah
00003DE1  6C                insb
00003DE2  6C                insb
00003DE3  6F                outsd
00003DE4  636174            arpl [ecx+0x74],sp
00003DE7  6545              gs inc ebp
00003DE9  50                push eax
00003DEA  636A00            arpl [edx+0x0],bp
00003DED  5F                pop edi
00003DEE  5F                pop edi
00003DEF  627373            bound esi,[ebx+0x73]
00003DF2  5F                pop edi
00003DF3  7374              jnc 0x3e69
00003DF5  61                popa
00003DF6  7274              jc 0x3e6c
00003DF8  005F5A            add [edi+0x5a],bl
00003DFB  53                push ebx
00003DFC  7431              jz 0x3e2f
00003DFE  325F5F            xor bl,[edi+0x5f]
00003E01  6E                outsb
00003E02  697465725F626173  imul esi,[ebp+0x72],dword 0x7361625f
00003E0A  6549              gs dec ecx
00003E0C  50                push eax
00003E0D  63454E            arpl [ebp+0x4e],ax
00003E10  53                push ebx
00003E11  7431              jz 0x3e44
00003E13  315F4E            xor [edi+0x4e],ebx
00003E16  697465725F626173  imul esi,[ebp+0x72],dword 0x7361625f
00003E1E  6549              gs dec ecx
00003E20  54                push esp
00003E21  5F                pop edi
00003E22  45                inc ebp
00003E23  3133              xor [ebx],esi
00003E25  6974657261746F72  imul esi,[ebp+0x72],dword 0x726f7461
00003E2D  5F                pop edi
00003E2E  7479              jz 0x3ea9
00003E30  7065              jo 0x3e97
00003E32  45                inc ebp
00003E33  53                push ebx
00003E34  325F00            xor bl,[edi+0x0]
00003E37  5F                pop edi
00003E38  5A                pop edx
00003E39  4E                dec esi
00003E3A  53                push ebx
00003E3B  61                popa
00003E3C  49                dec ecx
00003E3D  634544            arpl [ebp+0x44],ax
00003E40  314576            xor [ebp+0x76],eax
00003E43  40                inc eax
00003E44  40                inc eax
00003E45  47                inc edi
00003E46  4C                dec esp
00003E47  49                dec ecx
00003E48  42                inc edx
00003E49  43                inc ebx
00003E4A  58                pop eax
00003E4B  58                pop eax
00003E4C  5F                pop edi
00003E4D  332E              xor ebp,[esi]
00003E4F  3400              xor al,0x0
00003E51  5F                pop edi
00003E52  5A                pop edx
00003E53  53                push ebx
00003E54  7436              jz 0x3e8c
00003E56  66696C6C5F6E49    imul bp,[esp+ebp*2+0x5f],word 0x496e
00003E5D  50                push eax
00003E5E  636A63            arpl [edx+0x63],bp
00003E61  45                inc ebp
00003E62  54                push esp
00003E63  5F                pop edi
00003E64  53                push ebx
00003E65  315F54            xor [edi+0x54],ebx
00003E68  305F52            xor [edi+0x52],bl
00003E6B  4B                dec ebx
00003E6C  54                push esp
00003E6D  315F00            xor [edi+0x0],ebx
00003E70  5F                pop edi
00003E71  5F                pop edi
00003E72  7074              jo 0x3ee8
00003E74  6872656164        push dword 0x64616572
00003E79  5F                pop edi
00003E7A  6B65795F          imul esp,[ebp+0x79],byte +0x5f
00003E7E  637265            arpl [edx+0x65],si
00003E81  61                popa
00003E82  7465              jz 0x3ee9
00003E84  005F5A            add [edi+0x5a],bl
00003E87  4E                dec esi
00003E88  53                push ebx
00003E89  69727345526940    imul esi,[edx+0x73],dword 0x40695245
00003E90  40                inc eax
00003E91  47                inc edi
00003E92  4C                dec esp
00003E93  49                dec ecx
00003E94  42                inc edx
00003E95  43                inc ebx
00003E96  58                pop eax
00003E97  58                pop eax
00003E98  5F                pop edi
00003E99  332E              xor ebp,[esi]
00003E9B  3400              xor al,0x0
00003E9D  5F                pop edi
00003E9E  5A                pop edx
00003E9F  4E                dec esi
00003EA0  4B                dec ebx
00003EA1  395F5F            cmp [edi+0x5f],ebx
00003EA4  676E              a16 outsb
00003EA6  755F              jnz 0x3f07
00003EA8  637878            arpl [eax+0x78],di
00003EAB  3133              xor [ebx],esi
00003EAD  6E                outsb
00003EAE  65775F            gs ja 0x3f10
00003EB1  61                popa
00003EB2  6C                insb
00003EB3  6C                insb
00003EB4  6F                outsd
00003EB5  636174            arpl [ecx+0x74],sp
00003EB8  6F                outsd
00003EB9  7249              jc 0x3f04
00003EBB  634538            arpl [ebp+0x38],ax
00003EBE  6D                insd
00003EBF  61                popa
00003EC0  785F              js 0x3f21
00003EC2  7369              jnc 0x3f2d
00003EC4  7A65              jpe 0x3f2b
00003EC6  45                inc ebp
00003EC7  7600              jna 0x3ec9
00003EC9  5F                pop edi
00003ECA  656E              gs outsb
00003ECC  64005F5A          add [fs:edi+0x5a],bl
00003ED0  4E                dec esi
00003ED1  53                push ebx
00003ED2  6F                outsd
00003ED3  6C                insb
00003ED4  7345              jnc 0x3f1b
00003ED6  50                push eax
00003ED7  46                inc esi
00003ED8  52                push edx
00003ED9  53                push ebx
00003EDA  6F                outsd
00003EDB  53                push ebx
00003EDC  5F                pop edi
00003EDD  45                inc ebp
00003EDE  40                inc eax
00003EDF  40                inc eax
00003EE0  47                inc edi
00003EE1  4C                dec esp
00003EE2  49                dec ecx
00003EE3  42                inc edx
00003EE4  43                inc ebx
00003EE5  58                pop eax
00003EE6  58                pop eax
00003EE7  5F                pop edi
00003EE8  332E              xor ebp,[esi]
00003EEA  3400              xor al,0x0
00003EEC  5F                pop edi
00003EED  5A                pop edx
00003EEE  53                push ebx
00003EEF  7438              jz 0x3f29
00003EF1  5F                pop edi
00003EF2  44                inc esp
00003EF3  657374            gs jnc 0x3f6a
00003EF6  726F              jc 0x3f67
00003EF8  7949              jns 0x3f43
00003EFA  50                push eax
00003EFB  634576            arpl [ebp+0x76],ax
00003EFE  54                push esp
00003EFF  5F                pop edi
00003F00  53                push ebx
00003F01  315F00            xor [edi+0x0],ebx
00003F04  5F                pop edi
00003F05  5A                pop edx
00003F06  53                push ebx
00003F07  7431              jz 0x3f3a
00003F09  37                aaa
00003F0A  5F                pop edi
00003F0B  5F                pop edi
00003F0C  7468              jz 0x3f76
00003F0E  726F              jc 0x3f7f
00003F10  775F              ja 0x3f71
00003F12  626164            bound esp,[ecx+0x64]
00003F15  5F                pop edi
00003F16  61                popa
00003F17  6C                insb
00003F18  6C                insb
00003F19  6F                outsd
00003F1A  637640            arpl [esi+0x40],si
00003F1D  40                inc eax
00003F1E  47                inc edi
00003F1F  4C                dec esp
00003F20  49                dec ecx
00003F21  42                inc edx
00003F22  43                inc ebx
00003F23  58                pop eax
00003F24  58                pop eax
00003F25  5F                pop edi
00003F26  332E              xor ebp,[esi]
00003F28  3400              xor al,0x0
00003F2A  5F                pop edi
00003F2B  5A                pop edx
00003F2C  4E                dec esi
00003F2D  53                push ebx
00003F2E  7431              jz 0x3f61
00003F30  325F44            xor bl,[edi+0x44]
00003F33  657374            gs jnc 0x3faa
00003F36  726F              jc 0x3fa7
00003F38  795F              jns 0x3f99
00003F3A  61                popa
00003F3B  7578              jnz 0x3fb5
00003F3D  49                dec ecx
00003F3E  4C                dec esp
00003F3F  6231              bound esi,[ecx]
00003F41  45                inc ebp
00003F42  45                inc ebp
00003F43  395F5F            cmp [edi+0x5f],ebx
00003F46  64657374          gs jnc 0x3fbe
00003F4A  726F              jc 0x3fbb
00003F4C  7949              jns 0x3f97
00003F4E  50                push eax
00003F4F  634545            arpl [ebp+0x45],ax
00003F52  7654              jna 0x3fa8
00003F54  5F                pop edi
00003F55  53                push ebx
00003F56  335F00            xor ebx,[edi+0x0]
00003F59  5F                pop edi
00003F5A  5A                pop edx
00003F5B  4E                dec esi
00003F5C  53                push ebx
00003F5D  7431              jz 0x3f90
00003F5F  305F49            xor [edi+0x49],bl
00003F62  7465              jz 0x3fc9
00003F64  725F              jc 0x3fc5
00003F66  626173            bound esp,[ecx+0x73]
00003F69  6549              gs dec ecx
00003F6B  50                push eax
00003F6C  634C6230          arpl [edx+0x30],cx
00003F70  45                inc ebp
00003F71  45                inc ebp
00003F72  37                aaa
00003F73  5F                pop edi
00003F74  53                push ebx
00003F75  5F                pop edi
00003F76  626173            bound esp,[ecx+0x73]
00003F79  6545              gs inc ebp
00003F7B  53                push ebx
00003F7C  305F00            xor [edi+0x0],bl
00003F7F  5F                pop edi
00003F80  5A                pop edx
00003F81  4E                dec esi
00003F82  53                push ebx
00003F83  7431              jz 0x3fb6
00003F85  325F56            xor bl,[edi+0x56]
00003F88  6563746F72        arpl [gs:edi+ebp*2+0x72],si
00003F8D  5F                pop edi
00003F8E  626173            bound esp,[ecx+0x73]
00003F91  6549              gs dec ecx
00003F93  635361            arpl [ebx+0x61],dx
00003F96  49                dec ecx
00003F97  634545            arpl [ebp+0x45],ax
00003F9A  3132              xor [edx],esi
00003F9C  5F                pop edi
00003F9D  56                push esi
00003F9E  6563746F72        arpl [gs:edi+ebp*2+0x72],si
00003FA3  5F                pop edi
00003FA4  696D706C433145    imul ebp,[ebp+0x70],dword 0x4531436c
00003FAB  52                push edx
00003FAC  4B                dec ebx
00003FAD  53                push ebx
00003FAE  305F00            xor [edi+0x0],bl
00003FB1  5F                pop edi
00003FB2  5A                pop edx
00003FB3  53                push ebx
00003FB4  7434              jz 0x3fea
00003FB6  656E              gs outsb
00003FB8  646C              fs insb
00003FBA  49                dec ecx
00003FBB  635374            arpl [ebx+0x74],dx
00003FBE  3131              xor [ecx],esi
00003FC0  636861            arpl [eax+0x61],bp
00003FC3  725F              jc 0x4024
00003FC5  7472              jz 0x4039
00003FC7  61                popa
00003FC8  6974734963454552  imul esi,[ebx+esi*2+0x49],dword 0x52454563
00003FD0  53                push ebx
00003FD1  7431              jz 0x4004
00003FD3  336261            xor esp,[edx+0x61]
00003FD6  7369              jnc 0x4041
00003FD8  635F6F            arpl [edi+0x6f],bx
00003FDB  7374              jnc 0x4051
00003FDD  7265              jc 0x4044
00003FDF  61                popa
00003FE0  6D                insd
00003FE1  49                dec ecx
00003FE2  54                push esp
00003FE3  5F                pop edi
00003FE4  54                push esp
00003FE5  305F45            xor [edi+0x45],bl
00003FE8  53                push ebx
00003FE9  365F              ss pop edi
00003FEB  40                inc eax
00003FEC  40                inc eax
00003FED  47                inc edi
00003FEE  4C                dec esp
00003FEF  49                dec ecx
00003FF0  42                inc edx
00003FF1  43                inc ebx
00003FF2  58                pop eax
00003FF3  58                pop eax
00003FF4  5F                pop edi
00003FF5  332E              xor ebp,[esi]
00003FF7  3400              xor al,0x0
00003FF9  5F                pop edi
00003FFA  5A                pop edx
00003FFB  4E                dec esi
00003FFC  53                push ebx
00003FFD  7436              jz 0x4035
00003FFF  7665              jna 0x4066
00004001  63746F72          arpl [edi+ebp*2+0x72],si
00004005  49                dec ecx
00004006  635361            arpl [ebx+0x61],dx
00004009  49                dec ecx
0000400A  634545            arpl [ebp+0x45],ax
0000400D  43                inc ebx
0000400E  31456A            xor [ebp+0x6a],eax
00004011  52                push edx
00004012  4B                dec ebx
00004013  63524B            arpl [edx+0x4b],dx
00004016  53                push ebx
00004017  305F00            xor [edi+0x0],bl
0000401A  5F                pop edi
0000401B  656461            fs popa
0000401E  7461              jz 0x4081
00004020  005F5A            add [edi+0x5a],bl
00004023  4E                dec esi
00004024  53                push ebx
00004025  61                popa
00004026  49                dec ecx
00004027  634543            arpl [ebp+0x43],ax
0000402A  314576            xor [ebp+0x76],eax
0000402D  40                inc eax
0000402E  40                inc eax
0000402F  47                inc edi
00004030  4C                dec esp
00004031  49                dec ecx
00004032  42                inc edx
00004033  43                inc ebx
00004034  58                pop eax
00004035  58                pop eax
00004036  5F                pop edi
00004037  332E              xor ebp,[esi]
00004039  3400              xor al,0x0
0000403B  5F                pop edi
0000403C  5F                pop edi
0000403D  677878            a16 js 0x40b8
00004040  5F                pop edi
00004041  7065              jo 0x40a8
00004043  7273              jc 0x40b8
00004045  6F                outsd
00004046  6E                outsb
00004047  61                popa
00004048  6C                insb
00004049  6974795F76304040  imul esi,[ecx+edi*2+0x5f],dword 0x40403076
00004051  43                inc ebx
00004052  58                pop eax
00004053  58                pop eax
00004054  41                inc ecx
00004055  42                inc edx
00004056  49                dec ecx
00004057  5F                pop edi
00004058  312E              xor [esi],ebp
0000405A  3300              xor eax,[eax]
0000405C  5F                pop edi
0000405D  5A                pop edx
0000405E  4E                dec esi
0000405F  53                push ebx
00004060  7436              jz 0x4098
00004062  7665              jna 0x40c9
00004064  63746F72          arpl [edi+ebp*2+0x72],si
00004068  49                dec ecx
00004069  635361            arpl [ebx+0x61],dx
0000406C  49                dec ecx
0000406D  634545            arpl [ebp+0x45],ax
00004070  44                inc esp
00004071  324576            xor al,[ebp+0x76]
00004074  005F5A            add [edi+0x5a],bl
00004077  53                push ebx
00004078  7432              jz 0x40ac
0000407A  345F              xor al,0x5f
0000407C  5F                pop edi
0000407D  756E              jnz 0x40ed
0000407F  696E697469616C    imul ebp,[esi+0x69],dword 0x6c616974
00004086  697A65645F6669    imul edi,[edx+0x65],dword 0x69665f64
0000408D  6C                insb
0000408E  6C                insb
0000408F  5F                pop edi
00004090  6E                outsb
00004091  5F                pop edi
00004092  61                popa
00004093  49                dec ecx
00004094  50                push eax
00004095  636A63            arpl [edx+0x63],bp
00004098  634576            arpl [ebp+0x76],ax
0000409B  54                push esp
0000409C  5F                pop edi
0000409D  54                push esp
0000409E  305F52            xor [edi+0x52],bl
000040A1  4B                dec ebx
000040A2  54                push esp
000040A3  315F52            xor [edi+0x52],ebx
000040A6  53                push ebx
000040A7  61                popa
000040A8  49                dec ecx
000040A9  54                push esp
000040AA  325F45            xor bl,[edi+0x45]
000040AD  005F55            add [edi+0x55],bl
000040B0  6E                outsb
000040B1  7769              ja 0x411c
000040B3  6E                outsb
000040B4  645F              fs pop edi
000040B6  52                push edx
000040B7  657375            gs jnc 0x412f
000040BA  6D                insd
000040BB  6540              gs inc eax
000040BD  40                inc eax
000040BE  47                inc edi
000040BF  43                inc ebx
000040C0  43                inc ebx
000040C1  5F                pop edi
000040C2  332E              xor ebp,[esi]
000040C4  3000              xor [eax],al
000040C6  5F                pop edi
000040C7  5A                pop edx
000040C8  4E                dec esi
000040C9  53                push ebx
000040CA  61                popa
000040CB  49                dec ecx
000040CC  634543            arpl [ebp+0x43],ax
000040CF  324552            xor al,[ebp+0x52]
000040D2  4B                dec ebx
000040D3  53                push ebx
000040D4  5F                pop edi
000040D5  40                inc eax
000040D6  40                inc eax
000040D7  47                inc edi
000040D8  4C                dec esp
000040D9  49                dec ecx
000040DA  42                inc edx
000040DB  43                inc ebx
000040DC  58                pop eax
000040DD  58                pop eax
000040DE  5F                pop edi
000040DF  332E              xor ebp,[esi]
000040E1  3400              xor al,0x0
000040E3  5F                pop edi
000040E4  5A                pop edx
000040E5  53                push ebx
000040E6  7438              jz 0x4120
000040E8  5F                pop edi
000040E9  44                inc esp
000040EA  657374            gs jnc 0x4161
000040ED  726F              jc 0x415e
000040EF  7949              jns 0x413a
000040F1  50                push eax
000040F2  636345            arpl [ebx+0x45],sp
000040F5  7654              jna 0x414b
000040F7  5F                pop edi
000040F8  53                push ebx
000040F9  315F52            xor [edi+0x52],ebx
000040FC  53                push ebx
000040FD  61                popa
000040FE  49                dec ecx
000040FF  54                push esp
00004100  305F45            xor [edi+0x45],bl
00004103  005F5F            add [edi+0x5f],bl
00004106  693638362E67      imul esi,[esi],dword 0x672e3638
0000410C  65745F            gs jz 0x416e
0000410F  7063              jo 0x4174
00004111  5F                pop edi
00004112  7468              jz 0x417c
00004114  756E              jnz 0x4184
00004116  6B2E62            imul ebp,[esi],byte +0x62
00004119  7800              js 0x411b
0000411B  6D                insd
0000411C  61                popa
0000411D  696E005F696E69    imul ebp,[esi+0x0],dword 0x696e695f
00004124  7400              jz 0x4126
