00000000  7F45              jg 0x47
00000002  4C                dec esp
00000003  46                inc esi
00000004  0101              add [ecx],eax
00000006  0100              add [eax],eax
00000008  0000              add [eax],al
0000000A  0000              add [eax],al
0000000C  0000              add [eax],al
0000000E  0000              add [eax],al
00000010  0200              add al,[eax]
00000012  0300              add eax,[eax]
00000014  0100              add [eax],eax
00000016  0000              add [eax],al
00000018  F0870408          lock xchg eax,[eax+ecx]
0000001C  3400              xor al,0x0
0000001E  0000              add [eax],al
00000020  283B              sub [ebx],bh
00000022  0000              add [eax],al
00000024  0000              add [eax],al
00000026  0000              add [eax],al
00000028  3400              xor al,0x0
0000002A  2000              and [eax],al
0000002C  0800              or [eax],al
0000002E  2800              sub [eax],al
00000030  260023            add [es:ebx],ah
00000033  0006              add [esi],al
00000035  0000              add [eax],al
00000037  003400            add [eax+eax],dh
0000003A  0000              add [eax],al
0000003C  3480              xor al,0x80
0000003E  0408              add al,0x8
00000040  3480              xor al,0x80
00000042  0408              add al,0x8
00000044  0001              add [ecx],al
00000046  0000              add [eax],al
00000048  0001              add [ecx],al
0000004A  0000              add [eax],al
0000004C  0500000004        add eax,0x4000000
00000051  0000              add [eax],al
00000053  0003              add [ebx],al
00000055  0000              add [eax],al
00000057  003401            add [ecx+eax],dh
0000005A  0000              add [eax],al
0000005C  3481              xor al,0x81
0000005E  0408              add al,0x8
00000060  3481              xor al,0x81
00000062  0408              add al,0x8
00000064  1300              adc eax,[eax]
00000066  0000              add [eax],al
00000068  1300              adc eax,[eax]
0000006A  0000              add [eax],al
0000006C  0400              add al,0x0
0000006E  0000              add [eax],al
00000070  0100              add [eax],eax
00000072  0000              add [eax],al
00000074  0100              add [eax],eax
00000076  0000              add [eax],al
00000078  0000              add [eax],al
0000007A  0000              add [eax],al
0000007C  008004080080      add [eax+0x80000804],al
00000082  0408              add al,0x8
00000084  813100008131      xor dword [ecx],0x31810000
0000008A  0000              add [eax],al
0000008C  0500000000        add eax,0x0
00000091  1000              adc [eax],al
00000093  0001              add [ecx],al
00000095  0000              add [eax],al
00000097  008431000084C1    add [ecx+esi+0xc1840000],al
0000009E  0408              add al,0x8
000000A0  84C1              test cl,al
000000A2  0408              add al,0x8
000000A4  4C                dec esp
000000A5  0100              add [eax],eax
000000A7  00940200000600    add [edx+eax+0x60000],dl
000000AE  0000              add [eax],al
000000B0  0010              add [eax],dl
000000B2  0000              add [eax],al
000000B4  0200              add al,[eax]
000000B6  0000              add [eax],al
000000B8  9C                pushf
000000B9  3100              xor [eax],eax
000000BB  009CC104089CC1    add [ecx+eax*8+0xc19c0804],bl
000000C2  0408              add al,0x8
000000C4  E000              loopne 0xc6
000000C6  0000              add [eax],al
000000C8  E000              loopne 0xca
000000CA  0000              add [eax],al
000000CC  06                push es
000000CD  0000              add [eax],al
000000CF  000400            add [eax+eax],al
000000D2  0000              add [eax],al
000000D4  0400              add al,0x0
000000D6  0000              add [eax],al
000000D8  48                dec eax
000000D9  0100              add [eax],eax
000000DB  004881            add [eax-0x7f],cl
000000DE  0408              add al,0x8
000000E0  48                dec eax
000000E1  81040820000000    add dword [eax+ecx],0x20
000000E8  2000              and [eax],al
000000EA  0000              add [eax],al
000000EC  0400              add al,0x0
000000EE  0000              add [eax],al
000000F0  0400              add al,0x0
000000F2  0000              add [eax],al
000000F4  50                push eax
000000F5  E574              in eax,0x74
000000F7  641C23            fs sbb al,0x23
000000FA  0000              add [eax],al
000000FC  1CA3              sbb al,0xa3
000000FE  0408              add al,0x8
00000100  1CA3              sbb al,0xa3
00000102  0408              add al,0x8
00000104  7C02              jl 0x108
00000106  0000              add [eax],al
00000108  7C02              jl 0x10c
0000010A  0000              add [eax],al
0000010C  0400              add al,0x0
0000010E  0000              add [eax],al
00000110  0400              add al,0x0
00000112  0000              add [eax],al
00000114  51                push ecx
00000115  E574              in eax,0x74
00000117  640000            add [fs:eax],al
0000011A  0000              add [eax],al
0000011C  0000              add [eax],al
0000011E  0000              add [eax],al
00000120  0000              add [eax],al
00000122  0000              add [eax],al
00000124  0000              add [eax],al
00000126  0000              add [eax],al
00000128  0000              add [eax],al
0000012A  0000              add [eax],al
0000012C  06                push es
0000012D  0000              add [eax],al
0000012F  000400            add [eax+eax],al
00000132  0000              add [eax],al
00000134  2F                das
00000135  6C                insb
00000136  69622F6C642D6C    imul esp,[edx+0x2f],dword 0x6c2d646c
0000013D  696E75782E736F    imul ebp,[esi+0x75],dword 0x6f732e78
00000144  2E3200            xor al,[cs:eax]
00000147  000400            add [eax+eax],al
0000014A  0000              add [eax],al
0000014C  1000              adc [eax],al
0000014E  0000              add [eax],al
00000150  0100              add [eax],eax
00000152  0000              add [eax],al
00000154  47                inc edi
00000155  4E                dec esi
00000156  55                push ebp
00000157  0000              add [eax],al
00000159  0000              add [eax],al
0000015B  0002              add [edx],al
0000015D  0000              add [eax],al
0000015F  0000              add [eax],al
00000161  0000              add [eax],al
00000163  0000              add [eax],al
00000165  0000              add [eax],al
00000167  0011              add [ecx],dl
00000169  0000              add [eax],al
0000016B  0016              add [esi],dl
0000016D  0000              add [eax],al
0000016F  000F              add [edi],cl
00000171  0000              add [eax],al
00000173  0000              add [eax],al
00000175  0000              add [eax],al
00000177  000B              add [ebx],cl
00000179  0000              add [eax],al
0000017B  0012              add [edx],dl
0000017D  0000              add [eax],al
0000017F  001400            add [eax+eax],dl
00000182  0000              add [eax],al
00000184  0000              add [eax],al
00000186  0000              add [eax],al
00000188  1500000008        adc eax,0x8000000
0000018D  0000              add [eax],al
0000018F  0010              add [eax],dl
00000191  0000              add [eax],al
00000193  0000              add [eax],al
00000195  0000              add [eax],al
00000197  0000              add [eax],al
00000199  0000              add [eax],al
0000019B  0000              add [eax],al
0000019D  0000              add [eax],al
0000019F  000A              add [edx],cl
000001A1  0000              add [eax],al
000001A3  000C00            add [eax+eax],cl
000001A6  0000              add [eax],al
000001A8  0300              add eax,[eax]
000001AA  0000              add [eax],al
000001AC  0400              add al,0x0
000001AE  0000              add [eax],al
000001B0  1300              adc eax,[eax]
000001B2  0000              add [eax],al
000001B4  0000              add [eax],al
000001B6  0000              add [eax],al
000001B8  0000              add [eax],al
000001BA  0000              add [eax],al
000001BC  0000              add [eax],al
000001BE  0000              add [eax],al
000001C0  0000              add [eax],al
000001C2  0000              add [eax],al
000001C4  0000              add [eax],al
000001C6  0000              add [eax],al
000001C8  0000              add [eax],al
000001CA  0000              add [eax],al
000001CC  0000              add [eax],al
000001CE  0000              add [eax],al
000001D0  0000              add [eax],al
000001D2  0000              add [eax],al
000001D4  06                push es
000001D5  0000              add [eax],al
000001D7  0000              add [eax],al
000001D9  0000              add [eax],al
000001DB  0007              add [edi],al
000001DD  0000              add [eax],al
000001DF  0002              add [edx],al
000001E1  0000              add [eax],al
000001E3  0009              add [ecx],cl
000001E5  0000              add [eax],al
000001E7  000500000000      add [0x0],al
000001ED  0000              add [eax],al
000001EF  000E              add [esi],cl
000001F1  0000              add [eax],al
000001F3  0000              add [eax],al
000001F5  0000              add [eax],al
000001F7  0001              add [ecx],al
000001F9  0000              add [eax],al
000001FB  000D00000000      add [0x0],cl
00000201  0000              add [eax],al
00000203  0011              add [ecx],dl
00000205  0000              add [eax],al
00000207  0000              add [eax],al
00000209  0000              add [eax],al
0000020B  0000              add [eax],al
0000020D  0000              add [eax],al
0000020F  0000              add [eax],al
00000211  0000              add [eax],al
00000213  0000              add [eax],al
00000215  0000              add [eax],al
00000217  0000              add [eax],al
00000219  0000              add [eax],al
0000021B  0003              add [ebx],al
0000021D  0100              add [eax],eax
0000021F  00E0              add al,ah
00000221  C20408            ret 0x804
00000224  90                nop
00000225  0000              add [eax],al
00000227  0011              add [ecx],dl
00000229  0019              add [ecx],bl
0000022B  005D01            add [ebp+0x1],bl
0000022E  0000              add [eax],al
00000230  0000              add [eax],al
00000232  0000              add [eax],al
00000234  0000              add [eax],al
00000236  0000              add [eax],al
00000238  1200              adc al,[eax]
0000023A  0000              add [eax],al
0000023C  C00100            rol byte [ecx],0x0
0000023F  0000              add [eax],al
00000241  0000              add [eax],al
00000243  0000              add [eax],al
00000245  0000              add [eax],al
00000247  0012              add [edx],dl
00000249  0000              add [eax],al
0000024B  00DF              add bh,bl
0000024D  0000              add [eax],al
0000024F  0000              add [eax],al
00000251  0000              add [eax],al
00000253  0000              add [eax],al
00000255  0000              add [eax],al
00000257  0020              add [eax],ah
00000259  0000              add [eax],al
0000025B  002401            add [ecx+eax],ah
0000025E  0000              add [eax],al
00000260  0000              add [eax],al
00000262  0000              add [eax],al
00000264  0000              add [eax],al
00000266  0000              add [eax],al
00000268  2000              and [eax],al
0000026A  0000              add [eax],al
0000026C  5C                pop esp
0000026D  0000              add [eax],al
0000026F  0000              add [eax],al
00000271  0000              add [eax],al
00000273  0000              add [eax],al
00000275  0000              add [eax],al
00000277  0012              add [edx],dl
00000279  0000              add [eax],al
0000027B  000C01            add [ecx+eax],cl
0000027E  0000              add [eax],al
00000280  0000              add [eax],al
00000282  0000              add [eax],al
00000284  0000              add [eax],al
00000286  0000              add [eax],al
00000288  1200              adc al,[eax]
0000028A  0000              add [eax],al
0000028C  CD01              int 0x1
0000028E  0000              add [eax],al
00000290  0000              add [eax],al
00000292  0000              add [eax],al
00000294  0000              add [eax],al
00000296  0000              add [eax],al
00000298  1200              adc al,[eax]
0000029A  0000              add [eax],al
0000029C  C10000            rol dword [eax],0x0
0000029F  006087            add [eax-0x79],ah
000002A2  0408              add al,0x8
000002A4  0000              add [eax],al
000002A6  0000              add [eax],al
000002A8  1200              adc al,[eax]
000002AA  0000              add [eax],al
000002AC  6300              arpl [eax],ax
000002AE  0000              add [eax],al
000002B0  0000              add [eax],al
000002B2  0000              add [eax],al
000002B4  0000              add [eax],al
000002B6  0000              add [eax],al
000002B8  2000              and [eax],al
000002BA  0000              add [eax],al
000002BC  8900              mov [eax],eax
000002BE  0000              add [eax],al
000002C0  0000              add [eax],al
000002C2  0000              add [eax],al
000002C4  0000              add [eax],al
000002C6  0000              add [eax],al
000002C8  1200              adc al,[eax]
000002CA  0000              add [eax],al
000002CC  B101              mov cl,0x1
000002CE  0000              add [eax],al
000002D0  08A304080400      or [ebx+0x40804],ah
000002D6  0000              add [eax],al
000002D8  1100              adc [eax],eax
000002DA  0E                push cs
000002DB  004301            add [ebx+0x1],al
000002DE  0000              add [eax],al
000002E0  0000              add [eax],al
000002E2  0000              add [eax],al
000002E4  0000              add [eax],al
000002E6  0000              add [eax],al
000002E8  2000              and [eax],al
000002EA  0000              add [eax],al
000002EC  7F00              jg 0x2ee
000002EE  0000              add [eax],al
000002F0  80C304            add bl,0x4
000002F3  088C0000001100    or [eax+eax+0x110000],cl
000002FA  1900              sbb [eax],eax
000002FC  D900              fld dword [eax]
000002FE  0000              add [eax],al
00000300  0000              add [eax],al
00000302  0000              add [eax],al
00000304  0000              add [eax],al
00000306  0000              add [eax],al
00000308  1200              adc al,[eax]
0000030A  0000              add [eax],al
0000030C  3801              cmp [ecx],al
0000030E  0000              add [eax],al
00000310  0000              add [eax],al
00000312  0000              add [eax],al
00000314  0000              add [eax],al
00000316  0000              add [eax],al
00000318  1200              adc al,[eax]
0000031A  0000              add [eax],al
0000031C  1000              adc [eax],al
0000031E  0000              add [eax],al
00000320  0000              add [eax],al
00000322  0000              add [eax],al
00000324  0000              add [eax],al
00000326  0000              add [eax],al
00000328  1200              adc al,[eax]
0000032A  0000              add [eax],al
0000032C  670100            add [bx+si],eax
0000032F  0000              add [eax],al
00000331  0000              add [eax],al
00000333  0000              add [eax],al
00000335  0000              add [eax],al
00000337  0012              add [edx],dl
00000339  0000              add [eax],al
0000033B  0021              add [ecx],ah
0000033D  0000              add [eax],al
0000033F  00C0              add al,al
00000341  870408            xchg eax,[eax+ecx]
00000344  0000              add [eax],al
00000346  0000              add [eax],al
00000348  1200              adc al,[eax]
0000034A  0000              add [eax],al
0000034C  EE                out dx,al
0000034D  0000              add [eax],al
0000034F  00D0              add al,dl
00000351  870408            xchg eax,[eax+ecx]
00000354  0000              add [eax],al
00000356  0000              add [eax],al
00000358  1200              adc al,[eax]
0000035A  0000              add [eax],al
0000035C  98                cwde
0000035D  0100              add [eax],eax
0000035F  0000              add [eax],al
00000361  0000              add [eax],al
00000363  0000              add [eax],al
00000365  0000              add [eax],al
00000367  0012              add [edx],dl
00000369  0000              add [eax],al
0000036B  0000              add [eax],al
0000036D  6C                insb
0000036E  6962737464632B    imul esp,[edx+0x73],dword 0x2b636474
00000375  2B2E              sub ebp,[esi]
00000377  736F              jnc 0x3e8
00000379  2E36005F5A        add [ss:edi+0x5a],bl
0000037E  4E                dec esi
0000037F  53                push ebx
00000380  6F                outsd
00000381  6C                insb
00000382  7345              jnc 0x3c9
00000384  50                push eax
00000385  46                inc esi
00000386  52                push edx
00000387  53                push ebx
00000388  6F                outsd
00000389  53                push ebx
0000038A  5F                pop edi
0000038B  45                inc ebp
0000038C  005F5A            add [edi+0x5a],bl
0000038F  53                push ebx
00000390  7434              jz 0x3c6
00000392  656E              gs outsb
00000394  646C              fs insb
00000396  49                dec ecx
00000397  635374            arpl [ebx+0x74],dx
0000039A  3131              xor [ecx],esi
0000039C  636861            arpl [eax+0x61],bp
0000039F  725F              jc 0x400
000003A1  7472              jz 0x415
000003A3  61                popa
000003A4  6974734963454552  imul esi,[ebx+esi*2+0x49],dword 0x52454563
000003AC  53                push ebx
000003AD  7431              jz 0x3e0
000003AF  336261            xor esp,[edx+0x61]
000003B2  7369              jnc 0x41d
000003B4  635F6F            arpl [edi+0x6f],bx
000003B7  7374              jnc 0x42d
000003B9  7265              jc 0x420
000003BB  61                popa
000003BC  6D                insd
000003BD  49                dec ecx
000003BE  54                push esp
000003BF  5F                pop edi
000003C0  54                push esp
000003C1  305F45            xor [edi+0x45],bl
000003C4  53                push ebx
000003C5  365F              ss pop edi
000003C7  005F5A            add [edi+0x5a],bl
000003CA  646C              fs insb
000003CC  50                push eax
000003CD  7600              jna 0x3cf
000003CF  5F                pop edi
000003D0  49                dec ecx
000003D1  54                push esp
000003D2  4D                dec ebp
000003D3  5F                pop edi
000003D4  64657265          gs jc 0x43d
000003D8  676973746572544D  imul esi,[bp+di+0x74],dword 0x4d547265
000003E0  43                inc ebx
000003E1  6C                insb
000003E2  6F                outsd
000003E3  6E                outsb
000003E4  6554              gs push esp
000003E6  61                popa
000003E7  626C6500          bound ebp,[ebp+0x0]
000003EB  5F                pop edi
000003EC  5A                pop edx
000003ED  53                push ebx
000003EE  7434              jz 0x424
000003F0  636F75            arpl [edi+0x75],bp
000003F3  7400              jz 0x3f5
000003F5  5F                pop edi
000003F6  5A                pop edx
000003F7  53                push ebx
000003F8  746C              jz 0x466
000003FA  7349              jnc 0x445
000003FC  53                push ebx
000003FD  7431              jz 0x430
000003FF  316368            xor [ebx+0x68],esp
00000402  61                popa
00000403  725F              jc 0x464
00000405  7472              jz 0x479
00000407  61                popa
00000408  6974734963454552  imul esi,[ebx+esi*2+0x49],dword 0x52454563
00000410  53                push ebx
00000411  7431              jz 0x444
00000413  336261            xor esp,[edx+0x61]
00000416  7369              jnc 0x481
00000418  635F6F            arpl [edi+0x6f],bx
0000041B  7374              jnc 0x491
0000041D  7265              jc 0x484
0000041F  61                popa
00000420  6D                insd
00000421  49                dec ecx
00000422  63545F45          arpl [edi+ebx*2+0x45],dx
00000426  53                push ebx
00000427  355F504B63        xor eax,0x634b505f
0000042C  005F5A            add [edi+0x5a],bl
0000042F  4E                dec esi
00000430  53                push ebx
00000431  7438              jz 0x46b
00000433  696F735F626173    imul ebp,[edi+0x73],dword 0x7361625f
0000043A  653449            gs xor al,0x49
0000043D  6E                outsb
0000043E  697444314576005F  imul esi,[esp+eax*2+0x31],dword 0x5f007645
00000446  5A                pop edx
00000447  6E                outsb
00000448  776A              ja 0x4b4
0000044A  005F5F            add [edi+0x5f],bl
0000044D  676D              a16 insd
0000044F  6F                outsd
00000450  6E                outsb
00000451  5F                pop edi
00000452  7374              jnc 0x4c8
00000454  61                popa
00000455  7274              jc 0x4cb
00000457  5F                pop edi
00000458  5F                pop edi
00000459  005F5F            add [edi+0x5f],bl
0000045C  677878            a16 js 0x4d7
0000045F  5F                pop edi
00000460  7065              jo 0x4c7
00000462  7273              jc 0x4d7
00000464  6F                outsd
00000465  6E                outsb
00000466  61                popa
00000467  6C                insb
00000468  6974795F7630005F  imul esi,[ecx+edi*2+0x5f],dword 0x5f003076
00000470  5A                pop edx
00000471  53                push ebx
00000472  7433              jz 0x4a7
00000474  63696E            arpl [ecx+0x6e],bp
00000477  005F5A            add [edi+0x5a],bl
0000047A  4E                dec esi
0000047B  53                push ebx
0000047C  7438              jz 0x4b6
0000047E  696F735F626173    imul ebp,[edi+0x73],dword 0x7361625f
00000485  653449            gs xor al,0x49
00000488  6E                outsb
00000489  697443314576005F  imul esi,[ebx+eax*2+0x31],dword 0x5f007645
00000491  4A                dec edx
00000492  765F              jna 0x4f3
00000494  52                push edx
00000495  6567697374657243  imul esi,[gs:bp+di+0x74],dword 0x6c437265
         -6C
0000049E  61                popa
0000049F  7373              jnc 0x514
000004A1  657300            gs jnc 0x4a4
000004A4  5F                pop edi
000004A5  5A                pop edx
000004A6  4E                dec esi
000004A7  53                push ebx
000004A8  69727345526900    imul esi,[edx+0x73],dword 0x695245
000004AF  5F                pop edi
000004B0  49                dec ecx
000004B1  54                push esp
000004B2  4D                dec ebp
000004B3  5F                pop edi
000004B4  7265              jc 0x51b
000004B6  676973746572544D  imul esi,[bp+di+0x74],dword 0x4d547265
000004BE  43                inc ebx
000004BF  6C                insb
000004C0  6F                outsd
000004C1  6E                outsb
000004C2  6554              gs push esp
000004C4  61                popa
000004C5  626C6500          bound ebp,[ebp+0x0]
000004C9  5F                pop edi
000004CA  5A                pop edx
000004CB  4E                dec esi
000004CC  53                push ebx
000004CD  6F                outsd
000004CE  6C                insb
000004CF  7345              jnc 0x516
000004D1  69005F5A5374      imul eax,[eax],dword 0x74535a5f
000004D7  3137              xor [edi],esi
000004D9  5F                pop edi
000004DA  5F                pop edi
000004DB  7468              jz 0x545
000004DD  726F              jc 0x54e
000004DF  775F              ja 0x540
000004E1  626164            bound esp,[ecx+0x64]
000004E4  5F                pop edi
000004E5  61                popa
000004E6  6C                insb
000004E7  6C                insb
000004E8  6F                outsd
000004E9  637600            arpl [esi+0x0],si
000004EC  6C                insb
000004ED  69626D2E736F2E    imul esp,[edx+0x6d],dword 0x2e6f732e
000004F4  36006C6962        add [ss:ecx+ebp*2+0x62],ch
000004F9  6763635F          arpl [bp+di+0x5f],sp
000004FD  732E              jnc 0x52d
000004FF  736F              jnc 0x570
00000501  2E3100            xor [cs:eax],eax
00000504  5F                pop edi
00000505  55                push ebp
00000506  6E                outsb
00000507  7769              ja 0x572
00000509  6E                outsb
0000050A  645F              fs pop edi
0000050C  52                push edx
0000050D  657375            gs jnc 0x585
00000510  6D                insd
00000511  65006C6962        add [gs:ecx+ebp*2+0x62],ch
00000516  632E              arpl [esi],bp
00000518  736F              jnc 0x589
0000051A  2E36005F49        add [ss:edi+0x49],bl
0000051F  4F                dec edi
00000520  5F                pop edi
00000521  7374              jnc 0x597
00000523  64696E5F75736564  imul ebp,[fs:esi+0x5f],dword 0x64657375
0000052B  005F5F            add [edi+0x5f],bl
0000052E  637861            arpl [eax+0x61],di
00000531  5F                pop edi
00000532  61                popa
00000533  7465              jz 0x59a
00000535  7869              js 0x5a0
00000537  7400              jz 0x539
00000539  5F                pop edi
0000053A  5F                pop edi
0000053B  6C                insb
0000053C  6962635F737461    imul esp,[edx+0x63],dword 0x6174735f
00000543  7274              jc 0x5b9
00000545  5F                pop edi
00000546  6D                insd
00000547  61                popa
00000548  696E004743435F    imul ebp,[esi+0x0],dword 0x5f434347
0000054F  332E              xor ebp,[esi]
00000551  3000              xor [eax],al
00000553  47                inc edi
00000554  4C                dec esp
00000555  49                dec ecx
00000556  42                inc edx
00000557  43                inc ebx
00000558  5F                pop edi
00000559  322E              xor ch,[esi]
0000055B  3000              xor [eax],al
0000055D  47                inc edi
0000055E  4C                dec esp
0000055F  49                dec ecx
00000560  42                inc edx
00000561  43                inc ebx
00000562  5F                pop edi
00000563  322E              xor ch,[esi]
00000565  312E              xor [esi],ebp
00000567  3300              xor eax,[eax]
00000569  43                inc ebx
0000056A  58                pop eax
0000056B  58                pop eax
0000056C  41                inc ecx
0000056D  42                inc edx
0000056E  49                dec ecx
0000056F  5F                pop edi
00000570  312E              xor [esi],ebp
00000572  3300              xor eax,[eax]
00000574  47                inc edi
00000575  4C                dec esp
00000576  49                dec ecx
00000577  42                inc edx
00000578  43                inc ebx
00000579  58                pop eax
0000057A  58                pop eax
0000057B  5F                pop edi
0000057C  332E              xor ebp,[esi]
0000057E  3400              xor al,0x0
00000580  0000              add [eax],al
00000582  0200              add al,[eax]
00000584  0200              add al,[eax]
00000586  0300              add eax,[eax]
00000588  0000              add [eax],al
0000058A  0000              add [eax],al
0000058C  0200              add al,[eax]
0000058E  0200              add al,[eax]
00000590  0400              add al,0x0
00000592  0200              add al,[eax]
00000594  0000              add [eax],al
00000596  0200              add al,[eax]
00000598  0100              add [eax],eax
0000059A  0000              add [eax],al
0000059C  0200              add al,[eax]
0000059E  0200              add al,[eax]
000005A0  0200              add al,[eax]
000005A2  0200              add al,[eax]
000005A4  0200              add al,[eax]
000005A6  0200              add al,[eax]
000005A8  0500060001        add eax,0x1000600
000005AD  0001              add [ecx],al
000005AF  008A01000010      add [edx+0x10000001],cl
000005B5  0000              add [eax],al
000005B7  0020              add [eax],ah
000005B9  0000              add [eax],al
000005BB  005026            add [eax+0x26],dl
000005BE  790B              jns 0x5cb
000005C0  0000              add [eax],al
000005C2  06                push es
000005C3  00DF              add bh,bl
000005C5  0100              add [eax],eax
000005C7  0000              add [eax],al
000005C9  0000              add [eax],al
000005CB  0001              add [ecx],al
000005CD  0002              add [edx],al
000005CF  00A701000010      add [edi+0x10000001],ah
000005D5  0000              add [eax],al
000005D7  0030              add [eax],dh
000005D9  0000              add [eax],al
000005DB  0010              add [eax],dl
000005DD  69690D00000400    imul ebp,[ecx+0xd],dword 0x40000
000005E4  E701              out 0x1,eax
000005E6  0000              add [eax],al
000005E8  1000              adc [eax],al
000005EA  0000              add [eax],al
000005EC  731F              jnc 0x60d
000005EE  690900000300      imul ecx,[ecx],dword 0x30000
000005F4  F1                int1
000005F5  0100              add [eax],eax
000005F7  0000              add [eax],al
000005F9  0000              add [eax],al
000005FB  0001              add [ecx],al
000005FD  0002              add [edx],al
000005FF  0001              add [ecx],al
00000601  0000              add [eax],al
00000603  0010              add [eax],dl
00000605  0000              add [eax],al
00000607  0000              add [eax],al
00000609  0000              add [eax],al
0000060B  00D3              add bl,dl
0000060D  AF                scasd
0000060E  6B0500000500FD    imul eax,[0x50000],byte -0x3
00000615  0100              add [eax],eax
00000617  0010              add [eax],dl
00000619  0000              add [eax],al
0000061B  00742992          add [ecx+ebp-0x6e],dh
0000061F  0800              or [eax],al
00000621  0002              add [edx],al
00000623  0008              add [eax],cl
00000625  0200              add al,[eax]
00000627  0000              add [eax],al
00000629  0000              add [eax],al
0000062B  007CC204          add [edx+eax*8+0x4],bh
0000062F  0806              or [esi],al
00000631  0400              add al,0x0
00000633  00E0              add al,ah
00000635  C20408            ret 0x804
00000638  0501000080        add eax,0x80000001
0000063D  C3                ret
0000063E  0408              add al,0x8
00000640  050E00008C        add eax,0x8c00000e
00000645  C20408            ret 0x804
00000648  07                pop es
00000649  0200              add al,[eax]
0000064B  0090C2040807      add [eax+0x70804c2],dl
00000651  0300              add eax,[eax]
00000653  0094C204080704    add [edx+eax*8+0x4070804],dl
0000065A  0000              add [eax],al
0000065C  98                cwde
0000065D  C20408            ret 0x804
00000660  07                pop es
00000661  06                push es
00000662  0000              add [eax],al
00000664  9C                pushf
00000665  C20408            ret 0x804
00000668  07                pop es
00000669  07                pop es
0000066A  0000              add [eax],al
0000066C  A0C2040807        mov al,[0x70804c2]
00000671  0800              or [eax],al
00000673  00A4C204080709    add [edx+eax*8+0x9070804],ah
0000067A  0000              add [eax],al
0000067C  A8C2              test al,0xc2
0000067E  0408              add al,0x8
00000680  07                pop es
00000681  0B00              or eax,[eax]
00000683  00ACC20408070F    add [edx+eax*8+0xf070804],ch
0000068A  0000              add [eax],al
0000068C  B0C2              mov al,0xc2
0000068E  0408              add al,0x8
00000690  07                pop es
00000691  1000              adc [eax],al
00000693  00B4C204080711    add [edx+eax*8+0x11070804],dh
0000069A  0000              add [eax],al
0000069C  B8C2040807        mov eax,0x70804c2
000006A1  1200              adc al,[eax]
000006A3  00BCC204080713    add [edx+eax*8+0x13070804],bh
000006AA  0000              add [eax],al
000006AC  C0C204            rol dl,0x4
000006AF  0807              or [edi],al
000006B1  1400              adc al,0x0
000006B3  00C4              add ah,al
000006B5  C20408            ret 0x804
000006B8  07                pop es
000006B9  1500005589        adc eax,0x89550000
000006BE  E553              in eax,0x53
000006C0  83EC04            sub esp,byte +0x4
000006C3  E800000000        call 0x6c8
000006C8  5B                pop ebx
000006C9  81C3B83B0000      add ebx,0x3bb8
000006CF  8B93FCFFFFFF      mov edx,[ebx+0xfffffffc]
000006D5  85D2              test edx,edx
000006D7  7405              jz 0x6de
000006D9  E842000000        call 0x720
000006DE  E8FD010000        call 0x8e0
000006E3  E8D81B0000        call 0x22c0
000006E8  58                pop eax
000006E9  5B                pop ebx
000006EA  C9                leave
000006EB  C3                ret
000006EC  0000              add [eax],al
000006EE  0000              add [eax],al
000006F0  FF3584C20408      push dword [0x804c284]
000006F6  FF2588C20408      jmp near [0x804c288]
000006FC  0000              add [eax],al
000006FE  0000              add [eax],al
00000700  FF258CC20408      jmp near [0x804c28c]
00000706  6800000000        push dword 0x0
0000070B  E9E0FFFFFF        jmp 0x1000006f0
00000710  FF2590C20408      jmp near [0x804c290]
00000716  6808000000        push dword 0x8
0000071B  E9D0FFFFFF        jmp 0x1000006f0
00000720  FF2594C20408      jmp near [0x804c294]
00000726  6810000000        push dword 0x10
0000072B  E9C0FFFFFF        jmp 0x1000006f0
00000730  FF2598C20408      jmp near [0x804c298]
00000736  6818000000        push dword 0x18
0000073B  E9B0FFFFFF        jmp 0x1000006f0
00000740  FF259CC20408      jmp near [0x804c29c]
00000746  6820000000        push dword 0x20
0000074B  E9A0FFFFFF        jmp 0x1000006f0
00000750  FF25A0C20408      jmp near [0x804c2a0]
00000756  6828000000        push dword 0x28
0000075B  E990FFFFFF        jmp 0x1000006f0
00000760  FF25A4C20408      jmp near [0x804c2a4]
00000766  6830000000        push dword 0x30
0000076B  E980FFFFFF        jmp 0x1000006f0
00000770  FF25A8C20408      jmp near [0x804c2a8]
00000776  6838000000        push dword 0x38
0000077B  E970FFFFFF        jmp 0x1000006f0
00000780  FF25ACC20408      jmp near [0x804c2ac]
00000786  6840000000        push dword 0x40
0000078B  E960FFFFFF        jmp 0x1000006f0
00000790  FF25B0C20408      jmp near [0x804c2b0]
00000796  6848000000        push dword 0x48
0000079B  E950FFFFFF        jmp 0x1000006f0
000007A0  FF25B4C20408      jmp near [0x804c2b4]
000007A6  6850000000        push dword 0x50
000007AB  E940FFFFFF        jmp 0x1000006f0
000007B0  FF25B8C20408      jmp near [0x804c2b8]
000007B6  6858000000        push dword 0x58
000007BB  E930FFFFFF        jmp 0x1000006f0
000007C0  FF25BCC20408      jmp near [0x804c2bc]
000007C6  6860000000        push dword 0x60
000007CB  E920FFFFFF        jmp 0x1000006f0
000007D0  FF25C0C20408      jmp near [0x804c2c0]
000007D6  6868000000        push dword 0x68
000007DB  E910FFFFFF        jmp 0x1000006f0
000007E0  FF25C4C20408      jmp near [0x804c2c4]
000007E6  6870000000        push dword 0x70
000007EB  E900FFFFFF        jmp 0x1000006f0
000007F0  31ED              xor ebp,ebp
000007F2  5E                pop esi
000007F3  89E1              mov ecx,esp
000007F5  83E4F0            and esp,byte -0x10
000007F8  50                push eax
000007F9  54                push esp
000007FA  52                push edx
000007FB  6850A20408        push dword 0x804a250
00000800  6860A20408        push dword 0x804a260
00000805  51                push ecx
00000806  56                push esi
00000807  68DD890408        push dword 0x80489dd
0000080C  E83FFFFFFF        call 0x100000750
00000811  F4                hlt
00000812  90                nop
00000813  90                nop
00000814  6690              o16 nop
00000816  6690              o16 nop
00000818  6690              o16 nop
0000081A  6690              o16 nop
0000081C  6690              o16 nop
0000081E  6690              o16 nop
00000820  B8D3C20408        mov eax,0x804c2d3
00000825  2DD0C20408        sub eax,0x804c2d0
0000082A  83F806            cmp eax,byte +0x6
0000082D  7701              ja 0x830
0000082F  C3                ret
00000830  B800000000        mov eax,0x0
00000835  85C0              test eax,eax
00000837  74F6              jz 0x82f
00000839  55                push ebp
0000083A  89E5              mov ebp,esp
0000083C  83EC18            sub esp,byte +0x18
0000083F  C70424D0C20408    mov dword [esp],0x804c2d0
00000846  FFD0              call eax
00000848  C9                leave
00000849  C3                ret
0000084A  8DB600000000      lea esi,[esi+0x0]
00000850  B8D0C20408        mov eax,0x804c2d0
00000855  2DD0C20408        sub eax,0x804c2d0
0000085A  C1F802            sar eax,0x2
0000085D  89C2              mov edx,eax
0000085F  C1EA1F            shr edx,0x1f
00000862  01D0              add eax,edx
00000864  D1F8              sar eax,1
00000866  7501              jnz 0x869
00000868  C3                ret
00000869  BA00000000        mov edx,0x0
0000086E  85D2              test edx,edx
00000870  74F6              jz 0x868
00000872  55                push ebp
00000873  89E5              mov ebp,esp
00000875  83EC18            sub esp,byte +0x18
00000878  89442404          mov [esp+0x4],eax
0000087C  C70424D0C20408    mov dword [esp],0x804c2d0
00000883  FFD2              call edx
00000885  C9                leave
00000886  C3                ret
00000887  89F6              mov esi,esi
00000889  8DBC2700000000    lea edi,[edi+0x0]
00000890  803D0CC4040800    cmp byte [0x804c40c],0x0
00000897  7544              jnz 0x8dd
00000899  55                push ebp
0000089A  89E5              mov ebp,esp
0000089C  53                push ebx
0000089D  BB94C10408        mov ebx,0x804c194
000008A2  52                push edx
000008A3  81EB90C10408      sub ebx,0x804c190
000008A9  A110C40408        mov eax,[0x804c410]
000008AE  C1FB02            sar ebx,0x2
000008B1  4B                dec ebx
000008B2  39D8              cmp eax,ebx
000008B4  7318              jnc 0x8ce
000008B6  6690              o16 nop
000008B8  40                inc eax
000008B9  A310C40408        mov [0x804c410],eax
000008BE  FF148590C10408    call near [eax*4+0x804c190]
000008C5  A110C40408        mov eax,[0x804c410]
000008CA  39D8              cmp eax,ebx
000008CC  72EA              jc 0x8b8
000008CE  E84DFFFFFF        call 0x100000820
000008D3  C6050CC4040801    mov byte [0x804c40c],0x1
000008DA  58                pop eax
000008DB  5B                pop ebx
000008DC  5D                pop ebp
000008DD  C3                ret
000008DE  6690              o16 nop
000008E0  8B0D98C10408      mov ecx,[0x804c198]
000008E6  85C9              test ecx,ecx
000008E8  741E              jz 0x908
000008EA  B800000000        mov eax,0x0
000008EF  85C0              test eax,eax
000008F1  7415              jz 0x908
000008F3  55                push ebp
000008F4  89E5              mov ebp,esp
000008F6  83EC18            sub esp,byte +0x18
000008F9  C7042498C10408    mov dword [esp],0x804c198
00000900  FFD0              call eax
00000902  C9                leave
00000903  E948FFFFFF        jmp 0x100000850
00000908  E943FFFFFF        jmp 0x100000850
0000090D  6690              o16 nop
0000090F  90                nop
00000910  55                push ebp
00000911  89E5              mov ebp,esp
00000913  53                push ebx
00000914  8B4508            mov eax,[ebp+0x8]
00000917  8B10              mov edx,[eax]
00000919  89D0              mov eax,edx
0000091B  C1E002            shl eax,0x2
0000091E  01D0              add eax,edx
00000920  8D148500000000    lea edx,[eax*4+0x0]
00000927  01D0              add eax,edx
00000929  C1E002            shl eax,0x2
0000092C  89C2              mov edx,eax
0000092E  8B450C            mov eax,[ebp+0xc]
00000931  8B08              mov ecx,[eax]
00000933  8B4508            mov eax,[ebp+0x8]
00000936  8B4004            mov eax,[eax+0x4]
00000939  0FAFC1            imul eax,ecx
0000093C  8D1C02            lea ebx,[edx+eax]
0000093F  8B450C            mov eax,[ebp+0xc]
00000942  8B10              mov edx,[eax]
00000944  89D0              mov eax,edx
00000946  C1E002            shl eax,0x2
00000949  01D0              add eax,edx
0000094B  8D148500000000    lea edx,[eax*4+0x0]
00000952  01D0              add eax,edx
00000954  C1E002            shl eax,0x2
00000957  89C2              mov edx,eax
00000959  8B4508            mov eax,[ebp+0x8]
0000095C  8B08              mov ecx,[eax]
0000095E  8B450C            mov eax,[ebp+0xc]
00000961  8B4004            mov eax,[eax+0x4]
00000964  0FAFC1            imul eax,ecx
00000967  01D0              add eax,edx
00000969  39C3              cmp ebx,eax
0000096B  745C              jz 0x9c9
0000096D  8B4508            mov eax,[ebp+0x8]
00000970  8B10              mov edx,[eax]
00000972  89D0              mov eax,edx
00000974  C1E002            shl eax,0x2
00000977  01D0              add eax,edx
00000979  8D148500000000    lea edx,[eax*4+0x0]
00000980  01D0              add eax,edx
00000982  C1E002            shl eax,0x2
00000985  89C2              mov edx,eax
00000987  8B450C            mov eax,[ebp+0xc]
0000098A  8B08              mov ecx,[eax]
0000098C  8B4508            mov eax,[ebp+0x8]
0000098F  8B4004            mov eax,[eax+0x4]
00000992  0FAFC1            imul eax,ecx
00000995  8D1C02            lea ebx,[edx+eax]
00000998  8B450C            mov eax,[ebp+0xc]
0000099B  8B10              mov edx,[eax]
0000099D  89D0              mov eax,edx
0000099F  C1E002            shl eax,0x2
000009A2  01D0              add eax,edx
000009A4  8D148500000000    lea edx,[eax*4+0x0]
000009AB  01D0              add eax,edx
000009AD  C1E002            shl eax,0x2
000009B0  89C2              mov edx,eax
000009B2  8B4508            mov eax,[ebp+0x8]
000009B5  8B08              mov ecx,[eax]
000009B7  8B450C            mov eax,[ebp+0xc]
000009BA  8B4004            mov eax,[eax+0x4]
000009BD  0FAFC1            imul eax,ecx
000009C0  01D0              add eax,edx
000009C2  39C3              cmp ebx,eax
000009C4  0F9CC0            setl al
000009C7  EB11              jmp short 0x9da
000009C9  8B4508            mov eax,[ebp+0x8]
000009CC  8B5008            mov edx,[eax+0x8]
000009CF  8B450C            mov eax,[ebp+0xc]
000009D2  8B4008            mov eax,[eax+0x8]
000009D5  39C2              cmp edx,eax
000009D7  0F9CC0            setl al
000009DA  5B                pop ebx
000009DB  5D                pop ebp
000009DC  C3                ret
000009DD  8D4C2404          lea ecx,[esp+0x4]
000009E1  83E4F0            and esp,byte -0x10
000009E4  FF71FC            push dword [ecx-0x4]
000009E7  55                push ebp
000009E8  89E5              mov ebp,esp
000009EA  53                push ebx
000009EB  51                push ecx
000009EC  83EC50            sub esp,byte +0x50
000009EF  8D45C8            lea eax,[ebp-0x38]
000009F2  89442404          mov [esp+0x4],eax
000009F6  C70424E0C20408    mov dword [esp],0x804c2e0
000009FD  E88EFDFFFF        call 0x100000790
00000A02  C745F401000000    mov dword [ebp-0xc],0x1
00000A09  E906020000        jmp 0xc14
00000A0E  8D45C4            lea eax,[ebp-0x3c]
00000A11  89442404          mov [esp+0x4],eax
00000A15  C70424E0C20408    mov dword [esp],0x804c2e0
00000A1C  E86FFDFFFF        call 0x100000790
00000A21  8D45CF            lea eax,[ebp-0x31]
00000A24  890424            mov [esp],eax
00000A27  E8D8020000        call 0xd04
00000A2C  8D45D0            lea eax,[ebp-0x30]
00000A2F  890424            mov [esp],eax
00000A32  E8AF020000        call 0xce6
00000A37  8B45C4            mov eax,[ebp-0x3c]
00000A3A  8D55CF            lea edx,[ebp-0x31]
00000A3D  8954240C          mov [esp+0xc],edx
00000A41  8D55D0            lea edx,[ebp-0x30]
00000A44  89542408          mov [esp+0x8],edx
00000A48  89442404          mov [esp+0x4],eax
00000A4C  8D45B8            lea eax,[ebp-0x48]
00000A4F  890424            mov [esp],eax
00000A52  E8D5020000        call 0xd2c
00000A57  8D45CF            lea eax,[ebp-0x31]
00000A5A  890424            mov [esp],eax
00000A5D  E8B6020000        call 0xd18
00000A62  C745F000000000    mov dword [ebp-0x10],0x0
00000A69  EB1B              jmp short 0xa86
00000A6B  8B45F0            mov eax,[ebp-0x10]
00000A6E  89442404          mov [esp+0x4],eax
00000A72  8D45B8            lea eax,[ebp-0x48]
00000A75  890424            mov [esp],eax
00000A78  E85F030000        call 0xddc
00000A7D  8B55F0            mov edx,[ebp-0x10]
00000A80  895008            mov [eax+0x8],edx
00000A83  FF45F0            inc dword [ebp-0x10]
00000A86  8B45C4            mov eax,[ebp-0x3c]
00000A89  3945F0            cmp [ebp-0x10],eax
00000A8C  7CDD              jl 0xa6b
00000A8E  C745EC00000000    mov dword [ebp-0x14],0x0
00000A95  EB25              jmp short 0xabc
00000A97  8B45EC            mov eax,[ebp-0x14]
00000A9A  89442404          mov [esp+0x4],eax
00000A9E  8D45B8            lea eax,[ebp-0x48]
00000AA1  890424            mov [esp],eax
00000AA4  E833030000        call 0xddc
00000AA9  89442404          mov [esp+0x4],eax
00000AAD  C70424E0C20408    mov dword [esp],0x804c2e0
00000AB4  E8D7FCFFFF        call 0x100000790
00000AB9  FF45EC            inc dword [ebp-0x14]
00000ABC  8B45C4            mov eax,[ebp-0x3c]
00000ABF  3945EC            cmp [ebp-0x14],eax
00000AC2  7CD3              jl 0xa97
00000AC4  C745E800000000    mov dword [ebp-0x18],0x0
00000ACB  EB5D              jmp short 0xb2a
00000ACD  8B45E8            mov eax,[ebp-0x18]
00000AD0  89442404          mov [esp+0x4],eax
00000AD4  8D45B8            lea eax,[ebp-0x48]
00000AD7  890424            mov [esp],eax
00000ADA  E8FD020000        call 0xddc
00000ADF  83C004            add eax,byte +0x4
00000AE2  89442404          mov [esp+0x4],eax
00000AE6  C70424E0C20408    mov dword [esp],0x804c2e0
00000AED  E89EFCFFFF        call 0x100000790
00000AF2  8B45E8            mov eax,[ebp-0x18]
00000AF5  89442404          mov [esp+0x4],eax
00000AF9  8D45B8            lea eax,[ebp-0x48]
00000AFC  890424            mov [esp],eax
00000AFF  E8D8020000        call 0xddc
00000B04  89C3              mov ebx,eax
00000B06  8B45E8            mov eax,[ebp-0x18]
00000B09  89442404          mov [esp+0x4],eax
00000B0D  8D45B8            lea eax,[ebp-0x48]
00000B10  890424            mov [esp],eax
00000B13  E8C4020000        call 0xddc
00000B18  8B4004            mov eax,[eax+0x4]
00000B1B  BA64000000        mov edx,0x64
00000B20  29C2              sub edx,eax
00000B22  89D0              mov eax,edx
00000B24  894304            mov [ebx+0x4],eax
00000B27  FF45E8            inc dword [ebp-0x18]
00000B2A  8B45C4            mov eax,[ebp-0x3c]
00000B2D  3945E8            cmp [ebp-0x18],eax
00000B30  7C9B              jl 0xacd
00000B32  8D45DC            lea eax,[ebp-0x24]
00000B35  8D55B8            lea edx,[ebp-0x48]
00000B38  89542404          mov [esp+0x4],edx
00000B3C  890424            mov [esp],eax
00000B3F  E8D0020000        call 0xe14
00000B44  83EC04            sub esp,byte +0x4
00000B47  8D45E0            lea eax,[ebp-0x20]
00000B4A  8D55B8            lea edx,[ebp-0x48]
00000B4D  89542404          mov [esp+0x4],edx
00000B51  890424            mov [esp],eax
00000B54  E89B020000        call 0xdf4
00000B59  83EC04            sub esp,byte +0x4
00000B5C  C744240810890408  mov dword [esp+0x8],0x8048910
00000B64  8B45DC            mov eax,[ebp-0x24]
00000B67  89442404          mov [esp+0x4],eax
00000B6B  8B45E0            mov eax,[ebp-0x20]
00000B6E  890424            mov [esp],eax
00000B71  E8C0020000        call 0xe36
00000B76  C74424040CA30408  mov dword [esp+0x4],0x804a30c
00000B7E  C7042480C30408    mov dword [esp],0x804c380
00000B85  E8E6FBFFFF        call 0x100000770
00000B8A  8B55F4            mov edx,[ebp-0xc]
00000B8D  89542404          mov [esp+0x4],edx
00000B91  890424            mov [esp],eax
00000B94  E867FBFFFF        call 0x100000700
00000B99  C744240413A30408  mov dword [esp+0x4],0x804a313
00000BA1  890424            mov [esp],eax
00000BA4  E8C7FBFFFF        call 0x100000770
00000BA9  C745E400000000    mov dword [ebp-0x1c],0x0
00000BB0  EB38              jmp short 0xbea
00000BB2  8B45E4            mov eax,[ebp-0x1c]
00000BB5  89442404          mov [esp+0x4],eax
00000BB9  8D45B8            lea eax,[ebp-0x48]
00000BBC  890424            mov [esp],eax
00000BBF  E818020000        call 0xddc
00000BC4  8B5808            mov ebx,[eax+0x8]
00000BC7  C744240415A30408  mov dword [esp+0x4],0x804a315
00000BCF  C7042480C30408    mov dword [esp],0x804c380
00000BD6  E895FBFFFF        call 0x100000770
00000BDB  895C2404          mov [esp+0x4],ebx
00000BDF  890424            mov [esp],eax
00000BE2  E819FBFFFF        call 0x100000700
00000BE7  FF45E4            inc dword [ebp-0x1c]
00000BEA  8B45C4            mov eax,[ebp-0x3c]
00000BED  3945E4            cmp [ebp-0x1c],eax
00000BF0  7CC0              jl 0xbb2
00000BF2  C7442404C0870408  mov dword [esp+0x4],0x80487c0
00000BFA  C7042480C30408    mov dword [esp],0x804c380
00000C01  E89AFBFFFF        call 0x1000007a0
00000C06  8D45B8            lea eax,[ebp-0x48]
00000C09  890424            mov [esp],eax
00000C0C  E873010000        call 0xd84
00000C11  FF45F4            inc dword [ebp-0xc]
00000C14  8B45C8            mov eax,[ebp-0x38]
00000C17  8D50FF            lea edx,[eax-0x1]
00000C1A  8955C8            mov [ebp-0x38],edx
00000C1D  85C0              test eax,eax
00000C1F  0F95C0            setnz al
00000C22  84C0              test al,al
00000C24  0F85E4FDFFFF      jnz near 0x100000a0e
00000C2A  B800000000        mov eax,0x0
00000C2F  EB30              jmp short 0xc61
00000C31  89C3              mov ebx,eax
00000C33  EB02              jmp short 0xc37
00000C35  89C3              mov ebx,eax
00000C37  8D45CF            lea eax,[ebp-0x31]
00000C3A  890424            mov [esp],eax
00000C3D  E8D6000000        call 0xd18
00000C42  89D8              mov eax,ebx
00000C44  EB13              jmp short 0xc59
00000C46  89C3              mov ebx,eax
00000C48  8D45B8            lea eax,[ebp-0x48]
00000C4B  890424            mov [esp],eax
00000C4E  E831010000        call 0xd84
00000C53  89D8              mov eax,ebx
00000C55  EB02              jmp short 0xc59
00000C57  EB00              jmp short 0xc59
00000C59  890424            mov [esp],eax
00000C5C  E87FFBFFFF        call 0x1000007e0
00000C61  8D65F8            lea esp,[ebp-0x8]
00000C64  59                pop ecx
00000C65  5B                pop ebx
00000C66  5D                pop ebp
00000C67  8D61FC            lea esp,[ecx-0x4]
00000C6A  C3                ret
00000C6B  55                push ebp
00000C6C  89E5              mov ebp,esp
00000C6E  83EC18            sub esp,byte +0x18
00000C71  837D0801          cmp dword [ebp+0x8],byte +0x1
00000C75  7531              jnz 0xca8
00000C77  817D0CFFFF0000    cmp dword [ebp+0xc],0xffff
00000C7E  7528              jnz 0xca8
00000C80  C7042414C40408    mov dword [esp],0x804c414
00000C87  E8B4FAFFFF        call 0x100000740
00000C8C  C7442408CCC20408  mov dword [esp+0x8],0x804c2cc
00000C94  C744240414C40408  mov dword [esp+0x4],0x804c414
00000C9C  C7042460870408    mov dword [esp],0x8048760
00000CA3  E868FAFFFF        call 0x100000710
00000CA8  C9                leave
00000CA9  C3                ret
00000CAA  55                push ebp
00000CAB  89E5              mov ebp,esp
00000CAD  83EC18            sub esp,byte +0x18
00000CB0  C7442404FFFF0000  mov dword [esp+0x4],0xffff
00000CB8  C7042401000000    mov dword [esp],0x1
00000CBF  E8A7FFFFFF        call 0x100000c6b
00000CC4  C9                leave
00000CC5  C3                ret
00000CC6  55                push ebp
00000CC7  89E5              mov ebp,esp
00000CC9  BA20000000        mov edx,0x20
00000CCE  8B4508            mov eax,[ebp+0x8]
00000CD1  0FBDC0            bsr eax,eax
00000CD4  83F01F            xor eax,byte +0x1f
00000CD7  29C2              sub edx,eax
00000CD9  89D0              mov eax,edx
00000CDB  48                dec eax
00000CDC  5D                pop ebp
00000CDD  C3                ret
00000CDE  55                push ebp
00000CDF  89E5              mov ebp,esp
00000CE1  8B450C            mov eax,[ebp+0xc]
00000CE4  5D                pop ebp
00000CE5  C3                ret
00000CE6  55                push ebp
00000CE7  89E5              mov ebp,esp
00000CE9  83EC18            sub esp,byte +0x18
00000CEC  8B4508            mov eax,[ebp+0x8]
00000CEF  890424            mov [esp],eax
00000CF2  E8B1010000        call 0xea8
00000CF7  8B4508            mov eax,[ebp+0x8]
00000CFA  C7400800000000    mov dword [eax+0x8],0x0
00000D01  C9                leave
00000D02  C3                ret
00000D03  90                nop
00000D04  55                push ebp
00000D05  89E5              mov ebp,esp
00000D07  83EC18            sub esp,byte +0x18
00000D0A  8B4508            mov eax,[ebp+0x8]
00000D0D  890424            mov [esp],eax
00000D10  E8AB010000        call 0xec0
00000D15  C9                leave
00000D16  C3                ret
00000D17  90                nop
00000D18  55                push ebp
00000D19  89E5              mov ebp,esp
00000D1B  83EC18            sub esp,byte +0x18
00000D1E  8B4508            mov eax,[ebp+0x8]
00000D21  890424            mov [esp],eax
00000D24  E89D010000        call 0xec6
00000D29  C9                leave
00000D2A  C3                ret
00000D2B  90                nop
00000D2C  55                push ebp
00000D2D  89E5              mov ebp,esp
00000D2F  53                push ebx
00000D30  83EC14            sub esp,byte +0x14
00000D33  8B4508            mov eax,[ebp+0x8]
00000D36  8B5514            mov edx,[ebp+0x14]
00000D39  89542408          mov [esp+0x8],edx
00000D3D  8B550C            mov edx,[ebp+0xc]
00000D40  89542404          mov [esp+0x4],edx
00000D44  890424            mov [esp],eax
00000D47  E894010000        call 0xee0
00000D4C  8B4510            mov eax,[ebp+0x10]
00000D4F  89442408          mov [esp+0x8],eax
00000D53  8B450C            mov eax,[ebp+0xc]
00000D56  89442404          mov [esp+0x4],eax
00000D5A  8B4508            mov eax,[ebp+0x8]
00000D5D  890424            mov [esp],eax
00000D60  E847020000        call 0xfac
00000D65  EB17              jmp short 0xd7e
00000D67  89C3              mov ebx,eax
00000D69  8B4508            mov eax,[ebp+0x8]
00000D6C  890424            mov [esp],eax
00000D6F  E8B6010000        call 0xf2a
00000D74  89D8              mov eax,ebx
00000D76  890424            mov [esp],eax
00000D79  E862FAFFFF        call 0x1000007e0
00000D7E  83C414            add esp,byte +0x14
00000D81  5B                pop ebx
00000D82  5D                pop ebp
00000D83  C3                ret
00000D84  55                push ebp
00000D85  89E5              mov ebp,esp
00000D87  53                push ebx
00000D88  83EC14            sub esp,byte +0x14
00000D8B  8B4508            mov eax,[ebp+0x8]
00000D8E  890424            mov [esp],eax
00000D91  E854020000        call 0xfea
00000D96  8B5508            mov edx,[ebp+0x8]
00000D99  8B4A04            mov ecx,[edx+0x4]
00000D9C  8B5508            mov edx,[ebp+0x8]
00000D9F  8B12              mov edx,[edx]
00000DA1  89442408          mov [esp+0x8],eax
00000DA5  894C2404          mov [esp+0x4],ecx
00000DA9  891424            mov [esp],edx
00000DAC  E841020000        call 0xff2
00000DB1  8B4508            mov eax,[ebp+0x8]
00000DB4  890424            mov [esp],eax
00000DB7  E86E010000        call 0xf2a
00000DBC  EB17              jmp short 0xdd5
00000DBE  89C3              mov ebx,eax
00000DC0  8B4508            mov eax,[ebp+0x8]
00000DC3  890424            mov [esp],eax
00000DC6  E85F010000        call 0xf2a
00000DCB  89D8              mov eax,ebx
00000DCD  890424            mov [esp],eax
00000DD0  E80BFAFFFF        call 0x1000007e0
00000DD5  83C414            add esp,byte +0x14
00000DD8  5B                pop ebx
00000DD9  5D                pop ebp
00000DDA  C3                ret
00000DDB  90                nop
00000DDC  55                push ebp
00000DDD  89E5              mov ebp,esp
00000DDF  8B4508            mov eax,[ebp+0x8]
00000DE2  8B08              mov ecx,[eax]
00000DE4  8B550C            mov edx,[ebp+0xc]
00000DE7  89D0              mov eax,edx
00000DE9  01C0              add eax,eax
00000DEB  01D0              add eax,edx
00000DED  C1E002            shl eax,0x2
00000DF0  01C8              add eax,ecx
00000DF2  5D                pop ebp
00000DF3  C3                ret
00000DF4  55                push ebp
00000DF5  89E5              mov ebp,esp
00000DF7  83EC18            sub esp,byte +0x18
00000DFA  8B450C            mov eax,[ebp+0xc]
00000DFD  89442404          mov [esp+0x4],eax
00000E01  8B4508            mov eax,[ebp+0x8]
00000E04  890424            mov [esp],eax
00000E07  E800020000        call 0x100c
00000E0C  8B4508            mov eax,[ebp+0x8]
00000E0F  C9                leave
00000E10  C20400            ret 0x4
00000E13  90                nop
00000E14  55                push ebp
00000E15  89E5              mov ebp,esp
00000E17  83EC18            sub esp,byte +0x18
00000E1A  8B450C            mov eax,[ebp+0xc]
00000E1D  83C004            add eax,byte +0x4
00000E20  89442404          mov [esp+0x4],eax
00000E24  8B4508            mov eax,[ebp+0x8]
00000E27  890424            mov [esp],eax
00000E2A  E8DD010000        call 0x100c
00000E2F  8B4508            mov eax,[ebp+0x8]
00000E32  C9                leave
00000E33  C20400            ret 0x4
00000E36  55                push ebp
00000E37  89E5              mov ebp,esp
00000E39  83EC18            sub esp,byte +0x18
00000E3C  8D450C            lea eax,[ebp+0xc]
00000E3F  89442404          mov [esp+0x4],eax
00000E43  8D4508            lea eax,[ebp+0x8]
00000E46  890424            mov [esp],eax
00000E49  E8CD010000        call 0x101b
00000E4E  84C0              test al,al
00000E50  7453              jz 0xea5
00000E52  8D4508            lea eax,[ebp+0x8]
00000E55  89442404          mov [esp+0x4],eax
00000E59  8D450C            lea eax,[ebp+0xc]
00000E5C  890424            mov [esp],eax
00000E5F  E8E3010000        call 0x1047
00000E64  890424            mov [esp],eax
00000E67  E85AFEFFFF        call 0x100000cc6
00000E6C  8D1400            lea edx,[eax+eax]
00000E6F  8B4510            mov eax,[ebp+0x10]
00000E72  8944240C          mov [esp+0xc],eax
00000E76  89542408          mov [esp+0x8],edx
00000E7A  8B450C            mov eax,[ebp+0xc]
00000E7D  89442404          mov [esp+0x4],eax
00000E81  8B4508            mov eax,[ebp+0x8]
00000E84  890424            mov [esp],eax
00000E87  E80D020000        call 0x1099
00000E8C  8B4510            mov eax,[ebp+0x10]
00000E8F  89442408          mov [esp+0x8],eax
00000E93  8B450C            mov eax,[ebp+0xc]
00000E96  89442404          mov [esp+0x4],eax
00000E9A  8B4508            mov eax,[ebp+0x8]
00000E9D  890424            mov [esp],eax
00000EA0  E89C020000        call 0x1141
00000EA5  C9                leave
00000EA6  C3                ret
00000EA7  90                nop
00000EA8  55                push ebp
00000EA9  89E5              mov ebp,esp
00000EAB  8B4508            mov eax,[ebp+0x8]
00000EAE  C70000000000      mov dword [eax],0x0
00000EB4  8B4508            mov eax,[ebp+0x8]
00000EB7  C7400400000000    mov dword [eax+0x4],0x0
00000EBE  5D                pop ebp
00000EBF  C3                ret
00000EC0  55                push ebp
00000EC1  89E5              mov ebp,esp
00000EC3  5D                pop ebp
00000EC4  C3                ret
00000EC5  90                nop
00000EC6  55                push ebp
00000EC7  89E5              mov ebp,esp
00000EC9  5D                pop ebp
00000ECA  C3                ret
00000ECB  90                nop
00000ECC  55                push ebp
00000ECD  89E5              mov ebp,esp
00000ECF  83EC18            sub esp,byte +0x18
00000ED2  8B4508            mov eax,[ebp+0x8]
00000ED5  890424            mov [esp],eax
00000ED8  E83BFEFFFF        call 0x100000d18
00000EDD  C9                leave
00000EDE  C3                ret
00000EDF  90                nop
00000EE0  55                push ebp
00000EE1  89E5              mov ebp,esp
00000EE3  53                push ebx
00000EE4  83EC14            sub esp,byte +0x14
00000EE7  8B4508            mov eax,[ebp+0x8]
00000EEA  8B5510            mov edx,[ebp+0x10]
00000EED  89542404          mov [esp+0x4],edx
00000EF1  890424            mov [esp],eax
00000EF4  E815030000        call 0x120e
00000EF9  8B450C            mov eax,[ebp+0xc]
00000EFC  89442404          mov [esp+0x4],eax
00000F00  8B4508            mov eax,[ebp+0x8]
00000F03  890424            mov [esp],eax
00000F06  E83B030000        call 0x1246
00000F0B  EB17              jmp short 0xf24
00000F0D  89C3              mov ebx,eax
00000F0F  8B4508            mov eax,[ebp+0x8]
00000F12  890424            mov [esp],eax
00000F15  E8B2FFFFFF        call 0x100000ecc
00000F1A  89D8              mov eax,ebx
00000F1C  890424            mov [esp],eax
00000F1F  E8BCF8FFFF        call 0x1000007e0
00000F24  83C414            add esp,byte +0x14
00000F27  5B                pop ebx
00000F28  5D                pop ebp
00000F29  C3                ret
00000F2A  55                push ebp
00000F2B  89E5              mov ebp,esp
00000F2D  53                push ebx
00000F2E  83EC14            sub esp,byte +0x14
00000F31  8B4508            mov eax,[ebp+0x8]
00000F34  8B4008            mov eax,[eax+0x8]
00000F37  89C2              mov edx,eax
00000F39  8B4508            mov eax,[ebp+0x8]
00000F3C  8B00              mov eax,[eax]
00000F3E  29C2              sub edx,eax
00000F40  89D0              mov eax,edx
00000F42  C1F802            sar eax,0x2
00000F45  89C2              mov edx,eax
00000F47  89D0              mov eax,edx
00000F49  C1E002            shl eax,0x2
00000F4C  01D0              add eax,edx
00000F4E  89C1              mov ecx,eax
00000F50  C1E104            shl ecx,0x4
00000F53  01C8              add eax,ecx
00000F55  89C1              mov ecx,eax
00000F57  C1E108            shl ecx,0x8
00000F5A  01C8              add eax,ecx
00000F5C  89C1              mov ecx,eax
00000F5E  C1E110            shl ecx,0x10
00000F61  01C8              add eax,ecx
00000F63  01C0              add eax,eax
00000F65  01D0              add eax,edx
00000F67  89C2              mov edx,eax
00000F69  8B4508            mov eax,[ebp+0x8]
00000F6C  8B00              mov eax,[eax]
00000F6E  89542408          mov [esp+0x8],edx
00000F72  89442404          mov [esp+0x4],eax
00000F76  8B4508            mov eax,[ebp+0x8]
00000F79  890424            mov [esp],eax
00000F7C  E809030000        call 0x128a
00000F81  8B4508            mov eax,[ebp+0x8]
00000F84  890424            mov [esp],eax
00000F87  E840FFFFFF        call 0x100000ecc
00000F8C  EB17              jmp short 0xfa5
00000F8E  89C3              mov ebx,eax
00000F90  8B4508            mov eax,[ebp+0x8]
00000F93  890424            mov [esp],eax
00000F96  E831FFFFFF        call 0x100000ecc
00000F9B  89D8              mov eax,ebx
00000F9D  890424            mov [esp],eax
00000FA0  E83BF8FFFF        call 0x1000007e0
00000FA5  83C414            add esp,byte +0x14
00000FA8  5B                pop ebx
00000FA9  5D                pop ebp
00000FAA  C3                ret
00000FAB  90                nop
00000FAC  55                push ebp
00000FAD  89E5              mov ebp,esp
00000FAF  83EC18            sub esp,byte +0x18
00000FB2  8B4508            mov eax,[ebp+0x8]
00000FB5  890424            mov [esp],eax
00000FB8  E82D000000        call 0xfea
00000FBD  8B5508            mov edx,[ebp+0x8]
00000FC0  8B12              mov edx,[edx]
00000FC2  8944240C          mov [esp+0xc],eax
00000FC6  8B4510            mov eax,[ebp+0x10]
00000FC9  89442408          mov [esp+0x8],eax
00000FCD  8B450C            mov eax,[ebp+0xc]
00000FD0  89442404          mov [esp+0x4],eax
00000FD4  891424            mov [esp],edx
00000FD7  E8D5020000        call 0x12b1
00000FDC  8B4508            mov eax,[ebp+0x8]
00000FDF  8B5008            mov edx,[eax+0x8]
00000FE2  8B4508            mov eax,[ebp+0x8]
00000FE5  895004            mov [eax+0x4],edx
00000FE8  C9                leave
00000FE9  C3                ret
00000FEA  55                push ebp
00000FEB  89E5              mov ebp,esp
00000FED  8B4508            mov eax,[ebp+0x8]
00000FF0  5D                pop ebp
00000FF1  C3                ret
00000FF2  55                push ebp
00000FF3  89E5              mov ebp,esp
00000FF5  83EC18            sub esp,byte +0x18
00000FF8  8B450C            mov eax,[ebp+0xc]
00000FFB  89442404          mov [esp+0x4],eax
00000FFF  8B4508            mov eax,[ebp+0x8]
00001002  890424            mov [esp],eax
00001005  E8C8020000        call 0x12d2
0000100A  C9                leave
0000100B  C3                ret
0000100C  55                push ebp
0000100D  89E5              mov ebp,esp
0000100F  8B450C            mov eax,[ebp+0xc]
00001012  8B10              mov edx,[eax]
00001014  8B4508            mov eax,[ebp+0x8]
00001017  8910              mov [eax],edx
00001019  5D                pop ebp
0000101A  C3                ret
0000101B  55                push ebp
0000101C  89E5              mov ebp,esp
0000101E  53                push ebx
0000101F  83EC14            sub esp,byte +0x14
00001022  8B4508            mov eax,[ebp+0x8]
00001025  890424            mov [esp],eax
00001028  E8BF020000        call 0x12ec
0000102D  8B18              mov ebx,[eax]
0000102F  8B450C            mov eax,[ebp+0xc]
00001032  890424            mov [esp],eax
00001035  E8B2020000        call 0x12ec
0000103A  8B00              mov eax,[eax]
0000103C  39C3              cmp ebx,eax
0000103E  0F95C0            setnz al
00001041  83C414            add esp,byte +0x14
00001044  5B                pop ebx
00001045  5D                pop ebp
00001046  C3                ret
00001047  55                push ebp
00001048  89E5              mov ebp,esp
0000104A  53                push ebx
0000104B  83EC14            sub esp,byte +0x14
0000104E  8B4508            mov eax,[ebp+0x8]
00001051  890424            mov [esp],eax
00001054  E893020000        call 0x12ec
00001059  8B00              mov eax,[eax]
0000105B  89C3              mov ebx,eax
0000105D  8B450C            mov eax,[ebp+0xc]
00001060  890424            mov [esp],eax
00001063  E884020000        call 0x12ec
00001068  8B00              mov eax,[eax]
0000106A  29C3              sub ebx,eax
0000106C  89D8              mov eax,ebx
0000106E  C1F802            sar eax,0x2
00001071  89C2              mov edx,eax
00001073  89D0              mov eax,edx
00001075  C1E002            shl eax,0x2
00001078  01D0              add eax,edx
0000107A  89C1              mov ecx,eax
0000107C  C1E104            shl ecx,0x4
0000107F  01C8              add eax,ecx
00001081  89C1              mov ecx,eax
00001083  C1E108            shl ecx,0x8
00001086  01C8              add eax,ecx
00001088  89C1              mov ecx,eax
0000108A  C1E110            shl ecx,0x10
0000108D  01C8              add eax,ecx
0000108F  01C0              add eax,eax
00001091  01D0              add eax,edx
00001093  83C414            add esp,byte +0x14
00001096  5B                pop ebx
00001097  5D                pop ebp
00001098  C3                ret
00001099  55                push ebp
0000109A  89E5              mov ebp,esp
0000109C  83EC28            sub esp,byte +0x28
0000109F  EB74              jmp short 0x1115
000010A1  837D1000          cmp dword [ebp+0x10],byte +0x0
000010A5  7522              jnz 0x10c9
000010A7  8B4514            mov eax,[ebp+0x14]
000010AA  8944240C          mov [esp+0xc],eax
000010AE  8B450C            mov eax,[ebp+0xc]
000010B1  89442408          mov [esp+0x8],eax
000010B5  8B450C            mov eax,[ebp+0xc]
000010B8  89442404          mov [esp+0x4],eax
000010BC  8B4508            mov eax,[ebp+0x8]
000010BF  890424            mov [esp],eax
000010C2  E82D020000        call 0x12f4
000010C7  EB76              jmp short 0x113f
000010C9  FF4D10            dec dword [ebp+0x10]
000010CC  8D45F4            lea eax,[ebp-0xc]
000010CF  8B5514            mov edx,[ebp+0x14]
000010D2  8954240C          mov [esp+0xc],edx
000010D6  8B550C            mov edx,[ebp+0xc]
000010D9  89542408          mov [esp+0x8],edx
000010DD  8B5508            mov edx,[ebp+0x8]
000010E0  89542404          mov [esp+0x4],edx
000010E4  890424            mov [esp],eax
000010E7  E849020000        call 0x1335
000010EC  83EC04            sub esp,byte +0x4
000010EF  8B4514            mov eax,[ebp+0x14]
000010F2  8944240C          mov [esp+0xc],eax
000010F6  8B4510            mov eax,[ebp+0x10]
000010F9  89442408          mov [esp+0x8],eax
000010FD  8B450C            mov eax,[ebp+0xc]
00001100  89442404          mov [esp+0x4],eax
00001104  8B45F4            mov eax,[ebp-0xc]
00001107  890424            mov [esp],eax
0000110A  E88AFFFFFF        call 0x100001099
0000110F  8B45F4            mov eax,[ebp-0xc]
00001112  89450C            mov [ebp+0xc],eax
00001115  8D4508            lea eax,[ebp+0x8]
00001118  89442404          mov [esp+0x4],eax
0000111C  8D450C            lea eax,[ebp+0xc]
0000111F  890424            mov [esp],eax
00001122  E820FFFFFF        call 0x100001047
00001127  83F810            cmp eax,byte +0x10
0000112A  0F9FC0            setg al
0000112D  84C0              test al,al
0000112F  0F856CFFFFFF      jnz near 0x1000010a1
00001135  EB08              jmp short 0x113f
00001137  890424            mov [esp],eax
0000113A  E8A1F6FFFF        call 0x1000007e0
0000113F  C9                leave
00001140  C3                ret
00001141  55                push ebp
00001142  89E5              mov ebp,esp
00001144  53                push ebx
00001145  83EC24            sub esp,byte +0x24
00001148  8D4508            lea eax,[ebp+0x8]
0000114B  89442404          mov [esp+0x4],eax
0000114F  8D450C            lea eax,[ebp+0xc]
00001152  890424            mov [esp],eax
00001155  E8EDFEFFFF        call 0x100001047
0000115A  83F810            cmp eax,byte +0x10
0000115D  0F9FC0            setg al
00001160  84C0              test al,al
00001162  747A              jz 0x11de
00001164  C745E810000000    mov dword [ebp-0x18],0x10
0000116B  8D45EC            lea eax,[ebp-0x14]
0000116E  8D55E8            lea edx,[ebp-0x18]
00001171  89542408          mov [esp+0x8],edx
00001175  8D4D08            lea ecx,[ebp+0x8]
00001178  894C2404          mov [esp+0x4],ecx
0000117C  890424            mov [esp],eax
0000117F  E8A2020000        call 0x1426
00001184  83EC04            sub esp,byte +0x4
00001187  8B4510            mov eax,[ebp+0x10]
0000118A  89442408          mov [esp+0x8],eax
0000118E  8B45EC            mov eax,[ebp-0x14]
00001191  89442404          mov [esp+0x4],eax
00001195  8B4508            mov eax,[ebp+0x8]
00001198  890424            mov [esp],eax
0000119B  E8BF020000        call 0x145f
000011A0  C745F010000000    mov dword [ebp-0x10],0x10
000011A7  8D45F4            lea eax,[ebp-0xc]
000011AA  8D55F0            lea edx,[ebp-0x10]
000011AD  89542408          mov [esp+0x8],edx
000011B1  8D5D08            lea ebx,[ebp+0x8]
000011B4  895C2404          mov [esp+0x4],ebx
000011B8  890424            mov [esp],eax
000011BB  E866020000        call 0x1426
000011C0  83EC04            sub esp,byte +0x4
000011C3  8B4510            mov eax,[ebp+0x10]
000011C6  89442408          mov [esp+0x8],eax
000011CA  8B450C            mov eax,[ebp+0xc]
000011CD  89442404          mov [esp+0x4],eax
000011D1  8B45F4            mov eax,[ebp-0xc]
000011D4  890424            mov [esp],eax
000011D7  E8C1030000        call 0x159d
000011DC  EB2B              jmp short 0x1209
000011DE  8B4510            mov eax,[ebp+0x10]
000011E1  89442408          mov [esp+0x8],eax
000011E5  8B450C            mov eax,[ebp+0xc]
000011E8  89442404          mov [esp+0x4],eax
000011EC  8B4508            mov eax,[ebp+0x8]
000011EF  890424            mov [esp],eax
000011F2  E868020000        call 0x145f
000011F7  EB10              jmp short 0x1209
000011F9  890424            mov [esp],eax
000011FC  E8DFF5FFFF        call 0x1000007e0
00001201  890424            mov [esp],eax
00001204  E8D7F5FFFF        call 0x1000007e0
00001209  8B5DFC            mov ebx,[ebp-0x4]
0000120C  C9                leave
0000120D  C3                ret
0000120E  55                push ebp
0000120F  89E5              mov ebp,esp
00001211  83EC18            sub esp,byte +0x18
00001214  8B450C            mov eax,[ebp+0xc]
00001217  89442404          mov [esp+0x4],eax
0000121B  8B4508            mov eax,[ebp+0x8]
0000121E  890424            mov [esp],eax
00001221  E8C4030000        call 0x15ea
00001226  8B4508            mov eax,[ebp+0x8]
00001229  C70000000000      mov dword [eax],0x0
0000122F  8B4508            mov eax,[ebp+0x8]
00001232  C7400400000000    mov dword [eax+0x4],0x0
00001239  8B4508            mov eax,[ebp+0x8]
0000123C  C7400800000000    mov dword [eax+0x8],0x0
00001243  C9                leave
00001244  C3                ret
00001245  90                nop
00001246  55                push ebp
00001247  89E5              mov ebp,esp
00001249  83EC18            sub esp,byte +0x18
0000124C  8B450C            mov eax,[ebp+0xc]
0000124F  89442404          mov [esp+0x4],eax
00001253  8B4508            mov eax,[ebp+0x8]
00001256  890424            mov [esp],eax
00001259  E8A6030000        call 0x1604
0000125E  8B5508            mov edx,[ebp+0x8]
00001261  8902              mov [edx],eax
00001263  8B4508            mov eax,[ebp+0x8]
00001266  8B10              mov edx,[eax]
00001268  8B4508            mov eax,[ebp+0x8]
0000126B  895004            mov [eax+0x4],edx
0000126E  8B4508            mov eax,[ebp+0x8]
00001271  8B08              mov ecx,[eax]
00001273  8B550C            mov edx,[ebp+0xc]
00001276  89D0              mov eax,edx
00001278  01C0              add eax,eax
0000127A  01D0              add eax,edx
0000127C  C1E002            shl eax,0x2
0000127F  8D1401            lea edx,[ecx+eax]
00001282  8B4508            mov eax,[ebp+0x8]
00001285  895008            mov [eax+0x8],edx
00001288  C9                leave
00001289  C3                ret
0000128A  55                push ebp
0000128B  89E5              mov ebp,esp
0000128D  83EC18            sub esp,byte +0x18
00001290  837D0C00          cmp dword [ebp+0xc],byte +0x0
00001294  7419              jz 0x12af
00001296  8B4508            mov eax,[ebp+0x8]
00001299  8B5510            mov edx,[ebp+0x10]
0000129C  89542408          mov [esp+0x8],edx
000012A0  8B550C            mov edx,[ebp+0xc]
000012A3  89542404          mov [esp+0x4],edx
000012A7  890424            mov [esp],eax
000012AA  E885030000        call 0x1634
000012AF  C9                leave
000012B0  C3                ret
000012B1  55                push ebp
000012B2  89E5              mov ebp,esp
000012B4  83EC18            sub esp,byte +0x18
000012B7  8B4510            mov eax,[ebp+0x10]
000012BA  89442408          mov [esp+0x8],eax
000012BE  8B450C            mov eax,[ebp+0xc]
000012C1  89442404          mov [esp+0x4],eax
000012C5  8B4508            mov eax,[ebp+0x8]
000012C8  890424            mov [esp],eax
000012CB  E877030000        call 0x1647
000012D0  C9                leave
000012D1  C3                ret
000012D2  55                push ebp
000012D3  89E5              mov ebp,esp
000012D5  83EC18            sub esp,byte +0x18
000012D8  8B450C            mov eax,[ebp+0xc]
000012DB  89442404          mov [esp+0x4],eax
000012DF  8B4508            mov eax,[ebp+0x8]
000012E2  890424            mov [esp],eax
000012E5  E87E030000        call 0x1668
000012EA  C9                leave
000012EB  C3                ret
000012EC  55                push ebp
000012ED  89E5              mov ebp,esp
000012EF  8B4508            mov eax,[ebp+0x8]
000012F2  5D                pop ebp
000012F3  C3                ret
000012F4  55                push ebp
000012F5  89E5              mov ebp,esp
000012F7  83EC18            sub esp,byte +0x18
000012FA  8B4514            mov eax,[ebp+0x14]
000012FD  8944240C          mov [esp+0xc],eax
00001301  8B4510            mov eax,[ebp+0x10]
00001304  89442408          mov [esp+0x8],eax
00001308  8B450C            mov eax,[ebp+0xc]
0000130B  89442404          mov [esp+0x4],eax
0000130F  8B4508            mov eax,[ebp+0x8]
00001312  890424            mov [esp],eax
00001315  E853030000        call 0x166d
0000131A  8B4514            mov eax,[ebp+0x14]
0000131D  89442408          mov [esp+0x8],eax
00001321  8B450C            mov eax,[ebp+0xc]
00001324  89442404          mov [esp+0x4],eax
00001328  8B4508            mov eax,[ebp+0x8]
0000132B  890424            mov [esp],eax
0000132E  E8DB030000        call 0x170e
00001333  C9                leave
00001334  C3                ret
00001335  55                push ebp
00001336  89E5              mov ebp,esp
00001338  53                push ebx
00001339  83EC44            sub esp,byte +0x44
0000133C  8D450C            lea eax,[ebp+0xc]
0000133F  89442404          mov [esp+0x4],eax
00001343  8D4510            lea eax,[ebp+0x10]
00001346  890424            mov [esp],eax
00001349  E8F9FCFFFF        call 0x100001047
0000134E  89C2              mov edx,eax
00001350  C1EA1F            shr edx,0x1f
00001353  01D0              add eax,edx
00001355  D1F8              sar eax,1
00001357  8945E4            mov [ebp-0x1c],eax
0000135A  8D45E0            lea eax,[ebp-0x20]
0000135D  8D55E4            lea edx,[ebp-0x1c]
00001360  89542408          mov [esp+0x8],edx
00001364  8D550C            lea edx,[ebp+0xc]
00001367  89542404          mov [esp+0x4],edx
0000136B  890424            mov [esp],eax
0000136E  E8B3000000        call 0x1426
00001373  83EC04            sub esp,byte +0x4
00001376  C745E801000000    mov dword [ebp-0x18],0x1
0000137D  8D45EC            lea eax,[ebp-0x14]
00001380  8D55E8            lea edx,[ebp-0x18]
00001383  89542408          mov [esp+0x8],edx
00001387  8D5510            lea edx,[ebp+0x10]
0000138A  89542404          mov [esp+0x4],edx
0000138E  890424            mov [esp],eax
00001391  E8CA030000        call 0x1760
00001396  83EC04            sub esp,byte +0x4
00001399  8B4514            mov eax,[ebp+0x14]
0000139C  8944240C          mov [esp+0xc],eax
000013A0  8B45EC            mov eax,[ebp-0x14]
000013A3  89442408          mov [esp+0x8],eax
000013A7  8B45E0            mov eax,[ebp-0x20]
000013AA  89442404          mov [esp+0x4],eax
000013AE  8B450C            mov eax,[ebp+0xc]
000013B1  890424            mov [esp],eax
000013B4  E8E2030000        call 0x179b
000013B9  8D450C            lea eax,[ebp+0xc]
000013BC  890424            mov [esp],eax
000013BF  E804050000        call 0x18c8
000013C4  89C3              mov ebx,eax
000013C6  C745F001000000    mov dword [ebp-0x10],0x1
000013CD  8D45F4            lea eax,[ebp-0xc]
000013D0  8D55F0            lea edx,[ebp-0x10]
000013D3  89542408          mov [esp+0x8],edx
000013D7  8D550C            lea edx,[ebp+0xc]
000013DA  89542404          mov [esp+0x4],edx
000013DE  890424            mov [esp],eax
000013E1  E840000000        call 0x1426
000013E6  83EC04            sub esp,byte +0x4
000013E9  8B4508            mov eax,[ebp+0x8]
000013EC  8B5514            mov edx,[ebp+0x14]
000013EF  89542410          mov [esp+0x10],edx
000013F3  895C240C          mov [esp+0xc],ebx
000013F7  8B5510            mov edx,[ebp+0x10]
000013FA  89542408          mov [esp+0x8],edx
000013FE  8B55F4            mov edx,[ebp-0xc]
00001401  89542404          mov [esp+0x4],edx
00001405  890424            mov [esp],eax
00001408  E8C5040000        call 0x18d2
0000140D  83EC04            sub esp,byte +0x4
00001410  EB0A              jmp short 0x141c
00001412  EB00              jmp short 0x1414
00001414  890424            mov [esp],eax
00001417  E8C4F3FFFF        call 0x1000007e0
0000141C  8B4508            mov eax,[ebp+0x8]
0000141F  8B5DFC            mov ebx,[ebp-0x4]
00001422  C9                leave
00001423  C20400            ret 0x4
00001426  55                push ebp
00001427  89E5              mov ebp,esp
00001429  83EC28            sub esp,byte +0x28
0000142C  8B450C            mov eax,[ebp+0xc]
0000142F  8B08              mov ecx,[eax]
00001431  8B4510            mov eax,[ebp+0x10]
00001434  8B00              mov eax,[eax]
00001436  89C2              mov edx,eax
00001438  89D0              mov eax,edx
0000143A  01C0              add eax,eax
0000143C  01D0              add eax,edx
0000143E  C1E002            shl eax,0x2
00001441  01C8              add eax,ecx
00001443  8945F4            mov [ebp-0xc],eax
00001446  8D45F4            lea eax,[ebp-0xc]
00001449  89442404          mov [esp+0x4],eax
0000144D  8B4508            mov eax,[ebp+0x8]
00001450  890424            mov [esp],eax
00001453  E8B4FBFFFF        call 0x10000100c
00001458  8B4508            mov eax,[ebp+0x8]
0000145B  C9                leave
0000145C  C20400            ret 0x4
0000145F  55                push ebp
00001460  89E5              mov ebp,esp
00001462  53                push ebx
00001463  83EC34            sub esp,byte +0x34
00001466  8D450C            lea eax,[ebp+0xc]
00001469  89442404          mov [esp+0x4],eax
0000146D  8D4508            lea eax,[ebp+0x8]
00001470  890424            mov [esp],eax
00001473  E80E050000        call 0x1986
00001478  84C0              test al,al
0000147A  7405              jz 0x1481
0000147C  E917010000        jmp 0x1598
00001481  C745E801000000    mov dword [ebp-0x18],0x1
00001488  8D45E4            lea eax,[ebp-0x1c]
0000148B  8D55E8            lea edx,[ebp-0x18]
0000148E  89542408          mov [esp+0x8],edx
00001492  8D4D08            lea ecx,[ebp+0x8]
00001495  894C2404          mov [esp+0x4],ecx
00001499  890424            mov [esp],eax
0000149C  E885FFFFFF        call 0x100001426
000014A1  83EC04            sub esp,byte +0x4
000014A4  E9C9000000        jmp 0x1572
000014A9  8D4508            lea eax,[ebp+0x8]
000014AC  890424            mov [esp],eax
000014AF  E814040000        call 0x18c8
000014B4  89C3              mov ebx,eax
000014B6  8D45E4            lea eax,[ebp-0x1c]
000014B9  890424            mov [esp],eax
000014BC  E807040000        call 0x18c8
000014C1  895C2404          mov [esp+0x4],ebx
000014C5  890424            mov [esp],eax
000014C8  8B4510            mov eax,[ebp+0x10]
000014CB  FFD0              call eax
000014CD  84C0              test al,al
000014CF  0F8480000000      jz near 0x1555
000014D5  8D45E4            lea eax,[ebp-0x1c]
000014D8  890424            mov [esp],eax
000014DB  E8E8030000        call 0x18c8
000014E0  8B10              mov edx,[eax]
000014E2  8955D8            mov [ebp-0x28],edx
000014E5  8B5004            mov edx,[eax+0x4]
000014E8  8955DC            mov [ebp-0x24],edx
000014EB  8B4008            mov eax,[eax+0x8]
000014EE  8945E0            mov [ebp-0x20],eax
000014F1  C745F001000000    mov dword [ebp-0x10],0x1
000014F8  8D45F4            lea eax,[ebp-0xc]
000014FB  8D55F0            lea edx,[ebp-0x10]
000014FE  89542408          mov [esp+0x8],edx
00001502  8D55E4            lea edx,[ebp-0x1c]
00001505  89542404          mov [esp+0x4],edx
00001509  890424            mov [esp],eax
0000150C  E815FFFFFF        call 0x100001426
00001511  83EC04            sub esp,byte +0x4
00001514  8D45EC            lea eax,[ebp-0x14]
00001517  8B55F4            mov edx,[ebp-0xc]
0000151A  8954240C          mov [esp+0xc],edx
0000151E  8B55E4            mov edx,[ebp-0x1c]
00001521  89542408          mov [esp+0x8],edx
00001525  8B5508            mov edx,[ebp+0x8]
00001528  89542404          mov [esp+0x4],edx
0000152C  890424            mov [esp],eax
0000152F  E893040000        call 0x19c7
00001534  83EC04            sub esp,byte +0x4
00001537  8D4508            lea eax,[ebp+0x8]
0000153A  890424            mov [esp],eax
0000153D  E886030000        call 0x18c8
00001542  8B55D8            mov edx,[ebp-0x28]
00001545  8910              mov [eax],edx
00001547  8B55DC            mov edx,[ebp-0x24]
0000154A  895004            mov [eax+0x4],edx
0000154D  8B55E0            mov edx,[ebp-0x20]
00001550  895008            mov [eax+0x8],edx
00001553  EB12              jmp short 0x1567
00001555  8B4510            mov eax,[ebp+0x10]
00001558  89442404          mov [esp+0x4],eax
0000155C  8B45E4            mov eax,[ebp-0x1c]
0000155F  890424            mov [esp],eax
00001562  E8BA040000        call 0x1a21
00001567  8D45E4            lea eax,[ebp-0x1c]
0000156A  890424            mov [esp],eax
0000156D  E840040000        call 0x19b2
00001572  8D450C            lea eax,[ebp+0xc]
00001575  89442404          mov [esp+0x4],eax
00001579  8D45E4            lea eax,[ebp-0x1c]
0000157C  890424            mov [esp],eax
0000157F  E897FAFFFF        call 0x10000101b
00001584  84C0              test al,al
00001586  0F851DFFFFFF      jnz near 0x1000014a9
0000158C  EB0A              jmp short 0x1598
0000158E  EB00              jmp short 0x1590
00001590  890424            mov [esp],eax
00001593  E848F2FFFF        call 0x1000007e0
00001598  8B5DFC            mov ebx,[ebp-0x4]
0000159B  C9                leave
0000159C  C3                ret
0000159D  55                push ebp
0000159E  89E5              mov ebp,esp
000015A0  83EC28            sub esp,byte +0x28
000015A3  8B4508            mov eax,[ebp+0x8]
000015A6  8945F4            mov [ebp-0xc],eax
000015A9  EB1D              jmp short 0x15c8
000015AB  8B4510            mov eax,[ebp+0x10]
000015AE  89442404          mov [esp+0x4],eax
000015B2  8B45F4            mov eax,[ebp-0xc]
000015B5  890424            mov [esp],eax
000015B8  E864040000        call 0x1a21
000015BD  8D45F4            lea eax,[ebp-0xc]
000015C0  890424            mov [esp],eax
000015C3  E8EA030000        call 0x19b2
000015C8  8D450C            lea eax,[ebp+0xc]
000015CB  89442404          mov [esp+0x4],eax
000015CF  8D45F4            lea eax,[ebp-0xc]
000015D2  890424            mov [esp],eax
000015D5  E841FAFFFF        call 0x10000101b
000015DA  84C0              test al,al
000015DC  75CD              jnz 0x15ab
000015DE  EB08              jmp short 0x15e8
000015E0  890424            mov [esp],eax
000015E3  E8F8F1FFFF        call 0x1000007e0
000015E8  C9                leave
000015E9  C3                ret
000015EA  55                push ebp
000015EB  89E5              mov ebp,esp
000015ED  83EC18            sub esp,byte +0x18
000015F0  8B450C            mov eax,[ebp+0xc]
000015F3  89442404          mov [esp+0x4],eax
000015F7  8B4508            mov eax,[ebp+0x8]
000015FA  890424            mov [esp],eax
000015FD  E8D8040000        call 0x1ada
00001602  C9                leave
00001603  C3                ret
00001604  55                push ebp
00001605  89E5              mov ebp,esp
00001607  83EC18            sub esp,byte +0x18
0000160A  837D0C00          cmp dword [ebp+0xc],byte +0x0
0000160E  741C              jz 0x162c
00001610  8B4508            mov eax,[ebp+0x8]
00001613  C744240800000000  mov dword [esp+0x8],0x0
0000161B  8B550C            mov edx,[ebp+0xc]
0000161E  89542404          mov [esp+0x4],edx
00001622  890424            mov [esp],eax
00001625  E8B6040000        call 0x1ae0
0000162A  EB05              jmp short 0x1631
0000162C  B800000000        mov eax,0x0
00001631  C9                leave
00001632  C3                ret
00001633  90                nop
00001634  55                push ebp
00001635  89E5              mov ebp,esp
00001637  83EC18            sub esp,byte +0x18
0000163A  8B450C            mov eax,[ebp+0xc]
0000163D  890424            mov [esp],eax
00001640  E8EBF0FFFF        call 0x100000730
00001645  C9                leave
00001646  C3                ret
00001647  55                push ebp
00001648  89E5              mov ebp,esp
0000164A  83EC18            sub esp,byte +0x18
0000164D  8B4510            mov eax,[ebp+0x10]
00001650  89442408          mov [esp+0x8],eax
00001654  8B450C            mov eax,[ebp+0xc]
00001657  89442404          mov [esp+0x4],eax
0000165B  8B4508            mov eax,[ebp+0x8]
0000165E  890424            mov [esp],eax
00001661  E8B0040000        call 0x1b16
00001666  C9                leave
00001667  C3                ret
00001668  55                push ebp
00001669  89E5              mov ebp,esp
0000166B  5D                pop ebp
0000166C  C3                ret
0000166D  55                push ebp
0000166E  89E5              mov ebp,esp
00001670  53                push ebx
00001671  83EC24            sub esp,byte +0x24
00001674  8B4514            mov eax,[ebp+0x14]
00001677  89442408          mov [esp+0x8],eax
0000167B  8B450C            mov eax,[ebp+0xc]
0000167E  89442404          mov [esp+0x4],eax
00001682  8B4508            mov eax,[ebp+0x8]
00001685  890424            mov [esp],eax
00001688  E8C0040000        call 0x1b4d
0000168D  8B450C            mov eax,[ebp+0xc]
00001690  8945F4            mov [ebp-0xc],eax
00001693  EB53              jmp short 0x16e8
00001695  8D4508            lea eax,[ebp+0x8]
00001698  890424            mov [esp],eax
0000169B  E828020000        call 0x18c8
000016A0  89C3              mov ebx,eax
000016A2  8D45F4            lea eax,[ebp-0xc]
000016A5  890424            mov [esp],eax
000016A8  E81B020000        call 0x18c8
000016AD  895C2404          mov [esp+0x4],ebx
000016B1  890424            mov [esp],eax
000016B4  8B4514            mov eax,[ebp+0x14]
000016B7  FFD0              call eax
000016B9  84C0              test al,al
000016BB  7420              jz 0x16dd
000016BD  8B4514            mov eax,[ebp+0x14]
000016C0  8944240C          mov [esp+0xc],eax
000016C4  8B45F4            mov eax,[ebp-0xc]
000016C7  89442408          mov [esp+0x8],eax
000016CB  8B450C            mov eax,[ebp+0xc]
000016CE  89442404          mov [esp+0x4],eax
000016D2  8B4508            mov eax,[ebp+0x8]
000016D5  890424            mov [esp],eax
000016D8  E871050000        call 0x1c4e
000016DD  8D45F4            lea eax,[ebp-0xc]
000016E0  890424            mov [esp],eax
000016E3  E8CA020000        call 0x19b2
000016E8  8D4510            lea eax,[ebp+0x10]
000016EB  89442404          mov [esp+0x4],eax
000016EF  8D45F4            lea eax,[ebp-0xc]
000016F2  890424            mov [esp],eax
000016F5  E828050000        call 0x1c22
000016FA  84C0              test al,al
000016FC  7597              jnz 0x1695
000016FE  EB08              jmp short 0x1708
00001700  890424            mov [esp],eax
00001703  E8D8F0FFFF        call 0x1000007e0
00001708  83C424            add esp,byte +0x24
0000170B  5B                pop ebx
0000170C  5D                pop ebp
0000170D  C3                ret
0000170E  55                push ebp
0000170F  89E5              mov ebp,esp
00001711  83EC18            sub esp,byte +0x18
00001714  EB2B              jmp short 0x1741
00001716  8D450C            lea eax,[ebp+0xc]
00001719  890424            mov [esp],eax
0000171C  E8CD050000        call 0x1cee
00001721  8B4510            mov eax,[ebp+0x10]
00001724  8944240C          mov [esp+0xc],eax
00001728  8B450C            mov eax,[ebp+0xc]
0000172B  89442408          mov [esp+0x8],eax
0000172F  8B450C            mov eax,[ebp+0xc]
00001732  89442404          mov [esp+0x4],eax
00001736  8B4508            mov eax,[ebp+0x8]
00001739  890424            mov [esp],eax
0000173C  E80D050000        call 0x1c4e
00001741  8D4508            lea eax,[ebp+0x8]
00001744  89442404          mov [esp+0x4],eax
00001748  8D450C            lea eax,[ebp+0xc]
0000174B  890424            mov [esp],eax
0000174E  E8F4F8FFFF        call 0x100001047
00001753  83F801            cmp eax,byte +0x1
00001756  0F9FC0            setg al
00001759  84C0              test al,al
0000175B  75B9              jnz 0x1716
0000175D  C9                leave
0000175E  C3                ret
0000175F  90                nop
00001760  55                push ebp
00001761  89E5              mov ebp,esp
00001763  83EC28            sub esp,byte +0x28
00001766  8B450C            mov eax,[ebp+0xc]
00001769  8B08              mov ecx,[eax]
0000176B  8B4510            mov eax,[ebp+0x10]
0000176E  8B00              mov eax,[eax]
00001770  89C2              mov edx,eax
00001772  89D0              mov eax,edx
00001774  01C0              add eax,eax
00001776  01D0              add eax,edx
00001778  C1E002            shl eax,0x2
0000177B  F7D8              neg eax
0000177D  01C8              add eax,ecx
0000177F  8945F4            mov [ebp-0xc],eax
00001782  8D45F4            lea eax,[ebp-0xc]
00001785  89442404          mov [esp+0x4],eax
00001789  8B4508            mov eax,[ebp+0x8]
0000178C  890424            mov [esp],eax
0000178F  E878F8FFFF        call 0x10000100c
00001794  8B4508            mov eax,[ebp+0x8]
00001797  C9                leave
00001798  C20400            ret 0x4
0000179B  55                push ebp
0000179C  89E5              mov ebp,esp
0000179E  53                push ebx
0000179F  83EC14            sub esp,byte +0x14
000017A2  8D450C            lea eax,[ebp+0xc]
000017A5  890424            mov [esp],eax
000017A8  E81B010000        call 0x18c8
000017AD  89C3              mov ebx,eax
000017AF  8D4508            lea eax,[ebp+0x8]
000017B2  890424            mov [esp],eax
000017B5  E80E010000        call 0x18c8
000017BA  895C2404          mov [esp+0x4],ebx
000017BE  890424            mov [esp],eax
000017C1  8B4514            mov eax,[ebp+0x14]
000017C4  FFD0              call eax
000017C6  84C0              test al,al
000017C8  747F              jz 0x1849
000017CA  8D4510            lea eax,[ebp+0x10]
000017CD  890424            mov [esp],eax
000017D0  E8F3000000        call 0x18c8
000017D5  89C3              mov ebx,eax
000017D7  8D450C            lea eax,[ebp+0xc]
000017DA  890424            mov [esp],eax
000017DD  E8E6000000        call 0x18c8
000017E2  895C2404          mov [esp+0x4],ebx
000017E6  890424            mov [esp],eax
000017E9  8B4514            mov eax,[ebp+0x14]
000017EC  FFD0              call eax
000017EE  84C0              test al,al
000017F0  7417              jz 0x1809
000017F2  8B450C            mov eax,[ebp+0xc]
000017F5  89442404          mov [esp+0x4],eax
000017F9  8B4508            mov eax,[ebp+0x8]
000017FC  890424            mov [esp],eax
000017FF  E8FF040000        call 0x1d03
00001804  E9B8000000        jmp 0x18c1
00001809  8D4510            lea eax,[ebp+0x10]
0000180C  890424            mov [esp],eax
0000180F  E8B4000000        call 0x18c8
00001814  89C3              mov ebx,eax
00001816  8D4508            lea eax,[ebp+0x8]
00001819  890424            mov [esp],eax
0000181C  E8A7000000        call 0x18c8
00001821  895C2404          mov [esp+0x4],ebx
00001825  890424            mov [esp],eax
00001828  8B4514            mov eax,[ebp+0x14]
0000182B  FFD0              call eax
0000182D  84C0              test al,al
0000182F  0F848C000000      jz near 0x18c1
00001835  8B4510            mov eax,[ebp+0x10]
00001838  89442404          mov [esp+0x4],eax
0000183C  8B4508            mov eax,[ebp+0x8]
0000183F  890424            mov [esp],eax
00001842  E8BC040000        call 0x1d03
00001847  EB78              jmp short 0x18c1
00001849  8D4510            lea eax,[ebp+0x10]
0000184C  890424            mov [esp],eax
0000184F  E874000000        call 0x18c8
00001854  89C3              mov ebx,eax
00001856  8D4508            lea eax,[ebp+0x8]
00001859  890424            mov [esp],eax
0000185C  E867000000        call 0x18c8
00001861  895C2404          mov [esp+0x4],ebx
00001865  890424            mov [esp],eax
00001868  8B4514            mov eax,[ebp+0x14]
0000186B  FFD0              call eax
0000186D  84C0              test al,al
0000186F  7402              jz 0x1873
00001871  EB4E              jmp short 0x18c1
00001873  8D4510            lea eax,[ebp+0x10]
00001876  890424            mov [esp],eax
00001879  E84A000000        call 0x18c8
0000187E  89C3              mov ebx,eax
00001880  8D450C            lea eax,[ebp+0xc]
00001883  890424            mov [esp],eax
00001886  E83D000000        call 0x18c8
0000188B  895C2404          mov [esp+0x4],ebx
0000188F  890424            mov [esp],eax
00001892  8B4514            mov eax,[ebp+0x14]
00001895  FFD0              call eax
00001897  84C0              test al,al
00001899  7414              jz 0x18af
0000189B  8B4510            mov eax,[ebp+0x10]
0000189E  89442404          mov [esp+0x4],eax
000018A2  8B4508            mov eax,[ebp+0x8]
000018A5  890424            mov [esp],eax
000018A8  E856040000        call 0x1d03
000018AD  EB12              jmp short 0x18c1
000018AF  8B450C            mov eax,[ebp+0xc]
000018B2  89442404          mov [esp+0x4],eax
000018B6  8B4508            mov eax,[ebp+0x8]
000018B9  890424            mov [esp],eax
000018BC  E842040000        call 0x1d03
000018C1  83C414            add esp,byte +0x14
000018C4  5B                pop ebx
000018C5  5D                pop ebp
000018C6  C3                ret
000018C7  90                nop
000018C8  55                push ebp
000018C9  89E5              mov ebp,esp
000018CB  8B4508            mov eax,[ebp+0x8]
000018CE  8B00              mov eax,[eax]
000018D0  5D                pop ebp
000018D1  C3                ret
000018D2  55                push ebp
000018D3  89E5              mov ebp,esp
000018D5  83EC18            sub esp,byte +0x18
000018D8  EB0B              jmp short 0x18e5
000018DA  8D450C            lea eax,[ebp+0xc]
000018DD  890424            mov [esp],eax
000018E0  E8CD000000        call 0x19b2
000018E5  8D450C            lea eax,[ebp+0xc]
000018E8  890424            mov [esp],eax
000018EB  E8D8FFFFFF        call 0x1000018c8
000018F0  8B5514            mov edx,[ebp+0x14]
000018F3  89542404          mov [esp+0x4],edx
000018F7  890424            mov [esp],eax
000018FA  8B4518            mov eax,[ebp+0x18]
000018FD  FFD0              call eax
000018FF  84C0              test al,al
00001901  75D7              jnz 0x18da
00001903  8D4510            lea eax,[ebp+0x10]
00001906  890424            mov [esp],eax
00001909  E8E0030000        call 0x1cee
0000190E  EB0B              jmp short 0x191b
00001910  8D4510            lea eax,[ebp+0x10]
00001913  890424            mov [esp],eax
00001916  E8D3030000        call 0x1cee
0000191B  8D4510            lea eax,[ebp+0x10]
0000191E  890424            mov [esp],eax
00001921  E8A2FFFFFF        call 0x1000018c8
00001926  89442404          mov [esp+0x4],eax
0000192A  8B4514            mov eax,[ebp+0x14]
0000192D  890424            mov [esp],eax
00001930  8B4518            mov eax,[ebp+0x18]
00001933  FFD0              call eax
00001935  84C0              test al,al
00001937  75D7              jnz 0x1910
00001939  8D4510            lea eax,[ebp+0x10]
0000193C  89442404          mov [esp+0x4],eax
00001940  8D450C            lea eax,[ebp+0xc]
00001943  890424            mov [esp],eax
00001946  E8D7020000        call 0x1c22
0000194B  83F001            xor eax,byte +0x1
0000194E  84C0              test al,al
00001950  740A              jz 0x195c
00001952  8B4508            mov eax,[ebp+0x8]
00001955  8B550C            mov edx,[ebp+0xc]
00001958  8910              mov [eax],edx
0000195A  EB23              jmp short 0x197f
0000195C  8B4510            mov eax,[ebp+0x10]
0000195F  89442404          mov [esp+0x4],eax
00001963  8B450C            mov eax,[ebp+0xc]
00001966  890424            mov [esp],eax
00001969  E895030000        call 0x1d03
0000196E  8D450C            lea eax,[ebp+0xc]
00001971  890424            mov [esp],eax
00001974  E839000000        call 0x19b2
00001979  90                nop
0000197A  E966FFFFFF        jmp 0x1000018e5
0000197F  8B4508            mov eax,[ebp+0x8]
00001982  C9                leave
00001983  C20400            ret 0x4
00001986  55                push ebp
00001987  89E5              mov ebp,esp
00001989  53                push ebx
0000198A  83EC14            sub esp,byte +0x14
0000198D  8B4508            mov eax,[ebp+0x8]
00001990  890424            mov [esp],eax
00001993  E854F9FFFF        call 0x1000012ec
00001998  8B18              mov ebx,[eax]
0000199A  8B450C            mov eax,[ebp+0xc]
0000199D  890424            mov [esp],eax
000019A0  E847F9FFFF        call 0x1000012ec
000019A5  8B00              mov eax,[eax]
000019A7  39C3              cmp ebx,eax
000019A9  0F94C0            setz al
000019AC  83C414            add esp,byte +0x14
000019AF  5B                pop ebx
000019B0  5D                pop ebp
000019B1  C3                ret
000019B2  55                push ebp
000019B3  89E5              mov ebp,esp
000019B5  8B4508            mov eax,[ebp+0x8]
000019B8  8B00              mov eax,[eax]
000019BA  8D500C            lea edx,[eax+0xc]
000019BD  8B4508            mov eax,[ebp+0x8]
000019C0  8910              mov [eax],edx
000019C2  8B4508            mov eax,[ebp+0x8]
000019C5  5D                pop ebp
000019C6  C3                ret
000019C7  55                push ebp
000019C8  89E5              mov ebp,esp
000019CA  83EC28            sub esp,byte +0x28
000019CD  8D45F0            lea eax,[ebp-0x10]
000019D0  8B5510            mov edx,[ebp+0x10]
000019D3  89542404          mov [esp+0x4],edx
000019D7  890424            mov [esp],eax
000019DA  E83E030000        call 0x1d1d
000019DF  83EC04            sub esp,byte +0x4
000019E2  8D45F4            lea eax,[ebp-0xc]
000019E5  8B550C            mov edx,[ebp+0xc]
000019E8  89542404          mov [esp+0x4],edx
000019EC  890424            mov [esp],eax
000019EF  E829030000        call 0x1d1d
000019F4  83EC04            sub esp,byte +0x4
000019F7  8B4508            mov eax,[ebp+0x8]
000019FA  8B5514            mov edx,[ebp+0x14]
000019FD  8954240C          mov [esp+0xc],edx
00001A01  8B55F0            mov edx,[ebp-0x10]
00001A04  89542408          mov [esp+0x8],edx
00001A08  8B55F4            mov edx,[ebp-0xc]
00001A0B  89542404          mov [esp+0x4],edx
00001A0F  890424            mov [esp],eax
00001A12  E828030000        call 0x1d3f
00001A17  83EC04            sub esp,byte +0x4
00001A1A  8B4508            mov eax,[ebp+0x8]
00001A1D  C9                leave
00001A1E  C20400            ret 0x4
00001A21  55                push ebp
00001A22  89E5              mov ebp,esp
00001A24  53                push ebx
00001A25  83EC24            sub esp,byte +0x24
00001A28  8D4508            lea eax,[ebp+0x8]
00001A2B  890424            mov [esp],eax
00001A2E  E895FEFFFF        call 0x1000018c8
00001A33  8B10              mov edx,[eax]
00001A35  8955EC            mov [ebp-0x14],edx
00001A38  8B5004            mov edx,[eax+0x4]
00001A3B  8955F0            mov [ebp-0x10],edx
00001A3E  8B4008            mov eax,[eax+0x8]
00001A41  8945F4            mov [ebp-0xc],eax
00001A44  8B4508            mov eax,[ebp+0x8]
00001A47  8945E8            mov [ebp-0x18],eax
00001A4A  8D45E8            lea eax,[ebp-0x18]
00001A4D  890424            mov [esp],eax
00001A50  E899020000        call 0x1cee
00001A55  EB39              jmp short 0x1a90
00001A57  8D4508            lea eax,[ebp+0x8]
00001A5A  890424            mov [esp],eax
00001A5D  E866FEFFFF        call 0x1000018c8
00001A62  89C3              mov ebx,eax
00001A64  8D45E8            lea eax,[ebp-0x18]
00001A67  890424            mov [esp],eax
00001A6A  E859FEFFFF        call 0x1000018c8
00001A6F  8B10              mov edx,[eax]
00001A71  8913              mov [ebx],edx
00001A73  8B5004            mov edx,[eax+0x4]
00001A76  895304            mov [ebx+0x4],edx
00001A79  8B4008            mov eax,[eax+0x8]
00001A7C  894308            mov [ebx+0x8],eax
00001A7F  8B45E8            mov eax,[ebp-0x18]
00001A82  894508            mov [ebp+0x8],eax
00001A85  8D45E8            lea eax,[ebp-0x18]
00001A88  890424            mov [esp],eax
00001A8B  E85E020000        call 0x1cee
00001A90  8D45E8            lea eax,[ebp-0x18]
00001A93  890424            mov [esp],eax
00001A96  E82DFEFFFF        call 0x1000018c8
00001A9B  89442404          mov [esp+0x4],eax
00001A9F  8D45EC            lea eax,[ebp-0x14]
00001AA2  890424            mov [esp],eax
00001AA5  8B450C            mov eax,[ebp+0xc]
00001AA8  FFD0              call eax
00001AAA  84C0              test al,al
00001AAC  75A9              jnz 0x1a57
00001AAE  8D4508            lea eax,[ebp+0x8]
00001AB1  890424            mov [esp],eax
00001AB4  E80FFEFFFF        call 0x1000018c8
00001AB9  8B55EC            mov edx,[ebp-0x14]
00001ABC  8910              mov [eax],edx
00001ABE  8B55F0            mov edx,[ebp-0x10]
00001AC1  895004            mov [eax+0x4],edx
00001AC4  8B55F4            mov edx,[ebp-0xc]
00001AC7  895008            mov [eax+0x8],edx
00001ACA  EB08              jmp short 0x1ad4
00001ACC  890424            mov [esp],eax
00001ACF  E80CEDFFFF        call 0x1000007e0
00001AD4  83C424            add esp,byte +0x24
00001AD7  5B                pop ebx
00001AD8  5D                pop ebp
00001AD9  C3                ret
00001ADA  55                push ebp
00001ADB  89E5              mov ebp,esp
00001ADD  5D                pop ebp
00001ADE  C3                ret
00001ADF  90                nop
00001AE0  55                push ebp
00001AE1  89E5              mov ebp,esp
00001AE3  83EC18            sub esp,byte +0x18
00001AE6  8B4508            mov eax,[ebp+0x8]
00001AE9  890424            mov [esp],eax
00001AEC  E8AD020000        call 0x1d9e
00001AF1  3B450C            cmp eax,[ebp+0xc]
00001AF4  0F92C0            setc al
00001AF7  84C0              test al,al
00001AF9  7405              jz 0x1b00
00001AFB  E8B0ECFFFF        call 0x1000007b0
00001B00  8B550C            mov edx,[ebp+0xc]
00001B03  89D0              mov eax,edx
00001B05  01C0              add eax,eax
00001B07  01D0              add eax,edx
00001B09  C1E002            shl eax,0x2
00001B0C  890424            mov [esp],eax
00001B0F  E86CECFFFF        call 0x100000780
00001B14  C9                leave
00001B15  C3                ret
00001B16  55                push ebp
00001B17  89E5              mov ebp,esp
00001B19  83EC28            sub esp,byte +0x28
00001B1C  8B4508            mov eax,[ebp+0x8]
00001B1F  8945F4            mov [ebp-0xc],eax
00001B22  EB21              jmp short 0x1b45
00001B24  8B45F4            mov eax,[ebp-0xc]
00001B27  890424            mov [esp],eax
00001B2A  E879020000        call 0x1da8
00001B2F  8B5510            mov edx,[ebp+0x10]
00001B32  89542404          mov [esp+0x4],edx
00001B36  890424            mov [esp],eax
00001B39  E872020000        call 0x1db0
00001B3E  FF4D0C            dec dword [ebp+0xc]
00001B41  8345F40C          add dword [ebp-0xc],byte +0xc
00001B45  837D0C00          cmp dword [ebp+0xc],byte +0x0
00001B49  75D9              jnz 0x1b24
00001B4B  C9                leave
00001B4C  C3                ret
00001B4D  55                push ebp
00001B4E  89E5              mov ebp,esp
00001B50  83EC48            sub esp,byte +0x48
00001B53  8D4508            lea eax,[ebp+0x8]
00001B56  89442404          mov [esp+0x4],eax
00001B5A  8D450C            lea eax,[ebp+0xc]
00001B5D  890424            mov [esp],eax
00001B60  E8E2F4FFFF        call 0x100001047
00001B65  83F801            cmp eax,byte +0x1
00001B68  0F9EC0            setng al
00001B6B  84C0              test al,al
00001B6D  7405              jz 0x1b74
00001B6F  E9AC000000        jmp 0x1c20
00001B74  8D4508            lea eax,[ebp+0x8]
00001B77  89442404          mov [esp+0x4],eax
00001B7B  8D450C            lea eax,[ebp+0xc]
00001B7E  890424            mov [esp],eax
00001B81  E8C1F4FFFF        call 0x100001047
00001B86  8945F4            mov [ebp-0xc],eax
00001B89  8B45F4            mov eax,[ebp-0xc]
00001B8C  83E802            sub eax,byte +0x2
00001B8F  89C2              mov edx,eax
00001B91  C1EA1F            shr edx,0x1f
00001B94  01D0              add eax,edx
00001B96  D1F8              sar eax,1
00001B98  8945EC            mov [ebp-0x14],eax
00001B9B  8D45F0            lea eax,[ebp-0x10]
00001B9E  8D55EC            lea edx,[ebp-0x14]
00001BA1  89542408          mov [esp+0x8],edx
00001BA5  8D4D08            lea ecx,[ebp+0x8]
00001BA8  894C2404          mov [esp+0x4],ecx
00001BAC  890424            mov [esp],eax
00001BAF  E872F8FFFF        call 0x100001426
00001BB4  83EC04            sub esp,byte +0x4
00001BB7  8D45F0            lea eax,[ebp-0x10]
00001BBA  890424            mov [esp],eax
00001BBD  E806FDFFFF        call 0x1000018c8
00001BC2  8B10              mov edx,[eax]
00001BC4  8955E0            mov [ebp-0x20],edx
00001BC7  8B5004            mov edx,[eax+0x4]
00001BCA  8955E4            mov [ebp-0x1c],edx
00001BCD  8B4008            mov eax,[eax+0x8]
00001BD0  8945E8            mov [ebp-0x18],eax
00001BD3  8B45EC            mov eax,[ebp-0x14]
00001BD6  8B5510            mov edx,[ebp+0x10]
00001BD9  89542418          mov [esp+0x18],edx
00001BDD  8B55E0            mov edx,[ebp-0x20]
00001BE0  8954240C          mov [esp+0xc],edx
00001BE4  8B55E4            mov edx,[ebp-0x1c]
00001BE7  89542410          mov [esp+0x10],edx
00001BEB  8B55E8            mov edx,[ebp-0x18]
00001BEE  89542414          mov [esp+0x14],edx
00001BF2  8B55F4            mov edx,[ebp-0xc]
00001BF5  89542408          mov [esp+0x8],edx
00001BF9  89442404          mov [esp+0x4],eax
00001BFD  8B4508            mov eax,[ebp+0x8]
00001C00  890424            mov [esp],eax
00001C03  E8DA010000        call 0x1de2
00001C08  8B45EC            mov eax,[ebp-0x14]
00001C0B  85C0              test eax,eax
00001C0D  7411              jz 0x1c20
00001C0F  8B45EC            mov eax,[ebp-0x14]
00001C12  48                dec eax
00001C13  8945EC            mov [ebp-0x14],eax
00001C16  EB83              jmp short 0x1b9b
00001C18  890424            mov [esp],eax
00001C1B  E8C0EBFFFF        call 0x1000007e0
00001C20  C9                leave
00001C21  C3                ret
00001C22  55                push ebp
00001C23  89E5              mov ebp,esp
00001C25  53                push ebx
00001C26  83EC14            sub esp,byte +0x14
00001C29  8B4508            mov eax,[ebp+0x8]
00001C2C  890424            mov [esp],eax
00001C2F  E8B8F6FFFF        call 0x1000012ec
00001C34  8B18              mov ebx,[eax]
00001C36  8B450C            mov eax,[ebp+0xc]
00001C39  890424            mov [esp],eax
00001C3C  E8ABF6FFFF        call 0x1000012ec
00001C41  8B00              mov eax,[eax]
00001C43  39C3              cmp ebx,eax
00001C45  0F92C0            setc al
00001C48  83C414            add esp,byte +0x14
00001C4B  5B                pop ebx
00001C4C  5D                pop ebp
00001C4D  C3                ret
00001C4E  55                push ebp
00001C4F  89E5              mov ebp,esp
00001C51  53                push ebx
00001C52  83EC34            sub esp,byte +0x34
00001C55  8D4510            lea eax,[ebp+0x10]
00001C58  890424            mov [esp],eax
00001C5B  E868FCFFFF        call 0x1000018c8
00001C60  8B10              mov edx,[eax]
00001C62  8955EC            mov [ebp-0x14],edx
00001C65  8B5004            mov edx,[eax+0x4]
00001C68  8955F0            mov [ebp-0x10],edx
00001C6B  8B4008            mov eax,[eax+0x8]
00001C6E  8945F4            mov [ebp-0xc],eax
00001C71  8D4510            lea eax,[ebp+0x10]
00001C74  890424            mov [esp],eax
00001C77  E84CFCFFFF        call 0x1000018c8
00001C7C  89C3              mov ebx,eax
00001C7E  8D4508            lea eax,[ebp+0x8]
00001C81  890424            mov [esp],eax
00001C84  E83FFCFFFF        call 0x1000018c8
00001C89  8B10              mov edx,[eax]
00001C8B  8913              mov [ebx],edx
00001C8D  8B5004            mov edx,[eax+0x4]
00001C90  895304            mov [ebx+0x4],edx
00001C93  8B4008            mov eax,[eax+0x8]
00001C96  894308            mov [ebx+0x8],eax
00001C99  8D4508            lea eax,[ebp+0x8]
00001C9C  89442404          mov [esp+0x4],eax
00001CA0  8D450C            lea eax,[ebp+0xc]
00001CA3  890424            mov [esp],eax
00001CA6  E89CF3FFFF        call 0x100001047
00001CAB  8B5514            mov edx,[ebp+0x14]
00001CAE  89542418          mov [esp+0x18],edx
00001CB2  8B55EC            mov edx,[ebp-0x14]
00001CB5  8954240C          mov [esp+0xc],edx
00001CB9  8B55F0            mov edx,[ebp-0x10]
00001CBC  89542410          mov [esp+0x10],edx
00001CC0  8B55F4            mov edx,[ebp-0xc]
00001CC3  89542414          mov [esp+0x14],edx
00001CC7  89442408          mov [esp+0x8],eax
00001CCB  C744240400000000  mov dword [esp+0x4],0x0
00001CD3  8B4508            mov eax,[ebp+0x8]
00001CD6  890424            mov [esp],eax
00001CD9  E804010000        call 0x1de2
00001CDE  EB08              jmp short 0x1ce8
00001CE0  890424            mov [esp],eax
00001CE3  E8F8EAFFFF        call 0x1000007e0
00001CE8  83C434            add esp,byte +0x34
00001CEB  5B                pop ebx
00001CEC  5D                pop ebp
00001CED  C3                ret
00001CEE  55                push ebp
00001CEF  89E5              mov ebp,esp
00001CF1  8B4508            mov eax,[ebp+0x8]
00001CF4  8B00              mov eax,[eax]
00001CF6  8D50F4            lea edx,[eax-0xc]
00001CF9  8B4508            mov eax,[ebp+0x8]
00001CFC  8910              mov [eax],edx
00001CFE  8B4508            mov eax,[ebp+0x8]
00001D01  5D                pop ebp
00001D02  C3                ret
00001D03  55                push ebp
00001D04  89E5              mov ebp,esp
00001D06  83EC18            sub esp,byte +0x18
00001D09  8B450C            mov eax,[ebp+0xc]
00001D0C  89442404          mov [esp+0x4],eax
00001D10  8B4508            mov eax,[ebp+0x8]
00001D13  890424            mov [esp],eax
00001D16  E8BE020000        call 0x1fd9
00001D1B  C9                leave
00001D1C  C3                ret
00001D1D  55                push ebp
00001D1E  89E5              mov ebp,esp
00001D20  83EC18            sub esp,byte +0x18
00001D23  8B4508            mov eax,[ebp+0x8]
00001D26  8B550C            mov edx,[ebp+0xc]
00001D29  89542404          mov [esp+0x4],edx
00001D2D  890424            mov [esp],eax
00001D30  E8D5020000        call 0x200a
00001D35  83EC04            sub esp,byte +0x4
00001D38  8B4508            mov eax,[ebp+0x8]
00001D3B  C9                leave
00001D3C  C20400            ret 0x4
00001D3F  55                push ebp
00001D40  89E5              mov ebp,esp
00001D42  56                push esi
00001D43  53                push ebx
00001D44  83EC20            sub esp,byte +0x20
00001D47  8B4514            mov eax,[ebp+0x14]
00001D4A  890424            mov [esp],eax
00001D4D  E8CA020000        call 0x201c
00001D52  89C6              mov esi,eax
00001D54  8B4510            mov eax,[ebp+0x10]
00001D57  890424            mov [esp],eax
00001D5A  E8BD020000        call 0x201c
00001D5F  89C3              mov ebx,eax
00001D61  8B450C            mov eax,[ebp+0xc]
00001D64  890424            mov [esp],eax
00001D67  E8B0020000        call 0x201c
00001D6C  89742408          mov [esp+0x8],esi
00001D70  895C2404          mov [esp+0x4],ebx
00001D74  890424            mov [esp],eax
00001D77  E8B3020000        call 0x202f
00001D7C  8945F4            mov [ebp-0xc],eax
00001D7F  8D45F4            lea eax,[ebp-0xc]
00001D82  89442404          mov [esp+0x4],eax
00001D86  8B4508            mov eax,[ebp+0x8]
00001D89  890424            mov [esp],eax
00001D8C  E87BF2FFFF        call 0x10000100c
00001D91  8B4508            mov eax,[ebp+0x8]
00001D94  83C420            add esp,byte +0x20
00001D97  5B                pop ebx
00001D98  5E                pop esi
00001D99  5D                pop ebp
00001D9A  C20400            ret 0x4
00001D9D  90                nop
00001D9E  55                push ebp
00001D9F  89E5              mov ebp,esp
00001DA1  B855555515        mov eax,0x15555555
00001DA6  5D                pop ebp
00001DA7  C3                ret
00001DA8  55                push ebp
00001DA9  89E5              mov ebp,esp
00001DAB  8B4508            mov eax,[ebp+0x8]
00001DAE  5D                pop ebp
00001DAF  C3                ret
00001DB0  55                push ebp
00001DB1  89E5              mov ebp,esp
00001DB3  83EC18            sub esp,byte +0x18
00001DB6  8B4508            mov eax,[ebp+0x8]
00001DB9  89442404          mov [esp+0x4],eax
00001DBD  C704240C000000    mov dword [esp],0xc
00001DC4  E815EFFFFF        call 0x100000cde
00001DC9  85C0              test eax,eax
00001DCB  7413              jz 0x1de0
00001DCD  8B550C            mov edx,[ebp+0xc]
00001DD0  8B0A              mov ecx,[edx]
00001DD2  8908              mov [eax],ecx
00001DD4  8B4A04            mov ecx,[edx+0x4]
00001DD7  894804            mov [eax+0x4],ecx
00001DDA  8B5208            mov edx,[edx+0x8]
00001DDD  895008            mov [eax+0x8],edx
00001DE0  C9                leave
00001DE1  C3                ret
00001DE2  55                push ebp
00001DE3  89E5              mov ebp,esp
00001DE5  57                push edi
00001DE6  56                push esi
00001DE7  53                push ebx
00001DE8  83EC5C            sub esp,byte +0x5c
00001DEB  8B450C            mov eax,[ebp+0xc]
00001DEE  8945E4            mov [ebp-0x1c],eax
00001DF1  8B450C            mov eax,[ebp+0xc]
00001DF4  8945C0            mov [ebp-0x40],eax
00001DF7  E9DD000000        jmp 0x1ed9
00001DFC  8B45C0            mov eax,[ebp-0x40]
00001DFF  40                inc eax
00001E00  01C0              add eax,eax
00001E02  8945C0            mov [ebp-0x40],eax
00001E05  8B45C0            mov eax,[ebp-0x40]
00001E08  48                dec eax
00001E09  8945C8            mov [ebp-0x38],eax
00001E0C  8D45C4            lea eax,[ebp-0x3c]
00001E0F  8D55C8            lea edx,[ebp-0x38]
00001E12  89542408          mov [esp+0x8],edx
00001E16  8D4D08            lea ecx,[ebp+0x8]
00001E19  894C2404          mov [esp+0x4],ecx
00001E1D  890424            mov [esp],eax
00001E20  E801F6FFFF        call 0x100001426
00001E25  83EC04            sub esp,byte +0x4
00001E28  8D45C4            lea eax,[ebp-0x3c]
00001E2B  890424            mov [esp],eax
00001E2E  E895FAFFFF        call 0x1000018c8
00001E33  89C3              mov ebx,eax
00001E35  8D45CC            lea eax,[ebp-0x34]
00001E38  8D55C0            lea edx,[ebp-0x40]
00001E3B  89542408          mov [esp+0x8],edx
00001E3F  8D7508            lea esi,[ebp+0x8]
00001E42  89742404          mov [esp+0x4],esi
00001E46  890424            mov [esp],eax
00001E49  E8D8F5FFFF        call 0x100001426
00001E4E  83EC04            sub esp,byte +0x4
00001E51  8D45CC            lea eax,[ebp-0x34]
00001E54  890424            mov [esp],eax
00001E57  E86CFAFFFF        call 0x1000018c8
00001E5C  895C2404          mov [esp+0x4],ebx
00001E60  890424            mov [esp],eax
00001E63  8B4520            mov eax,[ebp+0x20]
00001E66  FFD0              call eax
00001E68  84C0              test al,al
00001E6A  7407              jz 0x1e73
00001E6C  8B45C0            mov eax,[ebp-0x40]
00001E6F  48                dec eax
00001E70  8945C0            mov [ebp-0x40],eax
00001E73  8D45D0            lea eax,[ebp-0x30]
00001E76  8D550C            lea edx,[ebp+0xc]
00001E79  89542408          mov [esp+0x8],edx
00001E7D  8D7D08            lea edi,[ebp+0x8]
00001E80  897C2404          mov [esp+0x4],edi
00001E84  890424            mov [esp],eax
00001E87  E89AF5FFFF        call 0x100001426
00001E8C  83EC04            sub esp,byte +0x4
00001E8F  8D45D0            lea eax,[ebp-0x30]
00001E92  890424            mov [esp],eax
00001E95  E82EFAFFFF        call 0x1000018c8
00001E9A  89C3              mov ebx,eax
00001E9C  8D45D4            lea eax,[ebp-0x2c]
00001E9F  8D55C0            lea edx,[ebp-0x40]
00001EA2  89542408          mov [esp+0x8],edx
00001EA6  8D4D08            lea ecx,[ebp+0x8]
00001EA9  894C2404          mov [esp+0x4],ecx
00001EAD  890424            mov [esp],eax
00001EB0  E871F5FFFF        call 0x100001426
00001EB5  83EC04            sub esp,byte +0x4
00001EB8  8D45D4            lea eax,[ebp-0x2c]
00001EBB  890424            mov [esp],eax
00001EBE  E805FAFFFF        call 0x1000018c8
00001EC3  8B10              mov edx,[eax]
00001EC5  8913              mov [ebx],edx
00001EC7  8B5004            mov edx,[eax+0x4]
00001ECA  895304            mov [ebx+0x4],edx
00001ECD  8B4008            mov eax,[eax+0x8]
00001ED0  894308            mov [ebx+0x8],eax
00001ED3  8B45C0            mov eax,[ebp-0x40]
00001ED6  89450C            mov [ebp+0xc],eax
00001ED9  8B4510            mov eax,[ebp+0x10]
00001EDC  48                dec eax
00001EDD  89C2              mov edx,eax
00001EDF  C1EA1F            shr edx,0x1f
00001EE2  01D0              add eax,edx
00001EE4  D1F8              sar eax,1
00001EE6  89C2              mov edx,eax
00001EE8  8B45C0            mov eax,[ebp-0x40]
00001EEB  39C2              cmp edx,eax
00001EED  0F8F09FFFFFF      jg near 0x100001dfc
00001EF3  8B4510            mov eax,[ebp+0x10]
00001EF6  83E001            and eax,byte +0x1
00001EF9  85C0              test eax,eax
00001EFB  0F858F000000      jnz near 0x1f90
00001F01  8B4510            mov eax,[ebp+0x10]
00001F04  83E802            sub eax,byte +0x2
00001F07  89C2              mov edx,eax
00001F09  C1EA1F            shr edx,0x1f
00001F0C  01D0              add eax,edx
00001F0E  D1F8              sar eax,1
00001F10  89C2              mov edx,eax
00001F12  8B45C0            mov eax,[ebp-0x40]
00001F15  39C2              cmp edx,eax
00001F17  7577              jnz 0x1f90
00001F19  8B45C0            mov eax,[ebp-0x40]
00001F1C  40                inc eax
00001F1D  01C0              add eax,eax
00001F1F  8945C0            mov [ebp-0x40],eax
00001F22  8D45D8            lea eax,[ebp-0x28]
00001F25  8D550C            lea edx,[ebp+0xc]
00001F28  89542408          mov [esp+0x8],edx
00001F2C  8D7508            lea esi,[ebp+0x8]
00001F2F  89742404          mov [esp+0x4],esi
00001F33  890424            mov [esp],eax
00001F36  E8EBF4FFFF        call 0x100001426
00001F3B  83EC04            sub esp,byte +0x4
00001F3E  8D45D8            lea eax,[ebp-0x28]
00001F41  890424            mov [esp],eax
00001F44  E87FF9FFFF        call 0x1000018c8
00001F49  89C3              mov ebx,eax
00001F4B  8B45C0            mov eax,[ebp-0x40]
00001F4E  48                dec eax
00001F4F  8945E0            mov [ebp-0x20],eax
00001F52  8D45DC            lea eax,[ebp-0x24]
00001F55  8D55E0            lea edx,[ebp-0x20]
00001F58  89542408          mov [esp+0x8],edx
00001F5C  8D7D08            lea edi,[ebp+0x8]
00001F5F  897C2404          mov [esp+0x4],edi
00001F63  890424            mov [esp],eax
00001F66  E8BBF4FFFF        call 0x100001426
00001F6B  83EC04            sub esp,byte +0x4
00001F6E  8D45DC            lea eax,[ebp-0x24]
00001F71  890424            mov [esp],eax
00001F74  E84FF9FFFF        call 0x1000018c8
00001F79  8B10              mov edx,[eax]
00001F7B  8913              mov [ebx],edx
00001F7D  8B5004            mov edx,[eax+0x4]
00001F80  895304            mov [ebx+0x4],edx
00001F83  8B4008            mov eax,[eax+0x8]
00001F86  894308            mov [ebx+0x8],eax
00001F89  8B45C0            mov eax,[ebp-0x40]
00001F8C  48                dec eax
00001F8D  89450C            mov [ebp+0xc],eax
00001F90  8B450C            mov eax,[ebp+0xc]
00001F93  8B5520            mov edx,[ebp+0x20]
00001F96  89542418          mov [esp+0x18],edx
00001F9A  8B5514            mov edx,[ebp+0x14]
00001F9D  8954240C          mov [esp+0xc],edx
00001FA1  8B5518            mov edx,[ebp+0x18]
00001FA4  89542410          mov [esp+0x10],edx
00001FA8  8B551C            mov edx,[ebp+0x1c]
00001FAB  89542414          mov [esp+0x14],edx
00001FAF  8B55E4            mov edx,[ebp-0x1c]
00001FB2  89542408          mov [esp+0x8],edx
00001FB6  89442404          mov [esp+0x4],eax
00001FBA  8B4508            mov eax,[ebp+0x8]
00001FBD  890424            mov [esp],eax
00001FC0  E88F000000        call 0x2054
00001FC5  EB0A              jmp short 0x1fd1
00001FC7  EB00              jmp short 0x1fc9
00001FC9  890424            mov [esp],eax
00001FCC  E80FE8FFFF        call 0x1000007e0
00001FD1  8D65F4            lea esp,[ebp-0xc]
00001FD4  5B                pop ebx
00001FD5  5E                pop esi
00001FD6  5F                pop edi
00001FD7  5D                pop ebp
00001FD8  C3                ret
00001FD9  55                push ebp
00001FDA  89E5              mov ebp,esp
00001FDC  53                push ebx
00001FDD  83EC14            sub esp,byte +0x14
00001FE0  8D450C            lea eax,[ebp+0xc]
00001FE3  890424            mov [esp],eax
00001FE6  E8DDF8FFFF        call 0x1000018c8
00001FEB  89C3              mov ebx,eax
00001FED  8D4508            lea eax,[ebp+0x8]
00001FF0  890424            mov [esp],eax
00001FF3  E8D0F8FFFF        call 0x1000018c8
00001FF8  895C2404          mov [esp+0x4],ebx
00001FFC  890424            mov [esp],eax
00001FFF  E884010000        call 0x2188
00002004  83C414            add esp,byte +0x14
00002007  5B                pop ebx
00002008  5D                pop ebp
00002009  C3                ret
0000200A  55                push ebp
0000200B  89E5              mov ebp,esp
0000200D  8B4508            mov eax,[ebp+0x8]
00002010  8B550C            mov edx,[ebp+0xc]
00002013  8910              mov [eax],edx
00002015  8B4508            mov eax,[ebp+0x8]
00002018  5D                pop ebp
00002019  C20400            ret 0x4
0000201C  55                push ebp
0000201D  89E5              mov ebp,esp
0000201F  83EC18            sub esp,byte +0x18
00002022  8B4508            mov eax,[ebp+0x8]
00002025  890424            mov [esp],eax
00002028  E8A1010000        call 0x21ce
0000202D  C9                leave
0000202E  C3                ret
0000202F  55                push ebp
00002030  89E5              mov ebp,esp
00002032  83EC28            sub esp,byte +0x28
00002035  C645F700          mov byte [ebp-0x9],0x0
00002039  8B4510            mov eax,[ebp+0x10]
0000203C  89442408          mov [esp+0x8],eax
00002040  8B450C            mov eax,[ebp+0xc]
00002043  89442404          mov [esp+0x4],eax
00002047  8B4508            mov eax,[ebp+0x8]
0000204A  890424            mov [esp],eax
0000204D  E891010000        call 0x21e3
00002052  C9                leave
00002053  C3                ret
00002054  55                push ebp
00002055  89E5              mov ebp,esp
00002057  57                push edi
00002058  56                push esi
00002059  53                push ebx
0000205A  83EC3C            sub esp,byte +0x3c
0000205D  8B450C            mov eax,[ebp+0xc]
00002060  48                dec eax
00002061  89C2              mov edx,eax
00002063  C1EA1F            shr edx,0x1f
00002066  01D0              add eax,edx
00002068  D1F8              sar eax,1
0000206A  8945D4            mov [ebp-0x2c],eax
0000206D  EB76              jmp short 0x20e5
0000206F  8D45D8            lea eax,[ebp-0x28]
00002072  8D550C            lea edx,[ebp+0xc]
00002075  89542408          mov [esp+0x8],edx
00002079  8D4D08            lea ecx,[ebp+0x8]
0000207C  894C2404          mov [esp+0x4],ecx
00002080  890424            mov [esp],eax
00002083  E89EF3FFFF        call 0x100001426
00002088  83EC04            sub esp,byte +0x4
0000208B  8D45D8            lea eax,[ebp-0x28]
0000208E  890424            mov [esp],eax
00002091  E832F8FFFF        call 0x1000018c8
00002096  89C3              mov ebx,eax
00002098  8D45DC            lea eax,[ebp-0x24]
0000209B  8D55D4            lea edx,[ebp-0x2c]
0000209E  89542408          mov [esp+0x8],edx
000020A2  8D7508            lea esi,[ebp+0x8]
000020A5  89742404          mov [esp+0x4],esi
000020A9  890424            mov [esp],eax
000020AC  E875F3FFFF        call 0x100001426
000020B1  83EC04            sub esp,byte +0x4
000020B4  8D45DC            lea eax,[ebp-0x24]
000020B7  890424            mov [esp],eax
000020BA  E809F8FFFF        call 0x1000018c8
000020BF  8B10              mov edx,[eax]
000020C1  8913              mov [ebx],edx
000020C3  8B5004            mov edx,[eax+0x4]
000020C6  895304            mov [ebx+0x4],edx
000020C9  8B4008            mov eax,[eax+0x8]
000020CC  894308            mov [ebx+0x8],eax
000020CF  8B45D4            mov eax,[ebp-0x2c]
000020D2  89450C            mov [ebp+0xc],eax
000020D5  8B450C            mov eax,[ebp+0xc]
000020D8  48                dec eax
000020D9  89C2              mov edx,eax
000020DB  C1EA1F            shr edx,0x1f
000020DE  01D0              add eax,edx
000020E0  D1F8              sar eax,1
000020E2  8945D4            mov [ebp-0x2c],eax
000020E5  B300              mov bl,0x0
000020E7  8B450C            mov eax,[ebp+0xc]
000020EA  3B4510            cmp eax,[ebp+0x10]
000020ED  7E40              jng 0x212f
000020EF  8D45E0            lea eax,[ebp-0x20]
000020F2  8D55D4            lea edx,[ebp-0x2c]
000020F5  89542408          mov [esp+0x8],edx
000020F9  8D7D08            lea edi,[ebp+0x8]
000020FC  897C2404          mov [esp+0x4],edi
00002100  890424            mov [esp],eax
00002103  E81EF3FFFF        call 0x100001426
00002108  83EC04            sub esp,byte +0x4
0000210B  B301              mov bl,0x1
0000210D  8D45E0            lea eax,[ebp-0x20]
00002110  890424            mov [esp],eax
00002113  E8B0F7FFFF        call 0x1000018c8
00002118  8D5514            lea edx,[ebp+0x14]
0000211B  89542404          mov [esp+0x4],edx
0000211F  890424            mov [esp],eax
00002122  8B4520            mov eax,[ebp+0x20]
00002125  FFD0              call eax
00002127  84C0              test al,al
00002129  7404              jz 0x212f
0000212B  B001              mov al,0x1
0000212D  EB02              jmp short 0x2131
0000212F  B000              mov al,0x0
00002131  84DB              test bl,bl
00002133  84C0              test al,al
00002135  0F8534FFFFFF      jnz near 0x10000206f
0000213B  8D45E4            lea eax,[ebp-0x1c]
0000213E  8D550C            lea edx,[ebp+0xc]
00002141  89542408          mov [esp+0x8],edx
00002145  8D4D08            lea ecx,[ebp+0x8]
00002148  894C2404          mov [esp+0x4],ecx
0000214C  890424            mov [esp],eax
0000214F  E8D2F2FFFF        call 0x100001426
00002154  83EC04            sub esp,byte +0x4
00002157  8D45E4            lea eax,[ebp-0x1c]
0000215A  890424            mov [esp],eax
0000215D  E866F7FFFF        call 0x1000018c8
00002162  8B5514            mov edx,[ebp+0x14]
00002165  8910              mov [eax],edx
00002167  8B5518            mov edx,[ebp+0x18]
0000216A  895004            mov [eax+0x4],edx
0000216D  8B551C            mov edx,[ebp+0x1c]
00002170  895008            mov [eax+0x8],edx
00002173  EB0B              jmp short 0x2180
00002175  84DB              test bl,bl
00002177  90                nop
00002178  890424            mov [esp],eax
0000217B  E860E6FFFF        call 0x1000007e0
00002180  8D65F4            lea esp,[ebp-0xc]
00002183  5B                pop ebx
00002184  5E                pop esi
00002185  5F                pop edi
00002186  5D                pop ebp
00002187  C3                ret
00002188  55                push ebp
00002189  89E5              mov ebp,esp
0000218B  83EC10            sub esp,byte +0x10
0000218E  8B4508            mov eax,[ebp+0x8]
00002191  8B10              mov edx,[eax]
00002193  8955F4            mov [ebp-0xc],edx
00002196  8B5004            mov edx,[eax+0x4]
00002199  8955F8            mov [ebp-0x8],edx
0000219C  8B4008            mov eax,[eax+0x8]
0000219F  8945FC            mov [ebp-0x4],eax
000021A2  8B4508            mov eax,[ebp+0x8]
000021A5  8B550C            mov edx,[ebp+0xc]
000021A8  8B0A              mov ecx,[edx]
000021AA  8908              mov [eax],ecx
000021AC  8B4A04            mov ecx,[edx+0x4]
000021AF  894804            mov [eax+0x4],ecx
000021B2  8B5208            mov edx,[edx+0x8]
000021B5  895008            mov [eax+0x8],edx
000021B8  8B450C            mov eax,[ebp+0xc]
000021BB  8B55F4            mov edx,[ebp-0xc]
000021BE  8910              mov [eax],edx
000021C0  8B55F8            mov edx,[ebp-0x8]
000021C3  895004            mov [eax+0x4],edx
000021C6  8B55FC            mov edx,[ebp-0x4]
000021C9  895008            mov [eax+0x8],edx
000021CC  C9                leave
000021CD  C3                ret
000021CE  55                push ebp
000021CF  89E5              mov ebp,esp
000021D1  83EC18            sub esp,byte +0x18
000021D4  8D4508            lea eax,[ebp+0x8]
000021D7  890424            mov [esp],eax
000021DA  E80DF1FFFF        call 0x1000012ec
000021DF  8B00              mov eax,[eax]
000021E1  C9                leave
000021E2  C3                ret
000021E3  55                push ebp
000021E4  89E5              mov ebp,esp
000021E6  83EC10            sub esp,byte +0x10
000021E9  8B550C            mov edx,[ebp+0xc]
000021EC  8B4508            mov eax,[ebp+0x8]
000021EF  29C2              sub edx,eax
000021F1  89D0              mov eax,edx
000021F3  C1F802            sar eax,0x2
000021F6  89C2              mov edx,eax
000021F8  89D0              mov eax,edx
000021FA  C1E002            shl eax,0x2
000021FD  01D0              add eax,edx
000021FF  89C1              mov ecx,eax
00002201  C1E104            shl ecx,0x4
00002204  01C8              add eax,ecx
00002206  89C1              mov ecx,eax
00002208  C1E108            shl ecx,0x8
0000220B  01C8              add eax,ecx
0000220D  89C1              mov ecx,eax
0000220F  C1E110            shl ecx,0x10
00002212  01C8              add eax,ecx
00002214  01C0              add eax,eax
00002216  01D0              add eax,edx
00002218  8945FC            mov [ebp-0x4],eax
0000221B  EB21              jmp short 0x223e
0000221D  836D100C          sub dword [ebp+0x10],byte +0xc
00002221  8B4510            mov eax,[ebp+0x10]
00002224  836D0C0C          sub dword [ebp+0xc],byte +0xc
00002228  8B550C            mov edx,[ebp+0xc]
0000222B  8B0A              mov ecx,[edx]
0000222D  8908              mov [eax],ecx
0000222F  8B4A04            mov ecx,[edx+0x4]
00002232  894804            mov [eax+0x4],ecx
00002235  8B5208            mov edx,[edx+0x8]
00002238  895008            mov [eax+0x8],edx
0000223B  FF4DFC            dec dword [ebp-0x4]
0000223E  837DFC00          cmp dword [ebp-0x4],byte +0x0
00002242  7FD9              jg 0x221d
00002244  8B4510            mov eax,[ebp+0x10]
00002247  C9                leave
00002248  C3                ret
00002249  6690              o16 nop
0000224B  6690              o16 nop
0000224D  6690              o16 nop
0000224F  90                nop
00002250  55                push ebp
00002251  89E5              mov ebp,esp
00002253  5D                pop ebp
00002254  C3                ret
00002255  66                db 0x66
00002256  66                db 0x66
00002257  2E                db 0x2E
00002258  0F                db 0x0F
00002259  1F                pop ds
0000225A  8400              test [eax],al
0000225C  0000              add [eax],al
0000225E  0000              add [eax],al
00002260  55                push ebp
00002261  89E5              mov ebp,esp
00002263  57                push edi
00002264  56                push esi
00002265  53                push ebx
00002266  E84F000000        call 0x22ba
0000226B  81C315200000      add ebx,0x2015
00002271  83EC1C            sub esp,byte +0x1c
00002274  E843E4FFFF        call 0x1000006bc
00002279  8DBB01FFFFFF      lea edi,[ebx+0xffffff01]
0000227F  8D8301FFFFFF      lea eax,[ebx+0xffffff01]
00002285  29C7              sub edi,eax
00002287  C1FF02            sar edi,0x2
0000228A  85FF              test edi,edi
0000228C  7424              jz 0x22b2
0000228E  31F6              xor esi,esi
00002290  8B4510            mov eax,[ebp+0x10]
00002293  89442408          mov [esp+0x8],eax
00002297  8B450C            mov eax,[ebp+0xc]
0000229A  89442404          mov [esp+0x4],eax
0000229E  8B4508            mov eax,[ebp+0x8]
000022A1  890424            mov [esp],eax
000022A4  FF94B301FFFFFF    call near [ebx+esi*4+0xffffff01]
000022AB  83C601            add esi,byte +0x1
000022AE  39FE              cmp esi,edi
000022B0  72DE              jc 0x2290
000022B2  83C41C            add esp,byte +0x1c
000022B5  5B                pop ebx
000022B6  5E                pop esi
000022B7  5F                pop edi
000022B8  5D                pop ebp
000022B9  C3                ret
000022BA  8B1C24            mov ebx,[esp]
000022BD  C3                ret
000022BE  6690              o16 nop
000022C0  55                push ebp
000022C1  89E5              mov ebp,esp
000022C3  53                push ebx
000022C4  52                push edx
000022C5  BB88C10408        mov ebx,0x804c188
000022CA  A188C10408        mov eax,[0x804c188]
000022CF  83F8FF            cmp eax,byte -0x1
000022D2  7410              jz 0x22e4
000022D4  8D742600          lea esi,[esi+0x0]
000022D8  83EB04            sub ebx,byte +0x4
000022DB  FFD0              call eax
000022DD  8B03              mov eax,[ebx]
000022DF  83F8FF            cmp eax,byte -0x1
000022E2  75F4              jnz 0x22d8
000022E4  58                pop eax
000022E5  5B                pop ebx
000022E6  5D                pop ebp
000022E7  C3                ret
000022E8  55                push ebp
000022E9  89E5              mov ebp,esp
000022EB  53                push ebx
000022EC  83EC04            sub esp,byte +0x4
000022EF  E800000000        call 0x22f4
000022F4  5B                pop ebx
000022F5  81C38C1F0000      add ebx,0x1f8c
000022FB  E890E5FFFF        call 0x100000890
00002300  59                pop ecx
00002301  5B                pop ebx
00002302  C9                leave
00002303  C3                ret
00002304  0300              add eax,[eax]
00002306  0000              add [eax],al
00002308  0100              add [eax],eax
0000230A  0200              add al,[eax]
0000230C  43                inc ebx
0000230D  61                popa
0000230E  7365              jnc 0x2375
00002310  2023              and [ebx],ah
00002312  003A              add [edx],bh
00002314  0020              add [eax],ah
00002316  0000              add [eax],al
00002318  00CA              add dl,cl
0000231A  9A3B011B033B78    call 0x783b:0x31b013b
00002321  0200              add al,[eax]
00002323  004E00            add [esi+0x0],cl
00002326  0000              add [eax],al
00002328  D4E3              aam 0xe3
0000232A  FF                db 0xFF
0000232B  FF94020000F4E5    call near [edx+eax+0xe5f40000]
00002332  FF                db 0xFF
00002333  FF                db 0xFF
00002334  F8                clc
00002335  0200              add al,[eax]
00002337  00C1              add cl,al
00002339  E6FF              out 0xff,al
0000233B  FF                db 0xFF
0000233C  3C03              cmp al,0x3
0000233E  0000              add [eax],al
00002340  4F                dec edi
00002341  E9FFFF000D        jmp 0xd012345
00002346  0000              add [eax],al
00002348  8EE9              mov gs,cx
0000234A  FF                db 0xFF
0000234B  FF20              jmp near [eax]
0000234D  0D0000AAE9        or eax,0xe9aa0000
00002352  FF                db 0xFF
00002353  FF                db 0xFF
00002354  B8020000C2        mov eax,0xc2000002
00002359  E9FFFFD802        jmp 0x2d9235d
0000235E  0000              add [eax],al
00002360  CAE9FF            retf 0xffe9
00002363  FF                db 0xFF
00002364  7803              js 0x2369
00002366  0000              add [eax],al
00002368  E8E9FFFF98        call 0x99002356
0000236D  0300              add eax,[eax]
0000236F  00FC              add ah,bh
00002371  E9FFFFB803        jmp 0x3b92375
00002376  0000              add [eax],al
00002378  10EA              adc dl,ch
0000237A  FF                db 0xFF
0000237B  FF                db 0xFF
0000237C  D803              fadd dword [ebx]
0000237E  0000              add [eax],al
00002380  68EAFFFF00        push dword 0xffffea
00002385  0400              add al,0x0
00002387  00C0              add al,al
00002389  EAFFFF28040000    jmp 0x0:0x428ffff
00002390  D8EA              fsubr st2
00002392  FF                db 0xFF
00002393  FF4804            dec dword [eax+0x4]
00002396  0000              add [eax],al
00002398  F8                clc
00002399  EAFFFF68040000    jmp 0x0:0x468ffff
000023A0  1AEB              sbb ch,bl
000023A2  FF                db 0xFF
000023A3  FF880400008C      dec dword [eax+0x8c000004]
000023A9  EBFF              jmp short 0x23aa
000023AB  FFA8040000A4      jmp far [eax+0xa4000004]
000023B1  EBFF              jmp short 0x23b2
000023B3  FFC8              dec eax
000023B5  0400              add al,0x0
000023B7  00AAEBFFFFE8      add [edx+0xe8ffffeb],ch
000023BD  0400              add al,0x0
000023BF  00B0EBFFFF08      add [eax+0x8ffffeb],dh
000023C5  050000C4EB        add eax,0xebc40000
000023CA  FF                db 0xFF
000023CB  FF28              jmp far [eax]
000023CD  0500000EEC        add eax,0xec0e0000
000023D2  FF                db 0xFF
000023D3  FF5005            call near [eax+0x5]
000023D6  0000              add [eax],al
000023D8  90                nop
000023D9  EC                in al,dx
000023DA  FF                db 0xFF
000023DB  FF                db 0xFF
000023DC  7805              js 0x23e3
000023DE  0000              add [eax],al
000023E0  CE                into
000023E1  EC                in al,dx
000023E2  FF                db 0xFF
000023E3  FF98050000D6      call far [eax+0xd6000005]
000023E9  EC                in al,dx
000023EA  FF                db 0xFF
000023EB  FF                db 0xFF
000023EC  B8050000F0        mov eax,0xf0000005
000023F1  EC                in al,dx
000023F2  FF                db 0xFF
000023F3  FF                db 0xFF
000023F4  D8050000FFEC      fadd dword [0xecff0000]
000023FA  FF                db 0xFF
000023FB  FF                db 0xFF
000023FC  F8                clc
000023FD  0500002BED        add eax,0xed2b0000
00002402  FF                db 0xFF
00002403  FF1C06            call far [esi+eax]
00002406  0000              add [eax],al
00002408  7DED              jnl 0x23f7
0000240A  FF                db 0xFF
0000240B  FF4006            inc dword [eax+0x6]
0000240E  0000              add [eax],al
00002410  25EEFFFF64        and eax,0x64ffffee
00002415  06                push es
00002416  0000              add [eax],al
00002418  F2EE              repne out dx,al
0000241A  FF                db 0xFF
0000241B  FF8C0600002AEF    dec dword [esi+eax+0xef2a0000]
00002422  FF                db 0xFF
00002423  FFAC0600006EEF    jmp far [esi+eax+0xef6e0000]
0000242A  FF                db 0xFF
0000242B  FFCC              dec esp
0000242D  06                push es
0000242E  0000              add [eax],al
00002430  95                xchg eax,ebp
00002431  EF                out dx,eax
00002432  FF                db 0xFF
00002433  FF                db 0xFF
00002434  EC                in al,dx
00002435  06                push es
00002436  0000              add [eax],al
00002438  B6EF              mov dh,0xef
0000243A  FF                db 0xFF
0000243B  FF0C07            dec dword [edi+eax]
0000243E  0000              add [eax],al
00002440  D0EF              shr bh,1
00002442  FF                db 0xFF
00002443  FF2C07            jmp far [edi+eax]
00002446  0000              add [eax],al
00002448  D8EF              fsubr st7
0000244A  FF                db 0xFF
0000244B  FF4C0700          dec dword [edi+eax+0x0]
0000244F  0019              add [ecx],bl
00002451  F0                db 0xF0
00002452  FF                db 0xFF
00002453  FF6C0700          jmp far [edi+eax+0x0]
00002457  000A              add [edx],cl
00002459  F1                int1
0000245A  FF                db 0xFF
0000245B  FF9407000043F1    call near [edi+eax+0xf1430000]
00002462  FF                db 0xFF
00002463  FFB407000081F2    push dword [edi+eax+0xf2810000]
0000246A  FF                db 0xFF
0000246B  FF                db 0xFF
0000246C  DC07              fadd qword [edi]
0000246E  0000              add [eax],al
00002470  CE                into
00002471  F2                db 0xF2
00002472  FF                db 0xFF
00002473  FF00              inc dword [eax]
00002475  0800              or [eax],al
00002477  00E8              add al,ch
00002479  F2                db 0xF2
0000247A  FF                db 0xFF
0000247B  FF20              jmp near [eax]
0000247D  0800              or [eax],al
0000247F  0018              add [eax],bl
00002481  F3                db 0xF3
00002482  FF                db 0xFF
00002483  FF4008            inc dword [eax+0x8]
00002486  0000              add [eax],al
00002488  2BF3              sub esi,ebx
0000248A  FF                db 0xFF
0000248B  FF6008            jmp near [eax+0x8]
0000248E  0000              add [eax],al
00002490  4C                dec esp
00002491  F3                db 0xF3
00002492  FF                db 0xFF
00002493  FF8008000051      inc dword [eax+0x51000008]
00002499  F3                db 0xF3
0000249A  FF                db 0xFF
0000249B  FFA0080000F2      jmp near [eax+0xf2000008]
000024A1  F3                db 0xF3
000024A2  FF                db 0xFF
000024A3  FFC8              dec eax
000024A5  0800              or [eax],al
000024A7  0044F4FF          add [esp+esi*8-0x1],al
000024AB  FF                db 0xFF
000024AC  E80800007F        call 0x7f0024b9
000024B1  F4                hlt
000024B2  FF                db 0xFF
000024B3  FF08              dec dword [eax]
000024B5  0900              or [eax],eax
000024B7  00ACF5FFFF3009    add [ebp+esi*8+0x930ffff],ch
000024BE  0000              add [eax],al
000024C0  B6F5              mov dh,0xf5
000024C2  FF                db 0xFF
000024C3  FF5009            call near [eax+0x9]
000024C6  0000              add [eax],al
000024C8  6AF6              push byte -0xa
000024CA  FF                db 0xFF
000024CB  FF7009            push dword [eax+0x9]
000024CE  0000              add [eax],al
000024D0  96                xchg eax,esi
000024D1  F6FF              idiv bh
000024D3  FF94090000ABF6    call near [ecx+ecx+0xf6ab0000]
000024DA  FF                db 0xFF
000024DB  FFB409000005F7    push dword [ecx+ecx+0xf7050000]
000024E2  FF                db 0xFF
000024E3  FFD4              call esp
000024E5  0900              or [eax],eax
000024E7  00BEF7FFFFFC      add [esi+0xfcfffff7],bh
000024ED  0900              or [eax],eax
000024EF  00C4              add ah,al
000024F1  F7FF              idiv edi
000024F3  FF1C0A            call far [edx+ecx]
000024F6  0000              add [eax],al
000024F8  FA                cli
000024F9  F7FF              idiv edi
000024FB  FF                db 0xFF
000024FC  3C0A              cmp al,0xa
000024FE  0000              add [eax],al
00002500  31F8              xor eax,edi
00002502  FF                db 0xFF
00002503  FF5C0A00          call far [edx+ecx+0x0]
00002507  0006              add [esi],al
00002509  F9                stc
0000250A  FF                db 0xFF
0000250B  FF800A000032      inc dword [eax+0x3200000a]
00002511  F9                stc
00002512  FF                db 0xFF
00002513  FFA40A0000D2F9    jmp near [edx+ecx+0xf9d20000]
0000251A  FF                db 0xFF
0000251B  FFCC              dec esp
0000251D  0A00              or al,[eax]
0000251F  00E7              add bh,ah
00002521  F9                stc
00002522  FF                db 0xFF
00002523  FF                db 0xFF
00002524  EC                in al,dx
00002525  0A00              or al,[eax]
00002527  0001              add [ecx],al
00002529  FA                cli
0000252A  FF                db 0xFF
0000252B  FF0C0B            dec dword [ebx+ecx]
0000252E  0000              add [eax],al
00002530  23FA              and edi,edx
00002532  FF                db 0xFF
00002533  FF2C0B            jmp far [ebx+ecx]
00002536  0000              add [eax],al
00002538  82                db 0x82
00002539  FA                cli
0000253A  FF                db 0xFF
0000253B  FF540B00          call near [ebx+ecx+0x0]
0000253F  008CFAFFFF740B    add [edx+edi*8+0xb74ffff],cl
00002546  0000              add [eax],al
00002548  94                xchg eax,esp
00002549  FA                cli
0000254A  FF                db 0xFF
0000254B  FF940B0000C6FA    call near [ebx+ecx+0xfac60000]
00002552  FF                db 0xFF
00002553  FFB40B0000BDFC    push dword [ebx+ecx+0xfcbd0000]
0000255A  FF                db 0xFF
0000255B  FF                db 0xFF
0000255C  E80B0000EE        call 0xee00256c
00002561  FC                cld
00002562  FF                db 0xFF
00002563  FF0C0C            dec dword [esp+ecx]
00002566  0000              add [eax],al
00002568  00FD              add ch,bh
0000256A  FF                db 0xFF
0000256B  FF2C0C            jmp far [esp+ecx]
0000256E  0000              add [eax],al
00002570  13FD              adc edi,ebp
00002572  FF                db 0xFF
00002573  FF4C0C00          dec dword [esp+ecx+0x0]
00002577  0038              add [eax],bh
00002579  FD                std
0000257A  FF                db 0xFF
0000257B  FF6C0C00          jmp far [esp+ecx+0x0]
0000257F  006CFEFF          add [esi+edi*8-0x1],ch
00002583  FFA00C0000B2      jmp near [eax+0xb200000c]
00002589  FE                db 0xFE
0000258A  FF                db 0xFF
0000258B  FFC0              inc eax
0000258D  0C00              or al,0x0
0000258F  00C7              add bh,al
00002591  FE                db 0xFE
00002592  FF                db 0xFF
00002593  FFE0              jmp eax
00002595  0C00              or al,0x0
00002597  001400            add [eax+eax],dl
0000259A  0000              add [eax],al
0000259C  0000              add [eax],al
0000259E  0000              add [eax],al
000025A0  017A52            add [edx+0x52],edi
000025A3  0001              add [ecx],al
000025A5  7C08              jl 0x25af
000025A7  011B              add [ebx],ebx
000025A9  0C04              or al,0x4
000025AB  0488              add al,0x88
000025AD  0100              add [eax],eax
000025AF  0020              add [eax],ah
000025B1  0000              add [eax],al
000025B3  001C00            add [eax+eax],bl
000025B6  0000              add [eax],al
000025B8  38E1              cmp cl,ah
000025BA  FF                db 0xFF
000025BB  FF00              inc dword [eax]
000025BD  0100              add [eax],eax
000025BF  0000              add [eax],al
000025C1  0E                push cs
000025C2  08460E            or [esi+0xe],al
000025C5  0C4A              or al,0x4a
000025C7  0F0B              ud2
000025C9  7404              jz 0x25cf
000025CB  7800              js 0x25cd
000025CD  3F                aas
000025CE  1A3B              sbb bh,[ebx]
000025D0  2A32              sub dh,[edx]
000025D2  2422              and al,0x22
000025D4  1C00              sbb al,0x0
000025D6  0000              add [eax],al
000025D8  40                inc eax
000025D9  0000              add [eax],al
000025DB  00EA              add dl,ch
000025DD  E6FF              out 0xff,al
000025DF  FF18              call far [eax]
000025E1  0000              add [eax],al
000025E3  0000              add [eax],al
000025E5  41                inc ecx
000025E6  0E                push cs
000025E7  088502420D05      or [ebp+0x50d4202],al
000025ED  54                push esp
000025EE  C50C04            lds ecx,[esp+eax]
000025F1  0400              add al,0x0
000025F3  001C00            add [eax+eax],bl
000025F6  0000              add [eax],al
000025F8  60                pusha
000025F9  0000              add [eax],al
000025FB  00E2              add dl,ah
000025FD  E6FF              out 0xff,al
000025FF  FF08              dec dword [eax]
00002601  0000              add [eax],al
00002603  0000              add [eax],al
00002605  41                inc ecx
00002606  0E                push cs
00002607  088502420D05      or [ebp+0x50d4202],al
0000260D  44                inc esp
0000260E  C50C04            lds ecx,[esp+eax]
00002611  0400              add al,0x0
00002613  0020              add [eax],ah
00002615  0000              add [eax],al
00002617  0080000000F4      add [eax+0xf4000000],al
0000261D  E2FF              loop 0x261e
0000261F  FFCD              dec ebp
00002621  0000              add [eax],al
00002623  0000              add [eax],al
00002625  41                inc ecx
00002626  0E                push cs
00002627  088502420D05      or [ebp+0x50d4202],al
0000262D  41                inc ecx
0000262E  830302            add dword [ebx],byte +0x2
00002631  C7C341C50C04      mov ebx,0x40cc541
00002637  041C              add al,0x1c
00002639  0000              add [eax],al
0000263B  0000              add [eax],al
0000263D  0000              add [eax],al
0000263F  0001              add [ecx],al
00002641  7A50              jpe 0x2693
00002643  4C                dec esp
00002644  52                push edx
00002645  0001              add [ecx],al
00002647  7C08              jl 0x2651
00002649  07                pop es
0000264A  00D0              add al,dl
0000264C  870408            xchg eax,[eax+ecx]
0000264F  001B              add [ebx],bl
00002651  0C04              or al,0x4
00002653  0488              add al,0x88
00002655  0100              add [eax],eax
00002657  0038              add [eax],bh
00002659  0000              add [eax],al
0000265B  002400            add [eax+eax],ah
0000265E  0000              add [eax],al
00002660  7DE3              jnl 0x2645
00002662  FF                db 0xFF
00002663  FF8E02000004      dec dword [esi+0x4000002]
00002669  60                pusha
0000266A  B004              mov al,0x4
0000266C  08440C01          or [esp+ecx+0x1],al
00002670  004710            add [edi+0x10],al
00002673  0502750044        add eax,0x44007502
00002678  0F037578          lsl esi,[ebp+0x78]
0000267C  06                push es
0000267D  1003              adc [ebx],al
0000267F  02757C            add dh,[ebp+0x7c]
00002682  037902            add edi,[ecx+0x2]
00002685  C10C0100          ror dword [ecx+eax],0x0
00002689  41                inc ecx
0000268A  C3                ret
0000268B  41                inc ecx
0000268C  C5430C            lds eax,[ebx+0xc]
0000268F  0404              add al,0x4
00002691  0000              add [eax],al
00002693  001C00            add [eax+eax],bl
00002696  0000              add [eax],al
00002698  0001              add [ecx],al
0000269A  0000              add [eax],al
0000269C  4A                dec edx
0000269D  E6FF              out 0xff,al
0000269F  FF1D00000000      call far [0x0]
000026A5  41                inc ecx
000026A6  0E                push cs
000026A7  088502420D05      or [ebp+0x50d4202],al
000026AD  59                pop ecx
000026AE  C50C04            lds ecx,[esp+eax]
000026B1  0400              add al,0x0
000026B3  001C00            add [eax+eax],bl
000026B6  0000              add [eax],al
000026B8  2001              and [ecx],al
000026BA  0000              add [eax],al
000026BC  48                dec eax
000026BD  E6FF              out 0xff,al
000026BF  FF13              call near [ebx]
000026C1  0000              add [eax],al
000026C3  0000              add [eax],al
000026C5  41                inc ecx
000026C6  0E                push cs
000026C7  088502420D05      or [ebp+0x50d4202],al
000026CD  4F                dec edi
000026CE  C50C04            lds ecx,[esp+eax]
000026D1  0400              add al,0x0
000026D3  001C00            add [eax+eax],bl
000026D6  0000              add [eax],al
000026D8  40                inc eax
000026D9  0100              add [eax],eax
000026DB  003CE6            add [esi],bh
000026DE  FF                db 0xFF
000026DF  FF13              call near [ebx]
000026E1  0000              add [eax],al
000026E3  0000              add [eax],al
000026E5  41                inc ecx
000026E6  0E                push cs
000026E7  088502420D05      or [ebp+0x50d4202],al
000026ED  4F                dec edi
000026EE  C50C04            lds ecx,[esp+eax]
000026F1  0400              add al,0x0
000026F3  002400            add [eax+eax],ah
000026F6  0000              add [eax],al
000026F8  C00000            rol byte [eax],0x0
000026FB  0030              add [eax],dh
000026FD  E6FF              out 0xff,al
000026FF  FF5800            call far [eax+0x0]
00002702  0000              add [eax],al
00002704  048A              add al,0x8a
00002706  B004              mov al,0x4
00002708  08410E            or [ecx+0xe],al
0000270B  088502420D05      or [ebp+0x50d4202],al
00002711  44                inc esp
00002712  830302            add dword [ebx],byte +0x2
00002715  4F                dec edi
00002716  C3                ret
00002717  41                inc ecx
00002718  C50C04            lds ecx,[esp+eax]
0000271B  0424              add al,0x24
0000271D  0000              add [eax],al
0000271F  00E8              add al,ch
00002721  0000              add [eax],al
00002723  0060E6            add [eax-0x1a],ah
00002726  FF                db 0xFF
00002727  FF5700            call near [edi+0x0]
0000272A  0000              add [eax],al
0000272C  049A              add al,0x9a
0000272E  B004              mov al,0x4
00002730  08410E            or [ecx+0xe],al
00002733  088502420D05      or [ebp+0x50d4202],al
00002739  44                inc esp
0000273A  830302            add dword [ebx],byte +0x2
0000273D  4E                dec esi
0000273E  C3                ret
0000273F  41                inc ecx
00002740  C50C04            lds ecx,[esp+eax]
00002743  041C              add al,0x1c
00002745  0000              add [eax],al
00002747  00B001000090      add [eax+0x90000001],dh
0000274D  E6FF              out 0xff,al
0000274F  FF18              call far [eax]
00002751  0000              add [eax],al
00002753  0000              add [eax],al
00002755  41                inc ecx
00002756  0E                push cs
00002757  088502420D05      or [ebp+0x50d4202],al
0000275D  54                push esp
0000275E  C50C04            lds ecx,[esp+eax]
00002761  0400              add al,0x0
00002763  001C00            add [eax+eax],bl
00002766  0000              add [eax],al
00002768  D001              rol byte [ecx],1
0000276A  0000              add [eax],al
0000276C  88E6              mov dh,ah
0000276E  FF                db 0xFF
0000276F  FF1F              call far [edi]
00002771  0000              add [eax],al
00002773  0000              add [eax],al
00002775  41                inc ecx
00002776  0E                push cs
00002777  088502420D05      or [ebp+0x50d4202],al
0000277D  59                pop ecx
0000277E  C50C04            lds ecx,[esp+eax]
00002781  0400              add al,0x0
00002783  001C00            add [eax+eax],bl
00002786  0000              add [eax],al
00002788  F00100            lock add [eax],eax
0000278B  0088E6FFFF22      add [eax+0x22ffffe6],cl
00002791  0000              add [eax],al
00002793  0000              add [eax],al
00002795  41                inc ecx
00002796  0E                push cs
00002797  088502420D05      or [ebp+0x50d4202],al
0000279D  5C                pop esp
0000279E  C50C04            lds ecx,[esp+eax]
000027A1  0400              add al,0x0
000027A3  001C00            add [eax+eax],bl
000027A6  0000              add [eax],al
000027A8  1002              adc [edx],al
000027AA  0000              add [eax],al
000027AC  8AE6              mov ah,dh
000027AE  FF                db 0xFF
000027AF  FF7100            push dword [ecx+0x0]
000027B2  0000              add [eax],al
000027B4  00410E            add [ecx+0xe],al
000027B7  088502420D05      or [ebp+0x50d4202],al
000027BD  026DC5            add ch,[ebp-0x3b]
000027C0  0C04              or al,0x4
000027C2  0400              add al,0x0
000027C4  1C00              sbb al,0x0
000027C6  0000              add [eax],al
000027C8  3002              xor [edx],al
000027CA  0000              add [eax],al
000027CC  DCE6              fsubr to st6
000027CE  FF                db 0xFF
000027CF  FF18              call far [eax]
000027D1  0000              add [eax],al
000027D3  0000              add [eax],al
000027D5  41                inc ecx
000027D6  0E                push cs
000027D7  088502420D05      or [ebp+0x50d4202],al
000027DD  54                push esp
000027DE  C50C04            lds ecx,[esp+eax]
000027E1  0400              add al,0x0
000027E3  001C00            add [eax+eax],bl
000027E6  0000              add [eax],al
000027E8  50                push eax
000027E9  0200              add al,[eax]
000027EB  00D4              add ah,dl
000027ED  E6FF              out 0xff,al
000027EF  FF0500000000      inc dword [0x0]
000027F5  41                inc ecx
000027F6  0E                push cs
000027F7  088502420D05      or [ebp+0x50d4202],al
000027FD  41                inc ecx
000027FE  C50C04            lds ecx,[esp+eax]
00002801  0400              add al,0x0
00002803  001C00            add [eax+eax],bl
00002806  0000              add [eax],al
00002808  7002              jo 0x280c
0000280A  0000              add [eax],al
0000280C  BAE6FFFF05        mov edx,0x5ffffe6
00002811  0000              add [eax],al
00002813  0000              add [eax],al
00002815  41                inc ecx
00002816  0E                push cs
00002817  088502420D05      or [ebp+0x50d4202],al
0000281D  41                inc ecx
0000281E  C50C04            lds ecx,[esp+eax]
00002821  0400              add al,0x0
00002823  001C00            add [eax+eax],bl
00002826  0000              add [eax],al
00002828  90                nop
00002829  0200              add al,[eax]
0000282B  00A0E6FFFF13      add [eax+0x13ffffe6],ah
00002831  0000              add [eax],al
00002833  0000              add [eax],al
00002835  41                inc ecx
00002836  0E                push cs
00002837  088502420D05      or [ebp+0x50d4202],al
0000283D  4F                dec edi
0000283E  C50C04            lds ecx,[esp+eax]
00002841  0400              add al,0x0
00002843  002400            add [eax+eax],ah
00002846  0000              add [eax],al
00002848  1002              adc [edx],al
0000284A  0000              add [eax],al
0000284C  94                xchg eax,esp
0000284D  E6FF              out 0xff,al
0000284F  FF4A00            dec dword [edx+0x0]
00002852  0000              add [eax],al
00002854  04AA              add al,0xaa
00002856  B004              mov al,0x4
00002858  08410E            or [ecx+0xe],al
0000285B  088502420D05      or [ebp+0x50d4202],al
00002861  44                inc esp
00002862  830302            add dword [ebx],byte +0x2
00002865  41                inc ecx
00002866  C3                ret
00002867  41                inc ecx
00002868  C50C04            lds ecx,[esp+eax]
0000286B  0424              add al,0x24
0000286D  0000              add [eax],al
0000286F  0038              add [eax],bh
00002871  0200              add al,[eax]
00002873  00B6E6FFFF81      add [esi+0x81ffffe6],dh
00002879  0000              add [eax],al
0000287B  0004B6            add [esi+esi*4],al
0000287E  B004              mov al,0x4
00002880  08410E            or [ecx+0xe],al
00002883  088502420D05      or [ebp+0x50d4202],al
00002889  44                inc esp
0000288A  830302            add dword [ebx],byte +0x2
0000288D  78C3              js 0x2852
0000288F  41                inc ecx
00002890  C50C04            lds ecx,[esp+eax]
00002893  041C              add al,0x1c
00002895  0000              add [eax],al
00002897  0000              add [eax],al
00002899  0300              add eax,[eax]
0000289B  0010              add [eax],dl
0000289D  E7FF              out 0xff,eax
0000289F  FF                db 0xFF
000028A0  3E0000            add [ds:eax],al
000028A3  0000              add [eax],al
000028A5  41                inc ecx
000028A6  0E                push cs
000028A7  088502420D05      or [ebp+0x50d4202],al
000028AD  7AC5              jpe 0x2874
000028AF  0C04              or al,0x4
000028B1  0400              add al,0x0
000028B3  001C00            add [eax+eax],bl
000028B6  0000              add [eax],al
000028B8  2003              and [ebx],al
000028BA  0000              add [eax],al
000028BC  2EE7FF            cs out 0xff,eax
000028BF  FF08              dec dword [eax]
000028C1  0000              add [eax],al
000028C3  0000              add [eax],al
000028C5  41                inc ecx
000028C6  0E                push cs
000028C7  088502420D05      or [ebp+0x50d4202],al
000028CD  44                inc esp
000028CE  C50C04            lds ecx,[esp+eax]
000028D1  0400              add al,0x0
000028D3  001C00            add [eax+eax],bl
000028D6  0000              add [eax],al
000028D8  40                inc eax
000028D9  0300              add eax,[eax]
000028DB  0016              add [esi],dl
000028DD  E7FF              out 0xff,eax
000028DF  FF1A              call far [edx]
000028E1  0000              add [eax],al
000028E3  0000              add [eax],al
000028E5  41                inc ecx
000028E6  0E                push cs
000028E7  088502420D05      or [ebp+0x50d4202],al
000028ED  56                push esi
000028EE  C50C04            lds ecx,[esp+eax]
000028F1  0400              add al,0x0
000028F3  001C00            add [eax+eax],bl
000028F6  0000              add [eax],al
000028F8  60                pusha
000028F9  0300              add eax,[eax]
000028FB  0010              add [eax],dl
000028FD  E7FF              out 0xff,eax
000028FF  FF0F              dec dword [edi]
00002901  0000              add [eax],al
00002903  0000              add [eax],al
00002905  41                inc ecx
00002906  0E                push cs
00002907  088502420D05      or [ebp+0x50d4202],al
0000290D  4B                dec ebx
0000290E  C50C04            lds ecx,[esp+eax]
00002911  0400              add al,0x0
00002913  0020              add [eax],ah
00002915  0000              add [eax],al
00002917  0080030000FF      add [eax+0xff000003],al
0000291D  E6FF              out 0xff,al
0000291F  FF2C00            jmp far [eax+eax]
00002922  0000              add [eax],al
00002924  00410E            add [ecx+0xe],al
00002927  088502420D05      or [ebp+0x50d4202],al
0000292D  44                inc esp
0000292E  830363            add dword [ebx],byte +0x63
00002931  C3                ret
00002932  41                inc ecx
00002933  C50C04            lds ecx,[esp+eax]
00002936  0400              add al,0x0
00002938  2000              and [eax],al
0000293A  0000              add [eax],al
0000293C  A4                movsb
0000293D  0300              add eax,[eax]
0000293F  0007              add [edi],al
00002941  E7FF              out 0xff,eax
00002943  FF5200            call near [edx+0x0]
00002946  0000              add [eax],al
00002948  00410E            add [ecx+0xe],al
0000294B  088502420D05      or [ebp+0x50d4202],al
00002951  44                inc esp
00002952  830302            add dword [ebx],byte +0x2
00002955  49                dec ecx
00002956  C3                ret
00002957  41                inc ecx
00002958  C50C04            lds ecx,[esp+eax]
0000295B  0420              add al,0x20
0000295D  0000              add [eax],al
0000295F  0028              add [eax],ch
00002961  0300              add eax,[eax]
00002963  0035E7FFFFA8      add [0xa8ffffe7],dh
00002969  0000              add [eax],al
0000296B  0004C2            add [edx+eax*8],al
0000296E  B004              mov al,0x4
00002970  08410E            or [ecx+0xe],al
00002973  088502420D05      or [ebp+0x50d4202],al
00002979  02A4C50C040400    add ah,[ebp+eax*8+0x4040c]
00002980  2400              and al,0x0
00002982  0000              add [eax],al
00002984  4C                dec esp
00002985  0300              add eax,[eax]
00002987  00B9E7FFFFCD      add [ecx+0xcdffffe7],bh
0000298D  0000              add [eax],al
0000298F  0004D0            add [eax+edx*8],al
00002992  B004              mov al,0x4
00002994  08410E            or [ecx+0xe],al
00002997  088502420D05      or [ebp+0x50d4202],al
0000299D  44                inc esp
0000299E  830302            add dword [ebx],byte +0x2
000029A1  C5                db 0xC5
000029A2  C5                db 0xC5
000029A3  C3                ret
000029A4  0C04              or al,0x4
000029A6  0400              add al,0x0
000029A8  1C00              sbb al,0x0
000029AA  0000              add [eax],al
000029AC  1404              adc al,0x4
000029AE  0000              add [eax],al
000029B0  5E                pop esi
000029B1  E8FFFF3700        call 0x3829b5
000029B6  0000              add [eax],al
000029B8  00410E            add [ecx+0xe],al
000029BB  088502420D05      or [ebp+0x50d4202],al
000029C1  73C5              jnc 0x2988
000029C3  0C04              or al,0x4
000029C5  0400              add al,0x0
000029C7  001C00            add [eax+eax],bl
000029CA  0000              add [eax],al
000029CC  3404              xor al,0x4
000029CE  0000              add [eax],al
000029D0  76E8              jna 0x29ba
000029D2  FF                db 0xFF
000029D3  FF440000          inc dword [eax+eax+0x0]
000029D7  0000              add [eax],al
000029D9  41                inc ecx
000029DA  0E                push cs
000029DB  088502420D05      or [ebp+0x50d4202],al
000029E1  0240C5            add al,[eax-0x3b]
000029E4  0C04              or al,0x4
000029E6  0400              add al,0x0
000029E8  1C00              sbb al,0x0
000029EA  0000              add [eax],al
000029EC  54                push esp
000029ED  0400              add al,0x0
000029EF  009AE8FFFF27      add [edx+0x27ffffe8],bl
000029F5  0000              add [eax],al
000029F7  0000              add [eax],al
000029F9  41                inc ecx
000029FA  0E                push cs
000029FB  088502420D05      or [ebp+0x50d4202],al
00002A01  63C5              arpl bp,ax
00002A03  0C04              or al,0x4
00002A05  0400              add al,0x0
00002A07  001C00            add [eax+eax],bl
00002A0A  0000              add [eax],al
00002A0C  7404              jz 0x2a12
00002A0E  0000              add [eax],al
00002A10  A1E8FFFF21        mov eax,[0x21ffffe8]
00002A15  0000              add [eax],al
00002A17  0000              add [eax],al
00002A19  41                inc ecx
00002A1A  0E                push cs
00002A1B  088502420D05      or [ebp+0x50d4202],al
00002A21  5D                pop ebp
00002A22  C50C04            lds ecx,[esp+eax]
00002A25  0400              add al,0x0
00002A27  001C00            add [eax+eax],bl
00002A2A  0000              add [eax],al
00002A2C  94                xchg eax,esp
00002A2D  0400              add al,0x0
00002A2F  00A2E8FFFF1A      add [edx+0x1affffe8],ah
00002A35  0000              add [eax],al
00002A37  0000              add [eax],al
00002A39  41                inc ecx
00002A3A  0E                push cs
00002A3B  088502420D05      or [ebp+0x50d4202],al
00002A41  56                push esi
00002A42  C50C04            lds ecx,[esp+eax]
00002A45  0400              add al,0x0
00002A47  001C00            add [eax+eax],bl
00002A4A  0000              add [eax],al
00002A4C  B404              mov ah,0x4
00002A4E  0000              add [eax],al
00002A50  9C                pushf
00002A51  E8FFFF0800        call 0x92a55
00002A56  0000              add [eax],al
00002A58  00410E            add [ecx+0xe],al
00002A5B  088502420D05      or [ebp+0x50d4202],al
00002A61  44                inc esp
00002A62  C50C04            lds ecx,[esp+eax]
00002A65  0400              add al,0x0
00002A67  001C00            add [eax+eax],bl
00002A6A  0000              add [eax],al
00002A6C  D404              aam 0x4
00002A6E  0000              add [eax],al
00002A70  84E8              test al,ch
00002A72  FF                db 0xFF
00002A73  FF4100            inc dword [ecx+0x0]
00002A76  0000              add [eax],al
00002A78  00410E            add [ecx+0xe],al
00002A7B  088502420D05      or [ebp+0x50d4202],al
00002A81  7DC5              jnl 0x2a48
00002A83  0C04              or al,0x4
00002A85  0400              add al,0x0
00002A87  002400            add [eax+eax],ah
00002A8A  0000              add [eax],al
00002A8C  54                push esp
00002A8D  0400              add al,0x0
00002A8F  00A5E8FFFFF1      add [ebp+0xf1ffffe8],ah
00002A95  0000              add [eax],al
00002A97  0004E4            add [esp],al
00002A9A  B004              mov al,0x4
00002A9C  08410E            or [ecx+0xe],al
00002A9F  088502420D05      or [ebp+0x50d4202],al
00002AA5  44                inc esp
00002AA6  830302            add dword [ebx],byte +0x2
00002AA9  E7C5              out 0xc5,eax
00002AAB  C3                ret
00002AAC  0C04              or al,0x4
00002AAE  0400              add al,0x0
00002AB0  1C00              sbb al,0x0
00002AB2  0000              add [eax],al
00002AB4  1C05              sbb al,0x5
00002AB6  0000              add [eax],al
00002AB8  6E                outsb
00002AB9  E9FFFF3900        jmp 0x3a2abd
00002ABE  0000              add [eax],al
00002AC0  00410E            add [ecx+0xe],al
00002AC3  088502420D05      or [ebp+0x50d4202],al
00002AC9  73C5              jnc 0x2a90
00002ACB  0C04              or al,0x4
00002ACD  0400              add al,0x0
00002ACF  002400            add [eax+eax],ah
00002AD2  0000              add [eax],al
00002AD4  9C                pushf
00002AD5  0400              add al,0x0
00002AD7  0087E9FFFF3E      add [edi+0x3effffe9],al
00002ADD  0100              add [eax],eax
00002ADF  0004F8            add [eax+edi*8],al
00002AE2  B004              mov al,0x4
00002AE4  08410E            or [ecx+0xe],al
00002AE7  088502420D05      or [ebp+0x50d4202],al
00002AED  44                inc esp
00002AEE  830303            add dword [ebx],byte +0x3
00002AF1  3601C5            ss add ebp,eax
00002AF4  C3                ret
00002AF5  0C04              or al,0x4
00002AF7  0420              add al,0x20
00002AF9  0000              add [eax],al
00002AFB  00C4              add ah,al
00002AFD  0400              add al,0x0
00002AFF  009DEAFFFF4D      add [ebp+0x4dffffea],bl
00002B05  0000              add [eax],al
00002B07  000412            add [edx+edx],al
00002B0A  B104              mov cl,0x4
00002B0C  08410E            or [ecx+0xe],al
00002B0F  088502420D05      or [ebp+0x50d4202],al
00002B15  0249C5            add cl,[ecx-0x3b]
00002B18  0C04              or al,0x4
00002B1A  0400              add al,0x0
00002B1C  1C00              sbb al,0x0
00002B1E  0000              add [eax],al
00002B20  88050000C6EA      mov [0xeac60000],al
00002B26  FF                db 0xFF
00002B27  FF1A              call far [edx]
00002B29  0000              add [eax],al
00002B2B  0000              add [eax],al
00002B2D  41                inc ecx
00002B2E  0E                push cs
00002B2F  088502420D05      or [ebp+0x50d4202],al
00002B35  56                push esi
00002B36  C50C04            lds ecx,[esp+eax]
00002B39  0400              add al,0x0
00002B3B  001C00            add [eax+eax],bl
00002B3E  0000              add [eax],al
00002B40  A805              test al,0x5
00002B42  0000              add [eax],al
00002B44  C0EAFF            shr dl,0xff
00002B47  FF2F              jmp far [edi]
00002B49  0000              add [eax],al
00002B4B  0000              add [eax],al
00002B4D  41                inc ecx
00002B4E  0E                push cs
00002B4F  088502420D05      or [ebp+0x50d4202],al
00002B55  6BC50C            imul eax,ebp,byte +0xc
00002B58  0404              add al,0x4
00002B5A  0000              add [eax],al
00002B5C  1C00              sbb al,0x0
00002B5E  0000              add [eax],al
00002B60  C8050000          enter 0x5,0x0
00002B64  D0EA              shr dl,1
00002B66  FF                db 0xFF
00002B67  FF13              call near [ebx]
00002B69  0000              add [eax],al
00002B6B  0000              add [eax],al
00002B6D  41                inc ecx
00002B6E  0E                push cs
00002B6F  088502420D05      or [ebp+0x50d4202],al
00002B75  4F                dec edi
00002B76  C50C04            lds ecx,[esp+eax]
00002B79  0400              add al,0x0
00002B7B  001C00            add [eax+eax],bl
00002B7E  0000              add [eax],al
00002B80  E8050000C3        call 0xc3002b8a
00002B85  EAFFFF21000000    jmp 0x0:0x21ffff
00002B8C  00410E            add [ecx+0xe],al
00002B8F  088502420D05      or [ebp+0x50d4202],al
00002B95  5D                pop ebp
00002B96  C50C04            lds ecx,[esp+eax]
00002B99  0400              add al,0x0
00002B9B  001C00            add [eax+eax],bl
00002B9E  0000              add [eax],al
00002BA0  0806              or [esi],al
00002BA2  0000              add [eax],al
00002BA4  C4                db 0xC4
00002BA5  EAFFFF05000000    jmp 0x0:0x5ffff
00002BAC  00410E            add [ecx+0xe],al
00002BAF  088502420D05      or [ebp+0x50d4202],al
00002BB5  41                inc ecx
00002BB6  C50C04            lds ecx,[esp+eax]
00002BB9  0400              add al,0x0
00002BBB  002400            add [eax+eax],ah
00002BBE  0000              add [eax],al
00002BC0  88050000A9EA      mov [0xeaa90000],al
00002BC6  FF                db 0xFF
00002BC7  FFA100000004      jmp near [ecx+0x4000000]
00002BCD  1E                push ds
00002BCE  B104              mov cl,0x4
00002BD0  08410E            or [ecx+0xe],al
00002BD3  088502420D05      or [ebp+0x50d4202],al
00002BD9  44                inc esp
00002BDA  830302            add dword [ebx],byte +0x2
00002BDD  98                cwde
00002BDE  C3                ret
00002BDF  41                inc ecx
00002BE0  C50C04            lds ecx,[esp+eax]
00002BE3  041C              add al,0x1c
00002BE5  0000              add [eax],al
00002BE7  005006            add [eax+0x6],dl
00002BEA  0000              add [eax],al
00002BEC  22EB              and ch,bl
00002BEE  FF                db 0xFF
00002BEF  FF5100            call near [ecx+0x0]
00002BF2  0000              add [eax],al
00002BF4  00410E            add [ecx+0xe],al
00002BF7  088502420D05      or [ebp+0x50d4202],al
00002BFD  024DC5            add cl,[ebp-0x3b]
00002C00  0C04              or al,0x4
00002C02  0400              add al,0x0
00002C04  1C00              sbb al,0x0
00002C06  0000              add [eax],al
00002C08  7006              jo 0x2c10
00002C0A  0000              add [eax],al
00002C0C  54                push esp
00002C0D  EBFF              jmp short 0x2c0e
00002C0F  FF                db 0xFF
00002C10  3B00              cmp eax,[eax]
00002C12  0000              add [eax],al
00002C14  00410E            add [ecx+0xe],al
00002C17  088502420D05      or [ebp+0x50d4202],al
00002C1D  75C5              jnz 0x2be4
00002C1F  0C04              or al,0x4
00002C21  0400              add al,0x0
00002C23  002400            add [eax+eax],ah
00002C26  0000              add [eax],al
00002C28  90                nop
00002C29  06                push es
00002C2A  0000              add [eax],al
00002C2C  6F                outsd
00002C2D  EBFF              jmp short 0x2c2e
00002C2F  FF2C01            jmp far [ecx+eax]
00002C32  0000              add [eax],al
00002C34  00410E            add [ecx+0xe],al
00002C37  088502420D05      or [ebp+0x50d4202],al
00002C3D  44                inc esp
00002C3E  830303            add dword [ebx],byte +0x3
00002C41  2301              and eax,[ecx]
00002C43  C3                ret
00002C44  41                inc ecx
00002C45  C50C04            lds ecx,[esp+eax]
00002C48  0400              add al,0x0
00002C4A  0000              add [eax],al
00002C4C  1C00              sbb al,0x0
00002C4E  0000              add [eax],al
00002C50  B806000074        mov eax,0x74000006
00002C55  EC                in al,dx
00002C56  FF                db 0xFF
00002C57  FF0A              dec dword [edx]
00002C59  0000              add [eax],al
00002C5B  0000              add [eax],al
00002C5D  41                inc ecx
00002C5E  0E                push cs
00002C5F  088502420D05      or [ebp+0x50d4202],al
00002C65  46                inc esi
00002C66  C50C04            lds ecx,[esp+eax]
00002C69  0400              add al,0x0
00002C6B  001C00            add [eax+eax],bl
00002C6E  0000              add [eax],al
00002C70  D806              fadd dword [esi]
00002C72  0000              add [eax],al
00002C74  5E                pop esi
00002C75  EC                in al,dx
00002C76  FF                db 0xFF
00002C77  FFB40000000041    push dword [eax+eax+0x41000000]
00002C7E  0E                push cs
00002C7F  088502420D05      or [ebp+0x50d4202],al
00002C85  02AEC50C0404      add ch,[esi+0x4040cc5]
00002C8B  0020              add [eax],ah
00002C8D  0000              add [eax],al
00002C8F  00F8              add al,bh
00002C91  06                push es
00002C92  0000              add [eax],al
00002C94  F2EC              repne in al,dx
00002C96  FF                db 0xFF
00002C97  FF2C00            jmp far [eax+eax]
00002C9A  0000              add [eax],al
00002C9C  00410E            add [ecx+0xe],al
00002C9F  088502420D05      or [ebp+0x50d4202],al
00002CA5  44                inc esp
00002CA6  830363            add dword [ebx],byte +0x63
00002CA9  C3                ret
00002CAA  41                inc ecx
00002CAB  C50C04            lds ecx,[esp+eax]
00002CAE  0400              add al,0x0
00002CB0  1C00              sbb al,0x0
00002CB2  0000              add [eax],al
00002CB4  1C07              sbb al,0x7
00002CB6  0000              add [eax],al
00002CB8  FA                cli
00002CB9  EC                in al,dx
00002CBA  FF                db 0xFF
00002CBB  FF1500000000      call near [0x0]
00002CC1  41                inc ecx
00002CC2  0E                push cs
00002CC3  088502420D05      or [ebp+0x50d4202],al
00002CC9  51                push ecx
00002CCA  C50C04            lds ecx,[esp+eax]
00002CCD  0400              add al,0x0
00002CCF  001C00            add [eax+eax],bl
00002CD2  0000              add [eax],al
00002CD4  3C07              cmp al,0x7
00002CD6  0000              add [eax],al
00002CD8  EF                out dx,eax
00002CD9  EC                in al,dx
00002CDA  FF                db 0xFF
00002CDB  FF5A00            call far [edx+0x0]
00002CDE  0000              add [eax],al
00002CE0  00410E            add [ecx+0xe],al
00002CE3  088502420D05      or [ebp+0x50d4202],al
00002CE9  0254C50C          add dl,[ebp+eax*8+0xc]
00002CED  0404              add al,0x4
00002CEF  002400            add [eax+eax],ah
00002CF2  0000              add [eax],al
00002CF4  BC06000029        mov esp,0x29000006
00002CF9  ED                in eax,dx
00002CFA  FF                db 0xFF
00002CFB  FF                db 0xFF
00002CFC  B900000004        mov ecx,0x4000000
00002D01  30B10408410E      xor [ecx+0xe410804],dh
00002D07  088502420D05      or [ebp+0x50d4202],al
00002D0D  44                inc esp
00002D0E  830302            add dword [ebx],byte +0x2
00002D11  B0C3              mov al,0xc3
00002D13  41                inc ecx
00002D14  C50C04            lds ecx,[esp+eax]
00002D17  041C              add al,0x1c
00002D19  0000              add [eax],al
00002D1B  0084070000BAED    add [edi+eax+0xedba0000],al
00002D22  FF                db 0xFF
00002D23  FF0500000000      inc dword [0x0]
00002D29  41                inc ecx
00002D2A  0E                push cs
00002D2B  088502420D05      or [ebp+0x50d4202],al
00002D31  41                inc ecx
00002D32  C50C04            lds ecx,[esp+eax]
00002D35  0400              add al,0x0
00002D37  001C00            add [eax+eax],bl
00002D3A  0000              add [eax],al
00002D3C  A4                movsb
00002D3D  07                pop es
00002D3E  0000              add [eax],al
00002D40  A0EDFFFF36        mov al,[0x36ffffed]
00002D45  0000              add [eax],al
00002D47  0000              add [eax],al
00002D49  41                inc ecx
00002D4A  0E                push cs
00002D4B  088502420D05      or [ebp+0x50d4202],al
00002D51  72C5              jc 0x2d18
00002D53  0C04              or al,0x4
00002D55  0400              add al,0x0
00002D57  001C00            add [eax+eax],bl
00002D5A  0000              add [eax],al
00002D5C  C407              les eax,[edi]
00002D5E  0000              add [eax],al
00002D60  B6ED              mov dh,0xed
00002D62  FF                db 0xFF
00002D63  FF37              push dword [edi]
00002D65  0000              add [eax],al
00002D67  0000              add [eax],al
00002D69  41                inc ecx
00002D6A  0E                push cs
00002D6B  088502420D05      or [ebp+0x50d4202],al
00002D71  73C5              jnc 0x2d38
00002D73  0C04              or al,0x4
00002D75  0400              add al,0x0
00002D77  0020              add [eax],ah
00002D79  0000              add [eax],al
00002D7B  00440700          add [edi+eax+0x0],al
00002D7F  00CD              add ch,cl
00002D81  ED                in eax,dx
00002D82  FF                db 0xFF
00002D83  FFD5              call ebp
00002D85  0000              add [eax],al
00002D87  00043F            add [edi+edi],al
00002D8A  B104              mov cl,0x4
00002D8C  08410E            or [ecx+0xe],al
00002D8F  088502420D05      or [ebp+0x50d4202],al
00002D95  02D1              add dl,cl
00002D97  C50C04            lds ecx,[esp+eax]
00002D9A  0400              add al,0x0
00002D9C  2000              and [eax],al
00002D9E  0000              add [eax],al
00002DA0  0808              or [eax],cl
00002DA2  0000              add [eax],al
00002DA4  7EEE              jng 0x2d94
00002DA6  FF                db 0xFF
00002DA7  FF2C00            jmp far [eax+eax]
00002DAA  0000              add [eax],al
00002DAC  00410E            add [ecx+0xe],al
00002DAF  088502420D05      or [ebp+0x50d4202],al
00002DB5  44                inc esp
00002DB6  830363            add dword [ebx],byte +0x63
00002DB9  C3                ret
00002DBA  41                inc ecx
00002DBB  C50C04            lds ecx,[esp+eax]
00002DBE  0400              add al,0x0
00002DC0  2400              and al,0x0
00002DC2  0000              add [eax],al
00002DC4  8C07              mov [edi],es
00002DC6  0000              add [eax],al
00002DC8  86EE              xchg ch,dh
00002DCA  FF                db 0xFF
00002DCB  FFA000000004      jmp near [eax+0x4000000]
00002DD1  4E                dec esi
00002DD2  B104              mov cl,0x4
00002DD4  08410E            or [ecx+0xe],al
00002DD7  088502420D05      or [ebp+0x50d4202],al
00002DDD  44                inc esp
00002DDE  830302            add dword [ebx],byte +0x2
00002DE1  97                xchg eax,edi
00002DE2  C3                ret
00002DE3  41                inc ecx
00002DE4  C50C04            lds ecx,[esp+eax]
00002DE7  041C              add al,0x1c
00002DE9  0000              add [eax],al
00002DEB  00540800          add [eax+ecx+0x0],dl
00002DEF  00FE              add dh,bh
00002DF1  EE                out dx,al
00002DF2  FF                db 0xFF
00002DF3  FF1500000000      call near [0x0]
00002DF9  41                inc ecx
00002DFA  0E                push cs
00002DFB  088502420D05      or [ebp+0x50d4202],al
00002E01  51                push ecx
00002E02  C50C04            lds ecx,[esp+eax]
00002E05  0400              add al,0x0
00002E07  001C00            add [eax+eax],bl
00002E0A  0000              add [eax],al
00002E0C  7408              jz 0x2e16
00002E0E  0000              add [eax],al
00002E10  F3EE              rep out dx,al
00002E12  FF                db 0xFF
00002E13  FF1A              call far [edx]
00002E15  0000              add [eax],al
00002E17  0000              add [eax],al
00002E19  41                inc ecx
00002E1A  0E                push cs
00002E1B  088502420D05      or [ebp+0x50d4202],al
00002E21  56                push esi
00002E22  C50C04            lds ecx,[esp+eax]
00002E25  0400              add al,0x0
00002E27  001C00            add [eax+eax],bl
00002E2A  0000              add [eax],al
00002E2C  94                xchg eax,esp
00002E2D  0800              or [eax],al
00002E2F  00ED              add ch,ch
00002E31  EE                out dx,al
00002E32  FF                db 0xFF
00002E33  FF22              jmp near [edx]
00002E35  0000              add [eax],al
00002E37  0000              add [eax],al
00002E39  41                inc ecx
00002E3A  0E                push cs
00002E3B  088502420D05      or [ebp+0x50d4202],al
00002E41  5C                pop esp
00002E42  C50C04            lds ecx,[esp+eax]
00002E45  0400              add al,0x0
00002E47  002400            add [eax+eax],ah
00002E4A  0000              add [eax],al
00002E4C  B408              mov ah,0x8
00002E4E  0000              add [eax],al
00002E50  EF                out dx,eax
00002E51  EE                out dx,al
00002E52  FF                db 0xFF
00002E53  FF5E00            call far [esi+0x0]
00002E56  0000              add [eax],al
00002E58  00410E            add [ecx+0xe],al
00002E5B  088502420D05      or [ebp+0x50d4202],al
00002E61  45                inc ebp
00002E62  8603              xchg al,[ebx]
00002E64  83040251          add dword [edx+eax],byte +0x51
00002E68  C3                ret
00002E69  41                inc ecx
00002E6A  C641C50C          mov byte [ecx-0x3b],0xc
00002E6E  0404              add al,0x4
00002E70  1C00              sbb al,0x0
00002E72  0000              add [eax],al
00002E74  DC08              fmul qword [eax]
00002E76  0000              add [eax],al
00002E78  26EF              es out dx,eax
00002E7A  FF                db 0xFF
00002E7B  FF0A              dec dword [edx]
00002E7D  0000              add [eax],al
00002E7F  0000              add [eax],al
00002E81  41                inc ecx
00002E82  0E                push cs
00002E83  088502420D05      or [ebp+0x50d4202],al
00002E89  46                inc esi
00002E8A  C50C04            lds ecx,[esp+eax]
00002E8D  0400              add al,0x0
00002E8F  001C00            add [eax+eax],bl
00002E92  0000              add [eax],al
00002E94  FC                cld
00002E95  0800              or [eax],al
00002E97  0010              add [eax],dl
00002E99  EF                out dx,eax
00002E9A  FF                db 0xFF
00002E9B  FF08              dec dword [eax]
00002E9D  0000              add [eax],al
00002E9F  0000              add [eax],al
00002EA1  41                inc ecx
00002EA2  0E                push cs
00002EA3  088502420D05      or [ebp+0x50d4202],al
00002EA9  44                inc esp
00002EAA  C50C04            lds ecx,[esp+eax]
00002EAD  0400              add al,0x0
00002EAF  001C00            add [eax+eax],bl
00002EB2  0000              add [eax],al
00002EB4  1C09              sbb al,0x9
00002EB6  0000              add [eax],al
00002EB8  F8                clc
00002EB9  EE                out dx,al
00002EBA  FF                db 0xFF
00002EBB  FF32              push dword [edx]
00002EBD  0000              add [eax],al
00002EBF  0000              add [eax],al
00002EC1  41                inc ecx
00002EC2  0E                push cs
00002EC3  088502420D05      or [ebp+0x50d4202],al
00002EC9  6E                outsb
00002ECA  C50C04            lds ecx,[esp+eax]
00002ECD  0400              add al,0x0
00002ECF  0030              add [eax],dh
00002ED1  0000              add [eax],al
00002ED3  009C0800000AEF    add [eax+ecx+0xef0a0000],bl
00002EDA  FF                db 0xFF
00002EDB  FFF7              push edi
00002EDD  0100              add [eax],eax
00002EDF  00045DB1040841    add [ebx*2+0x410804b1],al
00002EE6  0E                push cs
00002EE7  088502420D05      or [ebp+0x50d4202],al
00002EED  46                inc esi
00002EEE  8703              xchg eax,[ebx]
00002EF0  860483            xchg al,[ebx+eax*4]
00002EF3  0503EA01C3        add eax,0xc301ea03
00002EF8  41                inc ecx
00002EF9  C641C741          mov byte [ecx-0x39],0x41
00002EFD  C50C04            lds ecx,[esp+eax]
00002F00  0400              add al,0x0
00002F02  0000              add [eax],al
00002F04  2000              and [eax],al
00002F06  0000              add [eax],al
00002F08  7009              jo 0x2f13
00002F0A  0000              add [eax],al
00002F0C  CDF0              int 0xf0
00002F0E  FF                db 0xFF
00002F0F  FF31              push dword [ecx]
00002F11  0000              add [eax],al
00002F13  0000              add [eax],al
00002F15  41                inc ecx
00002F16  0E                push cs
00002F17  088502420D05      or [ebp+0x50d4202],al
00002F1D  44                inc esp
00002F1E  830368            add dword [ebx],byte +0x68
00002F21  C3                ret
00002F22  41                inc ecx
00002F23  C50C04            lds ecx,[esp+eax]
00002F26  0400              add al,0x0
00002F28  1C00              sbb al,0x0
00002F2A  0000              add [eax],al
00002F2C  94                xchg eax,esp
00002F2D  0900              or [eax],eax
00002F2F  00DA              add dl,bl
00002F31  F0                db 0xF0
00002F32  FF                db 0xFF
00002F33  FF12              call near [edx]
00002F35  0000              add [eax],al
00002F37  0000              add [eax],al
00002F39  41                inc ecx
00002F3A  0E                push cs
00002F3B  088502420D05      or [ebp+0x50d4202],al
00002F41  4C                dec esp
00002F42  C50C04            lds ecx,[esp+eax]
00002F45  0400              add al,0x0
00002F47  001C00            add [eax+eax],bl
00002F4A  0000              add [eax],al
00002F4C  B409              mov ah,0x9
00002F4E  0000              add [eax],al
00002F50  CC                int3
00002F51  F0                db 0xF0
00002F52  FF                db 0xFF
00002F53  FF13              call near [ebx]
00002F55  0000              add [eax],al
00002F57  0000              add [eax],al
00002F59  41                inc ecx
00002F5A  0E                push cs
00002F5B  088502420D05      or [ebp+0x50d4202],al
00002F61  4F                dec edi
00002F62  C50C04            lds ecx,[esp+eax]
00002F65  0400              add al,0x0
00002F67  001C00            add [eax+eax],bl
00002F6A  0000              add [eax],al
00002F6C  D409              aam 0x9
00002F6E  0000              add [eax],al
00002F70  BFF0FFFF25        mov edi,0x25fffff0
00002F75  0000              add [eax],al
00002F77  0000              add [eax],al
00002F79  41                inc ecx
00002F7A  0E                push cs
00002F7B  088502420D05      or [ebp+0x50d4202],al
00002F81  61                popa
00002F82  C50C04            lds ecx,[esp+eax]
00002F85  0400              add al,0x0
00002F87  0030              add [eax],dh
00002F89  0000              add [eax],al
00002F8B  00540900          add [ecx+ecx+0x0],dl
00002F8F  00C4              add ah,al
00002F91  F0                db 0xF0
00002F92  FF                db 0xFF
00002F93  FF3401            push dword [ecx+eax]
00002F96  0000              add [eax],al
00002F98  0472              add al,0x72
00002F9A  B104              mov cl,0x4
00002F9C  08410E            or [ecx+0xe],al
00002F9F  088502420D05      or [ebp+0x50d4202],al
00002FA5  46                inc esi
00002FA6  8703              xchg eax,[ebx]
00002FA8  860483            xchg al,[ebx+eax*4]
00002FAB  05032701C3        add eax,0xc3012703
00002FB0  41                inc ecx
00002FB1  C641C741          mov byte [ecx-0x39],0x41
00002FB5  C50C04            lds ecx,[esp+eax]
00002FB8  0400              add al,0x0
00002FBA  0000              add [eax],al
00002FBC  1C00              sbb al,0x0
00002FBE  0000              add [eax],al
00002FC0  280A              sub [edx],cl
00002FC2  0000              add [eax],al
00002FC4  C4                db 0xC4
00002FC5  F1                int1
00002FC6  FF                db 0xFF
00002FC7  FF4600            inc dword [esi+0x0]
00002FCA  0000              add [eax],al
00002FCC  00410E            add [ecx+0xe],al
00002FCF  088502420D05      or [ebp+0x50d4202],al
00002FD5  0242C5            add al,[edx-0x3b]
00002FD8  0C04              or al,0x4
00002FDA  0400              add al,0x0
00002FDC  1C00              sbb al,0x0
00002FDE  0000              add [eax],al
00002FE0  48                dec eax
00002FE1  0A00              or al,[eax]
00002FE3  00EA              add dl,ch
00002FE5  F1                int1
00002FE6  FF                db 0xFF
00002FE7  FF1500000000      call near [0x0]
00002FED  41                inc ecx
00002FEE  0E                push cs
00002FEF  088502420D05      or [ebp+0x50d4202],al
00002FF5  51                push ecx
00002FF6  C50C04            lds ecx,[esp+eax]
00002FF9  0400              add al,0x0
00002FFB  001C00            add [eax+eax],bl
00002FFE  0000              add [eax],al
00003000  680A0000DF        push dword 0xdf00000a
00003005  F1                int1
00003006  FF                db 0xFF
00003007  FF6600            jmp near [esi+0x0]
0000300A  0000              add [eax],al
0000300C  00410E            add [ecx+0xe],al
0000300F  088502420D05      or [ebp+0x50d4202],al
00003015  0262C5            add ah,[edx-0x3b]
00003018  0C04              or al,0x4
0000301A  0400              add al,0x0
0000301C  1C00              sbb al,0x0
0000301E  0000              add [eax],al
00003020  880A              mov [edx],cl
00003022  0000              add [eax],al
00003024  47                inc edi
00003025  DCFF              fdiv to st7
00003027  FF                db 0xFF
00003028  3F                aas
00003029  0000              add [eax],al
0000302B  0000              add [eax],al
0000302D  41                inc ecx
0000302E  0E                push cs
0000302F  088502420D05      or [ebp+0x50d4202],al
00003035  7BC5              jpo 0x2ffc
00003037  0C04              or al,0x4
00003039  0400              add al,0x0
0000303B  001C00            add [eax+eax],bl
0000303E  0000              add [eax],al
00003040  A80A              test al,0xa
00003042  0000              add [eax],al
00003044  66DCFF            o16 fdiv to st7
00003047  FF1C00            call far [eax+eax]
0000304A  0000              add [eax],al
0000304C  00410E            add [ecx+0xe],al
0000304F  088502420D05      or [ebp+0x50d4202],al
00003055  58                pop eax
00003056  C50C04            lds ecx,[esp+eax]
00003059  0400              add al,0x0
0000305B  0000              add [eax],al
0000305D  0000              add [eax],al
0000305F  00FF              add bh,bh
00003061  FF01              inc dword [ecx]
00003063  262005FC04003F    and [es:0x3f0004fc],al
0000306A  05FA040055        add eax,0x550004fa
0000306F  05D8040075        add eax,0x750004d8
00003074  05D40400D7        add eax,0xd70004d4
00003079  01D2              add edx,edx
0000307B  02E9              add ch,cl
0000307D  0400              add al,0x0
0000307F  AF                scasd
00003080  0405              add al,0x5
00003082  FA                cli
00003083  0400              add al,0x0
00003085  FF04050000FFFF    inc dword [eax+0xffff0000]
0000308C  010C1B            add [ebx+ebx],ecx
0000308F  0500003405        add eax,0x5340000
00003094  3B00              cmp eax,[eax]
00003096  4D                dec ebp
00003097  050000FFFF        add eax,0xffff0000
0000309C  010C28            add [eax+ebp],ecx
0000309F  053A003305        add eax,0x533003a
000030A4  0000              add [eax],al
000030A6  4C                dec esp
000030A7  050000FFFF        add eax,0xffff0000
000030AC  0108              add [eax],ecx
000030AE  26052D003F05      es add eax,0x53f002d
000030B4  0000              add [eax],al
000030B6  FF                db 0xFF
000030B7  FF01              inc dword [ecx]
000030B9  085205            or [edx+0x5],dl
000030BC  64007605          add [fs:esi+0x5],dh
000030C0  0000              add [eax],al
000030C2  FF                db 0xFF
000030C3  FF01              inc dword [ecx]
000030C5  0A29              or ch,[ecx]
000030C7  4D                dec ebp
000030C8  9E                sahf
000030C9  0100              add [eax],eax
000030CB  A101050000        mov eax,[0x501]
000030D0  FF                db 0xFF
000030D1  FF01              inc dword [ecx]
000030D3  105A05            adc [edx+0x5],bl
000030D6  B801009601        mov eax,0x1960001
000030DB  05C00100B1        add eax,0xb10001c0
000030E0  0117              add [edi],edx
000030E2  0000              add [eax],al
000030E4  FF                db 0xFF
000030E5  FF01              inc dword [ecx]
000030E7  107F05            adc [edi+0x5],bh
000030EA  DD01              fld qword [ecx]
000030EC  00D3              add bl,dl
000030EE  0105DF0100E2      add [0xe20001df],eax
000030F4  01050000FFFF      add [0xffff0000],eax
000030FA  0116              add [esi],edx
000030FC  6C                insb
000030FD  02B10200D001      add dh,[ecx+0x1d00002]
00003103  05AF020083        add eax,0x830002af
00003108  0205B10200B4      add al,[0xb40002b1]
0000310E  02050000FFFF      add al,[0xffff0000]
00003114  0108              add [eax],ecx
00003116  1B0543004605      sbb eax,[0x5460043]
0000311C  0000              add [eax],al
0000311E  FF                db 0xFF
0000311F  FF01              inc dword [ecx]
00003121  0E                push cs
00003122  1B0500004A26      sbb eax,[0x264a0000]
00003128  93                xchg eax,ebx
00003129  0100              add [eax],eax
0000312B  96                xchg eax,esi
0000312C  01050000FFFF      add [0xffff0000],eax
00003132  010B              add [ebx],ecx
00003134  8701              xchg eax,[ecx]
00003136  02AB0100AE01      add ch,[ebx+0x1ae0001]
0000313C  050000FFFF        add eax,0xffff0000
00003141  010B              add [ebx],ecx
00003143  B601              mov dh,0x1
00003145  05CB0100CE        add eax,0xce0001cb
0000314A  01050000FFFF      add [0xffff0000],eax
00003150  010B              add [ebx],ecx
00003152  8B01              mov eax,[ecx]
00003154  0592010095        add eax,0x95000192
00003159  01050000FFFF      add [0xffff0000],eax
0000315F  0111              add [ecx],edx
00003161  8401              test [ecx],al
00003163  02E5              add ah,ch
00003165  0300              add eax,[eax]
00003167  DE03              fiadd word [ebx]
00003169  05E70300EA        add eax,0xea0003e7
0000316E  03050000FFFF      add eax,[0xffff0000]
00003174  010B              add [ebx],ecx
00003176  D101              rol dword [ecx],1
00003178  02A10200A702      add ah,[ecx+0x2a70002]
0000317E  0500000000        add eax,0x0
00003183  00FF              add bh,bh
00003185  FF                db 0xFF
00003186  FF                db 0xFF
00003187  FFAA8C040800      jmp far [edx+0x8048c]
0000318D  0000              add [eax],al
0000318F  00FF              add bh,bh
00003191  FF                db 0xFF
00003192  FF                db 0xFF
00003193  FF00              inc dword [eax]
00003195  0000              add [eax],al
00003197  0000              add [eax],al
00003199  0000              add [eax],al
0000319B  0001              add [ecx],al
0000319D  0000              add [eax],al
0000319F  0001              add [ecx],al
000031A1  0000              add [eax],al
000031A3  0001              add [ecx],al
000031A5  0000              add [eax],al
000031A7  008001000001      add [eax+0x1000001],al
000031AD  0000              add [eax],al
000031AF  008A01000001      add [edx+0x1000001],cl
000031B5  0000              add [eax],al
000031B7  00A70100000C      add [edi+0xc000001],ah
000031BD  0000              add [eax],al
000031BF  00BC8604080D00    add [esi+eax*4+0xd0804],bh
000031C6  0000              add [eax],al
000031C8  E8A2040804        call 0x408366f
000031CD  0000              add [eax],al
000031CF  006881            add [eax-0x7f],ch
000031D2  0408              add al,0x8
000031D4  050000006C        add eax,0x6c000000
000031D9  83040806          add dword [eax+ecx],byte +0x6
000031DD  0000              add [eax],al
000031DF  000C82            add [edx+eax*4],cl
000031E2  0408              add al,0x8
000031E4  0A00              or al,[eax]
000031E6  0000              add [eax],al
000031E8  1402              adc al,0x2
000031EA  0000              add [eax],al
000031EC  0B00              or eax,[eax]
000031EE  0000              add [eax],al
000031F0  1000              adc [eax],al
000031F2  0000              add [eax],al
000031F4  1500000000        adc eax,0x0
000031F9  0000              add [eax],al
000031FB  0003              add [ebx],al
000031FD  0000              add [eax],al
000031FF  0080C2040802      add [eax+0x20804c2],al
00003205  0000              add [eax],al
00003207  007800            add [eax+0x0],bh
0000320A  0000              add [eax],al
0000320C  1400              adc al,0x0
0000320E  0000              add [eax],al
00003210  1100              adc [eax],eax
00003212  0000              add [eax],al
00003214  17                pop ss
00003215  0000              add [eax],al
00003217  00448604          add [esi+eax*4+0x4],al
0000321B  0811              or [ecx],dl
0000321D  0000              add [eax],al
0000321F  002C86            add [esi+eax*4],ch
00003222  0408              add al,0x8
00003224  1200              adc al,[eax]
00003226  0000              add [eax],al
00003228  1800              sbb [eax],al
0000322A  0000              add [eax],al
0000322C  1300              adc eax,[eax]
0000322E  0000              add [eax],al
00003230  0800              or [eax],al
00003232  0000              add [eax],al
00003234  FE                db 0xFE
00003235  FF                db 0xFF
00003236  FF6FAC            jmp far [edi-0x54]
00003239  850408            test [eax+ecx],eax
0000323C  FF                db 0xFF
0000323D  FF                db 0xFF
0000323E  FF6F03            jmp far [edi+0x3]
00003241  0000              add [eax],al
00003243  00F0              add al,dh
00003245  FF                db 0xFF
00003246  FF6F80            jmp far [edi-0x80]
00003249  850408            test [eax+ecx],eax
0000324C  0000              add [eax],al
0000324E  0000              add [eax],al
00003250  0000              add [eax],al
00003252  0000              add [eax],al
00003254  0000              add [eax],al
00003256  0000              add [eax],al
00003258  0000              add [eax],al
0000325A  0000              add [eax],al
0000325C  0000              add [eax],al
0000325E  0000              add [eax],al
00003260  0000              add [eax],al
00003262  0000              add [eax],al
00003264  0000              add [eax],al
00003266  0000              add [eax],al
00003268  0000              add [eax],al
0000326A  0000              add [eax],al
0000326C  0000              add [eax],al
0000326E  0000              add [eax],al
00003270  0000              add [eax],al
00003272  0000              add [eax],al
00003274  0000              add [eax],al
00003276  0000              add [eax],al
00003278  0000              add [eax],al
0000327A  0000              add [eax],al
0000327C  0000              add [eax],al
0000327E  0000              add [eax],al
00003280  9C                pushf
00003281  C1040800          rol dword [eax+ecx],0x0
00003285  0000              add [eax],al
00003287  0000              add [eax],al
00003289  0000              add [eax],al
0000328B  0006              add [esi],al
0000328D  870408            xchg eax,[eax+ecx]
00003290  16                push ss
00003291  870408            xchg eax,[eax+ecx]
00003294  26870408          xchg eax,[es:eax+ecx]
00003298  36870408          xchg eax,[ss:eax+ecx]
0000329C  46                inc esi
0000329D  870408            xchg eax,[eax+ecx]
000032A0  56                push esi
000032A1  870408            xchg eax,[eax+ecx]
000032A4  66870408          xchg ax,[eax+ecx]
000032A8  7687              jna 0x3231
000032AA  0408              add al,0x8
000032AC  868704089687      xchg al,[edi+0x87960804]
000032B2  0408              add al,0x8
000032B4  A6                cmpsb
000032B5  870408            xchg eax,[eax+ecx]
000032B8  B687              mov dh,0x87
000032BA  0408              add al,0x8
000032BC  C6870408D68704    mov byte [edi+0x87d60804],0x4
000032C3  08E6              or dh,ah
000032C5  870408            xchg eax,[eax+ecx]
000032C8  0000              add [eax],al
000032CA  0000              add [eax],al
000032CC  0000              add [eax],al
000032CE  0000              add [eax],al
000032D0  47                inc edi
000032D1  43                inc ebx
000032D2  43                inc ebx
000032D3  3A20              cmp ah,[eax]
000032D5  285562            sub [ebp+0x62],dl
000032D8  756E              jnz 0x3348
000032DA  7475              jz 0x3351
000032DC  20342E            and [esi+ebp],dh
000032DF  342E              xor al,0x2e
000032E1  332D34756275      xor ebp,[0x75627534]
000032E7  6E                outsb
000032E8  7475              jz 0x335f
000032EA  352920342E        xor eax,0x2e342029
000032EF  342E              xor al,0x2e
000032F1  3300              xor eax,[eax]
000032F3  47                inc edi
000032F4  43                inc ebx
000032F5  43                inc ebx
000032F6  3A20              cmp ah,[eax]
000032F8  28474E            sub [edi+0x4e],al
000032FB  55                push ebp
000032FC  2920              sub [eax],esp
000032FE  342E              xor al,0x2e
00003300  382E              cmp [esi],ch
00003302  3100              xor [eax],eax
00003304  0000              add [eax],al
00003306  0000              add [eax],al
00003308  1C00              sbb al,0x0
0000330A  0000              add [eax],al
0000330C  0200              add al,[eax]
0000330E  0000              add [eax],al
00003310  0000              add [eax],al
00003312  0400              add al,0x0
00003314  0000              add [eax],al
00003316  0000              add [eax],al
00003318  F0870408          lock xchg eax,[eax+ecx]
0000331C  2200              and al,[eax]
0000331E  0000              add [eax],al
00003320  0000              add [eax],al
00003322  0000              add [eax],al
00003324  0000              add [eax],al
00003326  0000              add [eax],al
00003328  1C00              sbb al,0x0
0000332A  0000              add [eax],al
0000332C  0200              add al,[eax]
0000332E  0E                push cs
0000332F  0100              add [eax],eax
00003331  000400            add [eax+eax],al
00003334  0000              add [eax],al
00003336  0000              add [eax],al
00003338  50                push eax
00003339  A204086A00        mov [0x6a0804],al
0000333E  0000              add [eax],al
00003340  0000              add [eax],al
00003342  0000              add [eax],al
00003344  0000              add [eax],al
00003346  0000              add [eax],al
00003348  2100              and [eax],eax
0000334A  0000              add [eax],al
0000334C  0200              add al,[eax]
0000334E  810000008D00      add dword [eax],0x8d0000
00003354  0000              add [eax],al
00003356  7500              jnz 0x3358
00003358  0000              add [eax],al
0000335A  5F                pop edi
0000335B  49                dec ecx
0000335C  4F                dec edi
0000335D  5F                pop edi
0000335E  7374              jnc 0x33d4
00003360  64696E5F75736564  imul ebp,[fs:esi+0x5f],dword 0x64657375
00003368  0000              add [eax],al
0000336A  0000              add [eax],al
0000336C  0036              add [esi],dh
0000336E  0000              add [eax],al
00003370  0002              add [edx],al
00003372  000E              add [esi],cl
00003374  0100              add [eax],eax
00003376  0013              add [ebx],dl
00003378  0100              add [eax],eax
0000337A  003E              add [esi],bh
0000337C  0000              add [eax],al
0000337E  005F5F            add [edi+0x5f],bl
00003381  6C                insb
00003382  6962635F637375    imul esp,[edx+0x63],dword 0x7573635f
00003389  5F                pop edi
0000338A  66696E690053      imul bp,[esi+0x69],word 0x5300
00003390  0000              add [eax],al
00003392  005F5F            add [edi+0x5f],bl
00003395  6C                insb
00003396  6962635F637375    imul esp,[edx+0x63],dword 0x7573635f
0000339D  5F                pop edi
0000339E  696E6974000000    imul ebp,[esi+0x69],dword 0x74
000033A5  0000              add [eax],al
000033A7  7D00              jnl 0x33a9
000033A9  0000              add [eax],al
000033AB  0200              add al,[eax]
000033AD  0000              add [eax],al
000033AF  0000              add [eax],al
000033B1  0401              add al,0x1
000033B3  0000              add [eax],al
000033B5  0000              add [eax],al
000033B7  F0870408          lock xchg eax,[eax+ecx]
000033BB  128804082E2E      adc cl,[eax+0x2e2e0804]
000033C1  2F                das
000033C2  7379              jnc 0x343d
000033C4  7364              jnc 0x342a
000033C6  657073            gs jo 0x343c
000033C9  2F                das
000033CA  693338362F65      imul esi,[ebx],dword 0x652f3638
000033D0  6C                insb
000033D1  662F              o16 das
000033D3  7374              jnc 0x3449
000033D5  61                popa
000033D6  7274              jc 0x344c
000033D8  2E53              cs push ebx
000033DA  002F              add [edi],ch
000033DC  686F6D652F        push dword 0x2f656d6f
000033E1  7069              jo 0x344c
000033E3  657272            gs jc 0x3458
000033E6  652F              gs das
000033E8  42                inc edx
000033E9  7572              jnz 0x345d
000033EB  6561              gs popa
000033ED  752F              jnz 0x341e
000033EF  6865616465        push dword 0x65646165
000033F4  7273              jc 0x3469
000033F6  2D676C6962        sub eax,0x62696c67
000033FB  632D666F722D      arpl [0x2d726f66],bp
00003401  6C                insb
00003402  696E75782F676C    imul ebp,[esi+0x75],dword 0x6c672f78
00003409  6962632D322E31    imul esp,[edx+0x63],dword 0x312e322d
00003410  322E              xor ch,[esi]
00003412  322F              xor ch,[edi]
00003414  637375            arpl [ebx+0x75],si
00003417  00474E            add [edi+0x4e],al
0000341A  55                push ebp
0000341B  204153            and [ecx+0x53],al
0000341E  2032              and [edx],dh
00003420  2E3230            xor dh,[cs:eax]
00003423  2E3100            xor [cs:eax],eax
00003426  018089000000      add [eax+0x89],eax
0000342C  0200              add al,[eax]
0000342E  1400              adc al,0x0
00003430  0000              add [eax],al
00003432  0401              add al,0x1
00003434  8E00              mov es,[eax]
00003436  0000              add [eax],al
00003438  01CD              add ebp,ecx
0000343A  0000              add [eax],al
0000343C  004300            add [ebx+0x0],al
0000343F  0000              add [eax],al
00003441  1488              adc al,0x88
00003443  0408              add al,0x8
00003445  1488              adc al,0x88
00003447  0408              add al,0x8
00003449  5B                pop ebx
0000344A  0000              add [eax],al
0000344C  0002              add [edx],al
0000344E  0108              add [eax],ecx
00003450  800000            add byte [eax],0x0
00003453  0002              add [edx],al
00003455  0207              add al,[edi]
00003457  0000              add [eax],al
00003459  0000              add [eax],al
0000345B  020407            add al,[edi+eax]
0000345E  360000            add [ss:eax],al
00003461  0002              add [edx],al
00003463  0407              add al,0x7
00003465  3100              xor [eax],eax
00003467  0000              add [eax],al
00003469  0201              add al,[ecx]
0000346B  06                push es
0000346C  82                db 0x82
0000346D  0000              add [eax],al
0000346F  0002              add [edx],al
00003471  020513000000      add al,[0x13]
00003477  030405696E7400    add eax,[eax+0x746e69]
0000347E  0208              add cl,[eax]
00003480  059A000000        add eax,0x9a
00003485  0208              add cl,[eax]
00003487  07                pop es
00003488  2C00              sub al,0x0
0000348A  0000              add [eax],al
0000348C  0204059F000000    add al,[eax+0x9f]
00003493  0404              add al,0x4
00003495  07                pop es
00003496  0201              add al,[ecx]
00003498  06                push es
00003499  8900              mov [eax],eax
0000349B  0000              add [eax],al
0000349D  051D000000        add eax,0x1d
000034A2  0119              add [ecx],ebx
000034A4  8700              xchg eax,[eax]
000034A6  0000              add [eax],al
000034A8  01050308A304      add [0x4a30803],eax
000034AE  0806              or [esi],al
000034B0  4F                dec edi
000034B1  0000              add [eax],al
000034B3  0000              add [eax],al
000034B5  0F0100            sgdt [eax]
000034B8  0002              add [edx],al
000034BA  005F00            add [edi+0x0],bl
000034BD  0000              add [eax],al
000034BF  0401              add al,0x1
000034C1  8E00              mov es,[eax]
000034C3  0000              add [eax],al
000034C5  01C9              add ecx,ecx
000034C7  0000              add [eax],al
000034C9  004300            add [ebx+0x0],al
000034CC  0000              add [eax],al
000034CE  50                push eax
000034CF  A20408BAA2        mov [0xa2ba0804],al
000034D4  0408              add al,0x8
000034D6  82                db 0x82
000034D7  0000              add [eax],al
000034D9  0002              add [edx],al
000034DB  0405              add al,0x5
000034DD  696E740003AD00    imul ebp,[esi+0x74],dword 0xad0300
000034E4  0000              add [eax],al
000034E6  02D3              add dl,bl
000034E8  37                aaa
000034E9  0000              add [eax],al
000034EB  000404            add [esp+eax],al
000034EE  07                pop es
000034EF  360000            add [ss:eax],al
000034F2  000501FD0000      add [0xfd01],al
000034F8  0001              add [ecx],al
000034FA  830150            add dword [ecx],byte +0x50
000034FD  A2040855A2        mov [0xa2550804],al
00003502  0408              add al,0x8
00003504  0000              add [eax],al
00003506  0000              add [eax],al
00003508  06                push es
00003509  01B900000001      add [ecx+0x1000000],edi
0000350F  690160A20408      imul eax,[ecx],dword 0x804a260
00003515  BAA204082C        mov edx,0x2c0804a2
0000351A  0000              add [eax],al
0000351C  00B900000007      add [ecx+0x7000000],bh
00003522  B400              mov ah,0x0
00003524  0000              add [eax],al
00003526  016925            add [ecx+0x25],ebp
00003529  0000              add [eax],al
0000352B  0002              add [edx],al
0000352D  91                xchg eax,ecx
0000352E  0007              add [edi],al
00003530  0D01000001        or eax,0x1000001
00003535  69B9000000029104  imul edi,[ecx+0x2000000],dword 0xa8070491
         -07A8
0000353F  0000              add [eax],al
00003541  0001              add [ecx],al
00003543  69B9000000029108  imul edi,[ecx+0x2000000],dword 0xe7080891
         -08E7
0000354D  0000              add [eax],al
0000354F  0001              add [ecx],al
00003551  7ACC              jpe 0x351f
00003553  0000              add [eax],al
00003555  0009              add [ecx],cl
00003557  79A2              jns 0x34fb
00003559  0408              add al,0x8
0000355B  B2A2              mov dl,0xa2
0000355D  0408              add al,0x8
0000355F  0A6900            or ch,[ecx+0x0]
00003562  017B2C            add [ebx+0x2c],edi
00003565  0000              add [eax],al
00003567  005800            add [eax+0x0],bl
0000356A  0000              add [eax],al
0000356C  0000              add [eax],al
0000356E  0B04BF            or eax,[edi+edi*4]
00003571  0000              add [eax],al
00003573  000B              add [ebx],cl
00003575  04C5              add al,0xc5
00003577  0000              add [eax],al
00003579  000401            add [ecx+eax],al
0000357C  06                push es
0000357D  8900              mov [eax],eax
0000357F  0000              add [eax],al
00003581  0C2C              or al,0x2c
00003583  0000              add [eax],al
00003585  000DF2000000      add [0xf2],cl
0000358B  DC00              fadd qword [eax]
0000358D  0000              add [eax],al
0000358F  0E                push cs
00003590  000F              add [edi],cl
00003592  01F2              add edx,esi
00003594  0000              add [eax],al
00003596  0010              add [eax],dl
00003598  2500000010        and eax,0x10000000
0000359D  B900000010        mov ecx,0x10000000
000035A2  B900000000        mov ecx,0x0
000035A7  0B04DC            or eax,[esp+ebx*8]
000035AA  0000              add [eax],al
000035AC  0011              add [ecx],dl
000035AE  D400              aam 0x0
000035B0  0000              add [eax],al
000035B2  013B              add [ebx],edi
000035B4  D100              rol dword [eax],1
000035B6  0000              add [eax],al
000035B8  0101              add [ecx],eax
000035BA  11EC              adc esp,ebp
000035BC  0000              add [eax],al
000035BE  0001              add [ecx],al
000035C0  3DD1000000        cmp eax,0xd1
000035C5  0101              add [ecx],eax
000035C7  0001              add [ecx],al
000035C9  1100              adc [eax],eax
000035CB  1006              adc [esi],al
000035CD  1101              adc [ecx],eax
000035CF  1201              adc al,[ecx]
000035D1  0308              add ecx,[eax]
000035D3  1B08              sbb ecx,[eax]
000035D5  2508130500        and eax,0x51308
000035DA  0000              add [eax],al
000035DC  0111              add [ecx],edx
000035DE  01250E130B03      add [0x30b130e],esp
000035E4  0E                push cs
000035E5  1B0E              sbb ecx,[esi]
000035E7  1101              adc [ecx],eax
000035E9  1201              adc al,[ecx]
000035EB  1006              adc [esi],al
000035ED  0000              add [eax],al
000035EF  022400            add ah,[eax+eax]
000035F2  0B0B              or ecx,[ebx]
000035F4  3E0B03            or eax,[ds:ebx]
000035F7  0E                push cs
000035F8  0000              add [eax],al
000035FA  032400            add esp,[eax+eax]
000035FD  0B0B              or ecx,[ebx]
000035FF  3E0B03            or eax,[ds:ebx]
00003602  0800              or [eax],al
00003604  000424            add [esp],al
00003607  000B              add [ebx],cl
00003609  0B3E              or edi,[esi]
0000360B  0B00              or eax,[eax]
0000360D  00053400030E      add [0xe030034],al
00003613  3A0B              cmp cl,[ebx]
00003615  3B0B              cmp ecx,[ebx]
00003617  49                dec ecx
00003618  133F              adc edi,[edi]
0000361A  0C02              or al,0x2
0000361C  0A00              or al,[eax]
0000361E  0006              add [esi],al
00003620  26004913          add [es:ecx+0x13],cl
00003624  0000              add [eax],al
00003626  0001              add [ecx],al
00003628  1101              adc [ecx],eax
0000362A  250E130B03        and eax,0x30b130e
0000362F  0E                push cs
00003630  1B0E              sbb ecx,[esi]
00003632  1101              adc [ecx],eax
00003634  1201              adc al,[ecx]
00003636  1006              adc [esi],al
00003638  0000              add [eax],al
0000363A  022400            add ah,[eax+eax]
0000363D  0B0B              or ecx,[ebx]
0000363F  3E0B03            or eax,[ds:ebx]
00003642  0800              or [eax],al
00003644  0003              add [ebx],al
00003646  16                push ss
00003647  0003              add [ebx],al
00003649  0E                push cs
0000364A  3A0B              cmp cl,[ebx]
0000364C  3B0B              cmp ecx,[ebx]
0000364E  49                dec ecx
0000364F  1300              adc eax,[eax]
00003651  000424            add [esp],al
00003654  000B              add [ebx],cl
00003656  0B3E              or edi,[esi]
00003658  0B03              or eax,[ebx]
0000365A  0E                push cs
0000365B  0000              add [eax],al
0000365D  052E003F0C        add eax,0xc3f002e
00003662  030E              add ecx,[esi]
00003664  3A0B              cmp cl,[ebx]
00003666  3B0B              cmp ecx,[ebx]
00003668  27                daa
00003669  0C11              or al,0x11
0000366B  0112              add [edx],edx
0000366D  014006            add [eax+0x6],eax
00003670  0000              add [eax],al
00003672  06                push es
00003673  2E013F            add [cs:edi],edi
00003676  0C03              or al,0x3
00003678  0E                push cs
00003679  3A0B              cmp cl,[ebx]
0000367B  3B0B              cmp ecx,[ebx]
0000367D  27                daa
0000367E  0C11              or al,0x11
00003680  0112              add [edx],edx
00003682  014006            add [eax+0x6],eax
00003685  0113              add [ebx],edx
00003687  0000              add [eax],al
00003689  07                pop es
0000368A  0500030E3A        add eax,0x3a0e0300
0000368F  0B3B              or edi,[ebx]
00003691  0B4913            or ecx,[ecx+0x13]
00003694  020A              add cl,[edx]
00003696  0000              add [eax],al
00003698  083400            or [eax+eax],dh
0000369B  030E              add ecx,[esi]
0000369D  3A0B              cmp cl,[ebx]
0000369F  3B0B              cmp ecx,[ebx]
000036A1  49                dec ecx
000036A2  1300              adc eax,[eax]
000036A4  0009              add [ecx],cl
000036A6  0B01              or eax,[ecx]
000036A8  1101              adc [ecx],eax
000036AA  1201              adc al,[ecx]
000036AC  0000              add [eax],al
000036AE  0A3400            or dh,[eax+eax]
000036B1  0308              add ecx,[eax]
000036B3  3A0B              cmp cl,[ebx]
000036B5  3B0B              cmp ecx,[ebx]
000036B7  49                dec ecx
000036B8  1302              adc eax,[edx]
000036BA  06                push es
000036BB  0000              add [eax],al
000036BD  0B0F              or ecx,[edi]
000036BF  000B              add [ebx],cl
000036C1  0B4913            or ecx,[ecx+0x13]
000036C4  0000              add [eax],al
000036C6  0C26              or al,0x26
000036C8  004913            add [ecx+0x13],cl
000036CB  0000              add [eax],al
000036CD  0D01014913        or eax,0x13490101
000036D2  0113              add [ebx],edx
000036D4  0000              add [eax],al
000036D6  0E                push cs
000036D7  2100              and [eax],eax
000036D9  0000              add [eax],al
000036DB  0F1501            unpckhps xmm0,[ecx]
000036DE  27                daa
000036DF  0C01              or al,0x1
000036E1  1300              adc eax,[eax]
000036E3  0010              add [eax],dl
000036E5  0500491300        add eax,0x134900
000036EA  0011              add [ecx],dl
000036EC  3400              xor al,0x0
000036EE  030E              add ecx,[esi]
000036F0  3A0B              cmp cl,[ebx]
000036F2  3B0B              cmp ecx,[ebx]
000036F4  49                dec ecx
000036F5  133F              adc edi,[edi]
000036F7  0C3C              or al,0x3c
000036F9  0C00              or al,0x0
000036FB  0000              add [eax],al
000036FD  57                push edi
000036FE  0000              add [eax],al
00003700  0002              add [edx],al
00003702  0032              add [edx],dh
00003704  0000              add [eax],al
00003706  0001              add [ecx],al
00003708  01FB              add ebx,edi
0000370A  0E                push cs
0000370B  0D00010101        or eax,0x1010100
00003710  0100              add [eax],eax
00003712  0000              add [eax],al
00003714  0100              add [eax],eax
00003716  0001              add [ecx],al
00003718  2E2E2F            cs das
0000371B  7379              jnc 0x3796
0000371D  7364              jnc 0x3783
0000371F  657073            gs jo 0x3795
00003722  2F                das
00003723  693338362F65      imul esi,[ebx],dword 0x652f3638
00003729  6C                insb
0000372A  660000            o16 add [eax],al
0000372D  7374              jnc 0x37a3
0000372F  61                popa
00003730  7274              jc 0x37a6
00003732  2E53              cs push ebx
00003734  0001              add [ecx],al
00003736  0000              add [eax],al
00003738  0000              add [eax],al
0000373A  0502F08704        add eax,0x487f002
0000373F  0803              or [ebx],al
00003741  C00001            rol byte [eax],0x1
00003744  3321              xor esp,[ecx]
00003746  343D              xor al,0x3d
00003748  2522031820        and eax,0x20180322
0000374D  59                pop ecx
0000374E  5A                pop edx
0000374F  2122              and [edx],esp
00003751  5C                pop esp
00003752  5B                pop ebx
00003753  0201              add al,[ecx]
00003755  0001              add [ecx],al
00003757  0123              add [ebx],esp
00003759  0000              add [eax],al
0000375B  0002              add [edx],al
0000375D  001D00000001      add [0x1000000],bl
00003763  01FB              add ebx,edi
00003765  0E                push cs
00003766  0D00010101        or eax,0x1010100
0000376B  0100              add [eax],eax
0000376D  0000              add [eax],al
0000376F  0100              add [eax],eax
00003771  0001              add [ecx],al
00003773  00696E            add [ecx+0x6e],ch
00003776  69742E6300000000  imul esi,[esi+ebp+0x63],dword 0x0
0000377E  007B00            add [ebx+0x0],bh
00003781  0000              add [eax],al
00003783  0200              add al,[eax]
00003785  57                push edi
00003786  0000              add [eax],al
00003788  0001              add [ecx],al
0000378A  01FB              add ebx,edi
0000378C  0E                push cs
0000378D  0D00010101        or eax,0x1010100
00003792  0100              add [eax],eax
00003794  0000              add [eax],al
00003796  0100              add [eax],eax
00003798  0001              add [ecx],al
0000379A  2F                das
0000379B  7573              jnz 0x3810
0000379D  722F              jc 0x37ce
0000379F  6C                insb
000037A0  69622F6763632F    imul esp,[edx+0x2f],dword 0x2f636367
000037A7  693438362D6C69    imul esi,[eax+edi],dword 0x696c2d36
000037AE  6E                outsb
000037AF  7578              jnz 0x3829
000037B1  2D676E752F        sub eax,0x2f756e67
000037B6  342E              xor al,0x2e
000037B8  342E              xor al,0x2e
000037BA  332F              xor ebp,[edi]
000037BC  696E636C756465    imul ebp,[esi+0x63],dword 0x6564756c
000037C3  0000              add [eax],al
000037C5  656C              gs insb
000037C7  662D696E          sub ax,0x6e69
000037CB  69742E6300000000  imul esi,[esi+ebp+0x63],dword 0x0
000037D3  7374              jnc 0x3849
000037D5  646465662E680001  cs push word 0x100
000037DD  0000              add [eax],al
000037DF  0000              add [eax],al
000037E1  050250A204        add eax,0x4a25002
000037E6  0803              or [ebx],al
000037E8  830101            add dword [ecx],byte +0x1
000037EB  44                inc esp
000037EC  035EC8            add ebx,[esi-0x38]
000037EF  030E              add ecx,[esi]
000037F1  083C5B            or [ebx+ebx*2],bh
000037F4  086708            or [edi+0x8],ah
000037F7  9D                popf
000037F8  7602              jna 0x37fc
000037FA  0800              or [eax],al
000037FC  0101              add [ecx],eax
000037FE  0000              add [eax],al
00003800  1000              adc [eax],al
00003802  0000              add [eax],al
00003804  FF                db 0xFF
00003805  FF                db 0xFF
00003806  FF                db 0xFF
00003807  FF01              inc dword [ecx]
00003809  0001              add [ecx],al
0000380B  7C08              jl 0x3815
0000380D  0C04              or al,0x4
0000380F  0488              add al,0x88
00003811  0100              add [eax],eax
00003813  001400            add [eax+eax],dl
00003816  0000              add [eax],al
00003818  0000              add [eax],al
0000381A  0000              add [eax],al
0000381C  50                push eax
0000381D  A204080500        mov [0x50804],al
00003822  0000              add [eax],al
00003824  41                inc ecx
00003825  0E                push cs
00003826  084285            or [edx-0x7b],al
00003829  020D051C0000      add cl,[0x1c05]
0000382F  0000              add [eax],al
00003831  0000              add [eax],al
00003833  0060A2            add [eax-0x5e],ah
00003836  0408              add al,0x8
00003838  5A                pop edx
00003839  0000              add [eax],al
0000383B  00410E            add [ecx+0xe],al
0000383E  084285            or [edx-0x7b],al
00003841  020D054E8305      add cl,[0x5834e05]
00003847  860487            xchg al,[edi+eax*4]
0000384A  0300              add eax,[eax]
0000384C  7368              jnc 0x38b6
0000384E  6F                outsd
0000384F  7274              jc 0x38c5
00003851  20756E            and [ebp+0x6e],dh
00003854  7369              jnc 0x38bf
00003856  676E              a16 outsb
00003858  656420696E        and [fs:ecx+0x6e],ch
0000385D  7400              jz 0x385f
0000385F  7368              jnc 0x38c9
00003861  6F                outsd
00003862  7274              jc 0x38d8
00003864  20696E            and [ecx+0x6e],ch
00003867  7400              jz 0x3869
00003869  5F                pop edi
0000386A  49                dec ecx
0000386B  4F                dec edi
0000386C  5F                pop edi
0000386D  7374              jnc 0x38e3
0000386F  64696E5F75736564  imul ebp,[fs:esi+0x5f],dword 0x64657375
00003877  006C6F6E          add [edi+ebp*2+0x6e],ch
0000387B  67206C6F          and [si+0x6f],ch
0000387F  6E                outsb
00003880  6720756E          and [di+0x6e],dh
00003884  7369              jnc 0x38ef
00003886  676E              a16 outsb
00003888  656420696E        and [fs:ecx+0x6e],ch
0000388D  7400              jz 0x388f
0000388F  2F                das
00003890  686F6D652F        push dword 0x2f656d6f
00003895  7069              jo 0x3900
00003897  657272            gs jc 0x390c
0000389A  652F              gs das
0000389C  42                inc edx
0000389D  7572              jnz 0x3911
0000389F  6561              gs popa
000038A1  752F              jnz 0x38d2
000038A3  6865616465        push dword 0x65646165
000038A8  7273              jc 0x391d
000038AA  2D676C6962        sub eax,0x62696c67
000038AF  632D666F722D      arpl [0x2d726f66],bp
000038B5  6C                insb
000038B6  696E75782F676C    imul ebp,[esi+0x75],dword 0x6c672f78
000038BD  6962632D322E31    imul esp,[edx+0x63],dword 0x312e322d
000038C4  322E              xor ch,[esi]
000038C6  322F              xor ch,[edi]
000038C8  637375            arpl [ebx+0x75],si
000038CB  00756E            add [ebp+0x6e],dh
000038CE  7369              jnc 0x3939
000038D0  676E              a16 outsb
000038D2  6564206368        and [fs:ebx+0x68],ah
000038D7  61                popa
000038D8  7200              jc 0x38da
000038DA  47                inc edi
000038DB  4E                dec esi
000038DC  55                push ebp
000038DD  204320            and [ebx+0x20],al
000038E0  342E              xor al,0x2e
000038E2  342E              xor al,0x2e
000038E4  3300              xor eax,[eax]
000038E6  6C                insb
000038E7  6F                outsd
000038E8  6E                outsb
000038E9  67206C6F          and [si+0x6f],ch
000038ED  6E                outsb
000038EE  6720696E          and [bx+di+0x6e],ch
000038F2  7400              jz 0x38f4
000038F4  656E              gs outsb
000038F6  7670              jna 0x3968
000038F8  007369            add [ebx+0x69],dh
000038FB  7A65              jpe 0x3962
000038FD  5F                pop edi
000038FE  7400              jz 0x3900
00003900  61                popa
00003901  7267              jc 0x396a
00003903  6300              arpl [eax],ax
00003905  5F                pop edi
00003906  5F                pop edi
00003907  6C                insb
00003908  6962635F637375    imul esp,[edx+0x63],dword 0x7573635f
0000390F  5F                pop edi
00003910  696E697400656C    imul ebp,[esi+0x69],dword 0x6c650074
00003917  662D696E          sub ax,0x6e69
0000391B  69742E63005F5F69  imul esi,[esi+ebp+0x63],dword 0x695f5f00
00003923  6E                outsb
00003924  69745F6172726179  imul esi,[edi+ebx*2+0x61],dword 0x79617272
0000392C  5F                pop edi
0000392D  7374              jnc 0x39a3
0000392F  61                popa
00003930  7274              jc 0x39a6
00003932  007369            add [ebx+0x69],dh
00003935  7A65              jpe 0x399c
00003937  005F5F            add [edi+0x5f],bl
0000393A  696E69745F6172    imul ebp,[esi+0x69],dword 0x72615f74
00003941  7261              jc 0x39a4
00003943  795F              jns 0x39a4
00003945  656E              gs outsb
00003947  64005F5F          add [fs:edi+0x5f],bl
0000394B  6C                insb
0000394C  6962635F637375    imul esp,[edx+0x63],dword 0x7573635f
00003953  5F                pop edi
00003954  66696E690061      imul bp,[esi+0x69],word 0x6100
0000395A  7267              jc 0x39c3
0000395C  7600              jna 0x395e
0000395E  0000              add [eax],al
00003960  0000              add [eax],al
00003962  0100              add [eax],eax
00003964  0000              add [eax],al
00003966  0200              add al,[eax]
00003968  7404              jz 0x396e
0000396A  0100              add [eax],eax
0000396C  0000              add [eax],al
0000396E  0300              add eax,[eax]
00003970  0000              add [eax],al
00003972  0200              add al,[eax]
00003974  7408              jz 0x397e
00003976  0300              add eax,[eax]
00003978  0000              add [eax],al
0000397A  0500000002        add eax,0x2000000
0000397F  007508            add [ebp+0x8],dh
00003982  0000              add [eax],al
00003984  0000              add [eax],al
00003986  0000              add [eax],al
00003988  0000              add [eax],al
0000398A  1000              adc [eax],al
0000398C  0000              add [eax],al
0000398E  1100              adc [eax],eax
00003990  0000              add [eax],al
00003992  0200              add al,[eax]
00003994  7404              jz 0x399a
00003996  1100              adc [eax],eax
00003998  0000              add [eax],al
0000399A  1300              adc eax,[eax]
0000399C  0000              add [eax],al
0000399E  0200              add al,[eax]
000039A0  7408              jz 0x39aa
000039A2  1300              adc eax,[eax]
000039A4  0000              add [eax],al
000039A6  6A00              push byte +0x0
000039A8  0000              add [eax],al
000039AA  0200              add al,[eax]
000039AC  7508              jnz 0x39b6
000039AE  0000              add [eax],al
000039B0  0000              add [eax],al
000039B2  0000              add [eax],al
000039B4  0000              add [eax],al
000039B6  40                inc eax
000039B7  0000              add [eax],al
000039B9  006700            add [edi+0x0],ah
000039BC  0000              add [eax],al
000039BE  0100              add [eax],eax
000039C0  56                push esi
000039C1  0000              add [eax],al
000039C3  0000              add [eax],al
000039C5  0000              add [eax],al
000039C7  0000              add [eax],al
000039C9  002E              add [esi],ch
000039CB  7379              jnc 0x3a46
000039CD  6D                insd
000039CE  7461              jz 0x3a31
000039D0  6200              bound eax,[eax]
000039D2  2E7374            cs jnc 0x3a49
000039D5  7274              jc 0x3a4b
000039D7  61                popa
000039D8  6200              bound eax,[eax]
000039DA  2E7368            cs jnc 0x3a45
000039DD  7374              jnc 0x3a53
000039DF  7274              jc 0x3a55
000039E1  61                popa
000039E2  6200              bound eax,[eax]
000039E4  2E696E7465727000  imul ebp,[cs:esi+0x74],dword 0x707265
000039EC  2E6E              cs outsb
000039EE  6F                outsd
000039EF  7465              jz 0x3a56
000039F1  2E41              cs inc ecx
000039F3  42                inc edx
000039F4  49                dec ecx
000039F5  2D74616700        sub eax,0x676174
000039FA  2E6861736800      cs push dword 0x687361
00003A00  2E64796E          fs jns 0x3a72
00003A04  7379              jnc 0x3a7f
00003A06  6D                insd
00003A07  002E              add [esi],ch
00003A09  64796E            fs jns 0x3a7a
00003A0C  7374              jnc 0x3a82
00003A0E  7200              jc 0x3a10
00003A10  2E676E            cs a16 outsb
00003A13  752E              jnz 0x3a43
00003A15  7665              jna 0x3a7c
00003A17  7273              jc 0x3a8c
00003A19  696F6E002E676E    imul ebp,[edi+0x6e],dword 0x6e672e00
00003A20  752E              jnz 0x3a50
00003A22  7665              jna 0x3a89
00003A24  7273              jc 0x3a99
00003A26  696F6E5F72002E    imul ebp,[edi+0x6e],dword 0x2e00725f
00003A2D  7265              jc 0x3a94
00003A2F  6C                insb
00003A30  2E64796E          fs jns 0x3aa2
00003A34  002E              add [esi],ch
00003A36  7265              jc 0x3a9d
00003A38  6C                insb
00003A39  2E706C            cs jo 0x3aa8
00003A3C  7400              jz 0x3a3e
00003A3E  2E696E6974002E74  imul ebp,[cs:esi+0x69],dword 0x742e0074
00003A46  657874            gs js 0x3abd
00003A49  002E              add [esi],ch
00003A4B  66696E69002E      imul bp,[esi+0x69],word 0x2e00
00003A51  726F              jc 0x3ac2
00003A53  6461              fs popa
00003A55  7461              jz 0x3ab8
00003A57  002E              add [esi],ch
00003A59  65685F667261      gs push dword 0x6172665f
00003A5F  6D                insd
00003A60  655F              gs pop edi
00003A62  686472002E        push dword 0x2e007264
00003A67  65685F667261      gs push dword 0x6172665f
00003A6D  6D                insd
00003A6E  65002E            add [gs:esi],ch
00003A71  6763635F          arpl [bp+di+0x5f],sp
00003A75  657863            gs js 0x3adb
00003A78  657074            gs jo 0x3aef
00003A7B  5F                pop edi
00003A7C  7461              jz 0x3adf
00003A7E  626C6500          bound ebp,[ebp+0x0]
00003A82  2E63746F72        arpl [cs:edi+ebp*2+0x72],si
00003A87  7300              jnc 0x3a89
00003A89  2E64746F          fs jz 0x3afc
00003A8D  7273              jc 0x3b02
00003A8F  002E              add [esi],ch
00003A91  6A63              push byte +0x63
00003A93  7200              jc 0x3a95
00003A95  2E64796E          fs jns 0x3b07
00003A99  61                popa
00003A9A  6D                insd
00003A9B  6963002E676F74    imul esp,[ebx+0x0],dword 0x746f672e
00003AA2  002E              add [esi],ch
00003AA4  676F              a16 outsd
00003AA6  742E              jz 0x3ad6
00003AA8  706C              jo 0x3b16
00003AAA  7400              jz 0x3aac
00003AAC  2E6461            fs popa
00003AAF  7461              jz 0x3b12
00003AB1  002E              add [esi],ch
00003AB3  627373            bound esi,[ebx+0x73]
00003AB6  002E              add [esi],ch
00003AB8  636F6D            arpl [edi+0x6d],bp
00003ABB  6D                insd
00003ABC  656E              gs outsb
00003ABE  7400              jz 0x3ac0
00003AC0  2E6465627567      bound esi,[gs:ebp+0x67]
00003AC6  5F                pop edi
00003AC7  61                popa
00003AC8  7261              jc 0x3b2b
00003ACA  6E                outsb
00003ACB  67657300          gs a16 jnc 0x3acf
00003ACF  2E6465627567      bound esi,[gs:ebp+0x67]
00003AD5  5F                pop edi
00003AD6  7075              jo 0x3b4d
00003AD8  626E61            bound ebp,[esi+0x61]
00003ADB  6D                insd
00003ADC  657300            gs jnc 0x3adf
00003ADF  2E6465627567      bound esi,[gs:ebp+0x67]
00003AE5  5F                pop edi
00003AE6  696E666F002E64    imul ebp,[esi+0x66],dword 0x642e006f
00003AED  65627567          bound esi,[gs:ebp+0x67]
00003AF1  5F                pop edi
00003AF2  61                popa
00003AF3  626272            bound esp,[edx+0x72]
00003AF6  657600            gs jna 0x3af9
00003AF9  2E6465627567      bound esi,[gs:ebp+0x67]
00003AFF  5F                pop edi
00003B00  6C                insb
00003B01  696E65002E6465    imul ebp,[esi+0x65],dword 0x65642e00
00003B08  627567            bound esi,[ebp+0x67]
00003B0B  5F                pop edi
00003B0C  667261            o16 jc 0x3b70
00003B0F  6D                insd
00003B10  65002E            add [gs:esi],ch
00003B13  6465627567        bound esi,[gs:ebp+0x67]
00003B18  5F                pop edi
00003B19  7374              jnc 0x3b8f
00003B1B  7200              jc 0x3b1d
00003B1D  2E6465627567      bound esi,[gs:ebp+0x67]
00003B23  5F                pop edi
00003B24  6C                insb
00003B25  6F                outsd
00003B26  6300              arpl [eax],ax
00003B28  0000              add [eax],al
00003B2A  0000              add [eax],al
00003B2C  0000              add [eax],al
00003B2E  0000              add [eax],al
00003B30  0000              add [eax],al
00003B32  0000              add [eax],al
00003B34  0000              add [eax],al
00003B36  0000              add [eax],al
00003B38  0000              add [eax],al
00003B3A  0000              add [eax],al
00003B3C  0000              add [eax],al
00003B3E  0000              add [eax],al
00003B40  0000              add [eax],al
00003B42  0000              add [eax],al
00003B44  0000              add [eax],al
00003B46  0000              add [eax],al
00003B48  0000              add [eax],al
00003B4A  0000              add [eax],al
00003B4C  0000              add [eax],al
00003B4E  0000              add [eax],al
00003B50  1B00              sbb eax,[eax]
00003B52  0000              add [eax],al
00003B54  0100              add [eax],eax
00003B56  0000              add [eax],al
00003B58  0200              add al,[eax]
00003B5A  0000              add [eax],al
00003B5C  3481              xor al,0x81
00003B5E  0408              add al,0x8
00003B60  3401              xor al,0x1
00003B62  0000              add [eax],al
00003B64  1300              adc eax,[eax]
00003B66  0000              add [eax],al
00003B68  0000              add [eax],al
00003B6A  0000              add [eax],al
00003B6C  0000              add [eax],al
00003B6E  0000              add [eax],al
00003B70  0100              add [eax],eax
00003B72  0000              add [eax],al
00003B74  0000              add [eax],al
00003B76  0000              add [eax],al
00003B78  2300              and eax,[eax]
00003B7A  0000              add [eax],al
00003B7C  07                pop es
00003B7D  0000              add [eax],al
00003B7F  0002              add [edx],al
00003B81  0000              add [eax],al
00003B83  004881            add [eax-0x7f],cl
00003B86  0408              add al,0x8
00003B88  48                dec eax
00003B89  0100              add [eax],eax
00003B8B  0020              add [eax],ah
00003B8D  0000              add [eax],al
00003B8F  0000              add [eax],al
00003B91  0000              add [eax],al
00003B93  0000              add [eax],al
00003B95  0000              add [eax],al
00003B97  000400            add [eax+eax],al
00003B9A  0000              add [eax],al
00003B9C  0000              add [eax],al
00003B9E  0000              add [eax],al
00003BA0  3100              xor [eax],eax
00003BA2  0000              add [eax],al
00003BA4  0500000002        add eax,0x2000000
00003BA9  0000              add [eax],al
00003BAB  006881            add [eax-0x7f],ch
00003BAE  0408              add al,0x8
00003BB0  68010000A4        push dword 0xa4000001
00003BB5  0000              add [eax],al
00003BB7  000400            add [eax+eax],al
00003BBA  0000              add [eax],al
00003BBC  0000              add [eax],al
00003BBE  0000              add [eax],al
00003BC0  0400              add al,0x0
00003BC2  0000              add [eax],al
00003BC4  0400              add al,0x0
00003BC6  0000              add [eax],al
00003BC8  37                aaa
00003BC9  0000              add [eax],al
00003BCB  000B              add [ebx],cl
00003BCD  0000              add [eax],al
00003BCF  0002              add [edx],al
00003BD1  0000              add [eax],al
00003BD3  000C82            add [edx+eax*4],cl
00003BD6  0408              add al,0x8
00003BD8  0C02              or al,0x2
00003BDA  0000              add [eax],al
00003BDC  60                pusha
00003BDD  0100              add [eax],eax
00003BDF  000500000001      add [0x1000000],al
00003BE5  0000              add [eax],al
00003BE7  000400            add [eax+eax],al
00003BEA  0000              add [eax],al
00003BEC  1000              adc [eax],al
00003BEE  0000              add [eax],al
00003BF0  3F                aas
00003BF1  0000              add [eax],al
00003BF3  0003              add [ebx],al
00003BF5  0000              add [eax],al
00003BF7  0002              add [edx],al
00003BF9  0000              add [eax],al
00003BFB  006C8304          add [ebx+eax*4+0x4],ch
00003BFF  086C0300          or [ebx+eax+0x0],ch
00003C03  001402            add [edx+eax],dl
00003C06  0000              add [eax],al
00003C08  0000              add [eax],al
00003C0A  0000              add [eax],al
00003C0C  0000              add [eax],al
00003C0E  0000              add [eax],al
00003C10  0100              add [eax],eax
00003C12  0000              add [eax],al
00003C14  0000              add [eax],al
00003C16  0000              add [eax],al
00003C18  47                inc edi
00003C19  0000              add [eax],al
00003C1B  00FF              add bh,bh
00003C1D  FF                db 0xFF
00003C1E  FF6F02            jmp far [edi+0x2]
00003C21  0000              add [eax],al
00003C23  008085040880      add [eax+0x80080485],al
00003C29  0500002C00        add eax,0x2c0000
00003C2E  0000              add [eax],al
00003C30  0400              add al,0x0
00003C32  0000              add [eax],al
00003C34  0000              add [eax],al
00003C36  0000              add [eax],al
00003C38  0200              add al,[eax]
00003C3A  0000              add [eax],al
00003C3C  0200              add al,[eax]
00003C3E  0000              add [eax],al
00003C40  54                push esp
00003C41  0000              add [eax],al
00003C43  00FE              add dh,bh
00003C45  FF                db 0xFF
00003C46  FF6F02            jmp far [edi+0x2]
00003C49  0000              add [eax],al
00003C4B  00AC850408AC05    add [ebp+eax*4+0x5ac0804],ch
00003C52  0000              add [eax],al
00003C54  800000            add byte [eax],0x0
00003C57  000500000003      add [0x3000000],al
00003C5D  0000              add [eax],al
00003C5F  000400            add [eax+eax],al
00003C62  0000              add [eax],al
00003C64  0000              add [eax],al
00003C66  0000              add [eax],al
00003C68  6300              arpl [eax],ax
00003C6A  0000              add [eax],al
00003C6C  0900              or [eax],eax
00003C6E  0000              add [eax],al
00003C70  0200              add al,[eax]
00003C72  0000              add [eax],al
00003C74  2C86              sub al,0x86
00003C76  0408              add al,0x8
00003C78  2C06              sub al,0x6
00003C7A  0000              add [eax],al
00003C7C  1800              sbb [eax],al
00003C7E  0000              add [eax],al
00003C80  0400              add al,0x0
00003C82  0000              add [eax],al
00003C84  0000              add [eax],al
00003C86  0000              add [eax],al
00003C88  0400              add al,0x0
00003C8A  0000              add [eax],al
00003C8C  0800              or [eax],al
00003C8E  0000              add [eax],al
00003C90  6C                insb
00003C91  0000              add [eax],al
00003C93  0009              add [ecx],cl
00003C95  0000              add [eax],al
00003C97  0002              add [edx],al
00003C99  0000              add [eax],al
00003C9B  00448604          add [esi+eax*4+0x4],al
00003C9F  08440600          or [esi+eax+0x0],al
00003CA3  007800            add [eax+0x0],bh
00003CA6  0000              add [eax],al
00003CA8  0400              add al,0x0
00003CAA  0000              add [eax],al
00003CAC  0B00              or eax,[eax]
00003CAE  0000              add [eax],al
00003CB0  0400              add al,0x0
00003CB2  0000              add [eax],al
00003CB4  0800              or [eax],al
00003CB6  0000              add [eax],al
00003CB8  7500              jnz 0x3cba
00003CBA  0000              add [eax],al
00003CBC  0100              add [eax],eax
00003CBE  0000              add [eax],al
00003CC0  06                push es
00003CC1  0000              add [eax],al
00003CC3  00BC860408BC06    add [esi+eax*4+0x6bc0804],bh
00003CCA  0000              add [eax],al
00003CCC  3000              xor [eax],al
00003CCE  0000              add [eax],al
00003CD0  0000              add [eax],al
00003CD2  0000              add [eax],al
00003CD4  0000              add [eax],al
00003CD6  0000              add [eax],al
00003CD8  0400              add al,0x0
00003CDA  0000              add [eax],al
00003CDC  0000              add [eax],al
00003CDE  0000              add [eax],al
00003CE0  7000              jo 0x3ce2
00003CE2  0000              add [eax],al
00003CE4  0100              add [eax],eax
00003CE6  0000              add [eax],al
00003CE8  06                push es
00003CE9  0000              add [eax],al
00003CEB  00F0              add al,dh
00003CED  860408            xchg al,[eax+ecx]
00003CF0  F006              lock push es
00003CF2  0000              add [eax],al
00003CF4  0001              add [ecx],al
00003CF6  0000              add [eax],al
00003CF8  0000              add [eax],al
00003CFA  0000              add [eax],al
00003CFC  0000              add [eax],al
00003CFE  0000              add [eax],al
00003D00  1000              adc [eax],al
00003D02  0000              add [eax],al
00003D04  0400              add al,0x0
00003D06  0000              add [eax],al
00003D08  7B00              jpo 0x3d0a
00003D0A  0000              add [eax],al
00003D0C  0100              add [eax],eax
00003D0E  0000              add [eax],al
00003D10  06                push es
00003D11  0000              add [eax],al
00003D13  00F0              add al,dh
00003D15  870408            xchg eax,[eax+ecx]
00003D18  F007              lock pop es
00003D1A  0000              add [eax],al
00003D1C  F8                clc
00003D1D  1A00              sbb al,[eax]
00003D1F  0000              add [eax],al
00003D21  0000              add [eax],al
00003D23  0000              add [eax],al
00003D25  0000              add [eax],al
00003D27  0010              add [eax],dl
00003D29  0000              add [eax],al
00003D2B  0000              add [eax],al
00003D2D  0000              add [eax],al
00003D2F  008100000001      add [ecx+0x1000000],al
00003D35  0000              add [eax],al
00003D37  0006              add [esi],al
00003D39  0000              add [eax],al
00003D3B  00E8              add al,ch
00003D3D  A20408E822        mov [0x22e80804],al
00003D42  0000              add [eax],al
00003D44  1C00              sbb al,0x0
00003D46  0000              add [eax],al
00003D48  0000              add [eax],al
00003D4A  0000              add [eax],al
00003D4C  0000              add [eax],al
00003D4E  0000              add [eax],al
00003D50  0400              add al,0x0
00003D52  0000              add [eax],al
00003D54  0000              add [eax],al
00003D56  0000              add [eax],al
00003D58  8700              xchg eax,[eax]
00003D5A  0000              add [eax],al
00003D5C  0100              add [eax],eax
00003D5E  0000              add [eax],al
00003D60  0200              add al,[eax]
00003D62  0000              add [eax],al
00003D64  04A3              add al,0xa3
00003D66  0408              add al,0x8
00003D68  0423              add al,0x23
00003D6A  0000              add [eax],al
00003D6C  1800              sbb [eax],al
00003D6E  0000              add [eax],al
00003D70  0000              add [eax],al
00003D72  0000              add [eax],al
00003D74  0000              add [eax],al
00003D76  0000              add [eax],al
00003D78  0400              add al,0x0
00003D7A  0000              add [eax],al
00003D7C  0000              add [eax],al
00003D7E  0000              add [eax],al
00003D80  8F00              pop dword [eax]
00003D82  0000              add [eax],al
00003D84  0100              add [eax],eax
00003D86  0000              add [eax],al
00003D88  0200              add al,[eax]
00003D8A  0000              add [eax],al
00003D8C  1CA3              sbb al,0xa3
00003D8E  0408              add al,0x8
00003D90  1C23              sbb al,0x23
00003D92  0000              add [eax],al
00003D94  7C02              jl 0x3d98
00003D96  0000              add [eax],al
00003D98  0000              add [eax],al
00003D9A  0000              add [eax],al
00003D9C  0000              add [eax],al
00003D9E  0000              add [eax],al
00003DA0  0400              add al,0x0
00003DA2  0000              add [eax],al
00003DA4  0000              add [eax],al
00003DA6  0000              add [eax],al
00003DA8  9D                popf
00003DA9  0000              add [eax],al
00003DAB  0001              add [ecx],al
00003DAD  0000              add [eax],al
00003DAF  0002              add [edx],al
00003DB1  0000              add [eax],al
00003DB3  0098A5040898      add [eax+0x980804a5],bl
00003DB9  250000C80A        and eax,0xac80000
00003DBE  0000              add [eax],al
00003DC0  0000              add [eax],al
00003DC2  0000              add [eax],al
00003DC4  0000              add [eax],al
00003DC6  0000              add [eax],al
00003DC8  0400              add al,0x0
00003DCA  0000              add [eax],al
00003DCC  0000              add [eax],al
00003DCE  0000              add [eax],al
00003DD0  A7                cmpsd
00003DD1  0000              add [eax],al
00003DD3  0001              add [ecx],al
00003DD5  0000              add [eax],al
00003DD7  0002              add [edx],al
00003DD9  0000              add [eax],al
00003DDB  0060B0            add [eax-0x50],ah
00003DDE  0408              add al,0x8
00003DE0  60                pusha
00003DE1  3000              xor [eax],al
00003DE3  0021              add [ecx],ah
00003DE5  0100              add [eax],eax
00003DE7  0000              add [eax],al
00003DE9  0000              add [eax],al
00003DEB  0000              add [eax],al
00003DED  0000              add [eax],al
00003DEF  0001              add [ecx],al
00003DF1  0000              add [eax],al
00003DF3  0000              add [eax],al
00003DF5  0000              add [eax],al
00003DF7  00B900000001      add [ecx+0x1000000],bh
00003DFD  0000              add [eax],al
00003DFF  0003              add [ebx],al
00003E01  0000              add [eax],al
00003E03  0084C104088431    add [ecx+eax*8+0x31840804],al
00003E0A  0000              add [eax],al
00003E0C  0C00              or al,0x0
00003E0E  0000              add [eax],al
00003E10  0000              add [eax],al
00003E12  0000              add [eax],al
00003E14  0000              add [eax],al
00003E16  0000              add [eax],al
00003E18  0400              add al,0x0
00003E1A  0000              add [eax],al
00003E1C  0000              add [eax],al
00003E1E  0000              add [eax],al
00003E20  C00000            rol byte [eax],0x0
00003E23  0001              add [ecx],al
00003E25  0000              add [eax],al
00003E27  0003              add [ebx],al
00003E29  0000              add [eax],al
00003E2B  0090C1040890      add [eax+0x900804c1],dl
00003E31  3100              xor [eax],eax
00003E33  0008              add [eax],cl
00003E35  0000              add [eax],al
00003E37  0000              add [eax],al
00003E39  0000              add [eax],al
00003E3B  0000              add [eax],al
00003E3D  0000              add [eax],al
00003E3F  000400            add [eax+eax],al
00003E42  0000              add [eax],al
00003E44  0000              add [eax],al
00003E46  0000              add [eax],al
00003E48  C70000000100      mov dword [eax],0x10000
00003E4E  0000              add [eax],al
00003E50  0300              add eax,[eax]
00003E52  0000              add [eax],al
00003E54  98                cwde
00003E55  C1040898          rol dword [eax+ecx],0x98
00003E59  3100              xor [eax],eax
00003E5B  000400            add [eax+eax],al
00003E5E  0000              add [eax],al
00003E60  0000              add [eax],al
00003E62  0000              add [eax],al
00003E64  0000              add [eax],al
00003E66  0000              add [eax],al
00003E68  0400              add al,0x0
00003E6A  0000              add [eax],al
00003E6C  0000              add [eax],al
00003E6E  0000              add [eax],al
00003E70  CC                int3
00003E71  0000              add [eax],al
00003E73  0006              add [esi],al
00003E75  0000              add [eax],al
00003E77  0003              add [ebx],al
00003E79  0000              add [eax],al
00003E7B  009CC104089C31    add [ecx+eax*8+0x319c0804],bl
00003E82  0000              add [eax],al
00003E84  E000              loopne 0x3e86
00003E86  0000              add [eax],al
00003E88  0500000000        add eax,0x0
00003E8D  0000              add [eax],al
00003E8F  000400            add [eax+eax],al
00003E92  0000              add [eax],al
00003E94  0800              or [eax],al
00003E96  0000              add [eax],al
00003E98  D500              aad 0x0
00003E9A  0000              add [eax],al
00003E9C  0100              add [eax],eax
00003E9E  0000              add [eax],al
00003EA0  0300              add eax,[eax]
00003EA2  0000              add [eax],al
00003EA4  7CC2              jl 0x3e68
00003EA6  0408              add al,0x8
00003EA8  7C32              jl 0x3edc
00003EAA  0000              add [eax],al
00003EAC  0400              add al,0x0
00003EAE  0000              add [eax],al
00003EB0  0000              add [eax],al
00003EB2  0000              add [eax],al
00003EB4  0000              add [eax],al
00003EB6  0000              add [eax],al
00003EB8  0400              add al,0x0
00003EBA  0000              add [eax],al
00003EBC  0400              add al,0x0
00003EBE  0000              add [eax],al
00003EC0  DA00              fiadd dword [eax]
00003EC2  0000              add [eax],al
00003EC4  0100              add [eax],eax
00003EC6  0000              add [eax],al
00003EC8  0300              add eax,[eax]
00003ECA  0000              add [eax],al
00003ECC  80C204            add dl,0x4
00003ECF  088032000048      or [eax+0x48000032],al
00003ED5  0000              add [eax],al
00003ED7  0000              add [eax],al
00003ED9  0000              add [eax],al
00003EDB  0000              add [eax],al
00003EDD  0000              add [eax],al
00003EDF  000400            add [eax+eax],al
00003EE2  0000              add [eax],al
00003EE4  0400              add al,0x0
00003EE6  0000              add [eax],al
00003EE8  E300              jecxz 0x3eea
00003EEA  0000              add [eax],al
00003EEC  0100              add [eax],eax
00003EEE  0000              add [eax],al
00003EF0  0300              add eax,[eax]
00003EF2  0000              add [eax],al
00003EF4  C8C20408          enter 0x4c2,0x8
00003EF8  C8320000          enter 0x32,0x0
00003EFC  0800              or [eax],al
00003EFE  0000              add [eax],al
00003F00  0000              add [eax],al
00003F02  0000              add [eax],al
00003F04  0000              add [eax],al
00003F06  0000              add [eax],al
00003F08  0400              add al,0x0
00003F0A  0000              add [eax],al
00003F0C  0000              add [eax],al
00003F0E  0000              add [eax],al
00003F10  E900000008        jmp 0x8003f15
00003F15  0000              add [eax],al
00003F17  0003              add [ebx],al
00003F19  0000              add [eax],al
00003F1B  00E0              add al,ah
00003F1D  C20408            ret 0x804
00003F20  D0                db 0xD0
00003F21  3200              xor al,[eax]
00003F23  0038              add [eax],bh
00003F25  0100              add [eax],eax
00003F27  0000              add [eax],al
00003F29  0000              add [eax],al
00003F2B  0000              add [eax],al
00003F2D  0000              add [eax],al
00003F2F  0020              add [eax],ah
00003F31  0000              add [eax],al
00003F33  0000              add [eax],al
00003F35  0000              add [eax],al
00003F37  00EE              add dh,ch
00003F39  0000              add [eax],al
00003F3B  0001              add [ecx],al
00003F3D  0000              add [eax],al
00003F3F  0030              add [eax],dh
00003F41  0000              add [eax],al
00003F43  0000              add [eax],al
00003F45  0000              add [eax],al
00003F47  00D0              add al,dl
00003F49  3200              xor al,[eax]
00003F4B  003400            add [eax+eax],dh
00003F4E  0000              add [eax],al
00003F50  0000              add [eax],al
00003F52  0000              add [eax],al
00003F54  0000              add [eax],al
00003F56  0000              add [eax],al
00003F58  0100              add [eax],eax
00003F5A  0000              add [eax],al
00003F5C  0100              add [eax],eax
00003F5E  0000              add [eax],al
00003F60  F70000000100      test dword [eax],0x10000
00003F66  0000              add [eax],al
00003F68  0000              add [eax],al
00003F6A  0000              add [eax],al
00003F6C  0000              add [eax],al
00003F6E  0000              add [eax],al
00003F70  0833              or [ebx],dh
00003F72  0000              add [eax],al
00003F74  40                inc eax
00003F75  0000              add [eax],al
00003F77  0000              add [eax],al
00003F79  0000              add [eax],al
00003F7B  0000              add [eax],al
00003F7D  0000              add [eax],al
00003F7F  0008              add [eax],cl
00003F81  0000              add [eax],al
00003F83  0000              add [eax],al
00003F85  0000              add [eax],al
00003F87  0006              add [esi],al
00003F89  0100              add [eax],eax
00003F8B  0001              add [ecx],al
00003F8D  0000              add [eax],al
00003F8F  0000              add [eax],al
00003F91  0000              add [eax],al
00003F93  0000              add [eax],al
00003F95  0000              add [eax],al
00003F97  004833            add [eax+0x33],cl
00003F9A  0000              add [eax],al
00003F9C  5F                pop edi
00003F9D  0000              add [eax],al
00003F9F  0000              add [eax],al
00003FA1  0000              add [eax],al
00003FA3  0000              add [eax],al
00003FA5  0000              add [eax],al
00003FA7  0001              add [ecx],al
00003FA9  0000              add [eax],al
00003FAB  0000              add [eax],al
00003FAD  0000              add [eax],al
00003FAF  0016              add [esi],dl
00003FB1  0100              add [eax],eax
00003FB3  0001              add [ecx],al
00003FB5  0000              add [eax],al
00003FB7  0000              add [eax],al
00003FB9  0000              add [eax],al
00003FBB  0000              add [eax],al
00003FBD  0000              add [eax],al
00003FBF  00A733000021      add [edi+0x21000033],ah
00003FC5  0200              add al,[eax]
00003FC7  0000              add [eax],al
00003FC9  0000              add [eax],al
00003FCB  0000              add [eax],al
00003FCD  0000              add [eax],al
00003FCF  0001              add [ecx],al
00003FD1  0000              add [eax],al
00003FD3  0000              add [eax],al
00003FD5  0000              add [eax],al
00003FD7  0022              add [edx],ah
00003FD9  0100              add [eax],eax
00003FDB  0001              add [ecx],al
00003FDD  0000              add [eax],al
00003FDF  0000              add [eax],al
00003FE1  0000              add [eax],al
00003FE3  0000              add [eax],al
00003FE5  0000              add [eax],al
00003FE7  00C8              add al,cl
00003FE9  3500003501        xor eax,0x1350000
00003FEE  0000              add [eax],al
00003FF0  0000              add [eax],al
00003FF2  0000              add [eax],al
00003FF4  0000              add [eax],al
00003FF6  0000              add [eax],al
00003FF8  0100              add [eax],eax
00003FFA  0000              add [eax],al
00003FFC  0000              add [eax],al
00003FFE  0000              add [eax],al
00004000  3001              xor [ecx],al
00004002  0000              add [eax],al
00004004  0100              add [eax],eax
00004006  0000              add [eax],al
00004008  0000              add [eax],al
0000400A  0000              add [eax],al
0000400C  0000              add [eax],al
0000400E  0000              add [eax],al
00004010  FD                std
00004011  360000            add [ss:eax],al
00004014  0101              add [ecx],eax
00004016  0000              add [eax],al
00004018  0000              add [eax],al
0000401A  0000              add [eax],al
0000401C  0000              add [eax],al
0000401E  0000              add [eax],al
00004020  0100              add [eax],eax
00004022  0000              add [eax],al
00004024  0000              add [eax],al
00004026  0000              add [eax],al
00004028  3C01              cmp al,0x1
0000402A  0000              add [eax],al
0000402C  0100              add [eax],eax
0000402E  0000              add [eax],al
00004030  0000              add [eax],al
00004032  0000              add [eax],al
00004034  0000              add [eax],al
00004036  0000              add [eax],al
00004038  0038              add [eax],bh
0000403A  0000              add [eax],al
0000403C  4C                dec esp
0000403D  0000              add [eax],al
0000403F  0000              add [eax],al
00004041  0000              add [eax],al
00004043  0000              add [eax],al
00004045  0000              add [eax],al
00004047  000400            add [eax+eax],al
0000404A  0000              add [eax],al
0000404C  0000              add [eax],al
0000404E  0000              add [eax],al
00004050  49                dec ecx
00004051  0100              add [eax],eax
00004053  0001              add [ecx],al
00004055  0000              add [eax],al
00004057  0030              add [eax],dh
00004059  0000              add [eax],al
0000405B  0000              add [eax],al
0000405D  0000              add [eax],al
0000405F  004C3800          add [eax+edi+0x0],cl
00004063  0012              add [edx],dl
00004065  0100              add [eax],eax
00004067  0000              add [eax],al
00004069  0000              add [eax],al
0000406B  0000              add [eax],al
0000406D  0000              add [eax],al
0000406F  0001              add [ecx],al
00004071  0000              add [eax],al
00004073  0001              add [ecx],al
00004075  0000              add [eax],al
00004077  00540100          add [ecx+eax+0x0],dl
0000407B  0001              add [ecx],al
0000407D  0000              add [eax],al
0000407F  0000              add [eax],al
00004081  0000              add [eax],al
00004083  0000              add [eax],al
00004085  0000              add [eax],al
00004087  005E39            add [esi+0x39],bl
0000408A  0000              add [eax],al
0000408C  6B0000            imul eax,[eax],byte +0x0
0000408F  0000              add [eax],al
00004091  0000              add [eax],al
00004093  0000              add [eax],al
00004095  0000              add [eax],al
00004097  0001              add [ecx],al
00004099  0000              add [eax],al
0000409B  0000              add [eax],al
0000409D  0000              add [eax],al
0000409F  0011              add [ecx],dl
000040A1  0000              add [eax],al
000040A3  0003              add [ebx],al
000040A5  0000              add [eax],al
000040A7  0000              add [eax],al
000040A9  0000              add [eax],al
000040AB  0000              add [eax],al
000040AD  0000              add [eax],al
000040AF  00C9              add cl,cl
000040B1  3900              cmp [eax],eax
000040B3  005F01            add [edi+0x1],bl
000040B6  0000              add [eax],al
000040B8  0000              add [eax],al
000040BA  0000              add [eax],al
000040BC  0000              add [eax],al
000040BE  0000              add [eax],al
000040C0  0100              add [eax],eax
000040C2  0000              add [eax],al
000040C4  0000              add [eax],al
000040C6  0000              add [eax],al
000040C8  0100              add [eax],eax
000040CA  0000              add [eax],al
000040CC  0200              add al,[eax]
000040CE  0000              add [eax],al
000040D0  0000              add [eax],al
000040D2  0000              add [eax],al
000040D4  0000              add [eax],al
000040D6  0000              add [eax],al
000040D8  184100            sbb [ecx+0x0],al
000040DB  00E0              add al,ah
000040DD  0B00              or eax,[eax]
000040DF  002500000040      add [0x40000000],ah
000040E5  0000              add [eax],al
000040E7  000400            add [eax+eax],al
000040EA  0000              add [eax],al
000040EC  1000              adc [eax],al
000040EE  0000              add [eax],al
000040F0  0900              or [eax],eax
000040F2  0000              add [eax],al
000040F4  0300              add eax,[eax]
000040F6  0000              add [eax],al
000040F8  0000              add [eax],al
000040FA  0000              add [eax],al
000040FC  0000              add [eax],al
000040FE  0000              add [eax],al
00004100  F8                clc
00004101  4C                dec esp
00004102  0000              add [eax],al
00004104  721E              jc 0x4124
00004106  0000              add [eax],al
00004108  0000              add [eax],al
0000410A  0000              add [eax],al
0000410C  0000              add [eax],al
0000410E  0000              add [eax],al
00004110  0100              add [eax],eax
00004112  0000              add [eax],al
00004114  0000              add [eax],al
00004116  0000              add [eax],al
00004118  0000              add [eax],al
0000411A  0000              add [eax],al
0000411C  0000              add [eax],al
0000411E  0000              add [eax],al
00004120  0000              add [eax],al
00004122  0000              add [eax],al
00004124  0000              add [eax],al
00004126  0000              add [eax],al
00004128  0000              add [eax],al
0000412A  0000              add [eax],al
0000412C  3481              xor al,0x81
0000412E  0408              add al,0x8
00004130  0000              add [eax],al
00004132  0000              add [eax],al
00004134  0300              add eax,[eax]
00004136  0100              add [eax],eax
00004138  0000              add [eax],al
0000413A  0000              add [eax],al
0000413C  48                dec eax
0000413D  81040800000000    add dword [eax+ecx],0x0
00004144  0300              add eax,[eax]
00004146  0200              add al,[eax]
00004148  0000              add [eax],al
0000414A  0000              add [eax],al
0000414C  6881040800        push dword 0x80481
00004151  0000              add [eax],al
00004153  0003              add [ebx],al
00004155  0003              add [ebx],al
00004157  0000              add [eax],al
00004159  0000              add [eax],al
0000415B  000C82            add [edx+eax*4],cl
0000415E  0408              add al,0x8
00004160  0000              add [eax],al
00004162  0000              add [eax],al
00004164  0300              add eax,[eax]
00004166  0400              add al,0x0
00004168  0000              add [eax],al
0000416A  0000              add [eax],al
0000416C  6C                insb
0000416D  83040800          add dword [eax+ecx],byte +0x0
00004171  0000              add [eax],al
00004173  0003              add [ebx],al
00004175  000500000000      add [0x0],al
0000417B  008085040800      add [eax+0x80485],al
00004181  0000              add [eax],al
00004183  0003              add [ebx],al
00004185  0006              add [esi],al
00004187  0000              add [eax],al
00004189  0000              add [eax],al
0000418B  00AC8504080000    add [ebp+eax*4+0x804],ch
00004192  0000              add [eax],al
00004194  0300              add eax,[eax]
00004196  07                pop es
00004197  0000              add [eax],al
00004199  0000              add [eax],al
0000419B  002C86            add [esi+eax*4],ch
0000419E  0408              add al,0x8
000041A0  0000              add [eax],al
000041A2  0000              add [eax],al
000041A4  0300              add eax,[eax]
000041A6  0800              or [eax],al
000041A8  0000              add [eax],al
000041AA  0000              add [eax],al
000041AC  44                inc esp
000041AD  860408            xchg al,[eax+ecx]
000041B0  0000              add [eax],al
000041B2  0000              add [eax],al
000041B4  0300              add eax,[eax]
000041B6  0900              or [eax],eax
000041B8  0000              add [eax],al
000041BA  0000              add [eax],al
000041BC  BC86040800        mov esp,0x80486
000041C1  0000              add [eax],al
000041C3  0003              add [ebx],al
000041C5  000A              add [edx],cl
000041C7  0000              add [eax],al
000041C9  0000              add [eax],al
000041CB  00F0              add al,dh
000041CD  860408            xchg al,[eax+ecx]
000041D0  0000              add [eax],al
000041D2  0000              add [eax],al
000041D4  0300              add eax,[eax]
000041D6  0B00              or eax,[eax]
000041D8  0000              add [eax],al
000041DA  0000              add [eax],al
000041DC  F0870408          lock xchg eax,[eax+ecx]
000041E0  0000              add [eax],al
000041E2  0000              add [eax],al
000041E4  0300              add eax,[eax]
000041E6  0C00              or al,0x0
000041E8  0000              add [eax],al
000041EA  0000              add [eax],al
000041EC  E8A2040800        call 0x84693
000041F1  0000              add [eax],al
000041F3  0003              add [ebx],al
000041F5  000D00000000      add [0x0],cl
000041FB  0004A3            add [ebx],al
000041FE  0408              add al,0x8
00004200  0000              add [eax],al
00004202  0000              add [eax],al
00004204  0300              add eax,[eax]
00004206  0E                push cs
00004207  0000              add [eax],al
00004209  0000              add [eax],al
0000420B  001CA3            add [ebx],bl
0000420E  0408              add al,0x8
00004210  0000              add [eax],al
00004212  0000              add [eax],al
00004214  0300              add eax,[eax]
00004216  0F0000            sldt [eax]
00004219  0000              add [eax],al
0000421B  0098A5040800      add [eax+0x804a5],bl
00004221  0000              add [eax],al
00004223  0003              add [ebx],al
00004225  0010              add [eax],dl
00004227  0000              add [eax],al
00004229  0000              add [eax],al
0000422B  0060B0            add [eax-0x50],ah
0000422E  0408              add al,0x8
00004230  0000              add [eax],al
00004232  0000              add [eax],al
00004234  0300              add eax,[eax]
00004236  1100              adc [eax],eax
00004238  0000              add [eax],al
0000423A  0000              add [eax],al
0000423C  84C1              test cl,al
0000423E  0408              add al,0x8
00004240  0000              add [eax],al
00004242  0000              add [eax],al
00004244  0300              add eax,[eax]
00004246  1200              adc al,[eax]
00004248  0000              add [eax],al
0000424A  0000              add [eax],al
0000424C  90                nop
0000424D  C1040800          rol dword [eax+ecx],0x0
00004251  0000              add [eax],al
00004253  0003              add [ebx],al
00004255  0013              add [ebx],dl
00004257  0000              add [eax],al
00004259  0000              add [eax],al
0000425B  0098C1040800      add [eax+0x804c1],bl
00004261  0000              add [eax],al
00004263  0003              add [ebx],al
00004265  001400            add [eax+eax],dl
00004268  0000              add [eax],al
0000426A  0000              add [eax],al
0000426C  9C                pushf
0000426D  C1040800          rol dword [eax+ecx],0x0
00004271  0000              add [eax],al
00004273  0003              add [ebx],al
00004275  001500000000      add [0x0],dl
0000427B  007CC204          add [edx+eax*8+0x4],bh
0000427F  0800              or [eax],al
00004281  0000              add [eax],al
00004283  0003              add [ebx],al
00004285  0016              add [esi],dl
00004287  0000              add [eax],al
00004289  0000              add [eax],al
0000428B  0080C2040800      add [eax+0x804c2],al
00004291  0000              add [eax],al
00004293  0003              add [ebx],al
00004295  0017              add [edi],dl
00004297  0000              add [eax],al
00004299  0000              add [eax],al
0000429B  00C8              add al,cl
0000429D  C20408            ret 0x804
000042A0  0000              add [eax],al
000042A2  0000              add [eax],al
000042A4  0300              add eax,[eax]
000042A6  1800              sbb [eax],al
000042A8  0000              add [eax],al
000042AA  0000              add [eax],al
000042AC  E0C2              loopne 0x4270
000042AE  0408              add al,0x8
000042B0  0000              add [eax],al
000042B2  0000              add [eax],al
000042B4  0300              add eax,[eax]
000042B6  1900              sbb [eax],eax
000042B8  0000              add [eax],al
000042BA  0000              add [eax],al
000042BC  0000              add [eax],al
000042BE  0000              add [eax],al
000042C0  0000              add [eax],al
000042C2  0000              add [eax],al
000042C4  0300              add eax,[eax]
000042C6  1A00              sbb al,[eax]
000042C8  0000              add [eax],al
000042CA  0000              add [eax],al
000042CC  0000              add [eax],al
000042CE  0000              add [eax],al
000042D0  0000              add [eax],al
000042D2  0000              add [eax],al
000042D4  0300              add eax,[eax]
000042D6  1B00              sbb eax,[eax]
000042D8  0000              add [eax],al
000042DA  0000              add [eax],al
000042DC  0000              add [eax],al
000042DE  0000              add [eax],al
000042E0  0000              add [eax],al
000042E2  0000              add [eax],al
000042E4  0300              add eax,[eax]
000042E6  1C00              sbb al,0x0
000042E8  0000              add [eax],al
000042EA  0000              add [eax],al
000042EC  0000              add [eax],al
000042EE  0000              add [eax],al
000042F0  0000              add [eax],al
000042F2  0000              add [eax],al
000042F4  0300              add eax,[eax]
000042F6  1D00000000        sbb eax,0x0
000042FB  0000              add [eax],al
000042FD  0000              add [eax],al
000042FF  0000              add [eax],al
00004301  0000              add [eax],al
00004303  0003              add [ebx],al
00004305  001E              add [esi],bl
00004307  0000              add [eax],al
00004309  0000              add [eax],al
0000430B  0000              add [eax],al
0000430D  0000              add [eax],al
0000430F  0000              add [eax],al
00004311  0000              add [eax],al
00004313  0003              add [ebx],al
00004315  001F              add [edi],bl
00004317  0000              add [eax],al
00004319  0000              add [eax],al
0000431B  0000              add [eax],al
0000431D  0000              add [eax],al
0000431F  0000              add [eax],al
00004321  0000              add [eax],al
00004323  0003              add [ebx],al
00004325  0020              add [eax],ah
00004327  0000              add [eax],al
00004329  0000              add [eax],al
0000432B  0000              add [eax],al
0000432D  0000              add [eax],al
0000432F  0000              add [eax],al
00004331  0000              add [eax],al
00004333  0003              add [ebx],al
00004335  0021              add [ecx],ah
00004337  0000              add [eax],al
00004339  0000              add [eax],al
0000433B  0000              add [eax],al
0000433D  0000              add [eax],al
0000433F  0000              add [eax],al
00004341  0000              add [eax],al
00004343  0003              add [ebx],al
00004345  0022              add [edx],ah
00004347  0001              add [ecx],al
00004349  0000              add [eax],al
0000434B  0000              add [eax],al
0000434D  0000              add [eax],al
0000434F  0000              add [eax],al
00004351  0000              add [eax],al
00004353  000400            add [eax+eax],al
00004356  F1                int1
00004357  FF08              dec dword [eax]
00004359  0000              add [eax],al
0000435B  0000              add [eax],al
0000435D  0000              add [eax],al
0000435F  0000              add [eax],al
00004361  0000              add [eax],al
00004363  000400            add [eax+eax],al
00004366  F1                int1
00004367  FF13              call near [ebx]
00004369  0000              add [eax],al
0000436B  0000              add [eax],al
0000436D  0000              add [eax],al
0000436F  0000              add [eax],al
00004371  0000              add [eax],al
00004373  000400            add [eax+eax],al
00004376  F1                int1
00004377  FF1E              call far [esi]
00004379  0000              add [eax],al
0000437B  0084C104080000    add [ecx+eax*8+0x804],al
00004382  0000              add [eax],al
00004384  0100              add [eax],eax
00004386  1200              adc al,[eax]
00004388  2C00              sub al,0x0
0000438A  0000              add [eax],al
0000438C  90                nop
0000438D  C1040800          rol dword [eax+ecx],0x0
00004391  0000              add [eax],al
00004393  0001              add [ecx],al
00004395  0013              add [ebx],dl
00004397  003A              add [edx],bh
00004399  0000              add [eax],al
0000439B  0098C1040800      add [eax+0x804c1],bl
000043A1  0000              add [eax],al
000043A3  0001              add [ecx],al
000043A5  001400            add [eax+eax],dl
000043A8  47                inc edi
000043A9  0000              add [eax],al
000043AB  0020              add [eax],ah
000043AD  880408            mov [eax+ecx],al
000043B0  0000              add [eax],al
000043B2  0000              add [eax],al
000043B4  0200              add al,[eax]
000043B6  0C00              or al,0x0
000043B8  5C                pop esp
000043B9  0000              add [eax],al
000043BB  005088            add [eax-0x78],dl
000043BE  0408              add al,0x8
000043C0  0000              add [eax],al
000043C2  0000              add [eax],al
000043C4  0200              add al,[eax]
000043C6  0C00              or al,0x0
000043C8  6F                outsd
000043C9  0000              add [eax],al
000043CB  009088040800      add [eax+0x80488],dl
000043D1  0000              add [eax],al
000043D3  0002              add [edx],al
000043D5  000C00            add [eax+eax],cl
000043D8  8500              test [eax],eax
000043DA  0000              add [eax],al
000043DC  0CC4              or al,0xc4
000043DE  0408              add al,0x8
000043E0  0100              add [eax],eax
000043E2  0000              add [eax],al
000043E4  0100              add [eax],eax
000043E6  1900              sbb [eax],eax
000043E8  94                xchg eax,esp
000043E9  0000              add [eax],al
000043EB  0010              add [eax],dl
000043ED  C40408            les eax,[eax+ecx]
000043F0  0400              add al,0x0
000043F2  0000              add [eax],al
000043F4  0100              add [eax],eax
000043F6  1900              sbb [eax],eax
000043F8  A2000000E0        mov [0xe0000000],al
000043FD  880408            mov [eax+ecx],al
00004400  0000              add [eax],al
00004402  0000              add [eax],al
00004404  0200              add al,[eax]
00004406  0C00              or al,0x0
00004408  1300              adc eax,[eax]
0000440A  0000              add [eax],al
0000440C  0000              add [eax],al
0000440E  0000              add [eax],al
00004410  0000              add [eax],al
00004412  0000              add [eax],al
00004414  0400              add al,0x0
00004416  F1                int1
00004417  FFAE0000008C      jmp far [esi+0x8c000000]
0000441D  C1040800          rol dword [eax+ecx],0x0
00004421  0000              add [eax],al
00004423  0001              add [ecx],al
00004425  0012              add [edx],dl
00004427  00BB0000005C      add [ebx+0x5c000000],bh
0000442D  B004              mov al,0x4
0000442F  0800              or [eax],al
00004431  0000              add [eax],al
00004433  0001              add [ecx],al
00004435  0010              add [eax],dl
00004437  00C9              add cl,cl
00004439  0000              add [eax],al
0000443B  0098C1040800      add [eax+0x804c1],bl
00004441  0000              add [eax],al
00004443  0001              add [ecx],al
00004445  001400            add [eax+eax],dl
00004448  D500              aad 0x0
0000444A  0000              add [eax],al
0000444C  C0A20408000000    shl byte [edx+0x804],0x0
00004453  0002              add [edx],al
00004455  000C00            add [eax+eax],cl
00004458  0800              or [eax],al
0000445A  0000              add [eax],al
0000445C  0000              add [eax],al
0000445E  0000              add [eax],al
00004460  0000              add [eax],al
00004462  0000              add [eax],al
00004464  0400              add al,0x0
00004466  F1                int1
00004467  FF                db 0xFF
00004468  EB00              jmp short 0x446a
0000446A  0000              add [eax],al
0000446C  0000              add [eax],al
0000446E  0000              add [eax],al
00004470  0000              add [eax],al
00004472  0000              add [eax],al
00004474  0400              add al,0x0
00004476  F1                int1
00004477  FF0501000014      inc dword [0x14000001]
0000447D  C40408            les eax,[eax+ecx]
00004480  0100              add [eax],eax
00004482  0000              add [eax],al
00004484  0100              add [eax],eax
00004486  1900              sbb [eax],eax
00004488  1401              adc al,0x1
0000448A  0000              add [eax],al
0000448C  6B8C04083F000000  imul ecx,[esp+eax+0x3f08],byte +0x0
00004494  0200              add al,[eax]
00004496  0C00              or al,0x0
00004498  44                inc esp
00004499  0100              add [eax],eax
0000449B  0018              add [eax],bl
0000449D  A304080400        mov [0x40804],eax
000044A2  0000              add [eax],al
000044A4  0100              add [eax],eax
000044A6  0E                push cs
000044A7  004C0100          add [ecx+eax+0x0],cl
000044AB  00AA8C04081C      add [edx+0x1c08048c],ch
000044B1  0000              add [eax],al
000044B3  0002              add [edx],al
000044B5  000C00            add [eax+eax],cl
000044B8  7801              js 0x44bb
000044BA  0000              add [eax],al
000044BC  0000              add [eax],al
000044BE  0000              add [eax],al
000044C0  0000              add [eax],al
000044C2  0000              add [eax],al
000044C4  0400              add al,0x0
000044C6  F1                int1
000044C7  FF00              inc dword [eax]
000044C9  0000              add [eax],al
000044CB  0000              add [eax],al
000044CD  0000              add [eax],al
000044CF  0000              add [eax],al
000044D1  0000              add [eax],al
000044D3  000400            add [eax+eax],al
000044D6  F1                int1
000044D7  FF8301000080      inc dword [ebx+0x80000001]
000044DD  C20408            ret 0x804
000044E0  0000              add [eax],al
000044E2  0000              add [eax],al
000044E4  0100              add [eax],eax
000044E6  17                pop ss
000044E7  009901000081      add [ecx+0x81000001],bl
000044ED  C1040800          rol dword [eax+ecx],0x0
000044F1  0000              add [eax],al
000044F3  0000              add [eax],al
000044F5  0012              add [edx],dl
000044F7  00AA01000081      add [edx+0x81000001],ch
000044FD  C1040800          rol dword [eax+ecx],0x0
00004501  0000              add [eax],al
00004503  0000              add [eax],al
00004505  0012              add [edx],dl
00004507  00BD0100009C      add [ebp+0x9c000001],bh
0000450D  C1040800          rol dword [eax+ecx],0x0
00004511  0000              add [eax],al
00004513  0001              add [ecx],al
00004515  001500C60100      add [0x1c600],dl
0000451B  005F94            add [edi-0x6c],bl
0000451E  0408              add al,0x8
00004520  3E0100            add [ds:eax],eax
00004523  0022              add [edx],ah
00004525  000C00            add [eax+eax],cl
00004528  3C02              cmp al,0x2
0000452A  0000              add [eax],al
0000452C  C8C20408          enter 0x4c2,0x8
00004530  0000              add [eax],al
00004532  0000              add [eax],al
00004534  2000              and [eax],al
00004536  1800              sbb [eax],al
00004538  47                inc edi
00004539  0200              add al,[eax]
0000453B  00E0              add al,ah
0000453D  C20408            ret 0x804
00004540  90                nop
00004541  0000              add [eax],al
00004543  0011              add [ecx],dl
00004545  0019              add [ecx],bl
00004547  005D02            add [ebp+0x2],bl
0000454A  0000              add [eax],al
0000454C  AC                lodsb
0000454D  8F0408            pop dword [eax+ecx]
00004550  3E0000            add [ds:eax],al
00004553  0022              add [edx],ah
00004555  000C00            add [eax+eax],cl
00004558  9F                lahf
00004559  0200              add al,[eax]
0000455B  000A              add [edx],cl
0000455D  A004081200        mov al,[0x120804]
00004562  0000              add [eax],al
00004564  2200              and al,[eax]
00004566  0C00              or al,0x0
00004568  0B03              or eax,[ebx]
0000456A  0000              add [eax],al
0000456C  869904082C00      xchg bl,[ecx+0x2c0804]
00004572  0000              add [eax],al
00004574  2200              and al,[eax]
00004576  0C00              or al,0x0
00004578  690300000000      imul eax,[ebx],dword 0x0
0000457E  0000              add [eax],al
00004580  0000              add [eax],al
00004582  0000              add [eax],al
00004584  1200              adc al,[eax]
00004586  0000              add [eax],al
00004588  800300            add byte [ebx],0x0
0000458B  003F              add [edi],bh
0000458D  9D                popf
0000458E  0408              add al,0x8
00004590  5E                pop esi
00004591  0000              add [eax],al
00004593  0022              add [edx],ah
00004595  000C00            add [eax+eax],cl
00004598  FB                sti
00004599  0300              add eax,[eax]
0000459B  0000              add [eax],al
0000459D  0000              add [eax],al
0000459F  0000              add [eax],al
000045A1  0000              add [eax],al
000045A3  0012              add [edx],dl
000045A5  0000              add [eax],al
000045A7  001504000050      add [0x50000004],dl
000045AD  A204080500        mov [0x50804],al
000045B2  0000              add [eax],al
000045B4  1200              adc al,[eax]
000045B6  0C00              or al,0x0
000045B8  25040000EA        and eax,0xea000004
000045BD  8F0408            pop dword [eax+ecx]
000045C0  0800              or [eax],al
000045C2  0000              add [eax],al
000045C4  2200              and al,[eax]
000045C6  0C00              or al,0x0
000045C8  6A04              push byte +0x4
000045CA  0000              add [eax],al
000045CC  F0870408          lock xchg eax,[eax+ecx]
000045D0  0000              add [eax],al
000045D2  0000              add [eax],al
000045D4  1200              adc al,[eax]
000045D6  0C00              or al,0x0
000045D8  7104              jno 0x45de
000045DA  0000              add [eax],al
000045DC  C6                db 0xC6
000045DD  8C0408            mov [eax+ecx],es
000045E0  1800              sbb [eax],al
000045E2  0000              add [eax],al
000045E4  2200              and al,[eax]
000045E6  0C00              or al,0x0
000045E8  7C04              jl 0x45ee
000045EA  0000              add [eax],al
000045EC  54                push esp
000045ED  A004083401        mov al,[0x1340804]
000045F2  0000              add [eax],al
000045F4  2200              and al,[eax]
000045F6  0C00              or al,0x0
000045F8  F70400009E9D04    test dword [eax+eax],0x49d9e00
000045FF  080A              or [edx],cl
00004601  0000              add [eax],al
00004603  0022              add [edx],ah
00004605  000C00            add [eax+eax],cl
00004608  33050000188D      xor eax,[0x8d180000]
0000460E  0408              add al,0x8
00004610  1300              adc eax,[eax]
00004612  0000              add [eax],al
00004614  2200              and al,[eax]
00004616  0C00              or al,0x0
00004618  4F                dec edi
00004619  050000EA95        add eax,0x95ea0000
0000461E  0408              add al,0x8
00004620  1A00              sbb al,[eax]
00004622  0000              add [eax],al
00004624  2200              and al,[eax]
00004626  0C00              or al,0x0
00004628  6F                outsd
00004629  050000B09D        add eax,0x9db00000
0000462E  0408              add al,0x8
00004630  3200              xor al,[eax]
00004632  0000              add [eax],al
00004634  2200              and al,[eax]
00004636  0C00              or al,0x0
00004638  9F                lahf
00004639  050000229C        add eax,0x9c220000
0000463E  0408              add al,0x8
00004640  2C00              sub al,0x0
00004642  0000              add [eax],al
00004644  2200              and al,[eax]
00004646  0C00              or al,0x0
00004648  FD                std
00004649  050000DC8D        add eax,0x8ddc0000
0000464E  0408              add al,0x8
00004650  1800              sbb [eax],al
00004652  0000              add [eax],al
00004654  2200              and al,[eax]
00004656  0C00              or al,0x0
00004658  2806              sub [esi],al
0000465A  0000              add [eax],al
0000465C  E09A              loopne 0x45f8
0000465E  0408              add al,0x8
00004660  360000            add [ss:eax],al
00004663  0022              add [edx],ah
00004665  000C00            add [eax+eax],cl
00004668  6606              o16 push es
0000466A  0000              add [eax],al
0000466C  0000              add [eax],al
0000466E  0000              add [eax],al
00004670  0000              add [eax],al
00004672  0000              add [eax],al
00004674  2000              and [eax],al
00004676  0000              add [eax],al
00004678  7506              jnz 0x4680
0000467A  0000              add [eax],al
0000467C  0000              add [eax],al
0000467E  0000              add [eax],al
00004680  0000              add [eax],al
00004682  0000              add [eax],al
00004684  2000              and [eax],al
00004686  0000              add [eax],al
00004688  8906              mov [esi],eax
0000468A  0000              add [eax],al
0000468C  04A3              add al,0xa3
0000468E  0408              add al,0x8
00004690  0400              add al,0x0
00004692  0000              add [eax],al
00004694  1100              adc [eax],eax
00004696  0E                push cs
00004697  009006000000      add [eax+0x6],dl
0000469D  0000              add [eax],al
0000469F  0000              add [eax],al
000046A1  0000              add [eax],al
000046A3  0012              add [edx],dl
000046A5  0000              add [eax],al
000046A7  00A4060000F492    add [esi+eax+0x92f40000],ah
000046AE  0408              add al,0x8
000046B0  41                inc ecx
000046B1  0000              add [eax],al
000046B3  0022              add [edx],ah
000046B5  000C00            add [eax+eax],cl
000046B8  1907              sbb [edi],eax
000046BA  0000              add [eax],al
000046BC  0E                push cs
000046BD  92                xchg eax,edx
000046BE  0408              add al,0x8
000046C0  37                aaa
000046C1  0000              add [eax],al
000046C3  0022              add [edx],ah
000046C5  000C00            add [eax+eax],cl
000046C8  5D                pop ebp
000046C9  07                pop es
000046CA  0000              add [eax],al
000046CC  CC                int3
000046CD  8E0408            mov es,[eax+ecx]
000046D0  1300              adc eax,[eax]
000046D2  0000              add [eax],al
000046D4  2200              and al,[eax]
000046D6  0C00              or al,0x0
000046D8  9D                popf
000046D9  07                pop es
000046DA  0000              add [eax],al
000046DC  46                inc esi
000046DD  92                xchg eax,edx
000046DE  0408              add al,0x8
000046E0  44                inc esp
000046E1  0000              add [eax],al
000046E3  0022              add [edx],ah
000046E5  000C00            add [eax+eax],cl
000046E8  E007              loopne 0x46f1
000046EA  0000              add [eax],al
000046EC  E8A2040800        call 0x84b93
000046F1  0000              add [eax],al
000046F3  0012              add [edx],dl
000046F5  000D00E60700      add [0x7e600],cl
000046FB  00848D04085700    add [ebp+ecx*4+0x570804],al
00004702  0000              add [eax],al
00004704  2200              and al,[eax]
00004706  0C00              or al,0x0
00004708  1108              adc [eax],ecx
0000470A  0000              add [eax],al
0000470C  0000              add [eax],al
0000470E  0000              add [eax],al
00004710  0000              add [eax],al
00004712  0000              add [eax],al
00004714  1200              adc al,[eax]
00004716  0000              add [eax],al
00004718  360800            or [ss:eax],al
0000471B  001B              add [ebx],bl
0000471D  90                nop
0000471E  0408              add al,0x8
00004720  2C00              sub al,0x0
00004722  0000              add [eax],al
00004724  2200              and al,[eax]
00004726  0C00              or al,0x0
00004728  94                xchg eax,esp
00004729  0800              or [eax],al
0000472B  004E9C            add [esi-0x64],cl
0000472E  0408              add al,0x8
00004730  A000000022        mov al,[0x22000000]
00004735  000C00            add [eax+eax],cl
00004738  07                pop es
00004739  0900              or [eax],eax
0000473B  004191            add [ecx-0x6f],al
0000473E  0408              add al,0x8
00004740  CD00              int 0x0
00004742  0000              add [eax],al
00004744  2200              and al,[eax]
00004746  0C00              or al,0x0
00004748  830900            or dword [ecx],byte +0x0
0000474B  00DA              add dl,bl
0000474D  9A040805000000    call 0x0:0x50804
00004754  2200              and al,[eax]
00004756  0C00              or al,0x0
00004758  BB0900008A        mov ebx,0x8a000009
0000475D  92                xchg eax,edx
0000475E  0408              add al,0x8
00004760  27                daa
00004761  0000              add [eax],al
00004763  0022              add [edx],ah
00004765  000C00            add [eax+eax],cl
00004768  FE09              dec byte [ecx]
0000476A  0000              add [eax],al
0000476C  F4                hlt
0000476D  8D0408            lea eax,[eax+ecx]
00004770  1F                pop ds
00004771  0000              add [eax],al
00004773  0022              add [edx],ah
00004775  000C00            add [eax+eax],cl
00004778  2D0A000000        sub eax,0xa
0000477D  0000              add [eax],al
0000477F  0000              add [eax],al
00004781  0000              add [eax],al
00004783  0012              add [edx],dl
00004785  0000              add [eax],al
00004787  004A0A            add [edx+0xa],cl
0000478A  0000              add [eax],al
0000478C  0C90              or al,0x90
0000478E  0408              add al,0x8
00004790  0F0000            sldt [eax]
00004793  0022              add [edx],ah
00004795  000C00            add [eax+eax],cl
00004798  9C                pushf
00004799  0A00              or al,[eax]
0000479B  004790            add [edi-0x70],al
0000479E  0408              add al,0x8
000047A0  52                push edx
000047A1  0000              add [eax],al
000047A3  0022              add [edx],ah
000047A5  000C00            add [eax+eax],cl
000047A8  0D0B000060        or eax,0x6000000b
000047AD  870408            xchg eax,[eax+ecx]
000047B0  0000              add [eax],al
000047B2  0000              add [eax],al
000047B4  1200              adc al,[eax]
000047B6  0000              add [eax],al
000047B8  320B              xor cl,[ebx]
000047BA  0000              add [eax],al
000047BC  10890408CD00      adc [ecx+0xcd0804],cl
000047C2  0000              add [eax],al
000047C4  1200              adc al,[eax]
000047C6  0C00              or al,0x0
000047C8  4F                dec edi
000047C9  0B00              or eax,[eax]
000047CB  004D9B            add [ebp-0x65],cl
000047CE  0408              add al,0x8
000047D0  D500              aad 0x0
000047D2  0000              add [eax],al
000047D4  2200              and al,[eax]
000047D6  0C00              or al,0x0
000047D8  BD0B000000        mov ebp,0xb
000047DD  0000              add [eax],al
000047DF  0000              add [eax],al
000047E1  0000              add [eax],al
000047E3  0020              add [eax],ah
000047E5  0000              add [eax],al
000047E7  00D9              add cl,bl
000047E9  0B00              or eax,[eax]
000047EB  00048D04081300    add [ecx*4+0x130804],al
000047F2  0000              add [eax],al
000047F4  2200              and al,[eax]
000047F6  0C00              or al,0x0
000047F8  F5                cmc
000047F9  0B00              or eax,[eax]
000047FB  0000              add [eax],al
000047FD  0000              add [eax],al
000047FF  0000              add [eax],al
00004801  0000              add [eax],al
00004803  0012              add [edx],dl
00004805  0000              add [eax],al
00004807  003A              add [edx],bh
00004809  0C00              or al,0x0
0000480B  002F              add [edi],ch
0000480D  A004082500        mov al,[0x250804]
00004812  0000              add [eax],al
00004814  2200              and al,[eax]
00004816  0C00              or al,0x0
00004818  7E0C              jng 0x4826
0000481A  0000              add [eax],al
0000481C  08A304080400      or [ebx+0x40804],ah
00004822  0000              add [eax],al
00004824  1100              adc [eax],eax
00004826  0E                push cs
00004827  008D0C0000A8      add [ebp+0xa800000c],cl
0000482D  8E0408            mov es,[eax+ecx]
00004830  1800              sbb [eax],al
00004832  0000              add [eax],al
00004834  2200              and al,[eax]
00004836  0C00              or al,0x0
00004838  A00C0000DE        mov al,[0xde00000c]
0000483D  8C0408            mov [eax+ecx],es
00004840  0800              or [eax],al
00004842  0000              add [eax],al
00004844  2200              and al,[eax]
00004846  0C00              or al,0x0
00004848  A80C              test al,0xc
0000484A  0000              add [eax],al
0000484C  99                cdq
0000484D  90                nop
0000484E  0408              add al,0x8
00004850  A800              test al,0x0
00004852  0000              add [eax],al
00004854  2200              and al,[eax]
00004856  0C00              or al,0x0
00004858  220D00002A8F      and cl,[0x8f2a0000]
0000485E  0408              add al,0x8
00004860  810000002200      add dword [eax],0x220000
00004866  0C00              or al,0x0
00004868  54                push esp
00004869  0D00000000        or eax,0x0
0000486E  0000              add [eax],al
00004870  0000              add [eax],al
00004872  0000              add [eax],al
00004874  2000              and [eax],al
00004876  0000              add [eax],al
00004878  6E                outsb
00004879  0D0000C8C2        or eax,0xc2c80000
0000487E  0408              add al,0x8
00004880  0000              add [eax],al
00004882  0000              add [eax],al
00004884  1000              adc [eax],al
00004886  1800              sbb [eax],al
00004888  7B0D              jpo 0x4897
0000488A  0000              add [eax],al
0000488C  E3A1              jecxz 0x482f
0000488E  0408              add al,0x8
00004890  660000            o16 add [eax],al
00004893  0022              add [edx],ah
00004895  000C00            add [eax+eax],cl
00004898  F1                int1
00004899  0D0000F28F        or eax,0x8ff20000
0000489E  0408              add al,0x8
000048A0  1A00              sbb al,[eax]
000048A2  0000              add [eax],al
000048A4  2200              and al,[eax]
000048A6  0C00              or al,0x0
000048A8  240E              and al,0xe
000048AA  0000              add [eax],al
000048AC  219A0408B900      and [edx+0xb90804],ebx
000048B2  0000              add [eax],al
000048B4  2200              and al,[eax]
000048B6  0C00              or al,0x0
000048B8  A00E000036        mov al,[0x3600000e]
000048BD  8E0408            mov es,[eax+ecx]
000048C0  7100              jno 0x48c2
000048C2  0000              add [eax],al
000048C4  2200              and al,[eax]
000048C6  0C00              or al,0x0
000048C8  090F              or [edi],ecx
000048CA  0000              add [eax],al
000048CC  C7                db 0xC7
000048CD  99                cdq
000048CE  0408              add al,0x8
000048D0  5A                pop edx
000048D1  0000              add [eax],al
000048D3  0022              add [edx],ah
000048D5  000C00            add [eax+eax],cl
000048D8  750F              jnz 0x48e9
000048DA  0000              add [eax],al
000048DC  E08E              loopne 0x486c
000048DE  0408              add al,0x8
000048E0  4A                dec edx
000048E1  0000              add [eax],al
000048E3  0022              add [edx],ah
000048E5  000C00            add [eax+eax],cl
000048E8  AC                lodsb
000048E9  0F0000            sldt [eax]
000048EC  E68C              out 0x8c,al
000048EE  0408              add al,0x8
000048F0  1D00000022        sbb eax,0x22000000
000048F5  000C00            add [eax+eax],cl
000048F8  C40F              les ecx,[edi]
000048FA  0000              add [eax],al
000048FC  CC                int3
000048FD  8E0408            mov es,[eax+ecx]
00004900  1300              adc eax,[eax]
00004902  0000              add [eax],al
00004904  2200              and al,[eax]
00004906  0C00              or al,0x0
00004908  0410              add al,0x10
0000490A  0000              add [eax],al
0000490C  2C8D              sub al,0x8d
0000490E  0408              add al,0x8
00004910  58                pop eax
00004911  0000              add [eax],al
00004913  0022              add [edx],ah
00004915  000C00            add [eax+eax],cl
00004918  3910              cmp [eax],edx
0000491A  0000              add [eax],al
0000491C  35930408F1        xor eax,0xf1080493
00004921  0000              add [eax],al
00004923  0022              add [edx],ah
00004925  000C00            add [eax+eax],cl
00004928  BC10000068        mov esp,0x68000010
0000492D  96                xchg eax,esi
0000492E  0408              add al,0x8
00004930  0500000022        add eax,0x22000000
00004935  000C00            add [eax+eax],cl
00004938  FB                sti
00004939  1000              adc [eax],al
0000493B  00D0              add al,dl
0000493D  C20408            ret 0x804
00004940  0000              add [eax],al
00004942  0000              add [eax],al
00004944  1102              adc [edx],eax
00004946  1800              sbb [eax],al
00004948  07                pop es
00004949  1100              adc [eax],eax
0000494B  0088A1040846      add [eax+0x460804a1],cl
00004951  0000              add [eax],al
00004953  0022              add [edx],ah
00004955  000C00            add [eax+eax],cl
00004958  2B11              sub edx,[ecx]
0000495A  0000              add [eax],al
0000495C  80C304            add bl,0x4
0000495F  088C0000001100    or [eax+eax+0x110000],cl
00004966  1900              sbb [eax],eax
00004968  42                inc edx
00004969  1100              adc [eax],eax
0000496B  00CC              add ah,cl
0000496D  C20408            ret 0x804
00004970  0000              add [eax],al
00004972  0000              add [eax],al
00004974  1102              adc [edx],eax
00004976  1800              sbb [eax],al
00004978  4F                dec edi
00004979  1100              adc [eax],eax
0000497B  0094C104080000    add [ecx+eax*8+0x804],dl
00004982  0000              add [eax],al
00004984  1102              adc [edx],eax
00004986  1300              adc eax,[eax]
00004988  5C                pop esp
00004989  1100              adc [eax],eax
0000498B  0060A2            add [eax-0x5e],ah
0000498E  0408              add al,0x8
00004990  5A                pop edx
00004991  0000              add [eax],al
00004993  0012              add [edx],dl
00004995  000C00            add [eax+eax],cl
00004998  6C                insb
00004999  1100              adc [eax],eax
0000499B  00A89D040808      add [eax+0x808049d],ch
000049A1  0000              add [eax],al
000049A3  0022              add [edx],ah
000049A5  000C00            add [eax+eax],cl
000049A8  98                cwde
000049A9  1100              adc [eax],eax
000049AB  00C6              add dh,al
000049AD  8E0408            mov es,[eax+ecx]
000049B0  0500000022        add eax,0x22000000
000049B5  000C00            add [eax+eax],cl
000049B8  CC                int3
000049B9  1100              adc [eax],eax
000049BB  003496            add [esi+edx*4],dh
000049BE  0408              add al,0x8
000049C0  1300              adc eax,[eax]
000049C2  0000              add [eax],al
000049C4  2200              and al,[eax]
000049C6  0C00              or al,0x0
000049C8  0E                push cs
000049C9  1200              adc al,[eax]
000049CB  0000              add [eax],al
000049CD  0000              add [eax],al
000049CF  0000              add [eax],al
000049D1  0000              add [eax],al
000049D3  0012              add [edx],dl
000049D5  0000              add [eax],al
000049D7  0021              add [ecx],ah
000049D9  1200              adc al,[eax]
000049DB  0026              add [esi],ah
000049DD  94                xchg eax,esp
000049DE  0408              add al,0x8
000049E0  3900              cmp [eax],eax
000049E2  0000              add [eax],al
000049E4  2200              and al,[eax]
000049E6  0C00              or al,0x0
000049E8  7212              jc 0x49fc
000049EA  0000              add [eax],al
000049EC  16                push ss
000049ED  9B                wait
000049EE  0408              add al,0x8
000049F0  37                aaa
000049F1  0000              add [eax],al
000049F3  0022              add [edx],ah
000049F5  000C00            add [eax+eax],cl
000049F8  CB                retf
000049F9  1200              adc al,[eax]
000049FB  0018              add [eax],bl
000049FD  8D0408            lea eax,[eax+ecx]
00004A00  1300              adc eax,[eax]
00004A02  0000              add [eax],al
00004A04  2200              and al,[eax]
00004A06  0C00              or al,0x0
00004A08  E712              out 0x12,eax
00004A0A  0000              add [eax],al
00004A0C  848D04085700      test [ebp+0x570804],cl
00004A12  0000              add [eax],al
00004A14  2200              and al,[eax]
00004A16  0C00              or al,0x0
00004A18  1213              adc dl,[ebx]
00004A1A  0000              add [eax],al
00004A1C  D0C2              rol dl,1
00004A1E  0408              add al,0x8
00004A20  0000              add [eax],al
00004A22  0000              add [eax],al
00004A24  1000              adc [eax],al
00004A26  1900              sbb [eax],eax
00004A28  1E                push ds
00004A29  1300              adc eax,[eax]
00004A2B  000E              add [esi],cl
00004A2D  97                xchg eax,edi
00004A2E  0408              add al,0x8
00004A30  51                push ecx
00004A31  0000              add [eax],al
00004A33  0022              add [edx],ah
00004A35  000C00            add [eax+eax],cl
00004A38  8C13              mov [ebx],ss
00004A3A  0000              add [eax],al
00004A3C  148E              adc al,0x8e
00004A3E  0408              add al,0x8
00004A40  2200              and al,[eax]
00004A42  0000              add [eax],al
00004A44  2200              and al,[eax]
00004A46  0C00              or al,0x0
00004A48  B913000004        mov ecx,0x4000013
00004A4D  8D0408            lea eax,[eax+ecx]
00004A50  1300              adc eax,[eax]
00004A52  0000              add [eax],al
00004A54  2200              and al,[eax]
00004A56  0C00              or al,0x0
00004A58  D513              aad 0x13
00004A5A  0000              add [eax],al
00004A5C  D99F04083100      fstp dword [edi+0x310804]
00004A62  0000              add [eax],al
00004A64  2200              and al,[eax]
00004A66  0C00              or al,0x0
00004A68  4C                dec esp
00004A69  1400              adc al,0x0
00004A6B  002C8D04085800    add [ecx*4+0x580804],ch
00004A72  0000              add [eax],al
00004A74  2200              and al,[eax]
00004A76  0C00              or al,0x0
00004A78  81140000479604    adc dword [eax+eax],0x4964700
00004A7F  0821              or [ecx],ah
00004A81  0000              add [eax],al
00004A83  0022              add [edx],ah
00004A85  000C00            add [eax+eax],cl
00004A88  BF140000DA        mov edi,0xda000014
00004A8D  9A040805000000    call 0x0:0x50804
00004A94  2200              and al,[eax]
00004A96  0C00              or al,0x0
00004A98  F71400            not dword [eax+eax]
00004A9B  006D96            add [ebp-0x6a],ch
00004A9E  0408              add al,0x8
00004AA0  A100000022        mov eax,[0x22000000]
00004AA5  000C00            add [eax+eax],cl
00004AA8  6D                insd
00004AA9  1500000000        adc eax,0x0
00004AAE  0000              add [eax],al
00004AB0  0000              add [eax],al
00004AB2  0000              add [eax],al
00004AB4  1200              adc al,[eax]
00004AB6  0000              add [eax],al
00004AB8  85150000A88E      test [0x8ea80000],edx
00004ABE  0408              add al,0x8
00004AC0  1800              sbb [eax],al
00004AC2  0000              add [eax],al
00004AC4  2200              and al,[eax]
00004AC6  0C00              or al,0x0
00004AC8  98                cwde
00004AC9  1500009B97        adc eax,0x979b0000
00004ACE  0408              add al,0x8
00004AD0  2C01              sub al,0x1
00004AD2  0000              add [eax],al
00004AD4  2200              and al,[eax]
00004AD6  0C00              or al,0x0
00004AD8  1416              adc al,0x16
00004ADA  0000              add [eax],al
00004ADC  2A8F04088100      sub cl,[edi+0x810804]
00004AE2  0000              add [eax],al
00004AE4  2200              and al,[eax]
00004AE6  0C00              or al,0x0
00004AE8  46                inc esi
00004AE9  16                push ss
00004AEA  0000              add [eax],al
00004AEC  18C4              sbb ah,al
00004AEE  0408              add al,0x8
00004AF0  0000              add [eax],al
00004AF2  0000              add [eax],al
00004AF4  1000              adc [eax],al
00004AF6  1900              sbb [eax],eax
00004AF8  4B                dec ebx
00004AF9  16                push ss
00004AFA  0000              add [eax],al
00004AFC  0000              add [eax],al
00004AFE  0000              add [eax],al
00004B00  0000              add [eax],al
00004B02  0000              add [eax],al
00004B04  1200              adc al,[eax]
00004B06  0000              add [eax],al
00004B08  69160000E29D      imul edx,[esi],dword 0x9de20000
00004B0E  0408              add al,0x8
00004B10  F70100002200      test dword [ecx],0x220000
00004B16  0C00              or al,0x0
00004B18  E616              out 0x16,al
00004B1A  0000              add [eax],al
00004B1C  0C90              or al,0x90
00004B1E  0408              add al,0x8
00004B20  0F0000            sldt [eax]
00004B23  0022              add [edx],ah
00004B25  000C00            add [eax+eax],cl
00004B28  3817              cmp [edi],dl
00004B2A  0000              add [eax],al
00004B2C  1CA0              sbb al,0xa0
00004B2E  0408              add al,0x8
00004B30  1300              adc eax,[eax]
00004B32  0000              add [eax],al
00004B34  2200              and al,[eax]
00004B36  0C00              or al,0x0
00004B38  BC170000EC        mov esp,0xec000017
00004B3D  92                xchg eax,edx
00004B3E  0408              add al,0x8
00004B40  0800              or [eax],al
00004B42  0000              add [eax],al
00004B44  2200              and al,[eax]
00004B46  0C00              or al,0x0
00004B48  0E                push cs
00004B49  1800              sbb [eax],al
00004B4B  009D9504084D      add [ebp+0x4d080495],bl
00004B51  0000              add [eax],al
00004B53  0022              add [edx],ah
00004B55  000C00            add [eax+eax],cl
00004B58  8E18              mov ds,[eax]
00004B5A  0000              add [eax],al
00004B5C  B299              mov dl,0x99
00004B5E  0408              add al,0x8
00004B60  1500000022        adc eax,0x22000000
00004B65  000C00            add [eax+eax],cl
00004B68  DC18              fcomp qword [eax]
00004B6A  0000              add [eax],al
00004B6C  D2980408B400      rcr byte [eax+0xb40804],cl
00004B72  0000              add [eax],al
00004B74  2200              and al,[eax]
00004B76  0C00              or al,0x0
00004B78  61                popa
00004B79  1900              sbb [eax],eax
00004B7B  00D2              add dl,dl
00004B7D  92                xchg eax,edx
00004B7E  0408              add al,0x8
00004B80  1A00              sbb al,[eax]
00004B82  0000              add [eax],al
00004B84  2200              and al,[eax]
00004B86  0C00              or al,0x0
00004B88  8919              mov [ecx],ebx
00004B8A  0000              add [eax],al
00004B8C  0000              add [eax],al
00004B8E  0000              add [eax],al
00004B90  0000              add [eax],al
00004B92  0000              add [eax],al
00004B94  1200              adc al,[eax]
00004B96  0000              add [eax],al
00004B98  AF                scasd
00004B99  1900              sbb [eax],eax
00004B9B  000496            add [esi+edx*4],al
00004B9E  0408              add al,0x8
00004BA0  2F                das
00004BA1  0000              add [eax],al
00004BA3  0022              add [edx],ah
00004BA5  000C00            add [eax+eax],cl
00004BA8  EC                in al,dx
00004BA9  1900              sbb [eax],eax
00004BAB  00E6              add dh,ah
00004BAD  8C0408            mov [eax+ecx],es
00004BB0  1D00000022        sbb eax,0x22000000
00004BB5  000C00            add [eax+eax],cl
00004BB8  041A              add al,0x1a
00004BBA  0000              add [eax],al
00004BBC  0E                push cs
00004BBD  92                xchg eax,edx
00004BBE  0408              add al,0x8
00004BC0  37                aaa
00004BC1  0000              add [eax],al
00004BC3  0022              add [edx],ah
00004BC5  000C00            add [eax+eax],cl
00004BC8  48                dec eax
00004BC9  1A00              sbb al,[eax]
00004BCB  00C0              add al,al
00004BCD  870408            xchg eax,[eax+ecx]
00004BD0  0000              add [eax],al
00004BD2  0000              add [eax],al
00004BD4  1200              adc al,[eax]
00004BD6  0000              add [eax],al
00004BD8  90                nop
00004BD9  1A00              sbb al,[eax]
00004BDB  00C8              add al,cl
00004BDD  98                cwde
00004BDE  0408              add al,0x8
00004BE0  0A00              or al,[eax]
00004BE2  0000              add [eax],al
00004BE4  2200              and al,[eax]
00004BE6  0C00              or al,0x0
00004BE8  DF1A              fistp word [edx]
00004BEA  0000              add [eax],al
00004BEC  D0C2              rol dl,1
00004BEE  0408              add al,0x8
00004BF0  0000              add [eax],al
00004BF2  0000              add [eax],al
00004BF4  1000              adc [eax],al
00004BF6  1800              sbb [eax],al
00004BF8  E61A              out 0x1a,al
00004BFA  0000              add [eax],al
00004BFC  EE                out dx,al
00004BFD  9C                pushf
00004BFE  0408              add al,0x8
00004C00  1500000022        adc eax,0x22000000
00004C05  000C00            add [eax+eax],cl
00004C08  341B              xor al,0x1b
00004C0A  0000              add [eax],al
00004C0C  D08704080000      rol byte [edi+0x804],1
00004C12  0000              add [eax],al
00004C14  1200              adc al,[eax]
00004C16  0000              add [eax],al
00004C18  55                push ebp
00004C19  1B00              sbb eax,[eax]
00004C1B  00CE              add dh,cl
00004C1D  A104081500        mov eax,[0x150804]
00004C22  0000              add [eax],al
00004C24  2200              and al,[eax]
00004C26  0C00              or al,0x0
00004C28  C11B00            rcr dword [ebx],0x0
00004C2B  0000              add [eax],al
00004C2D  0000              add [eax],al
00004C2F  0000              add [eax],al
00004C31  0000              add [eax],al
00004C33  0012              add [edx],dl
00004C35  0000              add [eax],al
00004C37  00D9              add cl,bl
00004C39  1B00              sbb eax,[eax]
00004C3B  00B192040821      add [ecx+0x21080492],dh
00004C41  0000              add [eax],al
00004C43  0022              add [edx],ah
00004C45  000C00            add [eax+eax],cl
00004C48  261C00            es sbb al,0x0
00004C4B  006097            add [eax-0x69],ah
00004C4E  0408              add al,0x8
00004C50  3B00              cmp eax,[eax]
00004C52  0000              add [eax],al
00004C54  2200              and al,[eax]
00004C56  0C00              or al,0x0
00004C58  771C              ja 0x4c76
00004C5A  0000              add [eax],al
00004C5C  C08E0408050000    ror byte [esi+0x50804],0x0
00004C63  0022              add [edx],ah
00004C65  000C00            add [eax+eax],cl
00004C68  AB                stosd
00004C69  1C00              sbb al,0x0
00004C6B  00C6              add dh,al
00004C6D  8E0408            mov es,[eax+ecx]
00004C70  0500000022        add eax,0x22000000
00004C75  000C00            add [eax+eax],cl
00004C78  DF1C00            fistp word [eax+eax]
00004C7B  00EA              add dl,ch
00004C7D  95                xchg eax,ebp
00004C7E  0408              add al,0x8
00004C80  1A00              sbb al,[eax]
00004C82  0000              add [eax],al
00004C84  2200              and al,[eax]
00004C86  0C00              or al,0x0
00004C88  FF1C00            call far [eax+eax]
00004C8B  00C0              add al,al
00004C8D  8E0408            mov es,[eax+ecx]
00004C90  0500000022        add eax,0x22000000
00004C95  000C00            add [eax+eax],cl
00004C98  331D0000BAA2      xor ebx,[0xa2ba0000]
00004C9E  0408              add al,0x8
00004CA0  0000              add [eax],al
00004CA2  0000              add [eax],al
00004CA4  1202              adc al,[edx]
00004CA6  0C00              or al,0x0
00004CA8  4A                dec edx
00004CA9  1D0000DD89        sbb eax,0x89dd0000
00004CAE  0408              add al,0x8
00004CB0  8E02              mov es,[edx]
00004CB2  0000              add [eax],al
00004CB4  1200              adc al,[eax]
00004CB6  0C00              or al,0x0
00004CB8  4F                dec edi
00004CB9  1D0000E08E        sbb eax,0x8ee00000
00004CBE  0408              add al,0x8
00004CC0  4A                dec edx
00004CC1  0000              add [eax],al
00004CC3  0022              add [edx],ah
00004CC5  000C00            add [eax+eax],cl
00004CC8  861D0000BC86      xchg bl,[0x86bc0000]
00004CCE  0408              add al,0x8
00004CD0  0000              add [eax],al
00004CD2  0000              add [eax],al
00004CD4  1200              adc al,[eax]
00004CD6  0A00              or al,[eax]
00004CD8  8C1D0000039D      mov [0x9d030000],ds
00004CDE  0408              add al,0x8
00004CE0  1A00              sbb al,[eax]
00004CE2  0000              add [eax],al
00004CE4  2200              and al,[eax]
00004CE6  0C00              or al,0x0
00004CE8  EE                out dx,al
00004CE9  1D00001D9D        sbb eax,0x9d1d0000
00004CEE  0408              add al,0x8
00004CF0  2200              and al,[eax]
00004CF2  0000              add [eax],al
00004CF4  2200              and al,[eax]
00004CF6  0C00              or al,0x0
00004CF8  00696E            add [ecx+0x6e],ch
00004CFB  69742E6300696E69  imul esi,[esi+ebp+0x63],dword 0x696e6900
00004D03  7466              jz 0x4d6b
00004D05  696E692E630063    imul ebp,[esi+0x69],dword 0x6300632e
00004D0C  7274              jc 0x4d82
00004D0E  7374              jnc 0x4d84
00004D10  7566              jnz 0x4d78
00004D12  662E6300          o16 arpl [cs:eax],ax
00004D16  5F                pop edi
00004D17  5F                pop edi
00004D18  43                inc ebx
00004D19  54                push esp
00004D1A  4F                dec edi
00004D1B  52                push edx
00004D1C  5F                pop edi
00004D1D  4C                dec esp
00004D1E  49                dec ecx
00004D1F  53                push ebx
00004D20  54                push esp
00004D21  5F                pop edi
00004D22  5F                pop edi
00004D23  005F5F            add [edi+0x5f],bl
00004D26  44                inc esp
00004D27  54                push esp
00004D28  4F                dec edi
00004D29  52                push edx
00004D2A  5F                pop edi
00004D2B  4C                dec esp
00004D2C  49                dec ecx
00004D2D  53                push ebx
00004D2E  54                push esp
00004D2F  5F                pop edi
00004D30  5F                pop edi
00004D31  005F5F            add [edi+0x5f],bl
00004D34  4A                dec edx
00004D35  43                inc ebx
00004D36  52                push edx
00004D37  5F                pop edi
00004D38  4C                dec esp
00004D39  49                dec ecx
00004D3A  53                push ebx
00004D3B  54                push esp
00004D3C  5F                pop edi
00004D3D  5F                pop edi
00004D3E  00646572          add [ebp+0x72],ah
00004D42  656769737465725F  imul esi,[gs:bp+di+0x74],dword 0x745f7265
         -74
00004D4B  6D                insd
00004D4C  5F                pop edi
00004D4D  636C6F6E          arpl [edi+ebp*2+0x6e],bp
00004D51  657300            gs jnc 0x4d54
00004D54  7265              jc 0x4dbb
00004D56  6769737465725F74  imul esi,[bp+di+0x74],dword 0x745f7265
00004D5E  6D                insd
00004D5F  5F                pop edi
00004D60  636C6F6E          arpl [edi+ebp*2+0x6e],bp
00004D64  657300            gs jnc 0x4d67
00004D67  5F                pop edi
00004D68  5F                pop edi
00004D69  646F              fs outsd
00004D6B  5F                pop edi
00004D6C  676C              a16 insb
00004D6E  6F                outsd
00004D6F  62616C            bound esp,[ecx+0x6c]
00004D72  5F                pop edi
00004D73  64746F            fs jz 0x4de5
00004D76  7273              jc 0x4deb
00004D78  5F                pop edi
00004D79  61                popa
00004D7A  7578              jnz 0x4df4
00004D7C  00636F            add [ebx+0x6f],ah
00004D7F  6D                insd
00004D80  706C              jo 0x4dee
00004D82  657465            gs jz 0x4dea
00004D85  642E3333          xor esi,[cs:ebx]
00004D89  3238              xor bh,[eax]
00004D8B  0064746F          add [esp+esi*2+0x6f],ah
00004D8F  725F              jc 0x4df0
00004D91  6964782E33333330  imul esp,[eax+edi*2+0x2e],dword 0x30333333
00004D99  006672            add [esi+0x72],ah
00004D9C  61                popa
00004D9D  6D                insd
00004D9E  655F              gs pop edi
00004DA0  64756D            fs jnz 0x4e10
00004DA3  6D                insd
00004DA4  7900              jns 0x4da6
00004DA6  5F                pop edi
00004DA7  5F                pop edi
00004DA8  43                inc ebx
00004DA9  54                push esp
00004DAA  4F                dec edi
00004DAB  52                push edx
00004DAC  5F                pop edi
00004DAD  45                inc ebp
00004DAE  4E                dec esi
00004DAF  44                inc esp
00004DB0  5F                pop edi
00004DB1  5F                pop edi
00004DB2  005F5F            add [edi+0x5f],bl
00004DB5  46                inc esi
00004DB6  52                push edx
00004DB7  41                inc ecx
00004DB8  4D                dec ebp
00004DB9  45                inc ebp
00004DBA  5F                pop edi
00004DBB  45                inc ebp
00004DBC  4E                dec esi
00004DBD  44                inc esp
00004DBE  5F                pop edi
00004DBF  5F                pop edi
00004DC0  005F5F            add [edi+0x5f],bl
00004DC3  4A                dec edx
00004DC4  43                inc ebx
00004DC5  52                push edx
00004DC6  5F                pop edi
00004DC7  45                inc ebp
00004DC8  4E                dec esi
00004DC9  44                inc esp
00004DCA  5F                pop edi
00004DCB  5F                pop edi
00004DCC  005F5F            add [edi+0x5f],bl
00004DCF  646F              fs outsd
00004DD1  5F                pop edi
00004DD2  676C              a16 insb
00004DD4  6F                outsd
00004DD5  62616C            bound esp,[ecx+0x6c]
00004DD8  5F                pop edi
00004DD9  63746F72          arpl [edi+ebp*2+0x72],si
00004DDD  735F              jnc 0x4e3e
00004DDF  61                popa
00004DE0  7578              jnz 0x4e5a
00004DE2  0031              add [ecx],dh
00004DE4  3833              cmp [ebx],dh
00004DE6  353438365F        xor eax,0x5f363834
00004DEB  313437            xor [edi+esi],esi
00004DEE  353438365F        xor eax,0x5f363834
00004DF3  46                inc esi
00004DF4  656C              gs insb
00004DF6  69782E63707000    imul edi,[eax+0x2e],dword 0x707063
00004DFD  5F                pop edi
00004DFE  5A                pop edx
00004DFF  53                push ebx
00004E00  744C              jz 0x4e4e
00004E02  385F5F            cmp [edi+0x5f],bl
00004E05  696F696E697400    imul ebp,[edi+0x69],dword 0x74696e
00004E0C  5F                pop edi
00004E0D  5A                pop edx
00004E0E  3431              xor al,0x31
00004E10  5F                pop edi
00004E11  5F                pop edi
00004E12  7374              jnc 0x4e88
00004E14  61                popa
00004E15  7469              jz 0x4e80
00004E17  635F69            arpl [edi+0x69],bx
00004E1A  6E                outsb
00004E1B  697469616C697A61  imul esi,[ecx+ebp*2+0x61],dword 0x617a696c
00004E23  7469              jz 0x4e8e
00004E25  6F                outsd
00004E26  6E                outsb
00004E27  5F                pop edi
00004E28  61                popa
00004E29  6E                outsb
00004E2A  645F              fs pop edi
00004E2C  64657374          gs jnc 0x4ea4
00004E30  7275              jc 0x4ea7
00004E32  6374696F          arpl [ecx+ebp*2+0x6f],si
00004E36  6E                outsb
00004E37  5F                pop edi
00004E38  306969            xor [ecx+0x69],ch
00004E3B  005F5A            add [edi+0x5a],bl
00004E3E  4C                dec esp
00004E3F  33494E            xor ecx,[ecx+0x4e]
00004E42  46                inc esi
00004E43  005F47            add [edi+0x47],bl
00004E46  4C                dec esp
00004E47  4F                dec edi
00004E48  42                inc edx
00004E49  41                inc ecx
00004E4A  4C                dec esp
00004E4B  5F                pop edi
00004E4C  5F                pop edi
00004E4D  7375              jnc 0x4ec4
00004E4F  625F49            bound ebx,[edi+0x49]
00004E52  5F                pop edi
00004E53  5F                pop edi
00004E54  5A                pop edx
00004E55  3463              xor al,0x63
00004E57  6F                outsd
00004E58  6D                insd
00004E59  7052              jo 0x4ead
00004E5B  4B                dec ebx
00004E5C  53                push ebx
00004E5D  7434              jz 0x4e93
00004E5F  7061              jo 0x4ec2
00004E61  697249535F4969    imul esi,[edx+0x49],dword 0x69495f53
00004E68  6945694553335F    imul eax,[ebp+0x69],dword 0x5f335345
00004E6F  00656C            add [ebp+0x6c],ah
00004E72  662D696E          sub ax,0x6e69
00004E76  69742E63005F474C  imul esi,[esi+ebp+0x63],dword 0x4c475f00
00004E7E  4F                dec edi
00004E7F  42                inc edx
00004E80  41                inc ecx
00004E81  4C                dec esp
00004E82  5F                pop edi
00004E83  4F                dec edi
00004E84  46                inc esi
00004E85  46                inc esi
00004E86  53                push ebx
00004E87  45                inc ebp
00004E88  54                push esp
00004E89  5F                pop edi
00004E8A  54                push esp
00004E8B  41                inc ecx
00004E8C  42                inc edx
00004E8D  4C                dec esp
00004E8E  45                inc ebp
00004E8F  5F                pop edi
00004E90  005F5F            add [edi+0x5f],bl
00004E93  696E69745F6172    imul ebp,[esi+0x69],dword 0x72615f74
00004E9A  7261              jc 0x4efd
00004E9C  795F              jns 0x4efd
00004E9E  656E              gs outsb
00004EA0  64005F5F          add [fs:edi+0x5f],bl
00004EA4  696E69745F6172    imul ebp,[esi+0x69],dword 0x72615f74
00004EAB  7261              jc 0x4f0e
00004EAD  795F              jns 0x4f0e
00004EAF  7374              jnc 0x4f25
00004EB1  61                popa
00004EB2  7274              jc 0x4f28
00004EB4  005F44            add [edi+0x44],bl
00004EB7  59                pop ecx
00004EB8  4E                dec esi
00004EB9  41                inc ecx
00004EBA  4D                dec ebp
00004EBB  49                dec ecx
00004EBC  43                inc ebx
00004EBD  005F5A            add [edi+0x5a],bl
00004EC0  53                push ebx
00004EC1  7431              jz 0x4ef4
00004EC3  365F              ss pop edi
00004EC5  5F                pop edi
00004EC6  696E7365727469    imul ebp,[esi+0x73],dword 0x69747265
00004ECD  6F                outsd
00004ECE  6E                outsb
00004ECF  5F                pop edi
00004ED0  736F              jnc 0x4f41
00004ED2  7274              jc 0x4f48
00004ED4  49                dec ecx
00004ED5  4E                dec esi
00004ED6  395F5F            cmp [edi+0x5f],ebx
00004ED9  676E              a16 outsb
00004EDB  755F              jnz 0x4f3c
00004EDD  637878            arpl [eax+0x78],di
00004EE0  3137              xor [edi],esi
00004EE2  5F                pop edi
00004EE3  5F                pop edi
00004EE4  6E                outsb
00004EE5  6F                outsd
00004EE6  726D              jc 0x4f55
00004EE8  61                popa
00004EE9  6C                insb
00004EEA  5F                pop edi
00004EEB  6974657261746F72  imul esi,[ebp+0x72],dword 0x726f7461
00004EF3  49                dec ecx
00004EF4  50                push eax
00004EF5  53                push ebx
00004EF6  7434              jz 0x4f2c
00004EF8  7061              jo 0x4f5b
00004EFA  69724953325F49    imul esi,[edx+0x49],dword 0x495f3253
00004F01  69694569455374    imul ebp,[ecx+0x45],dword 0x74534569
00004F08  367665            ss jna 0x4f70
00004F0B  63746F72          arpl [edi+ebp*2+0x72],si
00004F0F  49                dec ecx
00004F10  53                push ebx
00004F11  345F              xor al,0x5f
00004F13  53                push ebx
00004F14  61                popa
00004F15  49                dec ecx
00004F16  53                push ebx
00004F17  345F              xor al,0x5f
00004F19  45                inc ebp
00004F1A  45                inc ebp
00004F1B  45                inc ebp
00004F1C  45                inc ebp
00004F1D  50                push eax
00004F1E  46                inc esi
00004F1F  62524B            bound edx,[edx+0x4b]
00004F22  53                push ebx
00004F23  345F              xor al,0x5f
00004F25  53                push ebx
00004F26  42                inc edx
00004F27  5F                pop edi
00004F28  45                inc ebp
00004F29  45                inc ebp
00004F2A  7654              jna 0x4f80
00004F2C  5F                pop edi
00004F2D  53                push ebx
00004F2E  45                inc ebp
00004F2F  5F                pop edi
00004F30  54                push esp
00004F31  305F00            xor [edi+0x0],bl
00004F34  6461              fs popa
00004F36  7461              jz 0x4f99
00004F38  5F                pop edi
00004F39  7374              jnc 0x4faf
00004F3B  61                popa
00004F3C  7274              jc 0x4fb2
00004F3E  005F5A            add [edi+0x5a],bl
00004F41  53                push ebx
00004F42  7433              jz 0x4f77
00004F44  63696E            arpl [ecx+0x6e],bp
00004F47  40                inc eax
00004F48  40                inc eax
00004F49  47                inc edi
00004F4A  4C                dec esp
00004F4B  49                dec ecx
00004F4C  42                inc edx
00004F4D  43                inc ebx
00004F4E  58                pop eax
00004F4F  58                pop eax
00004F50  5F                pop edi
00004F51  332E              xor ebp,[esi]
00004F53  3400              xor al,0x0
00004F55  5F                pop edi
00004F56  5A                pop edx
00004F57  4E                dec esi
00004F58  53                push ebx
00004F59  7436              jz 0x4f91
00004F5B  7665              jna 0x4fc2
00004F5D  63746F72          arpl [edi+ebp*2+0x72],si
00004F61  49                dec ecx
00004F62  53                push ebx
00004F63  7434              jz 0x4f99
00004F65  7061              jo 0x4fc8
00004F67  69724953305F49    imul esi,[edx+0x49],dword 0x495f3053
00004F6E  69694569455361    imul ebp,[ecx+0x45],dword 0x61534569
00004F75  49                dec ecx
00004F76  53                push ebx
00004F77  325F45            xor bl,[edi+0x45]
00004F7A  45                inc ebp
00004F7B  3138              xor [eax],edi
00004F7D  5F                pop edi
00004F7E  4D                dec ebp
00004F7F  5F                pop edi
00004F80  66696C6C5F696E    imul bp,[esp+ebp*2+0x5f],word 0x6e69
00004F87  697469616C697A65  imul esi,[ecx+ebp*2+0x61],dword 0x657a696c
00004F8F  45                inc ebp
00004F90  6A52              push byte +0x52
00004F92  4B                dec ebx
00004F93  53                push ebx
00004F94  325F00            xor bl,[edi+0x0]
00004F97  5F                pop edi
00004F98  5A                pop edx
00004F99  4E                dec esi
00004F9A  53                push ebx
00004F9B  7431              jz 0x4fce
00004F9D  305F49            xor [edi+0x49],bl
00004FA0  7465              jz 0x5007
00004FA2  725F              jc 0x5003
00004FA4  626173            bound esp,[ecx+0x73]
00004FA7  6549              gs dec ecx
00004FA9  4E                dec esi
00004FAA  395F5F            cmp [edi+0x5f],ebx
00004FAD  676E              a16 outsb
00004FAF  755F              jnz 0x5010
00004FB1  637878            arpl [eax+0x78],di
00004FB4  3137              xor [edi],esi
00004FB6  5F                pop edi
00004FB7  5F                pop edi
00004FB8  6E                outsb
00004FB9  6F                outsd
00004FBA  726D              jc 0x5029
00004FBC  61                popa
00004FBD  6C                insb
00004FBE  5F                pop edi
00004FBF  6974657261746F72  imul esi,[ebp+0x72],dword 0x726f7461
00004FC7  49                dec ecx
00004FC8  50                push eax
00004FC9  53                push ebx
00004FCA  7434              jz 0x5000
00004FCC  7061              jo 0x502f
00004FCE  69724953325F49    imul esi,[edx+0x49],dword 0x495f3253
00004FD5  69694569455374    imul ebp,[ecx+0x45],dword 0x74534569
00004FDC  367665            ss jna 0x5044
00004FDF  63746F72          arpl [edi+ebp*2+0x72],si
00004FE3  49                dec ecx
00004FE4  53                push ebx
00004FE5  345F              xor al,0x5f
00004FE7  53                push ebx
00004FE8  61                popa
00004FE9  49                dec ecx
00004FEA  53                push ebx
00004FEB  345F              xor al,0x5f
00004FED  45                inc ebp
00004FEE  45                inc ebp
00004FEF  45                inc ebp
00004FF0  45                inc ebp
00004FF1  4C                dec esp
00004FF2  6230              bound esi,[eax]
00004FF4  45                inc ebp
00004FF5  45                inc ebp
00004FF6  37                aaa
00004FF7  5F                pop edi
00004FF8  53                push ebx
00004FF9  5F                pop edi
00004FFA  626173            bound esp,[ecx+0x73]
00004FFD  6545              gs inc ebp
00004FFF  53                push ebx
00005000  395F00            cmp [edi+0x0],ebx
00005003  5F                pop edi
00005004  5A                pop edx
00005005  4E                dec esi
00005006  395F5F            cmp [edi+0x5f],ebx
00005009  676E              a16 outsb
0000500B  755F              jnz 0x506c
0000500D  637878            arpl [eax+0x78],di
00005010  657149            gs jno 0x505c
00005013  50                push eax
00005014  53                push ebx
00005015  7434              jz 0x504b
00005017  7061              jo 0x507a
00005019  69724953315F49    imul esi,[edx+0x49],dword 0x495f3153
00005020  69694569455374    imul ebp,[ecx+0x45],dword 0x74534569
00005027  367665            ss jna 0x508f
0000502A  63746F72          arpl [edi+ebp*2+0x72],si
0000502E  49                dec ecx
0000502F  53                push ebx
00005030  335F53            xor ebx,[edi+0x53]
00005033  61                popa
00005034  49                dec ecx
00005035  53                push ebx
00005036  335F45            xor ebx,[edi+0x45]
00005039  45                inc ebp
0000503A  45                inc ebp
0000503B  45                inc ebp
0000503C  62524B            bound edx,[edx+0x4b]
0000503F  4E                dec esi
00005040  53                push ebx
00005041  5F                pop edi
00005042  3137              xor [edi],esi
00005044  5F                pop edi
00005045  5F                pop edi
00005046  6E                outsb
00005047  6F                outsd
00005048  726D              jc 0x50b7
0000504A  61                popa
0000504B  6C                insb
0000504C  5F                pop edi
0000504D  6974657261746F72  imul esi,[ebp+0x72],dword 0x726f7461
00005055  49                dec ecx
00005056  54                push esp
00005057  5F                pop edi
00005058  54                push esp
00005059  305F45            xor [edi+0x45],bl
0000505C  45                inc ebp
0000505D  53                push ebx
0000505E  44                inc esp
0000505F  5F                pop edi
00005060  005F5A            add [edi+0x5a],bl
00005063  4E                dec esi
00005064  53                push ebx
00005065  6F                outsd
00005066  6C                insb
00005067  7345              jnc 0x50ae
00005069  694040474C4942    imul eax,[eax+0x40],dword 0x42494c47
00005070  43                inc ebx
00005071  58                pop eax
00005072  58                pop eax
00005073  5F                pop edi
00005074  332E              xor ebp,[esi]
00005076  3400              xor al,0x0
00005078  5F                pop edi
00005079  5A                pop edx
0000507A  53                push ebx
0000507B  7432              jz 0x50af
0000507D  335F5F            xor ebx,[edi+0x5f]
00005080  636F70            arpl [edi+0x70],bp
00005083  795F              jns 0x50e4
00005085  6D                insd
00005086  6F                outsd
00005087  7665              jna 0x50ee
00005089  5F                pop edi
0000508A  626163            bound esp,[ecx+0x63]
0000508D  6B776172          imul esi,[edi+0x61],byte +0x72
00005091  645F              fs pop edi
00005093  61                popa
00005094  32494C            xor cl,[ecx+0x4c]
00005097  6230              bound esi,[eax]
00005099  45                inc ebp
0000509A  4E                dec esi
0000509B  395F5F            cmp [edi+0x5f],ebx
0000509E  676E              a16 outsb
000050A0  755F              jnz 0x5101
000050A2  637878            arpl [eax+0x78],di
000050A5  3137              xor [edi],esi
000050A7  5F                pop edi
000050A8  5F                pop edi
000050A9  6E                outsb
000050AA  6F                outsd
000050AB  726D              jc 0x511a
000050AD  61                popa
000050AE  6C                insb
000050AF  5F                pop edi
000050B0  6974657261746F72  imul esi,[ebp+0x72],dword 0x726f7461
000050B8  49                dec ecx
000050B9  50                push eax
000050BA  53                push ebx
000050BB  7434              jz 0x50f1
000050BD  7061              jo 0x5120
000050BF  69724953325F49    imul esi,[edx+0x49],dword 0x495f3253
000050C6  69694569455374    imul ebp,[ecx+0x45],dword 0x74534569
000050CD  367665            ss jna 0x5135
000050D0  63746F72          arpl [edi+ebp*2+0x72],si
000050D4  49                dec ecx
000050D5  53                push ebx
000050D6  345F              xor al,0x5f
000050D8  53                push ebx
000050D9  61                popa
000050DA  49                dec ecx
000050DB  53                push ebx
000050DC  345F              xor al,0x5f
000050DE  45                inc ebp
000050DF  45                inc ebp
000050E0  45                inc ebp
000050E1  45                inc ebp
000050E2  53                push ebx
000050E3  395F45            cmp [edi+0x45],ebx
000050E6  54                push esp
000050E7  315F54            xor [edi+0x54],ebx
000050EA  305F53            xor [edi+0x53],bl
000050ED  42                inc edx
000050EE  5F                pop edi
000050EF  53                push ebx
000050F0  41                inc ecx
000050F1  5F                pop edi
000050F2  005F5F            add [edi+0x5f],bl
000050F5  637861            arpl [eax+0x61],di
000050F8  5F                pop edi
000050F9  61                popa
000050FA  7465              jz 0x5161
000050FC  7869              js 0x5167
000050FE  7440              jz 0x5140
00005100  40                inc eax
00005101  47                inc edi
00005102  4C                dec esp
00005103  49                dec ecx
00005104  42                inc edx
00005105  43                inc ebx
00005106  5F                pop edi
00005107  322E              xor ch,[esi]
00005109  312E              xor [esi],ebp
0000510B  3300              xor eax,[eax]
0000510D  5F                pop edi
0000510E  5F                pop edi
0000510F  6C                insb
00005110  6962635F637375    imul esp,[edx+0x63],dword 0x7573635f
00005117  5F                pop edi
00005118  66696E69005F      imul bp,[esi+0x69],word 0x5f00
0000511E  5A                pop edx
0000511F  4E                dec esi
00005120  53                push ebx
00005121  7431              jz 0x5154
00005123  325F56            xor bl,[edi+0x56]
00005126  6563746F72        arpl [gs:edi+ebp*2+0x72],si
0000512B  5F                pop edi
0000512C  626173            bound esp,[ecx+0x73]
0000512F  6549              gs dec ecx
00005131  53                push ebx
00005132  7434              jz 0x5168
00005134  7061              jo 0x5197
00005136  69724953305F49    imul esi,[edx+0x49],dword 0x495f3053
0000513D  69694569455361    imul ebp,[ecx+0x45],dword 0x61534569
00005144  49                dec ecx
00005145  53                push ebx
00005146  325F45            xor bl,[edi+0x45]
00005149  45                inc ebp
0000514A  3139              xor [ecx],edi
0000514C  5F                pop edi
0000514D  4D                dec ebp
0000514E  5F                pop edi
0000514F  6765745F          gs a16 jz 0x51b2
00005153  54                push esp
00005154  705F              jo 0x51b5
00005156  61                popa
00005157  6C                insb
00005158  6C                insb
00005159  6F                outsd
0000515A  636174            arpl [ecx+0x74],sp
0000515D  6F                outsd
0000515E  7245              jc 0x51a5
00005160  7600              jna 0x5162
00005162  5F                pop edi
00005163  7374              jnc 0x51d9
00005165  61                popa
00005166  7274              jc 0x51dc
00005168  005F5A            add [edi+0x5a],bl
0000516B  53                push ebx
0000516C  7434              jz 0x51a2
0000516E  5F                pop edi
0000516F  5F                pop edi
00005170  6C                insb
00005171  6769005F5A5374    imul eax,[bx+si],dword 0x74535a5f
00005178  3131              xor [ecx],esi
0000517A  5F                pop edi
0000517B  5F                pop edi
0000517C  7075              jo 0x51f3
0000517E  7368              jnc 0x51e8
00005180  5F                pop edi
00005181  6865617049        push dword 0x49706165
00005186  4E                dec esi
00005187  395F5F            cmp [edi+0x5f],ebx
0000518A  676E              a16 outsb
0000518C  755F              jnz 0x51ed
0000518E  637878            arpl [eax+0x78],di
00005191  3137              xor [edi],esi
00005193  5F                pop edi
00005194  5F                pop edi
00005195  6E                outsb
00005196  6F                outsd
00005197  726D              jc 0x5206
00005199  61                popa
0000519A  6C                insb
0000519B  5F                pop edi
0000519C  6974657261746F72  imul esi,[ebp+0x72],dword 0x726f7461
000051A4  49                dec ecx
000051A5  50                push eax
000051A6  53                push ebx
000051A7  7434              jz 0x51dd
000051A9  7061              jo 0x520c
000051AB  69724953325F49    imul esi,[edx+0x49],dword 0x495f3253
000051B2  69694569455374    imul ebp,[ecx+0x45],dword 0x74534569
000051B9  367665            ss jna 0x5221
000051BC  63746F72          arpl [edi+ebp*2+0x72],si
000051C0  49                dec ecx
000051C1  53                push ebx
000051C2  345F              xor al,0x5f
000051C4  53                push ebx
000051C5  61                popa
000051C6  49                dec ecx
000051C7  53                push ebx
000051C8  345F              xor al,0x5f
000051CA  45                inc ebp
000051CB  45                inc ebp
000051CC  45                inc ebp
000051CD  45                inc ebp
000051CE  6953345F504662    imul edx,[ebx+0x34],dword 0x6246505f
000051D5  52                push edx
000051D6  4B                dec ebx
000051D7  53                push ebx
000051D8  345F              xor al,0x5f
000051DA  53                push ebx
000051DB  42                inc edx
000051DC  5F                pop edi
000051DD  45                inc ebp
000051DE  45                inc ebp
000051DF  7654              jna 0x5235
000051E1  5F                pop edi
000051E2  54                push esp
000051E3  305F53            xor [edi+0x53],bl
000051E6  46                inc esi
000051E7  5F                pop edi
000051E8  54                push esp
000051E9  315F54            xor [edi+0x54],ebx
000051EC  325F00            xor bl,[edi+0x0]
000051EF  5F                pop edi
000051F0  5A                pop edx
000051F1  4E                dec esi
000051F2  4B                dec ebx
000051F3  395F5F            cmp [edi+0x5f],ebx
000051F6  676E              a16 outsb
000051F8  755F              jnz 0x5259
000051FA  637878            arpl [eax+0x78],di
000051FD  3133              xor [ebx],esi
000051FF  6E                outsb
00005200  65775F            gs ja 0x5262
00005203  61                popa
00005204  6C                insb
00005205  6C                insb
00005206  6F                outsd
00005207  636174            arpl [ecx+0x74],sp
0000520A  6F                outsd
0000520B  7249              jc 0x5256
0000520D  53                push ebx
0000520E  7434              jz 0x5244
00005210  7061              jo 0x5273
00005212  69724953315F49    imul esi,[edx+0x49],dword 0x495f3153
00005219  69694569454538    imul ebp,[ecx+0x45],dword 0x38454569
00005220  6D                insd
00005221  61                popa
00005222  785F              js 0x5283
00005224  7369              jnc 0x528f
00005226  7A65              jpe 0x528d
00005228  45                inc ebp
00005229  7600              jna 0x522b
0000522B  5F                pop edi
0000522C  5A                pop edx
0000522D  4E                dec esi
0000522E  53                push ebx
0000522F  61                popa
00005230  49                dec ecx
00005231  53                push ebx
00005232  7434              jz 0x5268
00005234  7061              jo 0x5297
00005236  697249535F4969    imul esi,[edx+0x49],dword 0x69495f53
0000523D  69456945454431    imul eax,[ebp+0x69],dword 0x31444545
00005244  45                inc ebp
00005245  7600              jna 0x5247
00005247  5F                pop edi
00005248  5A                pop edx
00005249  4E                dec esi
0000524A  53                push ebx
0000524B  61                popa
0000524C  49                dec ecx
0000524D  53                push ebx
0000524E  7434              jz 0x5284
00005250  7061              jo 0x52b3
00005252  697249535F4969    imul esi,[edx+0x49],dword 0x69495f53
00005259  69456945454332    imul eax,[ebp+0x69],dword 0x32434545
00005260  45                inc ebp
00005261  52                push edx
00005262  4B                dec ebx
00005263  53                push ebx
00005264  325F00            xor bl,[edi+0x0]
00005267  5F                pop edi
00005268  5A                pop edx
00005269  53                push ebx
0000526A  7431              jz 0x529d
0000526C  305F43            xor [edi+0x43],bl
0000526F  6F                outsd
00005270  6E                outsb
00005271  7374              jnc 0x52e7
00005273  7275              jc 0x52ea
00005275  63744953          arpl [ecx+ecx*2+0x53],si
00005279  7434              jz 0x52af
0000527B  7061              jo 0x52de
0000527D  69724953305F49    imul esi,[edx+0x49],dword 0x495f3053
00005284  69694569455332    imul ebp,[ecx+0x45],dword 0x32534569
0000528B  5F                pop edi
0000528C  45                inc ebp
0000528D  7650              jna 0x52df
0000528F  54                push esp
00005290  5F                pop edi
00005291  52                push edx
00005292  4B                dec ebx
00005293  54                push esp
00005294  305F00            xor [edi+0x0],bl
00005297  5F                pop edi
00005298  5A                pop edx
00005299  4E                dec esi
0000529A  395F5F            cmp [edi+0x5f],ebx
0000529D  676E              a16 outsb
0000529F  755F              jnz 0x5300
000052A1  637878            arpl [eax+0x78],di
000052A4  6C                insb
000052A5  7449              jz 0x52f0
000052A7  50                push eax
000052A8  53                push ebx
000052A9  7434              jz 0x52df
000052AB  7061              jo 0x530e
000052AD  69724953315F49    imul esi,[edx+0x49],dword 0x495f3153
000052B4  69694569455374    imul ebp,[ecx+0x45],dword 0x74534569
000052BB  367665            ss jna 0x5323
000052BE  63746F72          arpl [edi+ebp*2+0x72],si
000052C2  49                dec ecx
000052C3  53                push ebx
000052C4  335F53            xor ebx,[edi+0x53]
000052C7  61                popa
000052C8  49                dec ecx
000052C9  53                push ebx
000052CA  335F45            xor ebx,[edi+0x45]
000052CD  45                inc ebp
000052CE  45                inc ebp
000052CF  45                inc ebp
000052D0  62524B            bound edx,[edx+0x4b]
000052D3  4E                dec esi
000052D4  53                push ebx
000052D5  5F                pop edi
000052D6  3137              xor [edi],esi
000052D8  5F                pop edi
000052D9  5F                pop edi
000052DA  6E                outsb
000052DB  6F                outsd
000052DC  726D              jc 0x534b
000052DE  61                popa
000052DF  6C                insb
000052E0  5F                pop edi
000052E1  6974657261746F72  imul esi,[ebp+0x72],dword 0x726f7461
000052E9  49                dec ecx
000052EA  54                push esp
000052EB  5F                pop edi
000052EC  54                push esp
000052ED  305F45            xor [edi+0x45],bl
000052F0  45                inc ebp
000052F1  53                push ebx
000052F2  44                inc esp
000052F3  5F                pop edi
000052F4  005F5A            add [edi+0x5a],bl
000052F7  4E                dec esi
000052F8  53                push ebx
000052F9  7436              jz 0x5331
000052FB  7665              jna 0x5362
000052FD  63746F72          arpl [edi+ebp*2+0x72],si
00005301  49                dec ecx
00005302  53                push ebx
00005303  7434              jz 0x5339
00005305  7061              jo 0x5368
00005307  69724953305F49    imul esi,[edx+0x49],dword 0x495f3053
0000530E  69694569455361    imul ebp,[ecx+0x45],dword 0x61534569
00005315  49                dec ecx
00005316  53                push ebx
00005317  325F45            xor bl,[edi+0x45]
0000531A  45                inc ebp
0000531B  6978456A005F5A    imul edi,[eax+0x45],dword 0x5a5f006a
00005322  4E                dec esi
00005323  395F5F            cmp [edi+0x5f],ebx
00005326  676E              a16 outsb
00005328  755F              jnz 0x5389
0000532A  637878            arpl [eax+0x78],di
0000532D  3133              xor [ebx],esi
0000532F  6E                outsb
00005330  65775F            gs ja 0x5392
00005333  61                popa
00005334  6C                insb
00005335  6C                insb
00005336  6F                outsd
00005337  636174            arpl [ecx+0x74],sp
0000533A  6F                outsd
0000533B  7249              jc 0x5386
0000533D  53                push ebx
0000533E  7434              jz 0x5374
00005340  7061              jo 0x53a3
00005342  69724953315F49    imul esi,[edx+0x49],dword 0x495f3153
00005349  69694569454538    imul ebp,[ecx+0x45],dword 0x38454569
00005350  61                popa
00005351  6C                insb
00005352  6C                insb
00005353  6F                outsd
00005354  636174            arpl [ecx+0x74],sp
00005357  6545              gs inc ebp
00005359  6A50              push byte +0x50
0000535B  4B                dec ebx
0000535C  7600              jna 0x535e
0000535E  5F                pop edi
0000535F  5F                pop edi
00005360  676D              a16 insd
00005362  6F                outsd
00005363  6E                outsb
00005364  5F                pop edi
00005365  7374              jnc 0x53db
00005367  61                popa
00005368  7274              jc 0x53de
0000536A  5F                pop edi
0000536B  5F                pop edi
0000536C  005F4A            add [edi+0x4a],bl
0000536F  765F              jna 0x53d0
00005371  52                push edx
00005372  6567697374657243  imul esi,[gs:bp+di+0x74],dword 0x6c437265
         -6C
0000537B  61                popa
0000537C  7373              jnc 0x53f1
0000537E  657300            gs jnc 0x5381
00005381  5F                pop edi
00005382  66705F            o16 jo 0x53e4
00005385  6877005F5A        push dword 0x5a5f0077
0000538A  646C              fs insb
0000538C  50                push eax
0000538D  7640              jna 0x53cf
0000538F  40                inc eax
00005390  47                inc edi
00005391  4C                dec esp
00005392  49                dec ecx
00005393  42                inc edx
00005394  43                inc ebx
00005395  58                pop eax
00005396  58                pop eax
00005397  5F                pop edi
00005398  332E              xor ebp,[esi]
0000539A  3400              xor al,0x0
0000539C  5F                pop edi
0000539D  5A                pop edx
0000539E  53                push ebx
0000539F  7431              jz 0x53d2
000053A1  327061            xor dh,[eax+0x61]
000053A4  7274              jc 0x541a
000053A6  69616C5F736F72    imul esp,[ecx+0x6c],dword 0x726f735f
000053AD  7449              jz 0x53f8
000053AF  4E                dec esi
000053B0  395F5F            cmp [edi+0x5f],ebx
000053B3  676E              a16 outsb
000053B5  755F              jnz 0x5416
000053B7  637878            arpl [eax+0x78],di
000053BA  3137              xor [edi],esi
000053BC  5F                pop edi
000053BD  5F                pop edi
000053BE  6E                outsb
000053BF  6F                outsd
000053C0  726D              jc 0x542f
000053C2  61                popa
000053C3  6C                insb
000053C4  5F                pop edi
000053C5  6974657261746F72  imul esi,[ebp+0x72],dword 0x726f7461
000053CD  49                dec ecx
000053CE  50                push eax
000053CF  53                push ebx
000053D0  7434              jz 0x5406
000053D2  7061              jo 0x5435
000053D4  69724953325F49    imul esi,[edx+0x49],dword 0x495f3253
000053DB  69694569455374    imul ebp,[ecx+0x45],dword 0x74534569
000053E2  367665            ss jna 0x544a
000053E5  63746F72          arpl [edi+ebp*2+0x72],si
000053E9  49                dec ecx
000053EA  53                push ebx
000053EB  345F              xor al,0x5f
000053ED  53                push ebx
000053EE  61                popa
000053EF  49                dec ecx
000053F0  53                push ebx
000053F1  345F              xor al,0x5f
000053F3  45                inc ebp
000053F4  45                inc ebp
000053F5  45                inc ebp
000053F6  45                inc ebp
000053F7  50                push eax
000053F8  46                inc esi
000053F9  62524B            bound edx,[edx+0x4b]
000053FC  53                push ebx
000053FD  345F              xor al,0x5f
000053FF  53                push ebx
00005400  42                inc edx
00005401  5F                pop edi
00005402  45                inc ebp
00005403  45                inc ebp
00005404  7654              jna 0x545a
00005406  5F                pop edi
00005407  53                push ebx
00005408  45                inc ebp
00005409  5F                pop edi
0000540A  53                push ebx
0000540B  45                inc ebp
0000540C  5F                pop edi
0000540D  54                push esp
0000540E  305F00            xor [edi+0x0],bl
00005411  5F                pop edi
00005412  5A                pop edx
00005413  4E                dec esi
00005414  53                push ebx
00005415  7431              jz 0x5448
00005417  325F56            xor bl,[edi+0x56]
0000541A  6563746F72        arpl [gs:edi+ebp*2+0x72],si
0000541F  5F                pop edi
00005420  626173            bound esp,[ecx+0x73]
00005423  6549              gs dec ecx
00005425  53                push ebx
00005426  7434              jz 0x545c
00005428  7061              jo 0x548b
0000542A  69724953305F49    imul esi,[edx+0x49],dword 0x495f3053
00005431  69694569455361    imul ebp,[ecx+0x45],dword 0x61534569
00005438  49                dec ecx
00005439  53                push ebx
0000543A  325F45            xor bl,[edi+0x45]
0000543D  45                inc ebp
0000543E  3132              xor [edx],esi
00005440  5F                pop edi
00005441  56                push esi
00005442  6563746F72        arpl [gs:edi+ebp*2+0x72],si
00005447  5F                pop edi
00005448  696D706C433245    imul ebp,[ebp+0x70],dword 0x4532436c
0000544F  52                push edx
00005450  4B                dec ebx
00005451  53                push ebx
00005452  335F00            xor ebx,[edi+0x0]
00005455  5F                pop edi
00005456  5A                pop edx
00005457  4E                dec esi
00005458  53                push ebx
00005459  7431              jz 0x548c
0000545B  325F56            xor bl,[edi+0x56]
0000545E  6563746F72        arpl [gs:edi+ebp*2+0x72],si
00005463  5F                pop edi
00005464  626173            bound esp,[ecx+0x73]
00005467  6549              gs dec ecx
00005469  53                push ebx
0000546A  7434              jz 0x54a0
0000546C  7061              jo 0x54cf
0000546E  69724953305F49    imul esi,[edx+0x49],dword 0x495f3053
00005475  69694569455361    imul ebp,[ecx+0x45],dword 0x61534569
0000547C  49                dec ecx
0000547D  53                push ebx
0000547E  325F45            xor bl,[edi+0x45]
00005481  45                inc ebp
00005482  3132              xor [edx],esi
00005484  5F                pop edi
00005485  56                push esi
00005486  6563746F72        arpl [gs:edi+ebp*2+0x72],si
0000548B  5F                pop edi
0000548C  696D706C443245    imul ebp,[ebp+0x70],dword 0x4532446c
00005493  7600              jna 0x5495
00005495  5F                pop edi
00005496  5A                pop edx
00005497  4E                dec esi
00005498  53                push ebx
00005499  7431              jz 0x54cc
0000549B  325F56            xor bl,[edi+0x56]
0000549E  6563746F72        arpl [gs:edi+ebp*2+0x72],si
000054A3  5F                pop edi
000054A4  626173            bound esp,[ecx+0x73]
000054A7  6549              gs dec ecx
000054A9  53                push ebx
000054AA  7434              jz 0x54e0
000054AC  7061              jo 0x550f
000054AE  69724953305F49    imul esi,[edx+0x49],dword 0x495f3053
000054B5  69694569455361    imul ebp,[ecx+0x45],dword 0x61534569
000054BC  49                dec ecx
000054BD  53                push ebx
000054BE  325F45            xor bl,[edi+0x45]
000054C1  45                inc ebp
000054C2  3137              xor [edi],esi
000054C4  5F                pop edi
000054C5  4D                dec ebp
000054C6  5F                pop edi
000054C7  637265            arpl [edx+0x65],si
000054CA  61                popa
000054CB  7465              jz 0x5532
000054CD  5F                pop edi
000054CE  7374              jnc 0x5544
000054D0  6F                outsd
000054D1  7261              jc 0x5534
000054D3  676545            gs a16 inc ebp
000054D6  6A00              push byte +0x0
000054D8  5F                pop edi
000054D9  66696E69005F      imul bp,[esi+0x69],word 0x5f00
000054DF  5A                pop edx
000054E0  4E                dec esi
000054E1  53                push ebx
000054E2  7436              jz 0x551a
000054E4  7665              jna 0x554b
000054E6  63746F72          arpl [edi+ebp*2+0x72],si
000054EA  49                dec ecx
000054EB  53                push ebx
000054EC  7434              jz 0x5522
000054EE  7061              jo 0x5551
000054F0  69724953305F49    imul esi,[edx+0x49],dword 0x495f3053
000054F7  69694569455361    imul ebp,[ecx+0x45],dword 0x61534569
000054FE  49                dec ecx
000054FF  53                push ebx
00005500  325F45            xor bl,[edi+0x45]
00005503  45                inc ebp
00005504  44                inc esp
00005505  324576            xor al,[ebp+0x76]
00005508  005F5A            add [edi+0x5a],bl
0000550B  4E                dec esi
0000550C  53                push ebx
0000550D  7438              jz 0x5547
0000550F  696F735F626173    imul ebp,[edi+0x73],dword 0x7361625f
00005516  653449            gs xor al,0x49
00005519  6E                outsb
0000551A  6974433145764040  imul esi,[ebx+eax*2+0x31],dword 0x40407645
00005522  47                inc edi
00005523  4C                dec esp
00005524  49                dec ecx
00005525  42                inc edx
00005526  43                inc ebx
00005527  58                pop eax
00005528  58                pop eax
00005529  5F                pop edi
0000552A  332E              xor ebp,[esi]
0000552C  3400              xor al,0x0
0000552E  5F                pop edi
0000552F  5A                pop edx
00005530  4E                dec esi
00005531  395F5F            cmp [edi+0x5f],ebx
00005534  676E              a16 outsb
00005536  755F              jnz 0x5597
00005538  637878            arpl [eax+0x78],di
0000553B  6E                outsb
0000553C  6549              gs dec ecx
0000553E  50                push eax
0000553F  53                push ebx
00005540  7434              jz 0x5576
00005542  7061              jo 0x55a5
00005544  69724953315F49    imul esi,[edx+0x49],dword 0x495f3153
0000554B  69694569455374    imul ebp,[ecx+0x45],dword 0x74534569
00005552  367665            ss jna 0x55ba
00005555  63746F72          arpl [edi+ebp*2+0x72],si
00005559  49                dec ecx
0000555A  53                push ebx
0000555B  335F53            xor ebx,[edi+0x53]
0000555E  61                popa
0000555F  49                dec ecx
00005560  53                push ebx
00005561  335F45            xor ebx,[edi+0x45]
00005564  45                inc ebp
00005565  45                inc ebp
00005566  45                inc ebp
00005567  62524B            bound edx,[edx+0x4b]
0000556A  4E                dec esi
0000556B  53                push ebx
0000556C  5F                pop edi
0000556D  3137              xor [edi],esi
0000556F  5F                pop edi
00005570  5F                pop edi
00005571  6E                outsb
00005572  6F                outsd
00005573  726D              jc 0x55e2
00005575  61                popa
00005576  6C                insb
00005577  5F                pop edi
00005578  6974657261746F72  imul esi,[ebp+0x72],dword 0x726f7461
00005580  49                dec ecx
00005581  54                push esp
00005582  5F                pop edi
00005583  54                push esp
00005584  305F45            xor [edi+0x45],bl
00005587  45                inc ebp
00005588  53                push ebx
00005589  44                inc esp
0000558A  5F                pop edi
0000558B  005F5A            add [edi+0x5a],bl
0000558E  53                push ebx
0000558F  7431              jz 0x55c2
00005591  305F5F            xor [edi+0x5f],bl
00005594  706F              jo 0x5605
00005596  705F              jo 0x55f7
00005598  6865617049        push dword 0x49706165
0000559D  4E                dec esi
0000559E  395F5F            cmp [edi+0x5f],ebx
000055A1  676E              a16 outsb
000055A3  755F              jnz 0x5604
000055A5  637878            arpl [eax+0x78],di
000055A8  3137              xor [edi],esi
000055AA  5F                pop edi
000055AB  5F                pop edi
000055AC  6E                outsb
000055AD  6F                outsd
000055AE  726D              jc 0x561d
000055B0  61                popa
000055B1  6C                insb
000055B2  5F                pop edi
000055B3  6974657261746F72  imul esi,[ebp+0x72],dword 0x726f7461
000055BB  49                dec ecx
000055BC  50                push eax
000055BD  53                push ebx
000055BE  7434              jz 0x55f4
000055C0  7061              jo 0x5623
000055C2  69724953325F49    imul esi,[edx+0x49],dword 0x495f3253
000055C9  69694569455374    imul ebp,[ecx+0x45],dword 0x74534569
000055D0  367665            ss jna 0x5638
000055D3  63746F72          arpl [edi+ebp*2+0x72],si
000055D7  49                dec ecx
000055D8  53                push ebx
000055D9  345F              xor al,0x5f
000055DB  53                push ebx
000055DC  61                popa
000055DD  49                dec ecx
000055DE  53                push ebx
000055DF  345F              xor al,0x5f
000055E1  45                inc ebp
000055E2  45                inc ebp
000055E3  45                inc ebp
000055E4  45                inc ebp
000055E5  50                push eax
000055E6  46                inc esi
000055E7  62524B            bound edx,[edx+0x4b]
000055EA  53                push ebx
000055EB  345F              xor al,0x5f
000055ED  53                push ebx
000055EE  42                inc edx
000055EF  5F                pop edi
000055F0  45                inc ebp
000055F1  45                inc ebp
000055F2  7654              jna 0x5648
000055F4  5F                pop edi
000055F5  53                push ebx
000055F6  45                inc ebp
000055F7  5F                pop edi
000055F8  53                push ebx
000055F9  45                inc ebp
000055FA  5F                pop edi
000055FB  54                push esp
000055FC  305F00            xor [edi+0x0],bl
000055FF  5F                pop edi
00005600  5A                pop edx
00005601  53                push ebx
00005602  7432              jz 0x5636
00005604  325F5F            xor bl,[edi+0x5f]
00005607  66696E616C5F      imul bp,[esi+0x61],word 0x5f6c
0000560D  696E7365727469    imul ebp,[esi+0x73],dword 0x69747265
00005614  6F                outsd
00005615  6E                outsb
00005616  5F                pop edi
00005617  736F              jnc 0x5688
00005619  7274              jc 0x568f
0000561B  49                dec ecx
0000561C  4E                dec esi
0000561D  395F5F            cmp [edi+0x5f],ebx
00005620  676E              a16 outsb
00005622  755F              jnz 0x5683
00005624  637878            arpl [eax+0x78],di
00005627  3137              xor [edi],esi
00005629  5F                pop edi
0000562A  5F                pop edi
0000562B  6E                outsb
0000562C  6F                outsd
0000562D  726D              jc 0x569c
0000562F  61                popa
00005630  6C                insb
00005631  5F                pop edi
00005632  6974657261746F72  imul esi,[ebp+0x72],dword 0x726f7461
0000563A  49                dec ecx
0000563B  50                push eax
0000563C  53                push ebx
0000563D  7434              jz 0x5673
0000563F  7061              jo 0x56a2
00005641  69724953325F49    imul esi,[edx+0x49],dword 0x495f3253
00005648  69694569455374    imul ebp,[ecx+0x45],dword 0x74534569
0000564F  367665            ss jna 0x56b7
00005652  63746F72          arpl [edi+ebp*2+0x72],si
00005656  49                dec ecx
00005657  53                push ebx
00005658  345F              xor al,0x5f
0000565A  53                push ebx
0000565B  61                popa
0000565C  49                dec ecx
0000565D  53                push ebx
0000565E  345F              xor al,0x5f
00005660  45                inc ebp
00005661  45                inc ebp
00005662  45                inc ebp
00005663  45                inc ebp
00005664  50                push eax
00005665  46                inc esi
00005666  62524B            bound edx,[edx+0x4b]
00005669  53                push ebx
0000566A  345F              xor al,0x5f
0000566C  53                push ebx
0000566D  42                inc edx
0000566E  5F                pop edi
0000566F  45                inc ebp
00005670  45                inc ebp
00005671  7654              jna 0x56c7
00005673  5F                pop edi
00005674  53                push ebx
00005675  45                inc ebp
00005676  5F                pop edi
00005677  54                push esp
00005678  305F00            xor [edi+0x0],bl
0000567B  5F                pop edi
0000567C  5A                pop edx
0000567D  4E                dec esi
0000567E  395F5F            cmp [edi+0x5f],ebx
00005681  676E              a16 outsb
00005683  755F              jnz 0x56e4
00005685  637878            arpl [eax+0x78],di
00005688  3133              xor [ebx],esi
0000568A  6E                outsb
0000568B  65775F            gs ja 0x56ed
0000568E  61                popa
0000568F  6C                insb
00005690  6C                insb
00005691  6F                outsd
00005692  636174            arpl [ecx+0x74],sp
00005695  6F                outsd
00005696  7249              jc 0x56e1
00005698  53                push ebx
00005699  7434              jz 0x56cf
0000569B  7061              jo 0x56fe
0000569D  69724953315F49    imul esi,[edx+0x49],dword 0x495f3153
000056A4  69694569454543    imul ebp,[ecx+0x45],dword 0x43454569
000056AB  314552            xor [ebp+0x52],eax
000056AE  4B                dec ebx
000056AF  53                push ebx
000056B0  345F              xor al,0x5f
000056B2  005F5A            add [edi+0x5a],bl
000056B5  4E                dec esi
000056B6  53                push ebx
000056B7  7431              jz 0x56ea
000056B9  325F56            xor bl,[edi+0x56]
000056BC  6563746F72        arpl [gs:edi+ebp*2+0x72],si
000056C1  5F                pop edi
000056C2  626173            bound esp,[ecx+0x73]
000056C5  6549              gs dec ecx
000056C7  53                push ebx
000056C8  7434              jz 0x56fe
000056CA  7061              jo 0x572d
000056CC  69724953305F49    imul esi,[edx+0x49],dword 0x495f3053
000056D3  69694569455361    imul ebp,[ecx+0x45],dword 0x61534569
000056DA  49                dec ecx
000056DB  53                push ebx
000056DC  325F45            xor bl,[edi+0x45]
000056DF  45                inc ebp
000056E0  3133              xor [ebx],esi
000056E2  5F                pop edi
000056E3  4D                dec ebp
000056E4  5F                pop edi
000056E5  646561            gs popa
000056E8  6C                insb
000056E9  6C                insb
000056EA  6F                outsd
000056EB  636174            arpl [ecx+0x74],sp
000056EE  6545              gs inc ebp
000056F0  50                push eax
000056F1  53                push ebx
000056F2  325F6A            xor bl,[edi+0x6a]
000056F5  005F5A            add [edi+0x5a],bl
000056F8  4E                dec esi
000056F9  53                push ebx
000056FA  7436              jz 0x5732
000056FC  7665              jna 0x5763
000056FE  63746F72          arpl [edi+ebp*2+0x72],si
00005702  49                dec ecx
00005703  53                push ebx
00005704  7434              jz 0x573a
00005706  7061              jo 0x5769
00005708  69724953305F49    imul esi,[edx+0x49],dword 0x495f3053
0000570F  69694569455361    imul ebp,[ecx+0x45],dword 0x61534569
00005716  49                dec ecx
00005717  53                push ebx
00005718  325F45            xor bl,[edi+0x45]
0000571B  45                inc ebp
0000571C  3562656769        xor eax,0x69676562
00005721  6E                outsb
00005722  45                inc ebp
00005723  7600              jna 0x5725
00005725  5F                pop edi
00005726  5F                pop edi
00005727  6C                insb
00005728  6962635F737461    imul esp,[edx+0x63],dword 0x6174735f
0000572F  7274              jc 0x57a5
00005731  5F                pop edi
00005732  6D                insd
00005733  61                popa
00005734  696E4040474C49    imul ebp,[esi+0x40],dword 0x494c4740
0000573B  42                inc edx
0000573C  43                inc ebx
0000573D  5F                pop edi
0000573E  322E              xor ch,[esi]
00005740  3000              xor [eax],al
00005742  5F                pop edi
00005743  5A                pop edx
00005744  4E                dec esi
00005745  395F5F            cmp [edi+0x5f],ebx
00005748  676E              a16 outsb
0000574A  755F              jnz 0x57ab
0000574C  637878            arpl [eax+0x78],di
0000574F  3137              xor [edi],esi
00005751  5F                pop edi
00005752  5F                pop edi
00005753  6E                outsb
00005754  6F                outsd
00005755  726D              jc 0x57c4
00005757  61                popa
00005758  6C                insb
00005759  5F                pop edi
0000575A  6974657261746F72  imul esi,[ebp+0x72],dword 0x726f7461
00005762  49                dec ecx
00005763  50                push eax
00005764  53                push ebx
00005765  7434              jz 0x579b
00005767  7061              jo 0x57ca
00005769  69724953315F49    imul esi,[edx+0x49],dword 0x495f3153
00005770  69694569455374    imul ebp,[ecx+0x45],dword 0x74534569
00005777  367665            ss jna 0x57df
0000577A  63746F72          arpl [edi+ebp*2+0x72],si
0000577E  49                dec ecx
0000577F  53                push ebx
00005780  335F53            xor ebx,[edi+0x53]
00005783  61                popa
00005784  49                dec ecx
00005785  53                push ebx
00005786  335F45            xor ebx,[edi+0x45]
00005789  45                inc ebp
0000578A  45                inc ebp
0000578B  43                inc ebx
0000578C  324552            xor al,[ebp+0x52]
0000578F  4B                dec ebx
00005790  53                push ebx
00005791  345F              xor al,0x5f
00005793  005F5A            add [edi+0x5a],bl
00005796  4E                dec esi
00005797  395F5F            cmp [edi+0x5f],ebx
0000579A  676E              a16 outsb
0000579C  755F              jnz 0x57fd
0000579E  637878            arpl [eax+0x78],di
000057A1  6D                insd
000057A2  69495053743470    imul ecx,[ecx+0x50],dword 0x70347453
000057A9  61                popa
000057AA  69724953315F49    imul esi,[edx+0x49],dword 0x495f3153
000057B1  69694569455374    imul ebp,[ecx+0x45],dword 0x74534569
000057B8  367665            ss jna 0x5820
000057BB  63746F72          arpl [edi+ebp*2+0x72],si
000057BF  49                dec ecx
000057C0  53                push ebx
000057C1  335F53            xor ebx,[edi+0x53]
000057C4  61                popa
000057C5  49                dec ecx
000057C6  53                push ebx
000057C7  335F45            xor ebx,[edi+0x45]
000057CA  45                inc ebp
000057CB  45                inc ebp
000057CC  45                inc ebp
000057CD  4E                dec esi
000057CE  53                push ebx
000057CF  5F                pop edi
000057D0  3137              xor [edi],esi
000057D2  5F                pop edi
000057D3  5F                pop edi
000057D4  6E                outsb
000057D5  6F                outsd
000057D6  726D              jc 0x5845
000057D8  61                popa
000057D9  6C                insb
000057DA  5F                pop edi
000057DB  6974657261746F72  imul esi,[ebp+0x72],dword 0x726f7461
000057E3  49                dec ecx
000057E4  54                push esp
000057E5  5F                pop edi
000057E6  54                push esp
000057E7  305F45            xor [edi+0x45],bl
000057EA  313564696666      xor [0x66666964],esi
000057F0  657265            gs jc 0x5858
000057F3  6E                outsb
000057F4  63655F            arpl [ebp+0x5f],sp
000057F7  7479              jz 0x5872
000057F9  7065              jo 0x5860
000057FB  45                inc ebp
000057FC  52                push edx
000057FD  4B                dec ebx
000057FE  53                push ebx
000057FF  42                inc edx
00005800  5F                pop edi
00005801  53                push ebx
00005802  45                inc ebp
00005803  5F                pop edi
00005804  005F5A            add [edi+0x5a],bl
00005807  4E                dec esi
00005808  53                push ebx
00005809  7438              jz 0x5843
0000580B  696F735F626173    imul ebp,[edi+0x73],dword 0x7361625f
00005812  653449            gs xor al,0x49
00005815  6E                outsb
00005816  6974443145764040  imul esi,[esp+eax*2+0x31],dword 0x40407645
0000581E  47                inc edi
0000581F  4C                dec esp
00005820  49                dec ecx
00005821  42                inc edx
00005822  43                inc ebx
00005823  58                pop eax
00005824  58                pop eax
00005825  5F                pop edi
00005826  332E              xor ebp,[esi]
00005828  3400              xor al,0x0
0000582A  5F                pop edi
0000582B  5A                pop edx
0000582C  3463              xor al,0x63
0000582E  6F                outsd
0000582F  6D                insd
00005830  7052              jo 0x5884
00005832  4B                dec ebx
00005833  53                push ebx
00005834  7434              jz 0x586a
00005836  7061              jo 0x5899
00005838  697249535F4969    imul esi,[edx+0x49],dword 0x69495f53
0000583F  6945694553335F    imul eax,[ebp+0x69],dword 0x5f335345
00005846  005F5A            add [edi+0x5a],bl
00005849  53                push ebx
0000584A  7439              jz 0x5885
0000584C  6D                insd
0000584D  61                popa
0000584E  6B655F68          imul esp,[ebp+0x5f],byte +0x68
00005852  6561              gs popa
00005854  7049              jo 0x589f
00005856  4E                dec esi
00005857  395F5F            cmp [edi+0x5f],ebx
0000585A  676E              a16 outsb
0000585C  755F              jnz 0x58bd
0000585E  637878            arpl [eax+0x78],di
00005861  3137              xor [edi],esi
00005863  5F                pop edi
00005864  5F                pop edi
00005865  6E                outsb
00005866  6F                outsd
00005867  726D              jc 0x58d6
00005869  61                popa
0000586A  6C                insb
0000586B  5F                pop edi
0000586C  6974657261746F72  imul esi,[ebp+0x72],dword 0x726f7461
00005874  49                dec ecx
00005875  50                push eax
00005876  53                push ebx
00005877  7434              jz 0x58ad
00005879  7061              jo 0x58dc
0000587B  69724953325F49    imul esi,[edx+0x49],dword 0x495f3253
00005882  69694569455374    imul ebp,[ecx+0x45],dword 0x74534569
00005889  367665            ss jna 0x58f1
0000588C  63746F72          arpl [edi+ebp*2+0x72],si
00005890  49                dec ecx
00005891  53                push ebx
00005892  345F              xor al,0x5f
00005894  53                push ebx
00005895  61                popa
00005896  49                dec ecx
00005897  53                push ebx
00005898  345F              xor al,0x5f
0000589A  45                inc ebp
0000589B  45                inc ebp
0000589C  45                inc ebp
0000589D  45                inc ebp
0000589E  50                push eax
0000589F  46                inc esi
000058A0  62524B            bound edx,[edx+0x4b]
000058A3  53                push ebx
000058A4  345F              xor al,0x5f
000058A6  53                push ebx
000058A7  42                inc edx
000058A8  5F                pop edi
000058A9  45                inc ebp
000058AA  45                inc ebp
000058AB  7654              jna 0x5901
000058AD  5F                pop edi
000058AE  53                push ebx
000058AF  45                inc ebp
000058B0  5F                pop edi
000058B1  54                push esp
000058B2  305F00            xor [edi+0x0],bl
000058B5  5F                pop edi
000058B6  49                dec ecx
000058B7  54                push esp
000058B8  4D                dec ebp
000058B9  5F                pop edi
000058BA  64657265          gs jc 0x5923
000058BE  676973746572544D  imul esi,[bp+di+0x74],dword 0x4d547265
000058C6  43                inc ebx
000058C7  6C                insb
000058C8  6F                outsd
000058C9  6E                outsb
000058CA  6554              gs push esp
000058CC  61                popa
000058CD  626C6500          bound ebp,[ebp+0x0]
000058D1  5F                pop edi
000058D2  5A                pop edx
000058D3  4E                dec esi
000058D4  53                push ebx
000058D5  61                popa
000058D6  49                dec ecx
000058D7  53                push ebx
000058D8  7434              jz 0x590e
000058DA  7061              jo 0x593d
000058DC  697249535F4969    imul esi,[edx+0x49],dword 0x69495f53
000058E3  69456945454331    imul eax,[ebp+0x69],dword 0x31434545
000058EA  45                inc ebp
000058EB  7600              jna 0x58ed
000058ED  5F                pop edi
000058EE  5A                pop edx
000058EF  53                push ebx
000058F0  746C              jz 0x595e
000058F2  7349              jnc 0x593d
000058F4  53                push ebx
000058F5  7431              jz 0x5928
000058F7  316368            xor [ebx+0x68],esp
000058FA  61                popa
000058FB  725F              jc 0x595c
000058FD  7472              jz 0x5971
000058FF  61                popa
00005900  6974734963454552  imul esi,[ebx+esi*2+0x49],dword 0x52454563
00005908  53                push ebx
00005909  7431              jz 0x593c
0000590B  336261            xor esp,[edx+0x61]
0000590E  7369              jnc 0x5979
00005910  635F6F            arpl [edi+0x6f],bx
00005913  7374              jnc 0x5989
00005915  7265              jc 0x597c
00005917  61                popa
00005918  6D                insd
00005919  49                dec ecx
0000591A  63545F45          arpl [edi+ebx*2+0x45],dx
0000591E  53                push ebx
0000591F  355F504B63        xor eax,0x634b505f
00005924  40                inc eax
00005925  40                inc eax
00005926  47                inc edi
00005927  4C                dec esp
00005928  49                dec ecx
00005929  42                inc edx
0000592A  43                inc ebx
0000592B  58                pop eax
0000592C  58                pop eax
0000592D  5F                pop edi
0000592E  332E              xor ebp,[esi]
00005930  3400              xor al,0x0
00005932  5F                pop edi
00005933  5A                pop edx
00005934  53                push ebx
00005935  7432              jz 0x5969
00005937  325F5F            xor bl,[edi+0x5f]
0000593A  636F70            arpl [edi+0x70],bp
0000593D  795F              jns 0x599e
0000593F  6D                insd
00005940  6F                outsd
00005941  7665              jna 0x59a8
00005943  5F                pop edi
00005944  626163            bound esp,[ecx+0x63]
00005947  6B776172          imul esi,[edi+0x61],byte +0x72
0000594B  645F              fs pop edi
0000594D  61                popa
0000594E  49                dec ecx
0000594F  4C                dec esp
00005950  6230              bound esi,[eax]
00005952  45                inc ebp
00005953  50                push eax
00005954  53                push ebx
00005955  7434              jz 0x598b
00005957  7061              jo 0x59ba
00005959  69724953305F49    imul esi,[edx+0x49],dword 0x495f3053
00005960  69694569455333    imul ebp,[ecx+0x45],dword 0x33534569
00005967  5F                pop edi
00005968  45                inc ebp
00005969  54                push esp
0000596A  315F54            xor [edi+0x54],ebx
0000596D  305F53            xor [edi+0x53],bl
00005970  355F53345F        xor eax,0x5f34535f
00005975  005F49            add [edi+0x49],bl
00005978  4F                dec edi
00005979  5F                pop edi
0000597A  7374              jnc 0x59f0
0000597C  64696E5F75736564  imul ebp,[fs:esi+0x5f],dword 0x64657375
00005984  005F5A            add [edi+0x5a],bl
00005987  4E                dec esi
00005988  53                push ebx
00005989  7434              jz 0x59bf
0000598B  7061              jo 0x59ee
0000598D  69724969694543    imul esi,[edx+0x49],dword 0x43456969
00005994  324576            xor al,[ebp+0x76]
00005997  005F5A            add [edi+0x5a],bl
0000599A  6E                outsb
0000599B  776A              ja 0x5a07
0000599D  50                push eax
0000599E  7600              jna 0x59a0
000059A0  5F                pop edi
000059A1  5A                pop edx
000059A2  53                push ebx
000059A3  7431              jz 0x59d6
000059A5  365F              ss pop edi
000059A7  5F                pop edi
000059A8  696E74726F736F    imul ebp,[esi+0x74],dword 0x6f736f72
000059AF  7274              jc 0x5a25
000059B1  5F                pop edi
000059B2  6C                insb
000059B3  6F                outsd
000059B4  6F                outsd
000059B5  7049              jo 0x5a00
000059B7  4E                dec esi
000059B8  395F5F            cmp [edi+0x5f],ebx
000059BB  676E              a16 outsb
000059BD  755F              jnz 0x5a1e
000059BF  637878            arpl [eax+0x78],di
000059C2  3137              xor [edi],esi
000059C4  5F                pop edi
000059C5  5F                pop edi
000059C6  6E                outsb
000059C7  6F                outsd
000059C8  726D              jc 0x5a37
000059CA  61                popa
000059CB  6C                insb
000059CC  5F                pop edi
000059CD  6974657261746F72  imul esi,[ebp+0x72],dword 0x726f7461
000059D5  49                dec ecx
000059D6  50                push eax
000059D7  53                push ebx
000059D8  7434              jz 0x5a0e
000059DA  7061              jo 0x5a3d
000059DC  69724953325F49    imul esi,[edx+0x49],dword 0x495f3253
000059E3  69694569455374    imul ebp,[ecx+0x45],dword 0x74534569
000059EA  367665            ss jna 0x5a52
000059ED  63746F72          arpl [edi+ebp*2+0x72],si
000059F1  49                dec ecx
000059F2  53                push ebx
000059F3  345F              xor al,0x5f
000059F5  53                push ebx
000059F6  61                popa
000059F7  49                dec ecx
000059F8  53                push ebx
000059F9  345F              xor al,0x5f
000059FB  45                inc ebp
000059FC  45                inc ebp
000059FD  45                inc ebp
000059FE  45                inc ebp
000059FF  69504662524B53    imul edx,[eax+0x46],dword 0x534b5262
00005A06  345F              xor al,0x5f
00005A08  53                push ebx
00005A09  42                inc edx
00005A0A  5F                pop edi
00005A0B  45                inc ebp
00005A0C  45                inc ebp
00005A0D  7654              jna 0x5a63
00005A0F  5F                pop edi
00005A10  53                push ebx
00005A11  45                inc ebp
00005A12  5F                pop edi
00005A13  54                push esp
00005A14  305F54            xor [edi+0x54],bl
00005A17  315F00            xor [edi+0x0],ebx
00005A1A  5F                pop edi
00005A1B  5A                pop edx
00005A1C  4E                dec esi
00005A1D  53                push ebx
00005A1E  7431              jz 0x5a51
00005A20  325F56            xor bl,[edi+0x56]
00005A23  6563746F72        arpl [gs:edi+ebp*2+0x72],si
00005A28  5F                pop edi
00005A29  626173            bound esp,[ecx+0x73]
00005A2C  6549              gs dec ecx
00005A2E  53                push ebx
00005A2F  7434              jz 0x5a65
00005A31  7061              jo 0x5a94
00005A33  69724953305F49    imul esi,[edx+0x49],dword 0x495f3053
00005A3A  69694569455361    imul ebp,[ecx+0x45],dword 0x61534569
00005A41  49                dec ecx
00005A42  53                push ebx
00005A43  325F45            xor bl,[edi+0x45]
00005A46  45                inc ebp
00005A47  44                inc esp
00005A48  324576            xor al,[ebp+0x76]
00005A4B  005F49            add [edi+0x49],bl
00005A4E  54                push esp
00005A4F  4D                dec ebp
00005A50  5F                pop edi
00005A51  7265              jc 0x5ab8
00005A53  676973746572544D  imul esi,[bp+di+0x74],dword 0x4d547265
00005A5B  43                inc ebx
00005A5C  6C                insb
00005A5D  6F                outsd
00005A5E  6E                outsb
00005A5F  6554              gs push esp
00005A61  61                popa
00005A62  626C6500          bound ebp,[ebp+0x0]
00005A66  5F                pop edi
00005A67  5F                pop edi
00005A68  6461              fs popa
00005A6A  7461              jz 0x5acd
00005A6C  5F                pop edi
00005A6D  7374              jnc 0x5ae3
00005A6F  61                popa
00005A70  7274              jc 0x5ae6
00005A72  005F5A            add [edi+0x5a],bl
00005A75  4E                dec esi
00005A76  53                push ebx
00005A77  7432              jz 0x5aab
00005A79  305F5F            xor [edi+0x5f],bl
00005A7C  636F70            arpl [edi+0x70],bp
00005A7F  795F              jns 0x5ae0
00005A81  6D                insd
00005A82  6F                outsd
00005A83  7665              jna 0x5aea
00005A85  5F                pop edi
00005A86  626163            bound esp,[ecx+0x63]
00005A89  6B776172          imul esi,[edi+0x61],byte +0x72
00005A8D  6449              fs dec ecx
00005A8F  4C                dec esp
00005A90  6230              bound esi,[eax]
00005A92  45                inc ebp
00005A93  4C                dec esp
00005A94  6230              bound esi,[eax]
00005A96  45                inc ebp
00005A97  53                push ebx
00005A98  7432              jz 0x5acc
00005A9A  367261            ss jc 0x5afe
00005A9D  6E                outsb
00005A9E  646F              fs outsd
00005AA0  6D                insd
00005AA1  5F                pop edi
00005AA2  61                popa
00005AA3  636365            arpl [ebx+0x65],sp
00005AA6  7373              jnc 0x5b1b
00005AA8  5F                pop edi
00005AA9  6974657261746F72  imul esi,[ebp+0x72],dword 0x726f7461
00005AB1  5F                pop edi
00005AB2  7461              jz 0x5b15
00005AB4  6745              a16 inc ebp
00005AB6  3133              xor [ebx],esi
00005AB8  5F                pop edi
00005AB9  5F                pop edi
00005ABA  636F70            arpl [edi+0x70],bp
00005ABD  795F              jns 0x5b1e
00005ABF  6D                insd
00005AC0  6F                outsd
00005AC1  7665              jna 0x5b28
00005AC3  5F                pop edi
00005AC4  624950            bound ecx,[ecx+0x50]
00005AC7  53                push ebx
00005AC8  7434              jz 0x5afe
00005ACA  7061              jo 0x5b2d
00005ACC  69724953335F49    imul esi,[edx+0x49],dword 0x495f3353
00005AD3  69694569455336    imul ebp,[ecx+0x45],dword 0x36534569
00005ADA  5F                pop edi
00005ADB  45                inc ebp
00005ADC  45                inc ebp
00005ADD  54                push esp
00005ADE  305F54            xor [edi+0x54],bl
00005AE1  5F                pop edi
00005AE2  53                push ebx
00005AE3  385F53            cmp [edi+0x53],bl
00005AE6  37                aaa
00005AE7  5F                pop edi
00005AE8  005F5A            add [edi+0x5a],bl
00005AEB  53                push ebx
00005AEC  7438              jz 0x5b26
00005AEE  5F                pop edi
00005AEF  44                inc esp
00005AF0  657374            gs jnc 0x5b67
00005AF3  726F              jc 0x5b64
00005AF5  7949              jns 0x5b40
00005AF7  50                push eax
00005AF8  53                push ebx
00005AF9  7434              jz 0x5b2f
00005AFB  7061              jo 0x5b5e
00005AFD  69724953305F49    imul esi,[edx+0x49],dword 0x495f3053
00005B04  69694569455332    imul ebp,[ecx+0x45],dword 0x32534569
00005B0B  5F                pop edi
00005B0C  45                inc ebp
00005B0D  7654              jna 0x5b63
00005B0F  5F                pop edi
00005B10  53                push ebx
00005B11  345F              xor al,0x5f
00005B13  52                push edx
00005B14  53                push ebx
00005B15  61                popa
00005B16  49                dec ecx
00005B17  54                push esp
00005B18  305F45            xor [edi+0x45],bl
00005B1B  005F5A            add [edi+0x5a],bl
00005B1E  53                push ebx
00005B1F  7432              jz 0x5b53
00005B21  355F5F756E        xor eax,0x6e755f5f
00005B26  677561            a16 jnz 0x5b8a
00005B29  7264              jc 0x5b8f
00005B2B  65645F            fs pop edi
00005B2E  6C                insb
00005B2F  696E6561725F69    imul ebp,[esi+0x65],dword 0x695f7261
00005B36  6E                outsb
00005B37  7365              jnc 0x5b9e
00005B39  7274              jc 0x5baf
00005B3B  49                dec ecx
00005B3C  4E                dec esi
00005B3D  395F5F            cmp [edi+0x5f],ebx
00005B40  676E              a16 outsb
00005B42  755F              jnz 0x5ba3
00005B44  637878            arpl [eax+0x78],di
00005B47  3137              xor [edi],esi
00005B49  5F                pop edi
00005B4A  5F                pop edi
00005B4B  6E                outsb
00005B4C  6F                outsd
00005B4D  726D              jc 0x5bbc
00005B4F  61                popa
00005B50  6C                insb
00005B51  5F                pop edi
00005B52  6974657261746F72  imul esi,[ebp+0x72],dword 0x726f7461
00005B5A  49                dec ecx
00005B5B  50                push eax
00005B5C  53                push ebx
00005B5D  7434              jz 0x5b93
00005B5F  7061              jo 0x5bc2
00005B61  69724953325F49    imul esi,[edx+0x49],dword 0x495f3253
00005B68  69694569455374    imul ebp,[ecx+0x45],dword 0x74534569
00005B6F  367665            ss jna 0x5bd7
00005B72  63746F72          arpl [edi+ebp*2+0x72],si
00005B76  49                dec ecx
00005B77  53                push ebx
00005B78  345F              xor al,0x5f
00005B7A  53                push ebx
00005B7B  61                popa
00005B7C  49                dec ecx
00005B7D  53                push ebx
00005B7E  345F              xor al,0x5f
00005B80  45                inc ebp
00005B81  45                inc ebp
00005B82  45                inc ebp
00005B83  45                inc ebp
00005B84  50                push eax
00005B85  46                inc esi
00005B86  62524B            bound edx,[edx+0x4b]
00005B89  53                push ebx
00005B8A  345F              xor al,0x5f
00005B8C  53                push ebx
00005B8D  42                inc edx
00005B8E  5F                pop edi
00005B8F  45                inc ebp
00005B90  45                inc ebp
00005B91  7654              jna 0x5be7
00005B93  5F                pop edi
00005B94  54                push esp
00005B95  305F00            xor [edi+0x0],bl
00005B98  5F                pop edi
00005B99  5A                pop edx
00005B9A  53                push ebx
00005B9B  7434              jz 0x5bd1
00005B9D  736F              jnc 0x5c0e
00005B9F  7274              jc 0x5c15
00005BA1  49                dec ecx
00005BA2  4E                dec esi
00005BA3  395F5F            cmp [edi+0x5f],ebx
00005BA6  676E              a16 outsb
00005BA8  755F              jnz 0x5c09
00005BAA  637878            arpl [eax+0x78],di
00005BAD  3137              xor [edi],esi
00005BAF  5F                pop edi
00005BB0  5F                pop edi
00005BB1  6E                outsb
00005BB2  6F                outsd
00005BB3  726D              jc 0x5c22
00005BB5  61                popa
00005BB6  6C                insb
00005BB7  5F                pop edi
00005BB8  6974657261746F72  imul esi,[ebp+0x72],dword 0x726f7461
00005BC0  49                dec ecx
00005BC1  50                push eax
00005BC2  53                push ebx
00005BC3  7434              jz 0x5bf9
00005BC5  7061              jo 0x5c28
00005BC7  69724953325F49    imul esi,[edx+0x49],dword 0x495f3253
00005BCE  69694569455374    imul ebp,[ecx+0x45],dword 0x74534569
00005BD5  367665            ss jna 0x5c3d
00005BD8  63746F72          arpl [edi+ebp*2+0x72],si
00005BDC  49                dec ecx
00005BDD  53                push ebx
00005BDE  345F              xor al,0x5f
00005BE0  53                push ebx
00005BE1  61                popa
00005BE2  49                dec ecx
00005BE3  53                push ebx
00005BE4  345F              xor al,0x5f
00005BE6  45                inc ebp
00005BE7  45                inc ebp
00005BE8  45                inc ebp
00005BE9  45                inc ebp
00005BEA  50                push eax
00005BEB  46                inc esi
00005BEC  62524B            bound edx,[edx+0x4b]
00005BEF  53                push ebx
00005BF0  345F              xor al,0x5f
00005BF2  53                push ebx
00005BF3  42                inc edx
00005BF4  5F                pop edi
00005BF5  45                inc ebp
00005BF6  45                inc ebp
00005BF7  7654              jna 0x5c4d
00005BF9  5F                pop edi
00005BFA  53                push ebx
00005BFB  45                inc ebp
00005BFC  5F                pop edi
00005BFD  54                push esp
00005BFE  305F00            xor [edi+0x0],bl
00005C01  5F                pop edi
00005C02  5A                pop edx
00005C03  53                push ebx
00005C04  7431              jz 0x5c37
00005C06  33636F            xor esp,[ebx+0x6f]
00005C09  7079              jo 0x5c84
00005C0B  5F                pop edi
00005C0C  626163            bound esp,[ecx+0x63]
00005C0F  6B776172          imul esi,[edi+0x61],byte +0x72
00005C13  6449              fs dec ecx
00005C15  4E                dec esi
00005C16  395F5F            cmp [edi+0x5f],ebx
00005C19  676E              a16 outsb
00005C1B  755F              jnz 0x5c7c
00005C1D  637878            arpl [eax+0x78],di
00005C20  3137              xor [edi],esi
00005C22  5F                pop edi
00005C23  5F                pop edi
00005C24  6E                outsb
00005C25  6F                outsd
00005C26  726D              jc 0x5c95
00005C28  61                popa
00005C29  6C                insb
00005C2A  5F                pop edi
00005C2B  6974657261746F72  imul esi,[ebp+0x72],dword 0x726f7461
00005C33  49                dec ecx
00005C34  50                push eax
00005C35  53                push ebx
00005C36  7434              jz 0x5c6c
00005C38  7061              jo 0x5c9b
00005C3A  69724953325F49    imul esi,[edx+0x49],dword 0x495f3253
00005C41  69694569455374    imul ebp,[ecx+0x45],dword 0x74534569
00005C48  367665            ss jna 0x5cb0
00005C4B  63746F72          arpl [edi+ebp*2+0x72],si
00005C4F  49                dec ecx
00005C50  53                push ebx
00005C51  345F              xor al,0x5f
00005C53  53                push ebx
00005C54  61                popa
00005C55  49                dec ecx
00005C56  53                push ebx
00005C57  345F              xor al,0x5f
00005C59  45                inc ebp
00005C5A  45                inc ebp
00005C5B  45                inc ebp
00005C5C  45                inc ebp
00005C5D  53                push ebx
00005C5E  395F45            cmp [edi+0x45],ebx
00005C61  54                push esp
00005C62  305F54            xor [edi+0x54],bl
00005C65  5F                pop edi
00005C66  53                push ebx
00005C67  42                inc edx
00005C68  5F                pop edi
00005C69  53                push ebx
00005C6A  41                inc ecx
00005C6B  5F                pop edi
00005C6C  005F5A            add [edi+0x5a],bl
00005C6F  4E                dec esi
00005C70  53                push ebx
00005C71  7431              jz 0x5ca4
00005C73  325F56            xor bl,[edi+0x56]
00005C76  6563746F72        arpl [gs:edi+ebp*2+0x72],si
00005C7B  5F                pop edi
00005C7C  626173            bound esp,[ecx+0x73]
00005C7F  6549              gs dec ecx
00005C81  53                push ebx
00005C82  7434              jz 0x5cb8
00005C84  7061              jo 0x5ce7
00005C86  69724953305F49    imul esi,[edx+0x49],dword 0x495f3053
00005C8D  69694569455361    imul ebp,[ecx+0x45],dword 0x61534569
00005C94  49                dec ecx
00005C95  53                push ebx
00005C96  325F45            xor bl,[edi+0x45]
00005C99  45                inc ebp
00005C9A  43                inc ebx
00005C9B  31456A            xor [ebp+0x6a],eax
00005C9E  52                push edx
00005C9F  4B                dec ebx
00005CA0  53                push ebx
00005CA1  335F00            xor ebx,[edi+0x0]
00005CA4  5F                pop edi
00005CA5  5A                pop edx
00005CA6  4E                dec esi
00005CA7  53                push ebx
00005CA8  7434              jz 0x5cde
00005CAA  7061              jo 0x5d0d
00005CAC  697249535F4969    imul esi,[edx+0x49],dword 0x69495f53
00005CB3  69456945433245    imul eax,[ebp+0x69],dword 0x45324345
00005CBA  7600              jna 0x5cbc
00005CBC  5F                pop edi
00005CBD  5A                pop edx
00005CBE  4E                dec esi
00005CBF  53                push ebx
00005CC0  7431              jz 0x5cf3
00005CC2  325F56            xor bl,[edi+0x56]
00005CC5  6563746F72        arpl [gs:edi+ebp*2+0x72],si
00005CCA  5F                pop edi
00005CCB  626173            bound esp,[ecx+0x73]
00005CCE  6549              gs dec ecx
00005CD0  53                push ebx
00005CD1  7434              jz 0x5d07
00005CD3  7061              jo 0x5d36
00005CD5  69724953305F49    imul esi,[edx+0x49],dword 0x495f3053
00005CDC  69694569455361    imul ebp,[ecx+0x45],dword 0x61534569
00005CE3  49                dec ecx
00005CE4  53                push ebx
00005CE5  325F45            xor bl,[edi+0x45]
00005CE8  45                inc ebp
00005CE9  3132              xor [edx],esi
00005CEB  5F                pop edi
00005CEC  56                push esi
00005CED  6563746F72        arpl [gs:edi+ebp*2+0x72],si
00005CF2  5F                pop edi
00005CF3  696D706C443145    imul ebp,[ebp+0x70],dword 0x4531446c
00005CFA  7600              jna 0x5cfc
00005CFC  5F                pop edi
00005CFD  5A                pop edx
00005CFE  4E                dec esi
00005CFF  53                push ebx
00005D00  7436              jz 0x5d38
00005D02  7665              jna 0x5d69
00005D04  63746F72          arpl [edi+ebp*2+0x72],si
00005D08  49                dec ecx
00005D09  53                push ebx
00005D0A  7434              jz 0x5d40
00005D0C  7061              jo 0x5d6f
00005D0E  69724953305F49    imul esi,[edx+0x49],dword 0x495f3053
00005D15  69694569455361    imul ebp,[ecx+0x45],dword 0x61534569
00005D1C  49                dec ecx
00005D1D  53                push ebx
00005D1E  325F45            xor bl,[edi+0x45]
00005D21  45                inc ebp
00005D22  43                inc ebx
00005D23  31456A            xor [ebp+0x6a],eax
00005D26  52                push edx
00005D27  4B                dec ebx
00005D28  53                push ebx
00005D29  325F52            xor bl,[edi+0x52]
00005D2C  4B                dec ebx
00005D2D  53                push ebx
00005D2E  335F00            xor ebx,[edi+0x0]
00005D31  5F                pop edi
00005D32  5A                pop edx
00005D33  53                push ebx
00005D34  7432              jz 0x5d68
00005D36  37                aaa
00005D37  5F                pop edi
00005D38  5F                pop edi
00005D39  756E              jnz 0x5da9
00005D3B  677561            a16 jnz 0x5d9f
00005D3E  7264              jc 0x5da4
00005D40  65645F            fs pop edi
00005D43  7061              jo 0x5da6
00005D45  7274              jc 0x5dbb
00005D47  6974696F6E5F7069  imul esi,[ecx+ebp*2+0x6f],dword 0x69705f6e
00005D4F  766F              jna 0x5dc0
00005D51  7449              jz 0x5d9c
00005D53  4E                dec esi
00005D54  395F5F            cmp [edi+0x5f],ebx
00005D57  676E              a16 outsb
00005D59  755F              jnz 0x5dba
00005D5B  637878            arpl [eax+0x78],di
00005D5E  3137              xor [edi],esi
00005D60  5F                pop edi
00005D61  5F                pop edi
00005D62  6E                outsb
00005D63  6F                outsd
00005D64  726D              jc 0x5dd3
00005D66  61                popa
00005D67  6C                insb
00005D68  5F                pop edi
00005D69  6974657261746F72  imul esi,[ebp+0x72],dword 0x726f7461
00005D71  49                dec ecx
00005D72  50                push eax
00005D73  53                push ebx
00005D74  7434              jz 0x5daa
00005D76  7061              jo 0x5dd9
00005D78  69724953325F49    imul esi,[edx+0x49],dword 0x495f3253
00005D7F  69694569455374    imul ebp,[ecx+0x45],dword 0x74534569
00005D86  367665            ss jna 0x5dee
00005D89  63746F72          arpl [edi+ebp*2+0x72],si
00005D8D  49                dec ecx
00005D8E  53                push ebx
00005D8F  345F              xor al,0x5f
00005D91  53                push ebx
00005D92  61                popa
00005D93  49                dec ecx
00005D94  53                push ebx
00005D95  345F              xor al,0x5f
00005D97  45                inc ebp
00005D98  45                inc ebp
00005D99  45                inc ebp
00005D9A  45                inc ebp
00005D9B  50                push eax
00005D9C  46                inc esi
00005D9D  62524B            bound edx,[edx+0x4b]
00005DA0  53                push ebx
00005DA1  345F              xor al,0x5f
00005DA3  53                push ebx
00005DA4  42                inc edx
00005DA5  5F                pop edi
00005DA6  45                inc ebp
00005DA7  45                inc ebp
00005DA8  54                push esp
00005DA9  5F                pop edi
00005DAA  53                push ebx
00005DAB  45                inc ebp
00005DAC  5F                pop edi
00005DAD  53                push ebx
00005DAE  45                inc ebp
00005DAF  5F                pop edi
00005DB0  54                push esp
00005DB1  305F00            xor [edi+0x0],bl
00005DB4  5F                pop edi
00005DB5  5A                pop edx
00005DB6  4E                dec esi
00005DB7  53                push ebx
00005DB8  7431              jz 0x5deb
00005DBA  325F44            xor bl,[edi+0x44]
00005DBD  657374            gs jnc 0x5e34
00005DC0  726F              jc 0x5e31
00005DC2  795F              jns 0x5e23
00005DC4  61                popa
00005DC5  7578              jnz 0x5e3f
00005DC7  49                dec ecx
00005DC8  4C                dec esp
00005DC9  6231              bound esi,[ecx]
00005DCB  45                inc ebp
00005DCC  45                inc ebp
00005DCD  395F5F            cmp [edi+0x5f],ebx
00005DD0  64657374          gs jnc 0x5e48
00005DD4  726F              jc 0x5e45
00005DD6  7949              jns 0x5e21
00005DD8  50                push eax
00005DD9  53                push ebx
00005DDA  7434              jz 0x5e10
00005DDC  7061              jo 0x5e3f
00005DDE  69724953325F49    imul esi,[edx+0x49],dword 0x495f3253
00005DE5  69694569454545    imul ebp,[ecx+0x45],dword 0x45454569
00005DEC  7654              jna 0x5e42
00005DEE  5F                pop edi
00005DEF  53                push ebx
00005DF0  365F              ss pop edi
00005DF2  005F5F            add [edi+0x5f],bl
00005DF5  54                push esp
00005DF6  4D                dec ebp
00005DF7  43                inc ebx
00005DF8  5F                pop edi
00005DF9  45                inc ebp
00005DFA  4E                dec esi
00005DFB  44                inc esp
00005DFC  5F                pop edi
00005DFD  5F                pop edi
00005DFE  005F5A            add [edi+0x5a],bl
00005E01  53                push ebx
00005E02  7434              jz 0x5e38
00005E04  7377              jnc 0x5e7d
00005E06  61                popa
00005E07  7049              jo 0x5e52
00005E09  53                push ebx
00005E0A  7434              jz 0x5e40
00005E0C  7061              jo 0x5e6f
00005E0E  69724953305F49    imul esi,[edx+0x49],dword 0x495f3053
00005E15  69694569454576    imul ebp,[ecx+0x45],dword 0x76454569
00005E1C  52                push edx
00005E1D  54                push esp
00005E1E  5F                pop edi
00005E1F  53                push ebx
00005E20  345F              xor al,0x5f
00005E22  005F5A            add [edi+0x5a],bl
00005E25  53                push ebx
00005E26  7434              jz 0x5e5c
00005E28  636F75            arpl [edi+0x75],bp
00005E2B  7440              jz 0x5e6d
00005E2D  40                inc eax
00005E2E  47                inc edi
00005E2F  4C                dec esp
00005E30  49                dec ecx
00005E31  42                inc edx
00005E32  43                inc ebx
00005E33  58                pop eax
00005E34  58                pop eax
00005E35  5F                pop edi
00005E36  332E              xor ebp,[esi]
00005E38  3400              xor al,0x0
00005E3A  5F                pop edi
00005E3B  5F                pop edi
00005E3C  64736F            fs jnc 0x5eae
00005E3F  5F                pop edi
00005E40  68616E646C        push dword 0x6c646e61
00005E45  65005F5F          add [gs:edi+0x5f],bl
00005E49  44                inc esp
00005E4A  54                push esp
00005E4B  4F                dec edi
00005E4C  52                push edx
00005E4D  5F                pop edi
00005E4E  45                inc ebp
00005E4F  4E                dec esi
00005E50  44                inc esp
00005E51  5F                pop edi
00005E52  5F                pop edi
00005E53  005F5F            add [edi+0x5f],bl
00005E56  6C                insb
00005E57  6962635F637375    imul esp,[edx+0x63],dword 0x7573635f
00005E5E  5F                pop edi
00005E5F  696E6974005F5A    imul ebp,[esi+0x69],dword 0x5a5f0074
00005E66  53                push ebx
00005E67  7431              jz 0x5e9a
00005E69  315F5F            xor [edi+0x5f],ebx
00005E6C  61                popa
00005E6D  64647265          fs jc 0x5ed6
00005E71  7373              jnc 0x5ee6
00005E73  6F                outsd
00005E74  6649              dec cx
00005E76  53                push ebx
00005E77  7434              jz 0x5ead
00005E79  7061              jo 0x5edc
00005E7B  69724953305F49    imul esi,[edx+0x49],dword 0x495f3053
00005E82  69694569454550    imul ebp,[ecx+0x45],dword 0x50454569
00005E89  54                push esp
00005E8A  5F                pop edi
00005E8B  52                push edx
00005E8C  53                push ebx
00005E8D  335F00            xor ebx,[edi+0x0]
00005E90  5F                pop edi
00005E91  5A                pop edx
00005E92  4E                dec esi
00005E93  395F5F            cmp [edi+0x5f],ebx
00005E96  676E              a16 outsb
00005E98  755F              jnz 0x5ef9
00005E9A  637878            arpl [eax+0x78],di
00005E9D  3133              xor [ebx],esi
00005E9F  6E                outsb
00005EA0  65775F            gs ja 0x5f02
00005EA3  61                popa
00005EA4  6C                insb
00005EA5  6C                insb
00005EA6  6F                outsd
00005EA7  636174            arpl [ecx+0x74],sp
00005EAA  6F                outsd
00005EAB  7249              jc 0x5ef6
00005EAD  53                push ebx
00005EAE  7434              jz 0x5ee4
00005EB0  7061              jo 0x5f13
00005EB2  69724953315F49    imul esi,[edx+0x49],dword 0x495f3153
00005EB9  69694569454544    imul ebp,[ecx+0x45],dword 0x44454569
00005EC0  314576            xor [ebp+0x76],eax
00005EC3  005F5A            add [edi+0x5a],bl
00005EC6  4E                dec esi
00005EC7  395F5F            cmp [edi+0x5f],ebx
00005ECA  676E              a16 outsb
00005ECC  755F              jnz 0x5f2d
00005ECE  637878            arpl [eax+0x78],di
00005ED1  3133              xor [ebx],esi
00005ED3  6E                outsb
00005ED4  65775F            gs ja 0x5f36
00005ED7  61                popa
00005ED8  6C                insb
00005ED9  6C                insb
00005EDA  6F                outsd
00005EDB  636174            arpl [ecx+0x74],sp
00005EDE  6F                outsd
00005EDF  7249              jc 0x5f2a
00005EE1  53                push ebx
00005EE2  7434              jz 0x5f18
00005EE4  7061              jo 0x5f47
00005EE6  69724953315F49    imul esi,[edx+0x49],dword 0x495f3153
00005EED  69694569454531    imul ebp,[ecx+0x45],dword 0x31454569
00005EF4  30646561          xor [ebp+0x61],ah
00005EF8  6C                insb
00005EF9  6C                insb
00005EFA  6F                outsd
00005EFB  636174            arpl [ecx+0x74],sp
00005EFE  6545              gs inc ebp
00005F00  50                push eax
00005F01  53                push ebx
00005F02  335F6A            xor ebx,[edi+0x6a]
00005F05  005F5A            add [edi+0x5a],bl
00005F08  6E                outsb
00005F09  776A              ja 0x5f75
00005F0B  40                inc eax
00005F0C  40                inc eax
00005F0D  47                inc edi
00005F0E  4C                dec esp
00005F0F  49                dec ecx
00005F10  42                inc edx
00005F11  43                inc ebx
00005F12  58                pop eax
00005F13  58                pop eax
00005F14  5F                pop edi
00005F15  332E              xor ebp,[esi]
00005F17  3400              xor al,0x0
00005F19  5F                pop edi
00005F1A  5A                pop edx
00005F1B  4E                dec esi
00005F1C  4B                dec ebx
00005F1D  395F5F            cmp [edi+0x5f],ebx
00005F20  676E              a16 outsb
00005F22  755F              jnz 0x5f83
00005F24  637878            arpl [eax+0x78],di
00005F27  3137              xor [edi],esi
00005F29  5F                pop edi
00005F2A  5F                pop edi
00005F2B  6E                outsb
00005F2C  6F                outsd
00005F2D  726D              jc 0x5f9c
00005F2F  61                popa
00005F30  6C                insb
00005F31  5F                pop edi
00005F32  6974657261746F72  imul esi,[ebp+0x72],dword 0x726f7461
00005F3A  49                dec ecx
00005F3B  50                push eax
00005F3C  53                push ebx
00005F3D  7434              jz 0x5f73
00005F3F  7061              jo 0x5fa2
00005F41  69724953315F49    imul esi,[edx+0x49],dword 0x495f3153
00005F48  69694569455374    imul ebp,[ecx+0x45],dword 0x74534569
00005F4F  367665            ss jna 0x5fb7
00005F52  63746F72          arpl [edi+ebp*2+0x72],si
00005F56  49                dec ecx
00005F57  53                push ebx
00005F58  335F53            xor ebx,[edi+0x53]
00005F5B  61                popa
00005F5C  49                dec ecx
00005F5D  53                push ebx
00005F5E  335F45            xor ebx,[edi+0x45]
00005F61  45                inc ebp
00005F62  45                inc ebp
00005F63  706C              jo 0x5fd1
00005F65  45                inc ebp
00005F66  52                push edx
00005F67  4B                dec ebx
00005F68  69005F5A4E53      imul eax,[eax],dword 0x534e5a5f
00005F6E  7432              jz 0x5fa2
00005F70  325F5F            xor bl,[edi+0x5f]
00005F73  756E              jnz 0x5fe3
00005F75  696E697469616C    imul ebp,[esi+0x69],dword 0x6c616974
00005F7C  697A65645F6669    imul edi,[edx+0x65],dword 0x69665f64
00005F83  6C                insb
00005F84  6C                insb
00005F85  5F                pop edi
00005F86  6E                outsb
00005F87  49                dec ecx
00005F88  4C                dec esp
00005F89  6230              bound esi,[eax]
00005F8B  45                inc ebp
00005F8C  45                inc ebp
00005F8D  31355F5F756E      xor [0x6e755f5f],esi
00005F93  696E69745F6669    imul ebp,[esi+0x69],dword 0x69665f74
00005F9A  6C                insb
00005F9B  6C                insb
00005F9C  5F                pop edi
00005F9D  6E                outsb
00005F9E  49                dec ecx
00005F9F  50                push eax
00005FA0  53                push ebx
00005FA1  7434              jz 0x5fd7
00005FA3  7061              jo 0x6006
00005FA5  69724953325F49    imul esi,[edx+0x49],dword 0x495f3253
00005FAC  69694569456A53    imul ebp,[ecx+0x45],dword 0x536a4569
00005FB3  345F              xor al,0x5f
00005FB5  45                inc ebp
00005FB6  45                inc ebp
00005FB7  7654              jna 0x600d
00005FB9  5F                pop edi
00005FBA  54                push esp
00005FBB  305F52            xor [edi+0x52],bl
00005FBE  4B                dec ebx
00005FBF  54                push esp
00005FC0  315F00            xor [edi+0x0],ebx
00005FC3  5F                pop edi
00005FC4  5A                pop edx
00005FC5  4E                dec esi
00005FC6  53                push ebx
00005FC7  61                popa
00005FC8  49                dec ecx
00005FC9  53                push ebx
00005FCA  7434              jz 0x6000
00005FCC  7061              jo 0x602f
00005FCE  697249535F4969    imul esi,[edx+0x49],dword 0x69495f53
00005FD5  69456945454432    imul eax,[ebp+0x69],dword 0x32444545
00005FDC  45                inc ebp
00005FDD  7600              jna 0x5fdf
00005FDF  5F                pop edi
00005FE0  5A                pop edx
00005FE1  4E                dec esi
00005FE2  53                push ebx
00005FE3  7436              jz 0x601b
00005FE5  7665              jna 0x604c
00005FE7  63746F72          arpl [edi+ebp*2+0x72],si
00005FEB  49                dec ecx
00005FEC  53                push ebx
00005FED  7434              jz 0x6023
00005FEF  7061              jo 0x6052
00005FF1  69724953305F49    imul esi,[edx+0x49],dword 0x495f3053
00005FF8  69694569455361    imul ebp,[ecx+0x45],dword 0x61534569
00005FFF  49                dec ecx
00006000  53                push ebx
00006001  325F45            xor bl,[edi+0x45]
00006004  45                inc ebp
00006005  44                inc esp
00006006  314576            xor [ebp+0x76],eax
00006009  005F5F            add [edi+0x5f],bl
0000600C  627373            bound esi,[ebx+0x73]
0000600F  5F                pop edi
00006010  7374              jnc 0x6086
00006012  61                popa
00006013  7274              jc 0x6089
00006015  005F5A            add [edi+0x5a],bl
00006018  53                push ebx
00006019  7439              jz 0x6054
0000601B  736F              jnc 0x608c
0000601D  7274              jc 0x6093
0000601F  5F                pop edi
00006020  6865617049        push dword 0x49706165
00006025  4E                dec esi
00006026  395F5F            cmp [edi+0x5f],ebx
00006029  676E              a16 outsb
0000602B  755F              jnz 0x608c
0000602D  637878            arpl [eax+0x78],di
00006030  3137              xor [edi],esi
00006032  5F                pop edi
00006033  5F                pop edi
00006034  6E                outsb
00006035  6F                outsd
00006036  726D              jc 0x60a5
00006038  61                popa
00006039  6C                insb
0000603A  5F                pop edi
0000603B  6974657261746F72  imul esi,[ebp+0x72],dword 0x726f7461
00006043  49                dec ecx
00006044  50                push eax
00006045  53                push ebx
00006046  7434              jz 0x607c
00006048  7061              jo 0x60ab
0000604A  69724953325F49    imul esi,[edx+0x49],dword 0x495f3253
00006051  69694569455374    imul ebp,[ecx+0x45],dword 0x74534569
00006058  367665            ss jna 0x60c0
0000605B  63746F72          arpl [edi+ebp*2+0x72],si
0000605F  49                dec ecx
00006060  53                push ebx
00006061  345F              xor al,0x5f
00006063  53                push ebx
00006064  61                popa
00006065  49                dec ecx
00006066  53                push ebx
00006067  345F              xor al,0x5f
00006069  45                inc ebp
0000606A  45                inc ebp
0000606B  45                inc ebp
0000606C  45                inc ebp
0000606D  50                push eax
0000606E  46                inc esi
0000606F  62524B            bound edx,[edx+0x4b]
00006072  53                push ebx
00006073  345F              xor al,0x5f
00006075  53                push ebx
00006076  42                inc edx
00006077  5F                pop edi
00006078  45                inc ebp
00006079  45                inc ebp
0000607A  7654              jna 0x60d0
0000607C  5F                pop edi
0000607D  53                push ebx
0000607E  45                inc ebp
0000607F  5F                pop edi
00006080  54                push esp
00006081  305F00            xor [edi+0x0],bl
00006084  5F                pop edi
00006085  5A                pop edx
00006086  4E                dec esi
00006087  53                push ebx
00006088  7436              jz 0x60c0
0000608A  7665              jna 0x60f1
0000608C  63746F72          arpl [edi+ebp*2+0x72],si
00006090  49                dec ecx
00006091  53                push ebx
00006092  7434              jz 0x60c8
00006094  7061              jo 0x60f7
00006096  69724953305F49    imul esi,[edx+0x49],dword 0x495f3053
0000609D  69694569455361    imul ebp,[ecx+0x45],dword 0x61534569
000060A4  49                dec ecx
000060A5  53                push ebx
000060A6  325F45            xor bl,[edi+0x45]
000060A9  45                inc ebp
000060AA  33656E            xor esp,[ebp+0x6e]
000060AD  6445              fs inc ebp
000060AF  7600              jna 0x60b1
000060B1  5F                pop edi
000060B2  5A                pop edx
000060B3  4E                dec esi
000060B4  53                push ebx
000060B5  61                popa
000060B6  49                dec ecx
000060B7  53                push ebx
000060B8  7434              jz 0x60ee
000060BA  7061              jo 0x611d
000060BC  697249535F4969    imul esi,[edx+0x49],dword 0x69495f53
000060C3  69456945454332    imul eax,[ebp+0x69],dword 0x32434545
000060CA  45                inc ebp
000060CB  7600              jna 0x60cd
000060CD  5F                pop edi
000060CE  5A                pop edx
000060CF  4E                dec esi
000060D0  53                push ebx
000060D1  7431              jz 0x6104
000060D3  315F5F            xor [edi+0x5f],ebx
000060D6  697465725F737761  imul esi,[ebp+0x72],dword 0x6177735f
000060DE  7049              jo 0x6129
000060E0  4C                dec esp
000060E1  6231              bound esi,[ecx]
000060E3  45                inc ebp
000060E4  45                inc ebp
000060E5  396974            cmp [ecx+0x74],ebp
000060E8  65725F            gs jc 0x614a
000060EB  7377              jnc 0x6164
000060ED  61                popa
000060EE  7049              jo 0x6139
000060F0  4E                dec esi
000060F1  395F5F            cmp [edi+0x5f],ebx
000060F4  676E              a16 outsb
000060F6  755F              jnz 0x6157
000060F8  637878            arpl [eax+0x78],di
000060FB  3137              xor [edi],esi
000060FD  5F                pop edi
000060FE  5F                pop edi
000060FF  6E                outsb
00006100  6F                outsd
00006101  726D              jc 0x6170
00006103  61                popa
00006104  6C                insb
00006105  5F                pop edi
00006106  6974657261746F72  imul esi,[ebp+0x72],dword 0x726f7461
0000610E  49                dec ecx
0000610F  50                push eax
00006110  53                push ebx
00006111  7434              jz 0x6147
00006113  7061              jo 0x6176
00006115  69724953345F49    imul esi,[edx+0x49],dword 0x495f3453
0000611C  69694569455374    imul ebp,[ecx+0x45],dword 0x74534569
00006123  367665            ss jna 0x618b
00006126  63746F72          arpl [edi+ebp*2+0x72],si
0000612A  49                dec ecx
0000612B  53                push ebx
0000612C  365F              ss pop edi
0000612E  53                push ebx
0000612F  61                popa
00006130  49                dec ecx
00006131  53                push ebx
00006132  365F              ss pop edi
00006134  45                inc ebp
00006135  45                inc ebp
00006136  45                inc ebp
00006137  45                inc ebp
00006138  53                push ebx
00006139  42                inc edx
0000613A  5F                pop edi
0000613B  45                inc ebp
0000613C  45                inc ebp
0000613D  7654              jna 0x6193
0000613F  5F                pop edi
00006140  54                push esp
00006141  305F00            xor [edi+0x0],bl
00006144  5F                pop edi
00006145  5A                pop edx
00006146  4E                dec esi
00006147  53                push ebx
00006148  7436              jz 0x6180
0000614A  7665              jna 0x61b1
0000614C  63746F72          arpl [edi+ebp*2+0x72],si
00006150  49                dec ecx
00006151  53                push ebx
00006152  7434              jz 0x6188
00006154  7061              jo 0x61b7
00006156  69724953305F49    imul esi,[edx+0x49],dword 0x495f3053
0000615D  69694569455361    imul ebp,[ecx+0x45],dword 0x61534569
00006164  49                dec ecx
00006165  53                push ebx
00006166  325F45            xor bl,[edi+0x45]
00006169  45                inc ebp
0000616A  43                inc ebx
0000616B  32456A            xor al,[ebp+0x6a]
0000616E  52                push edx
0000616F  4B                dec ebx
00006170  53                push ebx
00006171  325F52            xor bl,[edi+0x52]
00006174  4B                dec ebx
00006175  53                push ebx
00006176  335F00            xor ebx,[edi+0x0]
00006179  5F                pop edi
0000617A  5A                pop edx
0000617B  53                push ebx
0000617C  7432              jz 0x61b0
0000617E  30756E            xor [ebp+0x6e],dh
00006181  696E697469616C    imul ebp,[esi+0x69],dword 0x6c616974
00006188  697A65645F6669    imul edi,[edx+0x65],dword 0x69665f64
0000618F  6C                insb
00006190  6C                insb
00006191  5F                pop edi
00006192  6E                outsb
00006193  49                dec ecx
00006194  50                push eax
00006195  53                push ebx
00006196  7434              jz 0x61cc
00006198  7061              jo 0x61fb
0000619A  69724953305F49    imul esi,[edx+0x49],dword 0x495f3053
000061A1  69694569456A53    imul ebp,[ecx+0x45],dword 0x536a4569
000061A8  325F45            xor bl,[edi+0x45]
000061AB  7654              jna 0x6201
000061AD  5F                pop edi
000061AE  54                push esp
000061AF  305F52            xor [edi+0x52],bl
000061B2  4B                dec ebx
000061B3  54                push esp
000061B4  315F00            xor [edi+0x0],ebx
000061B7  5F                pop edi
000061B8  5A                pop edx
000061B9  4E                dec esi
000061BA  395F5F            cmp [edi+0x5f],ebx
000061BD  676E              a16 outsb
000061BF  755F              jnz 0x6220
000061C1  637878            arpl [eax+0x78],di
000061C4  3133              xor [ebx],esi
000061C6  6E                outsb
000061C7  65775F            gs ja 0x6229
000061CA  61                popa
000061CB  6C                insb
000061CC  6C                insb
000061CD  6F                outsd
000061CE  636174            arpl [ecx+0x74],sp
000061D1  6F                outsd
000061D2  7249              jc 0x621d
000061D4  53                push ebx
000061D5  7434              jz 0x620b
000061D7  7061              jo 0x623a
000061D9  69724953315F49    imul esi,[edx+0x49],dword 0x495f3153
000061E0  69694569454543    imul ebp,[ecx+0x45],dword 0x43454569
000061E7  324552            xor al,[ebp+0x52]
000061EA  4B                dec ebx
000061EB  53                push ebx
000061EC  345F              xor al,0x5f
000061EE  005F5A            add [edi+0x5a],bl
000061F1  53                push ebx
000061F2  7431              jz 0x6225
000061F4  335F5F            xor ebx,[edi+0x5f]
000061F7  686561705F        push dword 0x5f706165
000061FC  7365              jnc 0x6263
000061FE  6C                insb
000061FF  656374494E        arpl [gs:ecx+ecx*2+0x4e],si
00006204  395F5F            cmp [edi+0x5f],ebx
00006207  676E              a16 outsb
00006209  755F              jnz 0x626a
0000620B  637878            arpl [eax+0x78],di
0000620E  3137              xor [edi],esi
00006210  5F                pop edi
00006211  5F                pop edi
00006212  6E                outsb
00006213  6F                outsd
00006214  726D              jc 0x6283
00006216  61                popa
00006217  6C                insb
00006218  5F                pop edi
00006219  6974657261746F72  imul esi,[ebp+0x72],dword 0x726f7461
00006221  49                dec ecx
00006222  50                push eax
00006223  53                push ebx
00006224  7434              jz 0x625a
00006226  7061              jo 0x6289
00006228  69724953325F49    imul esi,[edx+0x49],dword 0x495f3253
0000622F  69694569455374    imul ebp,[ecx+0x45],dword 0x74534569
00006236  367665            ss jna 0x629e
00006239  63746F72          arpl [edi+ebp*2+0x72],si
0000623D  49                dec ecx
0000623E  53                push ebx
0000623F  345F              xor al,0x5f
00006241  53                push ebx
00006242  61                popa
00006243  49                dec ecx
00006244  53                push ebx
00006245  345F              xor al,0x5f
00006247  45                inc ebp
00006248  45                inc ebp
00006249  45                inc ebp
0000624A  45                inc ebp
0000624B  50                push eax
0000624C  46                inc esi
0000624D  62524B            bound edx,[edx+0x4b]
00006250  53                push ebx
00006251  345F              xor al,0x5f
00006253  53                push ebx
00006254  42                inc edx
00006255  5F                pop edi
00006256  45                inc ebp
00006257  45                inc ebp
00006258  7654              jna 0x62ae
0000625A  5F                pop edi
0000625B  53                push ebx
0000625C  45                inc ebp
0000625D  5F                pop edi
0000625E  53                push ebx
0000625F  45                inc ebp
00006260  5F                pop edi
00006261  54                push esp
00006262  305F00            xor [edi+0x0],bl
00006265  5F                pop edi
00006266  5A                pop edx
00006267  4E                dec esi
00006268  53                push ebx
00006269  69727345526940    imul esi,[edx+0x73],dword 0x40695245
00006270  40                inc eax
00006271  47                inc edi
00006272  4C                dec esp
00006273  49                dec ecx
00006274  42                inc edx
00006275  43                inc ebx
00006276  58                pop eax
00006277  58                pop eax
00006278  5F                pop edi
00006279  332E              xor ebp,[esi]
0000627B  3400              xor al,0x0
0000627D  5F                pop edi
0000627E  5A                pop edx
0000627F  4E                dec esi
00006280  53                push ebx
00006281  7434              jz 0x62b7
00006283  7061              jo 0x62e6
00006285  69724969694543    imul esi,[edx+0x49],dword 0x43456969
0000628C  314576            xor [ebp+0x76],eax
0000628F  005F5A            add [edi+0x5a],bl
00006292  53                push ebx
00006293  7431              jz 0x62c6
00006295  395F5F            cmp [edi+0x5f],ebx
00006298  6D                insd
00006299  6F                outsd
0000629A  7665              jna 0x6301
0000629C  5F                pop edi
0000629D  6D                insd
0000629E  656469616E5F6669  imul esp,[fs:ecx+0x6e],dword 0x7269665f
         -72
000062A7  7374              jnc 0x631d
000062A9  49                dec ecx
000062AA  4E                dec esi
000062AB  395F5F            cmp [edi+0x5f],ebx
000062AE  676E              a16 outsb
000062B0  755F              jnz 0x6311
000062B2  637878            arpl [eax+0x78],di
000062B5  3137              xor [edi],esi
000062B7  5F                pop edi
000062B8  5F                pop edi
000062B9  6E                outsb
000062BA  6F                outsd
000062BB  726D              jc 0x632a
000062BD  61                popa
000062BE  6C                insb
000062BF  5F                pop edi
000062C0  6974657261746F72  imul esi,[ebp+0x72],dword 0x726f7461
000062C8  49                dec ecx
000062C9  50                push eax
000062CA  53                push ebx
000062CB  7434              jz 0x6301
000062CD  7061              jo 0x6330
000062CF  69724953325F49    imul esi,[edx+0x49],dword 0x495f3253
000062D6  69694569455374    imul ebp,[ecx+0x45],dword 0x74534569
000062DD  367665            ss jna 0x6345
000062E0  63746F72          arpl [edi+ebp*2+0x72],si
000062E4  49                dec ecx
000062E5  53                push ebx
000062E6  345F              xor al,0x5f
000062E8  53                push ebx
000062E9  61                popa
000062EA  49                dec ecx
000062EB  53                push ebx
000062EC  345F              xor al,0x5f
000062EE  45                inc ebp
000062EF  45                inc ebp
000062F0  45                inc ebp
000062F1  45                inc ebp
000062F2  50                push eax
000062F3  46                inc esi
000062F4  62524B            bound edx,[edx+0x4b]
000062F7  53                push ebx
000062F8  345F              xor al,0x5f
000062FA  53                push ebx
000062FB  42                inc edx
000062FC  5F                pop edi
000062FD  45                inc ebp
000062FE  45                inc ebp
000062FF  7654              jna 0x6355
00006301  5F                pop edi
00006302  53                push ebx
00006303  45                inc ebp
00006304  5F                pop edi
00006305  53                push ebx
00006306  45                inc ebp
00006307  5F                pop edi
00006308  54                push esp
00006309  305F00            xor [edi+0x0],bl
0000630C  5F                pop edi
0000630D  5A                pop edx
0000630E  4E                dec esi
0000630F  53                push ebx
00006310  7431              jz 0x6343
00006312  325F56            xor bl,[edi+0x56]
00006315  6563746F72        arpl [gs:edi+ebp*2+0x72],si
0000631A  5F                pop edi
0000631B  626173            bound esp,[ecx+0x73]
0000631E  6549              gs dec ecx
00006320  53                push ebx
00006321  7434              jz 0x6357
00006323  7061              jo 0x6386
00006325  69724953305F49    imul esi,[edx+0x49],dword 0x495f3053
0000632C  69694569455361    imul ebp,[ecx+0x45],dword 0x61534569
00006333  49                dec ecx
00006334  53                push ebx
00006335  325F45            xor bl,[edi+0x45]
00006338  45                inc ebp
00006339  44                inc esp
0000633A  314576            xor [ebp+0x76],eax
0000633D  005F65            add [edi+0x65],bl
00006340  6E                outsb
00006341  64005F5A          add [fs:edi+0x5a],bl
00006345  4E                dec esi
00006346  53                push ebx
00006347  6F                outsd
00006348  6C                insb
00006349  7345              jnc 0x6390
0000634B  50                push eax
0000634C  46                inc esi
0000634D  52                push edx
0000634E  53                push ebx
0000634F  6F                outsd
00006350  53                push ebx
00006351  5F                pop edi
00006352  45                inc ebp
00006353  40                inc eax
00006354  40                inc eax
00006355  47                inc edi
00006356  4C                dec esp
00006357  49                dec ecx
00006358  42                inc edx
00006359  43                inc ebx
0000635A  58                pop eax
0000635B  58                pop eax
0000635C  5F                pop edi
0000635D  332E              xor ebp,[esi]
0000635F  3400              xor al,0x0
00006361  5F                pop edi
00006362  5A                pop edx
00006363  53                push ebx
00006364  7431              jz 0x6397
00006366  335F5F            xor ebx,[edi+0x5f]
00006369  61                popa
0000636A  646A75            fs push byte +0x75
0000636D  7374              jnc 0x63e3
0000636F  5F                pop edi
00006370  6865617049        push dword 0x49706165
00006375  4E                dec esi
00006376  395F5F            cmp [edi+0x5f],ebx
00006379  676E              a16 outsb
0000637B  755F              jnz 0x63dc
0000637D  637878            arpl [eax+0x78],di
00006380  3137              xor [edi],esi
00006382  5F                pop edi
00006383  5F                pop edi
00006384  6E                outsb
00006385  6F                outsd
00006386  726D              jc 0x63f5
00006388  61                popa
00006389  6C                insb
0000638A  5F                pop edi
0000638B  6974657261746F72  imul esi,[ebp+0x72],dword 0x726f7461
00006393  49                dec ecx
00006394  50                push eax
00006395  53                push ebx
00006396  7434              jz 0x63cc
00006398  7061              jo 0x63fb
0000639A  69724953325F49    imul esi,[edx+0x49],dword 0x495f3253
000063A1  69694569455374    imul ebp,[ecx+0x45],dword 0x74534569
000063A8  367665            ss jna 0x6410
000063AB  63746F72          arpl [edi+ebp*2+0x72],si
000063AF  49                dec ecx
000063B0  53                push ebx
000063B1  345F              xor al,0x5f
000063B3  53                push ebx
000063B4  61                popa
000063B5  49                dec ecx
000063B6  53                push ebx
000063B7  345F              xor al,0x5f
000063B9  45                inc ebp
000063BA  45                inc ebp
000063BB  45                inc ebp
000063BC  45                inc ebp
000063BD  6953345F504662    imul edx,[ebx+0x34],dword 0x6246505f
000063C4  52                push edx
000063C5  4B                dec ebx
000063C6  53                push ebx
000063C7  345F              xor al,0x5f
000063C9  53                push ebx
000063CA  42                inc edx
000063CB  5F                pop edi
000063CC  45                inc ebp
000063CD  45                inc ebp
000063CE  7654              jna 0x6424
000063D0  5F                pop edi
000063D1  54                push esp
000063D2  305F53            xor [edi+0x53],bl
000063D5  46                inc esi
000063D6  5F                pop edi
000063D7  54                push esp
000063D8  315F54            xor [edi+0x54],ebx
000063DB  325F00            xor bl,[edi+0x0]
000063DE  5F                pop edi
000063DF  5A                pop edx
000063E0  4E                dec esi
000063E1  395F5F            cmp [edi+0x5f],ebx
000063E4  676E              a16 outsb
000063E6  755F              jnz 0x6447
000063E8  637878            arpl [eax+0x78],di
000063EB  3137              xor [edi],esi
000063ED  5F                pop edi
000063EE  5F                pop edi
000063EF  6E                outsb
000063F0  6F                outsd
000063F1  726D              jc 0x6460
000063F3  61                popa
000063F4  6C                insb
000063F5  5F                pop edi
000063F6  6974657261746F72  imul esi,[ebp+0x72],dword 0x726f7461
000063FE  49                dec ecx
000063FF  50                push eax
00006400  53                push ebx
00006401  7434              jz 0x6437
00006403  7061              jo 0x6466
00006405  69724953315F49    imul esi,[edx+0x49],dword 0x495f3153
0000640C  69694569455374    imul ebp,[ecx+0x45],dword 0x74534569
00006413  367665            ss jna 0x647b
00006416  63746F72          arpl [edi+ebp*2+0x72],si
0000641A  49                dec ecx
0000641B  53                push ebx
0000641C  335F53            xor ebx,[edi+0x53]
0000641F  61                popa
00006420  49                dec ecx
00006421  53                push ebx
00006422  335F45            xor ebx,[edi+0x45]
00006425  45                inc ebp
00006426  45                inc ebp
00006427  43                inc ebx
00006428  314552            xor [ebp+0x52],eax
0000642B  4B                dec ebx
0000642C  53                push ebx
0000642D  345F              xor al,0x5f
0000642F  005F5A            add [edi+0x5a],bl
00006432  53                push ebx
00006433  7431              jz 0x6466
00006435  325F5F            xor bl,[edi+0x5f]
00006438  6E                outsb
00006439  697465725F626173  imul esi,[ebp+0x72],dword 0x7361625f
00006441  6549              gs dec ecx
00006443  4E                dec esi
00006444  395F5F            cmp [edi+0x5f],ebx
00006447  676E              a16 outsb
00006449  755F              jnz 0x64aa
0000644B  637878            arpl [eax+0x78],di
0000644E  3137              xor [edi],esi
00006450  5F                pop edi
00006451  5F                pop edi
00006452  6E                outsb
00006453  6F                outsd
00006454  726D              jc 0x64c3
00006456  61                popa
00006457  6C                insb
00006458  5F                pop edi
00006459  6974657261746F72  imul esi,[ebp+0x72],dword 0x726f7461
00006461  49                dec ecx
00006462  50                push eax
00006463  53                push ebx
00006464  7434              jz 0x649a
00006466  7061              jo 0x64c9
00006468  69724953325F49    imul esi,[edx+0x49],dword 0x495f3253
0000646F  69694569455374    imul ebp,[ecx+0x45],dword 0x74534569
00006476  367665            ss jna 0x64de
00006479  63746F72          arpl [edi+ebp*2+0x72],si
0000647D  49                dec ecx
0000647E  53                push ebx
0000647F  345F              xor al,0x5f
00006481  53                push ebx
00006482  61                popa
00006483  49                dec ecx
00006484  53                push ebx
00006485  345F              xor al,0x5f
00006487  45                inc ebp
00006488  45                inc ebp
00006489  45                inc ebp
0000648A  45                inc ebp
0000648B  45                inc ebp
0000648C  4E                dec esi
0000648D  53                push ebx
0000648E  7431              jz 0x64c1
00006490  315F4E            xor [edi+0x4e],ebx
00006493  697465725F626173  imul esi,[ebp+0x72],dword 0x7361625f
0000649B  6549              gs dec ecx
0000649D  54                push esp
0000649E  5F                pop edi
0000649F  45                inc ebp
000064A0  3133              xor [ebx],esi
000064A2  6974657261746F72  imul esi,[ebp+0x72],dword 0x726f7461
000064AA  5F                pop edi
000064AB  7479              jz 0x6526
000064AD  7065              jo 0x6514
000064AF  45                inc ebp
000064B0  53                push ebx
000064B1  42                inc edx
000064B2  5F                pop edi
000064B3  005F5A            add [edi+0x5a],bl
000064B6  4E                dec esi
000064B7  4B                dec ebx
000064B8  395F5F            cmp [edi+0x5f],ebx
000064BB  676E              a16 outsb
000064BD  755F              jnz 0x651e
000064BF  637878            arpl [eax+0x78],di
000064C2  3137              xor [edi],esi
000064C4  5F                pop edi
000064C5  5F                pop edi
000064C6  6E                outsb
000064C7  6F                outsd
000064C8  726D              jc 0x6537
000064CA  61                popa
000064CB  6C                insb
000064CC  5F                pop edi
000064CD  6974657261746F72  imul esi,[ebp+0x72],dword 0x726f7461
000064D5  49                dec ecx
000064D6  50                push eax
000064D7  53                push ebx
000064D8  7434              jz 0x650e
000064DA  7061              jo 0x653d
000064DC  69724953315F49    imul esi,[edx+0x49],dword 0x495f3153
000064E3  69694569455374    imul ebp,[ecx+0x45],dword 0x74534569
000064EA  367665            ss jna 0x6552
000064ED  63746F72          arpl [edi+ebp*2+0x72],si
000064F1  49                dec ecx
000064F2  53                push ebx
000064F3  335F53            xor ebx,[edi+0x53]
000064F6  61                popa
000064F7  49                dec ecx
000064F8  53                push ebx
000064F9  335F45            xor ebx,[edi+0x45]
000064FC  45                inc ebp
000064FD  45                inc ebp
000064FE  3462              xor al,0x62
00006500  61                popa
00006501  7365              jnc 0x6568
00006503  45                inc ebp
00006504  7600              jna 0x6506
00006506  5F                pop edi
00006507  5A                pop edx
00006508  53                push ebx
00006509  7432              jz 0x653d
0000650B  365F              ss pop edi
0000650D  5F                pop edi
0000650E  756E              jnz 0x657e
00006510  677561            a16 jnz 0x6574
00006513  7264              jc 0x6579
00006515  65645F            fs pop edi
00006518  696E7365727469    imul ebp,[esi+0x73],dword 0x69747265
0000651F  6F                outsd
00006520  6E                outsb
00006521  5F                pop edi
00006522  736F              jnc 0x6593
00006524  7274              jc 0x659a
00006526  49                dec ecx
00006527  4E                dec esi
00006528  395F5F            cmp [edi+0x5f],ebx
0000652B  676E              a16 outsb
0000652D  755F              jnz 0x658e
0000652F  637878            arpl [eax+0x78],di
00006532  3137              xor [edi],esi
00006534  5F                pop edi
00006535  5F                pop edi
00006536  6E                outsb
00006537  6F                outsd
00006538  726D              jc 0x65a7
0000653A  61                popa
0000653B  6C                insb
0000653C  5F                pop edi
0000653D  6974657261746F72  imul esi,[ebp+0x72],dword 0x726f7461
00006545  49                dec ecx
00006546  50                push eax
00006547  53                push ebx
00006548  7434              jz 0x657e
0000654A  7061              jo 0x65ad
0000654C  69724953325F49    imul esi,[edx+0x49],dword 0x495f3253
00006553  69694569455374    imul ebp,[ecx+0x45],dword 0x74534569
0000655A  367665            ss jna 0x65c2
0000655D  63746F72          arpl [edi+ebp*2+0x72],si
00006561  49                dec ecx
00006562  53                push ebx
00006563  345F              xor al,0x5f
00006565  53                push ebx
00006566  61                popa
00006567  49                dec ecx
00006568  53                push ebx
00006569  345F              xor al,0x5f
0000656B  45                inc ebp
0000656C  45                inc ebp
0000656D  45                inc ebp
0000656E  45                inc ebp
0000656F  50                push eax
00006570  46                inc esi
00006571  62524B            bound edx,[edx+0x4b]
00006574  53                push ebx
00006575  345F              xor al,0x5f
00006577  53                push ebx
00006578  42                inc edx
00006579  5F                pop edi
0000657A  45                inc ebp
0000657B  45                inc ebp
0000657C  7654              jna 0x65d2
0000657E  5F                pop edi
0000657F  53                push ebx
00006580  45                inc ebp
00006581  5F                pop edi
00006582  54                push esp
00006583  305F00            xor [edi+0x0],bl
00006586  5F                pop edi
00006587  5A                pop edx
00006588  4E                dec esi
00006589  395F5F            cmp [edi+0x5f],ebx
0000658C  676E              a16 outsb
0000658E  755F              jnz 0x65ef
00006590  637878            arpl [eax+0x78],di
00006593  3137              xor [edi],esi
00006595  5F                pop edi
00006596  5F                pop edi
00006597  6E                outsb
00006598  6F                outsd
00006599  726D              jc 0x6608
0000659B  61                popa
0000659C  6C                insb
0000659D  5F                pop edi
0000659E  6974657261746F72  imul esi,[ebp+0x72],dword 0x726f7461
000065A6  49                dec ecx
000065A7  50                push eax
000065A8  53                push ebx
000065A9  7434              jz 0x65df
000065AB  7061              jo 0x660e
000065AD  69724953315F49    imul esi,[edx+0x49],dword 0x495f3153
000065B4  69694569455374    imul ebp,[ecx+0x45],dword 0x74534569
000065BB  367665            ss jna 0x6623
000065BE  63746F72          arpl [edi+ebp*2+0x72],si
000065C2  49                dec ecx
000065C3  53                push ebx
000065C4  335F53            xor ebx,[edi+0x53]
000065C7  61                popa
000065C8  49                dec ecx
000065C9  53                push ebx
000065CA  335F45            xor ebx,[edi+0x45]
000065CD  45                inc ebp
000065CE  45                inc ebp
000065CF  7070              jo 0x6641
000065D1  45                inc ebp
000065D2  7600              jna 0x65d4
000065D4  5F                pop edi
000065D5  5A                pop edx
000065D6  53                push ebx
000065D7  7432              jz 0x660b
000065D9  315F5F            xor [edi+0x5f],ebx
000065DC  756E              jnz 0x664c
000065DE  677561            a16 jnz 0x6642
000065E1  7264              jc 0x6647
000065E3  65645F            fs pop edi
000065E6  7061              jo 0x6649
000065E8  7274              jc 0x665e
000065EA  6974696F6E494E39  imul esi,[ecx+ebp*2+0x6f],dword 0x394e496e
000065F2  5F                pop edi
000065F3  5F                pop edi
000065F4  676E              a16 outsb
000065F6  755F              jnz 0x6657
000065F8  637878            arpl [eax+0x78],di
000065FB  3137              xor [edi],esi
000065FD  5F                pop edi
000065FE  5F                pop edi
000065FF  6E                outsb
00006600  6F                outsd
00006601  726D              jc 0x6670
00006603  61                popa
00006604  6C                insb
00006605  5F                pop edi
00006606  6974657261746F72  imul esi,[ebp+0x72],dword 0x726f7461
0000660E  49                dec ecx
0000660F  50                push eax
00006610  53                push ebx
00006611  7434              jz 0x6647
00006613  7061              jo 0x6676
00006615  69724953325F49    imul esi,[edx+0x49],dword 0x495f3253
0000661C  69694569455374    imul ebp,[ecx+0x45],dword 0x74534569
00006623  367665            ss jna 0x668b
00006626  63746F72          arpl [edi+ebp*2+0x72],si
0000662A  49                dec ecx
0000662B  53                push ebx
0000662C  345F              xor al,0x5f
0000662E  53                push ebx
0000662F  61                popa
00006630  49                dec ecx
00006631  53                push ebx
00006632  345F              xor al,0x5f
00006634  45                inc ebp
00006635  45                inc ebp
00006636  45                inc ebp
00006637  45                inc ebp
00006638  53                push ebx
00006639  345F              xor al,0x5f
0000663B  50                push eax
0000663C  46                inc esi
0000663D  62524B            bound edx,[edx+0x4b]
00006640  53                push ebx
00006641  345F              xor al,0x5f
00006643  53                push ebx
00006644  42                inc edx
00006645  5F                pop edi
00006646  45                inc ebp
00006647  45                inc ebp
00006648  54                push esp
00006649  5F                pop edi
0000664A  53                push ebx
0000664B  45                inc ebp
0000664C  5F                pop edi
0000664D  53                push ebx
0000664E  45                inc ebp
0000664F  5F                pop edi
00006650  52                push edx
00006651  4B                dec ebx
00006652  54                push esp
00006653  305F54            xor [edi+0x54],bl
00006656  315F00            xor [edi+0x0],ebx
00006659  5F                pop edi
0000665A  5A                pop edx
0000665B  53                push ebx
0000665C  7438              jz 0x6696
0000665E  5F                pop edi
0000665F  44                inc esp
00006660  657374            gs jnc 0x66d7
00006663  726F              jc 0x66d4
00006665  7949              jns 0x66b0
00006667  50                push eax
00006668  53                push ebx
00006669  7434              jz 0x669f
0000666B  7061              jo 0x66ce
0000666D  69724953305F49    imul esi,[edx+0x49],dword 0x495f3053
00006674  69694569454576    imul ebp,[ecx+0x45],dword 0x76454569
0000667B  54                push esp
0000667C  5F                pop edi
0000667D  53                push ebx
0000667E  345F              xor al,0x5f
00006680  005F5A            add [edi+0x5a],bl
00006683  53                push ebx
00006684  7431              jz 0x66b7
00006686  37                aaa
00006687  5F                pop edi
00006688  5F                pop edi
00006689  7468              jz 0x66f3
0000668B  726F              jc 0x66fc
0000668D  775F              ja 0x66ee
0000668F  626164            bound esp,[ecx+0x64]
00006692  5F                pop edi
00006693  61                popa
00006694  6C                insb
00006695  6C                insb
00006696  6F                outsd
00006697  637640            arpl [esi+0x40],si
0000669A  40                inc eax
0000669B  47                inc edi
0000669C  4C                dec esp
0000669D  49                dec ecx
0000669E  42                inc edx
0000669F  43                inc ebx
000066A0  58                pop eax
000066A1  58                pop eax
000066A2  5F                pop edi
000066A3  332E              xor ebp,[esi]
000066A5  3400              xor al,0x0
000066A7  5F                pop edi
000066A8  5A                pop edx
000066A9  4E                dec esi
000066AA  53                push ebx
000066AB  7431              jz 0x66de
000066AD  325F56            xor bl,[edi+0x56]
000066B0  6563746F72        arpl [gs:edi+ebp*2+0x72],si
000066B5  5F                pop edi
000066B6  626173            bound esp,[ecx+0x73]
000066B9  6549              gs dec ecx
000066BB  53                push ebx
000066BC  7434              jz 0x66f2
000066BE  7061              jo 0x6721
000066C0  69724953305F49    imul esi,[edx+0x49],dword 0x495f3053
000066C7  69694569455361    imul ebp,[ecx+0x45],dword 0x61534569
000066CE  49                dec ecx
000066CF  53                push ebx
000066D0  325F45            xor bl,[edi+0x45]
000066D3  45                inc ebp
000066D4  3131              xor [ecx],esi
000066D6  5F                pop edi
000066D7  4D                dec ebp
000066D8  5F                pop edi
000066D9  61                popa
000066DA  6C                insb
000066DB  6C                insb
000066DC  6F                outsd
000066DD  636174            arpl [ecx+0x74],sp
000066E0  6545              gs inc ebp
000066E2  6A00              push byte +0x0
000066E4  5F                pop edi
000066E5  5A                pop edx
000066E6  4E                dec esi
000066E7  53                push ebx
000066E8  7434              jz 0x671e
000066EA  7061              jo 0x674d
000066EC  697249535F4969    imul esi,[edx+0x49],dword 0x69495f53
000066F3  69456945433145    imul eax,[ebp+0x69],dword 0x45314345
000066FA  7600              jna 0x66fc
000066FC  5F                pop edi
000066FD  5A                pop edx
000066FE  4E                dec esi
000066FF  53                push ebx
00006700  7431              jz 0x6733
00006702  325F56            xor bl,[edi+0x56]
00006705  6563746F72        arpl [gs:edi+ebp*2+0x72],si
0000670A  5F                pop edi
0000670B  626173            bound esp,[ecx+0x73]
0000670E  6549              gs dec ecx
00006710  53                push ebx
00006711  7434              jz 0x6747
00006713  7061              jo 0x6776
00006715  69724953305F49    imul esi,[edx+0x49],dword 0x495f3053
0000671C  69694569455361    imul ebp,[ecx+0x45],dword 0x61534569
00006723  49                dec ecx
00006724  53                push ebx
00006725  325F45            xor bl,[edi+0x45]
00006728  45                inc ebp
00006729  3132              xor [edx],esi
0000672B  5F                pop edi
0000672C  56                push esi
0000672D  6563746F72        arpl [gs:edi+ebp*2+0x72],si
00006732  5F                pop edi
00006733  696D706C433145    imul ebp,[ebp+0x70],dword 0x4531436c
0000673A  52                push edx
0000673B  4B                dec ebx
0000673C  53                push ebx
0000673D  335F00            xor ebx,[edi+0x0]
00006740  5F                pop edi
00006741  5A                pop edx
00006742  53                push ebx
00006743  7434              jz 0x6779
00006745  656E              gs outsb
00006747  646C              fs insb
00006749  49                dec ecx
0000674A  635374            arpl [ebx+0x74],dx
0000674D  3131              xor [ecx],esi
0000674F  636861            arpl [eax+0x61],bp
00006752  725F              jc 0x67b3
00006754  7472              jz 0x67c8
00006756  61                popa
00006757  6974734963454552  imul esi,[ebx+esi*2+0x49],dword 0x52454563
0000675F  53                push ebx
00006760  7431              jz 0x6793
00006762  336261            xor esp,[edx+0x61]
00006765  7369              jnc 0x67d0
00006767  635F6F            arpl [edi+0x6f],bx
0000676A  7374              jnc 0x67e0
0000676C  7265              jc 0x67d3
0000676E  61                popa
0000676F  6D                insd
00006770  49                dec ecx
00006771  54                push esp
00006772  5F                pop edi
00006773  54                push esp
00006774  305F45            xor [edi+0x45],bl
00006777  53                push ebx
00006778  365F              ss pop edi
0000677A  40                inc eax
0000677B  40                inc eax
0000677C  47                inc edi
0000677D  4C                dec esp
0000677E  49                dec ecx
0000677F  42                inc edx
00006780  43                inc ebx
00006781  58                pop eax
00006782  58                pop eax
00006783  5F                pop edi
00006784  332E              xor ebp,[esi]
00006786  3400              xor al,0x0
00006788  5F                pop edi
00006789  5A                pop edx
0000678A  4E                dec esi
0000678B  4B                dec ebx
0000678C  395F5F            cmp [edi+0x5f],ebx
0000678F  676E              a16 outsb
00006791  755F              jnz 0x67f2
00006793  637878            arpl [eax+0x78],di
00006796  3137              xor [edi],esi
00006798  5F                pop edi
00006799  5F                pop edi
0000679A  6E                outsb
0000679B  6F                outsd
0000679C  726D              jc 0x680b
0000679E  61                popa
0000679F  6C                insb
000067A0  5F                pop edi
000067A1  6974657261746F72  imul esi,[ebp+0x72],dword 0x726f7461
000067A9  49                dec ecx
000067AA  50                push eax
000067AB  53                push ebx
000067AC  7434              jz 0x67e2
000067AE  7061              jo 0x6811
000067B0  69724953315F49    imul esi,[edx+0x49],dword 0x495f3153
000067B7  69694569455374    imul ebp,[ecx+0x45],dword 0x74534569
000067BE  367665            ss jna 0x6826
000067C1  63746F72          arpl [edi+ebp*2+0x72],si
000067C5  49                dec ecx
000067C6  53                push ebx
000067C7  335F53            xor ebx,[edi+0x53]
000067CA  61                popa
000067CB  49                dec ecx
000067CC  53                push ebx
000067CD  335F45            xor ebx,[edi+0x45]
000067D0  45                inc ebp
000067D1  45                inc ebp
000067D2  646545            gs inc ebp
000067D5  7600              jna 0x67d7
000067D7  5F                pop edi
000067D8  656461            fs popa
000067DB  7461              jz 0x683e
000067DD  005F5A            add [edi+0x5a],bl
000067E0  4E                dec esi
000067E1  395F5F            cmp [edi+0x5f],ebx
000067E4  676E              a16 outsb
000067E6  755F              jnz 0x6847
000067E8  637878            arpl [eax+0x78],di
000067EB  3137              xor [edi],esi
000067ED  5F                pop edi
000067EE  5F                pop edi
000067EF  6E                outsb
000067F0  6F                outsd
000067F1  726D              jc 0x6860
000067F3  61                popa
000067F4  6C                insb
000067F5  5F                pop edi
000067F6  6974657261746F72  imul esi,[ebp+0x72],dword 0x726f7461
000067FE  49                dec ecx
000067FF  50                push eax
00006800  53                push ebx
00006801  7434              jz 0x6837
00006803  7061              jo 0x6866
00006805  69724953315F49    imul esi,[edx+0x49],dword 0x495f3153
0000680C  69694569455374    imul ebp,[ecx+0x45],dword 0x74534569
00006813  367665            ss jna 0x687b
00006816  63746F72          arpl [edi+ebp*2+0x72],si
0000681A  49                dec ecx
0000681B  53                push ebx
0000681C  335F53            xor ebx,[edi+0x53]
0000681F  61                popa
00006820  49                dec ecx
00006821  53                push ebx
00006822  335F45            xor ebx,[edi+0x45]
00006825  45                inc ebp
00006826  45                inc ebp
00006827  6D                insd
00006828  6D                insd
00006829  45                inc ebp
0000682A  7600              jna 0x682c
0000682C  5F                pop edi
0000682D  5F                pop edi
0000682E  677878            a16 js 0x68a9
00006831  5F                pop edi
00006832  7065              jo 0x6899
00006834  7273              jc 0x68a9
00006836  6F                outsd
00006837  6E                outsb
00006838  61                popa
00006839  6C                insb
0000683A  6974795F76304040  imul esi,[ecx+edi*2+0x5f],dword 0x40403076
00006842  43                inc ebx
00006843  58                pop eax
00006844  58                pop eax
00006845  41                inc ecx
00006846  42                inc edx
00006847  49                dec ecx
00006848  5F                pop edi
00006849  312E              xor [esi],ebp
0000684B  3300              xor eax,[eax]
0000684D  5F                pop edi
0000684E  5A                pop edx
0000684F  4E                dec esi
00006850  53                push ebx
00006851  7431              jz 0x6884
00006853  305F49            xor [edi+0x49],bl
00006856  7465              jz 0x68bd
00006858  725F              jc 0x68b9
0000685A  626173            bound esp,[ecx+0x73]
0000685D  6549              gs dec ecx
0000685F  4E                dec esi
00006860  395F5F            cmp [edi+0x5f],ebx
00006863  676E              a16 outsb
00006865  755F              jnz 0x68c6
00006867  637878            arpl [eax+0x78],di
0000686A  3137              xor [edi],esi
0000686C  5F                pop edi
0000686D  5F                pop edi
0000686E  6E                outsb
0000686F  6F                outsd
00006870  726D              jc 0x68df
00006872  61                popa
00006873  6C                insb
00006874  5F                pop edi
00006875  6974657261746F72  imul esi,[ebp+0x72],dword 0x726f7461
0000687D  49                dec ecx
0000687E  50                push eax
0000687F  53                push ebx
00006880  7434              jz 0x68b6
00006882  7061              jo 0x68e5
00006884  69724953325F49    imul esi,[edx+0x49],dword 0x495f3253
0000688B  69694569455374    imul ebp,[ecx+0x45],dword 0x74534569
00006892  367665            ss jna 0x68fa
00006895  63746F72          arpl [edi+ebp*2+0x72],si
00006899  49                dec ecx
0000689A  53                push ebx
0000689B  345F              xor al,0x5f
0000689D  53                push ebx
0000689E  61                popa
0000689F  49                dec ecx
000068A0  53                push ebx
000068A1  345F              xor al,0x5f
000068A3  45                inc ebp
000068A4  45                inc ebp
000068A5  45                inc ebp
000068A6  45                inc ebp
000068A7  4C                dec esp
000068A8  6231              bound esi,[ecx]
000068AA  45                inc ebp
000068AB  45                inc ebp
000068AC  37                aaa
000068AD  5F                pop edi
000068AE  53                push ebx
000068AF  5F                pop edi
000068B0  626173            bound esp,[ecx+0x73]
000068B3  6545              gs inc ebp
000068B5  53                push ebx
000068B6  395F00            cmp [edi+0x0],ebx
000068B9  5F                pop edi
000068BA  55                push ebp
000068BB  6E                outsb
000068BC  7769              ja 0x6927
000068BE  6E                outsb
000068BF  645F              fs pop edi
000068C1  52                push edx
000068C2  657375            gs jnc 0x693a
000068C5  6D                insd
000068C6  6540              gs inc eax
000068C8  40                inc eax
000068C9  47                inc edi
000068CA  43                inc ebx
000068CB  43                inc ebx
000068CC  5F                pop edi
000068CD  332E              xor ebp,[esi]
000068CF  3000              xor [eax],al
000068D1  5F                pop edi
000068D2  5A                pop edx
000068D3  53                push ebx
000068D4  7432              jz 0x6908
000068D6  345F              xor al,0x5f
000068D8  5F                pop edi
000068D9  756E              jnz 0x6949
000068DB  696E697469616C    imul ebp,[esi+0x69],dword 0x6c616974
000068E2  697A65645F6669    imul edi,[edx+0x65],dword 0x69665f64
000068E9  6C                insb
000068EA  6C                insb
000068EB  5F                pop edi
000068EC  6E                outsb
000068ED  5F                pop edi
000068EE  61                popa
000068EF  49                dec ecx
000068F0  50                push eax
000068F1  53                push ebx
000068F2  7434              jz 0x6928
000068F4  7061              jo 0x6957
000068F6  69724953305F49    imul esi,[edx+0x49],dword 0x495f3053
000068FD  69694569456A53    imul ebp,[ecx+0x45],dword 0x536a4569
00006904  325F53            xor bl,[edi+0x53]
00006907  325F45            xor bl,[edi+0x45]
0000690A  7654              jna 0x6960
0000690C  5F                pop edi
0000690D  54                push esp
0000690E  305F52            xor [edi+0x52],bl
00006911  4B                dec ebx
00006912  54                push esp
00006913  315F52            xor [edi+0x52],ebx
00006916  53                push ebx
00006917  61                popa
00006918  49                dec ecx
00006919  54                push esp
0000691A  325F45            xor bl,[edi+0x45]
0000691D  005F5A            add [edi+0x5a],bl
00006920  4E                dec esi
00006921  4B                dec ebx
00006922  395F5F            cmp [edi+0x5f],ebx
00006925  676E              a16 outsb
00006927  755F              jnz 0x6988
00006929  637878            arpl [eax+0x78],di
0000692C  3137              xor [edi],esi
0000692E  5F                pop edi
0000692F  5F                pop edi
00006930  6E                outsb
00006931  6F                outsd
00006932  726D              jc 0x69a1
00006934  61                popa
00006935  6C                insb
00006936  5F                pop edi
00006937  6974657261746F72  imul esi,[ebp+0x72],dword 0x726f7461
0000693F  49                dec ecx
00006940  50                push eax
00006941  53                push ebx
00006942  7434              jz 0x6978
00006944  7061              jo 0x69a7
00006946  69724953315F49    imul esi,[edx+0x49],dword 0x495f3153
0000694D  69694569455374    imul ebp,[ecx+0x45],dword 0x74534569
00006954  367665            ss jna 0x69bc
00006957  63746F72          arpl [edi+ebp*2+0x72],si
0000695B  49                dec ecx
0000695C  53                push ebx
0000695D  335F53            xor ebx,[edi+0x53]
00006960  61                popa
00006961  49                dec ecx
00006962  53                push ebx
00006963  335F45            xor ebx,[edi+0x45]
00006966  45                inc ebp
00006967  45                inc ebp
00006968  6D                insd
00006969  6945524B69005F    imul eax,[ebp+0x52],dword 0x5f00694b
00006970  5A                pop edx
00006971  4E                dec esi
00006972  395F5F            cmp [edi+0x5f],ebx
00006975  676E              a16 outsb
00006977  755F              jnz 0x69d8
00006979  637878            arpl [eax+0x78],di
0000697C  3133              xor [ebx],esi
0000697E  6E                outsb
0000697F  65775F            gs ja 0x69e1
00006982  61                popa
00006983  6C                insb
00006984  6C                insb
00006985  6F                outsd
00006986  636174            arpl [ecx+0x74],sp
00006989  6F                outsd
0000698A  7249              jc 0x69d5
0000698C  53                push ebx
0000698D  7434              jz 0x69c3
0000698F  7061              jo 0x69f2
00006991  69724953315F49    imul esi,[edx+0x49],dword 0x495f3153
00006998  69694569454543    imul ebp,[ecx+0x45],dword 0x43454569
0000699F  314576            xor [ebp+0x76],eax
000069A2  005F5A            add [edi+0x5a],bl
000069A5  4E                dec esi
000069A6  395F5F            cmp [edi+0x5f],ebx
000069A9  676E              a16 outsb
000069AB  755F              jnz 0x6a0c
000069AD  637878            arpl [eax+0x78],di
000069B0  3133              xor [ebx],esi
000069B2  6E                outsb
000069B3  65775F            gs ja 0x6a15
000069B6  61                popa
000069B7  6C                insb
000069B8  6C                insb
000069B9  6F                outsd
000069BA  636174            arpl [ecx+0x74],sp
000069BD  6F                outsd
000069BE  7249              jc 0x6a09
000069C0  53                push ebx
000069C1  7434              jz 0x69f7
000069C3  7061              jo 0x6a26
000069C5  69724953315F49    imul esi,[edx+0x49],dword 0x495f3153
000069CC  69694569454544    imul ebp,[ecx+0x45],dword 0x44454569
000069D3  324576            xor al,[ebp+0x76]
000069D6  005F5A            add [edi+0x5a],bl
000069D9  4E                dec esi
000069DA  53                push ebx
000069DB  61                popa
000069DC  49                dec ecx
000069DD  53                push ebx
000069DE  7434              jz 0x6a14
000069E0  7061              jo 0x6a43
000069E2  697249535F4969    imul esi,[edx+0x49],dword 0x69495f53
000069E9  69456945454331    imul eax,[ebp+0x69],dword 0x31434545
000069F0  45                inc ebp
000069F1  52                push edx
000069F2  4B                dec ebx
000069F3  53                push ebx
000069F4  325F00            xor bl,[edi+0x0]
000069F7  5F                pop edi
000069F8  5A                pop edx
000069F9  4E                dec esi
000069FA  395F5F            cmp [edi+0x5f],ebx
000069FD  676E              a16 outsb
000069FF  755F              jnz 0x6a60
00006A01  637878            arpl [eax+0x78],di
00006A04  3133              xor [ebx],esi
00006A06  6E                outsb
00006A07  65775F            gs ja 0x6a69
00006A0A  61                popa
00006A0B  6C                insb
00006A0C  6C                insb
00006A0D  6F                outsd
00006A0E  636174            arpl [ecx+0x74],sp
00006A11  6F                outsd
00006A12  7249              jc 0x6a5d
00006A14  53                push ebx
00006A15  7434              jz 0x6a4b
00006A17  7061              jo 0x6a7a
00006A19  69724953315F49    imul esi,[edx+0x49],dword 0x495f3153
00006A20  69694569454543    imul ebp,[ecx+0x45],dword 0x43454569
00006A27  324576            xor al,[ebp+0x76]
00006A2A  005F5F            add [edi+0x5f],bl
00006A2D  693638362E67      imul esi,[esi],dword 0x672e3638
00006A33  65745F            gs jz 0x6a95
00006A36  7063              jo 0x6a9b
00006A38  5F                pop edi
00006A39  7468              jz 0x6aa3
00006A3B  756E              jnz 0x6aab
00006A3D  6B2E62            imul ebp,[esi],byte +0x62
00006A40  7800              js 0x6a42
00006A42  6D                insd
00006A43  61                popa
00006A44  696E005F5A4E53    imul ebp,[esi+0x0],dword 0x534e5a5f
00006A4B  7431              jz 0x6a7e
00006A4D  325F56            xor bl,[edi+0x56]
00006A50  6563746F72        arpl [gs:edi+ebp*2+0x72],si
00006A55  5F                pop edi
00006A56  626173            bound esp,[ecx+0x73]
00006A59  6549              gs dec ecx
00006A5B  53                push ebx
00006A5C  7434              jz 0x6a92
00006A5E  7061              jo 0x6ac1
00006A60  69724953305F49    imul esi,[edx+0x49],dword 0x495f3053
00006A67  69694569455361    imul ebp,[ecx+0x45],dword 0x61534569
00006A6E  49                dec ecx
00006A6F  53                push ebx
00006A70  325F45            xor bl,[edi+0x45]
00006A73  45                inc ebp
00006A74  43                inc ebx
00006A75  32456A            xor al,[ebp+0x6a]
00006A78  52                push edx
00006A79  4B                dec ebx
00006A7A  53                push ebx
00006A7B  335F00            xor ebx,[edi+0x0]
00006A7E  5F                pop edi
00006A7F  696E6974005F5A    imul ebp,[esi+0x69],dword 0x5a5f0074
00006A86  53                push ebx
00006A87  7439              jz 0x6ac2
00006A89  697465725F737761  imul esi,[ebp+0x72],dword 0x6177735f
00006A91  7049              jo 0x6adc
00006A93  4E                dec esi
00006A94  395F5F            cmp [edi+0x5f],ebx
00006A97  676E              a16 outsb
00006A99  755F              jnz 0x6afa
00006A9B  637878            arpl [eax+0x78],di
00006A9E  3137              xor [edi],esi
00006AA0  5F                pop edi
00006AA1  5F                pop edi
00006AA2  6E                outsb
00006AA3  6F                outsd
00006AA4  726D              jc 0x6b13
00006AA6  61                popa
00006AA7  6C                insb
00006AA8  5F                pop edi
00006AA9  6974657261746F72  imul esi,[ebp+0x72],dword 0x726f7461
00006AB1  49                dec ecx
00006AB2  50                push eax
00006AB3  53                push ebx
00006AB4  7434              jz 0x6aea
00006AB6  7061              jo 0x6b19
00006AB8  69724953325F49    imul esi,[edx+0x49],dword 0x495f3253
00006ABF  69694569455374    imul ebp,[ecx+0x45],dword 0x74534569
00006AC6  367665            ss jna 0x6b2e
00006AC9  63746F72          arpl [edi+ebp*2+0x72],si
00006ACD  49                dec ecx
00006ACE  53                push ebx
00006ACF  345F              xor al,0x5f
00006AD1  53                push ebx
00006AD2  61                popa
00006AD3  49                dec ecx
00006AD4  53                push ebx
00006AD5  345F              xor al,0x5f
00006AD7  45                inc ebp
00006AD8  45                inc ebp
00006AD9  45                inc ebp
00006ADA  45                inc ebp
00006ADB  53                push ebx
00006ADC  395F45            cmp [edi+0x45],ebx
00006ADF  7654              jna 0x6b35
00006AE1  5F                pop edi
00006AE2  54                push esp
00006AE3  305F00            xor [edi+0x0],bl
00006AE6  5F                pop edi
00006AE7  5A                pop edx
00006AE8  53                push ebx
00006AE9  7431              jz 0x6b1c
00006AEB  325F5F            xor bl,[edi+0x5f]
00006AEE  6D                insd
00006AEF  697465725F626173  imul esi,[ebp+0x72],dword 0x7361625f
00006AF7  6549              gs dec ecx
00006AF9  4E                dec esi
00006AFA  395F5F            cmp [edi+0x5f],ebx
00006AFD  676E              a16 outsb
00006AFF  755F              jnz 0x6b60
00006B01  637878            arpl [eax+0x78],di
00006B04  3137              xor [edi],esi
00006B06  5F                pop edi
00006B07  5F                pop edi
00006B08  6E                outsb
00006B09  6F                outsd
00006B0A  726D              jc 0x6b79
00006B0C  61                popa
00006B0D  6C                insb
00006B0E  5F                pop edi
00006B0F  6974657261746F72  imul esi,[ebp+0x72],dword 0x726f7461
00006B17  49                dec ecx
00006B18  50                push eax
00006B19  53                push ebx
00006B1A  7434              jz 0x6b50
00006B1C  7061              jo 0x6b7f
00006B1E  69724953325F49    imul esi,[edx+0x49],dword 0x495f3253
00006B25  69694569455374    imul ebp,[ecx+0x45],dword 0x74534569
00006B2C  367665            ss jna 0x6b94
00006B2F  63746F72          arpl [edi+ebp*2+0x72],si
00006B33  49                dec ecx
00006B34  53                push ebx
00006B35  345F              xor al,0x5f
00006B37  53                push ebx
00006B38  61                popa
00006B39  49                dec ecx
00006B3A  53                push ebx
00006B3B  345F              xor al,0x5f
00006B3D  45                inc ebp
00006B3E  45                inc ebp
00006B3F  45                inc ebp
00006B40  45                inc ebp
00006B41  45                inc ebp
00006B42  4E                dec esi
00006B43  53                push ebx
00006B44  7431              jz 0x6b77
00006B46  315F4D            xor [edi+0x4d],ebx
00006B49  697465725F626173  imul esi,[ebp+0x72],dword 0x7361625f
00006B51  6549              gs dec ecx
00006B53  54                push esp
00006B54  5F                pop edi
00006B55  45                inc ebp
00006B56  3133              xor [ebx],esi
00006B58  6974657261746F72  imul esi,[ebp+0x72],dword 0x726f7461
00006B60  5F                pop edi
00006B61  7479              jz 0x6bdc
00006B63  7065              jo 0x6bca
00006B65  45                inc ebp
00006B66  53                push ebx
00006B67  42                inc edx
00006B68  5F                pop edi
00006B69  00                db 0x00
