00000000  7F45              jg 0x47
00000002  4C                dec esp
00000003  46                inc esi
00000004  0101              add [ecx],eax
00000006  0100              add [eax],eax
00000008  0000              add [eax],al
0000000A  0000              add [eax],al
0000000C  0000              add [eax],al
0000000E  0000              add [eax],al
00000010  0200              add al,[eax]
00000012  0300              add eax,[eax]
00000014  0100              add [eax],eax
00000016  0000              add [eax],al
00000018  60                pusha
00000019  890408            mov [eax+ecx],eax
0000001C  3400              xor al,0x0
0000001E  0000              add [eax],al
00000020  F8                clc
00000021  690000000000      imul eax,[eax],dword 0x0
00000027  003400            add [eax+eax],dh
0000002A  2000              and [eax],al
0000002C  0800              or [eax],al
0000002E  2800              sub [eax],al
00000030  260023            add [es:ebx],ah
00000033  0006              add [esi],al
00000035  0000              add [eax],al
00000037  003400            add [eax+eax],dh
0000003A  0000              add [eax],al
0000003C  3480              xor al,0x80
0000003E  0408              add al,0x8
00000040  3480              xor al,0x80
00000042  0408              add al,0x8
00000044  0001              add [ecx],al
00000046  0000              add [eax],al
00000048  0001              add [ecx],al
0000004A  0000              add [eax],al
0000004C  0500000004        add eax,0x4000000
00000051  0000              add [eax],al
00000053  0003              add [ebx],al
00000055  0000              add [eax],al
00000057  003401            add [ecx+eax],dh
0000005A  0000              add [eax],al
0000005C  3481              xor al,0x81
0000005E  0408              add al,0x8
00000060  3481              xor al,0x81
00000062  0408              add al,0x8
00000064  1300              adc eax,[eax]
00000066  0000              add [eax],al
00000068  1300              adc eax,[eax]
0000006A  0000              add [eax],al
0000006C  0400              add al,0x0
0000006E  0000              add [eax],al
00000070  0100              add [eax],eax
00000072  0000              add [eax],al
00000074  0100              add [eax],eax
00000076  0000              add [eax],al
00000078  0000              add [eax],al
0000007A  0000              add [eax],al
0000007C  008004080080      add [eax+0x80000804],al
00000082  0408              add al,0x8
00000084  3E60              ds pusha
00000086  0000              add [eax],al
00000088  3E60              ds pusha
0000008A  0000              add [eax],al
0000008C  0500000000        add eax,0x0
00000091  1000              adc [eax],al
00000093  0001              add [ecx],al
00000095  0000              add [eax],al
00000097  004060            add [eax+0x60],al
0000009A  0000              add [eax],al
0000009C  40                inc eax
0000009D  F00408            lock add al,0x8
000000A0  40                inc eax
000000A1  F00408            lock add al,0x8
000000A4  640100            add [fs:eax],eax
000000A7  00B802000006      add [eax+0x6000002],bh
000000AD  0000              add [eax],al
000000AF  0000              add [eax],al
000000B1  1000              adc [eax],al
000000B3  0002              add [edx],al
000000B5  0000              add [eax],al
000000B7  005860            add [eax+0x60],bl
000000BA  0000              add [eax],al
000000BC  58                pop eax
000000BD  F00408            lock add al,0x8
000000C0  58                pop eax
000000C1  F00408            lock add al,0x8
000000C4  E000              loopne 0xc6
000000C6  0000              add [eax],al
000000C8  E000              loopne 0xca
000000CA  0000              add [eax],al
000000CC  06                push es
000000CD  0000              add [eax],al
000000CF  000400            add [eax+eax],al
000000D2  0000              add [eax],al
000000D4  0400              add al,0x0
000000D6  0000              add [eax],al
000000D8  48                dec eax
000000D9  0100              add [eax],eax
000000DB  004881            add [eax-0x7f],cl
000000DE  0408              add al,0x8
000000E0  48                dec eax
000000E1  81040820000000    add dword [eax+ecx],0x20
000000E8  2000              and [eax],al
000000EA  0000              add [eax],al
000000EC  0400              add al,0x0
000000EE  0000              add [eax],al
000000F0  0400              add al,0x0
000000F2  0000              add [eax],al
000000F4  50                push eax
000000F5  E574              in eax,0x74
000000F7  6450              fs push eax
000000F9  3E0000            add [ds:eax],al
000000FC  50                push eax
000000FD  BE040850BE        mov esi,0xbe500804
00000102  0408              add al,0x8
00000104  1406              adc al,0x6
00000106  0000              add [eax],al
00000108  1406              adc al,0x6
0000010A  0000              add [eax],al
0000010C  0400              add al,0x0
0000010E  0000              add [eax],al
00000110  0400              add al,0x0
00000112  0000              add [eax],al
00000114  51                push ecx
00000115  E574              in eax,0x74
00000117  640000            add [fs:eax],al
0000011A  0000              add [eax],al
0000011C  0000              add [eax],al
0000011E  0000              add [eax],al
00000120  0000              add [eax],al
00000122  0000              add [eax],al
00000124  0000              add [eax],al
00000126  0000              add [eax],al
00000128  0000              add [eax],al
0000012A  0000              add [eax],al
0000012C  06                push es
0000012D  0000              add [eax],al
0000012F  000400            add [eax+eax],al
00000132  0000              add [eax],al
00000134  2F                das
00000135  6C                insb
00000136  69622F6C642D6C    imul esp,[edx+0x2f],dword 0x6c2d646c
0000013D  696E75782E736F    imul ebp,[esi+0x75],dword 0x6f732e78
00000144  2E3200            xor al,[cs:eax]
00000147  000400            add [eax+eax],al
0000014A  0000              add [eax],al
0000014C  1000              adc [eax],al
0000014E  0000              add [eax],al
00000150  0100              add [eax],eax
00000152  0000              add [eax],al
00000154  47                inc edi
00000155  4E                dec esi
00000156  55                push ebp
00000157  0000              add [eax],al
00000159  0000              add [eax],al
0000015B  0002              add [edx],al
0000015D  0000              add [eax],al
0000015F  0000              add [eax],al
00000161  0000              add [eax],al
00000163  0000              add [eax],al
00000165  0000              add [eax],al
00000167  0011              add [ecx],dl
00000169  0000              add [eax],al
0000016B  001C00            add [eax+eax],bl
0000016E  0000              add [eax],al
00000170  1200              adc al,[eax]
00000172  0000              add [eax],al
00000174  16                push ss
00000175  0000              add [eax],al
00000177  000E              add [esi],cl
00000179  0000              add [eax],al
0000017B  0017              add [edi],dl
0000017D  0000              add [eax],al
0000017F  001A              add [edx],bl
00000181  0000              add [eax],al
00000183  0000              add [eax],al
00000185  0000              add [eax],al
00000187  001B              add [ebx],bl
00000189  0000              add [eax],al
0000018B  0019              add [ecx],bl
0000018D  0000              add [eax],al
0000018F  001400            add [eax+eax],dl
00000192  0000              add [eax],al
00000194  0200              add al,[eax]
00000196  0000              add [eax],al
00000198  0000              add [eax],al
0000019A  0000              add [eax],al
0000019C  0000              add [eax],al
0000019E  0000              add [eax],al
000001A0  0D0000000F        or eax,0xf000000
000001A5  0000              add [eax],al
000001A7  000500000006      add [0x6000000],al
000001AD  0000              add [eax],al
000001AF  0018              add [eax],bl
000001B1  0000              add [eax],al
000001B3  0000              add [eax],al
000001B5  0000              add [eax],al
000001B7  0000              add [eax],al
000001B9  0000              add [eax],al
000001BB  0000              add [eax],al
000001BD  0000              add [eax],al
000001BF  0000              add [eax],al
000001C1  0000              add [eax],al
000001C3  0000              add [eax],al
000001C5  0000              add [eax],al
000001C7  0003              add [ebx],al
000001C9  0000              add [eax],al
000001CB  0000              add [eax],al
000001CD  0000              add [eax],al
000001CF  0000              add [eax],al
000001D1  0000              add [eax],al
000001D3  0000              add [eax],al
000001D5  0000              add [eax],al
000001D7  0007              add [edi],al
000001D9  0000              add [eax],al
000001DB  0000              add [eax],al
000001DD  0000              add [eax],al
000001DF  0008              add [eax],cl
000001E1  0000              add [eax],al
000001E3  0000              add [eax],al
000001E5  0000              add [eax],al
000001E7  000A              add [edx],cl
000001E9  0000              add [eax],al
000001EB  000400            add [eax+eax],al
000001EE  0000              add [eax],al
000001F0  0C00              or al,0x0
000001F2  0000              add [eax],al
000001F4  0900              or [eax],eax
000001F6  0000              add [eax],al
000001F8  0000              add [eax],al
000001FA  0000              add [eax],al
000001FC  1100              adc [eax],eax
000001FE  0000              add [eax],al
00000200  0000              add [eax],al
00000202  0000              add [eax],al
00000204  1300              adc eax,[eax]
00000206  0000              add [eax],al
00000208  0100              add [eax],eax
0000020A  0000              add [eax],al
0000020C  0000              add [eax],al
0000020E  0000              add [eax],al
00000210  1000              adc [eax],al
00000212  0000              add [eax],al
00000214  0000              add [eax],al
00000216  0000              add [eax],al
00000218  0B00              or eax,[eax]
0000021A  0000              add [eax],al
0000021C  1500000000        adc eax,0x0
00000221  0000              add [eax],al
00000223  0000              add [eax],al
00000225  0000              add [eax],al
00000227  0000              add [eax],al
00000229  0000              add [eax],al
0000022B  0000              add [eax],al
0000022D  0000              add [eax],al
0000022F  0000              add [eax],al
00000231  0000              add [eax],al
00000233  003D010000C0      add [0xc0000001],bh
00000239  F1                int1
0000023A  0408              add al,0x8
0000023C  90                nop
0000023D  0000              add [eax],al
0000023F  0011              add [ecx],dl
00000241  0019              add [ecx],bl
00000243  009701000000      add [edi+0x1],dl
00000249  0000              add [eax],al
0000024B  0000              add [eax],al
0000024D  0000              add [eax],al
0000024F  0012              add [edx],dl
00000251  0000              add [eax],al
00000253  00EF              add bh,ch
00000255  0000              add [eax],al
00000257  0000              add [eax],al
00000259  0000              add [eax],al
0000025B  0000              add [eax],al
0000025D  0000              add [eax],al
0000025F  0012              add [edx],dl
00000261  0000              add [eax],al
00000263  00B501000000      add [ebp+0x1],dh
00000269  0000              add [eax],al
0000026B  0000              add [eax],al
0000026D  0000              add [eax],al
0000026F  0012              add [edx],dl
00000271  0000              add [eax],al
00000273  0018              add [eax],bl
00000275  0200              add al,[eax]
00000277  0000              add [eax],al
00000279  0000              add [eax],al
0000027B  0000              add [eax],al
0000027D  0000              add [eax],al
0000027F  0012              add [edx],dl
00000281  0000              add [eax],al
00000283  00F9              add cl,bh
00000285  0000              add [eax],al
00000287  0000              add [eax],al
00000289  0000              add [eax],al
0000028B  0000              add [eax],al
0000028D  0000              add [eax],al
0000028F  0020              add [eax],ah
00000291  0000              add [eax],al
00000293  005E01            add [esi+0x1],bl
00000296  0000              add [eax],al
00000298  0000              add [eax],al
0000029A  0000              add [eax],al
0000029C  0000              add [eax],al
0000029E  0000              add [eax],al
000002A0  2000              and [eax],al
000002A2  0000              add [eax],al
000002A4  5C                pop esp
000002A5  0000              add [eax],al
000002A7  0000              add [eax],al
000002A9  0000              add [eax],al
000002AB  0000              add [eax],al
000002AD  0000              add [eax],al
000002AF  0012              add [edx],dl
000002B1  0000              add [eax],al
000002B3  002F              add [edi],ch
000002B5  0100              add [eax],eax
000002B7  0000              add [eax],al
000002B9  0000              add [eax],al
000002BB  0000              add [eax],al
000002BD  0000              add [eax],al
000002BF  0012              add [edx],dl
000002C1  0000              add [eax],al
000002C3  004601            add [esi+0x1],al
000002C6  0000              add [eax],al
000002C8  0000              add [eax],al
000002CA  0000              add [eax],al
000002CC  0000              add [eax],al
000002CE  0000              add [eax],al
000002D0  1200              adc al,[eax]
000002D2  0000              add [eax],al
000002D4  2D02000000        sub eax,0x2
000002D9  0000              add [eax],al
000002DB  0000              add [eax],al
000002DD  0000              add [eax],al
000002DF  0012              add [edx],dl
000002E1  0000              add [eax],al
000002E3  00D1              add cl,dl
000002E5  0000              add [eax],al
000002E7  00A088040800      add [eax+0x80488],ah
000002ED  0000              add [eax],al
000002EF  0012              add [edx],dl
000002F1  0000              add [eax],al
000002F3  006300            add [ebx+0x0],ah
000002F6  0000              add [eax],al
000002F8  0000              add [eax],al
000002FA  0000              add [eax],al
000002FC  0000              add [eax],al
000002FE  0000              add [eax],al
00000300  2000              and [eax],al
00000302  0000              add [eax],al
00000304  99                cdq
00000305  0000              add [eax],al
00000307  0000              add [eax],al
00000309  0000              add [eax],al
0000030B  0000              add [eax],al
0000030D  0000              add [eax],al
0000030F  0012              add [edx],dl
00000311  0000              add [eax],al
00000313  0009              add [ecx],cl
00000315  0200              add al,[eax]
00000317  00FC              add ah,bh
00000319  BD04080400        mov ebp,0x40804
0000031E  0000              add [eax],al
00000320  1100              adc [eax],eax
00000322  0E                push cs
00000323  007D01            add [ebp+0x1],bh
00000326  0000              add [eax],al
00000328  0000              add [eax],al
0000032A  0000              add [eax],al
0000032C  0000              add [eax],al
0000032E  0000              add [eax],al
00000330  2000              and [eax],al
00000332  0000              add [eax],al
00000334  8F00              pop dword [eax]
00000336  0000              add [eax],al
00000338  60                pusha
00000339  F20408            repne add al,0x8
0000033C  8C00              mov [eax],es
0000033E  0000              add [eax],al
00000340  1100              adc [eax],eax
00000342  1900              sbb [eax],eax
00000344  E900000000        jmp 0x349
00000349  0000              add [eax],al
0000034B  0000              add [eax],al
0000034D  0000              add [eax],al
0000034F  0012              add [edx],dl
00000351  0000              add [eax],al
00000353  007201            add [edx+0x1],dh
00000356  0000              add [eax],al
00000358  0000              add [eax],al
0000035A  0000              add [eax],al
0000035C  0000              add [eax],al
0000035E  0000              add [eax],al
00000360  1200              adc al,[eax]
00000362  0000              add [eax],al
00000364  2502000000        and eax,0x2
00000369  0000              add [eax],al
0000036B  0000              add [eax],al
0000036D  0000              add [eax],al
0000036F  0012              add [edx],dl
00000371  0000              add [eax],al
00000373  0010              add [eax],dl
00000375  0000              add [eax],al
00000377  0000              add [eax],al
00000379  0000              add [eax],al
0000037B  0000              add [eax],al
0000037D  0000              add [eax],al
0000037F  0012              add [edx],dl
00000381  0000              add [eax],al
00000383  007F00            add [edi+0x0],bh
00000386  0000              add [eax],al
00000388  0000              add [eax],al
0000038A  0000              add [eax],al
0000038C  0000              add [eax],al
0000038E  0000              add [eax],al
00000390  1200              adc al,[eax]
00000392  0000              add [eax],al
00000394  BF01000000        mov edi,0x1
00000399  0000              add [eax],al
0000039B  0000              add [eax],al
0000039D  0000              add [eax],al
0000039F  0012              add [edx],dl
000003A1  0000              add [eax],al
000003A3  0021              add [ecx],ah
000003A5  0000              add [eax],al
000003A7  0020              add [eax],ah
000003A9  890408            mov [eax+ecx],eax
000003AC  0000              add [eax],al
000003AE  0000              add [eax],al
000003B0  1200              adc al,[eax]
000003B2  0000              add [eax],al
000003B4  1D01000000        sbb eax,0x1
000003B9  0000              add [eax],al
000003BB  0000              add [eax],al
000003BD  0000              add [eax],al
000003BF  0012              add [edx],dl
000003C1  0000              add [eax],al
000003C3  0008              add [eax],cl
000003C5  0100              add [eax],eax
000003C7  004089            add [eax-0x77],al
000003CA  0408              add al,0x8
000003CC  0000              add [eax],al
000003CE  0000              add [eax],al
000003D0  1200              adc al,[eax]
000003D2  0000              add [eax],al
000003D4  F00100            lock add [eax],eax
000003D7  0000              add [eax],al
000003D9  0000              add [eax],al
000003DB  0000              add [eax],al
000003DD  0000              add [eax],al
000003DF  0012              add [edx],dl
000003E1  0000              add [eax],al
000003E3  0000              add [eax],al
000003E5  6C                insb
000003E6  6962737464632B    imul esp,[edx+0x73],dword 0x2b636474
000003ED  2B2E              sub ebp,[esi]
000003EF  736F              jnc 0x460
000003F1  2E36005F5A        add [ss:edi+0x5a],bl
000003F6  4E                dec esi
000003F7  53                push ebx
000003F8  6F                outsd
000003F9  6C                insb
000003FA  7345              jnc 0x441
000003FC  50                push eax
000003FD  46                inc esi
000003FE  52                push edx
000003FF  53                push ebx
00000400  6F                outsd
00000401  53                push ebx
00000402  5F                pop edi
00000403  45                inc ebp
00000404  005F5A            add [edi+0x5a],bl
00000407  53                push ebx
00000408  7434              jz 0x43e
0000040A  656E              gs outsb
0000040C  646C              fs insb
0000040E  49                dec ecx
0000040F  635374            arpl [ebx+0x74],dx
00000412  3131              xor [ecx],esi
00000414  636861            arpl [eax+0x61],bp
00000417  725F              jc 0x478
00000419  7472              jz 0x48d
0000041B  61                popa
0000041C  6974734963454552  imul esi,[ebx+esi*2+0x49],dword 0x52454563
00000424  53                push ebx
00000425  7431              jz 0x458
00000427  336261            xor esp,[edx+0x61]
0000042A  7369              jnc 0x495
0000042C  635F6F            arpl [edi+0x6f],bx
0000042F  7374              jnc 0x4a5
00000431  7265              jc 0x498
00000433  61                popa
00000434  6D                insd
00000435  49                dec ecx
00000436  54                push esp
00000437  5F                pop edi
00000438  54                push esp
00000439  305F45            xor [edi+0x45],bl
0000043C  53                push ebx
0000043D  365F              ss pop edi
0000043F  005F5A            add [edi+0x5a],bl
00000442  646C              fs insb
00000444  50                push eax
00000445  7600              jna 0x447
00000447  5F                pop edi
00000448  49                dec ecx
00000449  54                push esp
0000044A  4D                dec ebp
0000044B  5F                pop edi
0000044C  64657265          gs jc 0x4b5
00000450  676973746572544D  imul esi,[bp+di+0x74],dword 0x4d547265
00000458  43                inc ebx
00000459  6C                insb
0000045A  6F                outsd
0000045B  6E                outsb
0000045C  6554              gs push esp
0000045E  61                popa
0000045F  626C6500          bound ebp,[ebp+0x0]
00000463  5F                pop edi
00000464  5F                pop edi
00000465  637861            arpl [eax+0x61],di
00000468  5F                pop edi
00000469  656E              gs outsb
0000046B  645F              fs pop edi
0000046D  636174            arpl [ecx+0x74],sp
00000470  636800            arpl [eax+0x0],bp
00000473  5F                pop edi
00000474  5A                pop edx
00000475  53                push ebx
00000476  7434              jz 0x4ac
00000478  636F75            arpl [edi+0x75],bp
0000047B  7400              jz 0x47d
0000047D  5F                pop edi
0000047E  5A                pop edx
0000047F  53                push ebx
00000480  746C              jz 0x4ee
00000482  7349              jnc 0x4cd
00000484  53                push ebx
00000485  7431              jz 0x4b8
00000487  316368            xor [ebx+0x68],esp
0000048A  61                popa
0000048B  725F              jc 0x4ec
0000048D  7472              jz 0x501
0000048F  61                popa
00000490  6974734963454552  imul esi,[ebx+esi*2+0x49],dword 0x52454563
00000498  53                push ebx
00000499  7431              jz 0x4cc
0000049B  336261            xor esp,[edx+0x61]
0000049E  7369              jnc 0x509
000004A0  635F6F            arpl [edi+0x6f],bx
000004A3  7374              jnc 0x519
000004A5  7265              jc 0x50c
000004A7  61                popa
000004A8  6D                insd
000004A9  49                dec ecx
000004AA  63545F45          arpl [edi+ebx*2+0x45],dx
000004AE  53                push ebx
000004AF  355F504B63        xor eax,0x634b505f
000004B4  005F5A            add [edi+0x5a],bl
000004B7  4E                dec esi
000004B8  53                push ebx
000004B9  7438              jz 0x4f3
000004BB  696F735F626173    imul ebp,[edi+0x73],dword 0x7361625f
000004C2  653449            gs xor al,0x49
000004C5  6E                outsb
000004C6  697444314576005F  imul esi,[esp+eax*2+0x31],dword 0x5f007645
000004CE  5A                pop edx
000004CF  6E                outsb
000004D0  776A              ja 0x53c
000004D2  005F5A            add [edi+0x5a],bl
000004D5  4E                dec esi
000004D6  53                push ebx
000004D7  6F                outsd
000004D8  6C                insb
000004D9  7345              jnc 0x520
000004DB  64005F5F          add [fs:edi+0x5f],bl
000004DF  676D              a16 insd
000004E1  6F                outsd
000004E2  6E                outsb
000004E3  5F                pop edi
000004E4  7374              jnc 0x55a
000004E6  61                popa
000004E7  7274              jc 0x55d
000004E9  5F                pop edi
000004EA  5F                pop edi
000004EB  005F5F            add [edi+0x5f],bl
000004EE  677878            a16 js 0x569
000004F1  5F                pop edi
000004F2  7065              jo 0x559
000004F4  7273              jc 0x569
000004F6  6F                outsd
000004F7  6E                outsb
000004F8  61                popa
000004F9  6C                insb
000004FA  6974795F7630005F  imul esi,[ecx+edi*2+0x5f],dword 0x5f003076
00000502  5F                pop edi
00000503  637861            arpl [eax+0x61],di
00000506  5F                pop edi
00000507  626567            bound esp,[ebp+0x67]
0000050A  696E5F63617463    imul ebp,[esi+0x5f],dword 0x63746163
00000511  68005F5F63        push dword 0x635f5f00
00000516  7861              js 0x579
00000518  5F                pop edi
00000519  7265              jc 0x580
0000051B  7468              jz 0x585
0000051D  726F              jc 0x58e
0000051F  7700              ja 0x521
00000521  5F                pop edi
00000522  5A                pop edx
00000523  53                push ebx
00000524  7433              jz 0x559
00000526  63696E            arpl [ecx+0x6e],bp
00000529  005F5A            add [edi+0x5a],bl
0000052C  4E                dec esi
0000052D  53                push ebx
0000052E  7438              jz 0x568
00000530  696F735F626173    imul ebp,[edi+0x73],dword 0x7361625f
00000537  653449            gs xor al,0x49
0000053A  6E                outsb
0000053B  697443314576005F  imul esi,[ebx+eax*2+0x31],dword 0x5f007645
00000543  4A                dec edx
00000544  765F              jna 0x5a5
00000546  52                push edx
00000547  6567697374657243  imul esi,[gs:bp+di+0x74],dword 0x6c437265
         -6C
00000550  61                popa
00000551  7373              jnc 0x5c6
00000553  657300            gs jnc 0x556
00000556  5F                pop edi
00000557  5A                pop edx
00000558  4E                dec esi
00000559  53                push ebx
0000055A  69727345526900    imul esi,[edx+0x73],dword 0x695245
00000561  5F                pop edi
00000562  49                dec ecx
00000563  54                push esp
00000564  4D                dec ebp
00000565  5F                pop edi
00000566  7265              jc 0x5cd
00000568  676973746572544D  imul esi,[bp+di+0x74],dword 0x4d547265
00000570  43                inc ebx
00000571  6C                insb
00000572  6F                outsd
00000573  6E                outsb
00000574  6554              gs push esp
00000576  61                popa
00000577  626C6500          bound ebp,[ebp+0x0]
0000057B  5F                pop edi
0000057C  5A                pop edx
0000057D  53                push ebx
0000057E  7432              jz 0x5b2
00000580  305F5F            xor [edi+0x5f],bl
00000583  7468              jz 0x5ed
00000585  726F              jc 0x5f6
00000587  775F              ja 0x5e8
00000589  6C                insb
0000058A  656E              gs outsb
0000058C  677468            a16 jz 0x5f7
0000058F  5F                pop edi
00000590  657272            gs jc 0x605
00000593  6F                outsd
00000594  7250              jc 0x5e6
00000596  4B                dec ebx
00000597  6300              arpl [eax],ax
00000599  5F                pop edi
0000059A  5A                pop edx
0000059B  4E                dec esi
0000059C  53                push ebx
0000059D  6F                outsd
0000059E  6C                insb
0000059F  7345              jnc 0x5e6
000005A1  69005F5A5374      imul eax,[eax],dword 0x74535a5f
000005A7  3137              xor [edi],esi
000005A9  5F                pop edi
000005AA  5F                pop edi
000005AB  7468              jz 0x615
000005AD  726F              jc 0x61e
000005AF  775F              ja 0x610
000005B1  626164            bound esp,[ecx+0x64]
000005B4  5F                pop edi
000005B5  61                popa
000005B6  6C                insb
000005B7  6C                insb
000005B8  6F                outsd
000005B9  637600            arpl [esi+0x0],si
000005BC  6C                insb
000005BD  69626D2E736F2E    imul esp,[edx+0x6d],dword 0x2e6f732e
000005C4  36006C6962        add [ss:ecx+ebp*2+0x62],ch
000005C9  6763635F          arpl [bp+di+0x5f],sp
000005CD  732E              jnc 0x5fd
000005CF  736F              jnc 0x640
000005D1  2E3100            xor [cs:eax],eax
000005D4  5F                pop edi
000005D5  55                push ebp
000005D6  6E                outsb
000005D7  7769              ja 0x642
000005D9  6E                outsb
000005DA  645F              fs pop edi
000005DC  52                push edx
000005DD  657375            gs jnc 0x655
000005E0  6D                insd
000005E1  65006C6962        add [gs:ecx+ebp*2+0x62],ch
000005E6  632E              arpl [esi],bp
000005E8  736F              jnc 0x659
000005EA  2E36005F49        add [ss:edi+0x49],bl
000005EF  4F                dec edi
000005F0  5F                pop edi
000005F1  7374              jnc 0x667
000005F3  64696E5F75736564  imul ebp,[fs:esi+0x5f],dword 0x64657375
000005FB  005F5F            add [edi+0x5f],bl
000005FE  637861            arpl [eax+0x61],di
00000601  5F                pop edi
00000602  61                popa
00000603  7465              jz 0x66a
00000605  7869              js 0x670
00000607  7400              jz 0x609
00000609  6D                insd
0000060A  656D              gs insd
0000060C  6D                insd
0000060D  6F                outsd
0000060E  7665              jna 0x675
00000610  005F5F            add [edi+0x5f],bl
00000613  6C                insb
00000614  6962635F737461    imul esp,[edx+0x63],dword 0x6174735f
0000061B  7274              jc 0x691
0000061D  5F                pop edi
0000061E  6D                insd
0000061F  61                popa
00000620  696E004743435F    imul ebp,[esi+0x0],dword 0x5f434347
00000627  332E              xor ebp,[esi]
00000629  3000              xor [eax],al
0000062B  47                inc edi
0000062C  4C                dec esp
0000062D  49                dec ecx
0000062E  42                inc edx
0000062F  43                inc ebx
00000630  5F                pop edi
00000631  322E              xor ch,[esi]
00000633  3000              xor [eax],al
00000635  47                inc edi
00000636  4C                dec esp
00000637  49                dec ecx
00000638  42                inc edx
00000639  43                inc ebx
0000063A  5F                pop edi
0000063B  322E              xor ch,[esi]
0000063D  312E              xor [esi],ebp
0000063F  3300              xor eax,[eax]
00000641  43                inc ebx
00000642  58                pop eax
00000643  58                pop eax
00000644  41                inc ecx
00000645  42                inc edx
00000646  49                dec ecx
00000647  5F                pop edi
00000648  312E              xor [esi],ebp
0000064A  3300              xor eax,[eax]
0000064C  47                inc edi
0000064D  4C                dec esp
0000064E  49                dec ecx
0000064F  42                inc edx
00000650  43                inc ebx
00000651  58                pop eax
00000652  58                pop eax
00000653  5F                pop edi
00000654  332E              xor ebp,[esi]
00000656  3400              xor al,0x0
00000658  0000              add [eax],al
0000065A  0200              add al,[eax]
0000065C  0200              add al,[eax]
0000065E  0200              add al,[eax]
00000660  0200              add al,[eax]
00000662  0300              add eax,[eax]
00000664  0000              add [eax],al
00000666  0000              add [eax],al
00000668  0200              add al,[eax]
0000066A  0400              add al,0x0
0000066C  0200              add al,[eax]
0000066E  0500020000        add eax,0x200
00000673  0002              add [edx],al
00000675  0001              add [ecx],al
00000677  0000              add [eax],al
00000679  0002              add [edx],al
0000067B  0002              add [edx],al
0000067D  0002              add [edx],al
0000067F  000500020004      add [0x4000200],al
00000685  0002              add [edx],al
00000687  0002              add [edx],al
00000689  000400            add [eax+eax],al
0000068C  0400              add al,0x0
0000068E  06                push es
0000068F  0001              add [ecx],al
00000691  0001              add [ecx],al
00000693  00E2              add dl,ah
00000695  0100              add [eax],eax
00000697  0010              add [eax],dl
00000699  0000              add [eax],al
0000069B  0020              add [eax],ah
0000069D  0000              add [eax],al
0000069F  005026            add [eax+0x26],dl
000006A2  790B              jns 0x6af
000006A4  0000              add [eax],al
000006A6  06                push es
000006A7  003F              add [edi],bh
000006A9  0200              add al,[eax]
000006AB  0000              add [eax],al
000006AD  0000              add [eax],al
000006AF  0001              add [ecx],al
000006B1  0002              add [edx],al
000006B3  00FF              add bh,bh
000006B5  0100              add [eax],eax
000006B7  0010              add [eax],dl
000006B9  0000              add [eax],al
000006BB  0030              add [eax],dh
000006BD  0000              add [eax],al
000006BF  0010              add [eax],dl
000006C1  69690D00000500    imul ebp,[ecx+0xd],dword 0x50000
000006C8  47                inc edi
000006C9  0200              add al,[eax]
000006CB  0010              add [eax],dl
000006CD  0000              add [eax],al
000006CF  00731F            add [ebx+0x1f],dh
000006D2  690900000300      imul ecx,[ecx],dword 0x30000
000006D8  51                push ecx
000006D9  0200              add al,[eax]
000006DB  0000              add [eax],al
000006DD  0000              add [eax],al
000006DF  0001              add [ecx],al
000006E1  0002              add [edx],al
000006E3  0001              add [ecx],al
000006E5  0000              add [eax],al
000006E7  0010              add [eax],dl
000006E9  0000              add [eax],al
000006EB  0000              add [eax],al
000006ED  0000              add [eax],al
000006EF  00D3              add bl,dl
000006F1  AF                scasd
000006F2  6B05000004005D    imul eax,[0x40000],byte +0x5d
000006F9  0200              add al,[eax]
000006FB  0010              add [eax],dl
000006FD  0000              add [eax],al
000006FF  00742992          add [ecx+ebp-0x6e],dh
00000703  0800              or [eax],al
00000705  0002              add [edx],al
00000707  006802            add [eax+0x2],ch
0000070A  0000              add [eax],al
0000070C  0000              add [eax],al
0000070E  0000              add [eax],al
00000710  38F1              cmp cl,dh
00000712  0408              add al,0x8
00000714  06                push es
00000715  06                push es
00000716  0000              add [eax],al
00000718  C0                db 0xC0
00000719  F1                int1
0000071A  0408              add al,0x8
0000071C  0501000060        add eax,0x60000001
00000721  F20408            repne add al,0x8
00000724  0511000048        add eax,0x48000011
00000729  F1                int1
0000072A  0408              add al,0x8
0000072C  07                pop es
0000072D  0200              add al,[eax]
0000072F  004CF104          add [ecx+esi*8+0x4],cl
00000733  0807              or [edi],al
00000735  0300              add eax,[eax]
00000737  0050F1            add [eax-0xf],dl
0000073A  0408              add al,0x8
0000073C  07                pop es
0000073D  0400              add al,0x0
0000073F  0054F104          add [ecx+esi*8+0x4],dl
00000743  0807              or [edi],al
00000745  05000058F1        add eax,0xf1580000
0000074A  0408              add al,0x8
0000074C  07                pop es
0000074D  06                push es
0000074E  0000              add [eax],al
00000750  5C                pop esp
00000751  F1                int1
00000752  0408              add al,0x8
00000754  07                pop es
00000755  0800              or [eax],al
00000757  0060F1            add [eax-0xf],ah
0000075A  0408              add al,0x8
0000075C  07                pop es
0000075D  0900              or [eax],eax
0000075F  0064F104          add [ecx+esi*8+0x4],ah
00000763  0807              or [edi],al
00000765  0A00              or al,[eax]
00000767  0068F1            add [eax-0xf],ch
0000076A  0408              add al,0x8
0000076C  07                pop es
0000076D  0B00              or eax,[eax]
0000076F  006CF104          add [ecx+esi*8+0x4],ch
00000773  0807              or [edi],al
00000775  0C00              or al,0x0
00000777  0070F1            add [eax-0xf],dh
0000077A  0408              add al,0x8
0000077C  07                pop es
0000077D  0E                push cs
0000077E  0000              add [eax],al
00000780  74F1              jz 0x773
00000782  0408              add al,0x8
00000784  07                pop es
00000785  1200              adc al,[eax]
00000787  0078F1            add [eax-0xf],bh
0000078A  0408              add al,0x8
0000078C  07                pop es
0000078D  1300              adc eax,[eax]
0000078F  007CF104          add [ecx+esi*8+0x4],bh
00000793  0807              or [edi],al
00000795  1400              adc al,0x0
00000797  0080F1040807      add [eax+0x70804f1],al
0000079D  15000084F1        adc eax,0xf1840000
000007A2  0408              add al,0x8
000007A4  07                pop es
000007A5  16                push ss
000007A6  0000              add [eax],al
000007A8  88F1              mov cl,dh
000007AA  0408              add al,0x8
000007AC  07                pop es
000007AD  17                pop ss
000007AE  0000              add [eax],al
000007B0  8CF1              mov ecx,segr6
000007B2  0408              add al,0x8
000007B4  07                pop es
000007B5  1800              sbb [eax],al
000007B7  0090F1040807      add [eax+0x70804f1],dl
000007BD  1900              sbb [eax],eax
000007BF  0094F10408071A    add [ecx+esi*8+0x1a070804],dl
000007C6  0000              add [eax],al
000007C8  98                cwde
000007C9  F1                int1
000007CA  0408              add al,0x8
000007CC  07                pop es
000007CD  1B00              sbb eax,[eax]
000007CF  005589            add [ebp-0x77],dl
000007D2  E553              in eax,0x53
000007D4  83EC04            sub esp,byte +0x4
000007D7  E800000000        call 0x7dc
000007DC  5B                pop ebx
000007DD  81C360690000      add ebx,0x6960
000007E3  8B93FCFFFFFF      mov edx,[ebx+0xfffffffc]
000007E9  85D2              test edx,edx
000007EB  7405              jz 0x7f2
000007ED  E85E000000        call 0x850
000007F2  E859020000        call 0xa50
000007F7  E8B4350000        call 0x3db0
000007FC  58                pop eax
000007FD  5B                pop ebx
000007FE  C9                leave
000007FF  C3                ret
00000800  FF3540F10408      push dword [0x804f140]
00000806  FF2544F10408      jmp near [0x804f144]
0000080C  0000              add [eax],al
0000080E  0000              add [eax],al
00000810  FF2548F10408      jmp near [0x804f148]
00000816  6800000000        push dword 0x0
0000081B  E9E0FFFFFF        jmp 0x100000800
00000820  FF254CF10408      jmp near [0x804f14c]
00000826  6808000000        push dword 0x8
0000082B  E9D0FFFFFF        jmp 0x100000800
00000830  FF2550F10408      jmp near [0x804f150]
00000836  6810000000        push dword 0x10
0000083B  E9C0FFFFFF        jmp 0x100000800
00000840  FF2554F10408      jmp near [0x804f154]
00000846  6818000000        push dword 0x18
0000084B  E9B0FFFFFF        jmp 0x100000800
00000850  FF2558F10408      jmp near [0x804f158]
00000856  6820000000        push dword 0x20
0000085B  E9A0FFFFFF        jmp 0x100000800
00000860  FF255CF10408      jmp near [0x804f15c]
00000866  6828000000        push dword 0x28
0000086B  E990FFFFFF        jmp 0x100000800
00000870  FF2560F10408      jmp near [0x804f160]
00000876  6830000000        push dword 0x30
0000087B  E980FFFFFF        jmp 0x100000800
00000880  FF2564F10408      jmp near [0x804f164]
00000886  6838000000        push dword 0x38
0000088B  E970FFFFFF        jmp 0x100000800
00000890  FF2568F10408      jmp near [0x804f168]
00000896  6840000000        push dword 0x40
0000089B  E960FFFFFF        jmp 0x100000800
000008A0  FF256CF10408      jmp near [0x804f16c]
000008A6  6848000000        push dword 0x48
000008AB  E950FFFFFF        jmp 0x100000800
000008B0  FF2570F10408      jmp near [0x804f170]
000008B6  6850000000        push dword 0x50
000008BB  E940FFFFFF        jmp 0x100000800
000008C0  FF2574F10408      jmp near [0x804f174]
000008C6  6858000000        push dword 0x58
000008CB  E930FFFFFF        jmp 0x100000800
000008D0  FF2578F10408      jmp near [0x804f178]
000008D6  6860000000        push dword 0x60
000008DB  E920FFFFFF        jmp 0x100000800
000008E0  FF257CF10408      jmp near [0x804f17c]
000008E6  6868000000        push dword 0x68
000008EB  E910FFFFFF        jmp 0x100000800
000008F0  FF2580F10408      jmp near [0x804f180]
000008F6  6870000000        push dword 0x70
000008FB  E900FFFFFF        jmp 0x100000800
00000900  FF2584F10408      jmp near [0x804f184]
00000906  6878000000        push dword 0x78
0000090B  E9F0FEFFFF        jmp 0x100000800
00000910  FF2588F10408      jmp near [0x804f188]
00000916  6880000000        push dword 0x80
0000091B  E9E0FEFFFF        jmp 0x100000800
00000920  FF258CF10408      jmp near [0x804f18c]
00000926  6888000000        push dword 0x88
0000092B  E9D0FEFFFF        jmp 0x100000800
00000930  FF2590F10408      jmp near [0x804f190]
00000936  6890000000        push dword 0x90
0000093B  E9C0FEFFFF        jmp 0x100000800
00000940  FF2594F10408      jmp near [0x804f194]
00000946  6898000000        push dword 0x98
0000094B  E9B0FEFFFF        jmp 0x100000800
00000950  FF2598F10408      jmp near [0x804f198]
00000956  68A0000000        push dword 0xa0
0000095B  E9A0FEFFFF        jmp 0x100000800
00000960  31ED              xor ebp,ebp
00000962  5E                pop esi
00000963  89E1              mov ecx,esp
00000965  83E4F0            and esp,byte -0x10
00000968  50                push eax
00000969  54                push esp
0000096A  52                push edx
0000096B  6840BD0408        push dword 0x804bd40
00000970  6850BD0408        push dword 0x804bd50
00000975  51                push ecx
00000976  56                push esi
00000977  68578C0408        push dword 0x8048c57
0000097C  E80FFFFFFF        call 0x100000890
00000981  F4                hlt
00000982  90                nop
00000983  90                nop
00000984  6690              o16 nop
00000986  6690              o16 nop
00000988  6690              o16 nop
0000098A  6690              o16 nop
0000098C  6690              o16 nop
0000098E  6690              o16 nop
00000990  B8A7F10408        mov eax,0x804f1a7
00000995  2DA4F10408        sub eax,0x804f1a4
0000099A  83F806            cmp eax,byte +0x6
0000099D  7701              ja 0x9a0
0000099F  C3                ret
000009A0  B800000000        mov eax,0x0
000009A5  85C0              test eax,eax
000009A7  74F6              jz 0x99f
000009A9  55                push ebp
000009AA  89E5              mov ebp,esp
000009AC  83EC18            sub esp,byte +0x18
000009AF  C70424A4F10408    mov dword [esp],0x804f1a4
000009B6  FFD0              call eax
000009B8  C9                leave
000009B9  C3                ret
000009BA  8DB600000000      lea esi,[esi+0x0]
000009C0  B8A4F10408        mov eax,0x804f1a4
000009C5  2DA4F10408        sub eax,0x804f1a4
000009CA  C1F802            sar eax,0x2
000009CD  89C2              mov edx,eax
000009CF  C1EA1F            shr edx,0x1f
000009D2  01D0              add eax,edx
000009D4  D1F8              sar eax,1
000009D6  7501              jnz 0x9d9
000009D8  C3                ret
000009D9  BA00000000        mov edx,0x0
000009DE  85D2              test edx,edx
000009E0  74F6              jz 0x9d8
000009E2  55                push ebp
000009E3  89E5              mov ebp,esp
000009E5  83EC18            sub esp,byte +0x18
000009E8  89442404          mov [esp+0x4],eax
000009EC  C70424A4F10408    mov dword [esp],0x804f1a4
000009F3  FFD2              call edx
000009F5  C9                leave
000009F6  C3                ret
000009F7  89F6              mov esi,esi
000009F9  8DBC2700000000    lea edi,[edi+0x0]
00000A00  803DECF2040800    cmp byte [0x804f2ec],0x0
00000A07  7544              jnz 0xa4d
00000A09  55                push ebp
00000A0A  89E5              mov ebp,esp
00000A0C  53                push ebx
00000A0D  BB50F00408        mov ebx,0x804f050
00000A12  52                push edx
00000A13  81EB4CF00408      sub ebx,0x804f04c
00000A19  A1F0F20408        mov eax,[0x804f2f0]
00000A1E  C1FB02            sar ebx,0x2
00000A21  4B                dec ebx
00000A22  39D8              cmp eax,ebx
00000A24  7318              jnc 0xa3e
00000A26  6690              o16 nop
00000A28  40                inc eax
00000A29  A3F0F20408        mov [0x804f2f0],eax
00000A2E  FF14854CF00408    call near [eax*4+0x804f04c]
00000A35  A1F0F20408        mov eax,[0x804f2f0]
00000A3A  39D8              cmp eax,ebx
00000A3C  72EA              jc 0xa28
00000A3E  E84DFFFFFF        call 0x100000990
00000A43  C605ECF2040801    mov byte [0x804f2ec],0x1
00000A4A  58                pop eax
00000A4B  5B                pop ebx
00000A4C  5D                pop ebp
00000A4D  C3                ret
00000A4E  6690              o16 nop
00000A50  8B0D54F00408      mov ecx,[0x804f054]
00000A56  85C9              test ecx,ecx
00000A58  741E              jz 0xa78
00000A5A  B800000000        mov eax,0x0
00000A5F  85C0              test eax,eax
00000A61  7415              jz 0xa78
00000A63  55                push ebp
00000A64  89E5              mov ebp,esp
00000A66  83EC18            sub esp,byte +0x18
00000A69  C7042454F00408    mov dword [esp],0x804f054
00000A70  FFD0              call eax
00000A72  C9                leave
00000A73  E948FFFFFF        jmp 0x1000009c0
00000A78  E943FFFFFF        jmp 0x1000009c0
00000A7D  6690              o16 nop
00000A7F  90                nop
00000A80  55                push ebp
00000A81  89E5              mov ebp,esp
00000A83  57                push edi
00000A84  56                push esi
00000A85  53                push ebx
00000A86  83EC3C            sub esp,byte +0x3c
00000A89  8B5D1C            mov ebx,[ebp+0x1c]
00000A8C  8B4518            mov eax,[ebp+0x18]
00000A8F  89442404          mov [esp+0x4],eax
00000A93  8B4514            mov eax,[ebp+0x14]
00000A96  890424            mov [esp],eax
00000A99  E8B80E0000        call 0x1956
00000A9E  895C2404          mov [esp+0x4],ebx
00000AA2  890424            mov [esp],eax
00000AA5  E8C40E0000        call 0x196e
00000AAA  8B00              mov eax,[eax]
00000AAC  85C0              test eax,eax
00000AAE  0F94C0            setz al
00000AB1  84C0              test al,al
00000AB3  7405              jz 0xaba
00000AB5  E995010000        jmp 0xc4f
00000ABA  8B5D1C            mov ebx,[ebp+0x1c]
00000ABD  8B4518            mov eax,[ebp+0x18]
00000AC0  89442404          mov [esp+0x4],eax
00000AC4  8B4514            mov eax,[ebp+0x14]
00000AC7  890424            mov [esp],eax
00000ACA  E8870E0000        call 0x1956
00000ACF  895C2404          mov [esp+0x4],ebx
00000AD3  890424            mov [esp],eax
00000AD6  E8930E0000        call 0x196e
00000ADB  C70000000000      mov dword [eax],0x0
00000AE1  C745E400000000    mov dword [ebp-0x1c],0x0
00000AE8  E958010000        jmp 0xc45
00000AED  8B45E4            mov eax,[ebp-0x1c]
00000AF0  8B148524BE0408    mov edx,[eax*4+0x804be24]
00000AF7  8B4518            mov eax,[ebp+0x18]
00000AFA  01D0              add eax,edx
00000AFC  8945E0            mov [ebp-0x20],eax
00000AFF  8B45E4            mov eax,[ebp-0x1c]
00000B02  8B148534BE0408    mov edx,[eax*4+0x804be34]
00000B09  8B451C            mov eax,[ebp+0x1c]
00000B0C  01D0              add eax,edx
00000B0E  8945DC            mov [ebp-0x24],eax
00000B11  C744240400000000  mov dword [esp+0x4],0x0
00000B19  8B4514            mov eax,[ebp+0x14]
00000B1C  890424            mov [esp],eax
00000B1F  E8320E0000        call 0x1956
00000B24  890424            mov [esp],eax
00000B27  E8900E0000        call 0x19bc
00000B2C  89C3              mov ebx,eax
00000B2E  8B4514            mov eax,[ebp+0x14]
00000B31  890424            mov [esp],eax
00000B34  E8470E0000        call 0x1980
00000B39  895C240C          mov [esp+0xc],ebx
00000B3D  89442408          mov [esp+0x8],eax
00000B41  8B45DC            mov eax,[ebp-0x24]
00000B44  89442404          mov [esp+0x4],eax
00000B48  8B45E0            mov eax,[ebp-0x20]
00000B4B  890424            mov [esp],eax
00000B4E  E8AD0D0000        call 0x1900
00000B53  84C0              test al,al
00000B55  0F84E7000000      jz near 0xc42
00000B5B  8B5DDC            mov ebx,[ebp-0x24]
00000B5E  8B45E0            mov eax,[ebp-0x20]
00000B61  89442404          mov [esp+0x4],eax
00000B65  8B4508            mov eax,[ebp+0x8]
00000B68  890424            mov [esp],eax
00000B6B  E8660E0000        call 0x19d6
00000B70  895C2404          mov [esp+0x4],ebx
00000B74  890424            mov [esp],eax
00000B77  E8720E0000        call 0x19ee
00000B7C  89C3              mov ebx,eax
00000B7E  8B751C            mov esi,[ebp+0x1c]
00000B81  8B4518            mov eax,[ebp+0x18]
00000B84  89442404          mov [esp+0x4],eax
00000B88  8B4508            mov eax,[ebp+0x8]
00000B8B  890424            mov [esp],eax
00000B8E  E8430E0000        call 0x19d6
00000B93  89742404          mov [esp+0x4],esi
00000B97  890424            mov [esp],eax
00000B9A  E84F0E0000        call 0x19ee
00000B9F  895C2404          mov [esp+0x4],ebx
00000BA3  890424            mov [esp],eax
00000BA6  E8550E0000        call 0x1a00
00000BAB  8B38              mov edi,[eax]
00000BAD  8B5DDC            mov ebx,[ebp-0x24]
00000BB0  8B45E0            mov eax,[ebp-0x20]
00000BB3  89442404          mov [esp+0x4],eax
00000BB7  8B450C            mov eax,[ebp+0xc]
00000BBA  890424            mov [esp],eax
00000BBD  E8140E0000        call 0x19d6
00000BC2  895C2404          mov [esp+0x4],ebx
00000BC6  890424            mov [esp],eax
00000BC9  E8200E0000        call 0x19ee
00000BCE  8B18              mov ebx,[eax]
00000BD0  8B751C            mov esi,[ebp+0x1c]
00000BD3  8B4518            mov eax,[ebp+0x18]
00000BD6  89442404          mov [esp+0x4],eax
00000BDA  8B450C            mov eax,[ebp+0xc]
00000BDD  890424            mov [esp],eax
00000BE0  E8F10D0000        call 0x19d6
00000BE5  89742404          mov [esp+0x4],esi
00000BE9  890424            mov [esp],eax
00000BEC  E8FD0D0000        call 0x19ee
00000BF1  8B00              mov eax,[eax]
00000BF3  895C2408          mov [esp+0x8],ebx
00000BF7  89442404          mov [esp+0x4],eax
00000BFB  8B4510            mov eax,[ebp+0x10]
00000BFE  890424            mov [esp],eax
00000C01  E8CF0C0000        call 0x18d5
00000C06  29C7              sub edi,eax
00000C08  89F8              mov eax,edi
00000C0A  83F831            cmp eax,byte +0x31
00000C0D  0F9FC0            setg al
00000C10  84C0              test al,al
00000C12  742E              jz 0xc42
00000C14  8B45DC            mov eax,[ebp-0x24]
00000C17  89442414          mov [esp+0x14],eax
00000C1B  8B45E0            mov eax,[ebp-0x20]
00000C1E  89442410          mov [esp+0x10],eax
00000C22  8B4514            mov eax,[ebp+0x14]
00000C25  8944240C          mov [esp+0xc],eax
00000C29  8B4510            mov eax,[ebp+0x10]
00000C2C  89442408          mov [esp+0x8],eax
00000C30  8B450C            mov eax,[ebp+0xc]
00000C33  89442404          mov [esp+0x4],eax
00000C37  8B4508            mov eax,[ebp+0x8]
00000C3A  890424            mov [esp],eax
00000C3D  E83EFEFFFF        call 0x100000a80
00000C42  FF45E4            inc dword [ebp-0x1c]
00000C45  837DE403          cmp dword [ebp-0x1c],byte +0x3
00000C49  0F8E9EFEFFFF      jng near 0x100000aed
00000C4F  83C43C            add esp,byte +0x3c
00000C52  5B                pop ebx
00000C53  5E                pop esi
00000C54  5F                pop edi
00000C55  5D                pop ebp
00000C56  C3                ret
00000C57  55                push ebp
00000C58  89E5              mov ebp,esp
00000C5A  57                push edi
00000C5B  56                push esi
00000C5C  53                push ebx
00000C5D  83E4F0            and esp,byte -0x10
00000C60  81EC40010000      sub esp,0x140
00000C66  C744240404000000  mov dword [esp+0x4],0x4
00000C6E  C7042464F20408    mov dword [esp],0x804f264
00000C75  E8140C0000        call 0x188e
00000C7A  C744240401000000  mov dword [esp+0x4],0x1
00000C82  C7042464F20408    mov dword [esp],0x804f264
00000C89  E82A0C0000        call 0x18b8
00000C8E  8D842484000000    lea eax,[esp+0x84]
00000C95  89442404          mov [esp+0x4],eax
00000C99  C70424C0F10408    mov dword [esp],0x804f1c0
00000CA0  E82BFCFFFF        call 0x1000008d0
00000CA5  C784243C01000001  mov dword [esp+0x13c],0x1
         -000000
00000CB0  E9B9090000        jmp 0x166e
00000CB5  8D842480000000    lea eax,[esp+0x80]
00000CBC  89442404          mov [esp+0x4],eax
00000CC0  C70424C0F10408    mov dword [esp],0x804f1c0
00000CC7  E804FCFFFF        call 0x1000008d0
00000CCC  8D54247C          lea edx,[esp+0x7c]
00000CD0  89542404          mov [esp+0x4],edx
00000CD4  890424            mov [esp],eax
00000CD7  E8F4FBFFFF        call 0x1000008d0
00000CDC  8D542478          lea edx,[esp+0x78]
00000CE0  89542404          mov [esp+0x4],edx
00000CE4  890424            mov [esp],eax
00000CE7  E8E4FBFFFF        call 0x1000008d0
00000CEC  8D84248B000000    lea eax,[esp+0x8b]
00000CF3  890424            mov [esp],eax
00000CF6  E8F90D0000        call 0x1af4
00000CFB  8D84249B000000    lea eax,[esp+0x9b]
00000D02  890424            mov [esp],eax
00000D05  E8120D0000        call 0x1a1c
00000D0A  C784249C00000000  mov dword [esp+0x9c],0x0
         -000000
00000D15  8B442478          mov eax,[esp+0x78]
00000D19  8D94249B000000    lea edx,[esp+0x9b]
00000D20  8954240C          mov [esp+0xc],edx
00000D24  8D94249C000000    lea edx,[esp+0x9c]
00000D2B  89542408          mov [esp+0x8],edx
00000D2F  89442404          mov [esp+0x4],eax
00000D33  8D84248C000000    lea eax,[esp+0x8c]
00000D3A  890424            mov [esp],eax
00000D3D  E8020D0000        call 0x1a44
00000D42  8B44247C          mov eax,[esp+0x7c]
00000D46  8D94248B000000    lea edx,[esp+0x8b]
00000D4D  8954240C          mov [esp+0xc],edx
00000D51  8D94248C000000    lea edx,[esp+0x8c]
00000D58  89542408          mov [esp+0x8],edx
00000D5C  89442404          mov [esp+0x4],eax
00000D60  8D44246C          lea eax,[esp+0x6c]
00000D64  890424            mov [esp],eax
00000D67  E8B00D0000        call 0x1b1c
00000D6C  8D84248C000000    lea eax,[esp+0x8c]
00000D73  890424            mov [esp],eax
00000D76  E8210D0000        call 0x1a9c
00000D7B  8D84249B000000    lea eax,[esp+0x9b]
00000D82  890424            mov [esp],eax
00000D85  E8A60C0000        call 0x1a30
00000D8A  8D84248B000000    lea eax,[esp+0x8b]
00000D91  890424            mov [esp],eax
00000D94  E86F0D0000        call 0x1b08
00000D99  8D8424A3000000    lea eax,[esp+0xa3]
00000DA0  890424            mov [esp],eax
00000DA3  E84C0D0000        call 0x1af4
00000DA8  8D8424B3000000    lea eax,[esp+0xb3]
00000DAF  890424            mov [esp],eax
00000DB2  E8650C0000        call 0x1a1c
00000DB7  C78424B400000000  mov dword [esp+0xb4],0x0
         -000000
00000DC2  8B442478          mov eax,[esp+0x78]
00000DC6  8D9424B3000000    lea edx,[esp+0xb3]
00000DCD  8954240C          mov [esp+0xc],edx
00000DD1  8D9424B4000000    lea edx,[esp+0xb4]
00000DD8  89542408          mov [esp+0x8],edx
00000DDC  89442404          mov [esp+0x4],eax
00000DE0  8D8424A4000000    lea eax,[esp+0xa4]
00000DE7  890424            mov [esp],eax
00000DEA  E8550C0000        call 0x1a44
00000DEF  8B44247C          mov eax,[esp+0x7c]
00000DF3  8D9424A3000000    lea edx,[esp+0xa3]
00000DFA  8954240C          mov [esp+0xc],edx
00000DFE  8D9424A4000000    lea edx,[esp+0xa4]
00000E05  89542408          mov [esp+0x8],edx
00000E09  89442404          mov [esp+0x4],eax
00000E0D  8D442460          lea eax,[esp+0x60]
00000E11  890424            mov [esp],eax
00000E14  E8030D0000        call 0x1b1c
00000E19  8D8424A4000000    lea eax,[esp+0xa4]
00000E20  890424            mov [esp],eax
00000E23  E8740C0000        call 0x1a9c
00000E28  8D8424B3000000    lea eax,[esp+0xb3]
00000E2F  890424            mov [esp],eax
00000E32  E8F90B0000        call 0x1a30
00000E37  8D8424A3000000    lea eax,[esp+0xa3]
00000E3E  890424            mov [esp],eax
00000E41  E8C20C0000        call 0x1b08
00000E46  C784243801000000  mov dword [esp+0x138],0x0
         -000000
00000E51  EB62              jmp short 0xeb5
00000E53  C784243401000000  mov dword [esp+0x134],0x0
         -000000
00000E5E  EB41              jmp short 0xea1
00000E60  8B9C2434010000    mov ebx,[esp+0x134]
00000E67  8B842438010000    mov eax,[esp+0x138]
00000E6E  89442404          mov [esp+0x4],eax
00000E72  8D44246C          lea eax,[esp+0x6c]
00000E76  890424            mov [esp],eax
00000E79  E8D80A0000        call 0x1956
00000E7E  895C2404          mov [esp+0x4],ebx
00000E82  890424            mov [esp],eax
00000E85  E8E40A0000        call 0x196e
00000E8A  89442404          mov [esp+0x4],eax
00000E8E  C70424C0F10408    mov dword [esp],0x804f1c0
00000E95  E836FAFFFF        call 0x1000008d0
00000E9A  FF842434010000    inc dword [esp+0x134]
00000EA1  8B442478          mov eax,[esp+0x78]
00000EA5  39842434010000    cmp [esp+0x134],eax
00000EAC  7CB2              jl 0xe60
00000EAE  FF842438010000    inc dword [esp+0x138]
00000EB5  8B44247C          mov eax,[esp+0x7c]
00000EB9  39842438010000    cmp [esp+0x138],eax
00000EC0  7C91              jl 0xe53
00000EC2  C784243001000000  mov dword [esp+0x130],0x0
         -000000
00000ECD  EB62              jmp short 0xf31
00000ECF  C784242C01000000  mov dword [esp+0x12c],0x0
         -000000
00000EDA  EB41              jmp short 0xf1d
00000EDC  8B9C242C010000    mov ebx,[esp+0x12c]
00000EE3  8B842430010000    mov eax,[esp+0x130]
00000EEA  89442404          mov [esp+0x4],eax
00000EEE  8D442460          lea eax,[esp+0x60]
00000EF2  890424            mov [esp],eax
00000EF5  E85C0A0000        call 0x1956
00000EFA  895C2404          mov [esp+0x4],ebx
00000EFE  890424            mov [esp],eax
00000F01  E8680A0000        call 0x196e
00000F06  89442404          mov [esp+0x4],eax
00000F0A  C70424C0F10408    mov dword [esp],0x804f1c0
00000F11  E8BAF9FFFF        call 0x1000008d0
00000F16  FF84242C010000    inc dword [esp+0x12c]
00000F1D  8B442478          mov eax,[esp+0x78]
00000F21  3984242C010000    cmp [esp+0x12c],eax
00000F28  7CB2              jl 0xedc
00000F2A  FF842430010000    inc dword [esp+0x130]
00000F31  8B44247C          mov eax,[esp+0x7c]
00000F35  39842430010000    cmp [esp+0x130],eax
00000F3C  7C91              jl 0xecf
00000F3E  8D8424BB000000    lea eax,[esp+0xbb]
00000F45  890424            mov [esp],eax
00000F48  E8A70B0000        call 0x1af4
00000F4D  8D8424CB000000    lea eax,[esp+0xcb]
00000F54  890424            mov [esp],eax
00000F57  E8C00A0000        call 0x1a1c
00000F5C  8B442478          mov eax,[esp+0x78]
00000F60  8D9424CB000000    lea edx,[esp+0xcb]
00000F67  8954240C          mov [esp+0xc],edx
00000F6B  C744240800CA9A3B  mov dword [esp+0x8],0x3b9aca00
00000F73  89442404          mov [esp+0x4],eax
00000F77  8D8424BC000000    lea eax,[esp+0xbc]
00000F7E  890424            mov [esp],eax
00000F81  E8460C0000        call 0x1bcc
00000F86  8B44247C          mov eax,[esp+0x7c]
00000F8A  8D9424BB000000    lea edx,[esp+0xbb]
00000F91  8954240C          mov [esp+0xc],edx
00000F95  8D9424BC000000    lea edx,[esp+0xbc]
00000F9C  89542408          mov [esp+0x8],edx
00000FA0  89442404          mov [esp+0x4],eax
00000FA4  8D442454          lea eax,[esp+0x54]
00000FA8  890424            mov [esp],eax
00000FAB  E86C0B0000        call 0x1b1c
00000FB0  8D8424BC000000    lea eax,[esp+0xbc]
00000FB7  890424            mov [esp],eax
00000FBA  E8DD0A0000        call 0x1a9c
00000FBF  8D8424CB000000    lea eax,[esp+0xcb]
00000FC6  890424            mov [esp],eax
00000FC9  E8620A0000        call 0x1a30
00000FCE  8D8424BB000000    lea eax,[esp+0xbb]
00000FD5  890424            mov [esp],eax
00000FD8  E82B0B0000        call 0x1b08
00000FDD  8B842480000000    mov eax,[esp+0x80]
00000FE4  C744241400000000  mov dword [esp+0x14],0x0
00000FEC  C744241000000000  mov dword [esp+0x10],0x0
00000FF4  8D542454          lea edx,[esp+0x54]
00000FF8  8954240C          mov [esp+0xc],edx
00000FFC  89442408          mov [esp+0x8],eax
00001000  8D442460          lea eax,[esp+0x60]
00001004  89442404          mov [esp+0x4],eax
00001008  8D44246C          lea eax,[esp+0x6c]
0000100C  890424            mov [esp],eax
0000100F  E86CFAFFFF        call 0x100000a80
00001014  8D8424CC000000    lea eax,[esp+0xcc]
0000101B  890424            mov [esp],eax
0000101E  E8FF0B0000        call 0x1c22
00001023  8D8424CC000000    lea eax,[esp+0xcc]
0000102A  89442408          mov [esp+0x8],eax
0000102E  8D8424DB000000    lea eax,[esp+0xdb]
00001035  89442404          mov [esp+0x4],eax
00001039  8D442444          lea eax,[esp+0x44]
0000103D  890424            mov [esp],eax
00001040  E8490C0000        call 0x1c8e
00001045  8D8424CC000000    lea eax,[esp+0xcc]
0000104C  890424            mov [esp],eax
0000104F  E8E20B0000        call 0x1c36
00001054  C744244000000000  mov dword [esp+0x40],0x0
0000105C  E9C6000000        jmp 0x1127
00001061  C744243C00000000  mov dword [esp+0x3c],0x0
00001069  E9A0000000        jmp 0x110e
0000106E  8B44243C          mov eax,[esp+0x3c]
00001072  89C3              mov ebx,eax
00001074  8B442440          mov eax,[esp+0x40]
00001078  89442404          mov [esp+0x4],eax
0000107C  8D442454          lea eax,[esp+0x54]
00001080  890424            mov [esp],eax
00001083  E8CE080000        call 0x1956
00001088  895C2404          mov [esp+0x4],ebx
0000108C  890424            mov [esp],eax
0000108F  E8DA080000        call 0x196e
00001094  8B00              mov eax,[eax]
00001096  85C0              test eax,eax
00001098  0F94C0            setz al
0000109B  84C0              test al,al
0000109D  7466              jz 0x1105
0000109F  8D44243C          lea eax,[esp+0x3c]
000010A3  89442408          mov [esp+0x8],eax
000010A7  8D442440          lea eax,[esp+0x40]
000010AB  89442404          mov [esp+0x4],eax
000010AF  8D8424E8000000    lea eax,[esp+0xe8]
000010B6  890424            mov [esp],eax
000010B9  E8480C0000        call 0x1d06
000010BE  C78424F000000000  mov dword [esp+0xf0],0x0
         -000000
000010C9  8D8424E8000000    lea eax,[esp+0xe8]
000010D0  89442408          mov [esp+0x8],eax
000010D4  8D8424F0000000    lea eax,[esp+0xf0]
000010DB  89442404          mov [esp+0x4],eax
000010DF  8D8424DC000000    lea eax,[esp+0xdc]
000010E6  890424            mov [esp],eax
000010E9  E8320C0000        call 0x1d20
000010EE  8D8424DC000000    lea eax,[esp+0xdc]
000010F5  89442404          mov [esp+0x4],eax
000010F9  8D442444          lea eax,[esp+0x44]
000010FD  890424            mov [esp],eax
00001100  E83B0C0000        call 0x1d40
00001105  8B44243C          mov eax,[esp+0x3c]
00001109  40                inc eax
0000110A  8944243C          mov [esp+0x3c],eax
0000110E  8B54243C          mov edx,[esp+0x3c]
00001112  8B442478          mov eax,[esp+0x78]
00001116  39C2              cmp edx,eax
00001118  0F8C50FFFFFF      jl near 0x10000106e
0000111E  8B442440          mov eax,[esp+0x40]
00001122  40                inc eax
00001123  89442440          mov [esp+0x40],eax
00001127  8B542440          mov edx,[esp+0x40]
0000112B  8B44247C          mov eax,[esp+0x7c]
0000112F  39C2              cmp edx,eax
00001131  0F8C2AFFFFFF      jl near 0x100001061
00001137  E94F040000        jmp 0x158b
0000113C  8D442444          lea eax,[esp+0x44]
00001140  890424            mov [esp],eax
00001143  E86A0C0000        call 0x1db2
00001148  8B00              mov eax,[eax]
0000114A  89842420010000    mov [esp+0x120],eax
00001151  8D442444          lea eax,[esp+0x44]
00001155  890424            mov [esp],eax
00001158  E8550C0000        call 0x1db2
0000115D  8B4004            mov eax,[eax+0x4]
00001160  8984241C010000    mov [esp+0x11c],eax
00001167  8D442444          lea eax,[esp+0x44]
0000116B  890424            mov [esp],eax
0000116E  E83F0C0000        call 0x1db2
00001173  8B4008            mov eax,[eax+0x8]
00001176  89842418010000    mov [esp+0x118],eax
0000117D  8D442444          lea eax,[esp+0x44]
00001181  890424            mov [esp],eax
00001184  E83D0C0000        call 0x1dc6
00001189  8B9C2418010000    mov ebx,[esp+0x118]
00001190  8B84241C010000    mov eax,[esp+0x11c]
00001197  89442404          mov [esp+0x4],eax
0000119B  8D442454          lea eax,[esp+0x54]
0000119F  890424            mov [esp],eax
000011A2  E8AF070000        call 0x1956
000011A7  895C2404          mov [esp+0x4],ebx
000011AB  890424            mov [esp],eax
000011AE  E8BB070000        call 0x196e
000011B3  8B00              mov eax,[eax]
000011B5  3B842420010000    cmp eax,[esp+0x120]
000011BC  0F9FC0            setg al
000011BF  84C0              test al,al
000011C1  7405              jz 0x11c8
000011C3  E9C3030000        jmp 0x158b
000011C8  C784242801000000  mov dword [esp+0x128],0x0
         -000000
000011D3  E9A5030000        jmp 0x157d
000011D8  8B842428010000    mov eax,[esp+0x128]
000011DF  8B148524BE0408    mov edx,[eax*4+0x804be24]
000011E6  8B84241C010000    mov eax,[esp+0x11c]
000011ED  01D0              add eax,edx
000011EF  89442438          mov [esp+0x38],eax
000011F3  8B842428010000    mov eax,[esp+0x128]
000011FA  8B148534BE0408    mov edx,[eax*4+0x804be34]
00001201  8B842418010000    mov eax,[esp+0x118]
00001208  01D0              add eax,edx
0000120A  89442434          mov [esp+0x34],eax
0000120E  8B5C2478          mov ebx,[esp+0x78]
00001212  8B4C247C          mov ecx,[esp+0x7c]
00001216  8B542434          mov edx,[esp+0x34]
0000121A  8B442438          mov eax,[esp+0x38]
0000121E  895C240C          mov [esp+0xc],ebx
00001222  894C2408          mov [esp+0x8],ecx
00001226  89542404          mov [esp+0x4],edx
0000122A  890424            mov [esp],eax
0000122D  E8CE060000        call 0x1900
00001232  83F001            xor eax,byte +0x1
00001235  84C0              test al,al
00001237  0F85C9000000      jnz near 0x1306
0000123D  8B442434          mov eax,[esp+0x34]
00001241  89C3              mov ebx,eax
00001243  8B442438          mov eax,[esp+0x38]
00001247  89442404          mov [esp+0x4],eax
0000124B  8D44246C          lea eax,[esp+0x6c]
0000124F  890424            mov [esp],eax
00001252  E8FF060000        call 0x1956
00001257  895C2404          mov [esp+0x4],ebx
0000125B  890424            mov [esp],eax
0000125E  E80B070000        call 0x196e
00001263  89C3              mov ebx,eax
00001265  8BB42418010000    mov esi,[esp+0x118]
0000126C  8B84241C010000    mov eax,[esp+0x11c]
00001273  89442404          mov [esp+0x4],eax
00001277  8D44246C          lea eax,[esp+0x6c]
0000127B  890424            mov [esp],eax
0000127E  E8D3060000        call 0x1956
00001283  89742404          mov [esp+0x4],esi
00001287  890424            mov [esp],eax
0000128A  E8DF060000        call 0x196e
0000128F  895C2404          mov [esp+0x4],ebx
00001293  890424            mov [esp],eax
00001296  E865070000        call 0x1a00
0000129B  8B38              mov edi,[eax]
0000129D  8B442434          mov eax,[esp+0x34]
000012A1  89C3              mov ebx,eax
000012A3  8B442438          mov eax,[esp+0x38]
000012A7  89442404          mov [esp+0x4],eax
000012AB  8D442460          lea eax,[esp+0x60]
000012AF  890424            mov [esp],eax
000012B2  E89F060000        call 0x1956
000012B7  895C2404          mov [esp+0x4],ebx
000012BB  890424            mov [esp],eax
000012BE  E8AB060000        call 0x196e
000012C3  89C3              mov ebx,eax
000012C5  8BB42418010000    mov esi,[esp+0x118]
000012CC  8B84241C010000    mov eax,[esp+0x11c]
000012D3  89442404          mov [esp+0x4],eax
000012D7  8D442460          lea eax,[esp+0x60]
000012DB  890424            mov [esp],eax
000012DE  E873060000        call 0x1956
000012E3  89742404          mov [esp+0x4],esi
000012E7  890424            mov [esp],eax
000012EA  E87F060000        call 0x196e
000012EF  895C2404          mov [esp+0x4],ebx
000012F3  890424            mov [esp],eax
000012F6  E840060000        call 0x193b
000012FB  8B00              mov eax,[eax]
000012FD  29C7              sub edi,eax
000012FF  89F8              mov eax,edi
00001301  83F831            cmp eax,byte +0x31
00001304  7F04              jg 0x130a
00001306  B001              mov al,0x1
00001308  EB02              jmp short 0x130c
0000130A  B000              mov al,0x0
0000130C  84C0              test al,al
0000130E  0F8562020000      jnz near 0x1576
00001314  8BB42480000000    mov esi,[esp+0x80]
0000131B  8B9C2418010000    mov ebx,[esp+0x118]
00001322  8B84241C010000    mov eax,[esp+0x11c]
00001329  89442404          mov [esp+0x4],eax
0000132D  8D442454          lea eax,[esp+0x54]
00001331  890424            mov [esp],eax
00001334  E81D060000        call 0x1956
00001339  895C2404          mov [esp+0x4],ebx
0000133D  890424            mov [esp],eax
00001340  E829060000        call 0x196e
00001345  8B00              mov eax,[eax]
00001347  29C6              sub esi,eax
00001349  89F0              mov eax,esi
0000134B  89842414010000    mov [esp+0x114],eax
00001352  8B442434          mov eax,[esp+0x34]
00001356  89C3              mov ebx,eax
00001358  8B442438          mov eax,[esp+0x38]
0000135C  89442404          mov [esp+0x4],eax
00001360  8D44246C          lea eax,[esp+0x6c]
00001364  890424            mov [esp],eax
00001367  E8EA050000        call 0x1956
0000136C  895C2404          mov [esp+0x4],ebx
00001370  890424            mov [esp],eax
00001373  E8F6050000        call 0x196e
00001378  8B00              mov eax,[eax]
0000137A  BA32000000        mov edx,0x32
0000137F  29C2              sub edx,eax
00001381  8B842414010000    mov eax,[esp+0x114]
00001388  01D0              add eax,edx
0000138A  898424F4000000    mov [esp+0xf4],eax
00001391  C78424F800000000  mov dword [esp+0xf8],0x0
         -000000
0000139C  8D8424F4000000    lea eax,[esp+0xf4]
000013A3  89442404          mov [esp+0x4],eax
000013A7  8D8424F8000000    lea eax,[esp+0xf8]
000013AE  890424            mov [esp],eax
000013B1  E885050000        call 0x193b
000013B6  8B00              mov eax,[eax]
000013B8  89842410010000    mov [esp+0x110],eax
000013BF  8B842410010000    mov eax,[esp+0x110]
000013C6  29842414010000    sub [esp+0x114],eax
000013CD  C78424240100000A  mov dword [esp+0x124],0xa
         -000000
000013D8  8B9C2418010000    mov ebx,[esp+0x118]
000013DF  8B84241C010000    mov eax,[esp+0x11c]
000013E6  89442404          mov [esp+0x4],eax
000013EA  8D442460          lea eax,[esp+0x60]
000013EE  890424            mov [esp],eax
000013F1  E860050000        call 0x1956
000013F6  895C2404          mov [esp+0x4],ebx
000013FA  890424            mov [esp],eax
000013FD  E86C050000        call 0x196e
00001402  8B00              mov eax,[eax]
00001404  83C014            add eax,byte +0x14
00001407  3B842414010000    cmp eax,[esp+0x114]
0000140E  0F9FC0            setg al
00001411  84C0              test al,al
00001413  740B              jz 0x1420
00001415  C784242401000064  mov dword [esp+0x124],0x64
         -000000
00001420  8B9C2418010000    mov ebx,[esp+0x118]
00001427  8B84241C010000    mov eax,[esp+0x11c]
0000142E  89442404          mov [esp+0x4],eax
00001432  8D442454          lea eax,[esp+0x54]
00001436  890424            mov [esp],eax
00001439  E818050000        call 0x1956
0000143E  895C2404          mov [esp+0x4],ebx
00001442  890424            mov [esp],eax
00001445  E824050000        call 0x196e
0000144A  8B10              mov edx,[eax]
0000144C  8B842410010000    mov eax,[esp+0x110]
00001453  01C2              add edx,eax
00001455  8B842424010000    mov eax,[esp+0x124]
0000145C  8D3402            lea esi,[edx+eax]
0000145F  8B442434          mov eax,[esp+0x34]
00001463  89C3              mov ebx,eax
00001465  8B442438          mov eax,[esp+0x38]
00001469  89442404          mov [esp+0x4],eax
0000146D  8D442454          lea eax,[esp+0x54]
00001471  890424            mov [esp],eax
00001474  E8DD040000        call 0x1956
00001479  895C2404          mov [esp+0x4],ebx
0000147D  890424            mov [esp],eax
00001480  E8E9040000        call 0x196e
00001485  8B00              mov eax,[eax]
00001487  39C6              cmp esi,eax
00001489  0F9CC0            setl al
0000148C  84C0              test al,al
0000148E  0F84E2000000      jz near 0x1576
00001494  8B442434          mov eax,[esp+0x34]
00001498  89C3              mov ebx,eax
0000149A  8B442438          mov eax,[esp+0x38]
0000149E  89442404          mov [esp+0x4],eax
000014A2  8D442454          lea eax,[esp+0x54]
000014A6  890424            mov [esp],eax
000014A9  E8A8040000        call 0x1956
000014AE  895C2404          mov [esp+0x4],ebx
000014B2  890424            mov [esp],eax
000014B5  E8B4040000        call 0x196e
000014BA  89C3              mov ebx,eax
000014BC  8BB42418010000    mov esi,[esp+0x118]
000014C3  8B84241C010000    mov eax,[esp+0x11c]
000014CA  89442404          mov [esp+0x4],eax
000014CE  8D442454          lea eax,[esp+0x54]
000014D2  890424            mov [esp],eax
000014D5  E87C040000        call 0x1956
000014DA  89742404          mov [esp+0x4],esi
000014DE  890424            mov [esp],eax
000014E1  E888040000        call 0x196e
000014E6  8B10              mov edx,[eax]
000014E8  8B842410010000    mov eax,[esp+0x110]
000014EF  01C2              add edx,eax
000014F1  8B842424010000    mov eax,[esp+0x124]
000014F8  01D0              add eax,edx
000014FA  8903              mov [ebx],eax
000014FC  8D442434          lea eax,[esp+0x34]
00001500  89442408          mov [esp+0x8],eax
00001504  8D442438          lea eax,[esp+0x38]
00001508  89442404          mov [esp+0x4],eax
0000150C  8D842408010000    lea eax,[esp+0x108]
00001513  890424            mov [esp],eax
00001516  E8EB070000        call 0x1d06
0000151B  8B442434          mov eax,[esp+0x34]
0000151F  89C3              mov ebx,eax
00001521  8B442438          mov eax,[esp+0x38]
00001525  89442404          mov [esp+0x4],eax
00001529  8D442454          lea eax,[esp+0x54]
0000152D  890424            mov [esp],eax
00001530  E821040000        call 0x1956
00001535  895C2404          mov [esp+0x4],ebx
00001539  890424            mov [esp],eax
0000153C  E82D040000        call 0x196e
00001541  8D942408010000    lea edx,[esp+0x108]
00001548  89542408          mov [esp+0x8],edx
0000154C  89442404          mov [esp+0x4],eax
00001550  8D8424FC000000    lea eax,[esp+0xfc]
00001557  890424            mov [esp],eax
0000155A  E8C1070000        call 0x1d20
0000155F  8D8424FC000000    lea eax,[esp+0xfc]
00001566  89442404          mov [esp+0x4],eax
0000156A  8D442444          lea eax,[esp+0x44]
0000156E  890424            mov [esp],eax
00001571  E8CA070000        call 0x1d40
00001576  FF842428010000    inc dword [esp+0x128]
0000157D  83BC242801000003  cmp dword [esp+0x128],byte +0x3
00001585  0F8E4DFCFFFF      jng near 0x1000011d8
0000158B  8D442444          lea eax,[esp+0x44]
0000158F  890424            mov [esp],eax
00001592  E807080000        call 0x1d9e
00001597  83F001            xor eax,byte +0x1
0000159A  84C0              test al,al
0000159C  0F859AFBFFFF      jnz near 0x10000113c
000015A2  8B442478          mov eax,[esp+0x78]
000015A6  48                dec eax
000015A7  89C3              mov ebx,eax
000015A9  8B44247C          mov eax,[esp+0x7c]
000015AD  48                dec eax
000015AE  89442404          mov [esp+0x4],eax
000015B2  8D442454          lea eax,[esp+0x54]
000015B6  890424            mov [esp],eax
000015B9  E898030000        call 0x1956
000015BE  895C2404          mov [esp+0x4],ebx
000015C2  890424            mov [esp],eax
000015C5  E8A4030000        call 0x196e
000015CA  8B00              mov eax,[eax]
000015CC  8944242C          mov [esp+0x2c],eax
000015D0  DB44242C          fild dword [esp+0x2c]
000015D4  DD0548BE0408      fld qword [0x804be48]
000015DA  DEF9              fdivp st1,st0
000015DC  DD5C2420          fstp qword [esp+0x20]
000015E0  C744240400BE0408  mov dword [esp+0x4],0x804be00
000015E8  C7042460F20408    mov dword [esp],0x804f260
000015EF  E8BCF2FFFF        call 0x1000008b0
000015F4  8B94243C010000    mov edx,[esp+0x13c]
000015FB  89542404          mov [esp+0x4],edx
000015FF  890424            mov [esp],eax
00001602  E829F2FFFF        call 0x100000830
00001607  C744240407BE0408  mov dword [esp+0x4],0x804be07
0000160F  890424            mov [esp],eax
00001612  E899F2FFFF        call 0x1000008b0
00001617  DD442420          fld qword [esp+0x20]
0000161B  DD5C2404          fstp qword [esp+0x4]
0000161F  890424            mov [esp],eax
00001622  E8F9F1FFFF        call 0x100000820
00001627  C744240420890408  mov dword [esp+0x4],0x8048920
0000162F  890424            mov [esp],eax
00001632  E8B9F2FFFF        call 0x1000008f0
00001637  8D442444          lea eax,[esp+0x44]
0000163B  890424            mov [esp],eax
0000163E  E8E5020000        call 0x1928
00001643  8D442454          lea eax,[esp+0x54]
00001647  890424            mov [esp],eax
0000164A  E825050000        call 0x1b74
0000164F  8D442460          lea eax,[esp+0x60]
00001653  890424            mov [esp],eax
00001656  E819050000        call 0x1b74
0000165B  8D44246C          lea eax,[esp+0x6c]
0000165F  890424            mov [esp],eax
00001662  E80D050000        call 0x1b74
00001667  FF84243C010000    inc dword [esp+0x13c]
0000166E  8B842484000000    mov eax,[esp+0x84]
00001675  8D50FF            lea edx,[eax-0x1]
00001678  89942484000000    mov [esp+0x84],edx
0000167F  85C0              test eax,eax
00001681  0F95C0            setnz al
00001684  84C0              test al,al
00001686  0F8529F6FFFF      jnz near 0x100000cb5
0000168C  B800000000        mov eax,0x0
00001691  E956010000        jmp 0x17ec
00001696  89C3              mov ebx,eax
00001698  8D84248C000000    lea eax,[esp+0x8c]
0000169F  890424            mov [esp],eax
000016A2  E8F5030000        call 0x1a9c
000016A7  89D8              mov eax,ebx
000016A9  EB12              jmp short 0x16bd
000016AB  89C3              mov ebx,eax
000016AD  8D44246C          lea eax,[esp+0x6c]
000016B1  890424            mov [esp],eax
000016B4  E8BB040000        call 0x1b74
000016B9  89D8              mov eax,ebx
000016BB  EB00              jmp short 0x16bd
000016BD  89C3              mov ebx,eax
000016BF  8D84249B000000    lea eax,[esp+0x9b]
000016C6  890424            mov [esp],eax
000016C9  E862030000        call 0x1a30
000016CE  8D84248B000000    lea eax,[esp+0x8b]
000016D5  890424            mov [esp],eax
000016D8  E82B040000        call 0x1b08
000016DD  89D8              mov eax,ebx
000016DF  E900010000        jmp 0x17e4
000016E4  89C3              mov ebx,eax
000016E6  8D8424A4000000    lea eax,[esp+0xa4]
000016ED  890424            mov [esp],eax
000016F0  E8A7030000        call 0x1a9c
000016F5  89D8              mov eax,ebx
000016F7  EB12              jmp short 0x170b
000016F9  89C3              mov ebx,eax
000016FB  8D442460          lea eax,[esp+0x60]
000016FF  890424            mov [esp],eax
00001702  E86D040000        call 0x1b74
00001707  89D8              mov eax,ebx
00001709  EB00              jmp short 0x170b
0000170B  89C3              mov ebx,eax
0000170D  8D8424B3000000    lea eax,[esp+0xb3]
00001714  890424            mov [esp],eax
00001717  E814030000        call 0x1a30
0000171C  8D8424A3000000    lea eax,[esp+0xa3]
00001723  890424            mov [esp],eax
00001726  E8DD030000        call 0x1b08
0000172B  E9A2000000        jmp 0x17d2
00001730  89C3              mov ebx,eax
00001732  8D8424BC000000    lea eax,[esp+0xbc]
00001739  890424            mov [esp],eax
0000173C  E85B030000        call 0x1a9c
00001741  EB12              jmp short 0x1755
00001743  89C3              mov ebx,eax
00001745  8D442454          lea eax,[esp+0x54]
00001749  890424            mov [esp],eax
0000174C  E823040000        call 0x1b74
00001751  EB02              jmp short 0x1755
00001753  89C3              mov ebx,eax
00001755  8D8424CB000000    lea eax,[esp+0xcb]
0000175C  890424            mov [esp],eax
0000175F  E8CC020000        call 0x1a30
00001764  8D8424BB000000    lea eax,[esp+0xbb]
0000176B  890424            mov [esp],eax
0000176E  E895030000        call 0x1b08
00001773  EB4D              jmp short 0x17c2
00001775  89C3              mov ebx,eax
00001777  8D8424CC000000    lea eax,[esp+0xcc]
0000177E  890424            mov [esp],eax
00001781  E8B0040000        call 0x1c36
00001786  EB2A              jmp short 0x17b2
00001788  89C3              mov ebx,eax
0000178A  8D442444          lea eax,[esp+0x44]
0000178E  890424            mov [esp],eax
00001791  E892010000        call 0x1928
00001796  EB1A              jmp short 0x17b2
00001798  89C3              mov ebx,eax
0000179A  EB06              jmp short 0x17a2
0000179C  89C3              mov ebx,eax
0000179E  EB02              jmp short 0x17a2
000017A0  89C3              mov ebx,eax
000017A2  8D442444          lea eax,[esp+0x44]
000017A6  890424            mov [esp],eax
000017A9  E87A010000        call 0x1928
000017AE  EB02              jmp short 0x17b2
000017B0  89C3              mov ebx,eax
000017B2  8D442454          lea eax,[esp+0x54]
000017B6  890424            mov [esp],eax
000017B9  E8B6030000        call 0x1b74
000017BE  EB02              jmp short 0x17c2
000017C0  89C3              mov ebx,eax
000017C2  8D442460          lea eax,[esp+0x60]
000017C6  890424            mov [esp],eax
000017C9  E8A6030000        call 0x1b74
000017CE  EB02              jmp short 0x17d2
000017D0  89C3              mov ebx,eax
000017D2  8D44246C          lea eax,[esp+0x6c]
000017D6  890424            mov [esp],eax
000017D9  E896030000        call 0x1b74
000017DE  89D8              mov eax,ebx
000017E0  EB02              jmp short 0x17e4
000017E2  EB00              jmp short 0x17e4
000017E4  890424            mov [esp],eax
000017E7  E864F1FFFF        call 0x100000950
000017EC  8D65F4            lea esp,[ebp-0xc]
000017EF  5B                pop ebx
000017F0  5E                pop esi
000017F1  5F                pop edi
000017F2  5D                pop ebp
000017F3  C3                ret
000017F4  55                push ebp
000017F5  89E5              mov ebp,esp
000017F7  83EC18            sub esp,byte +0x18
000017FA  837D0801          cmp dword [ebp+0x8],byte +0x1
000017FE  7531              jnz 0x1831
00001800  817D0CFFFF0000    cmp dword [ebp+0xc],0xffff
00001807  7528              jnz 0x1831
00001809  C70424F4F20408    mov dword [esp],0x804f2f4
00001810  E86BF0FFFF        call 0x100000880
00001815  C7442408A0F10408  mov dword [esp+0x8],0x804f1a0
0000181D  C7442404F4F20408  mov dword [esp+0x4],0x804f2f4
00001825  C70424A0880408    mov dword [esp],0x80488a0
0000182C  E80FF0FFFF        call 0x100000840
00001831  C9                leave
00001832  C3                ret
00001833  55                push ebp
00001834  89E5              mov ebp,esp
00001836  83EC18            sub esp,byte +0x18
00001839  C7442404FFFF0000  mov dword [esp+0x4],0xffff
00001841  C7042401000000    mov dword [esp],0x1
00001848  E8A7FFFFFF        call 0x1000017f4
0000184D  C9                leave
0000184E  C3                ret
0000184F  55                push ebp
00001850  89E5              mov ebp,esp
00001852  8B450C            mov eax,[ebp+0xc]
00001855  5D                pop ebp
00001856  C3                ret
00001857  55                push ebp
00001858  89E5              mov ebp,esp
0000185A  5D                pop ebp
0000185B  C3                ret
0000185C  55                push ebp
0000185D  89E5              mov ebp,esp
0000185F  8B5508            mov edx,[ebp+0x8]
00001862  8B450C            mov eax,[ebp+0xc]
00001865  09D0              or eax,edx
00001867  5D                pop ebp
00001868  C3                ret
00001869  55                push ebp
0000186A  89E5              mov ebp,esp
0000186C  83EC18            sub esp,byte +0x18
0000186F  8B4508            mov eax,[ebp+0x8]
00001872  8B00              mov eax,[eax]
00001874  8B550C            mov edx,[ebp+0xc]
00001877  89542404          mov [esp+0x4],edx
0000187B  890424            mov [esp],eax
0000187E  E8D9FFFFFF        call 0x10000185c
00001883  8B5508            mov edx,[ebp+0x8]
00001886  8902              mov [edx],eax
00001888  8B4508            mov eax,[ebp+0x8]
0000188B  C9                leave
0000188C  C3                ret
0000188D  90                nop
0000188E  55                push ebp
0000188F  89E5              mov ebp,esp
00001891  83EC28            sub esp,byte +0x28
00001894  8B4508            mov eax,[ebp+0x8]
00001897  8B400C            mov eax,[eax+0xc]
0000189A  8945F4            mov [ebp-0xc],eax
0000189D  8B4508            mov eax,[ebp+0x8]
000018A0  8D500C            lea edx,[eax+0xc]
000018A3  8B450C            mov eax,[ebp+0xc]
000018A6  89442404          mov [esp+0x4],eax
000018AA  891424            mov [esp],edx
000018AD  E8B7FFFFFF        call 0x100001869
000018B2  8B45F4            mov eax,[ebp-0xc]
000018B5  C9                leave
000018B6  C3                ret
000018B7  90                nop
000018B8  55                push ebp
000018B9  89E5              mov ebp,esp
000018BB  83EC10            sub esp,byte +0x10
000018BE  8B4508            mov eax,[ebp+0x8]
000018C1  8B4004            mov eax,[eax+0x4]
000018C4  8945FC            mov [ebp-0x4],eax
000018C7  8B4508            mov eax,[ebp+0x8]
000018CA  8B550C            mov edx,[ebp+0xc]
000018CD  895004            mov [eax+0x4],edx
000018D0  8B45FC            mov eax,[ebp-0x4]
000018D3  C9                leave
000018D4  C3                ret
000018D5  55                push ebp
000018D6  89E5              mov ebp,esp
000018D8  83EC18            sub esp,byte +0x18
000018DB  8D4510            lea eax,[ebp+0x10]
000018DE  89442404          mov [esp+0x4],eax
000018E2  8D450C            lea eax,[ebp+0xc]
000018E5  890424            mov [esp],eax
000018E8  E84E000000        call 0x193b
000018ED  89442404          mov [esp+0x4],eax
000018F1  8D4508            lea eax,[ebp+0x8]
000018F4  890424            mov [esp],eax
000018F7  E83F000000        call 0x193b
000018FC  8B00              mov eax,[eax]
000018FE  C9                leave
000018FF  C3                ret
00001900  55                push ebp
00001901  89E5              mov ebp,esp
00001903  837D0800          cmp dword [ebp+0x8],byte +0x0
00001907  781A              js 0x1923
00001909  837D0C00          cmp dword [ebp+0xc],byte +0x0
0000190D  7814              js 0x1923
0000190F  8B4508            mov eax,[ebp+0x8]
00001912  3B4510            cmp eax,[ebp+0x10]
00001915  7D0C              jnl 0x1923
00001917  8B450C            mov eax,[ebp+0xc]
0000191A  3B4514            cmp eax,[ebp+0x14]
0000191D  7D04              jnl 0x1923
0000191F  B001              mov al,0x1
00001921  EB02              jmp short 0x1925
00001923  B000              mov al,0x0
00001925  5D                pop ebp
00001926  C3                ret
00001927  90                nop
00001928  55                push ebp
00001929  89E5              mov ebp,esp
0000192B  83EC18            sub esp,byte +0x18
0000192E  8B4508            mov eax,[ebp+0x8]
00001931  890424            mov [esp],eax
00001934  E8FD020000        call 0x1c36
00001939  C9                leave
0000193A  C3                ret
0000193B  55                push ebp
0000193C  89E5              mov ebp,esp
0000193E  8B4508            mov eax,[ebp+0x8]
00001941  8B10              mov edx,[eax]
00001943  8B450C            mov eax,[ebp+0xc]
00001946  8B00              mov eax,[eax]
00001948  39C2              cmp edx,eax
0000194A  7D05              jnl 0x1951
0000194C  8B450C            mov eax,[ebp+0xc]
0000194F  EB03              jmp short 0x1954
00001951  8B4508            mov eax,[ebp+0x8]
00001954  5D                pop ebp
00001955  C3                ret
00001956  55                push ebp
00001957  89E5              mov ebp,esp
00001959  8B4508            mov eax,[ebp+0x8]
0000195C  8B08              mov ecx,[eax]
0000195E  8B550C            mov edx,[ebp+0xc]
00001961  89D0              mov eax,edx
00001963  01C0              add eax,eax
00001965  01D0              add eax,edx
00001967  C1E002            shl eax,0x2
0000196A  01C8              add eax,ecx
0000196C  5D                pop ebp
0000196D  C3                ret
0000196E  55                push ebp
0000196F  89E5              mov ebp,esp
00001971  8B4508            mov eax,[ebp+0x8]
00001974  8B00              mov eax,[eax]
00001976  8B550C            mov edx,[ebp+0xc]
00001979  C1E202            shl edx,0x2
0000197C  01D0              add eax,edx
0000197E  5D                pop ebp
0000197F  C3                ret
00001980  55                push ebp
00001981  89E5              mov ebp,esp
00001983  8B4508            mov eax,[ebp+0x8]
00001986  8B4004            mov eax,[eax+0x4]
00001989  89C2              mov edx,eax
0000198B  8B4508            mov eax,[ebp+0x8]
0000198E  8B00              mov eax,[eax]
00001990  29C2              sub edx,eax
00001992  89D0              mov eax,edx
00001994  C1F802            sar eax,0x2
00001997  89C2              mov edx,eax
00001999  89D0              mov eax,edx
0000199B  C1E002            shl eax,0x2
0000199E  01D0              add eax,edx
000019A0  89C1              mov ecx,eax
000019A2  C1E104            shl ecx,0x4
000019A5  01C8              add eax,ecx
000019A7  89C1              mov ecx,eax
000019A9  C1E108            shl ecx,0x8
000019AC  01C8              add eax,ecx
000019AE  89C1              mov ecx,eax
000019B0  C1E110            shl ecx,0x10
000019B3  01C8              add eax,ecx
000019B5  01C0              add eax,eax
000019B7  01D0              add eax,edx
000019B9  5D                pop ebp
000019BA  C3                ret
000019BB  90                nop
000019BC  55                push ebp
000019BD  89E5              mov ebp,esp
000019BF  8B4508            mov eax,[ebp+0x8]
000019C2  8B4004            mov eax,[eax+0x4]
000019C5  89C2              mov edx,eax
000019C7  8B4508            mov eax,[ebp+0x8]
000019CA  8B00              mov eax,[eax]
000019CC  29C2              sub edx,eax
000019CE  89D0              mov eax,edx
000019D0  C1F802            sar eax,0x2
000019D3  5D                pop ebp
000019D4  C3                ret
000019D5  90                nop
000019D6  55                push ebp
000019D7  89E5              mov ebp,esp
000019D9  8B4508            mov eax,[ebp+0x8]
000019DC  8B08              mov ecx,[eax]
000019DE  8B550C            mov edx,[ebp+0xc]
000019E1  89D0              mov eax,edx
000019E3  01C0              add eax,eax
000019E5  01D0              add eax,edx
000019E7  C1E002            shl eax,0x2
000019EA  01C8              add eax,ecx
000019EC  5D                pop ebp
000019ED  C3                ret
000019EE  55                push ebp
000019EF  89E5              mov ebp,esp
000019F1  8B4508            mov eax,[ebp+0x8]
000019F4  8B00              mov eax,[eax]
000019F6  8B550C            mov edx,[ebp+0xc]
000019F9  C1E202            shl edx,0x2
000019FC  01D0              add eax,edx
000019FE  5D                pop ebp
000019FF  C3                ret
00001A00  55                push ebp
00001A01  89E5              mov ebp,esp
00001A03  8B450C            mov eax,[ebp+0xc]
00001A06  8B10              mov edx,[eax]
00001A08  8B4508            mov eax,[ebp+0x8]
00001A0B  8B00              mov eax,[eax]
00001A0D  39C2              cmp edx,eax
00001A0F  7D05              jnl 0x1a16
00001A11  8B450C            mov eax,[ebp+0xc]
00001A14  EB03              jmp short 0x1a19
00001A16  8B4508            mov eax,[ebp+0x8]
00001A19  5D                pop ebp
00001A1A  C3                ret
00001A1B  90                nop
00001A1C  55                push ebp
00001A1D  89E5              mov ebp,esp
00001A1F  83EC18            sub esp,byte +0x18
00001A22  8B4508            mov eax,[ebp+0x8]
00001A25  890424            mov [esp],eax
00001A28  E8F1030000        call 0x1e1e
00001A2D  C9                leave
00001A2E  C3                ret
00001A2F  90                nop
00001A30  55                push ebp
00001A31  89E5              mov ebp,esp
00001A33  83EC18            sub esp,byte +0x18
00001A36  8B4508            mov eax,[ebp+0x8]
00001A39  890424            mov [esp],eax
00001A3C  E8E3030000        call 0x1e24
00001A41  C9                leave
00001A42  C3                ret
00001A43  90                nop
00001A44  55                push ebp
00001A45  89E5              mov ebp,esp
00001A47  53                push ebx
00001A48  83EC14            sub esp,byte +0x14
00001A4B  8B4508            mov eax,[ebp+0x8]
00001A4E  8B5514            mov edx,[ebp+0x14]
00001A51  89542408          mov [esp+0x8],edx
00001A55  8B550C            mov edx,[ebp+0xc]
00001A58  89542404          mov [esp+0x4],edx
00001A5C  890424            mov [esp],eax
00001A5F  E8DA030000        call 0x1e3e
00001A64  8B4510            mov eax,[ebp+0x10]
00001A67  89442408          mov [esp+0x8],eax
00001A6B  8B450C            mov eax,[ebp+0xc]
00001A6E  89442404          mov [esp+0x4],eax
00001A72  8B4508            mov eax,[ebp+0x8]
00001A75  890424            mov [esp],eax
00001A78  E86B040000        call 0x1ee8
00001A7D  EB17              jmp short 0x1a96
00001A7F  89C3              mov ebx,eax
00001A81  8B4508            mov eax,[ebp+0x8]
00001A84  890424            mov [esp],eax
00001A87  E8FC030000        call 0x1e88
00001A8C  89D8              mov eax,ebx
00001A8E  890424            mov [esp],eax
00001A91  E8BAEEFFFF        call 0x100000950
00001A96  83C414            add esp,byte +0x14
00001A99  5B                pop ebx
00001A9A  5D                pop ebp
00001A9B  C3                ret
00001A9C  55                push ebp
00001A9D  89E5              mov ebp,esp
00001A9F  53                push ebx
00001AA0  83EC14            sub esp,byte +0x14
00001AA3  8B4508            mov eax,[ebp+0x8]
00001AA6  890424            mov [esp],eax
00001AA9  E878040000        call 0x1f26
00001AAE  8B5508            mov edx,[ebp+0x8]
00001AB1  8B4A04            mov ecx,[edx+0x4]
00001AB4  8B5508            mov edx,[ebp+0x8]
00001AB7  8B12              mov edx,[edx]
00001AB9  89442408          mov [esp+0x8],eax
00001ABD  894C2404          mov [esp+0x4],ecx
00001AC1  891424            mov [esp],edx
00001AC4  E865040000        call 0x1f2e
00001AC9  8B4508            mov eax,[ebp+0x8]
00001ACC  890424            mov [esp],eax
00001ACF  E8B4030000        call 0x1e88
00001AD4  EB17              jmp short 0x1aed
00001AD6  89C3              mov ebx,eax
00001AD8  8B4508            mov eax,[ebp+0x8]
00001ADB  890424            mov [esp],eax
00001ADE  E8A5030000        call 0x1e88
00001AE3  89D8              mov eax,ebx
00001AE5  890424            mov [esp],eax
00001AE8  E863EEFFFF        call 0x100000950
00001AED  83C414            add esp,byte +0x14
00001AF0  5B                pop ebx
00001AF1  5D                pop ebp
00001AF2  C3                ret
00001AF3  90                nop
00001AF4  55                push ebp
00001AF5  89E5              mov ebp,esp
00001AF7  83EC18            sub esp,byte +0x18
00001AFA  8B4508            mov eax,[ebp+0x8]
00001AFD  890424            mov [esp],eax
00001B00  E843040000        call 0x1f48
00001B05  C9                leave
00001B06  C3                ret
00001B07  90                nop
00001B08  55                push ebp
00001B09  89E5              mov ebp,esp
00001B0B  83EC18            sub esp,byte +0x18
00001B0E  8B4508            mov eax,[ebp+0x8]
00001B11  890424            mov [esp],eax
00001B14  E835040000        call 0x1f4e
00001B19  C9                leave
00001B1A  C3                ret
00001B1B  90                nop
00001B1C  55                push ebp
00001B1D  89E5              mov ebp,esp
00001B1F  53                push ebx
00001B20  83EC14            sub esp,byte +0x14
00001B23  8B4508            mov eax,[ebp+0x8]
00001B26  8B5514            mov edx,[ebp+0x14]
00001B29  89542408          mov [esp+0x8],edx
00001B2D  8B550C            mov edx,[ebp+0xc]
00001B30  89542404          mov [esp+0x4],edx
00001B34  890424            mov [esp],eax
00001B37  E82C040000        call 0x1f68
00001B3C  8B4510            mov eax,[ebp+0x10]
00001B3F  89442408          mov [esp+0x8],eax
00001B43  8B450C            mov eax,[ebp+0xc]
00001B46  89442404          mov [esp+0x4],eax
00001B4A  8B4508            mov eax,[ebp+0x8]
00001B4D  890424            mov [esp],eax
00001B50  E8DF040000        call 0x2034
00001B55  EB17              jmp short 0x1b6e
00001B57  89C3              mov ebx,eax
00001B59  8B4508            mov eax,[ebp+0x8]
00001B5C  890424            mov [esp],eax
00001B5F  E84E040000        call 0x1fb2
00001B64  89D8              mov eax,ebx
00001B66  890424            mov [esp],eax
00001B69  E8E2EDFFFF        call 0x100000950
00001B6E  83C414            add esp,byte +0x14
00001B71  5B                pop ebx
00001B72  5D                pop ebp
00001B73  C3                ret
00001B74  55                push ebp
00001B75  89E5              mov ebp,esp
00001B77  53                push ebx
00001B78  83EC14            sub esp,byte +0x14
00001B7B  8B4508            mov eax,[ebp+0x8]
00001B7E  890424            mov [esp],eax
00001B81  E8EC040000        call 0x2072
00001B86  8B5508            mov edx,[ebp+0x8]
00001B89  8B4A04            mov ecx,[edx+0x4]
00001B8C  8B5508            mov edx,[ebp+0x8]
00001B8F  8B12              mov edx,[edx]
00001B91  89442408          mov [esp+0x8],eax
00001B95  894C2404          mov [esp+0x4],ecx
00001B99  891424            mov [esp],edx
00001B9C  E8D9040000        call 0x207a
00001BA1  8B4508            mov eax,[ebp+0x8]
00001BA4  890424            mov [esp],eax
00001BA7  E806040000        call 0x1fb2
00001BAC  EB17              jmp short 0x1bc5
00001BAE  89C3              mov ebx,eax
00001BB0  8B4508            mov eax,[ebp+0x8]
00001BB3  890424            mov [esp],eax
00001BB6  E8F7030000        call 0x1fb2
00001BBB  89D8              mov eax,ebx
00001BBD  890424            mov [esp],eax
00001BC0  E88BEDFFFF        call 0x100000950
00001BC5  83C414            add esp,byte +0x14
00001BC8  5B                pop ebx
00001BC9  5D                pop ebp
00001BCA  C3                ret
00001BCB  90                nop
00001BCC  55                push ebp
00001BCD  89E5              mov ebp,esp
00001BCF  53                push ebx
00001BD0  83EC24            sub esp,byte +0x24
00001BD3  8B4508            mov eax,[ebp+0x8]
00001BD6  8B5514            mov edx,[ebp+0x14]
00001BD9  89542404          mov [esp+0x4],edx
00001BDD  890424            mov [esp],eax
00001BE0  E8AF040000        call 0x2094
00001BE5  885C240C          mov [esp+0xc],bl
00001BE9  8B4510            mov eax,[ebp+0x10]
00001BEC  89442408          mov [esp+0x8],eax
00001BF0  8B450C            mov eax,[ebp+0xc]
00001BF3  89442404          mov [esp+0x4],eax
00001BF7  8B4508            mov eax,[ebp+0x8]
00001BFA  890424            mov [esp],eax
00001BFD  E8AC040000        call 0x20ae
00001C02  EB17              jmp short 0x1c1b
00001C04  89C3              mov ebx,eax
00001C06  8B4508            mov eax,[ebp+0x8]
00001C09  890424            mov [esp],eax
00001C0C  E877020000        call 0x1e88
00001C11  89D8              mov eax,ebx
00001C13  890424            mov [esp],eax
00001C16  E835EDFFFF        call 0x100000950
00001C1B  83C424            add esp,byte +0x24
00001C1E  5B                pop ebx
00001C1F  5D                pop ebp
00001C20  C3                ret
00001C21  90                nop
00001C22  55                push ebp
00001C23  89E5              mov ebp,esp
00001C25  83EC18            sub esp,byte +0x18
00001C28  8B4508            mov eax,[ebp+0x8]
00001C2B  890424            mov [esp],eax
00001C2E  E8DB040000        call 0x210e
00001C33  C9                leave
00001C34  C3                ret
00001C35  90                nop
00001C36  55                push ebp
00001C37  89E5              mov ebp,esp
00001C39  53                push ebx
00001C3A  83EC14            sub esp,byte +0x14
00001C3D  8B4508            mov eax,[ebp+0x8]
00001C40  890424            mov [esp],eax
00001C43  E85C050000        call 0x21a4
00001C48  8B5508            mov edx,[ebp+0x8]
00001C4B  8B4A04            mov ecx,[edx+0x4]
00001C4E  8B5508            mov edx,[ebp+0x8]
00001C51  8B12              mov edx,[edx]
00001C53  89442408          mov [esp+0x8],eax
00001C57  894C2404          mov [esp+0x4],ecx
00001C5B  891424            mov [esp],edx
00001C5E  E849050000        call 0x21ac
00001C63  8B4508            mov eax,[ebp+0x8]
00001C66  890424            mov [esp],eax
00001C69  E8B4040000        call 0x2122
00001C6E  EB17              jmp short 0x1c87
00001C70  89C3              mov ebx,eax
00001C72  8B4508            mov eax,[ebp+0x8]
00001C75  890424            mov [esp],eax
00001C78  E8A5040000        call 0x2122
00001C7D  89D8              mov eax,ebx
00001C7F  890424            mov [esp],eax
00001C82  E8C9ECFFFF        call 0x100000950
00001C87  83C414            add esp,byte +0x14
00001C8A  5B                pop ebx
00001C8B  5D                pop ebp
00001C8C  C3                ret
00001C8D  90                nop
00001C8E  55                push ebp
00001C8F  89E5              mov ebp,esp
00001C91  53                push ebx
00001C92  83EC24            sub esp,byte +0x24
00001C95  8B4508            mov eax,[ebp+0x8]
00001C98  8B5510            mov edx,[ebp+0x10]
00001C9B  89542404          mov [esp+0x4],edx
00001C9F  890424            mov [esp],eax
00001CA2  E81F050000        call 0x21c6
00001CA7  8B5508            mov edx,[ebp+0x8]
00001CAA  8D45F0            lea eax,[ebp-0x10]
00001CAD  89542404          mov [esp+0x4],edx
00001CB1  890424            mov [esp],eax
00001CB4  E8E5050000        call 0x229e
00001CB9  83EC04            sub esp,byte +0x4
00001CBC  8B5508            mov edx,[ebp+0x8]
00001CBF  8D45F4            lea eax,[ebp-0xc]
00001CC2  89542404          mov [esp+0x4],edx
00001CC6  890424            mov [esp],eax
00001CC9  E8B0050000        call 0x227e
00001CCE  83EC04            sub esp,byte +0x4
00001CD1  885C2408          mov [esp+0x8],bl
00001CD5  8B45F0            mov eax,[ebp-0x10]
00001CD8  89442404          mov [esp+0x4],eax
00001CDC  8B45F4            mov eax,[ebp-0xc]
00001CDF  890424            mov [esp],eax
00001CE2  E8D9050000        call 0x22c0
00001CE7  EB17              jmp short 0x1d00
00001CE9  89C3              mov ebx,eax
00001CEB  8B4508            mov eax,[ebp+0x8]
00001CEE  890424            mov [esp],eax
00001CF1  E840FFFFFF        call 0x100001c36
00001CF6  89D8              mov eax,ebx
00001CF8  890424            mov [esp],eax
00001CFB  E850ECFFFF        call 0x100000950
00001D00  8B5DFC            mov ebx,[ebp-0x4]
00001D03  C9                leave
00001D04  C3                ret
00001D05  90                nop
00001D06  55                push ebp
00001D07  89E5              mov ebp,esp
00001D09  8B450C            mov eax,[ebp+0xc]
00001D0C  8B10              mov edx,[eax]
00001D0E  8B4508            mov eax,[ebp+0x8]
00001D11  8910              mov [eax],edx
00001D13  8B4510            mov eax,[ebp+0x10]
00001D16  8B10              mov edx,[eax]
00001D18  8B4508            mov eax,[ebp+0x8]
00001D1B  895004            mov [eax+0x4],edx
00001D1E  5D                pop ebp
00001D1F  C3                ret
00001D20  55                push ebp
00001D21  89E5              mov ebp,esp
00001D23  8B450C            mov eax,[ebp+0xc]
00001D26  8B10              mov edx,[eax]
00001D28  8B4508            mov eax,[ebp+0x8]
00001D2B  8910              mov [eax],edx
00001D2D  8B4D08            mov ecx,[ebp+0x8]
00001D30  8B4510            mov eax,[ebp+0x10]
00001D33  8B5004            mov edx,[eax+0x4]
00001D36  8B00              mov eax,[eax]
00001D38  894104            mov [ecx+0x4],eax
00001D3B  895108            mov [ecx+0x8],edx
00001D3E  5D                pop ebp
00001D3F  C3                ret
00001D40  55                push ebp
00001D41  89E5              mov ebp,esp
00001D43  53                push ebx
00001D44  83EC24            sub esp,byte +0x24
00001D47  8B4508            mov eax,[ebp+0x8]
00001D4A  8B550C            mov edx,[ebp+0xc]
00001D4D  89542404          mov [esp+0x4],edx
00001D51  890424            mov [esp],eax
00001D54  E83F060000        call 0x2398
00001D59  8B5508            mov edx,[ebp+0x8]
00001D5C  8D45F0            lea eax,[ebp-0x10]
00001D5F  89542404          mov [esp+0x4],edx
00001D63  890424            mov [esp],eax
00001D66  E833050000        call 0x229e
00001D6B  83EC04            sub esp,byte +0x4
00001D6E  8B5508            mov edx,[ebp+0x8]
00001D71  8D45F4            lea eax,[ebp-0xc]
00001D74  89542404          mov [esp+0x4],edx
00001D78  890424            mov [esp],eax
00001D7B  E8FE040000        call 0x227e
00001D80  83EC04            sub esp,byte +0x4
00001D83  885C2408          mov [esp+0x8],bl
00001D87  8B45F0            mov eax,[ebp-0x10]
00001D8A  89442404          mov [esp+0x4],eax
00001D8E  8B45F4            mov eax,[ebp-0xc]
00001D91  890424            mov [esp],eax
00001D94  E872060000        call 0x240b
00001D99  8B5DFC            mov ebx,[ebp-0x4]
00001D9C  C9                leave
00001D9D  C3                ret
00001D9E  55                push ebp
00001D9F  89E5              mov ebp,esp
00001DA1  83EC18            sub esp,byte +0x18
00001DA4  8B4508            mov eax,[ebp+0x8]
00001DA7  890424            mov [esp],eax
00001DAA  E8F7060000        call 0x24a6
00001DAF  C9                leave
00001DB0  C3                ret
00001DB1  90                nop
00001DB2  55                push ebp
00001DB3  89E5              mov ebp,esp
00001DB5  83EC18            sub esp,byte +0x18
00001DB8  8B4508            mov eax,[ebp+0x8]
00001DBB  890424            mov [esp],eax
00001DBE  E833070000        call 0x24f6
00001DC3  C9                leave
00001DC4  C3                ret
00001DC5  90                nop
00001DC6  55                push ebp
00001DC7  89E5              mov ebp,esp
00001DC9  53                push ebx
00001DCA  83EC24            sub esp,byte +0x24
00001DCD  8B5508            mov edx,[ebp+0x8]
00001DD0  8D45F0            lea eax,[ebp-0x10]
00001DD3  89542404          mov [esp+0x4],edx
00001DD7  890424            mov [esp],eax
00001DDA  E8BF040000        call 0x229e
00001DDF  83EC04            sub esp,byte +0x4
00001DE2  8B5508            mov edx,[ebp+0x8]
00001DE5  8D45F4            lea eax,[ebp-0xc]
00001DE8  89542404          mov [esp+0x4],edx
00001DEC  890424            mov [esp],eax
00001DEF  E88A040000        call 0x227e
00001DF4  83EC04            sub esp,byte +0x4
00001DF7  885C2408          mov [esp+0x8],bl
00001DFB  8B45F0            mov eax,[ebp-0x10]
00001DFE  89442404          mov [esp+0x4],eax
00001E02  8B45F4            mov eax,[ebp-0xc]
00001E05  890424            mov [esp],eax
00001E08  E811070000        call 0x251e
00001E0D  8B4508            mov eax,[ebp+0x8]
00001E10  890424            mov [esp],eax
00001E13  E858070000        call 0x2570
00001E18  8B5DFC            mov ebx,[ebp-0x4]
00001E1B  C9                leave
00001E1C  C3                ret
00001E1D  90                nop
00001E1E  55                push ebp
00001E1F  89E5              mov ebp,esp
00001E21  5D                pop ebp
00001E22  C3                ret
00001E23  90                nop
00001E24  55                push ebp
00001E25  89E5              mov ebp,esp
00001E27  5D                pop ebp
00001E28  C3                ret
00001E29  90                nop
00001E2A  55                push ebp
00001E2B  89E5              mov ebp,esp
00001E2D  83EC18            sub esp,byte +0x18
00001E30  8B4508            mov eax,[ebp+0x8]
00001E33  890424            mov [esp],eax
00001E36  E8F5FBFFFF        call 0x100001a30
00001E3B  C9                leave
00001E3C  C3                ret
00001E3D  90                nop
00001E3E  55                push ebp
00001E3F  89E5              mov ebp,esp
00001E41  53                push ebx
00001E42  83EC14            sub esp,byte +0x14
00001E45  8B4508            mov eax,[ebp+0x8]
00001E48  8B5510            mov edx,[ebp+0x10]
00001E4B  89542404          mov [esp+0x4],edx
00001E4F  890424            mov [esp],eax
00001E52  E845070000        call 0x259c
00001E57  8B450C            mov eax,[ebp+0xc]
00001E5A  89442404          mov [esp+0x4],eax
00001E5E  8B4508            mov eax,[ebp+0x8]
00001E61  890424            mov [esp],eax
00001E64  E86B070000        call 0x25d4
00001E69  EB17              jmp short 0x1e82
00001E6B  89C3              mov ebx,eax
00001E6D  8B4508            mov eax,[ebp+0x8]
00001E70  890424            mov [esp],eax
00001E73  E8B2FFFFFF        call 0x100001e2a
00001E78  89D8              mov eax,ebx
00001E7A  890424            mov [esp],eax
00001E7D  E8CEEAFFFF        call 0x100000950
00001E82  83C414            add esp,byte +0x14
00001E85  5B                pop ebx
00001E86  5D                pop ebp
00001E87  C3                ret
00001E88  55                push ebp
00001E89  89E5              mov ebp,esp
00001E8B  53                push ebx
00001E8C  83EC14            sub esp,byte +0x14
00001E8F  8B4508            mov eax,[ebp+0x8]
00001E92  8B4008            mov eax,[eax+0x8]
00001E95  89C2              mov edx,eax
00001E97  8B4508            mov eax,[ebp+0x8]
00001E9A  8B00              mov eax,[eax]
00001E9C  29C2              sub edx,eax
00001E9E  89D0              mov eax,edx
00001EA0  C1F802            sar eax,0x2
00001EA3  89C2              mov edx,eax
00001EA5  8B4508            mov eax,[ebp+0x8]
00001EA8  8B00              mov eax,[eax]
00001EAA  89542408          mov [esp+0x8],edx
00001EAE  89442404          mov [esp+0x4],eax
00001EB2  8B4508            mov eax,[ebp+0x8]
00001EB5  890424            mov [esp],eax
00001EB8  E855070000        call 0x2612
00001EBD  8B4508            mov eax,[ebp+0x8]
00001EC0  890424            mov [esp],eax
00001EC3  E862FFFFFF        call 0x100001e2a
00001EC8  EB17              jmp short 0x1ee1
00001ECA  89C3              mov ebx,eax
00001ECC  8B4508            mov eax,[ebp+0x8]
00001ECF  890424            mov [esp],eax
00001ED2  E853FFFFFF        call 0x100001e2a
00001ED7  89D8              mov eax,ebx
00001ED9  890424            mov [esp],eax
00001EDC  E86FEAFFFF        call 0x100000950
00001EE1  83C414            add esp,byte +0x14
00001EE4  5B                pop ebx
00001EE5  5D                pop ebp
00001EE6  C3                ret
00001EE7  90                nop
00001EE8  55                push ebp
00001EE9  89E5              mov ebp,esp
00001EEB  83EC18            sub esp,byte +0x18
00001EEE  8B4508            mov eax,[ebp+0x8]
00001EF1  890424            mov [esp],eax
00001EF4  E82D000000        call 0x1f26
00001EF9  8B5508            mov edx,[ebp+0x8]
00001EFC  8B12              mov edx,[edx]
00001EFE  8944240C          mov [esp+0xc],eax
00001F02  8B4510            mov eax,[ebp+0x10]
00001F05  89442408          mov [esp+0x8],eax
00001F09  8B450C            mov eax,[ebp+0xc]
00001F0C  89442404          mov [esp+0x4],eax
00001F10  891424            mov [esp],edx
00001F13  E821070000        call 0x2639
00001F18  8B4508            mov eax,[ebp+0x8]
00001F1B  8B5008            mov edx,[eax+0x8]
00001F1E  8B4508            mov eax,[ebp+0x8]
00001F21  895004            mov [eax+0x4],edx
00001F24  C9                leave
00001F25  C3                ret
00001F26  55                push ebp
00001F27  89E5              mov ebp,esp
00001F29  8B4508            mov eax,[ebp+0x8]
00001F2C  5D                pop ebp
00001F2D  C3                ret
00001F2E  55                push ebp
00001F2F  89E5              mov ebp,esp
00001F31  83EC18            sub esp,byte +0x18
00001F34  8B450C            mov eax,[ebp+0xc]
00001F37  89442404          mov [esp+0x4],eax
00001F3B  8B4508            mov eax,[ebp+0x8]
00001F3E  890424            mov [esp],eax
00001F41  E814070000        call 0x265a
00001F46  C9                leave
00001F47  C3                ret
00001F48  55                push ebp
00001F49  89E5              mov ebp,esp
00001F4B  5D                pop ebp
00001F4C  C3                ret
00001F4D  90                nop
00001F4E  55                push ebp
00001F4F  89E5              mov ebp,esp
00001F51  5D                pop ebp
00001F52  C3                ret
00001F53  90                nop
00001F54  55                push ebp
00001F55  89E5              mov ebp,esp
00001F57  83EC18            sub esp,byte +0x18
00001F5A  8B4508            mov eax,[ebp+0x8]
00001F5D  890424            mov [esp],eax
00001F60  E8A3FBFFFF        call 0x100001b08
00001F65  C9                leave
00001F66  C3                ret
00001F67  90                nop
00001F68  55                push ebp
00001F69  89E5              mov ebp,esp
00001F6B  53                push ebx
00001F6C  83EC14            sub esp,byte +0x14
00001F6F  8B4508            mov eax,[ebp+0x8]
00001F72  8B5510            mov edx,[ebp+0x10]
00001F75  89542404          mov [esp+0x4],edx
00001F79  890424            mov [esp],eax
00001F7C  E8F3060000        call 0x2674
00001F81  8B450C            mov eax,[ebp+0xc]
00001F84  89442404          mov [esp+0x4],eax
00001F88  8B4508            mov eax,[ebp+0x8]
00001F8B  890424            mov [esp],eax
00001F8E  E819070000        call 0x26ac
00001F93  EB17              jmp short 0x1fac
00001F95  89C3              mov ebx,eax
00001F97  8B4508            mov eax,[ebp+0x8]
00001F9A  890424            mov [esp],eax
00001F9D  E8B2FFFFFF        call 0x100001f54
00001FA2  89D8              mov eax,ebx
00001FA4  890424            mov [esp],eax
00001FA7  E8A4E9FFFF        call 0x100000950
00001FAC  83C414            add esp,byte +0x14
00001FAF  5B                pop ebx
00001FB0  5D                pop ebp
00001FB1  C3                ret
00001FB2  55                push ebp
00001FB3  89E5              mov ebp,esp
00001FB5  53                push ebx
00001FB6  83EC14            sub esp,byte +0x14
00001FB9  8B4508            mov eax,[ebp+0x8]
00001FBC  8B4008            mov eax,[eax+0x8]
00001FBF  89C2              mov edx,eax
00001FC1  8B4508            mov eax,[ebp+0x8]
00001FC4  8B00              mov eax,[eax]
00001FC6  29C2              sub edx,eax
00001FC8  89D0              mov eax,edx
00001FCA  C1F802            sar eax,0x2
00001FCD  89C2              mov edx,eax
00001FCF  89D0              mov eax,edx
00001FD1  C1E002            shl eax,0x2
00001FD4  01D0              add eax,edx
00001FD6  89C1              mov ecx,eax
00001FD8  C1E104            shl ecx,0x4
00001FDB  01C8              add eax,ecx
00001FDD  89C1              mov ecx,eax
00001FDF  C1E108            shl ecx,0x8
00001FE2  01C8              add eax,ecx
00001FE4  89C1              mov ecx,eax
00001FE6  C1E110            shl ecx,0x10
00001FE9  01C8              add eax,ecx
00001FEB  01C0              add eax,eax
00001FED  01D0              add eax,edx
00001FEF  89C2              mov edx,eax
00001FF1  8B4508            mov eax,[ebp+0x8]
00001FF4  8B00              mov eax,[eax]
00001FF6  89542408          mov [esp+0x8],edx
00001FFA  89442404          mov [esp+0x4],eax
00001FFE  8B4508            mov eax,[ebp+0x8]
00002001  890424            mov [esp],eax
00002004  E8E7060000        call 0x26f0
00002009  8B4508            mov eax,[ebp+0x8]
0000200C  890424            mov [esp],eax
0000200F  E840FFFFFF        call 0x100001f54
00002014  EB17              jmp short 0x202d
00002016  89C3              mov ebx,eax
00002018  8B4508            mov eax,[ebp+0x8]
0000201B  890424            mov [esp],eax
0000201E  E831FFFFFF        call 0x100001f54
00002023  89D8              mov eax,ebx
00002025  890424            mov [esp],eax
00002028  E823E9FFFF        call 0x100000950
0000202D  83C414            add esp,byte +0x14
00002030  5B                pop ebx
00002031  5D                pop ebp
00002032  C3                ret
00002033  90                nop
00002034  55                push ebp
00002035  89E5              mov ebp,esp
00002037  83EC18            sub esp,byte +0x18
0000203A  8B4508            mov eax,[ebp+0x8]
0000203D  890424            mov [esp],eax
00002040  E82D000000        call 0x2072
00002045  8B5508            mov edx,[ebp+0x8]
00002048  8B12              mov edx,[edx]
0000204A  8944240C          mov [esp+0xc],eax
0000204E  8B4510            mov eax,[ebp+0x10]
00002051  89442408          mov [esp+0x8],eax
00002055  8B450C            mov eax,[ebp+0xc]
00002058  89442404          mov [esp+0x4],eax
0000205C  891424            mov [esp],edx
0000205F  E8B3060000        call 0x2717
00002064  8B4508            mov eax,[ebp+0x8]
00002067  8B5008            mov edx,[eax+0x8]
0000206A  8B4508            mov eax,[ebp+0x8]
0000206D  895004            mov [eax+0x4],edx
00002070  C9                leave
00002071  C3                ret
00002072  55                push ebp
00002073  89E5              mov ebp,esp
00002075  8B4508            mov eax,[ebp+0x8]
00002078  5D                pop ebp
00002079  C3                ret
0000207A  55                push ebp
0000207B  89E5              mov ebp,esp
0000207D  83EC18            sub esp,byte +0x18
00002080  8B450C            mov eax,[ebp+0xc]
00002083  89442404          mov [esp+0x4],eax
00002087  8B4508            mov eax,[ebp+0x8]
0000208A  890424            mov [esp],eax
0000208D  E8A6060000        call 0x2738
00002092  C9                leave
00002093  C3                ret
00002094  55                push ebp
00002095  89E5              mov ebp,esp
00002097  83EC18            sub esp,byte +0x18
0000209A  8B4508            mov eax,[ebp+0x8]
0000209D  8B550C            mov edx,[ebp+0xc]
000020A0  89542404          mov [esp+0x4],edx
000020A4  890424            mov [esp],eax
000020A7  E8F0040000        call 0x259c
000020AC  C9                leave
000020AD  C3                ret
000020AE  55                push ebp
000020AF  89E5              mov ebp,esp
000020B1  83EC18            sub esp,byte +0x18
000020B4  8B550C            mov edx,[ebp+0xc]
000020B7  8B4508            mov eax,[ebp+0x8]
000020BA  89542404          mov [esp+0x4],edx
000020BE  890424            mov [esp],eax
000020C1  E88C060000        call 0x2752
000020C6  8B5508            mov edx,[ebp+0x8]
000020C9  8902              mov [edx],eax
000020CB  8B4508            mov eax,[ebp+0x8]
000020CE  8B00              mov eax,[eax]
000020D0  8B550C            mov edx,[ebp+0xc]
000020D3  C1E202            shl edx,0x2
000020D6  01C2              add edx,eax
000020D8  8B4508            mov eax,[ebp+0x8]
000020DB  895008            mov [eax+0x8],edx
000020DE  8B450C            mov eax,[ebp+0xc]
000020E1  8D5510            lea edx,[ebp+0x10]
000020E4  89542408          mov [esp+0x8],edx
000020E8  89442404          mov [esp+0x4],eax
000020EC  8B4508            mov eax,[ebp+0x8]
000020EF  890424            mov [esp],eax
000020F2  E8F1FDFFFF        call 0x100001ee8
000020F7  C9                leave
000020F8  C3                ret
000020F9  90                nop
000020FA  55                push ebp
000020FB  89E5              mov ebp,esp
000020FD  83EC18            sub esp,byte +0x18
00002100  8B4508            mov eax,[ebp+0x8]
00002103  890424            mov [esp],eax
00002106  E8A7060000        call 0x27b2
0000210B  C9                leave
0000210C  C3                ret
0000210D  90                nop
0000210E  55                push ebp
0000210F  89E5              mov ebp,esp
00002111  83EC18            sub esp,byte +0x18
00002114  8B4508            mov eax,[ebp+0x8]
00002117  890424            mov [esp],eax
0000211A  E863060000        call 0x2782
0000211F  C9                leave
00002120  C3                ret
00002121  90                nop
00002122  55                push ebp
00002123  89E5              mov ebp,esp
00002125  53                push ebx
00002126  83EC14            sub esp,byte +0x14
00002129  8B4508            mov eax,[ebp+0x8]
0000212C  8B4008            mov eax,[eax+0x8]
0000212F  89C2              mov edx,eax
00002131  8B4508            mov eax,[ebp+0x8]
00002134  8B00              mov eax,[eax]
00002136  29C2              sub edx,eax
00002138  89D0              mov eax,edx
0000213A  C1F802            sar eax,0x2
0000213D  89C2              mov edx,eax
0000213F  89D0              mov eax,edx
00002141  C1E002            shl eax,0x2
00002144  01D0              add eax,edx
00002146  89C1              mov ecx,eax
00002148  C1E104            shl ecx,0x4
0000214B  01C8              add eax,ecx
0000214D  89C1              mov ecx,eax
0000214F  C1E108            shl ecx,0x8
00002152  01C8              add eax,ecx
00002154  89C1              mov ecx,eax
00002156  C1E110            shl ecx,0x10
00002159  01C8              add eax,ecx
0000215B  01C0              add eax,eax
0000215D  01D0              add eax,edx
0000215F  89C2              mov edx,eax
00002161  8B4508            mov eax,[ebp+0x8]
00002164  8B00              mov eax,[eax]
00002166  89542408          mov [esp+0x8],edx
0000216A  89442404          mov [esp+0x4],eax
0000216E  8B4508            mov eax,[ebp+0x8]
00002171  890424            mov [esp],eax
00002174  E84D060000        call 0x27c6
00002179  8B4508            mov eax,[ebp+0x8]
0000217C  890424            mov [esp],eax
0000217F  E876FFFFFF        call 0x1000020fa
00002184  EB17              jmp short 0x219d
00002186  89C3              mov ebx,eax
00002188  8B4508            mov eax,[ebp+0x8]
0000218B  890424            mov [esp],eax
0000218E  E867FFFFFF        call 0x1000020fa
00002193  89D8              mov eax,ebx
00002195  890424            mov [esp],eax
00002198  E8B3E7FFFF        call 0x100000950
0000219D  83C414            add esp,byte +0x14
000021A0  5B                pop ebx
000021A1  5D                pop ebp
000021A2  C3                ret
000021A3  90                nop
000021A4  55                push ebp
000021A5  89E5              mov ebp,esp
000021A7  8B4508            mov eax,[ebp+0x8]
000021AA  5D                pop ebp
000021AB  C3                ret
000021AC  55                push ebp
000021AD  89E5              mov ebp,esp
000021AF  83EC18            sub esp,byte +0x18
000021B2  8B450C            mov eax,[ebp+0xc]
000021B5  89442404          mov [esp+0x4],eax
000021B9  8B4508            mov eax,[ebp+0x8]
000021BC  890424            mov [esp],eax
000021BF  E829060000        call 0x27ed
000021C4  C9                leave
000021C5  C3                ret
000021C6  55                push ebp
000021C7  89E5              mov ebp,esp
000021C9  56                push esi
000021CA  53                push ebx
000021CB  83EC20            sub esp,byte +0x20
000021CE  8B450C            mov eax,[ebp+0xc]
000021D1  890424            mov [esp],eax
000021D4  E873060000        call 0x284c
000021D9  890424            mov [esp],eax
000021DC  E862060000        call 0x2843
000021E1  89C3              mov ebx,eax
000021E3  8B450C            mov eax,[ebp+0xc]
000021E6  890424            mov [esp],eax
000021E9  E81A060000        call 0x2808
000021EE  8B5508            mov edx,[ebp+0x8]
000021F1  895C2408          mov [esp+0x8],ebx
000021F5  89442404          mov [esp+0x4],eax
000021F9  891424            mov [esp],edx
000021FC  E853060000        call 0x2854
00002201  8B4508            mov eax,[ebp+0x8]
00002204  890424            mov [esp],eax
00002207  E898FFFFFF        call 0x1000021a4
0000220C  89C3              mov ebx,eax
0000220E  8B4508            mov eax,[ebp+0x8]
00002211  8B30              mov esi,[eax]
00002213  8D45F0            lea eax,[ebp-0x10]
00002216  8B550C            mov edx,[ebp+0xc]
00002219  89542404          mov [esp+0x4],edx
0000221D  890424            mov [esp],eax
00002220  E8A1060000        call 0x28c6
00002225  83EC04            sub esp,byte +0x4
00002228  8D45F4            lea eax,[ebp-0xc]
0000222B  8B550C            mov edx,[ebp+0xc]
0000222E  89542404          mov [esp+0x4],edx
00002232  890424            mov [esp],eax
00002235  E864060000        call 0x289e
0000223A  83EC04            sub esp,byte +0x4
0000223D  895C240C          mov [esp+0xc],ebx
00002241  89742408          mov [esp+0x8],esi
00002245  8B45F0            mov eax,[ebp-0x10]
00002248  89442404          mov [esp+0x4],eax
0000224C  8B45F4            mov eax,[ebp-0xc]
0000224F  890424            mov [esp],eax
00002252  E897060000        call 0x28ee
00002257  8B5508            mov edx,[ebp+0x8]
0000225A  894204            mov [edx+0x4],eax
0000225D  EB17              jmp short 0x2276
0000225F  89C3              mov ebx,eax
00002261  8B4508            mov eax,[ebp+0x8]
00002264  890424            mov [esp],eax
00002267  E8B6FEFFFF        call 0x100002122
0000226C  89D8              mov eax,ebx
0000226E  890424            mov [esp],eax
00002271  E8DAE6FFFF        call 0x100000950
00002276  8D65F8            lea esp,[ebp-0x8]
00002279  5B                pop ebx
0000227A  5E                pop esi
0000227B  5D                pop ebp
0000227C  C3                ret
0000227D  90                nop
0000227E  55                push ebp
0000227F  89E5              mov ebp,esp
00002281  83EC18            sub esp,byte +0x18
00002284  8B450C            mov eax,[ebp+0xc]
00002287  89442404          mov [esp+0x4],eax
0000228B  8B4508            mov eax,[ebp+0x8]
0000228E  890424            mov [esp],eax
00002291  E87A060000        call 0x2910
00002296  8B4508            mov eax,[ebp+0x8]
00002299  C9                leave
0000229A  C20400            ret 0x4
0000229D  90                nop
0000229E  55                push ebp
0000229F  89E5              mov ebp,esp
000022A1  83EC18            sub esp,byte +0x18
000022A4  8B450C            mov eax,[ebp+0xc]
000022A7  83C004            add eax,byte +0x4
000022AA  89442404          mov [esp+0x4],eax
000022AE  8B4508            mov eax,[ebp+0x8]
000022B1  890424            mov [esp],eax
000022B4  E857060000        call 0x2910
000022B9  8B4508            mov eax,[ebp+0x8]
000022BC  C9                leave
000022BD  C20400            ret 0x4
000022C0  55                push ebp
000022C1  89E5              mov ebp,esp
000022C3  53                push ebx
000022C4  83EC44            sub esp,byte +0x44
000022C7  8D4508            lea eax,[ebp+0x8]
000022CA  89442404          mov [esp+0x4],eax
000022CE  8D450C            lea eax,[ebp+0xc]
000022D1  890424            mov [esp],eax
000022D4  E846060000        call 0x291f
000022D9  83F801            cmp eax,byte +0x1
000022DC  0F9EC0            setng al
000022DF  84C0              test al,al
000022E1  7405              jz 0x22e8
000022E3  E9AB000000        jmp 0x2393
000022E8  8D4508            lea eax,[ebp+0x8]
000022EB  89442404          mov [esp+0x4],eax
000022EF  8D450C            lea eax,[ebp+0xc]
000022F2  890424            mov [esp],eax
000022F5  E825060000        call 0x291f
000022FA  8945F4            mov [ebp-0xc],eax
000022FD  8B45F4            mov eax,[ebp-0xc]
00002300  83E802            sub eax,byte +0x2
00002303  89C2              mov edx,eax
00002305  C1EA1F            shr edx,0x1f
00002308  01D0              add eax,edx
0000230A  D1F8              sar eax,1
0000230C  8945EC            mov [ebp-0x14],eax
0000230F  8D45F0            lea eax,[ebp-0x10]
00002312  8D55EC            lea edx,[ebp-0x14]
00002315  89542408          mov [esp+0x8],edx
00002319  8D4D08            lea ecx,[ebp+0x8]
0000231C  894C2404          mov [esp+0x4],ecx
00002320  890424            mov [esp],eax
00002323  E84A060000        call 0x2972
00002328  83EC04            sub esp,byte +0x4
0000232B  8D45F0            lea eax,[ebp-0x10]
0000232E  890424            mov [esp],eax
00002331  E876060000        call 0x29ac
00002336  8B10              mov edx,[eax]
00002338  8955E0            mov [ebp-0x20],edx
0000233B  8B5004            mov edx,[eax+0x4]
0000233E  8955E4            mov [ebp-0x1c],edx
00002341  8B4008            mov eax,[eax+0x8]
00002344  8945E8            mov [ebp-0x18],eax
00002347  8B45EC            mov eax,[ebp-0x14]
0000234A  885C2418          mov [esp+0x18],bl
0000234E  8B55E0            mov edx,[ebp-0x20]
00002351  8954240C          mov [esp+0xc],edx
00002355  8B55E4            mov edx,[ebp-0x1c]
00002358  89542410          mov [esp+0x10],edx
0000235C  8B55E8            mov edx,[ebp-0x18]
0000235F  89542414          mov [esp+0x14],edx
00002363  8B55F4            mov edx,[ebp-0xc]
00002366  89542408          mov [esp+0x8],edx
0000236A  89442404          mov [esp+0x4],eax
0000236E  8B4508            mov eax,[ebp+0x8]
00002371  890424            mov [esp],eax
00002374  E83D060000        call 0x29b6
00002379  8B45EC            mov eax,[ebp-0x14]
0000237C  85C0              test eax,eax
0000237E  7413              jz 0x2393
00002380  8B45EC            mov eax,[ebp-0x14]
00002383  48                dec eax
00002384  8945EC            mov [ebp-0x14],eax
00002387  EB86              jmp short 0x230f
00002389  EB00              jmp short 0x238b
0000238B  890424            mov [esp],eax
0000238E  E8BDE5FFFF        call 0x100000950
00002393  8B5DFC            mov ebx,[ebp-0x4]
00002396  C9                leave
00002397  C3                ret
00002398  55                push ebp
00002399  89E5              mov ebp,esp
0000239B  83EC28            sub esp,byte +0x28
0000239E  8B4508            mov eax,[ebp+0x8]
000023A1  8B5004            mov edx,[eax+0x4]
000023A4  8B4508            mov eax,[ebp+0x8]
000023A7  8B4008            mov eax,[eax+0x8]
000023AA  39C2              cmp edx,eax
000023AC  742D              jz 0x23db
000023AE  8B4508            mov eax,[ebp+0x8]
000023B1  8B5004            mov edx,[eax+0x4]
000023B4  8B4508            mov eax,[ebp+0x8]
000023B7  8B4D0C            mov ecx,[ebp+0xc]
000023BA  894C2408          mov [esp+0x8],ecx
000023BE  89542404          mov [esp+0x4],edx
000023C2  890424            mov [esp],eax
000023C5  E8E9070000        call 0x2bb3
000023CA  8B4508            mov eax,[ebp+0x8]
000023CD  8B4004            mov eax,[eax+0x4]
000023D0  8D500C            lea edx,[eax+0xc]
000023D3  8B4508            mov eax,[ebp+0x8]
000023D6  895004            mov [eax+0x4],edx
000023D9  EB2E              jmp short 0x2409
000023DB  8D45F4            lea eax,[ebp-0xc]
000023DE  8B5508            mov edx,[ebp+0x8]
000023E1  89542404          mov [esp+0x4],edx
000023E5  890424            mov [esp],eax
000023E8  E8B1FEFFFF        call 0x10000229e
000023ED  83EC04            sub esp,byte +0x4
000023F0  8B450C            mov eax,[ebp+0xc]
000023F3  89442408          mov [esp+0x8],eax
000023F7  8B45F4            mov eax,[ebp-0xc]
000023FA  89442404          mov [esp+0x4],eax
000023FE  8B4508            mov eax,[ebp+0x8]
00002401  890424            mov [esp],eax
00002404  E8CB070000        call 0x2bd4
00002409  C9                leave
0000240A  C3                ret
0000240B  55                push ebp
0000240C  89E5              mov ebp,esp
0000240E  53                push ebx
0000240F  83EC44            sub esp,byte +0x44
00002412  C745F401000000    mov dword [ebp-0xc],0x1
00002419  8D45F0            lea eax,[ebp-0x10]
0000241C  8D55F4            lea edx,[ebp-0xc]
0000241F  89542408          mov [esp+0x8],edx
00002423  8D550C            lea edx,[ebp+0xc]
00002426  89542404          mov [esp+0x4],edx
0000242A  890424            mov [esp],eax
0000242D  E8940A0000        call 0x2ec6
00002432  83EC04            sub esp,byte +0x4
00002435  8D45F0            lea eax,[ebp-0x10]
00002438  890424            mov [esp],eax
0000243B  E86C050000        call 0x29ac
00002440  8B10              mov edx,[eax]
00002442  8955E4            mov [ebp-0x1c],edx
00002445  8B5004            mov edx,[eax+0x4]
00002448  8955E8            mov [ebp-0x18],edx
0000244B  8B4008            mov eax,[eax+0x8]
0000244E  8945EC            mov [ebp-0x14],eax
00002451  8D4508            lea eax,[ebp+0x8]
00002454  89442404          mov [esp+0x4],eax
00002458  8D450C            lea eax,[ebp+0xc]
0000245B  890424            mov [esp],eax
0000245E  E8BC040000        call 0x291f
00002463  8D50FF            lea edx,[eax-0x1]
00002466  885C2418          mov [esp+0x18],bl
0000246A  8B45E4            mov eax,[ebp-0x1c]
0000246D  8944240C          mov [esp+0xc],eax
00002471  8B45E8            mov eax,[ebp-0x18]
00002474  89442410          mov [esp+0x10],eax
00002478  8B45EC            mov eax,[ebp-0x14]
0000247B  89442414          mov [esp+0x14],eax
0000247F  C744240800000000  mov dword [esp+0x8],0x0
00002487  89542404          mov [esp+0x4],edx
0000248B  8B4508            mov eax,[ebp+0x8]
0000248E  890424            mov [esp],eax
00002491  E86B0A0000        call 0x2f01
00002496  EB08              jmp short 0x24a0
00002498  890424            mov [esp],eax
0000249B  E8B0E4FFFF        call 0x100000950
000024A0  8B5DFC            mov ebx,[ebp-0x4]
000024A3  C9                leave
000024A4  C3                ret
000024A5  90                nop
000024A6  55                push ebp
000024A7  89E5              mov ebp,esp
000024A9  83EC28            sub esp,byte +0x28
000024AC  8D45F0            lea eax,[ebp-0x10]
000024AF  8B5508            mov edx,[ebp+0x8]
000024B2  89542404          mov [esp+0x4],edx
000024B6  890424            mov [esp],eax
000024B9  E808040000        call 0x28c6
000024BE  83EC04            sub esp,byte +0x4
000024C1  8D45F4            lea eax,[ebp-0xc]
000024C4  8B5508            mov edx,[ebp+0x8]
000024C7  89542404          mov [esp+0x4],edx
000024CB  890424            mov [esp],eax
000024CE  E8CB030000        call 0x289e
000024D3  83EC04            sub esp,byte +0x4
000024D6  8D45F0            lea eax,[ebp-0x10]
000024D9  89442404          mov [esp+0x4],eax
000024DD  8D45F4            lea eax,[ebp-0xc]
000024E0  890424            mov [esp],eax
000024E3  E8540B0000        call 0x303c
000024E8  EB0A              jmp short 0x24f4
000024EA  EB00              jmp short 0x24ec
000024EC  890424            mov [esp],eax
000024EF  E85CE4FFFF        call 0x100000950
000024F4  C9                leave
000024F5  C3                ret
000024F6  55                push ebp
000024F7  89E5              mov ebp,esp
000024F9  83EC28            sub esp,byte +0x28
000024FC  8D45F4            lea eax,[ebp-0xc]
000024FF  8B5508            mov edx,[ebp+0x8]
00002502  89542404          mov [esp+0x4],edx
00002506  890424            mov [esp],eax
00002509  E890030000        call 0x289e
0000250E  83EC04            sub esp,byte +0x4
00002511  8D45F4            lea eax,[ebp-0xc]
00002514  890424            mov [esp],eax
00002517  E84C0B0000        call 0x3068
0000251C  C9                leave
0000251D  C3                ret
0000251E  55                push ebp
0000251F  89E5              mov ebp,esp
00002521  53                push ebx
00002522  83EC14            sub esp,byte +0x14
00002525  8D4508            lea eax,[ebp+0x8]
00002528  89442404          mov [esp+0x4],eax
0000252C  8D450C            lea eax,[ebp+0xc]
0000252F  890424            mov [esp],eax
00002532  E8E8030000        call 0x291f
00002537  83F801            cmp eax,byte +0x1
0000253A  0F9FC0            setg al
0000253D  84C0              test al,al
0000253F  7428              jz 0x2569
00002541  8D450C            lea eax,[ebp+0xc]
00002544  890424            mov [esp],eax
00002547  E8260B0000        call 0x3072
0000254C  885C240C          mov [esp+0xc],bl
00002550  8B450C            mov eax,[ebp+0xc]
00002553  89442408          mov [esp+0x8],eax
00002557  8B450C            mov eax,[ebp+0xc]
0000255A  89442404          mov [esp+0x4],eax
0000255E  8B4508            mov eax,[ebp+0x8]
00002561  890424            mov [esp],eax
00002564  E81E0B0000        call 0x3087
00002569  83C414            add esp,byte +0x14
0000256C  5B                pop ebx
0000256D  5D                pop ebp
0000256E  C3                ret
0000256F  90                nop
00002570  55                push ebp
00002571  89E5              mov ebp,esp
00002573  83EC18            sub esp,byte +0x18
00002576  8B4508            mov eax,[ebp+0x8]
00002579  8B4004            mov eax,[eax+0x4]
0000257C  8D50F4            lea edx,[eax-0xc]
0000257F  8B4508            mov eax,[ebp+0x8]
00002582  895004            mov [eax+0x4],edx
00002585  8B4508            mov eax,[ebp+0x8]
00002588  8B5004            mov edx,[eax+0x4]
0000258B  8B4508            mov eax,[ebp+0x8]
0000258E  89542404          mov [esp+0x4],edx
00002592  890424            mov [esp],eax
00002595  E88E0B0000        call 0x3128
0000259A  C9                leave
0000259B  C3                ret
0000259C  55                push ebp
0000259D  89E5              mov ebp,esp
0000259F  83EC18            sub esp,byte +0x18
000025A2  8B450C            mov eax,[ebp+0xc]
000025A5  89442404          mov [esp+0x4],eax
000025A9  8B4508            mov eax,[ebp+0x8]
000025AC  890424            mov [esp],eax
000025AF  E88E0B0000        call 0x3142
000025B4  8B4508            mov eax,[ebp+0x8]
000025B7  C70000000000      mov dword [eax],0x0
000025BD  8B4508            mov eax,[ebp+0x8]
000025C0  C7400400000000    mov dword [eax+0x4],0x0
000025C7  8B4508            mov eax,[ebp+0x8]
000025CA  C7400800000000    mov dword [eax+0x8],0x0
000025D1  C9                leave
000025D2  C3                ret
000025D3  90                nop
000025D4  55                push ebp
000025D5  89E5              mov ebp,esp
000025D7  83EC18            sub esp,byte +0x18
000025DA  8B450C            mov eax,[ebp+0xc]
000025DD  89442404          mov [esp+0x4],eax
000025E1  8B4508            mov eax,[ebp+0x8]
000025E4  890424            mov [esp],eax
000025E7  E866010000        call 0x2752
000025EC  8B5508            mov edx,[ebp+0x8]
000025EF  8902              mov [edx],eax
000025F1  8B4508            mov eax,[ebp+0x8]
000025F4  8B10              mov edx,[eax]
000025F6  8B4508            mov eax,[ebp+0x8]
000025F9  895004            mov [eax+0x4],edx
000025FC  8B4508            mov eax,[ebp+0x8]
000025FF  8B00              mov eax,[eax]
00002601  8B550C            mov edx,[ebp+0xc]
00002604  C1E202            shl edx,0x2
00002607  01C2              add edx,eax
00002609  8B4508            mov eax,[ebp+0x8]
0000260C  895008            mov [eax+0x8],edx
0000260F  C9                leave
00002610  C3                ret
00002611  90                nop
00002612  55                push ebp
00002613  89E5              mov ebp,esp
00002615  83EC18            sub esp,byte +0x18
00002618  837D0C00          cmp dword [ebp+0xc],byte +0x0
0000261C  7419              jz 0x2637
0000261E  8B4508            mov eax,[ebp+0x8]
00002621  8B5510            mov edx,[ebp+0x10]
00002624  89542408          mov [esp+0x8],edx
00002628  8B550C            mov edx,[ebp+0xc]
0000262B  89542404          mov [esp+0x4],edx
0000262F  890424            mov [esp],eax
00002632  E8250B0000        call 0x315c
00002637  C9                leave
00002638  C3                ret
00002639  55                push ebp
0000263A  89E5              mov ebp,esp
0000263C  83EC18            sub esp,byte +0x18
0000263F  8B4510            mov eax,[ebp+0x10]
00002642  89442408          mov [esp+0x8],eax
00002646  8B450C            mov eax,[ebp+0xc]
00002649  89442404          mov [esp+0x4],eax
0000264D  8B4508            mov eax,[ebp+0x8]
00002650  890424            mov [esp],eax
00002653  E8170B0000        call 0x316f
00002658  C9                leave
00002659  C3                ret
0000265A  55                push ebp
0000265B  89E5              mov ebp,esp
0000265D  83EC18            sub esp,byte +0x18
00002660  8B450C            mov eax,[ebp+0xc]
00002663  89442404          mov [esp+0x4],eax
00002667  8B4508            mov eax,[ebp+0x8]
0000266A  890424            mov [esp],eax
0000266D  E81E0B0000        call 0x3190
00002672  C9                leave
00002673  C3                ret
00002674  55                push ebp
00002675  89E5              mov ebp,esp
00002677  83EC18            sub esp,byte +0x18
0000267A  8B450C            mov eax,[ebp+0xc]
0000267D  89442404          mov [esp+0x4],eax
00002681  8B4508            mov eax,[ebp+0x8]
00002684  890424            mov [esp],eax
00002687  E80A0B0000        call 0x3196
0000268C  8B4508            mov eax,[ebp+0x8]
0000268F  C70000000000      mov dword [eax],0x0
00002695  8B4508            mov eax,[ebp+0x8]
00002698  C7400400000000    mov dword [eax+0x4],0x0
0000269F  8B4508            mov eax,[ebp+0x8]
000026A2  C7400800000000    mov dword [eax+0x8],0x0
000026A9  C9                leave
000026AA  C3                ret
000026AB  90                nop
000026AC  55                push ebp
000026AD  89E5              mov ebp,esp
000026AF  83EC18            sub esp,byte +0x18
000026B2  8B450C            mov eax,[ebp+0xc]
000026B5  89442404          mov [esp+0x4],eax
000026B9  8B4508            mov eax,[ebp+0x8]
000026BC  890424            mov [esp],eax
000026BF  E8EC0A0000        call 0x31b0
000026C4  8B5508            mov edx,[ebp+0x8]
000026C7  8902              mov [edx],eax
000026C9  8B4508            mov eax,[ebp+0x8]
000026CC  8B10              mov edx,[eax]
000026CE  8B4508            mov eax,[ebp+0x8]
000026D1  895004            mov [eax+0x4],edx
000026D4  8B4508            mov eax,[ebp+0x8]
000026D7  8B08              mov ecx,[eax]
000026D9  8B550C            mov edx,[ebp+0xc]
000026DC  89D0              mov eax,edx
000026DE  01C0              add eax,eax
000026E0  01D0              add eax,edx
000026E2  C1E002            shl eax,0x2
000026E5  8D1401            lea edx,[ecx+eax]
000026E8  8B4508            mov eax,[ebp+0x8]
000026EB  895008            mov [eax+0x8],edx
000026EE  C9                leave
000026EF  C3                ret
000026F0  55                push ebp
000026F1  89E5              mov ebp,esp
000026F3  83EC18            sub esp,byte +0x18
000026F6  837D0C00          cmp dword [ebp+0xc],byte +0x0
000026FA  7419              jz 0x2715
000026FC  8B4508            mov eax,[ebp+0x8]
000026FF  8B5510            mov edx,[ebp+0x10]
00002702  89542408          mov [esp+0x8],edx
00002706  8B550C            mov edx,[ebp+0xc]
00002709  89542404          mov [esp+0x4],edx
0000270D  890424            mov [esp],eax
00002710  E8CB0A0000        call 0x31e0
00002715  C9                leave
00002716  C3                ret
00002717  55                push ebp
00002718  89E5              mov ebp,esp
0000271A  83EC18            sub esp,byte +0x18
0000271D  8B4510            mov eax,[ebp+0x10]
00002720  89442408          mov [esp+0x8],eax
00002724  8B450C            mov eax,[ebp+0xc]
00002727  89442404          mov [esp+0x4],eax
0000272B  8B4508            mov eax,[ebp+0x8]
0000272E  890424            mov [esp],eax
00002731  E8BD0A0000        call 0x31f3
00002736  C9                leave
00002737  C3                ret
00002738  55                push ebp
00002739  89E5              mov ebp,esp
0000273B  83EC18            sub esp,byte +0x18
0000273E  8B450C            mov eax,[ebp+0xc]
00002741  89442404          mov [esp+0x4],eax
00002745  8B4508            mov eax,[ebp+0x8]
00002748  890424            mov [esp],eax
0000274B  E8C40A0000        call 0x3214
00002750  C9                leave
00002751  C3                ret
00002752  55                push ebp
00002753  89E5              mov ebp,esp
00002755  83EC18            sub esp,byte +0x18
00002758  837D0C00          cmp dword [ebp+0xc],byte +0x0
0000275C  741C              jz 0x277a
0000275E  8B4508            mov eax,[ebp+0x8]
00002761  C744240800000000  mov dword [esp+0x8],0x0
00002769  8B550C            mov edx,[ebp+0xc]
0000276C  89542404          mov [esp+0x4],edx
00002770  890424            mov [esp],eax
00002773  E8C60A0000        call 0x323e
00002778  EB05              jmp short 0x277f
0000277A  B800000000        mov eax,0x0
0000277F  C9                leave
00002780  C3                ret
00002781  90                nop
00002782  55                push ebp
00002783  89E5              mov ebp,esp
00002785  83EC18            sub esp,byte +0x18
00002788  8B4508            mov eax,[ebp+0x8]
0000278B  890424            mov [esp],eax
0000278E  E8DB0A0000        call 0x326e
00002793  8B4508            mov eax,[ebp+0x8]
00002796  C70000000000      mov dword [eax],0x0
0000279C  8B4508            mov eax,[ebp+0x8]
0000279F  C7400400000000    mov dword [eax+0x4],0x0
000027A6  8B4508            mov eax,[ebp+0x8]
000027A9  C7400800000000    mov dword [eax+0x8],0x0
000027B0  C9                leave
000027B1  C3                ret
000027B2  55                push ebp
000027B3  89E5              mov ebp,esp
000027B5  83EC18            sub esp,byte +0x18
000027B8  8B4508            mov eax,[ebp+0x8]
000027BB  890424            mov [esp],eax
000027BE  E8BF0A0000        call 0x3282
000027C3  C9                leave
000027C4  C3                ret
000027C5  90                nop
000027C6  55                push ebp
000027C7  89E5              mov ebp,esp
000027C9  83EC18            sub esp,byte +0x18
000027CC  837D0C00          cmp dword [ebp+0xc],byte +0x0
000027D0  7419              jz 0x27eb
000027D2  8B4508            mov eax,[ebp+0x8]
000027D5  8B5510            mov edx,[ebp+0x10]
000027D8  89542408          mov [esp+0x8],edx
000027DC  8B550C            mov edx,[ebp+0xc]
000027DF  89542404          mov [esp+0x4],edx
000027E3  890424            mov [esp],eax
000027E6  E89D0A0000        call 0x3288
000027EB  C9                leave
000027EC  C3                ret
000027ED  55                push ebp
000027EE  89E5              mov ebp,esp
000027F0  83EC18            sub esp,byte +0x18
000027F3  8B450C            mov eax,[ebp+0xc]
000027F6  89442404          mov [esp+0x4],eax
000027FA  8B4508            mov eax,[ebp+0x8]
000027FD  890424            mov [esp],eax
00002800  E8960A0000        call 0x329b
00002805  C9                leave
00002806  C3                ret
00002807  90                nop
00002808  55                push ebp
00002809  89E5              mov ebp,esp
0000280B  8B4508            mov eax,[ebp+0x8]
0000280E  8B4004            mov eax,[eax+0x4]
00002811  89C2              mov edx,eax
00002813  8B4508            mov eax,[ebp+0x8]
00002816  8B00              mov eax,[eax]
00002818  29C2              sub edx,eax
0000281A  89D0              mov eax,edx
0000281C  C1F802            sar eax,0x2
0000281F  89C2              mov edx,eax
00002821  89D0              mov eax,edx
00002823  C1E002            shl eax,0x2
00002826  01D0              add eax,edx
00002828  89C1              mov ecx,eax
0000282A  C1E104            shl ecx,0x4
0000282D  01C8              add eax,ecx
0000282F  89C1              mov ecx,eax
00002831  C1E108            shl ecx,0x8
00002834  01C8              add eax,ecx
00002836  89C1              mov ecx,eax
00002838  C1E110            shl ecx,0x10
0000283B  01C8              add eax,ecx
0000283D  01C0              add eax,eax
0000283F  01D0              add eax,edx
00002841  5D                pop ebp
00002842  C3                ret
00002843  55                push ebp
00002844  89E5              mov ebp,esp
00002846  8B4508            mov eax,[ebp+0x8]
00002849  5D                pop ebp
0000284A  C3                ret
0000284B  90                nop
0000284C  55                push ebp
0000284D  89E5              mov ebp,esp
0000284F  8B4508            mov eax,[ebp+0x8]
00002852  5D                pop ebp
00002853  C3                ret
00002854  55                push ebp
00002855  89E5              mov ebp,esp
00002857  53                push ebx
00002858  83EC14            sub esp,byte +0x14
0000285B  8B4508            mov eax,[ebp+0x8]
0000285E  8B5510            mov edx,[ebp+0x10]
00002861  89542404          mov [esp+0x4],edx
00002865  890424            mov [esp],eax
00002868  E8330A0000        call 0x32a0
0000286D  8B450C            mov eax,[ebp+0xc]
00002870  89442404          mov [esp+0x4],eax
00002874  8B4508            mov eax,[ebp+0x8]
00002877  890424            mov [esp],eax
0000287A  E8590A0000        call 0x32d8
0000287F  EB17              jmp short 0x2898
00002881  89C3              mov ebx,eax
00002883  8B4508            mov eax,[ebp+0x8]
00002886  890424            mov [esp],eax
00002889  E86CF8FFFF        call 0x1000020fa
0000288E  89D8              mov eax,ebx
00002890  890424            mov [esp],eax
00002893  E8B8E0FFFF        call 0x100000950
00002898  83C414            add esp,byte +0x14
0000289B  5B                pop ebx
0000289C  5D                pop ebp
0000289D  C3                ret
0000289E  55                push ebp
0000289F  89E5              mov ebp,esp
000028A1  83EC28            sub esp,byte +0x28
000028A4  8B450C            mov eax,[ebp+0xc]
000028A7  8B00              mov eax,[eax]
000028A9  8945F4            mov [ebp-0xc],eax
000028AC  8D45F4            lea eax,[ebp-0xc]
000028AF  89442404          mov [esp+0x4],eax
000028B3  8B4508            mov eax,[ebp+0x8]
000028B6  890424            mov [esp],eax
000028B9  E85E0A0000        call 0x331c
000028BE  8B4508            mov eax,[ebp+0x8]
000028C1  C9                leave
000028C2  C20400            ret 0x4
000028C5  90                nop
000028C6  55                push ebp
000028C7  89E5              mov ebp,esp
000028C9  83EC28            sub esp,byte +0x28
000028CC  8B450C            mov eax,[ebp+0xc]
000028CF  8B4004            mov eax,[eax+0x4]
000028D2  8945F4            mov [ebp-0xc],eax
000028D5  8D45F4            lea eax,[ebp-0xc]
000028D8  89442404          mov [esp+0x4],eax
000028DC  8B4508            mov eax,[ebp+0x8]
000028DF  890424            mov [esp],eax
000028E2  E8350A0000        call 0x331c
000028E7  8B4508            mov eax,[ebp+0x8]
000028EA  C9                leave
000028EB  C20400            ret 0x4
000028EE  55                push ebp
000028EF  89E5              mov ebp,esp
000028F1  83EC18            sub esp,byte +0x18
000028F4  8B4510            mov eax,[ebp+0x10]
000028F7  89442408          mov [esp+0x8],eax
000028FB  8B450C            mov eax,[ebp+0xc]
000028FE  89442404          mov [esp+0x4],eax
00002902  8B4508            mov eax,[ebp+0x8]
00002905  890424            mov [esp],eax
00002908  E81E0A0000        call 0x332b
0000290D  C9                leave
0000290E  C3                ret
0000290F  90                nop
00002910  55                push ebp
00002911  89E5              mov ebp,esp
00002913  8B450C            mov eax,[ebp+0xc]
00002916  8B10              mov edx,[eax]
00002918  8B4508            mov eax,[ebp+0x8]
0000291B  8910              mov [eax],edx
0000291D  5D                pop ebp
0000291E  C3                ret
0000291F  55                push ebp
00002920  89E5              mov ebp,esp
00002922  53                push ebx
00002923  83EC14            sub esp,byte +0x14
00002926  8B4508            mov eax,[ebp+0x8]
00002929  890424            mov [esp],eax
0000292C  E81B0A0000        call 0x334c
00002931  8B00              mov eax,[eax]
00002933  89C3              mov ebx,eax
00002935  8B450C            mov eax,[ebp+0xc]
00002938  890424            mov [esp],eax
0000293B  E80C0A0000        call 0x334c
00002940  8B00              mov eax,[eax]
00002942  29C3              sub ebx,eax
00002944  89D8              mov eax,ebx
00002946  C1F802            sar eax,0x2
00002949  89C2              mov edx,eax
0000294B  89D0              mov eax,edx
0000294D  C1E002            shl eax,0x2
00002950  01D0              add eax,edx
00002952  89C1              mov ecx,eax
00002954  C1E104            shl ecx,0x4
00002957  01C8              add eax,ecx
00002959  89C1              mov ecx,eax
0000295B  C1E108            shl ecx,0x8
0000295E  01C8              add eax,ecx
00002960  89C1              mov ecx,eax
00002962  C1E110            shl ecx,0x10
00002965  01C8              add eax,ecx
00002967  01C0              add eax,eax
00002969  01D0              add eax,edx
0000296B  83C414            add esp,byte +0x14
0000296E  5B                pop ebx
0000296F  5D                pop ebp
00002970  C3                ret
00002971  90                nop
00002972  55                push ebp
00002973  89E5              mov ebp,esp
00002975  83EC28            sub esp,byte +0x28
00002978  8B450C            mov eax,[ebp+0xc]
0000297B  8B08              mov ecx,[eax]
0000297D  8B4510            mov eax,[ebp+0x10]
00002980  8B00              mov eax,[eax]
00002982  89C2              mov edx,eax
00002984  89D0              mov eax,edx
00002986  01C0              add eax,eax
00002988  01D0              add eax,edx
0000298A  C1E002            shl eax,0x2
0000298D  01C8              add eax,ecx
0000298F  8945F4            mov [ebp-0xc],eax
00002992  8D45F4            lea eax,[ebp-0xc]
00002995  89442404          mov [esp+0x4],eax
00002999  8B4508            mov eax,[ebp+0x8]
0000299C  890424            mov [esp],eax
0000299F  E86CFFFFFF        call 0x100002910
000029A4  8B4508            mov eax,[ebp+0x8]
000029A7  C9                leave
000029A8  C20400            ret 0x4
000029AB  90                nop
000029AC  55                push ebp
000029AD  89E5              mov ebp,esp
000029AF  8B4508            mov eax,[ebp+0x8]
000029B2  8B00              mov eax,[eax]
000029B4  5D                pop ebp
000029B5  C3                ret
000029B6  55                push ebp
000029B7  89E5              mov ebp,esp
000029B9  57                push edi
000029BA  56                push esi
000029BB  53                push ebx
000029BC  83EC5C            sub esp,byte +0x5c
000029BF  8B450C            mov eax,[ebp+0xc]
000029C2  8945E4            mov [ebp-0x1c],eax
000029C5  8B450C            mov eax,[ebp+0xc]
000029C8  8945C0            mov [ebp-0x40],eax
000029CB  E9E4000000        jmp 0x2ab4
000029D0  8B45C0            mov eax,[ebp-0x40]
000029D3  40                inc eax
000029D4  01C0              add eax,eax
000029D6  8945C0            mov [ebp-0x40],eax
000029D9  8B45C0            mov eax,[ebp-0x40]
000029DC  48                dec eax
000029DD  8945C8            mov [ebp-0x38],eax
000029E0  8D45C4            lea eax,[ebp-0x3c]
000029E3  8D55C8            lea edx,[ebp-0x38]
000029E6  89542408          mov [esp+0x8],edx
000029EA  8D7D08            lea edi,[ebp+0x8]
000029ED  897C2404          mov [esp+0x4],edi
000029F1  890424            mov [esp],eax
000029F4  E879FFFFFF        call 0x100002972
000029F9  83EC04            sub esp,byte +0x4
000029FC  8D45C4            lea eax,[ebp-0x3c]
000029FF  890424            mov [esp],eax
00002A02  E8A5FFFFFF        call 0x1000029ac
00002A07  89C3              mov ebx,eax
00002A09  8D45CC            lea eax,[ebp-0x34]
00002A0C  8D55C0            lea edx,[ebp-0x40]
00002A0F  89542408          mov [esp+0x8],edx
00002A13  8D4D08            lea ecx,[ebp+0x8]
00002A16  894C2404          mov [esp+0x4],ecx
00002A1A  890424            mov [esp],eax
00002A1D  E850FFFFFF        call 0x100002972
00002A22  83EC04            sub esp,byte +0x4
00002A25  8D45CC            lea eax,[ebp-0x34]
00002A28  890424            mov [esp],eax
00002A2B  E87CFFFFFF        call 0x1000029ac
00002A30  895C2408          mov [esp+0x8],ebx
00002A34  89442404          mov [esp+0x4],eax
00002A38  8D4520            lea eax,[ebp+0x20]
00002A3B  890424            mov [esp],eax
00002A3E  E811090000        call 0x3354
00002A43  84C0              test al,al
00002A45  7407              jz 0x2a4e
00002A47  8B45C0            mov eax,[ebp-0x40]
00002A4A  48                dec eax
00002A4B  8945C0            mov [ebp-0x40],eax
00002A4E  8D45D0            lea eax,[ebp-0x30]
00002A51  8D550C            lea edx,[ebp+0xc]
00002A54  89542408          mov [esp+0x8],edx
00002A58  8D7D08            lea edi,[ebp+0x8]
00002A5B  897C2404          mov [esp+0x4],edi
00002A5F  890424            mov [esp],eax
00002A62  E80BFFFFFF        call 0x100002972
00002A67  83EC04            sub esp,byte +0x4
00002A6A  8D45D0            lea eax,[ebp-0x30]
00002A6D  890424            mov [esp],eax
00002A70  E837FFFFFF        call 0x1000029ac
00002A75  89C3              mov ebx,eax
00002A77  8D45D4            lea eax,[ebp-0x2c]
00002A7A  8D55C0            lea edx,[ebp-0x40]
00002A7D  89542408          mov [esp+0x8],edx
00002A81  8D4D08            lea ecx,[ebp+0x8]
00002A84  894C2404          mov [esp+0x4],ecx
00002A88  890424            mov [esp],eax
00002A8B  E8E2FEFFFF        call 0x100002972
00002A90  83EC04            sub esp,byte +0x4
00002A93  8D45D4            lea eax,[ebp-0x2c]
00002A96  890424            mov [esp],eax
00002A99  E80EFFFFFF        call 0x1000029ac
00002A9E  8B10              mov edx,[eax]
00002AA0  8913              mov [ebx],edx
00002AA2  8B5004            mov edx,[eax+0x4]
00002AA5  895304            mov [ebx+0x4],edx
00002AA8  8B4008            mov eax,[eax+0x8]
00002AAB  894308            mov [ebx+0x8],eax
00002AAE  8B45C0            mov eax,[ebp-0x40]
00002AB1  89450C            mov [ebp+0xc],eax
00002AB4  8B4510            mov eax,[ebp+0x10]
00002AB7  48                dec eax
00002AB8  89C2              mov edx,eax
00002ABA  C1EA1F            shr edx,0x1f
00002ABD  01D0              add eax,edx
00002ABF  D1F8              sar eax,1
00002AC1  89C2              mov edx,eax
00002AC3  8B45C0            mov eax,[ebp-0x40]
00002AC6  39C2              cmp edx,eax
00002AC8  0F8F02FFFFFF      jg near 0x1000029d0
00002ACE  8B4510            mov eax,[ebp+0x10]
00002AD1  83E001            and eax,byte +0x1
00002AD4  85C0              test eax,eax
00002AD6  0F858F000000      jnz near 0x2b6b
00002ADC  8B4510            mov eax,[ebp+0x10]
00002ADF  83E802            sub eax,byte +0x2
00002AE2  89C2              mov edx,eax
00002AE4  C1EA1F            shr edx,0x1f
00002AE7  01D0              add eax,edx
00002AE9  D1F8              sar eax,1
00002AEB  89C2              mov edx,eax
00002AED  8B45C0            mov eax,[ebp-0x40]
00002AF0  39C2              cmp edx,eax
00002AF2  7577              jnz 0x2b6b
00002AF4  8B45C0            mov eax,[ebp-0x40]
00002AF7  40                inc eax
00002AF8  01C0              add eax,eax
00002AFA  8945C0            mov [ebp-0x40],eax
00002AFD  8D45D8            lea eax,[ebp-0x28]
00002B00  8D550C            lea edx,[ebp+0xc]
00002B03  89542408          mov [esp+0x8],edx
00002B07  8D7D08            lea edi,[ebp+0x8]
00002B0A  897C2404          mov [esp+0x4],edi
00002B0E  890424            mov [esp],eax
00002B11  E85CFEFFFF        call 0x100002972
00002B16  83EC04            sub esp,byte +0x4
00002B19  8D45D8            lea eax,[ebp-0x28]
00002B1C  890424            mov [esp],eax
00002B1F  E888FEFFFF        call 0x1000029ac
00002B24  89C3              mov ebx,eax
00002B26  8B45C0            mov eax,[ebp-0x40]
00002B29  48                dec eax
00002B2A  8945E0            mov [ebp-0x20],eax
00002B2D  8D45DC            lea eax,[ebp-0x24]
00002B30  8D55E0            lea edx,[ebp-0x20]
00002B33  89542408          mov [esp+0x8],edx
00002B37  8D4D08            lea ecx,[ebp+0x8]
00002B3A  894C2404          mov [esp+0x4],ecx
00002B3E  890424            mov [esp],eax
00002B41  E82CFEFFFF        call 0x100002972
00002B46  83EC04            sub esp,byte +0x4
00002B49  8D45DC            lea eax,[ebp-0x24]
00002B4C  890424            mov [esp],eax
00002B4F  E858FEFFFF        call 0x1000029ac
00002B54  8B10              mov edx,[eax]
00002B56  8913              mov [ebx],edx
00002B58  8B5004            mov edx,[eax+0x4]
00002B5B  895304            mov [ebx+0x4],edx
00002B5E  8B4008            mov eax,[eax+0x8]
00002B61  894308            mov [ebx+0x8],eax
00002B64  8B45C0            mov eax,[ebp-0x40]
00002B67  48                dec eax
00002B68  89450C            mov [ebp+0xc],eax
00002B6B  8B450C            mov eax,[ebp+0xc]
00002B6E  89F1              mov ecx,esi
00002B70  884C2418          mov [esp+0x18],cl
00002B74  8B5514            mov edx,[ebp+0x14]
00002B77  8954240C          mov [esp+0xc],edx
00002B7B  8B5518            mov edx,[ebp+0x18]
00002B7E  89542410          mov [esp+0x10],edx
00002B82  8B551C            mov edx,[ebp+0x1c]
00002B85  89542414          mov [esp+0x14],edx
00002B89  8B55E4            mov edx,[ebp-0x1c]
00002B8C  89542408          mov [esp+0x8],edx
00002B90  89442404          mov [esp+0x4],eax
00002B94  8B4508            mov eax,[ebp+0x8]
00002B97  890424            mov [esp],eax
00002B9A  E862030000        call 0x2f01
00002B9F  EB0A              jmp short 0x2bab
00002BA1  EB00              jmp short 0x2ba3
00002BA3  890424            mov [esp],eax
00002BA6  E8A5DDFFFF        call 0x100000950
00002BAB  8D65F4            lea esp,[ebp-0xc]
00002BAE  5B                pop ebx
00002BAF  5E                pop esi
00002BB0  5F                pop edi
00002BB1  5D                pop ebp
00002BB2  C3                ret
00002BB3  55                push ebp
00002BB4  89E5              mov ebp,esp
00002BB6  83EC18            sub esp,byte +0x18
00002BB9  8B4510            mov eax,[ebp+0x10]
00002BBC  89442408          mov [esp+0x8],eax
00002BC0  8B450C            mov eax,[ebp+0xc]
00002BC3  89442404          mov [esp+0x4],eax
00002BC7  8B4508            mov eax,[ebp+0x8]
00002BCA  890424            mov [esp],eax
00002BCD  E89C070000        call 0x336e
00002BD2  C9                leave
00002BD3  C3                ret
00002BD4  55                push ebp
00002BD5  89E5              mov ebp,esp
00002BD7  56                push esi
00002BD8  53                push ebx
00002BD9  83EC30            sub esp,byte +0x30
00002BDC  8B4508            mov eax,[ebp+0x8]
00002BDF  8B5004            mov edx,[eax+0x4]
00002BE2  8B4508            mov eax,[ebp+0x8]
00002BE5  8B4008            mov eax,[eax+0x8]
00002BE8  39C2              cmp edx,eax
00002BEA  0F8495000000      jz near 0x2c85
00002BF0  8B4508            mov eax,[ebp+0x8]
00002BF3  8B4004            mov eax,[eax+0x4]
00002BF6  8D48F4            lea ecx,[eax-0xc]
00002BF9  8B4508            mov eax,[ebp+0x8]
00002BFC  8B5004            mov edx,[eax+0x4]
00002BFF  8B4508            mov eax,[ebp+0x8]
00002C02  894C2408          mov [esp+0x8],ecx
00002C06  89542404          mov [esp+0x4],edx
00002C0A  890424            mov [esp],eax
00002C0D  E8A1FFFFFF        call 0x100002bb3
00002C12  8B4508            mov eax,[ebp+0x8]
00002C15  8B4004            mov eax,[eax+0x4]
00002C18  8D500C            lea edx,[eax+0xc]
00002C1B  8B4508            mov eax,[ebp+0x8]
00002C1E  895004            mov [eax+0x4],edx
00002C21  8B4510            mov eax,[ebp+0x10]
00002C24  8B10              mov edx,[eax]
00002C26  8955D8            mov [ebp-0x28],edx
00002C29  8B5004            mov edx,[eax+0x4]
00002C2C  8955DC            mov [ebp-0x24],edx
00002C2F  8B4008            mov eax,[eax+0x8]
00002C32  8945E0            mov [ebp-0x20],eax
00002C35  8B4508            mov eax,[ebp+0x8]
00002C38  8B4004            mov eax,[eax+0x4]
00002C3B  8D70F4            lea esi,[eax-0xc]
00002C3E  8B4508            mov eax,[ebp+0x8]
00002C41  8B4004            mov eax,[eax+0x4]
00002C44  8D58E8            lea ebx,[eax-0x18]
00002C47  8D450C            lea eax,[ebp+0xc]
00002C4A  890424            mov [esp],eax
00002C4D  E8FA060000        call 0x334c
00002C52  8B00              mov eax,[eax]
00002C54  89742408          mov [esp+0x8],esi
00002C58  895C2404          mov [esp+0x4],ebx
00002C5C  890424            mov [esp],eax
00002C5F  E83C070000        call 0x33a0
00002C64  8D450C            lea eax,[ebp+0xc]
00002C67  890424            mov [esp],eax
00002C6A  E83DFDFFFF        call 0x1000029ac
00002C6F  8B55D8            mov edx,[ebp-0x28]
00002C72  8910              mov [eax],edx
00002C74  8B55DC            mov edx,[ebp-0x24]
00002C77  895004            mov [eax+0x4],edx
00002C7A  8B55E0            mov edx,[ebp-0x20]
00002C7D  895008            mov [eax+0x8],edx
00002C80  E93A020000        jmp 0x2ebf
00002C85  C74424080ABE0408  mov dword [esp+0x8],0x804be0a
00002C8D  C744240401000000  mov dword [esp+0x4],0x1
00002C95  8B4508            mov eax,[ebp+0x8]
00002C98  890424            mov [esp],eax
00002C9B  E838070000        call 0x33d8
00002CA0  8945F0            mov [ebp-0x10],eax
00002CA3  8D45E4            lea eax,[ebp-0x1c]
00002CA6  8B5508            mov edx,[ebp+0x8]
00002CA9  89542404          mov [esp+0x4],edx
00002CAD  890424            mov [esp],eax
00002CB0  E8C9F5FFFF        call 0x10000227e
00002CB5  83EC04            sub esp,byte +0x4
00002CB8  8D45E4            lea eax,[ebp-0x1c]
00002CBB  89442404          mov [esp+0x4],eax
00002CBF  8D450C            lea eax,[ebp+0xc]
00002CC2  890424            mov [esp],eax
00002CC5  E855FCFFFF        call 0x10000291f
00002CCA  8945EC            mov [ebp-0x14],eax
00002CCD  8B4508            mov eax,[ebp+0x8]
00002CD0  8B55F0            mov edx,[ebp-0x10]
00002CD3  89542404          mov [esp+0x4],edx
00002CD7  890424            mov [esp],eax
00002CDA  E89D070000        call 0x347c
00002CDF  8945E8            mov [ebp-0x18],eax
00002CE2  8B45E8            mov eax,[ebp-0x18]
00002CE5  8945F4            mov [ebp-0xc],eax
00002CE8  8B55EC            mov edx,[ebp-0x14]
00002CEB  89D0              mov eax,edx
00002CED  01C0              add eax,eax
00002CEF  01D0              add eax,edx
00002CF1  C1E002            shl eax,0x2
00002CF4  89C2              mov edx,eax
00002CF6  8B45E8            mov eax,[ebp-0x18]
00002CF9  8D0C02            lea ecx,[edx+eax]
00002CFC  8B4508            mov eax,[ebp+0x8]
00002CFF  8B5510            mov edx,[ebp+0x10]
00002D02  89542408          mov [esp+0x8],edx
00002D06  894C2404          mov [esp+0x4],ecx
00002D0A  890424            mov [esp],eax
00002D0D  E8A1FEFFFF        call 0x100002bb3
00002D12  C745F400000000    mov dword [ebp-0xc],0x0
00002D19  8B4508            mov eax,[ebp+0x8]
00002D1C  890424            mov [esp],eax
00002D1F  E880F4FFFF        call 0x1000021a4
00002D24  89C3              mov ebx,eax
00002D26  8D450C            lea eax,[ebp+0xc]
00002D29  890424            mov [esp],eax
00002D2C  E81B060000        call 0x334c
00002D31  8B10              mov edx,[eax]
00002D33  8B4508            mov eax,[ebp+0x8]
00002D36  8B00              mov eax,[eax]
00002D38  895C240C          mov [esp+0xc],ebx
00002D3C  8B4DE8            mov ecx,[ebp-0x18]
00002D3F  894C2408          mov [esp+0x8],ecx
00002D43  89542404          mov [esp+0x4],edx
00002D47  890424            mov [esp],eax
00002D4A  E85C070000        call 0x34ab
00002D4F  8945F4            mov [ebp-0xc],eax
00002D52  8345F40C          add dword [ebp-0xc],byte +0xc
00002D56  8B4508            mov eax,[ebp+0x8]
00002D59  890424            mov [esp],eax
00002D5C  E843F4FFFF        call 0x1000021a4
00002D61  89C3              mov ebx,eax
00002D63  8B4508            mov eax,[ebp+0x8]
00002D66  8B7004            mov esi,[eax+0x4]
00002D69  8D450C            lea eax,[ebp+0xc]
00002D6C  890424            mov [esp],eax
00002D6F  E8D8050000        call 0x334c
00002D74  8B00              mov eax,[eax]
00002D76  895C240C          mov [esp+0xc],ebx
00002D7A  8B55F4            mov edx,[ebp-0xc]
00002D7D  89542408          mov [esp+0x8],edx
00002D81  89742404          mov [esp+0x4],esi
00002D85  890424            mov [esp],eax
00002D88  E81E070000        call 0x34ab
00002D8D  8945F4            mov [ebp-0xc],eax
00002D90  8B4508            mov eax,[ebp+0x8]
00002D93  890424            mov [esp],eax
00002D96  E809F4FFFF        call 0x1000021a4
00002D9B  8B5508            mov edx,[ebp+0x8]
00002D9E  8B4A04            mov ecx,[edx+0x4]
00002DA1  8B5508            mov edx,[ebp+0x8]
00002DA4  8B12              mov edx,[edx]
00002DA6  89442408          mov [esp+0x8],eax
00002DAA  894C2404          mov [esp+0x4],ecx
00002DAE  891424            mov [esp],edx
00002DB1  E8F6F3FFFF        call 0x1000021ac
00002DB6  8B4508            mov eax,[ebp+0x8]
00002DB9  8B4008            mov eax,[eax+0x8]
00002DBC  89C2              mov edx,eax
00002DBE  8B4508            mov eax,[ebp+0x8]
00002DC1  8B00              mov eax,[eax]
00002DC3  29C2              sub edx,eax
00002DC5  89D0              mov eax,edx
00002DC7  C1F802            sar eax,0x2
00002DCA  89C2              mov edx,eax
00002DCC  89D0              mov eax,edx
00002DCE  C1E002            shl eax,0x2
00002DD1  01D0              add eax,edx
00002DD3  89C1              mov ecx,eax
00002DD5  C1E104            shl ecx,0x4
00002DD8  01C8              add eax,ecx
00002DDA  89C1              mov ecx,eax
00002DDC  C1E108            shl ecx,0x8
00002DDF  01C8              add eax,ecx
00002DE1  89C1              mov ecx,eax
00002DE3  C1E110            shl ecx,0x10
00002DE6  01C8              add eax,ecx
00002DE8  01C0              add eax,eax
00002DEA  01D0              add eax,edx
00002DEC  89C1              mov ecx,eax
00002DEE  8B4508            mov eax,[ebp+0x8]
00002DF1  8B10              mov edx,[eax]
00002DF3  8B4508            mov eax,[ebp+0x8]
00002DF6  894C2408          mov [esp+0x8],ecx
00002DFA  89542404          mov [esp+0x4],edx
00002DFE  890424            mov [esp],eax
00002E01  E8C0F9FFFF        call 0x1000027c6
00002E06  8B4508            mov eax,[ebp+0x8]
00002E09  8B55E8            mov edx,[ebp-0x18]
00002E0C  8910              mov [eax],edx
00002E0E  8B4508            mov eax,[ebp+0x8]
00002E11  8B55F4            mov edx,[ebp-0xc]
00002E14  895004            mov [eax+0x4],edx
00002E17  8B55F0            mov edx,[ebp-0x10]
00002E1A  89D0              mov eax,edx
00002E1C  01C0              add eax,eax
00002E1E  01D0              add eax,edx
00002E20  C1E002            shl eax,0x2
00002E23  89C2              mov edx,eax
00002E25  8B45E8            mov eax,[ebp-0x18]
00002E28  01C2              add edx,eax
00002E2A  8B4508            mov eax,[ebp+0x8]
00002E2D  895008            mov [eax+0x8],edx
00002E30  E98A000000        jmp 0x2ebf
00002E35  890424            mov [esp],eax
00002E38  E813DBFFFF        call 0x100000950
00002E3D  89C3              mov ebx,eax
00002E3F  E8BCDAFFFF        call 0x100000900
00002E44  89D8              mov eax,ebx
00002E46  890424            mov [esp],eax
00002E49  E802DBFFFF        call 0x100000950
00002E4E  890424            mov [esp],eax
00002E51  E8DADAFFFF        call 0x100000930
00002E56  837DF400          cmp dword [ebp-0xc],byte +0x0
00002E5A  7524              jnz 0x2e80
00002E5C  8B55EC            mov edx,[ebp-0x14]
00002E5F  89D0              mov eax,edx
00002E61  01C0              add eax,eax
00002E63  01D0              add eax,edx
00002E65  C1E002            shl eax,0x2
00002E68  89C2              mov edx,eax
00002E6A  8B45E8            mov eax,[ebp-0x18]
00002E6D  01C2              add edx,eax
00002E6F  8B4508            mov eax,[ebp+0x8]
00002E72  89542404          mov [esp+0x4],edx
00002E76  890424            mov [esp],eax
00002E79  E8AA020000        call 0x3128
00002E7E  EB21              jmp short 0x2ea1
00002E80  8B4508            mov eax,[ebp+0x8]
00002E83  890424            mov [esp],eax
00002E86  E819F3FFFF        call 0x1000021a4
00002E8B  89442408          mov [esp+0x8],eax
00002E8F  8B45F4            mov eax,[ebp-0xc]
00002E92  89442404          mov [esp+0x4],eax
00002E96  8B45E8            mov eax,[ebp-0x18]
00002E99  890424            mov [esp],eax
00002E9C  E80BF3FFFF        call 0x1000021ac
00002EA1  8B4508            mov eax,[ebp+0x8]
00002EA4  8B55F0            mov edx,[ebp-0x10]
00002EA7  89542408          mov [esp+0x8],edx
00002EAB  8B55E8            mov edx,[ebp-0x18]
00002EAE  89542404          mov [esp+0x4],edx
00002EB2  890424            mov [esp],eax
00002EB5  E80CF9FFFF        call 0x1000027c6
00002EBA  E8B1D9FFFF        call 0x100000870
00002EBF  8D65F8            lea esp,[ebp-0x8]
00002EC2  5B                pop ebx
00002EC3  5E                pop esi
00002EC4  5D                pop ebp
00002EC5  C3                ret
00002EC6  55                push ebp
00002EC7  89E5              mov ebp,esp
00002EC9  83EC28            sub esp,byte +0x28
00002ECC  8B450C            mov eax,[ebp+0xc]
00002ECF  8B08              mov ecx,[eax]
00002ED1  8B4510            mov eax,[ebp+0x10]
00002ED4  8B00              mov eax,[eax]
00002ED6  89C2              mov edx,eax
00002ED8  89D0              mov eax,edx
00002EDA  01C0              add eax,eax
00002EDC  01D0              add eax,edx
00002EDE  C1E002            shl eax,0x2
00002EE1  F7D8              neg eax
00002EE3  01C8              add eax,ecx
00002EE5  8945F4            mov [ebp-0xc],eax
00002EE8  8D45F4            lea eax,[ebp-0xc]
00002EEB  89442404          mov [esp+0x4],eax
00002EEF  8B4508            mov eax,[ebp+0x8]
00002EF2  890424            mov [esp],eax
00002EF5  E816FAFFFF        call 0x100002910
00002EFA  8B4508            mov eax,[ebp+0x8]
00002EFD  C9                leave
00002EFE  C20400            ret 0x4
00002F01  55                push ebp
00002F02  89E5              mov ebp,esp
00002F04  57                push edi
00002F05  56                push esi
00002F06  53                push ebx
00002F07  83EC3C            sub esp,byte +0x3c
00002F0A  8B450C            mov eax,[ebp+0xc]
00002F0D  48                dec eax
00002F0E  89C2              mov edx,eax
00002F10  C1EA1F            shr edx,0x1f
00002F13  01D0              add eax,edx
00002F15  D1F8              sar eax,1
00002F17  8945D4            mov [ebp-0x2c],eax
00002F1A  EB76              jmp short 0x2f92
00002F1C  8D45D8            lea eax,[ebp-0x28]
00002F1F  8D550C            lea edx,[ebp+0xc]
00002F22  89542408          mov [esp+0x8],edx
00002F26  8D4D08            lea ecx,[ebp+0x8]
00002F29  894C2404          mov [esp+0x4],ecx
00002F2D  890424            mov [esp],eax
00002F30  E83DFAFFFF        call 0x100002972
00002F35  83EC04            sub esp,byte +0x4
00002F38  8D45D8            lea eax,[ebp-0x28]
00002F3B  890424            mov [esp],eax
00002F3E  E869FAFFFF        call 0x1000029ac
00002F43  89C3              mov ebx,eax
00002F45  8D45DC            lea eax,[ebp-0x24]
00002F48  8D55D4            lea edx,[ebp-0x2c]
00002F4B  89542408          mov [esp+0x8],edx
00002F4F  8D7508            lea esi,[ebp+0x8]
00002F52  89742404          mov [esp+0x4],esi
00002F56  890424            mov [esp],eax
00002F59  E814FAFFFF        call 0x100002972
00002F5E  83EC04            sub esp,byte +0x4
00002F61  8D45DC            lea eax,[ebp-0x24]
00002F64  890424            mov [esp],eax
00002F67  E840FAFFFF        call 0x1000029ac
00002F6C  8B10              mov edx,[eax]
00002F6E  8913              mov [ebx],edx
00002F70  8B5004            mov edx,[eax+0x4]
00002F73  895304            mov [ebx+0x4],edx
00002F76  8B4008            mov eax,[eax+0x8]
00002F79  894308            mov [ebx+0x8],eax
00002F7C  8B45D4            mov eax,[ebp-0x2c]
00002F7F  89450C            mov [ebp+0xc],eax
00002F82  8B450C            mov eax,[ebp+0xc]
00002F85  48                dec eax
00002F86  89C2              mov edx,eax
00002F88  C1EA1F            shr edx,0x1f
00002F8B  01D0              add eax,edx
00002F8D  D1F8              sar eax,1
00002F8F  8945D4            mov [ebp-0x2c],eax
00002F92  B300              mov bl,0x0
00002F94  8B450C            mov eax,[ebp+0xc]
00002F97  3B4510            cmp eax,[ebp+0x10]
00002F9A  7E47              jng 0x2fe3
00002F9C  8D45E0            lea eax,[ebp-0x20]
00002F9F  8D55D4            lea edx,[ebp-0x2c]
00002FA2  89542408          mov [esp+0x8],edx
00002FA6  8D7D08            lea edi,[ebp+0x8]
00002FA9  897C2404          mov [esp+0x4],edi
00002FAD  890424            mov [esp],eax
00002FB0  E8BDF9FFFF        call 0x100002972
00002FB5  83EC04            sub esp,byte +0x4
00002FB8  B301              mov bl,0x1
00002FBA  8D45E0            lea eax,[ebp-0x20]
00002FBD  890424            mov [esp],eax
00002FC0  E8E7F9FFFF        call 0x1000029ac
00002FC5  8D5514            lea edx,[ebp+0x14]
00002FC8  89542408          mov [esp+0x8],edx
00002FCC  89442404          mov [esp+0x4],eax
00002FD0  8D4520            lea eax,[ebp+0x20]
00002FD3  890424            mov [esp],eax
00002FD6  E879030000        call 0x3354
00002FDB  84C0              test al,al
00002FDD  7404              jz 0x2fe3
00002FDF  B001              mov al,0x1
00002FE1  EB02              jmp short 0x2fe5
00002FE3  B000              mov al,0x0
00002FE5  84DB              test bl,bl
00002FE7  84C0              test al,al
00002FE9  0F852DFFFFFF      jnz near 0x100002f1c
00002FEF  8D45E4            lea eax,[ebp-0x1c]
00002FF2  8D550C            lea edx,[ebp+0xc]
00002FF5  89542408          mov [esp+0x8],edx
00002FF9  8D4D08            lea ecx,[ebp+0x8]
00002FFC  894C2404          mov [esp+0x4],ecx
00003000  890424            mov [esp],eax
00003003  E86AF9FFFF        call 0x100002972
00003008  83EC04            sub esp,byte +0x4
0000300B  8D45E4            lea eax,[ebp-0x1c]
0000300E  890424            mov [esp],eax
00003011  E896F9FFFF        call 0x1000029ac
00003016  8B5514            mov edx,[ebp+0x14]
00003019  8910              mov [eax],edx
0000301B  8B5518            mov edx,[ebp+0x18]
0000301E  895004            mov [eax+0x4],edx
00003021  8B551C            mov edx,[ebp+0x1c]
00003024  895008            mov [eax+0x8],edx
00003027  EB0B              jmp short 0x3034
00003029  84DB              test bl,bl
0000302B  90                nop
0000302C  890424            mov [esp],eax
0000302F  E81CD9FFFF        call 0x100000950
00003034  8D65F4            lea esp,[ebp-0xc]
00003037  5B                pop ebx
00003038  5E                pop esi
00003039  5F                pop edi
0000303A  5D                pop ebp
0000303B  C3                ret
0000303C  55                push ebp
0000303D  89E5              mov ebp,esp
0000303F  53                push ebx
00003040  83EC14            sub esp,byte +0x14
00003043  8B4508            mov eax,[ebp+0x8]
00003046  890424            mov [esp],eax
00003049  E886040000        call 0x34d4
0000304E  8B18              mov ebx,[eax]
00003050  8B450C            mov eax,[ebp+0xc]
00003053  890424            mov [esp],eax
00003056  E879040000        call 0x34d4
0000305B  8B00              mov eax,[eax]
0000305D  39C3              cmp ebx,eax
0000305F  0F94C0            setz al
00003062  83C414            add esp,byte +0x14
00003065  5B                pop ebx
00003066  5D                pop ebp
00003067  C3                ret
00003068  55                push ebp
00003069  89E5              mov ebp,esp
0000306B  8B4508            mov eax,[ebp+0x8]
0000306E  8B00              mov eax,[eax]
00003070  5D                pop ebp
00003071  C3                ret
00003072  55                push ebp
00003073  89E5              mov ebp,esp
00003075  8B4508            mov eax,[ebp+0x8]
00003078  8B00              mov eax,[eax]
0000307A  8D50F4            lea edx,[eax-0xc]
0000307D  8B4508            mov eax,[ebp+0x8]
00003080  8910              mov [eax],edx
00003082  8B4508            mov eax,[ebp+0x8]
00003085  5D                pop ebp
00003086  C3                ret
00003087  55                push ebp
00003088  89E5              mov ebp,esp
0000308A  56                push esi
0000308B  53                push ebx
0000308C  83EC30            sub esp,byte +0x30
0000308F  8D4510            lea eax,[ebp+0x10]
00003092  890424            mov [esp],eax
00003095  E812F9FFFF        call 0x1000029ac
0000309A  8B10              mov edx,[eax]
0000309C  8955EC            mov [ebp-0x14],edx
0000309F  8B5004            mov edx,[eax+0x4]
000030A2  8955F0            mov [ebp-0x10],edx
000030A5  8B4008            mov eax,[eax+0x8]
000030A8  8945F4            mov [ebp-0xc],eax
000030AB  8D4510            lea eax,[ebp+0x10]
000030AE  890424            mov [esp],eax
000030B1  E8F6F8FFFF        call 0x1000029ac
000030B6  89C3              mov ebx,eax
000030B8  8D4508            lea eax,[ebp+0x8]
000030BB  890424            mov [esp],eax
000030BE  E8E9F8FFFF        call 0x1000029ac
000030C3  8B10              mov edx,[eax]
000030C5  8913              mov [ebx],edx
000030C7  8B5004            mov edx,[eax+0x4]
000030CA  895304            mov [ebx+0x4],edx
000030CD  8B4008            mov eax,[eax+0x8]
000030D0  894308            mov [ebx+0x8],eax
000030D3  8D4508            lea eax,[ebp+0x8]
000030D6  89442404          mov [esp+0x4],eax
000030DA  8D450C            lea eax,[ebp+0xc]
000030DD  890424            mov [esp],eax
000030E0  E83AF8FFFF        call 0x10000291f
000030E5  89F1              mov ecx,esi
000030E7  884C2418          mov [esp+0x18],cl
000030EB  8B55EC            mov edx,[ebp-0x14]
000030EE  8954240C          mov [esp+0xc],edx
000030F2  8B55F0            mov edx,[ebp-0x10]
000030F5  89542410          mov [esp+0x10],edx
000030F9  8B55F4            mov edx,[ebp-0xc]
000030FC  89542414          mov [esp+0x14],edx
00003100  89442408          mov [esp+0x8],eax
00003104  C744240400000000  mov dword [esp+0x4],0x0
0000310C  8B4508            mov eax,[ebp+0x8]
0000310F  890424            mov [esp],eax
00003112  E89FF8FFFF        call 0x1000029b6
00003117  EB08              jmp short 0x3121
00003119  890424            mov [esp],eax
0000311C  E82FD8FFFF        call 0x100000950
00003121  83C430            add esp,byte +0x30
00003124  5B                pop ebx
00003125  5E                pop esi
00003126  5D                pop ebp
00003127  C3                ret
00003128  55                push ebp
00003129  89E5              mov ebp,esp
0000312B  83EC18            sub esp,byte +0x18
0000312E  8B450C            mov eax,[ebp+0xc]
00003131  89442404          mov [esp+0x4],eax
00003135  8B4508            mov eax,[ebp+0x8]
00003138  890424            mov [esp],eax
0000313B  E89C030000        call 0x34dc
00003140  C9                leave
00003141  C3                ret
00003142  55                push ebp
00003143  89E5              mov ebp,esp
00003145  83EC18            sub esp,byte +0x18
00003148  8B450C            mov eax,[ebp+0xc]
0000314B  89442404          mov [esp+0x4],eax
0000314F  8B4508            mov eax,[ebp+0x8]
00003152  890424            mov [esp],eax
00003155  E888030000        call 0x34e2
0000315A  C9                leave
0000315B  C3                ret
0000315C  55                push ebp
0000315D  89E5              mov ebp,esp
0000315F  83EC18            sub esp,byte +0x18
00003162  8B450C            mov eax,[ebp+0xc]
00003165  890424            mov [esp],eax
00003168  E8F3D6FFFF        call 0x100000860
0000316D  C9                leave
0000316E  C3                ret
0000316F  55                push ebp
00003170  89E5              mov ebp,esp
00003172  83EC18            sub esp,byte +0x18
00003175  8B4510            mov eax,[ebp+0x10]
00003178  89442408          mov [esp+0x8],eax
0000317C  8B450C            mov eax,[ebp+0xc]
0000317F  89442404          mov [esp+0x4],eax
00003183  8B4508            mov eax,[ebp+0x8]
00003186  890424            mov [esp],eax
00003189  E859030000        call 0x34e7
0000318E  C9                leave
0000318F  C3                ret
00003190  55                push ebp
00003191  89E5              mov ebp,esp
00003193  5D                pop ebp
00003194  C3                ret
00003195  90                nop
00003196  55                push ebp
00003197  89E5              mov ebp,esp
00003199  83EC18            sub esp,byte +0x18
0000319C  8B450C            mov eax,[ebp+0xc]
0000319F  89442404          mov [esp+0x4],eax
000031A3  8B4508            mov eax,[ebp+0x8]
000031A6  890424            mov [esp],eax
000031A9  E85A030000        call 0x3508
000031AE  C9                leave
000031AF  C3                ret
000031B0  55                push ebp
000031B1  89E5              mov ebp,esp
000031B3  83EC18            sub esp,byte +0x18
000031B6  837D0C00          cmp dword [ebp+0xc],byte +0x0
000031BA  741C              jz 0x31d8
000031BC  8B4508            mov eax,[ebp+0x8]
000031BF  C744240800000000  mov dword [esp+0x8],0x0
000031C7  8B550C            mov edx,[ebp+0xc]
000031CA  89542404          mov [esp+0x4],edx
000031CE  890424            mov [esp],eax
000031D1  E838030000        call 0x350e
000031D6  EB05              jmp short 0x31dd
000031D8  B800000000        mov eax,0x0
000031DD  C9                leave
000031DE  C3                ret
000031DF  90                nop
000031E0  55                push ebp
000031E1  89E5              mov ebp,esp
000031E3  83EC18            sub esp,byte +0x18
000031E6  8B450C            mov eax,[ebp+0xc]
000031E9  890424            mov [esp],eax
000031EC  E86FD6FFFF        call 0x100000860
000031F1  C9                leave
000031F2  C3                ret
000031F3  55                push ebp
000031F4  89E5              mov ebp,esp
000031F6  83EC18            sub esp,byte +0x18
000031F9  8B4510            mov eax,[ebp+0x10]
000031FC  89442408          mov [esp+0x8],eax
00003200  8B450C            mov eax,[ebp+0xc]
00003203  89442404          mov [esp+0x4],eax
00003207  8B4508            mov eax,[ebp+0x8]
0000320A  890424            mov [esp],eax
0000320D  E832030000        call 0x3544
00003212  C9                leave
00003213  C3                ret
00003214  55                push ebp
00003215  89E5              mov ebp,esp
00003217  83EC18            sub esp,byte +0x18
0000321A  EB17              jmp short 0x3233
0000321C  8B4508            mov eax,[ebp+0x8]
0000321F  890424            mov [esp],eax
00003222  E88B030000        call 0x35b2
00003227  890424            mov [esp],eax
0000322A  E88B030000        call 0x35ba
0000322F  8345080C          add dword [ebp+0x8],byte +0xc
00003233  8B4508            mov eax,[ebp+0x8]
00003236  3B450C            cmp eax,[ebp+0xc]
00003239  75E1              jnz 0x321c
0000323B  C9                leave
0000323C  C3                ret
0000323D  90                nop
0000323E  55                push ebp
0000323F  89E5              mov ebp,esp
00003241  83EC18            sub esp,byte +0x18
00003244  8B4508            mov eax,[ebp+0x8]
00003247  890424            mov [esp],eax
0000324A  E87F030000        call 0x35ce
0000324F  3B450C            cmp eax,[ebp+0xc]
00003252  0F92C0            setc al
00003255  84C0              test al,al
00003257  7405              jz 0x325e
00003259  E8B2D6FFFF        call 0x100000910
0000325E  8B450C            mov eax,[ebp+0xc]
00003261  C1E002            shl eax,0x2
00003264  890424            mov [esp],eax
00003267  E854D6FFFF        call 0x1000008c0
0000326C  C9                leave
0000326D  C3                ret
0000326E  55                push ebp
0000326F  89E5              mov ebp,esp
00003271  83EC18            sub esp,byte +0x18
00003274  8B4508            mov eax,[ebp+0x8]
00003277  890424            mov [esp],eax
0000327A  E859030000        call 0x35d8
0000327F  C9                leave
00003280  C3                ret
00003281  90                nop
00003282  55                push ebp
00003283  89E5              mov ebp,esp
00003285  5D                pop ebp
00003286  C3                ret
00003287  90                nop
00003288  55                push ebp
00003289  89E5              mov ebp,esp
0000328B  83EC18            sub esp,byte +0x18
0000328E  8B450C            mov eax,[ebp+0xc]
00003291  890424            mov [esp],eax
00003294  E8C7D5FFFF        call 0x100000860
00003299  C9                leave
0000329A  C3                ret
0000329B  55                push ebp
0000329C  89E5              mov ebp,esp
0000329E  5D                pop ebp
0000329F  C3                ret
000032A0  55                push ebp
000032A1  89E5              mov ebp,esp
000032A3  83EC18            sub esp,byte +0x18
000032A6  8B450C            mov eax,[ebp+0xc]
000032A9  89442404          mov [esp+0x4],eax
000032AD  8B4508            mov eax,[ebp+0x8]
000032B0  890424            mov [esp],eax
000032B3  E826030000        call 0x35de
000032B8  8B4508            mov eax,[ebp+0x8]
000032BB  C70000000000      mov dword [eax],0x0
000032C1  8B4508            mov eax,[ebp+0x8]
000032C4  C7400400000000    mov dword [eax+0x4],0x0
000032CB  8B4508            mov eax,[ebp+0x8]
000032CE  C7400800000000    mov dword [eax+0x8],0x0
000032D5  C9                leave
000032D6  C3                ret
000032D7  90                nop
000032D8  55                push ebp
000032D9  89E5              mov ebp,esp
000032DB  83EC18            sub esp,byte +0x18
000032DE  8B450C            mov eax,[ebp+0xc]
000032E1  89442404          mov [esp+0x4],eax
000032E5  8B4508            mov eax,[ebp+0x8]
000032E8  890424            mov [esp],eax
000032EB  E88C010000        call 0x347c
000032F0  8B5508            mov edx,[ebp+0x8]
000032F3  8902              mov [edx],eax
000032F5  8B4508            mov eax,[ebp+0x8]
000032F8  8B10              mov edx,[eax]
000032FA  8B4508            mov eax,[ebp+0x8]
000032FD  895004            mov [eax+0x4],edx
00003300  8B4508            mov eax,[ebp+0x8]
00003303  8B08              mov ecx,[eax]
00003305  8B550C            mov edx,[ebp+0xc]
00003308  89D0              mov eax,edx
0000330A  01C0              add eax,eax
0000330C  01D0              add eax,edx
0000330E  C1E002            shl eax,0x2
00003311  8D1401            lea edx,[ecx+eax]
00003314  8B4508            mov eax,[ebp+0x8]
00003317  895008            mov [eax+0x8],edx
0000331A  C9                leave
0000331B  C3                ret
0000331C  55                push ebp
0000331D  89E5              mov ebp,esp
0000331F  8B450C            mov eax,[ebp+0xc]
00003322  8B10              mov edx,[eax]
00003324  8B4508            mov eax,[ebp+0x8]
00003327  8910              mov [eax],edx
00003329  5D                pop ebp
0000332A  C3                ret
0000332B  55                push ebp
0000332C  89E5              mov ebp,esp
0000332E  83EC18            sub esp,byte +0x18
00003331  8B4510            mov eax,[ebp+0x10]
00003334  89442408          mov [esp+0x8],eax
00003338  8B450C            mov eax,[ebp+0xc]
0000333B  89442404          mov [esp+0x4],eax
0000333F  8B4508            mov eax,[ebp+0x8]
00003342  890424            mov [esp],eax
00003345  E8AE020000        call 0x35f8
0000334A  C9                leave
0000334B  C3                ret
0000334C  55                push ebp
0000334D  89E5              mov ebp,esp
0000334F  8B4508            mov eax,[ebp+0x8]
00003352  5D                pop ebp
00003353  C3                ret
00003354  55                push ebp
00003355  89E5              mov ebp,esp
00003357  83EC18            sub esp,byte +0x18
0000335A  8B4510            mov eax,[ebp+0x10]
0000335D  89442404          mov [esp+0x4],eax
00003361  8B450C            mov eax,[ebp+0xc]
00003364  890424            mov [esp],eax
00003367  E8ED020000        call 0x3659
0000336C  C9                leave
0000336D  C3                ret
0000336E  55                push ebp
0000336F  89E5              mov ebp,esp
00003371  83EC18            sub esp,byte +0x18
00003374  8B450C            mov eax,[ebp+0xc]
00003377  89442404          mov [esp+0x4],eax
0000337B  C704240C000000    mov dword [esp],0xc
00003382  E8C8E4FFFF        call 0x10000184f
00003387  85C0              test eax,eax
00003389  7413              jz 0x339e
0000338B  8B5510            mov edx,[ebp+0x10]
0000338E  8B0A              mov ecx,[edx]
00003390  8908              mov [eax],ecx
00003392  8B4A04            mov ecx,[edx+0x4]
00003395  894804            mov [eax+0x4],ecx
00003398  8B5208            mov edx,[edx+0x8]
0000339B  895008            mov [eax+0x8],edx
0000339E  C9                leave
0000339F  C3                ret
000033A0  55                push ebp
000033A1  89E5              mov ebp,esp
000033A3  53                push ebx
000033A4  83EC14            sub esp,byte +0x14
000033A7  8B450C            mov eax,[ebp+0xc]
000033AA  890424            mov [esp],eax
000033AD  E8C1020000        call 0x3673
000033B2  89C3              mov ebx,eax
000033B4  8B4508            mov eax,[ebp+0x8]
000033B7  890424            mov [esp],eax
000033BA  E8B4020000        call 0x3673
000033BF  8B5510            mov edx,[ebp+0x10]
000033C2  89542408          mov [esp+0x8],edx
000033C6  895C2404          mov [esp+0x4],ebx
000033CA  890424            mov [esp],eax
000033CD  E8B4020000        call 0x3686
000033D2  83C414            add esp,byte +0x14
000033D5  5B                pop ebx
000033D6  5D                pop ebp
000033D7  C3                ret
000033D8  55                push ebp
000033D9  89E5              mov ebp,esp
000033DB  53                push ebx
000033DC  83EC24            sub esp,byte +0x24
000033DF  8B4508            mov eax,[ebp+0x8]
000033E2  890424            mov [esp],eax
000033E5  E8E0020000        call 0x36ca
000033EA  89C3              mov ebx,eax
000033EC  8B4508            mov eax,[ebp+0x8]
000033EF  890424            mov [esp],eax
000033F2  E811F4FFFF        call 0x100002808
000033F7  89DA              mov edx,ebx
000033F9  29C2              sub edx,eax
000033FB  8B450C            mov eax,[ebp+0xc]
000033FE  39C2              cmp edx,eax
00003400  0F92C0            setc al
00003403  84C0              test al,al
00003405  740B              jz 0x3412
00003407  8B4510            mov eax,[ebp+0x10]
0000340A  890424            mov [esp],eax
0000340D  E8FED3FFFF        call 0x100000810
00003412  8B4508            mov eax,[ebp+0x8]
00003415  890424            mov [esp],eax
00003418  E8EBF3FFFF        call 0x100002808
0000341D  89C3              mov ebx,eax
0000341F  8B4508            mov eax,[ebp+0x8]
00003422  890424            mov [esp],eax
00003425  E8DEF3FFFF        call 0x100002808
0000342A  8945F0            mov [ebp-0x10],eax
0000342D  8D450C            lea eax,[ebp+0xc]
00003430  89442404          mov [esp+0x4],eax
00003434  8D45F0            lea eax,[ebp-0x10]
00003437  890424            mov [esp],eax
0000343A  E8A6020000        call 0x36e5
0000343F  8B00              mov eax,[eax]
00003441  01D8              add eax,ebx
00003443  8945F4            mov [ebp-0xc],eax
00003446  8B4508            mov eax,[ebp+0x8]
00003449  890424            mov [esp],eax
0000344C  E8B7F3FFFF        call 0x100002808
00003451  3B45F4            cmp eax,[ebp-0xc]
00003454  7710              ja 0x3466
00003456  8B4508            mov eax,[ebp+0x8]
00003459  890424            mov [esp],eax
0000345C  E869020000        call 0x36ca
00003461  3B45F4            cmp eax,[ebp-0xc]
00003464  730D              jnc 0x3473
00003466  8B4508            mov eax,[ebp+0x8]
00003469  890424            mov [esp],eax
0000346C  E859020000        call 0x36ca
00003471  EB03              jmp short 0x3476
00003473  8B45F4            mov eax,[ebp-0xc]
00003476  83C424            add esp,byte +0x24
00003479  5B                pop ebx
0000347A  5D                pop ebp
0000347B  C3                ret
0000347C  55                push ebp
0000347D  89E5              mov ebp,esp
0000347F  83EC18            sub esp,byte +0x18
00003482  837D0C00          cmp dword [ebp+0xc],byte +0x0
00003486  741C              jz 0x34a4
00003488  8B4508            mov eax,[ebp+0x8]
0000348B  C744240800000000  mov dword [esp+0x8],0x0
00003493  8B550C            mov edx,[ebp+0xc]
00003496  89542404          mov [esp+0x4],edx
0000349A  890424            mov [esp],eax
0000349D  E85E020000        call 0x3700
000034A2  EB05              jmp short 0x34a9
000034A4  B800000000        mov eax,0x0
000034A9  C9                leave
000034AA  C3                ret
000034AB  55                push ebp
000034AC  89E5              mov ebp,esp
000034AE  83EC18            sub esp,byte +0x18
000034B1  8B4514            mov eax,[ebp+0x14]
000034B4  8944240C          mov [esp+0xc],eax
000034B8  8B4510            mov eax,[ebp+0x10]
000034BB  89442408          mov [esp+0x8],eax
000034BF  8B450C            mov eax,[ebp+0xc]
000034C2  89442404          mov [esp+0x4],eax
000034C6  8B4508            mov eax,[ebp+0x8]
000034C9  890424            mov [esp],eax
000034CC  E865020000        call 0x3736
000034D1  C9                leave
000034D2  C3                ret
000034D3  90                nop
000034D4  55                push ebp
000034D5  89E5              mov ebp,esp
000034D7  8B4508            mov eax,[ebp+0x8]
000034DA  5D                pop ebp
000034DB  C3                ret
000034DC  55                push ebp
000034DD  89E5              mov ebp,esp
000034DF  5D                pop ebp
000034E0  C3                ret
000034E1  90                nop
000034E2  55                push ebp
000034E3  89E5              mov ebp,esp
000034E5  5D                pop ebp
000034E6  C3                ret
000034E7  55                push ebp
000034E8  89E5              mov ebp,esp
000034EA  83EC18            sub esp,byte +0x18
000034ED  8B4510            mov eax,[ebp+0x10]
000034F0  89442408          mov [esp+0x8],eax
000034F4  8B450C            mov eax,[ebp+0xc]
000034F7  89442404          mov [esp+0x4],eax
000034FB  8B4508            mov eax,[ebp+0x8]
000034FE  890424            mov [esp],eax
00003501  E851020000        call 0x3757
00003506  C9                leave
00003507  C3                ret
00003508  55                push ebp
00003509  89E5              mov ebp,esp
0000350B  5D                pop ebp
0000350C  C3                ret
0000350D  90                nop
0000350E  55                push ebp
0000350F  89E5              mov ebp,esp
00003511  83EC18            sub esp,byte +0x18
00003514  8B4508            mov eax,[ebp+0x8]
00003517  890424            mov [esp],eax
0000351A  E861020000        call 0x3780
0000351F  3B450C            cmp eax,[ebp+0xc]
00003522  0F92C0            setc al
00003525  84C0              test al,al
00003527  7405              jz 0x352e
00003529  E8E2D3FFFF        call 0x100000910
0000352E  8B550C            mov edx,[ebp+0xc]
00003531  89D0              mov eax,edx
00003533  01C0              add eax,eax
00003535  01D0              add eax,edx
00003537  C1E002            shl eax,0x2
0000353A  890424            mov [esp],eax
0000353D  E87ED3FFFF        call 0x1000008c0
00003542  C9                leave
00003543  C3                ret
00003544  55                push ebp
00003545  89E5              mov ebp,esp
00003547  53                push ebx
00003548  83EC24            sub esp,byte +0x24
0000354B  8B4508            mov eax,[ebp+0x8]
0000354E  8945F4            mov [ebp-0xc],eax
00003551  EB21              jmp short 0x3574
00003553  8B45F4            mov eax,[ebp-0xc]
00003556  890424            mov [esp],eax
00003559  E854000000        call 0x35b2
0000355E  8B5510            mov edx,[ebp+0x10]
00003561  89542404          mov [esp+0x4],edx
00003565  890424            mov [esp],eax
00003568  E81D020000        call 0x378a
0000356D  FF4D0C            dec dword [ebp+0xc]
00003570  8345F40C          add dword [ebp-0xc],byte +0xc
00003574  837D0C00          cmp dword [ebp+0xc],byte +0x0
00003578  75D9              jnz 0x3553
0000357A  EB30              jmp short 0x35ac
0000357C  89C3              mov ebx,eax
0000357E  E87DD3FFFF        call 0x100000900
00003583  89D8              mov eax,ebx
00003585  890424            mov [esp],eax
00003588  E8C3D3FFFF        call 0x100000950
0000358D  890424            mov [esp],eax
00003590  E89BD3FFFF        call 0x100000930
00003595  8B45F4            mov eax,[ebp-0xc]
00003598  89442404          mov [esp+0x4],eax
0000359C  8B4508            mov eax,[ebp+0x8]
0000359F  890424            mov [esp],eax
000035A2  E891F1FFFF        call 0x100002738
000035A7  E8C4D2FFFF        call 0x100000870
000035AC  83C424            add esp,byte +0x24
000035AF  5B                pop ebx
000035B0  5D                pop ebp
000035B1  C3                ret
000035B2  55                push ebp
000035B3  89E5              mov ebp,esp
000035B5  8B4508            mov eax,[ebp+0x8]
000035B8  5D                pop ebp
000035B9  C3                ret
000035BA  55                push ebp
000035BB  89E5              mov ebp,esp
000035BD  83EC18            sub esp,byte +0x18
000035C0  8B4508            mov eax,[ebp+0x8]
000035C3  890424            mov [esp],eax
000035C6  E8D1E4FFFF        call 0x100001a9c
000035CB  C9                leave
000035CC  C3                ret
000035CD  90                nop
000035CE  55                push ebp
000035CF  89E5              mov ebp,esp
000035D1  B8FFFFFF3F        mov eax,0x3fffffff
000035D6  5D                pop ebp
000035D7  C3                ret
000035D8  55                push ebp
000035D9  89E5              mov ebp,esp
000035DB  5D                pop ebp
000035DC  C3                ret
000035DD  90                nop
000035DE  55                push ebp
000035DF  89E5              mov ebp,esp
000035E1  83EC18            sub esp,byte +0x18
000035E4  8B450C            mov eax,[ebp+0xc]
000035E7  89442404          mov [esp+0x4],eax
000035EB  8B4508            mov eax,[ebp+0x8]
000035EE  890424            mov [esp],eax
000035F1  E8EA010000        call 0x37e0
000035F6  C9                leave
000035F7  C3                ret
000035F8  55                push ebp
000035F9  89E5              mov ebp,esp
000035FB  53                push ebx
000035FC  83EC24            sub esp,byte +0x24
000035FF  8B4510            mov eax,[ebp+0x10]
00003602  8945F4            mov [ebp-0xc],eax
00003605  EB33              jmp short 0x363a
00003607  8D4508            lea eax,[ebp+0x8]
0000360A  890424            mov [esp],eax
0000360D  E856FAFFFF        call 0x100003068
00003612  89C3              mov ebx,eax
00003614  8B45F4            mov eax,[ebp-0xc]
00003617  890424            mov [esp],eax
0000361A  E808020000        call 0x3827
0000361F  895C2404          mov [esp+0x4],ebx
00003623  890424            mov [esp],eax
00003626  E804020000        call 0x382f
0000362B  8D4508            lea eax,[ebp+0x8]
0000362E  890424            mov [esp],eax
00003631  E8DC010000        call 0x3812
00003636  8345F40C          add dword [ebp-0xc],byte +0xc
0000363A  8D450C            lea eax,[ebp+0xc]
0000363D  89442404          mov [esp+0x4],eax
00003641  8D4508            lea eax,[ebp+0x8]
00003644  890424            mov [esp],eax
00003647  E899010000        call 0x37e5
0000364C  84C0              test al,al
0000364E  75B7              jnz 0x3607
00003650  8B45F4            mov eax,[ebp-0xc]
00003653  83C424            add esp,byte +0x24
00003656  5B                pop ebx
00003657  5D                pop ebp
00003658  C3                ret
00003659  55                push ebp
0000365A  89E5              mov ebp,esp
0000365C  83EC18            sub esp,byte +0x18
0000365F  8B4508            mov eax,[ebp+0x8]
00003662  89442404          mov [esp+0x4],eax
00003666  8B450C            mov eax,[ebp+0xc]
00003669  890424            mov [esp],eax
0000366C  E8F0010000        call 0x3861
00003671  C9                leave
00003672  C3                ret
00003673  55                push ebp
00003674  89E5              mov ebp,esp
00003676  83EC18            sub esp,byte +0x18
00003679  8B4508            mov eax,[ebp+0x8]
0000367C  890424            mov [esp],eax
0000367F  E823020000        call 0x38a7
00003684  C9                leave
00003685  C3                ret
00003686  55                push ebp
00003687  89E5              mov ebp,esp
00003689  56                push esi
0000368A  53                push ebx
0000368B  83EC10            sub esp,byte +0x10
0000368E  8B4510            mov eax,[ebp+0x10]
00003691  890424            mov [esp],eax
00003694  E816020000        call 0x38af
00003699  89C6              mov esi,eax
0000369B  8B450C            mov eax,[ebp+0xc]
0000369E  890424            mov [esp],eax
000036A1  E809020000        call 0x38af
000036A6  89C3              mov ebx,eax
000036A8  8B4508            mov eax,[ebp+0x8]
000036AB  890424            mov [esp],eax
000036AE  E8FC010000        call 0x38af
000036B3  89742408          mov [esp+0x8],esi
000036B7  895C2404          mov [esp+0x4],ebx
000036BB  890424            mov [esp],eax
000036BE  E8FF010000        call 0x38c2
000036C3  83C410            add esp,byte +0x10
000036C6  5B                pop ebx
000036C7  5E                pop esi
000036C8  5D                pop ebp
000036C9  C3                ret
000036CA  55                push ebp
000036CB  89E5              mov ebp,esp
000036CD  83EC18            sub esp,byte +0x18
000036D0  8B4508            mov eax,[ebp+0x8]
000036D3  890424            mov [esp],eax
000036D6  E871F1FFFF        call 0x10000284c
000036DB  890424            mov [esp],eax
000036DE  E804020000        call 0x38e7
000036E3  C9                leave
000036E4  C3                ret
000036E5  55                push ebp
000036E6  89E5              mov ebp,esp
000036E8  8B4508            mov eax,[ebp+0x8]
000036EB  8B10              mov edx,[eax]
000036ED  8B450C            mov eax,[ebp+0xc]
000036F0  8B00              mov eax,[eax]
000036F2  39C2              cmp edx,eax
000036F4  7305              jnc 0x36fb
000036F6  8B450C            mov eax,[ebp+0xc]
000036F9  EB03              jmp short 0x36fe
000036FB  8B4508            mov eax,[ebp+0x8]
000036FE  5D                pop ebp
000036FF  C3                ret
00003700  55                push ebp
00003701  89E5              mov ebp,esp
00003703  83EC18            sub esp,byte +0x18
00003706  8B4508            mov eax,[ebp+0x8]
00003709  890424            mov [esp],eax
0000370C  E8E9010000        call 0x38fa
00003711  3B450C            cmp eax,[ebp+0xc]
00003714  0F92C0            setc al
00003717  84C0              test al,al
00003719  7405              jz 0x3720
0000371B  E8F0D1FFFF        call 0x100000910
00003720  8B550C            mov edx,[ebp+0xc]
00003723  89D0              mov eax,edx
00003725  01C0              add eax,eax
00003727  01D0              add eax,edx
00003729  C1E002            shl eax,0x2
0000372C  890424            mov [esp],eax
0000372F  E88CD1FFFF        call 0x1000008c0
00003734  C9                leave
00003735  C3                ret
00003736  55                push ebp
00003737  89E5              mov ebp,esp
00003739  83EC18            sub esp,byte +0x18
0000373C  8B4510            mov eax,[ebp+0x10]
0000373F  89442408          mov [esp+0x8],eax
00003743  8B450C            mov eax,[ebp+0xc]
00003746  89442404          mov [esp+0x4],eax
0000374A  8B4508            mov eax,[ebp+0x8]
0000374D  890424            mov [esp],eax
00003750  E8AF010000        call 0x3904
00003755  C9                leave
00003756  C3                ret
00003757  55                push ebp
00003758  89E5              mov ebp,esp
0000375A  83EC18            sub esp,byte +0x18
0000375D  8B4508            mov eax,[ebp+0x8]
00003760  890424            mov [esp],eax
00003763  E8BD010000        call 0x3925
00003768  8B5510            mov edx,[ebp+0x10]
0000376B  89542408          mov [esp+0x8],edx
0000376F  8B550C            mov edx,[ebp+0xc]
00003772  89542404          mov [esp+0x4],edx
00003776  890424            mov [esp],eax
00003779  E8BA010000        call 0x3938
0000377E  C9                leave
0000377F  C3                ret
00003780  55                push ebp
00003781  89E5              mov ebp,esp
00003783  B855555515        mov eax,0x15555555
00003788  5D                pop ebp
00003789  C3                ret
0000378A  55                push ebp
0000378B  89E5              mov ebp,esp
0000378D  57                push edi
0000378E  56                push esi
0000378F  53                push ebx
00003790  83EC1C            sub esp,byte +0x1c
00003793  8B7508            mov esi,[ebp+0x8]
00003796  89742404          mov [esp+0x4],esi
0000379A  C704240C000000    mov dword [esp],0xc
000037A1  E8A9E0FFFF        call 0x10000184f
000037A6  89C3              mov ebx,eax
000037A8  85DB              test ebx,ebx
000037AA  7411              jz 0x37bd
000037AC  8B450C            mov eax,[ebp+0xc]
000037AF  89442404          mov [esp+0x4],eax
000037B3  891C24            mov [esp],ebx
000037B6  E8AD010000        call 0x3968
000037BB  EB1A              jmp short 0x37d7
000037BD  EB18              jmp short 0x37d7
000037BF  89C7              mov edi,eax
000037C1  89742404          mov [esp+0x4],esi
000037C5  891C24            mov [esp],ebx
000037C8  E88AE0FFFF        call 0x100001857
000037CD  89F8              mov eax,edi
000037CF  890424            mov [esp],eax
000037D2  E879D1FFFF        call 0x100000950
000037D7  83C41C            add esp,byte +0x1c
000037DA  5B                pop ebx
000037DB  5E                pop esi
000037DC  5F                pop edi
000037DD  5D                pop ebp
000037DE  C3                ret
000037DF  90                nop
000037E0  55                push ebp
000037E1  89E5              mov ebp,esp
000037E3  5D                pop ebp
000037E4  C3                ret
000037E5  55                push ebp
000037E6  89E5              mov ebp,esp
000037E8  53                push ebx
000037E9  83EC14            sub esp,byte +0x14
000037EC  8B4508            mov eax,[ebp+0x8]
000037EF  890424            mov [esp],eax
000037F2  E8DDFCFFFF        call 0x1000034d4
000037F7  8B18              mov ebx,[eax]
000037F9  8B450C            mov eax,[ebp+0xc]
000037FC  890424            mov [esp],eax
000037FF  E8D0FCFFFF        call 0x1000034d4
00003804  8B00              mov eax,[eax]
00003806  39C3              cmp ebx,eax
00003808  0F95C0            setnz al
0000380B  83C414            add esp,byte +0x14
0000380E  5B                pop ebx
0000380F  5D                pop ebp
00003810  C3                ret
00003811  90                nop
00003812  55                push ebp
00003813  89E5              mov ebp,esp
00003815  8B4508            mov eax,[ebp+0x8]
00003818  8B00              mov eax,[eax]
0000381A  8D500C            lea edx,[eax+0xc]
0000381D  8B4508            mov eax,[ebp+0x8]
00003820  8910              mov [eax],edx
00003822  8B4508            mov eax,[ebp+0x8]
00003825  5D                pop ebp
00003826  C3                ret
00003827  55                push ebp
00003828  89E5              mov ebp,esp
0000382A  8B4508            mov eax,[ebp+0x8]
0000382D  5D                pop ebp
0000382E  C3                ret
0000382F  55                push ebp
00003830  89E5              mov ebp,esp
00003832  83EC18            sub esp,byte +0x18
00003835  8B4508            mov eax,[ebp+0x8]
00003838  89442404          mov [esp+0x4],eax
0000383C  C704240C000000    mov dword [esp],0xc
00003843  E807E0FFFF        call 0x10000184f
00003848  85C0              test eax,eax
0000384A  7413              jz 0x385f
0000384C  8B550C            mov edx,[ebp+0xc]
0000384F  8B0A              mov ecx,[edx]
00003851  8908              mov [eax],ecx
00003853  8B4A04            mov ecx,[edx+0x4]
00003856  894804            mov [eax+0x4],ecx
00003859  8B5208            mov edx,[edx+0x8]
0000385C  895008            mov [eax+0x8],edx
0000385F  C9                leave
00003860  C3                ret
00003861  55                push ebp
00003862  89E5              mov ebp,esp
00003864  83EC18            sub esp,byte +0x18
00003867  8B4508            mov eax,[ebp+0x8]
0000386A  8B10              mov edx,[eax]
0000386C  8B450C            mov eax,[ebp+0xc]
0000386F  8B00              mov eax,[eax]
00003871  39C2              cmp edx,eax
00003873  7C2A              jl 0x389f
00003875  8B450C            mov eax,[ebp+0xc]
00003878  8B10              mov edx,[eax]
0000387A  8B4508            mov eax,[ebp+0x8]
0000387D  8B00              mov eax,[eax]
0000387F  39C2              cmp edx,eax
00003881  7C20              jl 0x38a3
00003883  8B450C            mov eax,[ebp+0xc]
00003886  8D5004            lea edx,[eax+0x4]
00003889  8B4508            mov eax,[ebp+0x8]
0000388C  83C004            add eax,byte +0x4
0000388F  89542404          mov [esp+0x4],edx
00003893  890424            mov [esp],eax
00003896  E884010000        call 0x3a1f
0000389B  84C0              test al,al
0000389D  7404              jz 0x38a3
0000389F  B001              mov al,0x1
000038A1  EB02              jmp short 0x38a5
000038A3  B000              mov al,0x0
000038A5  C9                leave
000038A6  C3                ret
000038A7  55                push ebp
000038A8  89E5              mov ebp,esp
000038AA  8B4508            mov eax,[ebp+0x8]
000038AD  5D                pop ebp
000038AE  C3                ret
000038AF  55                push ebp
000038B0  89E5              mov ebp,esp
000038B2  83EC18            sub esp,byte +0x18
000038B5  8B4508            mov eax,[ebp+0x8]
000038B8  890424            mov [esp],eax
000038BB  E8E7FFFFFF        call 0x1000038a7
000038C0  C9                leave
000038C1  C3                ret
000038C2  55                push ebp
000038C3  89E5              mov ebp,esp
000038C5  83EC28            sub esp,byte +0x28
000038C8  C645F700          mov byte [ebp-0x9],0x0
000038CC  8B4510            mov eax,[ebp+0x10]
000038CF  89442408          mov [esp+0x8],eax
000038D3  8B450C            mov eax,[ebp+0xc]
000038D6  89442404          mov [esp+0x4],eax
000038DA  8B4508            mov eax,[ebp+0x8]
000038DD  890424            mov [esp],eax
000038E0  E871010000        call 0x3a56
000038E5  C9                leave
000038E6  C3                ret
000038E7  55                push ebp
000038E8  89E5              mov ebp,esp
000038EA  83EC18            sub esp,byte +0x18
000038ED  8B4508            mov eax,[ebp+0x8]
000038F0  890424            mov [esp],eax
000038F3  E802000000        call 0x38fa
000038F8  C9                leave
000038F9  C3                ret
000038FA  55                push ebp
000038FB  89E5              mov ebp,esp
000038FD  B855555515        mov eax,0x15555555
00003902  5D                pop ebp
00003903  C3                ret
00003904  55                push ebp
00003905  89E5              mov ebp,esp
00003907  83EC18            sub esp,byte +0x18
0000390A  8B4510            mov eax,[ebp+0x10]
0000390D  89442408          mov [esp+0x8],eax
00003911  8B450C            mov eax,[ebp+0xc]
00003914  89442404          mov [esp+0x4],eax
00003918  8B4508            mov eax,[ebp+0x8]
0000391B  890424            mov [esp],eax
0000391E  E899010000        call 0x3abc
00003923  C9                leave
00003924  C3                ret
00003925  55                push ebp
00003926  89E5              mov ebp,esp
00003928  83EC18            sub esp,byte +0x18
0000392B  8B4508            mov eax,[ebp+0x8]
0000392E  890424            mov [esp],eax
00003931  E8C3010000        call 0x3af9
00003936  C9                leave
00003937  C3                ret
00003938  55                push ebp
00003939  89E5              mov ebp,esp
0000393B  83EC10            sub esp,byte +0x10
0000393E  8B4510            mov eax,[ebp+0x10]
00003941  8B00              mov eax,[eax]
00003943  8945F8            mov [ebp-0x8],eax
00003946  8B450C            mov eax,[ebp+0xc]
00003949  8945FC            mov [ebp-0x4],eax
0000394C  EB0F              jmp short 0x395d
0000394E  8B4508            mov eax,[ebp+0x8]
00003951  8B55F8            mov edx,[ebp-0x8]
00003954  8910              mov [eax],edx
00003956  FF4DFC            dec dword [ebp-0x4]
00003959  83450804          add dword [ebp+0x8],byte +0x4
0000395D  837DFC00          cmp dword [ebp-0x4],byte +0x0
00003961  75EB              jnz 0x394e
00003963  8B4508            mov eax,[ebp+0x8]
00003966  C9                leave
00003967  C3                ret
00003968  55                push ebp
00003969  89E5              mov ebp,esp
0000396B  56                push esi
0000396C  53                push ebx
0000396D  83EC20            sub esp,byte +0x20
00003970  8B450C            mov eax,[ebp+0xc]
00003973  890424            mov [esp],eax
00003976  E88F010000        call 0x3b0a
0000397B  890424            mov [esp],eax
0000397E  E87E010000        call 0x3b01
00003983  89C3              mov ebx,eax
00003985  8B450C            mov eax,[ebp+0xc]
00003988  890424            mov [esp],eax
0000398B  E82CE0FFFF        call 0x1000019bc
00003990  8B5508            mov edx,[ebp+0x8]
00003993  895C2408          mov [esp+0x8],ebx
00003997  89442404          mov [esp+0x4],eax
0000399B  891424            mov [esp],edx
0000399E  E89BE4FFFF        call 0x100001e3e
000039A3  8B4508            mov eax,[ebp+0x8]
000039A6  890424            mov [esp],eax
000039A9  E878E5FFFF        call 0x100001f26
000039AE  89C3              mov ebx,eax
000039B0  8B4508            mov eax,[ebp+0x8]
000039B3  8B30              mov esi,[eax]
000039B5  8D45F0            lea eax,[ebp-0x10]
000039B8  8B550C            mov edx,[ebp+0xc]
000039BB  89542404          mov [esp+0x4],edx
000039BF  890424            mov [esp],eax
000039C2  E873010000        call 0x3b3a
000039C7  83EC04            sub esp,byte +0x4
000039CA  8D45F4            lea eax,[ebp-0xc]
000039CD  8B550C            mov edx,[ebp+0xc]
000039D0  89542404          mov [esp+0x4],edx
000039D4  890424            mov [esp],eax
000039D7  E836010000        call 0x3b12
000039DC  83EC04            sub esp,byte +0x4
000039DF  895C240C          mov [esp+0xc],ebx
000039E3  89742408          mov [esp+0x8],esi
000039E7  8B45F0            mov eax,[ebp-0x10]
000039EA  89442404          mov [esp+0x4],eax
000039EE  8B45F4            mov eax,[ebp-0xc]
000039F1  890424            mov [esp],eax
000039F4  E869010000        call 0x3b62
000039F9  8B5508            mov edx,[ebp+0x8]
000039FC  894204            mov [edx+0x4],eax
000039FF  EB17              jmp short 0x3a18
00003A01  89C3              mov ebx,eax
00003A03  8B4508            mov eax,[ebp+0x8]
00003A06  890424            mov [esp],eax
00003A09  E87AE4FFFF        call 0x100001e88
00003A0E  89D8              mov eax,ebx
00003A10  890424            mov [esp],eax
00003A13  E838CFFFFF        call 0x100000950
00003A18  8D65F8            lea esp,[ebp-0x8]
00003A1B  5B                pop ebx
00003A1C  5E                pop esi
00003A1D  5D                pop ebp
00003A1E  C3                ret
00003A1F  55                push ebp
00003A20  89E5              mov ebp,esp
00003A22  8B4508            mov eax,[ebp+0x8]
00003A25  8B10              mov edx,[eax]
00003A27  8B450C            mov eax,[ebp+0xc]
00003A2A  8B00              mov eax,[eax]
00003A2C  39C2              cmp edx,eax
00003A2E  7C1E              jl 0x3a4e
00003A30  8B450C            mov eax,[ebp+0xc]
00003A33  8B10              mov edx,[eax]
00003A35  8B4508            mov eax,[ebp+0x8]
00003A38  8B00              mov eax,[eax]
00003A3A  39C2              cmp edx,eax
00003A3C  7C14              jl 0x3a52
00003A3E  8B4508            mov eax,[ebp+0x8]
00003A41  8B5004            mov edx,[eax+0x4]
00003A44  8B450C            mov eax,[ebp+0xc]
00003A47  8B4004            mov eax,[eax+0x4]
00003A4A  39C2              cmp edx,eax
00003A4C  7D04              jnl 0x3a52
00003A4E  B001              mov al,0x1
00003A50  EB02              jmp short 0x3a54
00003A52  B000              mov al,0x0
00003A54  5D                pop ebp
00003A55  C3                ret
00003A56  55                push ebp
00003A57  89E5              mov ebp,esp
00003A59  83EC10            sub esp,byte +0x10
00003A5C  8B550C            mov edx,[ebp+0xc]
00003A5F  8B4508            mov eax,[ebp+0x8]
00003A62  29C2              sub edx,eax
00003A64  89D0              mov eax,edx
00003A66  C1F802            sar eax,0x2
00003A69  89C2              mov edx,eax
00003A6B  89D0              mov eax,edx
00003A6D  C1E002            shl eax,0x2
00003A70  01D0              add eax,edx
00003A72  89C1              mov ecx,eax
00003A74  C1E104            shl ecx,0x4
00003A77  01C8              add eax,ecx
00003A79  89C1              mov ecx,eax
00003A7B  C1E108            shl ecx,0x8
00003A7E  01C8              add eax,ecx
00003A80  89C1              mov ecx,eax
00003A82  C1E110            shl ecx,0x10
00003A85  01C8              add eax,ecx
00003A87  01C0              add eax,eax
00003A89  01D0              add eax,edx
00003A8B  8945FC            mov [ebp-0x4],eax
00003A8E  EB21              jmp short 0x3ab1
00003A90  836D100C          sub dword [ebp+0x10],byte +0xc
00003A94  8B4510            mov eax,[ebp+0x10]
00003A97  836D0C0C          sub dword [ebp+0xc],byte +0xc
00003A9B  8B550C            mov edx,[ebp+0xc]
00003A9E  8B0A              mov ecx,[edx]
00003AA0  8908              mov [eax],ecx
00003AA2  8B4A04            mov ecx,[edx+0x4]
00003AA5  894804            mov [eax+0x4],ecx
00003AA8  8B5208            mov edx,[edx+0x8]
00003AAB  895008            mov [eax+0x8],edx
00003AAE  FF4DFC            dec dword [ebp-0x4]
00003AB1  837DFC00          cmp dword [ebp-0x4],byte +0x0
00003AB5  7FD9              jg 0x3a90
00003AB7  8B4510            mov eax,[ebp+0x10]
00003ABA  C9                leave
00003ABB  C3                ret
00003ABC  55                push ebp
00003ABD  89E5              mov ebp,esp
00003ABF  83EC28            sub esp,byte +0x28
00003AC2  8B4510            mov eax,[ebp+0x10]
00003AC5  8945F4            mov [ebp-0xc],eax
00003AC8  EB22              jmp short 0x3aec
00003ACA  8B45F4            mov eax,[ebp-0xc]
00003ACD  890424            mov [esp],eax
00003AD0  E852FDFFFF        call 0x100003827
00003AD5  8B5508            mov edx,[ebp+0x8]
00003AD8  89542404          mov [esp+0x4],edx
00003ADC  890424            mov [esp],eax
00003ADF  E84BFDFFFF        call 0x10000382f
00003AE4  8345080C          add dword [ebp+0x8],byte +0xc
00003AE8  8345F40C          add dword [ebp-0xc],byte +0xc
00003AEC  8B4508            mov eax,[ebp+0x8]
00003AEF  3B450C            cmp eax,[ebp+0xc]
00003AF2  75D6              jnz 0x3aca
00003AF4  8B45F4            mov eax,[ebp-0xc]
00003AF7  C9                leave
00003AF8  C3                ret
00003AF9  55                push ebp
00003AFA  89E5              mov ebp,esp
00003AFC  8B4508            mov eax,[ebp+0x8]
00003AFF  5D                pop ebp
00003B00  C3                ret
00003B01  55                push ebp
00003B02  89E5              mov ebp,esp
00003B04  8B4508            mov eax,[ebp+0x8]
00003B07  5D                pop ebp
00003B08  C3                ret
00003B09  90                nop
00003B0A  55                push ebp
00003B0B  89E5              mov ebp,esp
00003B0D  8B4508            mov eax,[ebp+0x8]
00003B10  5D                pop ebp
00003B11  C3                ret
00003B12  55                push ebp
00003B13  89E5              mov ebp,esp
00003B15  83EC28            sub esp,byte +0x28
00003B18  8B450C            mov eax,[ebp+0xc]
00003B1B  8B00              mov eax,[eax]
00003B1D  8945F4            mov [ebp-0xc],eax
00003B20  8D45F4            lea eax,[ebp-0xc]
00003B23  89442404          mov [esp+0x4],eax
00003B27  8B4508            mov eax,[ebp+0x8]
00003B2A  890424            mov [esp],eax
00003B2D  E852000000        call 0x3b84
00003B32  8B4508            mov eax,[ebp+0x8]
00003B35  C9                leave
00003B36  C20400            ret 0x4
00003B39  90                nop
00003B3A  55                push ebp
00003B3B  89E5              mov ebp,esp
00003B3D  83EC28            sub esp,byte +0x28
00003B40  8B450C            mov eax,[ebp+0xc]
00003B43  8B4004            mov eax,[eax+0x4]
00003B46  8945F4            mov [ebp-0xc],eax
00003B49  8D45F4            lea eax,[ebp-0xc]
00003B4C  89442404          mov [esp+0x4],eax
00003B50  8B4508            mov eax,[ebp+0x8]
00003B53  890424            mov [esp],eax
00003B56  E829000000        call 0x3b84
00003B5B  8B4508            mov eax,[ebp+0x8]
00003B5E  C9                leave
00003B5F  C20400            ret 0x4
00003B62  55                push ebp
00003B63  89E5              mov ebp,esp
00003B65  83EC18            sub esp,byte +0x18
00003B68  8B4510            mov eax,[ebp+0x10]
00003B6B  89442408          mov [esp+0x8],eax
00003B6F  8B450C            mov eax,[ebp+0xc]
00003B72  89442404          mov [esp+0x4],eax
00003B76  8B4508            mov eax,[ebp+0x8]
00003B79  890424            mov [esp],eax
00003B7C  E812000000        call 0x3b93
00003B81  C9                leave
00003B82  C3                ret
00003B83  90                nop
00003B84  55                push ebp
00003B85  89E5              mov ebp,esp
00003B87  8B450C            mov eax,[ebp+0xc]
00003B8A  8B10              mov edx,[eax]
00003B8C  8B4508            mov eax,[ebp+0x8]
00003B8F  8910              mov [eax],edx
00003B91  5D                pop ebp
00003B92  C3                ret
00003B93  55                push ebp
00003B94  89E5              mov ebp,esp
00003B96  83EC18            sub esp,byte +0x18
00003B99  8B4510            mov eax,[ebp+0x10]
00003B9C  89442408          mov [esp+0x8],eax
00003BA0  8B450C            mov eax,[ebp+0xc]
00003BA3  89442404          mov [esp+0x4],eax
00003BA7  8B4508            mov eax,[ebp+0x8]
00003BAA  890424            mov [esp],eax
00003BAD  E802000000        call 0x3bb4
00003BB2  C9                leave
00003BB3  C3                ret
00003BB4  55                push ebp
00003BB5  89E5              mov ebp,esp
00003BB7  83EC18            sub esp,byte +0x18
00003BBA  8B4510            mov eax,[ebp+0x10]
00003BBD  89442408          mov [esp+0x8],eax
00003BC1  8B450C            mov eax,[ebp+0xc]
00003BC4  89442404          mov [esp+0x4],eax
00003BC8  8B4508            mov eax,[ebp+0x8]
00003BCB  890424            mov [esp],eax
00003BCE  E802000000        call 0x3bd5
00003BD3  C9                leave
00003BD4  C3                ret
00003BD5  55                push ebp
00003BD6  89E5              mov ebp,esp
00003BD8  83EC28            sub esp,byte +0x28
00003BDB  8D45F0            lea eax,[ebp-0x10]
00003BDE  8B550C            mov edx,[ebp+0xc]
00003BE1  89542404          mov [esp+0x4],edx
00003BE5  890424            mov [esp],eax
00003BE8  E833000000        call 0x3c20
00003BED  83EC04            sub esp,byte +0x4
00003BF0  8D45F4            lea eax,[ebp-0xc]
00003BF3  8B5508            mov edx,[ebp+0x8]
00003BF6  89542404          mov [esp+0x4],edx
00003BFA  890424            mov [esp],eax
00003BFD  E81E000000        call 0x3c20
00003C02  83EC04            sub esp,byte +0x4
00003C05  8B4510            mov eax,[ebp+0x10]
00003C08  89442408          mov [esp+0x8],eax
00003C0C  8B45F0            mov eax,[ebp-0x10]
00003C0F  89442404          mov [esp+0x4],eax
00003C13  8B45F4            mov eax,[ebp-0xc]
00003C16  890424            mov [esp],eax
00003C19  E824000000        call 0x3c42
00003C1E  C9                leave
00003C1F  C3                ret
00003C20  55                push ebp
00003C21  89E5              mov ebp,esp
00003C23  83EC18            sub esp,byte +0x18
00003C26  8B4508            mov eax,[ebp+0x8]
00003C29  8B550C            mov edx,[ebp+0xc]
00003C2C  89542404          mov [esp+0x4],edx
00003C30  890424            mov [esp],eax
00003C33  E84E000000        call 0x3c86
00003C38  83EC04            sub esp,byte +0x4
00003C3B  8B4508            mov eax,[ebp+0x8]
00003C3E  C9                leave
00003C3F  C20400            ret 0x4
00003C42  55                push ebp
00003C43  89E5              mov ebp,esp
00003C45  56                push esi
00003C46  53                push ebx
00003C47  83EC10            sub esp,byte +0x10
00003C4A  8B4510            mov eax,[ebp+0x10]
00003C4D  890424            mov [esp],eax
00003C50  E8D0FCFFFF        call 0x100003925
00003C55  89C6              mov esi,eax
00003C57  8B450C            mov eax,[ebp+0xc]
00003C5A  890424            mov [esp],eax
00003C5D  E836000000        call 0x3c98
00003C62  89C3              mov ebx,eax
00003C64  8B4508            mov eax,[ebp+0x8]
00003C67  890424            mov [esp],eax
00003C6A  E829000000        call 0x3c98
00003C6F  89742408          mov [esp+0x8],esi
00003C73  895C2404          mov [esp+0x4],ebx
00003C77  890424            mov [esp],eax
00003C7A  E82C000000        call 0x3cab
00003C7F  83C410            add esp,byte +0x10
00003C82  5B                pop ebx
00003C83  5E                pop esi
00003C84  5D                pop ebp
00003C85  C3                ret
00003C86  55                push ebp
00003C87  89E5              mov ebp,esp
00003C89  8B4508            mov eax,[ebp+0x8]
00003C8C  8B550C            mov edx,[ebp+0xc]
00003C8F  8910              mov [eax],edx
00003C91  8B4508            mov eax,[ebp+0x8]
00003C94  5D                pop ebp
00003C95  C20400            ret 0x4
00003C98  55                push ebp
00003C99  89E5              mov ebp,esp
00003C9B  83EC18            sub esp,byte +0x18
00003C9E  8B4508            mov eax,[ebp+0x8]
00003CA1  890424            mov [esp],eax
00003CA4  E827000000        call 0x3cd0
00003CA9  C9                leave
00003CAA  C3                ret
00003CAB  55                push ebp
00003CAC  89E5              mov ebp,esp
00003CAE  83EC28            sub esp,byte +0x28
00003CB1  C645F701          mov byte [ebp-0x9],0x1
00003CB5  8B4510            mov eax,[ebp+0x10]
00003CB8  89442408          mov [esp+0x8],eax
00003CBC  8B450C            mov eax,[ebp+0xc]
00003CBF  89442404          mov [esp+0x4],eax
00003CC3  8B4508            mov eax,[ebp+0x8]
00003CC6  890424            mov [esp],eax
00003CC9  E817000000        call 0x3ce5
00003CCE  C9                leave
00003CCF  C3                ret
00003CD0  55                push ebp
00003CD1  89E5              mov ebp,esp
00003CD3  83EC18            sub esp,byte +0x18
00003CD6  8D4508            lea eax,[ebp+0x8]
00003CD9  890424            mov [esp],eax
00003CDC  E84D000000        call 0x3d2e
00003CE1  8B00              mov eax,[eax]
00003CE3  C9                leave
00003CE4  C3                ret
00003CE5  55                push ebp
00003CE6  89E5              mov ebp,esp
00003CE8  83EC28            sub esp,byte +0x28
00003CEB  8B550C            mov edx,[ebp+0xc]
00003CEE  8B4508            mov eax,[ebp+0x8]
00003CF1  29C2              sub edx,eax
00003CF3  89D0              mov eax,edx
00003CF5  C1F802            sar eax,0x2
00003CF8  8945F4            mov [ebp-0xc],eax
00003CFB  837DF400          cmp dword [ebp-0xc],byte +0x0
00003CFF  741C              jz 0x3d1d
00003D01  8B45F4            mov eax,[ebp-0xc]
00003D04  C1E002            shl eax,0x2
00003D07  89442408          mov [esp+0x8],eax
00003D0B  8B4508            mov eax,[ebp+0x8]
00003D0E  89442404          mov [esp+0x4],eax
00003D12  8B4510            mov eax,[ebp+0x10]
00003D15  890424            mov [esp],eax
00003D18  E8C3CBFFFF        call 0x1000008e0
00003D1D  8B45F4            mov eax,[ebp-0xc]
00003D20  8D148500000000    lea edx,[eax*4+0x0]
00003D27  8B4510            mov eax,[ebp+0x10]
00003D2A  01D0              add eax,edx
00003D2C  C9                leave
00003D2D  C3                ret
00003D2E  55                push ebp
00003D2F  89E5              mov ebp,esp
00003D31  8B4508            mov eax,[ebp+0x8]
00003D34  5D                pop ebp
00003D35  C3                ret
00003D36  6690              o16 nop
00003D38  6690              o16 nop
00003D3A  6690              o16 nop
00003D3C  6690              o16 nop
00003D3E  6690              o16 nop
00003D40  55                push ebp
00003D41  89E5              mov ebp,esp
00003D43  5D                pop ebp
00003D44  C3                ret
00003D45  66                db 0x66
00003D46  66                db 0x66
00003D47  2E                db 0x2E
00003D48  0F                db 0x0F
00003D49  1F                pop ds
00003D4A  8400              test [eax],al
00003D4C  0000              add [eax],al
00003D4E  0000              add [eax],al
00003D50  55                push ebp
00003D51  89E5              mov ebp,esp
00003D53  57                push edi
00003D54  56                push esi
00003D55  53                push ebx
00003D56  E84F000000        call 0x3daa
00003D5B  81C3E1330000      add ebx,0x33e1
00003D61  83EC1C            sub esp,byte +0x1c
00003D64  E867CAFFFF        call 0x1000007d0
00003D69  8DBB02FFFFFF      lea edi,[ebx+0xffffff02]
00003D6F  8D8302FFFFFF      lea eax,[ebx+0xffffff02]
00003D75  29C7              sub edi,eax
00003D77  C1FF02            sar edi,0x2
00003D7A  85FF              test edi,edi
00003D7C  7424              jz 0x3da2
00003D7E  31F6              xor esi,esi
00003D80  8B4510            mov eax,[ebp+0x10]
00003D83  89442408          mov [esp+0x8],eax
00003D87  8B450C            mov eax,[ebp+0xc]
00003D8A  89442404          mov [esp+0x4],eax
00003D8E  8B4508            mov eax,[ebp+0x8]
00003D91  890424            mov [esp],eax
00003D94  FF94B302FFFFFF    call near [ebx+esi*4+0xffffff02]
00003D9B  83C601            add esi,byte +0x1
00003D9E  39FE              cmp esi,edi
00003DA0  72DE              jc 0x3d80
00003DA2  83C41C            add esp,byte +0x1c
00003DA5  5B                pop ebx
00003DA6  5E                pop esi
00003DA7  5F                pop edi
00003DA8  5D                pop ebp
00003DA9  C3                ret
00003DAA  8B1C24            mov ebx,[esp]
00003DAD  C3                ret
00003DAE  6690              o16 nop
00003DB0  55                push ebp
00003DB1  89E5              mov ebp,esp
00003DB3  53                push ebx
00003DB4  52                push edx
00003DB5  BB44F00408        mov ebx,0x804f044
00003DBA  A144F00408        mov eax,[0x804f044]
00003DBF  83F8FF            cmp eax,byte -0x1
00003DC2  7410              jz 0x3dd4
00003DC4  8D742600          lea esi,[esi+0x0]
00003DC8  83EB04            sub ebx,byte +0x4
00003DCB  FFD0              call eax
00003DCD  8B03              mov eax,[ebx]
00003DCF  83F8FF            cmp eax,byte -0x1
00003DD2  75F4              jnz 0x3dc8
00003DD4  58                pop eax
00003DD5  5B                pop ebx
00003DD6  5D                pop ebp
00003DD7  C3                ret
00003DD8  55                push ebp
00003DD9  89E5              mov ebp,esp
00003DDB  53                push ebx
00003DDC  83EC04            sub esp,byte +0x4
00003DDF  E800000000        call 0x3de4
00003DE4  5B                pop ebx
00003DE5  81C358330000      add ebx,0x3358
00003DEB  E810CCFFFF        call 0x100000a00
00003DF0  59                pop ecx
00003DF1  5B                pop ebx
00003DF2  C9                leave
00003DF3  C3                ret
00003DF4  0000              add [eax],al
00003DF6  0000              add [eax],al
00003DF8  0300              add eax,[eax]
00003DFA  0000              add [eax],al
00003DFC  0100              add [eax],eax
00003DFE  0200              add al,[eax]
00003E00  43                inc ebx
00003E01  61                popa
00003E02  7365              jnc 0x3e69
00003E04  2023              and [ebx],ah
00003E06  003A              add [edx],bh
00003E08  2000              and [eax],al
00003E0A  7665              jna 0x3e71
00003E0C  63746F72          arpl [edi+ebp*2+0x72],si
00003E10  3A3A              cmp bh,[edx]
00003E12  5F                pop edi
00003E13  4D                dec ebp
00003E14  5F                pop edi
00003E15  696E736572745F    imul ebp,[esi+0x73],dword 0x5f747265
00003E1C  61                popa
00003E1D  7578              jnz 0x3e97
00003E1F  0000              add [eax],al
00003E21  CA9A3B            retf 0x3b9a
00003E24  FF                db 0xFF
00003E25  FF                db 0xFF
00003E26  FF                db 0xFF
00003E27  FF00              inc dword [eax]
00003E29  0000              add [eax],al
00003E2B  0001              add [ecx],al
00003E2D  0000              add [eax],al
00003E2F  0000              add [eax],al
00003E31  0000              add [eax],al
00003E33  0000              add [eax],al
00003E35  0000              add [eax],al
00003E37  0001              add [ecx],al
00003E39  0000              add [eax],al
00003E3B  0000              add [eax],al
00003E3D  0000              add [eax],al
00003E3F  00FF              add bh,bh
00003E41  FF                db 0xFF
00003E42  FF                db 0xFF
00003E43  FF00              inc dword [eax]
00003E45  0000              add [eax],al
00003E47  0000              add [eax],al
00003E49  0000              add [eax],al
00003E4B  0000              add [eax],al
00003E4D  002440            add [eax+eax*2],ah
00003E50  011B              add [ebx],ebx
00003E52  033B              add edi,[ebx]
00003E54  1006              adc [esi],al
00003E56  0000              add [eax],al
00003E58  C10000            rol dword [eax],0x0
00003E5B  00B0C9FFFF2C      add [eax+0x2cffffc9],dh
00003E61  06                push es
00003E62  0000              add [eax],al
00003E64  30CC              xor ah,cl
00003E66  FF                db 0xFF
00003E67  FF5007            call near [eax+0x7]
00003E6A  0000              add [eax],al
00003E6C  07                pop es
00003E6D  CE                into
00003E6E  FF                db 0xFF
00003E6F  FFC0              inc eax
00003E71  07                pop es
00003E72  0000              add [eax],al
00003E74  A4                movsb
00003E75  D9FF              fcos
00003E77  FF                db 0xFF
00003E78  781F              js 0x3e99
00003E7A  0000              add [eax],al
00003E7C  E3D9              jecxz 0x3e57
00003E7E  FF                db 0xFF
00003E7F  FF981F0000FF      call far [eax+0xff00001f]
00003E85  D9FF              fcos
00003E87  FF5006            call near [eax+0x6]
00003E8A  0000              add [eax],al
00003E8C  07                pop es
00003E8D  DA                db 0xDA
00003E8E  FF                db 0xFF
00003E8F  FF7006            push dword [eax+0x6]
00003E92  0000              add [eax],al
00003E94  0CDA              or al,0xda
00003E96  FF                db 0xFF
00003E97  FF9006000019      call near [eax+0x19000006]
00003E9D  DA                db 0xDA
00003E9E  FF                db 0xFF
00003E9F  FFB00600003E      push dword [eax+0x3e000006]
00003EA5  DA                db 0xDA
00003EA6  FF                db 0xFF
00003EA7  FFD0              call eax
00003EA9  06                push es
00003EAA  0000              add [eax],al
00003EAC  68DAFFFFF0        push dword 0xf0ffffda
00003EB1  06                push es
00003EB2  0000              add [eax],al
00003EB4  85DA              test edx,ebx
00003EB6  FF                db 0xFF
00003EB7  FF10              call near [eax]
00003EB9  07                pop es
00003EBA  0000              add [eax],al
00003EBC  B0DA              mov al,0xda
00003EBE  FF                db 0xFF
00003EBF  FF30              push dword [eax]
00003EC1  07                pop es
00003EC2  0000              add [eax],al
00003EC4  D8DA              fcomp st2
00003EC6  FF                db 0xFF
00003EC7  FF80070000EB      inc dword [eax+0xeb000007]
00003ECD  DA                db 0xDA
00003ECE  FF                db 0xFF
00003ECF  FFF4              push esp
00003ED1  07                pop es
00003ED2  0000              add [eax],al
00003ED4  06                push es
00003ED5  DB                db 0xDB
00003ED6  FF                db 0xFF
00003ED7  FF1408            call near [eax+ecx]
00003EDA  0000              add [eax],al
00003EDC  1E                push ds
00003EDD  DB                db 0xDB
00003EDE  FF                db 0xFF
00003EDF  FF3408            push dword [eax+ecx]
00003EE2  0000              add [eax],al
00003EE4  30DB              xor bl,bl
00003EE6  FF                db 0xFF
00003EE7  FF540800          call near [eax+ecx+0x0]
00003EEB  006CDBFF          add [ebx+ebx*8-0x1],ch
00003EEF  FF740800          push dword [eax+ecx+0x0]
00003EF3  0086DBFFFF94      add [esi+0x94ffffdb],al
00003EF9  0800              or [eax],al
00003EFB  009EDBFFFFB4      add [esi+0xb4ffffdb],bl
00003F01  0800              or [eax],al
00003F03  00B0DBFFFFD4      add [eax+0xd4ffffdb],dh
00003F09  0800              or [eax],al
00003F0B  00CC              add ah,cl
00003F0D  DB                db 0xDB
00003F0E  FF                db 0xFF
00003F0F  FFF4              push esp
00003F11  0800              or [eax],al
00003F13  00E0              add al,ah
00003F15  DB                db 0xDB
00003F16  FF                db 0xFF
00003F17  FF1409            call near [ecx+ecx]
00003F1A  0000              add [eax],al
00003F1C  F4                hlt
00003F1D  DB                db 0xDB
00003F1E  FF                db 0xFF
00003F1F  FF3409            push dword [ecx+ecx]
00003F22  0000              add [eax],al
00003F24  4C                dec esp
00003F25  DCFF              fdiv to st7
00003F27  FF5C0900          call far [ecx+ecx+0x0]
00003F2B  00A4DCFFFF8409    add [esp+ebx*8+0x984ffff],ah
00003F32  0000              add [eax],al
00003F34  B8DCFFFFA4        mov eax,0xa4ffffdc
00003F39  0900              or [eax],eax
00003F3B  00CC              add ah,cl
00003F3D  DCFF              fdiv to st7
00003F3F  FFC4              inc esp
00003F41  0900              or [eax],eax
00003F43  0024DDFFFFEC09    add [ebx*8+0x9ecffff],ah
00003F4A  0000              add [eax],al
00003F4C  7CDD              jl 0x3f2b
00003F4E  FF                db 0xFF
00003F4F  FF140A            call near [edx+ecx]
00003F52  0000              add [eax],al
00003F54  D2DD              rcr ch,cl
00003F56  FF                db 0xFF
00003F57  FF                db 0xFF
00003F58  3C0A              cmp al,0xa
00003F5A  0000              add [eax],al
00003F5C  E6DD              out 0xdd,al
00003F5E  FF                db 0xFF
00003F5F  FF5C0A00          call far [edx+ecx+0x0]
00003F63  003E              add [esi],bh
00003F65  DEFF              fdivp st7,st0
00003F67  FF840A0000B6DE    inc dword [edx+ecx+0xdeb60000]
00003F6E  FF                db 0xFF
00003F6F  FFAC0A0000D0DE    jmp far [edx+ecx+0xded00000]
00003F76  FF                db 0xFF
00003F77  FFCC              dec esp
00003F79  0A00              or al,[eax]
00003F7B  00F0              add al,dh
00003F7D  DEFF              fdivp st7,st0
00003F7F  FF                db 0xFF
00003F80  EC                in al,dx
00003F81  0A00              or al,[eax]
00003F83  004EDF            add [esi-0x21],cl
00003F86  FF                db 0xFF
00003F87  FF10              call near [eax]
00003F89  0B00              or eax,[eax]
00003F8B  0062DF            add [edx-0x21],ah
00003F8E  FF                db 0xFF
00003F8F  FF30              push dword [eax]
00003F91  0B00              or eax,[eax]
00003F93  0076DF            add [esi-0x21],dh
00003F96  FF                db 0xFF
00003F97  FF500B            call near [eax+0xb]
00003F9A  0000              add [eax],al
00003F9C  CE                into
00003F9D  DF                db 0xDF
00003F9E  FF                db 0xFF
00003F9F  FF740B00          push dword [ebx+ecx+0x0]
00003FA3  00D4              add ah,dl
00003FA5  DF                db 0xDF
00003FA6  FF                db 0xFF
00003FA7  FF940B0000DADF    call near [ebx+ecx+0xdfda0000]
00003FAE  FF                db 0xFF
00003FAF  FFB40B0000EEDF    push dword [ebx+ecx+0xdfee0000]
00003FB6  FF                db 0xFF
00003FB7  FFD4              call esp
00003FB9  0B00              or eax,[eax]
00003FBB  0038              add [eax],bh
00003FBD  E0FF              loopne 0x3fbe
00003FBF  FF                db 0xFF
00003FC0  FC                cld
00003FC1  0B00              or eax,[eax]
00003FC3  0098E0FFFF24      add [eax+0x24ffffe0],bl
00003FC9  0C00              or al,0x0
00003FCB  00D6              add dh,dl
00003FCD  E0FF              loopne 0x3fce
00003FCF  FF440C00          inc dword [esp+ecx+0x0]
00003FD3  00DE              add dh,bl
00003FD5  E0FF              loopne 0x3fd6
00003FD7  FF640C00          jmp near [esp+ecx+0x0]
00003FDB  00F8              add al,bh
00003FDD  E0FF              loopne 0x3fde
00003FDF  FF840C0000FEE0    inc dword [esp+ecx+0xe0fe0000]
00003FE6  FF                db 0xFF
00003FE7  FFA40C000004E1    jmp near [esp+ecx+0xe1040000]
00003FEE  FF                db 0xFF
00003FEF  FFC4              inc esp
00003FF1  0C00              or al,0x0
00003FF3  0018              add [eax],bl
00003FF5  E1FF              loope 0x3ff6
00003FF7  FFE4              jmp esp
00003FF9  0C00              or al,0x0
00003FFB  0062E1            add [edx-0x1f],ah
00003FFE  FF                db 0xFF
00003FFF  FF0C0D0000E4E1    dec dword [ecx+0xe1e40000]
00004006  FF                db 0xFF
00004007  FF340D000022E2    push dword [ecx+0xe2220000]
0000400E  FF                db 0xFF
0000400F  FF540D00          call near [ebp+ecx+0x0]
00004013  002A              add [edx],ch
00004015  E2FF              loop 0x4016
00004017  FF740D00          push dword [ebp+ecx+0x0]
0000401B  0044E2FF          add [edx-0x1],al
0000401F  FF940D00005EE2    call near [ebp+ecx+0xe25e0000]
00004026  FF                db 0xFF
00004027  FFB40D0000AAE2    push dword [ebp+ecx+0xe2aa0000]
0000402E  FF                db 0xFF
0000402F  FFD4              call esp
00004031  0D0000BEE2        or eax,0xe2be0000
00004036  FF                db 0xFF
00004037  FFF4              push esp
00004039  0D0000D2E2        or eax,0xe2d20000
0000403E  FF                db 0xFF
0000403F  FF140E            call near [esi+ecx]
00004042  0000              add [eax],al
00004044  54                push esp
00004045  E3FF              jecxz 0x4046
00004047  FF                db 0xFF
00004048  3C0E              cmp al,0xe
0000404A  0000              add [eax],al
0000404C  5C                pop esp
0000404D  E3FF              jecxz 0x404e
0000404F  FF5C0E00          call far [esi+ecx+0x0]
00004053  0076E3            add [esi-0x1d],dh
00004056  FF                db 0xFF
00004057  FF                db 0xFF
00004058  7C0E              jl 0x4068
0000405A  0000              add [eax],al
0000405C  2EE4FF            cs in al,0xff
0000405F  FFA80E00004E      jmp far [eax+0x4e00000e]
00004065  E4FF              in al,0xff
00004067  FFC8              dec eax
00004069  0E                push cs
0000406A  0000              add [eax],al
0000406C  70E4              jo 0x4052
0000406E  FF                db 0xFF
0000406F  FF                db 0xFF
00004070  E80E000048        call 0x48004083
00004075  E5FF              in eax,0xff
00004077  FF10              call near [eax]
00004079  0F0000            sldt [eax]
0000407C  BBE5FFFF30        mov ebx,0x30ffffe5
00004081  0F0000            sldt [eax]
00004084  56                push esi
00004085  E6FF              out 0xff,al
00004087  FF580F            call far [eax+0xf]
0000408A  0000              add [eax],al
0000408C  A6                cmpsb
0000408D  E6FF              out 0xff,al
0000408F  FF                db 0xFF
00004090  7C0F              jl 0x40a1
00004092  0000              add [eax],al
00004094  CE                into
00004095  E6FF              out 0xff,al
00004097  FF9C0F000020E7    call far [edi+ecx+0xe7200000]
0000409E  FF                db 0xFF
0000409F  FFC0              inc eax
000040A1  0F0000            sldt [eax]
000040A4  4C                dec esp
000040A5  E7FF              out 0xff,eax
000040A7  FFE0              jmp eax
000040A9  0F0000            sldt [eax]
000040AC  84E7              test bh,ah
000040AE  FF                db 0xFF
000040AF  FF00              inc dword [eax]
000040B1  1000              adc [eax],al
000040B3  00C2              add dl,al
000040B5  E7FF              out 0xff,eax
000040B7  FF20              jmp near [eax]
000040B9  1000              adc [eax],al
000040BB  00E9              add cl,ch
000040BD  E7FF              out 0xff,eax
000040BF  FF4010            inc dword [eax+0x10]
000040C2  0000              add [eax],al
000040C4  0AE8              or ch,al
000040C6  FF                db 0xFF
000040C7  FF6010            jmp near [eax+0x10]
000040CA  0000              add [eax],al
000040CC  24E8              and al,0xe8
000040CE  FF                db 0xFF
000040CF  FF801000005C      inc dword [eax+0x5c000010]
000040D5  E8FFFFA010        call 0x10a140d9
000040DA  0000              add [eax],al
000040DC  A0E8FFFFC0        mov al,[0xc0ffffe8]
000040E1  1000              adc [eax],al
000040E3  00C7              add bh,al
000040E5  E8FFFFE010        call 0x10e140e9
000040EA  0000              add [eax],al
000040EC  E8E8FFFF00        call 0x10040d9
000040F1  1100              adc [eax],eax
000040F3  0002              add [edx],al
000040F5  E9FFFF2011        jmp 0x112140f9
000040FA  0000              add [eax],al
000040FC  32E9              xor ch,cl
000040FE  FF                db 0xFF
000040FF  FF4011            inc dword [eax+0x11]
00004102  0000              add [eax],al
00004104  62                db 0x62
00004105  E9FFFF6011        jmp 0x11614109
0000410A  0000              add [eax],al
0000410C  76E9              jna 0x40f7
0000410E  FF                db 0xFF
0000410F  FF801100009D      inc dword [eax+0x9d000011]
00004115  E9FFFFA011        jmp 0x11a14119
0000411A  0000              add [eax],al
0000411C  B8E9FFFFC0        mov eax,0xc0ffffe9
00004121  1100              adc [eax],eax
00004123  00F3              add bl,dh
00004125  E9FFFFE011        jmp 0x11e14129
0000412A  0000              add [eax],al
0000412C  FC                cld
0000412D  E9FFFF0012        jmp 0x12014131
00004132  0000              add [eax],al
00004134  04EA              add al,0xea
00004136  FF                db 0xFF
00004137  FF20              jmp near [eax]
00004139  1200              adc al,[eax]
0000413B  004EEA            add [esi-0x16],cl
0000413E  FF                db 0xFF
0000413F  FF4812            dec dword [eax+0x12]
00004142  0000              add [eax],al
00004144  76EA              jna 0x4130
00004146  FF                db 0xFF
00004147  FF6812            jmp far [eax+0x12]
0000414A  0000              add [eax],al
0000414C  9E                sahf
0000414D  EAFFFF88120000    jmp 0x0:0x1288ffff
00004154  C0EAFF            shr dl,0xff
00004157  FFA8120000CF      jmp far [eax+0xcf000012]
0000415D  EAFFFFC8120000    jmp 0x0:0x12c8ffff
00004164  22EB              and ch,bl
00004166  FF                db 0xFF
00004167  FF                db 0xFF
00004168  EC                in al,dx
00004169  1200              adc al,[eax]
0000416B  005CEBFF          add [ebx+ebp*8-0x1],bl
0000416F  FF0C13            dec dword [ebx+edx]
00004172  0000              add [eax],al
00004174  66EBFF            o16 jmp short 0x4176
00004177  FF2C13            jmp far [ebx+edx]
0000417A  0000              add [eax],al
0000417C  63ED              arpl bp,bp
0000417E  FF                db 0xFF
0000417F  FF6013            jmp near [eax+0x13]
00004182  0000              add [eax],al
00004184  84ED              test ch,ch
00004186  FF                db 0xFF
00004187  FF8013000076      inc dword [eax+0x76000013]
0000418D  F0                db 0xF0
0000418E  FF                db 0xFF
0000418F  FFB0130000B1      push dword [eax+0xb1000013]
00004195  F0                db 0xF0
00004196  FF                db 0xFF
00004197  FFD0              call eax
00004199  1300              adc eax,[eax]
0000419B  00EC              add ah,ch
0000419D  F1                int1
0000419E  FF                db 0xFF
0000419F  FF0414            inc dword [esp+edx]
000041A2  0000              add [eax],al
000041A4  18F2              sbb dl,dh
000041A6  FF                db 0xFF
000041A7  FF28              jmp far [eax]
000041A9  1400              adc al,0x0
000041AB  0022              add [edx],ah
000041AD  F2                db 0xF2
000041AE  FF                db 0xFF
000041AF  FF4814            dec dword [eax+0x14]
000041B2  0000              add [eax],al
000041B4  37                aaa
000041B5  F2                db 0xF2
000041B6  FF                db 0xFF
000041B7  FF6814            jmp far [eax+0x14]
000041BA  0000              add [eax],al
000041BC  D8F2              fdiv st2
000041BE  FF                db 0xFF
000041BF  FF94140000F2F2    call near [esp+edx+0xf2f20000]
000041C6  FF                db 0xFF
000041C7  FFB41400000CF3    push dword [esp+edx+0xf30c0000]
000041CE  FF                db 0xFF
000041CF  FFD4              call esp
000041D1  1400              adc al,0x0
000041D3  001F              add [edi],bl
000041D5  F3                db 0xF3
000041D6  FF                db 0xFF
000041D7  FFF4              push esp
000041D9  1400              adc al,0x0
000041DB  0040F3            add [eax-0xd],al
000041DE  FF                db 0xFF
000041DF  FF1415000046F3    call near [edx+0xf3460000]
000041E6  FF                db 0xFF
000041E7  FF3415000060F3    push dword [edx+0xf3600000]
000041EE  FF                db 0xFF
000041EF  FF541500          call near [ebp+edx+0x0]
000041F3  0090F3FFFF74      add [eax+0x74fffff3],dl
000041F9  150000A3F3        adc eax,0xf3a30000
000041FE  FF                db 0xFF
000041FF  FF94150000C4F3    call near [ebp+edx+0xf3c40000]
00004206  FF                db 0xFF
00004207  FFB4150000EEF3    push dword [ebp+edx+0xf3ee0000]
0000420E  FF                db 0xFF
0000420F  FFD4              call esp
00004211  1500001EF4        adc eax,0xf41e0000
00004216  FF                db 0xFF
00004217  FFF4              push esp
00004219  15000032F4        adc eax,0xf4320000
0000421E  FF                db 0xFF
0000421F  FF1416            call near [esi+edx]
00004222  0000              add [eax],al
00004224  38F4              cmp ah,dh
00004226  FF                db 0xFF
00004227  FF3416            push dword [esi+edx]
0000422A  0000              add [eax],al
0000422C  4B                dec ebx
0000422D  F4                hlt
0000422E  FF                db 0xFF
0000422F  FF541600          call near [esi+edx+0x0]
00004233  0050F4            add [eax-0xc],dl
00004236  FF                db 0xFF
00004237  FF741600          push dword [esi+edx+0x0]
0000423B  0088F4FFFF94      add [eax+0x94fffff4],cl
00004241  16                push ss
00004242  0000              add [eax],al
00004244  CC                int3
00004245  F4                hlt
00004246  FF                db 0xFF
00004247  FFB4160000DBF4    push dword [esi+edx+0xf4db0000]
0000424E  FF                db 0xFF
0000424F  FFD4              call esp
00004251  16                push ss
00004252  0000              add [eax],al
00004254  FC                cld
00004255  F4                hlt
00004256  FF                db 0xFF
00004257  FFF4              push esp
00004259  16                push ss
0000425A  0000              add [eax],al
0000425C  04F5              add al,0xf5
0000425E  FF                db 0xFF
0000425F  FF1417            call near [edi+edx]
00004262  0000              add [eax],al
00004264  1E                push ds
00004265  F5                cmc
00004266  FF                db 0xFF
00004267  FF3417            push dword [edi+edx]
0000426A  0000              add [eax],al
0000426C  50                push eax
0000426D  F5                cmc
0000426E  FF                db 0xFF
0000426F  FF541700          call near [edi+edx+0x0]
00004273  0088F5FFFF78      add [eax+0x78fffff5],cl
00004279  17                pop ss
0000427A  0000              add [eax],al
0000427C  2CF6              sub al,0xf6
0000427E  FF                db 0xFF
0000427F  FF9C1700005BF6    call far [edi+edx+0xf65b0000]
00004286  FF                db 0xFF
00004287  FF                db 0xFF
00004288  BC17000084        mov esp,0x84000017
0000428D  F6FF              idiv bh
0000428F  FF                db 0xFF
00004290  DC17              fcom qword [edi]
00004292  0000              add [eax],al
00004294  8CF6              mov esi,segr6
00004296  FF                db 0xFF
00004297  FF                db 0xFF
00004298  FC                cld
00004299  17                pop ss
0000429A  0000              add [eax],al
0000429C  92                xchg eax,edx
0000429D  F6FF              idiv bh
0000429F  FF1C18            call far [eax+ebx]
000042A2  0000              add [eax],al
000042A4  97                xchg eax,edi
000042A5  F6FF              idiv bh
000042A7  FF                db 0xFF
000042A8  3C18              cmp al,0x18
000042AA  0000              add [eax],al
000042AC  B8F6FFFF5C        mov eax,0x5cfffff6
000042B1  1800              sbb [eax],al
000042B3  00BEF6FFFF7C      add [esi+0x7cfffff6],bh
000042B9  1800              sbb [eax],al
000042BB  00F4              add ah,dh
000042BD  F6FF              idiv bh
000042BF  FF9C18000062F7    call far [eax+ebx+0xf7620000]
000042C6  FF                db 0xFF
000042C7  FFC4              inc esp
000042C9  1800              sbb [eax],al
000042CB  006AF7            add [edx-0x9],ch
000042CE  FF                db 0xFF
000042CF  FFE4              jmp esp
000042D1  1800              sbb [eax],al
000042D3  007EF7            add [esi-0x9],bh
000042D6  FF                db 0xFF
000042D7  FF0419            inc dword [ecx+ebx]
000042DA  0000              add [eax],al
000042DC  88F7              mov bh,dh
000042DE  FF                db 0xFF
000042DF  FF2419            jmp near [ecx+ebx]
000042E2  0000              add [eax],al
000042E4  8EF7              mov segr6,di
000042E6  FF                db 0xFF
000042E7  FF441900          inc dword [ecx+ebx+0x0]
000042EB  00A8F7FFFF64      add [eax+0x64fffff7],ch
000042F1  1900              sbb [eax],eax
000042F3  0009              add [ecx],cl
000042F5  F8                clc
000042F6  FF                db 0xFF
000042F7  FF8819000023      dec dword [eax+0x23000019]
000042FD  F8                clc
000042FE  FF                db 0xFF
000042FF  FFA819000036      jmp far [eax+0x36000019]
00004305  F8                clc
00004306  FF                db 0xFF
00004307  FFC8              dec eax
00004309  1900              sbb [eax],eax
0000430B  007AF8            add [edx-0x8],bh
0000430E  FF                db 0xFF
0000430F  FFF0              push eax
00004311  1900              sbb [eax],eax
00004313  0095F8FFFF10      add [ebp+0x10fffff8],dl
00004319  1A00              sbb al,[eax]
0000431B  00B0F8FFFF30      add [eax+0x30fffff8],dh
00004321  1A00              sbb al,[eax]
00004323  00E6              add dh,ah
00004325  F8                clc
00004326  FF                db 0xFF
00004327  FF501A            call near [eax+0x1a]
0000432A  0000              add [eax],al
0000432C  07                pop es
0000432D  F9                stc
0000432E  FF                db 0xFF
0000432F  FF701A            push dword [eax+0x1a]
00004332  0000              add [eax],al
00004334  30F9              xor cl,bh
00004336  FF                db 0xFF
00004337  FF901A00003A      call near [eax+0x3a00001a]
0000433D  F9                stc
0000433E  FF                db 0xFF
0000433F  FFB01A000090      push dword [eax+0x9000001a]
00004345  F9                stc
00004346  FF                db 0xFF
00004347  FFE0              jmp eax
00004349  1A00              sbb al,[eax]
0000434B  0095F9FFFF00      add [ebp+0xfffff9],dl
00004351  1B00              sbb eax,[eax]
00004353  00C2              add dl,al
00004355  F9                stc
00004356  FF                db 0xFF
00004357  FF241B            jmp near [ebx+ebx]
0000435A  0000              add [eax],al
0000435C  D7                xlatb
0000435D  F9                stc
0000435E  FF                db 0xFF
0000435F  FF441B00          inc dword [ebx+ebx+0x0]
00004363  00DF              add bh,bl
00004365  F9                stc
00004366  FF                db 0xFF
00004367  FF641B00          jmp near [ebx+ebx+0x0]
0000436B  0011              add [ecx],dl
0000436D  FA                cli
0000436E  FF                db 0xFF
0000436F  FF841B000057FA    inc dword [ebx+ebx+0xfa570000]
00004376  FF                db 0xFF
00004377  FFA41B00005FFA    jmp near [ebx+ebx+0xfa5f0000]
0000437E  FF                db 0xFF
0000437F  FFC4              inc esp
00004381  1B00              sbb eax,[eax]
00004383  0072FA            add [edx-0x6],dh
00004386  FF                db 0xFF
00004387  FFE4              jmp esp
00004389  1B00              sbb eax,[eax]
0000438B  0097FAFFFF04      add [edi+0x4fffffa],dl
00004391  1C00              sbb al,0x0
00004393  00AAFAFFFF24      add [edx+0x24fffffa],ch
00004399  1C00              sbb al,0x0
0000439B  00B4FAFFFF441C    add [edx+edi*8+0x1c44ffff],dh
000043A2  0000              add [eax],al
000043A4  D5FA              aad 0xfa
000043A6  FF                db 0xFF
000043A7  FF641C00          jmp near [esp+ebx+0x0]
000043AB  00E8              add al,ch
000043AD  FA                cli
000043AE  FF                db 0xFF
000043AF  FF841C000018FB    inc dword [esp+ebx+0xfb180000]
000043B6  FF                db 0xFF
000043B7  FFA41C0000CFFB    jmp near [esp+ebx+0xfbcf0000]
000043BE  FF                db 0xFF
000043BF  FFD0              call eax
000043C1  1C00              sbb al,0x0
000043C3  0006              add [esi],al
000043C5  FC                cld
000043C6  FF                db 0xFF
000043C7  FFF0              push eax
000043C9  1C00              sbb al,0x0
000043CB  006CFCFF          add [esp+edi*8-0x1],ch
000043CF  FF10              call near [eax]
000043D1  1D0000A9FC        sbb eax,0xfca90000
000043D6  FF                db 0xFF
000043D7  FF30              push dword [eax]
000043D9  1D0000B1FC        sbb eax,0xfcb10000
000043DE  FF                db 0xFF
000043DF  FF501D            call near [eax+0x1d]
000043E2  0000              add [eax],al
000043E4  BAFCFFFF70        mov edx,0x70fffffc
000043E9  1D0000C2FC        sbb eax,0xfcc20000
000043EE  FF                db 0xFF
000043EF  FF901D0000EA      call near [eax+0xea00001d]
000043F5  FC                cld
000043F6  FF                db 0xFF
000043F7  FFB01D000012      push dword [eax+0x1200001d]
000043FD  FD                std
000043FE  FF                db 0xFF
000043FF  FFD0              call eax
00004401  1D000034FD        sbb eax,0xfd340000
00004406  FF                db 0xFF
00004407  FFF0              push eax
00004409  1D000043FD        sbb eax,0xfd430000
0000440E  FF                db 0xFF
0000440F  FF10              call near [eax]
00004411  1E                push ds
00004412  0000              add [eax],al
00004414  64FD              fs std
00004416  FF                db 0xFF
00004417  FF30              push dword [eax]
00004419  1E                push ds
0000441A  0000              add [eax],al
0000441C  85FD              test ebp,edi
0000441E  FF                db 0xFF
0000441F  FF501E            call near [eax+0x1e]
00004422  0000              add [eax],al
00004424  D0FD              sar ch,1
00004426  FF                db 0xFF
00004427  FF701E            push dword [eax+0x1e]
0000442A  0000              add [eax],al
0000442C  F2FD              repne std
0000442E  FF                db 0xFF
0000442F  FF901E000036      call near [eax+0x3600001e]
00004435  FE                db 0xFE
00004436  FF                db 0xFF
00004437  FF                db 0xFF
00004438  B81E000048        mov eax,0x4800001e
0000443D  FE                db 0xFE
0000443E  FF                db 0xFF
0000443F  FF                db 0xFF
00004440  D81E              fcomp dword [esi]
00004442  0000              add [eax],al
00004444  5B                pop ebx
00004445  FE                db 0xFE
00004446  FF                db 0xFF
00004447  FF                db 0xFF
00004448  F8                clc
00004449  1E                push ds
0000444A  0000              add [eax],al
0000444C  80FEFF            cmp dh,0xff
0000444F  FF18              call far [eax]
00004451  1F                pop ds
00004452  0000              add [eax],al
00004454  95                xchg eax,ebp
00004455  FE                db 0xFE
00004456  FF                db 0xFF
00004457  FF                db 0xFF
00004458  381F              cmp [edi],bl
0000445A  0000              add [eax],al
0000445C  DEFE              fdivp st6,st0
0000445E  FF                db 0xFF
0000445F  FF581F            call far [eax+0x1f]
00004462  0000              add [eax],al
00004464  1400              adc al,0x0
00004466  0000              add [eax],al
00004468  0000              add [eax],al
0000446A  0000              add [eax],al
0000446C  017A52            add [edx+0x52],edi
0000446F  0001              add [ecx],al
00004471  7C08              jl 0x447b
00004473  011B              add [ebx],ebx
00004475  0C04              or al,0x4
00004477  0488              add al,0x88
00004479  0100              add [eax],eax
0000447B  0020              add [eax],ah
0000447D  0000              add [eax],al
0000447F  001C00            add [eax+eax],bl
00004482  0000              add [eax],al
00004484  7CC3              jl 0x4449
00004486  FF                db 0xFF
00004487  FF6001            jmp near [eax+0x1]
0000448A  0000              add [eax],al
0000448C  000E              add [esi],cl
0000448E  08460E            or [esi+0xe],al
00004491  0C4A              or al,0x4a
00004493  0F0B              ud2
00004495  7404              jz 0x449b
00004497  7800              js 0x4499
00004499  3F                aas
0000449A  1A3B              sbb bh,[ebx]
0000449C  2A32              sub dh,[edx]
0000449E  2422              and al,0x22
000044A0  1C00              sbb al,0x0
000044A2  0000              add [eax],al
000044A4  40                inc eax
000044A5  0000              add [eax],al
000044A7  00A7D3FFFF08      add [edi+0x8ffffd3],ah
000044AD  0000              add [eax],al
000044AF  0000              add [eax],al
000044B1  41                inc ecx
000044B2  0E                push cs
000044B3  088502420D05      or [ebp+0x50d4202],al
000044B9  44                inc esp
000044BA  C50C04            lds ecx,[esp+eax]
000044BD  0400              add al,0x0
000044BF  001C00            add [eax+eax],bl
000044C2  0000              add [eax],al
000044C4  60                pusha
000044C5  0000              add [eax],al
000044C7  008FD3FFFF05      add [edi+0x5ffffd3],cl
000044CD  0000              add [eax],al
000044CF  0000              add [eax],al
000044D1  41                inc ecx
000044D2  0E                push cs
000044D3  088502420D05      or [ebp+0x50d4202],al
000044D9  41                inc ecx
000044DA  C50C04            lds ecx,[esp+eax]
000044DD  0400              add al,0x0
000044DF  001C00            add [eax+eax],bl
000044E2  0000              add [eax],al
000044E4  800000            add byte [eax],0x0
000044E7  0074D3FF          add [ebx+edx*8-0x1],dh
000044EB  FF0D00000000      dec dword [0x0]
000044F1  41                inc ecx
000044F2  0E                push cs
000044F3  088502420D05      or [ebp+0x50d4202],al
000044F9  49                dec ecx
000044FA  C50C04            lds ecx,[esp+eax]
000044FD  0400              add al,0x0
000044FF  001C00            add [eax+eax],bl
00004502  0000              add [eax],al
00004504  A000000061        mov al,[0x61000000]
00004509  D3FF              sar edi,cl
0000450B  FF2400            jmp near [eax+eax]
0000450E  0000              add [eax],al
00004510  00410E            add [ecx+0xe],al
00004513  088502420D05      or [ebp+0x50d4202],al
00004519  60                pusha
0000451A  C50C04            lds ecx,[esp+eax]
0000451D  0400              add al,0x0
0000451F  001C00            add [eax+eax],bl
00004522  0000              add [eax],al
00004524  C00000            rol byte [eax],0x0
00004527  0066D3            add [esi-0x2d],ah
0000452A  FF                db 0xFF
0000452B  FF29              jmp far [ecx]
0000452D  0000              add [eax],al
0000452F  0000              add [eax],al
00004531  41                inc ecx
00004532  0E                push cs
00004533  088502420D05      or [ebp+0x50d4202],al
00004539  65C50C04          lds ecx,[gs:esp+eax]
0000453D  0400              add al,0x0
0000453F  001C00            add [eax+eax],bl
00004542  0000              add [eax],al
00004544  E000              loopne 0x4546
00004546  0000              add [eax],al
00004548  70D3              jo 0x451d
0000454A  FF                db 0xFF
0000454B  FF1D00000000      call far [0x0]
00004551  41                inc ecx
00004552  0E                push cs
00004553  088502420D05      or [ebp+0x50d4202],al
00004559  59                pop ecx
0000455A  C50C04            lds ecx,[esp+eax]
0000455D  0400              add al,0x0
0000455F  001C00            add [eax+eax],bl
00004562  0000              add [eax],al
00004564  0001              add [ecx],al
00004566  0000              add [eax],al
00004568  6D                insd
00004569  D3FF              sar edi,cl
0000456B  FF2B              jmp far [ebx]
0000456D  0000              add [eax],al
0000456F  0000              add [eax],al
00004571  41                inc ecx
00004572  0E                push cs
00004573  088502420D05      or [ebp+0x50d4202],al
00004579  67C50C            lds ecx,[si]
0000457C  0404              add al,0x4
0000457E  0000              add [eax],al
00004580  1C00              sbb al,0x0
00004582  0000              add [eax],al
00004584  2001              and [ecx],al
00004586  0000              add [eax],al
00004588  78D3              js 0x455d
0000458A  FF                db 0xFF
0000458B  FF27              jmp near [edi]
0000458D  0000              add [eax],al
0000458F  0000              add [eax],al
00004591  41                inc ecx
00004592  0E                push cs
00004593  088502420D05      or [ebp+0x50d4202],al
00004599  63C5              arpl bp,ax
0000459B  0C04              or al,0x4
0000459D  0400              add al,0x0
0000459F  002C00            add [eax+eax],ch
000045A2  0000              add [eax],al
000045A4  40                inc eax
000045A5  0100              add [eax],eax
000045A7  00D8              add al,bl
000045A9  C4                db 0xC4
000045AA  FF                db 0xFF
000045AB  FFD7              call edi
000045AD  0100              add [eax],eax
000045AF  0000              add [eax],al
000045B1  41                inc ecx
000045B2  0E                push cs
000045B3  088502420D05      or [ebp+0x50d4202],al
000045B9  46                inc esi
000045BA  8703              xchg eax,[ebx]
000045BC  860483            xchg al,[ebx+eax*4]
000045BF  0503CA01C3        add eax,0xc301ca03
000045C4  41                inc ecx
000045C5  C641C741          mov byte [ecx-0x39],0x41
000045C9  C50C04            lds ecx,[esp+eax]
000045CC  0400              add al,0x0
000045CE  0000              add [eax],al
000045D0  1C00              sbb al,0x0
000045D2  0000              add [eax],al
000045D4  7001              jo 0x45d7
000045D6  0000              add [eax],al
000045D8  50                push eax
000045D9  D3FF              sar edi,cl
000045DB  FF13              call near [ebx]
000045DD  0000              add [eax],al
000045DF  0000              add [eax],al
000045E1  41                inc ecx
000045E2  0E                push cs
000045E3  088502420D05      or [ebp+0x50d4202],al
000045E9  4F                dec edi
000045EA  C50C04            lds ecx,[esp+eax]
000045ED  0400              add al,0x0
000045EF  001C00            add [eax+eax],bl
000045F2  0000              add [eax],al
000045F4  0000              add [eax],al
000045F6  0000              add [eax],al
000045F8  017A50            add [edx+0x50],edi
000045FB  4C                dec esp
000045FC  52                push edx
000045FD  0001              add [ecx],al
000045FF  7C08              jl 0x4609
00004601  07                pop es
00004602  004089            add [eax-0x77],al
00004605  0408              add al,0x8
00004607  001B              add [ebx],bl
00004609  0C04              or al,0x4
0000460B  0488              add al,0x88
0000460D  0100              add [eax],eax
0000460F  0030              add [eax],dh
00004611  0000              add [eax],al
00004613  002400            add [eax+eax],ah
00004616  0000              add [eax],al
00004618  3F                aas
00004619  C6                db 0xC6
0000461A  FF                db 0xFF
0000461B  FF9D0B000004      call far [ebp+0x400000b]
00004621  0CDE              or al,0xde
00004623  0408              add al,0x8
00004625  41                inc ecx
00004626  0E                push cs
00004627  088502420D05      or [ebp+0x50d4202],al
0000462D  4C                dec esp
0000462E  8703              xchg eax,[ebx]
00004630  860483            xchg al,[ebx+eax*4]
00004633  05038A0BC3        add eax,0xc30b8a03
00004638  41                inc ecx
00004639  C641C741          mov byte [ecx-0x39],0x41
0000463D  C50C04            lds ecx,[esp+eax]
00004640  0400              add al,0x0
00004642  0000              add [eax],al
00004644  1C00              sbb al,0x0
00004646  0000              add [eax],al
00004648  E401              in al,0x1
0000464A  0000              add [eax],al
0000464C  EF                out dx,eax
0000464D  D2FF              sar bh,cl
0000464F  FF1B              call far [ebx]
00004651  0000              add [eax],al
00004653  0000              add [eax],al
00004655  41                inc ecx
00004656  0E                push cs
00004657  088502420D05      or [ebp+0x50d4202],al
0000465D  57                push edi
0000465E  C50C04            lds ecx,[esp+eax]
00004661  0400              add al,0x0
00004663  001C00            add [eax+eax],bl
00004666  0000              add [eax],al
00004668  0402              add al,0x2
0000466A  0000              add [eax],al
0000466C  EAD2FFFF180000    jmp 0x0:0x18ffffd2
00004673  0000              add [eax],al
00004675  41                inc ecx
00004676  0E                push cs
00004677  088502420D05      or [ebp+0x50d4202],al
0000467D  54                push esp
0000467E  C50C04            lds ecx,[esp+eax]
00004681  0400              add al,0x0
00004683  001C00            add [eax+eax],bl
00004686  0000              add [eax],al
00004688  2402              and al,0x2
0000468A  0000              add [eax],al
0000468C  E2D2              loop 0x4660
0000468E  FF                db 0xFF
0000468F  FF12              call near [edx]
00004691  0000              add [eax],al
00004693  0000              add [eax],al
00004695  41                inc ecx
00004696  0E                push cs
00004697  088502420D05      or [ebp+0x50d4202],al
0000469D  4E                dec esi
0000469E  C50C04            lds ecx,[esp+eax]
000046A1  0400              add al,0x0
000046A3  001C00            add [eax+eax],bl
000046A6  0000              add [eax],al
000046A8  44                inc esp
000046A9  0200              add al,[eax]
000046AB  00D4              add ah,dl
000046AD  D2FF              sar bh,cl
000046AF  FF                db 0xFF
000046B0  3B00              cmp eax,[eax]
000046B2  0000              add [eax],al
000046B4  00410E            add [ecx+0xe],al
000046B7  088502420D05      or [ebp+0x50d4202],al
000046BD  77C5              ja 0x4684
000046BF  0C04              or al,0x4
000046C1  0400              add al,0x0
000046C3  001C00            add [eax+eax],bl
000046C6  0000              add [eax],al
000046C8  640200            add al,[fs:eax]
000046CB  00F0              add al,dh
000046CD  D2FF              sar bh,cl
000046CF  FF19              call far [ecx]
000046D1  0000              add [eax],al
000046D3  0000              add [eax],al
000046D5  41                inc ecx
000046D6  0E                push cs
000046D7  088502420D05      or [ebp+0x50d4202],al
000046DD  55                push ebp
000046DE  C50C04            lds ecx,[esp+eax]
000046E1  0400              add al,0x0
000046E3  001C00            add [eax+eax],bl
000046E6  0000              add [eax],al
000046E8  8402              test [edx],al
000046EA  0000              add [eax],al
000046EC  EAD2FFFF180000    jmp 0x0:0x18ffffd2
000046F3  0000              add [eax],al
000046F5  41                inc ecx
000046F6  0E                push cs
000046F7  088502420D05      or [ebp+0x50d4202],al
000046FD  54                push esp
000046FE  C50C04            lds ecx,[esp+eax]
00004701  0400              add al,0x0
00004703  001C00            add [eax+eax],bl
00004706  0000              add [eax],al
00004708  A4                movsb
00004709  0200              add al,[eax]
0000470B  00E2              add dl,ah
0000470D  D2FF              sar bh,cl
0000470F  FF12              call near [edx]
00004711  0000              add [eax],al
00004713  0000              add [eax],al
00004715  41                inc ecx
00004716  0E                push cs
00004717  088502420D05      or [ebp+0x50d4202],al
0000471D  4E                dec esi
0000471E  C50C04            lds ecx,[esp+eax]
00004721  0400              add al,0x0
00004723  001C00            add [eax+eax],bl
00004726  0000              add [eax],al
00004728  C402              les eax,[edx]
0000472A  0000              add [eax],al
0000472C  D4D2              aam 0xd2
0000472E  FF                db 0xFF
0000472F  FF1B              call far [ebx]
00004731  0000              add [eax],al
00004733  0000              add [eax],al
00004735  41                inc ecx
00004736  0E                push cs
00004737  088502420D05      or [ebp+0x50d4202],al
0000473D  57                push edi
0000473E  C50C04            lds ecx,[esp+eax]
00004741  0400              add al,0x0
00004743  001C00            add [eax+eax],bl
00004746  0000              add [eax],al
00004748  E402              in al,0x2
0000474A  0000              add [eax],al
0000474C  D0D2              rcl dl,1
0000474E  FF                db 0xFF
0000474F  FF13              call near [ebx]
00004751  0000              add [eax],al
00004753  0000              add [eax],al
00004755  41                inc ecx
00004756  0E                push cs
00004757  088502420D05      or [ebp+0x50d4202],al
0000475D  4F                dec edi
0000475E  C50C04            lds ecx,[esp+eax]
00004761  0400              add al,0x0
00004763  001C00            add [eax+eax],bl
00004766  0000              add [eax],al
00004768  0403              add al,0x3
0000476A  0000              add [eax],al
0000476C  C4                db 0xC4
0000476D  D2FF              sar bh,cl
0000476F  FF13              call near [ebx]
00004771  0000              add [eax],al
00004773  0000              add [eax],al
00004775  41                inc ecx
00004776  0E                push cs
00004777  088502420D05      or [ebp+0x50d4202],al
0000477D  4F                dec edi
0000477E  C50C04            lds ecx,[esp+eax]
00004781  0400              add al,0x0
00004783  002400            add [eax+eax],ah
00004786  0000              add [eax],al
00004788  98                cwde
00004789  0100              add [eax],eax
0000478B  00B8D2FFFF58      add [eax+0x58ffffd2],bh
00004791  0000              add [eax],al
00004793  0004A0            add [eax],al
00004796  DE0408            fiadd word [eax+ecx]
00004799  41                inc ecx
0000479A  0E                push cs
0000479B  088502420D05      or [ebp+0x50d4202],al
000047A1  44                inc esp
000047A2  830302            add dword [ebx],byte +0x2
000047A5  4F                dec edi
000047A6  C3                ret
000047A7  41                inc ecx
000047A8  C50C04            lds ecx,[esp+eax]
000047AB  0424              add al,0x24
000047AD  0000              add [eax],al
000047AF  00C0              add al,al
000047B1  0100              add [eax],eax
000047B3  00E8              add al,ch
000047B5  D2FF              sar bh,cl
000047B7  FF5700            call near [edi+0x0]
000047BA  0000              add [eax],al
000047BC  04B0              add al,0xb0
000047BE  DE0408            fiadd word [eax+ecx]
000047C1  41                inc ecx
000047C2  0E                push cs
000047C3  088502420D05      or [ebp+0x50d4202],al
000047C9  44                inc esp
000047CA  830302            add dword [ebx],byte +0x2
000047CD  4E                dec esi
000047CE  C3                ret
000047CF  41                inc ecx
000047D0  C50C04            lds ecx,[esp+eax]
000047D3  041C              add al,0x1c
000047D5  0000              add [eax],al
000047D7  00740300          add [ebx+eax+0x0],dh
000047DB  0018              add [eax],bl
000047DD  D3FF              sar edi,cl
000047DF  FF13              call near [ebx]
000047E1  0000              add [eax],al
000047E3  0000              add [eax],al
000047E5  41                inc ecx
000047E6  0E                push cs
000047E7  088502420D05      or [ebp+0x50d4202],al
000047ED  4F                dec edi
000047EE  C50C04            lds ecx,[esp+eax]
000047F1  0400              add al,0x0
000047F3  001C00            add [eax+eax],bl
000047F6  0000              add [eax],al
000047F8  94                xchg eax,esp
000047F9  0300              add eax,[eax]
000047FB  000CD3            add [ebx+edx*8],cl
000047FE  FF                db 0xFF
000047FF  FF13              call near [ebx]
00004801  0000              add [eax],al
00004803  0000              add [eax],al
00004805  41                inc ecx
00004806  0E                push cs
00004807  088502420D05      or [ebp+0x50d4202],al
0000480D  4F                dec edi
0000480E  C50C04            lds ecx,[esp+eax]
00004811  0400              add al,0x0
00004813  002400            add [eax+eax],ah
00004816  0000              add [eax],al
00004818  2802              sub [edx],al
0000481A  0000              add [eax],al
0000481C  00D3              add bl,dl
0000481E  FF                db 0xFF
0000481F  FF5800            call far [eax+0x0]
00004822  0000              add [eax],al
00004824  04C0              add al,0xc0
00004826  DE0408            fiadd word [eax+ecx]
00004829  41                inc ecx
0000482A  0E                push cs
0000482B  088502420D05      or [ebp+0x50d4202],al
00004831  44                inc esp
00004832  830302            add dword [ebx],byte +0x2
00004835  4F                dec edi
00004836  C3                ret
00004837  41                inc ecx
00004838  C50C04            lds ecx,[esp+eax]
0000483B  0424              add al,0x24
0000483D  0000              add [eax],al
0000483F  005002            add [eax+0x2],dl
00004842  0000              add [eax],al
00004844  30D3              xor bl,dl
00004846  FF                db 0xFF
00004847  FF5700            call near [edi+0x0]
0000484A  0000              add [eax],al
0000484C  04D0              add al,0xd0
0000484E  DE0408            fiadd word [eax+ecx]
00004851  41                inc ecx
00004852  0E                push cs
00004853  088502420D05      or [ebp+0x50d4202],al
00004859  44                inc esp
0000485A  830302            add dword [ebx],byte +0x2
0000485D  4E                dec esi
0000485E  C3                ret
0000485F  41                inc ecx
00004860  C50C04            lds ecx,[esp+eax]
00004863  0424              add al,0x24
00004865  0000              add [eax],al
00004867  007802            add [eax+0x2],bh
0000486A  0000              add [eax],al
0000486C  60                pusha
0000486D  D3FF              sar edi,cl
0000486F  FF5500            call near [ebp+0x0]
00004872  0000              add [eax],al
00004874  04E0              add al,0xe0
00004876  DE0408            fiadd word [eax+ecx]
00004879  41                inc ecx
0000487A  0E                push cs
0000487B  088502420D05      or [ebp+0x50d4202],al
00004881  44                inc esp
00004882  830302            add dword [ebx],byte +0x2
00004885  4C                dec esp
00004886  C3                ret
00004887  41                inc ecx
00004888  C50C04            lds ecx,[esp+eax]
0000488B  041C              add al,0x1c
0000488D  0000              add [eax],al
0000488F  002C04            add [esp+eax],ch
00004892  0000              add [eax],al
00004894  8ED3              mov ss,bx
00004896  FF                db 0xFF
00004897  FF13              call near [ebx]
00004899  0000              add [eax],al
0000489B  0000              add [eax],al
0000489D  41                inc ecx
0000489E  0E                push cs
0000489F  088502420D05      or [ebp+0x50d4202],al
000048A5  4F                dec edi
000048A6  C50C04            lds ecx,[esp+eax]
000048A9  0400              add al,0x0
000048AB  002400            add [eax+eax],ah
000048AE  0000              add [eax],al
000048B0  C00200            rol byte [edx],0x0
000048B3  0082D3FFFF57      add [edx+0x57ffffd3],al
000048B9  0000              add [eax],al
000048BB  0004F0            add [eax+esi*8],al
000048BE  DE0408            fiadd word [eax+ecx]
000048C1  41                inc ecx
000048C2  0E                push cs
000048C3  088502420D05      or [ebp+0x50d4202],al
000048C9  44                inc esp
000048CA  830302            add dword [ebx],byte +0x2
000048CD  4E                dec esi
000048CE  C3                ret
000048CF  41                inc ecx
000048D0  C50C04            lds ecx,[esp+eax]
000048D3  0424              add al,0x24
000048D5  0000              add [eax],al
000048D7  00E8              add al,ch
000048D9  0200              add al,[eax]
000048DB  00B2D3FFFF77      add [edx+0x77ffffd3],dh
000048E1  0000              add [eax],al
000048E3  000400            add [eax+eax],al
000048E6  DF0408            fild word [eax+ecx]
000048E9  41                inc ecx
000048EA  0E                push cs
000048EB  088502420D05      or [ebp+0x50d4202],al
000048F1  44                inc esp
000048F2  830302            add dword [ebx],byte +0x2
000048F5  6F                outsd
000048F6  C5                db 0xC5
000048F7  C3                ret
000048F8  0C04              or al,0x4
000048FA  0400              add al,0x0
000048FC  1C00              sbb al,0x0
000048FE  0000              add [eax],al
00004900  9C                pushf
00004901  0400              add al,0x0
00004903  0002              add [edx],al
00004905  D4FF              aam 0xff
00004907  FF1A              call far [edx]
00004909  0000              add [eax],al
0000490B  0000              add [eax],al
0000490D  41                inc ecx
0000490E  0E                push cs
0000490F  088502420D05      or [ebp+0x50d4202],al
00004915  56                push esi
00004916  C50C04            lds ecx,[esp+eax]
00004919  0400              add al,0x0
0000491B  001C00            add [eax+eax],bl
0000491E  0000              add [eax],al
00004920  BC040000FC        mov esp,0xfc000004
00004925  D3FF              sar edi,cl
00004927  FF20              jmp near [eax]
00004929  0000              add [eax],al
0000492B  0000              add [eax],al
0000492D  41                inc ecx
0000492E  0E                push cs
0000492F  088502420D05      or [ebp+0x50d4202],al
00004935  5C                pop esp
00004936  C50C04            lds ecx,[esp+eax]
00004939  0400              add al,0x0
0000493B  0020              add [eax],ah
0000493D  0000              add [eax],al
0000493F  00DC              add ah,bl
00004941  0400              add al,0x0
00004943  00FC              add ah,bh
00004945  D3FF              sar edi,cl
00004947  FF5E00            call far [esi+0x0]
0000494A  0000              add [eax],al
0000494C  00410E            add [ecx+0xe],al
0000494F  088502420D05      or [ebp+0x50d4202],al
00004955  44                inc esp
00004956  830302            add dword [ebx],byte +0x2
00004959  56                push esi
0000495A  C5                db 0xC5
0000495B  C3                ret
0000495C  0C04              or al,0x4
0000495E  0400              add al,0x0
00004960  1C00              sbb al,0x0
00004962  0000              add [eax],al
00004964  0005000036D4      add [0xd4360000],al
0000496A  FF                db 0xFF
0000496B  FF13              call near [ebx]
0000496D  0000              add [eax],al
0000496F  0000              add [eax],al
00004971  41                inc ecx
00004972  0E                push cs
00004973  088502420D05      or [ebp+0x50d4202],al
00004979  4F                dec edi
0000497A  C50C04            lds ecx,[esp+eax]
0000497D  0400              add al,0x0
0000497F  001C00            add [eax+eax],bl
00004982  0000              add [eax],al
00004984  200500002AD4      and [0xd42a0000],al
0000498A  FF                db 0xFF
0000498B  FF13              call near [ebx]
0000498D  0000              add [eax],al
0000498F  0000              add [eax],al
00004991  41                inc ecx
00004992  0E                push cs
00004993  088502420D05      or [ebp+0x50d4202],al
00004999  4F                dec edi
0000499A  C50C04            lds ecx,[esp+eax]
0000499D  0400              add al,0x0
0000499F  0020              add [eax],ah
000049A1  0000              add [eax],al
000049A3  004005            add [eax+0x5],al
000049A6  0000              add [eax],al
000049A8  1E                push ds
000049A9  D4FF              aam 0xff
000049AB  FF5700            call near [edi+0x0]
000049AE  0000              add [eax],al
000049B0  00410E            add [ecx+0xe],al
000049B3  088502420D05      or [ebp+0x50d4202],al
000049B9  44                inc esp
000049BA  830302            add dword [ebx],byte +0x2
000049BD  4F                dec edi
000049BE  C5                db 0xC5
000049BF  C3                ret
000049C0  0C04              or al,0x4
000049C2  0400              add al,0x0
000049C4  1C00              sbb al,0x0
000049C6  0000              add [eax],al
000049C8  6405000052D4      fs add eax,0xd4520000
000049CE  FF                db 0xFF
000049CF  FF0500000000      inc dword [0x0]
000049D5  41                inc ecx
000049D6  0E                push cs
000049D7  088502420D05      or [ebp+0x50d4202],al
000049DD  41                inc ecx
000049DE  C50C04            lds ecx,[esp+eax]
000049E1  0400              add al,0x0
000049E3  001C00            add [eax+eax],bl
000049E6  0000              add [eax],al
000049E8  8405000038D4      test [0xd4380000],al
000049EE  FF                db 0xFF
000049EF  FF0500000000      inc dword [0x0]
000049F5  41                inc ecx
000049F6  0E                push cs
000049F7  088502420D05      or [ebp+0x50d4202],al
000049FD  41                inc ecx
000049FE  C50C04            lds ecx,[esp+eax]
00004A01  0400              add al,0x0
00004A03  001C00            add [eax+eax],bl
00004A06  0000              add [eax],al
00004A08  A4                movsb
00004A09  0500001ED4        add eax,0xd41e0000
00004A0E  FF                db 0xFF
00004A0F  FF13              call near [ebx]
00004A11  0000              add [eax],al
00004A13  0000              add [eax],al
00004A15  41                inc ecx
00004A16  0E                push cs
00004A17  088502420D05      or [ebp+0x50d4202],al
00004A1D  4F                dec edi
00004A1E  C50C04            lds ecx,[esp+eax]
00004A21  0400              add al,0x0
00004A23  002400            add [eax+eax],ah
00004A26  0000              add [eax],al
00004A28  380400            cmp [eax+eax],al
00004A2B  0012              add [edx],dl
00004A2D  D4FF              aam 0xff
00004A2F  FF4A00            dec dword [edx+0x0]
00004A32  0000              add [eax],al
00004A34  0410              add al,0x10
00004A36  DF0408            fild word [eax+ecx]
00004A39  41                inc ecx
00004A3A  0E                push cs
00004A3B  088502420D05      or [ebp+0x50d4202],al
00004A41  44                inc esp
00004A42  830302            add dword [ebx],byte +0x2
00004A45  41                inc ecx
00004A46  C3                ret
00004A47  41                inc ecx
00004A48  C50C04            lds ecx,[esp+eax]
00004A4B  0424              add al,0x24
00004A4D  0000              add [eax],al
00004A4F  006004            add [eax+0x4],ah
00004A52  0000              add [eax],al
00004A54  34D4              xor al,0xd4
00004A56  FF                db 0xFF
00004A57  FF5F00            call far [edi+0x0]
00004A5A  0000              add [eax],al
00004A5C  041C              add al,0x1c
00004A5E  DF0408            fild word [eax+ecx]
00004A61  41                inc ecx
00004A62  0E                push cs
00004A63  088502420D05      or [ebp+0x50d4202],al
00004A69  44                inc esp
00004A6A  830302            add dword [ebx],byte +0x2
00004A6D  56                push esi
00004A6E  C3                ret
00004A6F  41                inc ecx
00004A70  C50C04            lds ecx,[esp+eax]
00004A73  041C              add al,0x1c
00004A75  0000              add [eax],al
00004A77  001406            add [esi+eax],dl
00004A7A  0000              add [eax],al
00004A7C  6C                insb
00004A7D  D4FF              aam 0xff
00004A7F  FF                db 0xFF
00004A80  3E0000            add [ds:eax],al
00004A83  0000              add [eax],al
00004A85  41                inc ecx
00004A86  0E                push cs
00004A87  088502420D05      or [ebp+0x50d4202],al
00004A8D  7AC5              jpe 0x4a54
00004A8F  0C04              or al,0x4
00004A91  0400              add al,0x0
00004A93  001C00            add [eax+eax],bl
00004A96  0000              add [eax],al
00004A98  3406              xor al,0x6
00004A9A  0000              add [eax],al
00004A9C  8AD4              mov dl,ah
00004A9E  FF                db 0xFF
00004A9F  FF08              dec dword [eax]
00004AA1  0000              add [eax],al
00004AA3  0000              add [eax],al
00004AA5  41                inc ecx
00004AA6  0E                push cs
00004AA7  088502420D05      or [ebp+0x50d4202],al
00004AAD  44                inc esp
00004AAE  C50C04            lds ecx,[esp+eax]
00004AB1  0400              add al,0x0
00004AB3  001C00            add [eax+eax],bl
00004AB6  0000              add [eax],al
00004AB8  54                push esp
00004AB9  06                push es
00004ABA  0000              add [eax],al
00004ABC  72D4              jc 0x4a92
00004ABE  FF                db 0xFF
00004ABF  FF1A              call far [edx]
00004AC1  0000              add [eax],al
00004AC3  0000              add [eax],al
00004AC5  41                inc ecx
00004AC6  0E                push cs
00004AC7  088502420D05      or [ebp+0x50d4202],al
00004ACD  56                push esi
00004ACE  C50C04            lds ecx,[esp+eax]
00004AD1  0400              add al,0x0
00004AD3  001C00            add [eax+eax],bl
00004AD6  0000              add [eax],al
00004AD8  7406              jz 0x4ae0
00004ADA  0000              add [eax],al
00004ADC  6C                insb
00004ADD  D4FF              aam 0xff
00004ADF  FF0500000000      inc dword [0x0]
00004AE5  41                inc ecx
00004AE6  0E                push cs
00004AE7  088502420D05      or [ebp+0x50d4202],al
00004AED  41                inc ecx
00004AEE  C50C04            lds ecx,[esp+eax]
00004AF1  0400              add al,0x0
00004AF3  001C00            add [eax+eax],bl
00004AF6  0000              add [eax],al
00004AF8  94                xchg eax,esp
00004AF9  06                push es
00004AFA  0000              add [eax],al
00004AFC  52                push edx
00004AFD  D4FF              aam 0xff
00004AFF  FF0500000000      inc dword [0x0]
00004B05  41                inc ecx
00004B06  0E                push cs
00004B07  088502420D05      or [ebp+0x50d4202],al
00004B0D  41                inc ecx
00004B0E  C50C04            lds ecx,[esp+eax]
00004B11  0400              add al,0x0
00004B13  001C00            add [eax+eax],bl
00004B16  0000              add [eax],al
00004B18  B406              mov ah,0x6
00004B1A  0000              add [eax],al
00004B1C  38D4              cmp ah,dl
00004B1E  FF                db 0xFF
00004B1F  FF13              call near [ebx]
00004B21  0000              add [eax],al
00004B23  0000              add [eax],al
00004B25  41                inc ecx
00004B26  0E                push cs
00004B27  088502420D05      or [ebp+0x50d4202],al
00004B2D  4F                dec edi
00004B2E  C50C04            lds ecx,[esp+eax]
00004B31  0400              add al,0x0
00004B33  002400            add [eax+eax],ah
00004B36  0000              add [eax],al
00004B38  48                dec eax
00004B39  0500002CD4        add eax,0xd42c0000
00004B3E  FF                db 0xFF
00004B3F  FF4A00            dec dword [edx+0x0]
00004B42  0000              add [eax],al
00004B44  0428              add al,0x28
00004B46  DF0408            fild word [eax+ecx]
00004B49  41                inc ecx
00004B4A  0E                push cs
00004B4B  088502420D05      or [ebp+0x50d4202],al
00004B51  44                inc esp
00004B52  830302            add dword [ebx],byte +0x2
00004B55  41                inc ecx
00004B56  C3                ret
00004B57  41                inc ecx
00004B58  C50C04            lds ecx,[esp+eax]
00004B5B  0424              add al,0x24
00004B5D  0000              add [eax],al
00004B5F  007005            add [eax+0x5],dh
00004B62  0000              add [eax],al
00004B64  4E                dec esi
00004B65  D4FF              aam 0xff
00004B67  FF8100000004      inc dword [ecx+0x4000000]
00004B6D  34DF              xor al,0xdf
00004B6F  0408              add al,0x8
00004B71  41                inc ecx
00004B72  0E                push cs
00004B73  088502420D05      or [ebp+0x50d4202],al
00004B79  44                inc esp
00004B7A  830302            add dword [ebx],byte +0x2
00004B7D  78C3              js 0x4b42
00004B7F  41                inc ecx
00004B80  C50C04            lds ecx,[esp+eax]
00004B83  041C              add al,0x1c
00004B85  0000              add [eax],al
00004B87  002407            add [edi+eax],ah
00004B8A  0000              add [eax],al
00004B8C  A8D4              test al,0xd4
00004B8E  FF                db 0xFF
00004B8F  FF                db 0xFF
00004B90  3E0000            add [ds:eax],al
00004B93  0000              add [eax],al
00004B95  41                inc ecx
00004B96  0E                push cs
00004B97  088502420D05      or [ebp+0x50d4202],al
00004B9D  7AC5              jpe 0x4b64
00004B9F  0C04              or al,0x4
00004BA1  0400              add al,0x0
00004BA3  001C00            add [eax+eax],bl
00004BA6  0000              add [eax],al
00004BA8  44                inc esp
00004BA9  07                pop es
00004BAA  0000              add [eax],al
00004BAC  C6                db 0xC6
00004BAD  D4FF              aam 0xff
00004BAF  FF08              dec dword [eax]
00004BB1  0000              add [eax],al
00004BB3  0000              add [eax],al
00004BB5  41                inc ecx
00004BB6  0E                push cs
00004BB7  088502420D05      or [ebp+0x50d4202],al
00004BBD  44                inc esp
00004BBE  C50C04            lds ecx,[esp+eax]
00004BC1  0400              add al,0x0
00004BC3  001C00            add [eax+eax],bl
00004BC6  0000              add [eax],al
00004BC8  6407              fs pop es
00004BCA  0000              add [eax],al
00004BCC  AE                scasb
00004BCD  D4FF              aam 0xff
00004BCF  FF1A              call far [edx]
00004BD1  0000              add [eax],al
00004BD3  0000              add [eax],al
00004BD5  41                inc ecx
00004BD6  0E                push cs
00004BD7  088502420D05      or [ebp+0x50d4202],al
00004BDD  56                push esi
00004BDE  C50C04            lds ecx,[esp+eax]
00004BE1  0400              add al,0x0
00004BE3  001C00            add [eax+eax],bl
00004BE6  0000              add [eax],al
00004BE8  8407              test [edi],al
00004BEA  0000              add [eax],al
00004BEC  A8D4              test al,0xd4
00004BEE  FF                db 0xFF
00004BEF  FF1A              call far [edx]
00004BF1  0000              add [eax],al
00004BF3  0000              add [eax],al
00004BF5  41                inc ecx
00004BF6  0E                push cs
00004BF7  088502420D05      or [ebp+0x50d4202],al
00004BFD  56                push esi
00004BFE  C50C04            lds ecx,[esp+eax]
00004C01  0400              add al,0x0
00004C03  001C00            add [eax+eax],bl
00004C06  0000              add [eax],al
00004C08  A4                movsb
00004C09  07                pop es
00004C0A  0000              add [eax],al
00004C0C  A2D4FFFF4B        mov [0x4bffffd4],al
00004C11  0000              add [eax],al
00004C13  0000              add [eax],al
00004C15  41                inc ecx
00004C16  0E                push cs
00004C17  088502420D05      or [ebp+0x50d4202],al
00004C1D  0247C5            add al,[edi-0x3b]
00004C20  0C04              or al,0x4
00004C22  0400              add al,0x0
00004C24  1C00              sbb al,0x0
00004C26  0000              add [eax],al
00004C28  C407              les eax,[edi]
00004C2A  0000              add [eax],al
00004C2C  CE                into
00004C2D  D4FF              aam 0xff
00004C2F  FF13              call near [ebx]
00004C31  0000              add [eax],al
00004C33  0000              add [eax],al
00004C35  41                inc ecx
00004C36  0E                push cs
00004C37  088502420D05      or [ebp+0x50d4202],al
00004C3D  4F                dec edi
00004C3E  C50C04            lds ecx,[esp+eax]
00004C41  0400              add al,0x0
00004C43  001C00            add [eax+eax],bl
00004C46  0000              add [eax],al
00004C48  E407              in al,0x7
00004C4A  0000              add [eax],al
00004C4C  C2D4FF            ret 0xffd4
00004C4F  FF13              call near [ebx]
00004C51  0000              add [eax],al
00004C53  0000              add [eax],al
00004C55  41                inc ecx
00004C56  0E                push cs
00004C57  088502420D05      or [ebp+0x50d4202],al
00004C5D  4F                dec edi
00004C5E  C50C04            lds ecx,[esp+eax]
00004C61  0400              add al,0x0
00004C63  002400            add [eax+eax],ah
00004C66  0000              add [eax],al
00004C68  7806              js 0x4c70
00004C6A  0000              add [eax],al
00004C6C  B6D4              mov dh,0xd4
00004C6E  FF                db 0xFF
00004C6F  FF8100000004      inc dword [ecx+0x4000000]
00004C75  40                inc eax
00004C76  DF0408            fild word [eax+ecx]
00004C79  41                inc ecx
00004C7A  0E                push cs
00004C7B  088502420D05      or [ebp+0x50d4202],al
00004C81  44                inc esp
00004C82  830302            add dword [ebx],byte +0x2
00004C85  78C3              js 0x4c4a
00004C87  41                inc ecx
00004C88  C50C04            lds ecx,[esp+eax]
00004C8B  041C              add al,0x1c
00004C8D  0000              add [eax],al
00004C8F  002C08            add [eax+ecx],ch
00004C92  0000              add [eax],al
00004C94  10D5              adc ch,dl
00004C96  FF                db 0xFF
00004C97  FF08              dec dword [eax]
00004C99  0000              add [eax],al
00004C9B  0000              add [eax],al
00004C9D  41                inc ecx
00004C9E  0E                push cs
00004C9F  088502420D05      or [ebp+0x50d4202],al
00004CA5  44                inc esp
00004CA6  C50C04            lds ecx,[esp+eax]
00004CA9  0400              add al,0x0
00004CAB  001C00            add [eax+eax],bl
00004CAE  0000              add [eax],al
00004CB0  4C                dec esp
00004CB1  0800              or [eax],al
00004CB3  00F8              add al,bh
00004CB5  D4FF              aam 0xff
00004CB7  FF1A              call far [edx]
00004CB9  0000              add [eax],al
00004CBB  0000              add [eax],al
00004CBD  41                inc ecx
00004CBE  0E                push cs
00004CBF  088502420D05      or [ebp+0x50d4202],al
00004CC5  56                push esi
00004CC6  C50C04            lds ecx,[esp+eax]
00004CC9  0400              add al,0x0
00004CCB  0028              add [eax],ch
00004CCD  0000              add [eax],al
00004CCF  00E0              add al,ah
00004CD1  06                push es
00004CD2  0000              add [eax],al
00004CD4  F2D4FF            repne aam 0xff
00004CD7  FFB700000004      push dword [edi+0x4000000]
00004CDD  4C                dec esp
00004CDE  DF0408            fild word [eax+ecx]
00004CE1  41                inc ecx
00004CE2  0E                push cs
00004CE3  088502420D05      or [ebp+0x50d4202],al
00004CE9  45                inc ebp
00004CEA  8603              xchg al,[ebx]
00004CEC  830402AC          add dword [edx+eax],byte -0x54
00004CF0  C3                ret
00004CF1  41                inc ecx
00004CF2  C641C50C          mov byte [ecx-0x3b],0xc
00004CF6  0404              add al,0x4
00004CF8  1C00              sbb al,0x0
00004CFA  0000              add [eax],al
00004CFC  98                cwde
00004CFD  0800              or [eax],al
00004CFF  007ED5            add [esi-0x2b],bh
00004D02  FF                db 0xFF
00004D03  FF1F              call far [edi]
00004D05  0000              add [eax],al
00004D07  0000              add [eax],al
00004D09  41                inc ecx
00004D0A  0E                push cs
00004D0B  088502420D05      or [ebp+0x50d4202],al
00004D11  59                pop ecx
00004D12  C50C04            lds ecx,[esp+eax]
00004D15  0400              add al,0x0
00004D17  001C00            add [eax+eax],bl
00004D1A  0000              add [eax],al
00004D1C  B80800007E        mov eax,0x7e000008
00004D21  D5FF              aad 0xff
00004D23  FF22              jmp near [edx]
00004D25  0000              add [eax],al
00004D27  0000              add [eax],al
00004D29  41                inc ecx
00004D2A  0E                push cs
00004D2B  088502420D05      or [ebp+0x50d4202],al
00004D31  5C                pop esp
00004D32  C50C04            lds ecx,[esp+eax]
00004D35  0400              add al,0x0
00004D37  002400            add [eax+eax],ah
00004D3A  0000              add [eax],al
00004D3C  4C                dec esp
00004D3D  07                pop es
00004D3E  0000              add [eax],al
00004D40  80D5FF            adc ch,0xff
00004D43  FF                db 0xFF
00004D44  D800              fadd dword [eax]
00004D46  0000              add [eax],al
00004D48  045E              add al,0x5e
00004D4A  DF0408            fild word [eax+ecx]
00004D4D  41                inc ecx
00004D4E  0E                push cs
00004D4F  088502420D05      or [ebp+0x50d4202],al
00004D55  44                inc esp
00004D56  830302            add dword [ebx],byte +0x2
00004D59  D0C5              rol ch,1
00004D5B  C3                ret
00004D5C  0C04              or al,0x4
00004D5E  0400              add al,0x0
00004D60  1C00              sbb al,0x0
00004D62  0000              add [eax],al
00004D64  0009              add [ecx],cl
00004D66  0000              add [eax],al
00004D68  30D6              xor dh,dl
00004D6A  FF                db 0xFF
00004D6B  FF7300            push dword [ebx+0x0]
00004D6E  0000              add [eax],al
00004D70  00410E            add [ecx+0xe],al
00004D73  088502420D05      or [ebp+0x50d4202],al
00004D79  026FC5            add ch,[edi-0x3b]
00004D7C  0C04              or al,0x4
00004D7E  0400              add al,0x0
00004D80  2400              and al,0x0
00004D82  0000              add [eax],al
00004D84  94                xchg eax,esp
00004D85  07                pop es
00004D86  0000              add [eax],al
00004D88  83D6FF            adc esi,byte -0x1
00004D8B  FF9A00000004      call far [edx+0x4000000]
00004D91  72DF              jc 0x4d72
00004D93  0408              add al,0x8
00004D95  41                inc ecx
00004D96  0E                push cs
00004D97  088502420D05      or [ebp+0x50d4202],al
00004D9D  44                inc esp
00004D9E  830302            add dword [ebx],byte +0x2
00004DA1  92                xchg eax,edx
00004DA2  C5                db 0xC5
00004DA3  C3                ret
00004DA4  0C04              or al,0x4
00004DA6  0400              add al,0x0
00004DA8  2000              and [eax],al
00004DAA  0000              add [eax],al
00004DAC  BC070000F6        mov esp,0xf6000007
00004DB1  D6                salc
00004DB2  FF                db 0xFF
00004DB3  FF5000            call near [eax+0x0]
00004DB6  0000              add [eax],al
00004DB8  0480              add al,0x80
00004DBA  DF0408            fild word [eax+ecx]
00004DBD  41                inc ecx
00004DBE  0E                push cs
00004DBF  088502420D05      or [ebp+0x50d4202],al
00004DC5  024CC50C          add cl,[ebp+eax*8+0xc]
00004DC9  0404              add al,0x4
00004DCB  001C00            add [eax+eax],bl
00004DCE  0000              add [eax],al
00004DD0  6C                insb
00004DD1  0900              or [eax],eax
00004DD3  0022              add [edx],ah
00004DD5  D7                xlatb
00004DD6  FF                db 0xFF
00004DD7  FF28              jmp far [eax]
00004DD9  0000              add [eax],al
00004DDB  0000              add [eax],al
00004DDD  41                inc ecx
00004DDE  0E                push cs
00004DDF  088502420D05      or [ebp+0x50d4202],al
00004DE5  64C50C04          lds ecx,[fs:esp+eax]
00004DE9  0400              add al,0x0
00004DEB  0020              add [eax],ah
00004DED  0000              add [eax],al
00004DEF  008C0900002AD7    add [ecx+ecx+0xd72a0000],cl
00004DF6  FF                db 0xFF
00004DF7  FF5100            call near [ecx+0x0]
00004DFA  0000              add [eax],al
00004DFC  00410E            add [ecx+0xe],al
00004DFF  088502420D05      or [ebp+0x50d4202],al
00004E05  44                inc esp
00004E06  830302            add dword [ebx],byte +0x2
00004E09  48                dec eax
00004E0A  C3                ret
00004E0B  41                inc ecx
00004E0C  C50C04            lds ecx,[esp+eax]
00004E0F  041C              add al,0x1c
00004E11  0000              add [eax],al
00004E13  00B009000058      add [eax+0x58000009],dh
00004E19  D7                xlatb
00004E1A  FF                db 0xFF
00004E1B  FF2C00            jmp far [eax+eax]
00004E1E  0000              add [eax],al
00004E20  00410E            add [ecx+0xe],al
00004E23  088502420D05      or [ebp+0x50d4202],al
00004E29  68C50C0404        push dword 0x4040cc5
00004E2E  0000              add [eax],al
00004E30  1C00              sbb al,0x0
00004E32  0000              add [eax],al
00004E34  D009              ror byte [ecx],1
00004E36  0000              add [eax],al
00004E38  64D7              fs xlatb
00004E3A  FF                db 0xFF
00004E3B  FF37              push dword [edi]
00004E3D  0000              add [eax],al
00004E3F  0000              add [eax],al
00004E41  41                inc ecx
00004E42  0E                push cs
00004E43  088502420D05      or [ebp+0x50d4202],al
00004E49  73C5              jnc 0x4e10
00004E4B  0C04              or al,0x4
00004E4D  0400              add al,0x0
00004E4F  001C00            add [eax+eax],bl
00004E52  0000              add [eax],al
00004E54  F00900            lock or [eax],eax
00004E57  007CD7FF          add [edi+edx*8-0x1],bh
00004E5B  FF                db 0xFF
00004E5C  3D00000000        cmp eax,0x0
00004E61  41                inc ecx
00004E62  0E                push cs
00004E63  088502420D05      or [ebp+0x50d4202],al
00004E69  79C5              jns 0x4e30
00004E6B  0C04              or al,0x4
00004E6D  0400              add al,0x0
00004E6F  001C00            add [eax+eax],bl
00004E72  0000              add [eax],al
00004E74  100A              adc [edx],cl
00004E76  0000              add [eax],al
00004E78  9AD7FFFF270000    call 0x0:0x27ffffd7
00004E7F  0000              add [eax],al
00004E81  41                inc ecx
00004E82  0E                push cs
00004E83  088502420D05      or [ebp+0x50d4202],al
00004E89  63C5              arpl bp,ax
00004E8B  0C04              or al,0x4
00004E8D  0400              add al,0x0
00004E8F  001C00            add [eax+eax],bl
00004E92  0000              add [eax],al
00004E94  300A              xor [edx],cl
00004E96  0000              add [eax],al
00004E98  A1D7FFFF21        mov eax,[0x21ffffd7]
00004E9D  0000              add [eax],al
00004E9F  0000              add [eax],al
00004EA1  41                inc ecx
00004EA2  0E                push cs
00004EA3  088502420D05      or [ebp+0x50d4202],al
00004EA9  5D                pop ebp
00004EAA  C50C04            lds ecx,[esp+eax]
00004EAD  0400              add al,0x0
00004EAF  001C00            add [eax+eax],bl
00004EB2  0000              add [eax],al
00004EB4  50                push eax
00004EB5  0A00              or al,[eax]
00004EB7  00A2D7FFFF1A      add [edx+0x1affffd7],ah
00004EBD  0000              add [eax],al
00004EBF  0000              add [eax],al
00004EC1  41                inc ecx
00004EC2  0E                push cs
00004EC3  088502420D05      or [ebp+0x50d4202],al
00004EC9  56                push esi
00004ECA  C50C04            lds ecx,[esp+eax]
00004ECD  0400              add al,0x0
00004ECF  001C00            add [eax+eax],bl
00004ED2  0000              add [eax],al
00004ED4  700A              jo 0x4ee0
00004ED6  0000              add [eax],al
00004ED8  9C                pushf
00004ED9  D7                xlatb
00004EDA  FF                db 0xFF
00004EDB  FF37              push dword [edi]
00004EDD  0000              add [eax],al
00004EDF  0000              add [eax],al
00004EE1  41                inc ecx
00004EE2  0E                push cs
00004EE3  088502420D05      or [ebp+0x50d4202],al
00004EE9  73C5              jnc 0x4eb0
00004EEB  0C04              or al,0x4
00004EED  0400              add al,0x0
00004EEF  001C00            add [eax+eax],bl
00004EF2  0000              add [eax],al
00004EF4  90                nop
00004EF5  0A00              or al,[eax]
00004EF7  00B4D7FFFF4400    add [edi+edx*8+0x44ffff],dh
00004EFE  0000              add [eax],al
00004F00  00410E            add [ecx+0xe],al
00004F03  088502420D05      or [ebp+0x50d4202],al
00004F09  0240C5            add al,[eax-0x3b]
00004F0C  0C04              or al,0x4
00004F0E  0400              add al,0x0
00004F10  1C00              sbb al,0x0
00004F12  0000              add [eax],al
00004F14  B00A              mov al,0xa
00004F16  0000              add [eax],al
00004F18  D8D7              fcom st7
00004F1A  FF                db 0xFF
00004F1B  FF27              jmp near [edi]
00004F1D  0000              add [eax],al
00004F1F  0000              add [eax],al
00004F21  41                inc ecx
00004F22  0E                push cs
00004F23  088502420D05      or [ebp+0x50d4202],al
00004F29  63C5              arpl bp,ax
00004F2B  0C04              or al,0x4
00004F2D  0400              add al,0x0
00004F2F  001C00            add [eax+eax],bl
00004F32  0000              add [eax],al
00004F34  D00A              ror byte [edx],1
00004F36  0000              add [eax],al
00004F38  DF                db 0xDF
00004F39  D7                xlatb
00004F3A  FF                db 0xFF
00004F3B  FF21              jmp near [ecx]
00004F3D  0000              add [eax],al
00004F3F  0000              add [eax],al
00004F41  41                inc ecx
00004F42  0E                push cs
00004F43  088502420D05      or [ebp+0x50d4202],al
00004F49  5D                pop ebp
00004F4A  C50C04            lds ecx,[esp+eax]
00004F4D  0400              add al,0x0
00004F4F  001C00            add [eax+eax],bl
00004F52  0000              add [eax],al
00004F54  F00A00            lock or al,[eax]
00004F57  00E0              add al,ah
00004F59  D7                xlatb
00004F5A  FF                db 0xFF
00004F5B  FF1A              call far [edx]
00004F5D  0000              add [eax],al
00004F5F  0000              add [eax],al
00004F61  41                inc ecx
00004F62  0E                push cs
00004F63  088502420D05      or [ebp+0x50d4202],al
00004F69  56                push esi
00004F6A  C50C04            lds ecx,[esp+eax]
00004F6D  0400              add al,0x0
00004F6F  001C00            add [eax+eax],bl
00004F72  0000              add [eax],al
00004F74  100B              adc [ebx],cl
00004F76  0000              add [eax],al
00004F78  DAD7              fcmovbe st7
00004F7A  FF                db 0xFF
00004F7B  FF2F              jmp far [edi]
00004F7D  0000              add [eax],al
00004F7F  0000              add [eax],al
00004F81  41                inc ecx
00004F82  0E                push cs
00004F83  088502420D05      or [ebp+0x50d4202],al
00004F89  6BC50C            imul eax,ebp,byte +0xc
00004F8C  0404              add al,0x4
00004F8E  0000              add [eax],al
00004F90  1C00              sbb al,0x0
00004F92  0000              add [eax],al
00004F94  300B              xor [ebx],cl
00004F96  0000              add [eax],al
00004F98  EAD7FFFF300000    jmp 0x0:0x30ffffd7
00004F9F  0000              add [eax],al
00004FA1  41                inc ecx
00004FA2  0E                push cs
00004FA3  088502420D05      or [ebp+0x50d4202],al
00004FA9  6C                insb
00004FAA  C50C04            lds ecx,[esp+eax]
00004FAD  0400              add al,0x0
00004FAF  001C00            add [eax+eax],bl
00004FB2  0000              add [eax],al
00004FB4  50                push eax
00004FB5  0B00              or eax,[eax]
00004FB7  00FA              add dl,bh
00004FB9  D7                xlatb
00004FBA  FF                db 0xFF
00004FBB  FF13              call near [ebx]
00004FBD  0000              add [eax],al
00004FBF  0000              add [eax],al
00004FC1  41                inc ecx
00004FC2  0E                push cs
00004FC3  088502420D05      or [ebp+0x50d4202],al
00004FC9  4F                dec edi
00004FCA  C50C04            lds ecx,[esp+eax]
00004FCD  0400              add al,0x0
00004FCF  001C00            add [eax+eax],bl
00004FD2  0000              add [eax],al
00004FD4  700B              jo 0x4fe1
00004FD6  0000              add [eax],al
00004FD8  EE                out dx,al
00004FD9  D7                xlatb
00004FDA  FF                db 0xFF
00004FDB  FF27              jmp near [edi]
00004FDD  0000              add [eax],al
00004FDF  0000              add [eax],al
00004FE1  41                inc ecx
00004FE2  0E                push cs
00004FE3  088502420D05      or [ebp+0x50d4202],al
00004FE9  63C5              arpl bp,ax
00004FEB  0C04              or al,0x4
00004FED  0400              add al,0x0
00004FEF  001C00            add [eax+eax],bl
00004FF2  0000              add [eax],al
00004FF4  90                nop
00004FF5  0B00              or eax,[eax]
00004FF7  00F5              add ch,dh
00004FF9  D7                xlatb
00004FFA  FF                db 0xFF
00004FFB  FF1A              call far [edx]
00004FFD  0000              add [eax],al
00004FFF  0000              add [eax],al
00005001  41                inc ecx
00005002  0E                push cs
00005003  088502420D05      or [ebp+0x50d4202],al
00005009  56                push esi
0000500A  C50C04            lds ecx,[esp+eax]
0000500D  0400              add al,0x0
0000500F  001C00            add [eax+eax],bl
00005012  0000              add [eax],al
00005014  B00B              mov al,0xb
00005016  0000              add [eax],al
00005018  F0D7              lock xlatb
0000501A  FF                db 0xFF
0000501B  FF                db 0xFF
0000501C  3B00              cmp eax,[eax]
0000501E  0000              add [eax],al
00005020  00410E            add [ecx+0xe],al
00005023  088502420D05      or [ebp+0x50d4202],al
00005029  77C5              ja 0x4ff0
0000502B  0C04              or al,0x4
0000502D  0400              add al,0x0
0000502F  001C00            add [eax+eax],bl
00005032  0000              add [eax],al
00005034  D00B              ror byte [ebx],1
00005036  0000              add [eax],al
00005038  0BD8              or ebx,eax
0000503A  FF                db 0xFF
0000503B  FF08              dec dword [eax]
0000503D  0000              add [eax],al
0000503F  0000              add [eax],al
00005041  41                inc ecx
00005042  0E                push cs
00005043  088502420D05      or [ebp+0x50d4202],al
00005049  44                inc esp
0000504A  C50C04            lds ecx,[esp+eax]
0000504D  0400              add al,0x0
0000504F  001C00            add [eax+eax],bl
00005052  0000              add [eax],al
00005054  F00B00            lock or eax,[eax]
00005057  00F4              add ah,dh
00005059  D7                xlatb
0000505A  FF                db 0xFF
0000505B  FF08              dec dword [eax]
0000505D  0000              add [eax],al
0000505F  0000              add [eax],al
00005061  41                inc ecx
00005062  0E                push cs
00005063  088502420D05      or [ebp+0x50d4202],al
00005069  44                inc esp
0000506A  C50C04            lds ecx,[esp+eax]
0000506D  0400              add al,0x0
0000506F  002400            add [eax+eax],ah
00005072  0000              add [eax],al
00005074  840A              test [edx],cl
00005076  0000              add [eax],al
00005078  DC                db 0xDC
00005079  D7                xlatb
0000507A  FF                db 0xFF
0000507B  FF4A00            dec dword [edx+0x0]
0000507E  0000              add [eax],al
00005080  0494              add al,0x94
00005082  DF0408            fild word [eax+ecx]
00005085  41                inc ecx
00005086  0E                push cs
00005087  088502420D05      or [ebp+0x50d4202],al
0000508D  44                inc esp
0000508E  830302            add dword [ebx],byte +0x2
00005091  41                inc ecx
00005092  C3                ret
00005093  41                inc ecx
00005094  C50C04            lds ecx,[esp+eax]
00005097  041C              add al,0x1c
00005099  0000              add [eax],al
0000509B  0038              add [eax],bh
0000509D  0C00              or al,0x0
0000509F  00FE              add dh,bh
000050A1  D7                xlatb
000050A2  FF                db 0xFF
000050A3  FF27              jmp near [edi]
000050A5  0000              add [eax],al
000050A7  0000              add [eax],al
000050A9  41                inc ecx
000050AA  0E                push cs
000050AB  088502420D05      or [ebp+0x50d4202],al
000050B1  61                popa
000050B2  C50C04            lds ecx,[esp+eax]
000050B5  0400              add al,0x0
000050B7  001C00            add [eax+eax],bl
000050BA  0000              add [eax],al
000050BC  58                pop eax
000050BD  0C00              or al,0x0
000050BF  0006              add [esi],al
000050C1  D8FF              fdivr st7
000050C3  FF28              jmp far [eax]
000050C5  0000              add [eax],al
000050C7  0000              add [eax],al
000050C9  41                inc ecx
000050CA  0E                push cs
000050CB  088502420D05      or [ebp+0x50d4202],al
000050D1  62                db 0x62
000050D2  C50C04            lds ecx,[esp+eax]
000050D5  0400              add al,0x0
000050D7  001C00            add [eax+eax],bl
000050DA  0000              add [eax],al
000050DC  780C              js 0x50ea
000050DE  0000              add [eax],al
000050E0  0E                push cs
000050E1  D8FF              fdivr st7
000050E3  FF21              jmp near [ecx]
000050E5  0000              add [eax],al
000050E7  0000              add [eax],al
000050E9  41                inc ecx
000050EA  0E                push cs
000050EB  088502420D05      or [ebp+0x50d4202],al
000050F1  5D                pop ebp
000050F2  C50C04            lds ecx,[esp+eax]
000050F5  0400              add al,0x0
000050F7  001C00            add [eax+eax],bl
000050FA  0000              add [eax],al
000050FC  98                cwde
000050FD  0C00              or al,0x0
000050FF  0010              add [eax],dl
00005101  D8FF              fdivr st7
00005103  FF0F              dec dword [edi]
00005105  0000              add [eax],al
00005107  0000              add [eax],al
00005109  41                inc ecx
0000510A  0E                push cs
0000510B  088502420D05      or [ebp+0x50d4202],al
00005111  4B                dec ebx
00005112  C50C04            lds ecx,[esp+eax]
00005115  0400              add al,0x0
00005117  0020              add [eax],ah
00005119  0000              add [eax],al
0000511B  00B80C0000FF      add [eax+0xff00000c],bh
00005121  D7                xlatb
00005122  FF                db 0xFF
00005123  FF5200            call near [edx+0x0]
00005126  0000              add [eax],al
00005128  00410E            add [ecx+0xe],al
0000512B  088502420D05      or [ebp+0x50d4202],al
00005131  44                inc esp
00005132  830302            add dword [ebx],byte +0x2
00005135  49                dec ecx
00005136  C3                ret
00005137  41                inc ecx
00005138  C50C04            lds ecx,[esp+eax]
0000513B  041C              add al,0x1c
0000513D  0000              add [eax],al
0000513F  00DC              add ah,bl
00005141  0C00              or al,0x0
00005143  002E              add [esi],ch
00005145  D8FF              fdivr st7
00005147  FF                db 0xFF
00005148  3900              cmp [eax],eax
0000514A  0000              add [eax],al
0000514C  00410E            add [ecx+0xe],al
0000514F  088502420D05      or [ebp+0x50d4202],al
00005155  73C5              jnc 0x511c
00005157  0C04              or al,0x4
00005159  0400              add al,0x0
0000515B  001C00            add [eax+eax],bl
0000515E  0000              add [eax],al
00005160  FC                cld
00005161  0C00              or al,0x0
00005163  0048D8            add [eax-0x28],cl
00005166  FF                db 0xFF
00005167  FF0A              dec dword [edx]
00005169  0000              add [eax],al
0000516B  0000              add [eax],al
0000516D  41                inc ecx
0000516E  0E                push cs
0000516F  088502420D05      or [ebp+0x50d4202],al
00005175  46                inc esi
00005176  C50C04            lds ecx,[esp+eax]
00005179  0400              add al,0x0
0000517B  0030              add [eax],dh
0000517D  0000              add [eax],al
0000517F  00900B000032      add [eax+0x3200000b],dl
00005185  D8FF              fdivr st7
00005187  FF                db 0xFF
00005188  FD                std
00005189  0100              add [eax],eax
0000518B  0004A0            add [eax],al
0000518E  DF0408            fild word [eax+ecx]
00005191  41                inc ecx
00005192  0E                push cs
00005193  088502420D05      or [ebp+0x50d4202],al
00005199  46                inc esi
0000519A  8703              xchg eax,[ebx]
0000519C  860483            xchg al,[ebx+eax*4]
0000519F  0503F001C3        add eax,0xc301f003
000051A4  41                inc ecx
000051A5  C641C741          mov byte [ecx-0x39],0x41
000051A9  C50C04            lds ecx,[esp+eax]
000051AC  0400              add al,0x0
000051AE  0000              add [eax],al
000051B0  1C00              sbb al,0x0
000051B2  0000              add [eax],al
000051B4  50                push eax
000051B5  0D0000FBD9        or eax,0xd9fb0000
000051BA  FF                db 0xFF
000051BB  FF21              jmp near [ecx]
000051BD  0000              add [eax],al
000051BF  0000              add [eax],al
000051C1  41                inc ecx
000051C2  0E                push cs
000051C3  088502420D05      or [ebp+0x50d4202],al
000051C9  5D                pop ebp
000051CA  C50C04            lds ecx,[esp+eax]
000051CD  0400              add al,0x0
000051CF  002C00            add [eax+eax],ch
000051D2  0000              add [eax],al
000051D4  E40B              in al,0xb
000051D6  0000              add [eax],al
000051D8  FC                cld
000051D9  D9FF              fcos
000051DB  FFF2              push edx
000051DD  0200              add al,[eax]
000051DF  0004B8            add [eax+edi*4],al
000051E2  DF0408            fild word [eax+ecx]
000051E5  41                inc ecx
000051E6  0E                push cs
000051E7  088502420D05      or [ebp+0x50d4202],al
000051ED  45                inc ebp
000051EE  8603              xchg al,[ebx]
000051F0  830403E7          add dword [ebx+eax],byte -0x19
000051F4  02C3              add al,bl
000051F6  41                inc ecx
000051F7  C641C50C          mov byte [ecx-0x3b],0xc
000051FB  0404              add al,0x4
000051FD  0000              add [eax],al
000051FF  001C00            add [eax+eax],bl
00005202  0000              add [eax],al
00005204  A00D0000BE        mov al,[0xbe00000d]
00005209  DCFF              fdiv to st7
0000520B  FF                db 0xFF
0000520C  3B00              cmp eax,[eax]
0000520E  0000              add [eax],al
00005210  00410E            add [ecx+0xe],al
00005213  088502420D05      or [ebp+0x50d4202],al
00005219  75C5              jnz 0x51e0
0000521B  0C04              or al,0x4
0000521D  0400              add al,0x0
0000521F  0030              add [eax],dh
00005221  0000              add [eax],al
00005223  00340C            add [esp+ecx],dh
00005226  0000              add [eax],al
00005228  D9                db 0xD9
00005229  DCFF              fdiv to st7
0000522B  FF                db 0xFF
0000522C  3B01              cmp eax,[ecx]
0000522E  0000              add [eax],al
00005230  04E8              add al,0xe8
00005232  DF0408            fild word [eax+ecx]
00005235  41                inc ecx
00005236  0E                push cs
00005237  088502420D05      or [ebp+0x50d4202],al
0000523D  46                inc esi
0000523E  8703              xchg eax,[ebx]
00005240  860483            xchg al,[ebx+eax*4]
00005243  05032E01C3        add eax,0xc3012e03
00005248  41                inc ecx
00005249  C641C741          mov byte [ecx-0x39],0x41
0000524D  C50C04            lds ecx,[esp+eax]
00005250  0400              add al,0x0
00005252  0000              add [eax],al
00005254  2000              and [eax],al
00005256  0000              add [eax],al
00005258  F4                hlt
00005259  0D0000E0DD        or eax,0xdde00000
0000525E  FF                db 0xFF
0000525F  FF2C00            jmp far [eax+eax]
00005262  0000              add [eax],al
00005264  00410E            add [ecx+0xe],al
00005267  088502420D05      or [ebp+0x50d4202],al
0000526D  44                inc esp
0000526E  830363            add dword [ebx],byte +0x63
00005271  C3                ret
00005272  41                inc ecx
00005273  C50C04            lds ecx,[esp+eax]
00005276  0400              add al,0x0
00005278  1C00              sbb al,0x0
0000527A  0000              add [eax],al
0000527C  180E              sbb [esi],cl
0000527E  0000              add [eax],al
00005280  E8DDFFFF0A        call 0xb005262
00005285  0000              add [eax],al
00005287  0000              add [eax],al
00005289  41                inc ecx
0000528A  0E                push cs
0000528B  088502420D05      or [ebp+0x50d4202],al
00005291  46                inc esi
00005292  C50C04            lds ecx,[esp+eax]
00005295  0400              add al,0x0
00005297  001C00            add [eax+eax],bl
0000529A  0000              add [eax],al
0000529C  380E              cmp [esi],cl
0000529E  0000              add [eax],al
000052A0  D2DD              rcr ch,cl
000052A2  FF                db 0xFF
000052A3  FF1500000000      call near [0x0]
000052A9  41                inc ecx
000052AA  0E                push cs
000052AB  088502420D05      or [ebp+0x50d4202],al
000052B1  51                push ecx
000052B2  C50C04            lds ecx,[esp+eax]
000052B5  0400              add al,0x0
000052B7  0028              add [eax],ch
000052B9  0000              add [eax],al
000052BB  00CC              add ah,cl
000052BD  0C00              or al,0x0
000052BF  00C7              add bh,al
000052C1  DD                db 0xDD
000052C2  FF                db 0xFF
000052C3  FFA100000004      jmp near [ecx+0x4000000]
000052C9  F7DF              neg edi
000052CB  0408              add al,0x8
000052CD  41                inc ecx
000052CE  0E                push cs
000052CF  088502420D05      or [ebp+0x50d4202],al
000052D5  45                inc ebp
000052D6  8603              xchg al,[ebx]
000052D8  83040296          add dword [edx+eax],byte -0x6a
000052DC  C3                ret
000052DD  41                inc ecx
000052DE  C641C50C          mov byte [ecx-0x3b],0xc
000052E2  0404              add al,0x4
000052E4  1C00              sbb al,0x0
000052E6  0000              add [eax],al
000052E8  840E              test [esi],cl
000052EA  0000              add [eax],al
000052EC  3CDE              cmp al,0xde
000052EE  FF                db 0xFF
000052EF  FF1A              call far [edx]
000052F1  0000              add [eax],al
000052F3  0000              add [eax],al
000052F5  41                inc ecx
000052F6  0E                push cs
000052F7  088502420D05      or [ebp+0x50d4202],al
000052FD  56                push esi
000052FE  C50C04            lds ecx,[esp+eax]
00005301  0400              add al,0x0
00005303  001C00            add [eax+eax],bl
00005306  0000              add [eax],al
00005308  A4                movsb
00005309  0E                push cs
0000530A  0000              add [eax],al
0000530C  36DEFF            ss fdivp st7,st0
0000530F  FF1A              call far [edx]
00005311  0000              add [eax],al
00005313  0000              add [eax],al
00005315  41                inc ecx
00005316  0E                push cs
00005317  088502420D05      or [ebp+0x50d4202],al
0000531D  56                push esi
0000531E  C50C04            lds ecx,[esp+eax]
00005321  0400              add al,0x0
00005323  001C00            add [eax+eax],bl
00005326  0000              add [eax],al
00005328  C40E              les ecx,[esi]
0000532A  0000              add [eax],al
0000532C  30DE              xor dh,bl
0000532E  FF                db 0xFF
0000532F  FF13              call near [ebx]
00005331  0000              add [eax],al
00005333  0000              add [eax],al
00005335  41                inc ecx
00005336  0E                push cs
00005337  088502420D05      or [ebp+0x50d4202],al
0000533D  4F                dec edi
0000533E  C50C04            lds ecx,[esp+eax]
00005341  0400              add al,0x0
00005343  001C00            add [eax+eax],bl
00005346  0000              add [eax],al
00005348  E40E              in al,0xe
0000534A  0000              add [eax],al
0000534C  23DE              and ebx,esi
0000534E  FF                db 0xFF
0000534F  FF21              jmp near [ecx]
00005351  0000              add [eax],al
00005353  0000              add [eax],al
00005355  41                inc ecx
00005356  0E                push cs
00005357  088502420D05      or [ebp+0x50d4202],al
0000535D  5D                pop ebp
0000535E  C50C04            lds ecx,[esp+eax]
00005361  0400              add al,0x0
00005363  001C00            add [eax+eax],bl
00005366  0000              add [eax],al
00005368  040F              add al,0xf
0000536A  0000              add [eax],al
0000536C  24DE              and al,0xde
0000536E  FF                db 0xFF
0000536F  FF0500000000      inc dword [0x0]
00005375  41                inc ecx
00005376  0E                push cs
00005377  088502420D05      or [ebp+0x50d4202],al
0000537D  41                inc ecx
0000537E  C50C04            lds ecx,[esp+eax]
00005381  0400              add al,0x0
00005383  001C00            add [eax+eax],bl
00005386  0000              add [eax],al
00005388  240F              and al,0xf
0000538A  0000              add [eax],al
0000538C  0ADE              or bl,dh
0000538E  FF                db 0xFF
0000538F  FF1A              call far [edx]
00005391  0000              add [eax],al
00005393  0000              add [eax],al
00005395  41                inc ecx
00005396  0E                push cs
00005397  088502420D05      or [ebp+0x50d4202],al
0000539D  56                push esi
0000539E  C50C04            lds ecx,[esp+eax]
000053A1  0400              add al,0x0
000053A3  001C00            add [eax+eax],bl
000053A6  0000              add [eax],al
000053A8  44                inc esp
000053A9  0F0000            sldt [eax]
000053AC  04DE              add al,0xde
000053AE  FF                db 0xFF
000053AF  FF2F              jmp far [edi]
000053B1  0000              add [eax],al
000053B3  0000              add [eax],al
000053B5  41                inc ecx
000053B6  0E                push cs
000053B7  088502420D05      or [ebp+0x50d4202],al
000053BD  6BC50C            imul eax,ebp,byte +0xc
000053C0  0404              add al,0x4
000053C2  0000              add [eax],al
000053C4  1C00              sbb al,0x0
000053C6  0000              add [eax],al
000053C8  640F0000          sldt [fs:eax]
000053CC  14DE              adc al,0xde
000053CE  FF                db 0xFF
000053CF  FF13              call near [ebx]
000053D1  0000              add [eax],al
000053D3  0000              add [eax],al
000053D5  41                inc ecx
000053D6  0E                push cs
000053D7  088502420D05      or [ebp+0x50d4202],al
000053DD  4F                dec edi
000053DE  C50C04            lds ecx,[esp+eax]
000053E1  0400              add al,0x0
000053E3  001C00            add [eax+eax],bl
000053E6  0000              add [eax],al
000053E8  840F              test [edi],cl
000053EA  0000              add [eax],al
000053EC  07                pop es
000053ED  DEFF              fdivp st7,st0
000053EF  FF21              jmp near [ecx]
000053F1  0000              add [eax],al
000053F3  0000              add [eax],al
000053F5  41                inc ecx
000053F6  0E                push cs
000053F7  088502420D05      or [ebp+0x50d4202],al
000053FD  5D                pop ebp
000053FE  C50C04            lds ecx,[esp+eax]
00005401  0400              add al,0x0
00005403  001C00            add [eax+eax],bl
00005406  0000              add [eax],al
00005408  A4                movsb
00005409  0F0000            sldt [eax]
0000540C  08DE              or dh,bl
0000540E  FF                db 0xFF
0000540F  FF29              jmp far [ecx]
00005411  0000              add [eax],al
00005413  0000              add [eax],al
00005415  41                inc ecx
00005416  0E                push cs
00005417  088502420D05      or [ebp+0x50d4202],al
0000541D  65C50C04          lds ecx,[gs:esp+eax]
00005421  0400              add al,0x0
00005423  001C00            add [eax+eax],bl
00005426  0000              add [eax],al
00005428  C40F              les ecx,[edi]
0000542A  0000              add [eax],al
0000542C  12DE              adc bl,dh
0000542E  FF                db 0xFF
0000542F  FF30              push dword [eax]
00005431  0000              add [eax],al
00005433  0000              add [eax],al
00005435  41                inc ecx
00005436  0E                push cs
00005437  088502420D05      or [ebp+0x50d4202],al
0000543D  6C                insb
0000543E  C50C04            lds ecx,[esp+eax]
00005441  0400              add al,0x0
00005443  001C00            add [eax+eax],bl
00005446  0000              add [eax],al
00005448  E40F              in al,0xf
0000544A  0000              add [eax],al
0000544C  22DE              and bl,dh
0000544E  FF                db 0xFF
0000544F  FF13              call near [ebx]
00005451  0000              add [eax],al
00005453  0000              add [eax],al
00005455  41                inc ecx
00005456  0E                push cs
00005457  088502420D05      or [ebp+0x50d4202],al
0000545D  4F                dec edi
0000545E  C50C04            lds ecx,[esp+eax]
00005461  0400              add al,0x0
00005463  001C00            add [eax+eax],bl
00005466  0000              add [eax],al
00005468  0410              add al,0x10
0000546A  0000              add [eax],al
0000546C  16                push ss
0000546D  DEFF              fdivp st7,st0
0000546F  FF0500000000      inc dword [0x0]
00005475  41                inc ecx
00005476  0E                push cs
00005477  088502420D05      or [ebp+0x50d4202],al
0000547D  41                inc ecx
0000547E  C50C04            lds ecx,[esp+eax]
00005481  0400              add al,0x0
00005483  001C00            add [eax+eax],bl
00005486  0000              add [eax],al
00005488  2410              and al,0x10
0000548A  0000              add [eax],al
0000548C  FC                cld
0000548D  DD                db 0xDD
0000548E  FF                db 0xFF
0000548F  FF13              call near [ebx]
00005491  0000              add [eax],al
00005493  0000              add [eax],al
00005495  41                inc ecx
00005496  0E                push cs
00005497  088502420D05      or [ebp+0x50d4202],al
0000549D  4F                dec edi
0000549E  C50C04            lds ecx,[esp+eax]
000054A1  0400              add al,0x0
000054A3  001C00            add [eax+eax],bl
000054A6  0000              add [eax],al
000054A8  44                inc esp
000054A9  1000              adc [eax],al
000054AB  00EF              add bh,ch
000054AD  DD                db 0xDD
000054AE  FF                db 0xFF
000054AF  FF0500000000      inc dword [0x0]
000054B5  41                inc ecx
000054B6  0E                push cs
000054B7  088502420D05      or [ebp+0x50d4202],al
000054BD  41                inc ecx
000054BE  C50C04            lds ecx,[esp+eax]
000054C1  0400              add al,0x0
000054C3  001C00            add [eax+eax],bl
000054C6  0000              add [eax],al
000054C8  641000            adc [fs:eax],al
000054CB  00D4              add ah,dl
000054CD  DD                db 0xDD
000054CE  FF                db 0xFF
000054CF  FF37              push dword [edi]
000054D1  0000              add [eax],al
000054D3  0000              add [eax],al
000054D5  41                inc ecx
000054D6  0E                push cs
000054D7  088502420D05      or [ebp+0x50d4202],al
000054DD  73C5              jnc 0x54a4
000054DF  0C04              or al,0x4
000054E1  0400              add al,0x0
000054E3  001C00            add [eax+eax],bl
000054E6  0000              add [eax],al
000054E8  8410              test [eax],dl
000054EA  0000              add [eax],al
000054EC  EC                in al,dx
000054ED  DD                db 0xDD
000054EE  FF                db 0xFF
000054EF  FF440000          inc dword [eax+eax+0x0]
000054F3  0000              add [eax],al
000054F5  41                inc ecx
000054F6  0E                push cs
000054F7  088502420D05      or [ebp+0x50d4202],al
000054FD  0240C5            add al,[eax-0x3b]
00005500  0C04              or al,0x4
00005502  0400              add al,0x0
00005504  1C00              sbb al,0x0
00005506  0000              add [eax],al
00005508  A4                movsb
00005509  1000              adc [eax],al
0000550B  0010              add [eax],dl
0000550D  DEFF              fdivp st7,st0
0000550F  FF0F              dec dword [edi]
00005511  0000              add [eax],al
00005513  0000              add [eax],al
00005515  41                inc ecx
00005516  0E                push cs
00005517  088502420D05      or [ebp+0x50d4202],al
0000551D  4B                dec ebx
0000551E  C50C04            lds ecx,[esp+eax]
00005521  0400              add al,0x0
00005523  001C00            add [eax+eax],bl
00005526  0000              add [eax],al
00005528  C410              les edx,[eax]
0000552A  0000              add [eax],al
0000552C  FF                db 0xFF
0000552D  DD                db 0xDD
0000552E  FF                db 0xFF
0000552F  FF21              jmp near [ecx]
00005531  0000              add [eax],al
00005533  0000              add [eax],al
00005535  41                inc ecx
00005536  0E                push cs
00005537  088502420D05      or [ebp+0x50d4202],al
0000553D  5D                pop ebp
0000553E  C50C04            lds ecx,[esp+eax]
00005541  0400              add al,0x0
00005543  001C00            add [eax+eax],bl
00005546  0000              add [eax],al
00005548  E410              in al,0x10
0000554A  0000              add [eax],al
0000554C  00DE              add dh,bl
0000554E  FF                db 0xFF
0000554F  FF08              dec dword [eax]
00005551  0000              add [eax],al
00005553  0000              add [eax],al
00005555  41                inc ecx
00005556  0E                push cs
00005557  088502420D05      or [ebp+0x50d4202],al
0000555D  44                inc esp
0000555E  C50C04            lds ecx,[esp+eax]
00005561  0400              add al,0x0
00005563  001C00            add [eax+eax],bl
00005566  0000              add [eax],al
00005568  0411              add al,0x11
0000556A  0000              add [eax],al
0000556C  E8DDFFFF1A        call 0x1b00554e
00005571  0000              add [eax],al
00005573  0000              add [eax],al
00005575  41                inc ecx
00005576  0E                push cs
00005577  088502420D05      or [ebp+0x50d4202],al
0000557D  56                push esi
0000557E  C50C04            lds ecx,[esp+eax]
00005581  0400              add al,0x0
00005583  001C00            add [eax+eax],bl
00005586  0000              add [eax],al
00005588  2411              and al,0x11
0000558A  0000              add [eax],al
0000558C  E2DD              loop 0x556b
0000558E  FF                db 0xFF
0000558F  FF32              push dword [edx]
00005591  0000              add [eax],al
00005593  0000              add [eax],al
00005595  41                inc ecx
00005596  0E                push cs
00005597  088502420D05      or [ebp+0x50d4202],al
0000559D  6E                outsb
0000559E  C50C04            lds ecx,[esp+eax]
000055A1  0400              add al,0x0
000055A3  0020              add [eax],ah
000055A5  0000              add [eax],al
000055A7  00441100          add [ecx+edx+0x0],al
000055AB  00F4              add ah,dh
000055AD  DD                db 0xDD
000055AE  FF                db 0xFF
000055AF  FF                db 0xFF
000055B0  3800              cmp [eax],al
000055B2  0000              add [eax],al
000055B4  00410E            add [ecx+0xe],al
000055B7  088502420D05      or [ebp+0x50d4202],al
000055BD  44                inc esp
000055BE  83036F            add dword [ebx],byte +0x6f
000055C1  C3                ret
000055C2  41                inc ecx
000055C3  C50C04            lds ecx,[esp+eax]
000055C6  0400              add al,0x0
000055C8  2000              and [eax],al
000055CA  0000              add [eax],al
000055CC  6811000008        push dword 0x8000011
000055D1  DEFF              fdivp st7,st0
000055D3  FFA40000000041    jmp near [eax+eax+0x41000000]
000055DA  0E                push cs
000055DB  088502420D05      or [ebp+0x50d4202],al
000055E1  44                inc esp
000055E2  830302            add dword [ebx],byte +0x2
000055E5  9B                wait
000055E6  C3                ret
000055E7  41                inc ecx
000055E8  C50C04            lds ecx,[esp+eax]
000055EB  041C              add al,0x1c
000055ED  0000              add [eax],al
000055EF  008C11000088DE    add [ecx+edx+0xde880000],cl
000055F6  FF                db 0xFF
000055F7  FF2F              jmp far [edi]
000055F9  0000              add [eax],al
000055FB  0000              add [eax],al
000055FD  41                inc ecx
000055FE  0E                push cs
000055FF  088502420D05      or [ebp+0x50d4202],al
00005605  6BC50C            imul eax,ebp,byte +0xc
00005608  0404              add al,0x4
0000560A  0000              add [eax],al
0000560C  1C00              sbb al,0x0
0000560E  0000              add [eax],al
00005610  AC                lodsb
00005611  1100              adc [eax],eax
00005613  0097DEFFFF28      add [edi+0x28ffffde],dl
00005619  0000              add [eax],al
0000561B  0000              add [eax],al
0000561D  41                inc ecx
0000561E  0E                push cs
0000561F  088502420D05      or [ebp+0x50d4202],al
00005625  64C50C04          lds ecx,[fs:esp+eax]
00005629  0400              add al,0x0
0000562B  001C00            add [eax+eax],bl
0000562E  0000              add [eax],al
00005630  CC                int3
00005631  1100              adc [eax],eax
00005633  00A0DEFFFF08      add [eax+0x8ffffde],ah
00005639  0000              add [eax],al
0000563B  0000              add [eax],al
0000563D  41                inc ecx
0000563E  0E                push cs
0000563F  088502420D05      or [ebp+0x50d4202],al
00005645  44                inc esp
00005646  C50C04            lds ecx,[esp+eax]
00005649  0400              add al,0x0
0000564B  001C00            add [eax+eax],bl
0000564E  0000              add [eax],al
00005650  EC                in al,dx
00005651  1100              adc [eax],eax
00005653  0088DEFFFF05      add [eax+0x5ffffde],cl
00005659  0000              add [eax],al
0000565B  0000              add [eax],al
0000565D  41                inc ecx
0000565E  0E                push cs
0000565F  088502420D05      or [ebp+0x50d4202],al
00005665  41                inc ecx
00005666  C50C04            lds ecx,[esp+eax]
00005669  0400              add al,0x0
0000566B  001C00            add [eax+eax],bl
0000566E  0000              add [eax],al
00005670  0C12              or al,0x12
00005672  0000              add [eax],al
00005674  6E                outsb
00005675  DEFF              fdivp st7,st0
00005677  FF0500000000      inc dword [0x0]
0000567D  41                inc ecx
0000567E  0E                push cs
0000567F  088502420D05      or [ebp+0x50d4202],al
00005685  41                inc ecx
00005686  C50C04            lds ecx,[esp+eax]
00005689  0400              add al,0x0
0000568B  001C00            add [eax+eax],bl
0000568E  0000              add [eax],al
00005690  2C12              sub al,0x12
00005692  0000              add [eax],al
00005694  53                push ebx
00005695  DEFF              fdivp st7,st0
00005697  FF21              jmp near [ecx]
00005699  0000              add [eax],al
0000569B  0000              add [eax],al
0000569D  41                inc ecx
0000569E  0E                push cs
0000569F  088502420D05      or [ebp+0x50d4202],al
000056A5  5D                pop ebp
000056A6  C50C04            lds ecx,[esp+eax]
000056A9  0400              add al,0x0
000056AB  001C00            add [eax+eax],bl
000056AE  0000              add [eax],al
000056B0  4C                dec esp
000056B1  1200              adc al,[eax]
000056B3  0054DEFF          add [esi+ebx*8-0x1],dl
000056B7  FF0500000000      inc dword [0x0]
000056BD  41                inc ecx
000056BE  0E                push cs
000056BF  088502420D05      or [ebp+0x50d4202],al
000056C5  41                inc ecx
000056C6  C50C04            lds ecx,[esp+eax]
000056C9  0400              add al,0x0
000056CB  001C00            add [eax+eax],bl
000056CE  0000              add [eax],al
000056D0  6C                insb
000056D1  1200              adc al,[eax]
000056D3  003A              add [edx],bh
000056D5  DEFF              fdivp st7,st0
000056D7  FF36              push dword [esi]
000056D9  0000              add [eax],al
000056DB  0000              add [eax],al
000056DD  41                inc ecx
000056DE  0E                push cs
000056DF  088502420D05      or [ebp+0x50d4202],al
000056E5  72C5              jc 0x56ac
000056E7  0C04              or al,0x4
000056E9  0400              add al,0x0
000056EB  002400            add [eax+eax],ah
000056EE  0000              add [eax],al
000056F0  0011              add [ecx],dl
000056F2  0000              add [eax],al
000056F4  50                push eax
000056F5  DEFF              fdivp st7,st0
000056F7  FF6E00            jmp far [esi+0x0]
000056FA  0000              add [eax],al
000056FC  0408              add al,0x8
000056FE  E004              loopne 0x5704
00005700  08410E            or [ecx+0xe],al
00005703  088502420D05      or [ebp+0x50d4202],al
00005709  44                inc esp
0000570A  830302            add dword [ebx],byte +0x2
0000570D  65C3              gs ret
0000570F  41                inc ecx
00005710  C50C04            lds ecx,[esp+eax]
00005713  041C              add al,0x1c
00005715  0000              add [eax],al
00005717  00B412000096DE    add [edx+edx+0xde960000],dh
0000571E  FF                db 0xFF
0000571F  FF08              dec dword [eax]
00005721  0000              add [eax],al
00005723  0000              add [eax],al
00005725  41                inc ecx
00005726  0E                push cs
00005727  088502420D05      or [ebp+0x50d4202],al
0000572D  44                inc esp
0000572E  C50C04            lds ecx,[esp+eax]
00005731  0400              add al,0x0
00005733  001C00            add [eax+eax],bl
00005736  0000              add [eax],al
00005738  D412              aam 0x12
0000573A  0000              add [eax],al
0000573C  7EDE              jng 0x571c
0000573E  FF                db 0xFF
0000573F  FF13              call near [ebx]
00005741  0000              add [eax],al
00005743  0000              add [eax],al
00005745  41                inc ecx
00005746  0E                push cs
00005747  088502420D05      or [ebp+0x50d4202],al
0000574D  4F                dec edi
0000574E  C50C04            lds ecx,[esp+eax]
00005751  0400              add al,0x0
00005753  001C00            add [eax+eax],bl
00005756  0000              add [eax],al
00005758  F4                hlt
00005759  1200              adc al,[eax]
0000575B  0072DE            add [edx-0x22],dh
0000575E  FF                db 0xFF
0000575F  FF0A              dec dword [edx]
00005761  0000              add [eax],al
00005763  0000              add [eax],al
00005765  41                inc ecx
00005766  0E                push cs
00005767  088502420D05      or [ebp+0x50d4202],al
0000576D  46                inc esi
0000576E  C50C04            lds ecx,[esp+eax]
00005771  0400              add al,0x0
00005773  001C00            add [eax+eax],bl
00005776  0000              add [eax],al
00005778  1413              adc al,0x13
0000577A  0000              add [eax],al
0000577C  5C                pop esp
0000577D  DEFF              fdivp st7,st0
0000577F  FF0500000000      inc dword [0x0]
00005785  41                inc ecx
00005786  0E                push cs
00005787  088502420D05      or [ebp+0x50d4202],al
0000578D  41                inc ecx
0000578E  C50C04            lds ecx,[esp+eax]
00005791  0400              add al,0x0
00005793  001C00            add [eax+eax],bl
00005796  0000              add [eax],al
00005798  3413              xor al,0x13
0000579A  0000              add [eax],al
0000579C  42                inc edx
0000579D  DEFF              fdivp st7,st0
0000579F  FF1A              call far [edx]
000057A1  0000              add [eax],al
000057A3  0000              add [eax],al
000057A5  41                inc ecx
000057A6  0E                push cs
000057A7  088502420D05      or [ebp+0x50d4202],al
000057AD  56                push esi
000057AE  C50C04            lds ecx,[esp+eax]
000057B1  0400              add al,0x0
000057B3  0020              add [eax],ah
000057B5  0000              add [eax],al
000057B7  00541300          add [ebx+edx+0x0],dl
000057BB  003CDE            add [esi+ebx*8],bh
000057BE  FF                db 0xFF
000057BF  FF6100            jmp near [ecx+0x0]
000057C2  0000              add [eax],al
000057C4  00410E            add [ecx+0xe],al
000057C7  088502420D05      or [ebp+0x50d4202],al
000057CD  44                inc esp
000057CE  830302            add dword [ebx],byte +0x2
000057D1  58                pop eax
000057D2  C3                ret
000057D3  41                inc ecx
000057D4  C50C04            lds ecx,[esp+eax]
000057D7  041C              add al,0x1c
000057D9  0000              add [eax],al
000057DB  007813            add [eax+0x13],bh
000057DE  0000              add [eax],al
000057E0  79DE              jns 0x57c0
000057E2  FF                db 0xFF
000057E3  FF1A              call far [edx]
000057E5  0000              add [eax],al
000057E7  0000              add [eax],al
000057E9  41                inc ecx
000057EA  0E                push cs
000057EB  088502420D05      or [ebp+0x50d4202],al
000057F1  56                push esi
000057F2  C50C04            lds ecx,[esp+eax]
000057F5  0400              add al,0x0
000057F7  001C00            add [eax+eax],bl
000057FA  0000              add [eax],al
000057FC  98                cwde
000057FD  1300              adc eax,[eax]
000057FF  0073DE            add [ebx-0x22],dh
00005802  FF                db 0xFF
00005803  FF13              call near [ebx]
00005805  0000              add [eax],al
00005807  0000              add [eax],al
00005809  41                inc ecx
0000580A  0E                push cs
0000580B  088502420D05      or [ebp+0x50d4202],al
00005811  4F                dec edi
00005812  C50C04            lds ecx,[esp+eax]
00005815  0400              add al,0x0
00005817  002400            add [eax+eax],ah
0000581A  0000              add [eax],al
0000581C  B813000066        mov eax,0x66000013
00005821  DEFF              fdivp st7,st0
00005823  FF440000          inc dword [eax+eax+0x0]
00005827  0000              add [eax],al
00005829  41                inc ecx
0000582A  0E                push cs
0000582B  088502420D05      or [ebp+0x50d4202],al
00005831  45                inc ebp
00005832  8603              xchg al,[ebx]
00005834  830479C3          add dword [ecx+edi*2],byte -0x3d
00005838  41                inc ecx
00005839  C641C50C          mov byte [ecx-0x3b],0xc
0000583D  0404              add al,0x4
0000583F  001C00            add [eax+eax],bl
00005842  0000              add [eax],al
00005844  E013              loopne 0x5859
00005846  0000              add [eax],al
00005848  82                db 0x82
00005849  DEFF              fdivp st7,st0
0000584B  FF1B              call far [ebx]
0000584D  0000              add [eax],al
0000584F  0000              add [eax],al
00005851  41                inc ecx
00005852  0E                push cs
00005853  088502420D05      or [ebp+0x50d4202],al
00005859  57                push edi
0000585A  C50C04            lds ecx,[esp+eax]
0000585D  0400              add al,0x0
0000585F  001C00            add [eax+eax],bl
00005862  0000              add [eax],al
00005864  001400            add [eax+eax],dl
00005867  007DDE            add [ebp-0x22],bh
0000586A  FF                db 0xFF
0000586B  FF1B              call far [ebx]
0000586D  0000              add [eax],al
0000586F  0000              add [eax],al
00005871  41                inc ecx
00005872  0E                push cs
00005873  088502420D05      or [ebp+0x50d4202],al
00005879  57                push edi
0000587A  C50C04            lds ecx,[esp+eax]
0000587D  0400              add al,0x0
0000587F  001C00            add [eax+eax],bl
00005882  0000              add [eax],al
00005884  201400            and [eax+eax],dl
00005887  0078DE            add [eax-0x22],bh
0000588A  FF                db 0xFF
0000588B  FF36              push dword [esi]
0000588D  0000              add [eax],al
0000588F  0000              add [eax],al
00005891  41                inc ecx
00005892  0E                push cs
00005893  088502420D05      or [ebp+0x50d4202],al
00005899  72C5              jc 0x5860
0000589B  0C04              or al,0x4
0000589D  0400              add al,0x0
0000589F  001C00            add [eax+eax],bl
000058A2  0000              add [eax],al
000058A4  40                inc eax
000058A5  1400              adc al,0x0
000058A7  008EDEFFFF21      add [esi+0x21ffffde],cl
000058AD  0000              add [eax],al
000058AF  0000              add [eax],al
000058B1  41                inc ecx
000058B2  0E                push cs
000058B3  088502420D05      or [ebp+0x50d4202],al
000058B9  5D                pop ebp
000058BA  C50C04            lds ecx,[esp+eax]
000058BD  0400              add al,0x0
000058BF  001C00            add [eax+eax],bl
000058C2  0000              add [eax],al
000058C4  60                pusha
000058C5  1400              adc al,0x0
000058C7  008FDEFFFF29      add [edi+0x29ffffde],cl
000058CD  0000              add [eax],al
000058CF  0000              add [eax],al
000058D1  41                inc ecx
000058D2  0E                push cs
000058D3  088502420D05      or [ebp+0x50d4202],al
000058D9  65C50C04          lds ecx,[gs:esp+eax]
000058DD  0400              add al,0x0
000058DF  001C00            add [eax+eax],bl
000058E2  0000              add [eax],al
000058E4  80140000          adc byte [eax+eax],0x0
000058E8  98                cwde
000058E9  DEFF              fdivp st7,st0
000058EB  FF0A              dec dword [edx]
000058ED  0000              add [eax],al
000058EF  0000              add [eax],al
000058F1  41                inc ecx
000058F2  0E                push cs
000058F3  088502420D05      or [ebp+0x50d4202],al
000058F9  46                inc esi
000058FA  C50C04            lds ecx,[esp+eax]
000058FD  0400              add al,0x0
000058FF  002C00            add [eax+eax],ch
00005902  0000              add [eax],al
00005904  1413              adc al,0x13
00005906  0000              add [eax],al
00005908  82                db 0x82
00005909  DEFF              fdivp st7,st0
0000590B  FF5500            call near [ebp+0x0]
0000590E  0000              add [eax],al
00005910  0420              add al,0x20
00005912  E004              loopne 0x5918
00005914  08410E            or [ecx+0xe],al
00005917  088502420D05      or [ebp+0x50d4202],al
0000591D  46                inc esi
0000591E  8703              xchg eax,[ebx]
00005920  860483            xchg al,[ebx+eax*4]
00005923  050248C341        add eax,0x41c34802
00005928  C641C741          mov byte [ecx-0x39],0x41
0000592C  C50C04            lds ecx,[esp+eax]
0000592F  041C              add al,0x1c
00005931  0000              add [eax],al
00005933  00D0              add al,dl
00005935  1400              adc al,0x0
00005937  00A8DEFFFF05      add [eax+0x5ffffde],ch
0000593D  0000              add [eax],al
0000593F  0000              add [eax],al
00005941  41                inc ecx
00005942  0E                push cs
00005943  088502420D05      or [ebp+0x50d4202],al
00005949  41                inc ecx
0000594A  C50C04            lds ecx,[esp+eax]
0000594D  0400              add al,0x0
0000594F  0020              add [eax],ah
00005951  0000              add [eax],al
00005953  00F0              add al,dh
00005955  1400              adc al,0x0
00005957  008DDEFFFF2C      add [ebp+0x2cffffde],cl
0000595D  0000              add [eax],al
0000595F  0000              add [eax],al
00005961  41                inc ecx
00005962  0E                push cs
00005963  088502420D05      or [ebp+0x50d4202],al
00005969  44                inc esp
0000596A  830363            add dword [ebx],byte +0x63
0000596D  C3                ret
0000596E  41                inc ecx
0000596F  C50C04            lds ecx,[esp+eax]
00005972  0400              add al,0x0
00005974  1C00              sbb al,0x0
00005976  0000              add [eax],al
00005978  1415              adc al,0x15
0000597A  0000              add [eax],al
0000597C  96                xchg eax,esi
0000597D  DEFF              fdivp st7,st0
0000597F  FF1500000000      call near [0x0]
00005985  41                inc ecx
00005986  0E                push cs
00005987  088502420D05      or [ebp+0x50d4202],al
0000598D  51                push ecx
0000598E  C50C04            lds ecx,[esp+eax]
00005991  0400              add al,0x0
00005993  001C00            add [eax+eax],bl
00005996  0000              add [eax],al
00005998  3415              xor al,0x15
0000599A  0000              add [eax],al
0000599C  8BDE              mov ebx,esi
0000599E  FF                db 0xFF
0000599F  FF08              dec dword [eax]
000059A1  0000              add [eax],al
000059A3  0000              add [eax],al
000059A5  41                inc ecx
000059A6  0E                push cs
000059A7  088502420D05      or [ebp+0x50d4202],al
000059AD  44                inc esp
000059AE  C50C04            lds ecx,[esp+eax]
000059B1  0400              add al,0x0
000059B3  001C00            add [eax+eax],bl
000059B6  0000              add [eax],al
000059B8  54                push esp
000059B9  15000073DE        adc eax,0xde730000
000059BE  FF                db 0xFF
000059BF  FF32              push dword [edx]
000059C1  0000              add [eax],al
000059C3  0000              add [eax],al
000059C5  41                inc ecx
000059C6  0E                push cs
000059C7  088502420D05      or [ebp+0x50d4202],al
000059CD  6E                outsb
000059CE  C50C04            lds ecx,[esp+eax]
000059D1  0400              add al,0x0
000059D3  001C00            add [eax+eax],bl
000059D6  0000              add [eax],al
000059D8  7415              jz 0x59ef
000059DA  0000              add [eax],al
000059DC  85DE              test esi,ebx
000059DE  FF                db 0xFF
000059DF  FF4600            inc dword [esi+0x0]
000059E2  0000              add [eax],al
000059E4  00410E            add [ecx+0xe],al
000059E7  088502420D05      or [ebp+0x50d4202],al
000059ED  0242C5            add al,[edx-0x3b]
000059F0  0C04              or al,0x4
000059F2  0400              add al,0x0
000059F4  1C00              sbb al,0x0
000059F6  0000              add [eax],al
000059F8  94                xchg eax,esp
000059F9  150000ABDE        adc eax,0xdeab0000
000059FE  FF                db 0xFF
000059FF  FF08              dec dword [eax]
00005A01  0000              add [eax],al
00005A03  0000              add [eax],al
00005A05  41                inc ecx
00005A06  0E                push cs
00005A07  088502420D05      or [ebp+0x50d4202],al
00005A0D  44                inc esp
00005A0E  C50C04            lds ecx,[esp+eax]
00005A11  0400              add al,0x0
00005A13  001C00            add [eax+eax],bl
00005A16  0000              add [eax],al
00005A18  B415              mov ah,0x15
00005A1A  0000              add [eax],al
00005A1C  93                xchg eax,ebx
00005A1D  DEFF              fdivp st7,st0
00005A1F  FF13              call near [ebx]
00005A21  0000              add [eax],al
00005A23  0000              add [eax],al
00005A25  41                inc ecx
00005A26  0E                push cs
00005A27  088502420D05      or [ebp+0x50d4202],al
00005A2D  4F                dec edi
00005A2E  C50C04            lds ecx,[esp+eax]
00005A31  0400              add al,0x0
00005A33  001C00            add [eax+eax],bl
00005A36  0000              add [eax],al
00005A38  D415              aam 0x15
00005A3A  0000              add [eax],al
00005A3C  86DE              xchg bl,dh
00005A3E  FF                db 0xFF
00005A3F  FF2500000000      jmp near [0x0]
00005A45  41                inc ecx
00005A46  0E                push cs
00005A47  088502420D05      or [ebp+0x50d4202],al
00005A4D  61                popa
00005A4E  C50C04            lds ecx,[esp+eax]
00005A51  0400              add al,0x0
00005A53  001C00            add [eax+eax],bl
00005A56  0000              add [eax],al
00005A58  F4                hlt
00005A59  1500008BDE        adc eax,0xde8b0000
00005A5E  FF                db 0xFF
00005A5F  FF13              call near [ebx]
00005A61  0000              add [eax],al
00005A63  0000              add [eax],al
00005A65  41                inc ecx
00005A66  0E                push cs
00005A67  088502420D05      or [ebp+0x50d4202],al
00005A6D  4F                dec edi
00005A6E  C50C04            lds ecx,[esp+eax]
00005A71  0400              add al,0x0
00005A73  001C00            add [eax+eax],bl
00005A76  0000              add [eax],al
00005A78  1416              adc al,0x16
00005A7A  0000              add [eax],al
00005A7C  7EDE              jng 0x5a5c
00005A7E  FF                db 0xFF
00005A7F  FF0A              dec dword [edx]
00005A81  0000              add [eax],al
00005A83  0000              add [eax],al
00005A85  41                inc ecx
00005A86  0E                push cs
00005A87  088502420D05      or [ebp+0x50d4202],al
00005A8D  46                inc esi
00005A8E  C50C04            lds ecx,[esp+eax]
00005A91  0400              add al,0x0
00005A93  001C00            add [eax+eax],bl
00005A96  0000              add [eax],al
00005A98  3416              xor al,0x16
00005A9A  0000              add [eax],al
00005A9C  68DEFFFF21        push dword 0x21ffffde
00005AA1  0000              add [eax],al
00005AA3  0000              add [eax],al
00005AA5  41                inc ecx
00005AA6  0E                push cs
00005AA7  088502420D05      or [ebp+0x50d4202],al
00005AAD  5D                pop ebp
00005AAE  C50C04            lds ecx,[esp+eax]
00005AB1  0400              add al,0x0
00005AB3  001C00            add [eax+eax],bl
00005AB6  0000              add [eax],al
00005AB8  54                push esp
00005AB9  16                push ss
00005ABA  0000              add [eax],al
00005ABC  69DEFFFF1300      imul ebx,esi,dword 0x13ffff
00005AC2  0000              add [eax],al
00005AC4  00410E            add [ecx+0xe],al
00005AC7  088502420D05      or [ebp+0x50d4202],al
00005ACD  4F                dec edi
00005ACE  C50C04            lds ecx,[esp+eax]
00005AD1  0400              add al,0x0
00005AD3  001C00            add [eax+eax],bl
00005AD6  0000              add [eax],al
00005AD8  7416              jz 0x5af0
00005ADA  0000              add [eax],al
00005ADC  5C                pop esp
00005ADD  DEFF              fdivp st7,st0
00005ADF  FF30              push dword [eax]
00005AE1  0000              add [eax],al
00005AE3  0000              add [eax],al
00005AE5  41                inc ecx
00005AE6  0E                push cs
00005AE7  088502420D05      or [ebp+0x50d4202],al
00005AED  6C                insb
00005AEE  C50C04            lds ecx,[esp+eax]
00005AF1  0400              add al,0x0
00005AF3  0028              add [eax],ch
00005AF5  0000              add [eax],al
00005AF7  0008              add [eax],cl
00005AF9  1500006CDE        adc eax,0xde6c0000
00005AFE  FF                db 0xFF
00005AFF  FFB700000004      push dword [edi+0x4000000]
00005B05  2CE0              sub al,0xe0
00005B07  0408              add al,0x8
00005B09  41                inc ecx
00005B0A  0E                push cs
00005B0B  088502420D05      or [ebp+0x50d4202],al
00005B11  45                inc ebp
00005B12  8603              xchg al,[ebx]
00005B14  830402AC          add dword [edx+eax],byte -0x54
00005B18  C3                ret
00005B19  41                inc ecx
00005B1A  C641C50C          mov byte [ecx-0x3b],0xc
00005B1E  0404              add al,0x4
00005B20  1C00              sbb al,0x0
00005B22  0000              add [eax],al
00005B24  C01600            rcl byte [esi],0x0
00005B27  00F7              add bh,dh
00005B29  DEFF              fdivp st7,st0
00005B2B  FF37              push dword [edi]
00005B2D  0000              add [eax],al
00005B2F  0000              add [eax],al
00005B31  41                inc ecx
00005B32  0E                push cs
00005B33  088502420D05      or [ebp+0x50d4202],al
00005B39  73C5              jnc 0x5b00
00005B3B  0C04              or al,0x4
00005B3D  0400              add al,0x0
00005B3F  001C00            add [eax+eax],bl
00005B42  0000              add [eax],al
00005B44  E016              loopne 0x5b5c
00005B46  0000              add [eax],al
00005B48  0E                push cs
00005B49  DF                db 0xDF
00005B4A  FF                db 0xFF
00005B4B  FF6600            jmp near [esi+0x0]
00005B4E  0000              add [eax],al
00005B50  00410E            add [ecx+0xe],al
00005B53  088502420D05      or [ebp+0x50d4202],al
00005B59  0262C5            add ah,[edx-0x3b]
00005B5C  0C04              or al,0x4
00005B5E  0400              add al,0x0
00005B60  1C00              sbb al,0x0
00005B62  0000              add [eax],al
00005B64  0017              add [edi],dl
00005B66  0000              add [eax],al
00005B68  54                push esp
00005B69  DF                db 0xDF
00005B6A  FF                db 0xFF
00005B6B  FF                db 0xFF
00005B6C  3D00000000        cmp eax,0x0
00005B71  41                inc ecx
00005B72  0E                push cs
00005B73  088502420D05      or [ebp+0x50d4202],al
00005B79  79C5              jns 0x5b40
00005B7B  0C04              or al,0x4
00005B7D  0400              add al,0x0
00005B7F  001C00            add [eax+eax],bl
00005B82  0000              add [eax],al
00005B84  2017              and [edi],dl
00005B86  0000              add [eax],al
00005B88  71DF              jno 0x5b69
00005B8A  FF                db 0xFF
00005B8B  FF08              dec dword [eax]
00005B8D  0000              add [eax],al
00005B8F  0000              add [eax],al
00005B91  41                inc ecx
00005B92  0E                push cs
00005B93  088502420D05      or [ebp+0x50d4202],al
00005B99  44                inc esp
00005B9A  C50C04            lds ecx,[esp+eax]
00005B9D  0400              add al,0x0
00005B9F  001C00            add [eax+eax],bl
00005BA2  0000              add [eax],al
00005BA4  40                inc eax
00005BA5  17                pop ss
00005BA6  0000              add [eax],al
00005BA8  59                pop ecx
00005BA9  DF                db 0xDF
00005BAA  FF                db 0xFF
00005BAB  FF08              dec dword [eax]
00005BAD  0000              add [eax],al
00005BAF  0000              add [eax],al
00005BB1  41                inc ecx
00005BB2  0E                push cs
00005BB3  088502420D05      or [ebp+0x50d4202],al
00005BB9  44                inc esp
00005BBA  C50C04            lds ecx,[esp+eax]
00005BBD  0400              add al,0x0
00005BBF  001C00            add [eax+eax],bl
00005BC2  0000              add [eax],al
00005BC4  60                pusha
00005BC5  17                pop ss
00005BC6  0000              add [eax],al
00005BC8  42                inc edx
00005BC9  DF                db 0xDF
00005BCA  FF                db 0xFF
00005BCB  FF08              dec dword [eax]
00005BCD  0000              add [eax],al
00005BCF  0000              add [eax],al
00005BD1  41                inc ecx
00005BD2  0E                push cs
00005BD3  088502420D05      or [ebp+0x50d4202],al
00005BD9  44                inc esp
00005BDA  C50C04            lds ecx,[esp+eax]
00005BDD  0400              add al,0x0
00005BDF  001C00            add [eax+eax],bl
00005BE2  0000              add [eax],al
00005BE4  801700            adc byte [edi],0x0
00005BE7  002A              add [edx],ch
00005BE9  DF                db 0xDF
00005BEA  FF                db 0xFF
00005BEB  FF27              jmp near [edi]
00005BED  0000              add [eax],al
00005BEF  0000              add [eax],al
00005BF1  41                inc ecx
00005BF2  0E                push cs
00005BF3  088502420D05      or [ebp+0x50d4202],al
00005BF9  61                popa
00005BFA  C50C04            lds ecx,[esp+eax]
00005BFD  0400              add al,0x0
00005BFF  001C00            add [eax+eax],bl
00005C02  0000              add [eax],al
00005C04  A017000032        mov al,[0x32000017]
00005C09  DF                db 0xDF
00005C0A  FF                db 0xFF
00005C0B  FF28              jmp far [eax]
00005C0D  0000              add [eax],al
00005C0F  0000              add [eax],al
00005C11  41                inc ecx
00005C12  0E                push cs
00005C13  088502420D05      or [ebp+0x50d4202],al
00005C19  62                db 0x62
00005C1A  C50C04            lds ecx,[esp+eax]
00005C1D  0400              add al,0x0
00005C1F  001C00            add [eax+eax],bl
00005C22  0000              add [eax],al
00005C24  C01700            rcl byte [edi],0x0
00005C27  003A              add [edx],bh
00005C29  DF                db 0xDF
00005C2A  FF                db 0xFF
00005C2B  FF21              jmp near [ecx]
00005C2D  0000              add [eax],al
00005C2F  0000              add [eax],al
00005C31  41                inc ecx
00005C32  0E                push cs
00005C33  088502420D05      or [ebp+0x50d4202],al
00005C39  5D                pop ebp
00005C3A  C50C04            lds ecx,[esp+eax]
00005C3D  0400              add al,0x0
00005C3F  001C00            add [eax+eax],bl
00005C42  0000              add [eax],al
00005C44  E017              loopne 0x5c5d
00005C46  0000              add [eax],al
00005C48  3CDF              cmp al,0xdf
00005C4A  FF                db 0xFF
00005C4B  FF0F              dec dword [edi]
00005C4D  0000              add [eax],al
00005C4F  0000              add [eax],al
00005C51  41                inc ecx
00005C52  0E                push cs
00005C53  088502420D05      or [ebp+0x50d4202],al
00005C59  4B                dec ebx
00005C5A  C50C04            lds ecx,[esp+eax]
00005C5D  0400              add al,0x0
00005C5F  001C00            add [eax+eax],bl
00005C62  0000              add [eax],al
00005C64  0018              add [eax],bl
00005C66  0000              add [eax],al
00005C68  2BDF              sub ebx,edi
00005C6A  FF                db 0xFF
00005C6B  FF21              jmp near [ecx]
00005C6D  0000              add [eax],al
00005C6F  0000              add [eax],al
00005C71  41                inc ecx
00005C72  0E                push cs
00005C73  088502420D05      or [ebp+0x50d4202],al
00005C79  5D                pop ebp
00005C7A  C50C04            lds ecx,[esp+eax]
00005C7D  0400              add al,0x0
00005C7F  001C00            add [eax+eax],bl
00005C82  0000              add [eax],al
00005C84  2018              and [eax],bl
00005C86  0000              add [eax],al
00005C88  2CDF              sub al,0xdf
00005C8A  FF                db 0xFF
00005C8B  FF21              jmp near [ecx]
00005C8D  0000              add [eax],al
00005C8F  0000              add [eax],al
00005C91  41                inc ecx
00005C92  0E                push cs
00005C93  088502420D05      or [ebp+0x50d4202],al
00005C99  5D                pop ebp
00005C9A  C50C04            lds ecx,[esp+eax]
00005C9D  0400              add al,0x0
00005C9F  001C00            add [eax+eax],bl
00005CA2  0000              add [eax],al
00005CA4  40                inc eax
00005CA5  1800              sbb [eax],al
00005CA7  002DDFFFFF4B      add [0x4bffffdf],ch
00005CAD  0000              add [eax],al
00005CAF  0000              add [eax],al
00005CB1  41                inc ecx
00005CB2  0E                push cs
00005CB3  088502420D05      or [ebp+0x50d4202],al
00005CB9  0247C5            add al,[edi-0x3b]
00005CBC  0C04              or al,0x4
00005CBE  0400              add al,0x0
00005CC0  1C00              sbb al,0x0
00005CC2  0000              add [eax],al
00005CC4  60                pusha
00005CC5  1800              sbb [eax],al
00005CC7  0058DF            add [eax-0x21],bl
00005CCA  FF                db 0xFF
00005CCB  FF22              jmp near [edx]
00005CCD  0000              add [eax],al
00005CCF  0000              add [eax],al
00005CD1  41                inc ecx
00005CD2  0E                push cs
00005CD3  088502420D05      or [ebp+0x50d4202],al
00005CD9  5C                pop esp
00005CDA  C50C04            lds ecx,[esp+eax]
00005CDD  0400              add al,0x0
00005CDF  002400            add [eax+eax],ah
00005CE2  0000              add [eax],al
00005CE4  801800            sbb byte [eax],0x0
00005CE7  005ADF            add [edx-0x21],bl
00005CEA  FF                db 0xFF
00005CEB  FF440000          inc dword [eax+eax+0x0]
00005CEF  0000              add [eax],al
00005CF1  41                inc ecx
00005CF2  0E                push cs
00005CF3  088502420D05      or [ebp+0x50d4202],al
00005CF9  45                inc ebp
00005CFA  8603              xchg al,[ebx]
00005CFC  830479C3          add dword [ecx+edi*2],byte -0x3d
00005D00  41                inc ecx
00005D01  C641C50C          mov byte [ecx-0x3b],0xc
00005D05  0404              add al,0x4
00005D07  001C00            add [eax+eax],bl
00005D0A  0000              add [eax],al
00005D0C  A818              test al,0x18
00005D0E  0000              add [eax],al
00005D10  76DF              jna 0x5cf1
00005D12  FF                db 0xFF
00005D13  FF12              call near [edx]
00005D15  0000              add [eax],al
00005D17  0000              add [eax],al
00005D19  41                inc ecx
00005D1A  0E                push cs
00005D1B  088502420D05      or [ebp+0x50d4202],al
00005D21  4C                dec esp
00005D22  C50C04            lds ecx,[esp+eax]
00005D25  0400              add al,0x0
00005D27  001C00            add [eax+eax],bl
00005D2A  0000              add [eax],al
00005D2C  C8180000          enter 0x18,0x0
00005D30  68DFFFFF13        push dword 0x13ffffdf
00005D35  0000              add [eax],al
00005D37  0000              add [eax],al
00005D39  41                inc ecx
00005D3A  0E                push cs
00005D3B  088502420D05      or [ebp+0x50d4202],al
00005D41  4F                dec edi
00005D42  C50C04            lds ecx,[esp+eax]
00005D45  0400              add al,0x0
00005D47  001C00            add [eax+eax],bl
00005D4A  0000              add [eax],al
00005D4C  E81800005B        call 0x5b005d69
00005D51  DF                db 0xDF
00005D52  FF                db 0xFF
00005D53  FF2500000000      jmp near [0x0]
00005D59  41                inc ecx
00005D5A  0E                push cs
00005D5B  088502420D05      or [ebp+0x50d4202],al
00005D61  61                popa
00005D62  C50C04            lds ecx,[esp+eax]
00005D65  0400              add al,0x0
00005D67  001C00            add [eax+eax],bl
00005D6A  0000              add [eax],al
00005D6C  0819              or [ecx],bl
00005D6E  0000              add [eax],al
00005D70  60                pusha
00005D71  DF                db 0xDF
00005D72  FF                db 0xFF
00005D73  FF1500000000      call near [0x0]
00005D79  41                inc ecx
00005D7A  0E                push cs
00005D7B  088502420D05      or [ebp+0x50d4202],al
00005D81  51                push ecx
00005D82  C50C04            lds ecx,[esp+eax]
00005D85  0400              add al,0x0
00005D87  001C00            add [eax+eax],bl
00005D8A  0000              add [eax],al
00005D8C  2819              sub [ecx],bl
00005D8E  0000              add [eax],al
00005D90  55                push ebp
00005D91  DF                db 0xDF
00005D92  FF                db 0xFF
00005D93  FF4900            dec dword [ecx+0x0]
00005D96  0000              add [eax],al
00005D98  00410E            add [ecx+0xe],al
00005D9B  088502420D05      or [ebp+0x50d4202],al
00005DA1  0245C5            add al,[ebp-0x3b]
00005DA4  0C04              or al,0x4
00005DA6  0400              add al,0x0
00005DA8  1C00              sbb al,0x0
00005DAA  0000              add [eax],al
00005DAC  48                dec eax
00005DAD  1900              sbb [eax],eax
00005DAF  007EDF            add [esi-0x21],bh
00005DB2  FF                db 0xFF
00005DB3  FF08              dec dword [eax]
00005DB5  0000              add [eax],al
00005DB7  0000              add [eax],al
00005DB9  41                inc ecx
00005DBA  0E                push cs
00005DBB  088502420D05      or [ebp+0x50d4202],al
00005DC1  44                inc esp
00005DC2  C50C04            lds ecx,[esp+eax]
00005DC5  0400              add al,0x0
00005DC7  001C00            add [eax+eax],bl
00005DCA  0000              add [eax],al
00005DCC  6819000024        push dword 0x24000019
00005DD1  BAFFFF3F00        mov edx,0x3fffff
00005DD6  0000              add [eax],al
00005DD8  00410E            add [ecx+0xe],al
00005DDB  088502420D05      or [ebp+0x50d4202],al
00005DE1  7BC5              jpo 0x5da8
00005DE3  0C04              or al,0x4
00005DE5  0400              add al,0x0
00005DE7  001C00            add [eax+eax],bl
00005DEA  0000              add [eax],al
00005DEC  8819              mov [ecx],bl
00005DEE  0000              add [eax],al
00005DF0  43                inc ebx
00005DF1  BAFFFF1C00        mov edx,0x1cffff
00005DF6  0000              add [eax],al
00005DF8  00410E            add [ecx+0xe],al
00005DFB  088502420D05      or [ebp+0x50d4202],al
00005E01  58                pop eax
00005E02  C50C04            lds ecx,[esp+eax]
00005E05  0400              add al,0x0
00005E07  0000              add [eax],al
00005E09  0000              add [eax],al
00005E0B  00FF              add bh,bh
00005E0D  FF01              inc dword [ecx]
00005E0F  8F01              pop dword [ecx]
00005E11  49                dec ecx
00005E12  058D170070        add eax,0x7000178d
00005E17  258B1700E6        and eax,0xe600178b
00005E1C  0105E6140090      add [0x900014e6],eax
00005E22  0205BF14009F      add al,[0x9f0014bf]
00005E28  0205D4140093      add al,[0x930014d4]
00005E2E  0305B41500BD      add eax,[0xbd0015b4]
00005E34  03058D1500CC      add eax,[0xcc00158d]
00005E3A  0305A21500BE      add eax,[0xbe0015a2]
00005E40  0481              add al,0x81
00005E42  01E9              add ecx,ebp
00005E44  16                push ss
00005E45  00AA0605FC15      add [edx+0x15fc0506],ch
00005E4B  00D4              add ah,dl
00005E4D  06                push es
00005E4E  05D91500E3        add eax,0xe30015d9
00005E53  06                push es
00005E54  05EC1500B8        add eax,0xb80015ec
00005E59  07                pop es
00005E5A  14D9              adc al,0xd9
00005E5C  16                push ss
00005E5D  00E9              add cl,ch
00005E5F  07                pop es
00005E60  059E1600F8        add eax,0xf800169e
00005E65  07                pop es
00005E66  05B11600A9        add eax,0xa90016b1
00005E6B  0905C11600EC      or [0xec0016c1],eax
00005E71  0946C9            or [esi-0x37],eax
00005E74  16                push ss
00005E75  009A1205C516      add [edx+0x16c50512],bl
00005E7B  00BB12A501C9      add [ebx+0xc901a512],bh
00005E81  16                push ss
00005E82  00E7              add bh,ah
00005E84  1305D91600F3      adc eax,[0xf30016d9]
00005E8A  1305E91600FF      adc eax,[0xff0016e9]
00005E90  1305F916008B      adc eax,[0x8b0016f9]
00005E96  1405              adc al,0x5
00005E98  8B17              mov edx,[edi]
00005E9A  009017050000      add [eax+0x517],dl
00005EA0  FF                db 0xFF
00005EA1  FF01              inc dword [ecx]
00005EA3  0C1B              or al,0x1b
00005EA5  0500003405        add eax,0x5340000
00005EAA  3B00              cmp eax,[eax]
00005EAC  4D                dec ebp
00005EAD  050000FFFF        add eax,0xffff0000
00005EB2  010C28            add [eax+ebp],ecx
00005EB5  053A003305        add eax,0x533003a
00005EBA  0000              add [eax],al
00005EBC  4C                dec esp
00005EBD  050000FFFF        add eax,0xffff0000
00005EC2  010C1B            add [ebx+ebx],ecx
00005EC5  0500003405        add eax,0x5340000
00005ECA  3B00              cmp eax,[eax]
00005ECC  4D                dec ebp
00005ECD  050000FFFF        add eax,0xffff0000
00005ED2  010C28            add [eax+ebp],ecx
00005ED5  053A003305        add eax,0x533003a
00005EDA  0000              add [eax],al
00005EDC  4C                dec esp
00005EDD  050000FFFF        add eax,0xffff0000
00005EE2  010C14            add [esp+edx],ecx
00005EE5  0500003105        add eax,0x5310000
00005EEA  3800              cmp [eax],al
00005EEC  4A                dec edx
00005EED  050000FFFF        add eax,0xffff0000
00005EF2  010C28            add [eax+ebp],ecx
00005EF5  053A003305        add eax,0x533003a
00005EFA  0000              add [eax],al
00005EFC  4C                dec esp
00005EFD  050000FFFF        add eax,0xffff0000
00005F02  010C14            add [esp+edx],ecx
00005F05  0500002633        add eax,0x33260000
00005F0A  5B                pop ebx
00005F0B  006D05            add [ebp+0x5],ch
00005F0E  0000              add [eax],al
00005F10  FF                db 0xFF
00005F11  FF01              inc dword [ecx]
00005F13  0826              or [esi],ah
00005F15  052D003F05        add eax,0x53f002d
00005F1A  0000              add [eax],al
00005F1C  FF                db 0xFF
00005F1D  FF01              inc dword [ecx]
00005F1F  0830              or [eax],dh
00005F21  0542005405        add eax,0x5540042
00005F26  0000              add [eax],al
00005F28  FF                db 0xFF
00005F29  FF01              inc dword [ecx]
00005F2B  0826              or [esi],ah
00005F2D  052D003F05        add eax,0x53f002d
00005F32  0000              add [eax],al
00005F34  FF                db 0xFF
00005F35  FF01              inc dword [ecx]
00005F37  085205            or [edx+0x5],dl
00005F3A  64007605          add [fs:esi+0x5],dh
00005F3E  0000              add [eax],al
00005F40  FF                db 0xFF
00005F41  FF01              inc dword [ecx]
00005F43  085205            or [edx+0x5],dl
00005F46  64007605          add [fs:esi+0x5],dh
00005F4A  0000              add [eax],al
00005F4C  FF                db 0xFF
00005F4D  FF01              inc dword [ecx]
00005F4F  0E                push cs
00005F50  360500005A37      ss add eax,0x375a0000
00005F56  99                cdq
00005F57  0100              add [eax],eax
00005F59  AB                stosd
00005F5A  01050000FFFF      add [0xffff0000],eax
00005F60  0110              add [eax],edx
00005F62  1426              adc al,0x26
00005F64  CB                retf
00005F65  0100              add [eax],eax
00005F67  B401              mov ah,0x1
00005F69  05C90100CE        add eax,0xce0001c9
00005F6E  01050000FFFF      add [0xffff0000],eax
00005F74  010A              add [edx],ecx
00005F76  53                push ebx
00005F77  388D01009001      cmp [ebp+0x1900001],cl
00005F7D  050000FFFF        add eax,0xffff0000
00005F82  0110              add [eax],edx
00005F84  130500002805      adc eax,[0x5280000]
00005F8A  46                inc esi
00005F8B  003D05440049      add [0x49004405],bh
00005F91  050000FFFF        add eax,0xffff0000
00005F96  0108              add [eax],ecx
00005F98  26052D003F05      es add eax,0x53f002d
00005F9E  0000              add [eax],al
00005FA0  FF                db 0xFF
00005FA1  FF01              inc dword [ecx]
00005FA3  11880105EB03      adc [eax+0x3eb0501],ecx
00005FA9  00E4              add ah,ah
00005FAB  0305ED0300F0      add eax,[0xf00003ed]
00005FB1  030500000000      add eax,[0x0]
00005FB7  00FF              add bh,bh
00005FB9  002D01228B01      add [0x18b2201],ch
00005FBF  05E10400C7        add eax,0xc70004e1
00005FC4  01440000          add [eax+eax+0x0],eax
00005FC8  F60243            test byte [edx],0x43
00005FCB  FA                cli
00005FCC  0401              add al,0x1
00005FCE  DD03              fld qword [ebx]
00005FD0  8C01              mov [ecx],es
00005FD2  0000              add [eax],al
00005FD4  F5                cmc
00005FD5  0405              add al,0x5
00005FD7  0000              add [eax],al
00005FD9  A5                movsd
00005FDA  0546E90400        add eax,0x4e946
00005FDF  0100              add [eax],eax
00005FE1  0000              add [eax],al
00005FE3  0000              add [eax],al
00005FE5  0000              add [eax],al
00005FE7  00FF              add bh,bh
00005FE9  FF01              inc dword [ecx]
00005FEB  0BD5              or edx,ebp
00005FED  0105A80200AE      add [0xae0002a8],eax
00005FF3  02050000FFFF      add al,[0xffff0000]
00005FF9  010B              add [ebx],ecx
00005FFB  8B01              mov eax,[ecx]
00005FFD  0592010095        add eax,0x95000192
00006002  010500000000      add [0x0],eax
00006008  FF00              inc dword [eax]
0000600A  15010C2405        adc eax,0x5240c01
0000600F  49                dec ecx
00006010  01440500          add [ebp+eax+0x0],eax
00006014  005E0A            add [esi+0xa],bl
00006017  3800              cmp [eax],al
00006019  0100              add [eax],eax
0000601B  0000              add [eax],al
0000601D  0000              add [eax],al
0000601F  00FF              add bh,bh
00006021  FF01              inc dword [ecx]
00006023  082C0535004805    or [eax+0x5480035],ch
0000602A  0000              add [eax],al
0000602C  FF                db 0xFF
0000602D  FF01              inc dword [ecx]
0000602F  0E                push cs
00006030  360500005A37      ss add eax,0x375a0000
00006036  99                cdq
00006037  0100              add [eax],eax
00006039  AB                stosd
0000603A  010500000000      add [0x0],eax
00006040  FF                db 0xFF
00006041  FF                db 0xFF
00006042  FF                db 0xFF
00006043  FF33              push dword [ebx]
00006045  98                cwde
00006046  0408              add al,0x8
00006048  0000              add [eax],al
0000604A  0000              add [eax],al
0000604C  FF                db 0xFF
0000604D  FF                db 0xFF
0000604E  FF                db 0xFF
0000604F  FF00              inc dword [eax]
00006051  0000              add [eax],al
00006053  0000              add [eax],al
00006055  0000              add [eax],al
00006057  0001              add [ecx],al
00006059  0000              add [eax],al
0000605B  0001              add [ecx],al
0000605D  0000              add [eax],al
0000605F  0001              add [ecx],al
00006061  0000              add [eax],al
00006063  00D8              add al,bl
00006065  0100              add [eax],eax
00006067  0001              add [ecx],al
00006069  0000              add [eax],al
0000606B  00E2              add dl,ah
0000606D  0100              add [eax],eax
0000606F  0001              add [ecx],al
00006071  0000              add [eax],al
00006073  00FF              add bh,bh
00006075  0100              add [eax],eax
00006077  000C00            add [eax+eax],cl
0000607A  0000              add [eax],al
0000607C  D08704080D00      rol byte [edi+0xd0804],1
00006082  0000              add [eax],al
00006084  D8BD04080400      fdivr dword [ebp+0x40804]
0000608A  0000              add [eax],al
0000608C  6881040805        push dword 0x5080481
00006091  0000              add [eax],al
00006093  00E4              add ah,ah
00006095  83040806          add dword [eax+ecx],byte +0x6
00006099  0000              add [eax],al
0000609B  002482            add [edx+eax*4],ah
0000609E  0408              add al,0x8
000060A0  0A00              or al,[eax]
000060A2  0000              add [eax],al
000060A4  7402              jz 0x60a8
000060A6  0000              add [eax],al
000060A8  0B00              or eax,[eax]
000060AA  0000              add [eax],al
000060AC  1000              adc [eax],al
000060AE  0000              add [eax],al
000060B0  1500000000        adc eax,0x0
000060B5  0000              add [eax],al
000060B7  0003              add [ebx],al
000060B9  0000              add [eax],al
000060BB  003CF1            add [ecx+esi*8],bh
000060BE  0408              add al,0x8
000060C0  0200              add al,[eax]
000060C2  0000              add [eax],al
000060C4  A800              test al,0x0
000060C6  0000              add [eax],al
000060C8  1400              adc al,0x0
000060CA  0000              add [eax],al
000060CC  1100              adc [eax],eax
000060CE  0000              add [eax],al
000060D0  17                pop ss
000060D1  0000              add [eax],al
000060D3  0028              add [eax],ch
000060D5  870408            xchg eax,[eax+ecx]
000060D8  1100              adc [eax],eax
000060DA  0000              add [eax],al
000060DC  108704081200      adc [edi+0x120804],al
000060E2  0000              add [eax],al
000060E4  1800              sbb [eax],al
000060E6  0000              add [eax],al
000060E8  1300              adc eax,[eax]
000060EA  0000              add [eax],al
000060EC  0800              or [eax],al
000060EE  0000              add [eax],al
000060F0  FE                db 0xFE
000060F1  FF                db 0xFF
000060F2  FF6F90            jmp far [edi-0x70]
000060F5  860408            xchg al,[eax+ecx]
000060F8  FF                db 0xFF
000060F9  FF                db 0xFF
000060FA  FF6F03            jmp far [edi+0x3]
000060FD  0000              add [eax],al
000060FF  00F0              add al,dh
00006101  FF                db 0xFF
00006102  FF6F58            jmp far [edi+0x58]
00006105  860408            xchg al,[eax+ecx]
00006108  0000              add [eax],al
0000610A  0000              add [eax],al
0000610C  0000              add [eax],al
0000610E  0000              add [eax],al
00006110  0000              add [eax],al
00006112  0000              add [eax],al
00006114  0000              add [eax],al
00006116  0000              add [eax],al
00006118  0000              add [eax],al
0000611A  0000              add [eax],al
0000611C  0000              add [eax],al
0000611E  0000              add [eax],al
00006120  0000              add [eax],al
00006122  0000              add [eax],al
00006124  0000              add [eax],al
00006126  0000              add [eax],al
00006128  0000              add [eax],al
0000612A  0000              add [eax],al
0000612C  0000              add [eax],al
0000612E  0000              add [eax],al
00006130  0000              add [eax],al
00006132  0000              add [eax],al
00006134  0000              add [eax],al
00006136  0000              add [eax],al
00006138  0000              add [eax],al
0000613A  0000              add [eax],al
0000613C  58                pop eax
0000613D  F00408            lock add al,0x8
00006140  0000              add [eax],al
00006142  0000              add [eax],al
00006144  0000              add [eax],al
00006146  0000              add [eax],al
00006148  16                push ss
00006149  880408            mov [eax+ecx],al
0000614C  26880408          mov [es:eax+ecx],al
00006150  36880408          mov [ss:eax+ecx],al
00006154  46                inc esi
00006155  880408            mov [eax+ecx],al
00006158  56                push esi
00006159  880408            mov [eax+ecx],al
0000615C  66880408          o16 mov [eax+ecx],al
00006160  7688              jna 0x60ea
00006162  0408              add al,0x8
00006164  868804089688      xchg cl,[eax+0x88960804]
0000616A  0408              add al,0x8
0000616C  A6                cmpsb
0000616D  880408            mov [eax+ecx],al
00006170  B688              mov dh,0x88
00006172  0408              add al,0x8
00006174  C6                db 0xC6
00006175  880408            mov [eax+ecx],al
00006178  D6                salc
00006179  880408            mov [eax+ecx],al
0000617C  E688              out 0x88,al
0000617E  0408              add al,0x8
00006180  F6                db 0xF6
00006181  880408            mov [eax+ecx],al
00006184  06                push es
00006185  890408            mov [eax+ecx],eax
00006188  16                push ss
00006189  890408            mov [eax+ecx],eax
0000618C  26890408          mov [es:eax+ecx],eax
00006190  36890408          mov [ss:eax+ecx],eax
00006194  46                inc esi
00006195  890408            mov [eax+ecx],eax
00006198  56                push esi
00006199  890408            mov [eax+ecx],eax
0000619C  0000              add [eax],al
0000619E  0000              add [eax],al
000061A0  0000              add [eax],al
000061A2  0000              add [eax],al
000061A4  47                inc edi
000061A5  43                inc ebx
000061A6  43                inc ebx
000061A7  3A20              cmp ah,[eax]
000061A9  285562            sub [ebp+0x62],dl
000061AC  756E              jnz 0x621c
000061AE  7475              jz 0x6225
000061B0  20342E            and [esi+ebp],dh
000061B3  342E              xor al,0x2e
000061B5  332D34756275      xor ebp,[0x75627534]
000061BB  6E                outsb
000061BC  7475              jz 0x6233
000061BE  352920342E        xor eax,0x2e342029
000061C3  342E              xor al,0x2e
000061C5  3300              xor eax,[eax]
000061C7  47                inc edi
000061C8  43                inc ebx
000061C9  43                inc ebx
000061CA  3A20              cmp ah,[eax]
000061CC  28474E            sub [edi+0x4e],al
000061CF  55                push ebp
000061D0  2920              sub [eax],esp
000061D2  342E              xor al,0x2e
000061D4  382E              cmp [esi],ch
000061D6  3100              xor [eax],eax
000061D8  1C00              sbb al,0x0
000061DA  0000              add [eax],al
000061DC  0200              add al,[eax]
000061DE  0000              add [eax],al
000061E0  0000              add [eax],al
000061E2  0400              add al,0x0
000061E4  0000              add [eax],al
000061E6  0000              add [eax],al
000061E8  60                pusha
000061E9  890408            mov [eax+ecx],eax
000061EC  2200              and al,[eax]
000061EE  0000              add [eax],al
000061F0  0000              add [eax],al
000061F2  0000              add [eax],al
000061F4  0000              add [eax],al
000061F6  0000              add [eax],al
000061F8  1C00              sbb al,0x0
000061FA  0000              add [eax],al
000061FC  0200              add al,[eax]
000061FE  0E                push cs
000061FF  0100              add [eax],eax
00006201  000400            add [eax+eax],al
00006204  0000              add [eax],al
00006206  0000              add [eax],al
00006208  40                inc eax
00006209  BD04086A00        mov ebp,0x6a0804
0000620E  0000              add [eax],al
00006210  0000              add [eax],al
00006212  0000              add [eax],al
00006214  0000              add [eax],al
00006216  0000              add [eax],al
00006218  2100              and [eax],eax
0000621A  0000              add [eax],al
0000621C  0200              add al,[eax]
0000621E  810000008D00      add dword [eax],0x8d0000
00006224  0000              add [eax],al
00006226  7500              jnz 0x6228
00006228  0000              add [eax],al
0000622A  5F                pop edi
0000622B  49                dec ecx
0000622C  4F                dec edi
0000622D  5F                pop edi
0000622E  7374              jnc 0x62a4
00006230  64696E5F75736564  imul ebp,[fs:esi+0x5f],dword 0x64657375
00006238  0000              add [eax],al
0000623A  0000              add [eax],al
0000623C  0036              add [esi],dh
0000623E  0000              add [eax],al
00006240  0002              add [edx],al
00006242  000E              add [esi],cl
00006244  0100              add [eax],eax
00006246  0013              add [ebx],dl
00006248  0100              add [eax],eax
0000624A  003E              add [esi],bh
0000624C  0000              add [eax],al
0000624E  005F5F            add [edi+0x5f],bl
00006251  6C                insb
00006252  6962635F637375    imul esp,[edx+0x63],dword 0x7573635f
00006259  5F                pop edi
0000625A  66696E690053      imul bp,[esi+0x69],word 0x5300
00006260  0000              add [eax],al
00006262  005F5F            add [edi+0x5f],bl
00006265  6C                insb
00006266  6962635F637375    imul esp,[edx+0x63],dword 0x7573635f
0000626D  5F                pop edi
0000626E  696E6974000000    imul ebp,[esi+0x69],dword 0x74
00006275  0000              add [eax],al
00006277  7D00              jnl 0x6279
00006279  0000              add [eax],al
0000627B  0200              add al,[eax]
0000627D  0000              add [eax],al
0000627F  0000              add [eax],al
00006281  0401              add al,0x1
00006283  0000              add [eax],al
00006285  0000              add [eax],al
00006287  60                pusha
00006288  890408            mov [eax+ecx],eax
0000628B  82                db 0x82
0000628C  890408            mov [eax+ecx],eax
0000628F  2E2E2F            cs das
00006292  7379              jnc 0x630d
00006294  7364              jnc 0x62fa
00006296  657073            gs jo 0x630c
00006299  2F                das
0000629A  693338362F65      imul esi,[ebx],dword 0x652f3638
000062A0  6C                insb
000062A1  662F              o16 das
000062A3  7374              jnc 0x6319
000062A5  61                popa
000062A6  7274              jc 0x631c
000062A8  2E53              cs push ebx
000062AA  002F              add [edi],ch
000062AC  686F6D652F        push dword 0x2f656d6f
000062B1  7069              jo 0x631c
000062B3  657272            gs jc 0x6328
000062B6  652F              gs das
000062B8  42                inc edx
000062B9  7572              jnz 0x632d
000062BB  6561              gs popa
000062BD  752F              jnz 0x62ee
000062BF  6865616465        push dword 0x65646165
000062C4  7273              jc 0x6339
000062C6  2D676C6962        sub eax,0x62696c67
000062CB  632D666F722D      arpl [0x2d726f66],bp
000062D1  6C                insb
000062D2  696E75782F676C    imul ebp,[esi+0x75],dword 0x6c672f78
000062D9  6962632D322E31    imul esp,[edx+0x63],dword 0x312e322d
000062E0  322E              xor ch,[esi]
000062E2  322F              xor ch,[edi]
000062E4  637375            arpl [ebx+0x75],si
000062E7  00474E            add [edi+0x4e],al
000062EA  55                push ebp
000062EB  204153            and [ecx+0x53],al
000062EE  2032              and [edx],dh
000062F0  2E3230            xor dh,[cs:eax]
000062F3  2E3100            xor [cs:eax],eax
000062F6  018089000000      add [eax+0x89],eax
000062FC  0200              add al,[eax]
000062FE  1400              adc al,0x0
00006300  0000              add [eax],al
00006302  0401              add al,0x1
00006304  8E00              mov es,[eax]
00006306  0000              add [eax],al
00006308  01CD              add ebp,ecx
0000630A  0000              add [eax],al
0000630C  004300            add [ebx+0x0],al
0000630F  0000              add [eax],al
00006311  848904088489      test [ecx+0x89840804],cl
00006317  0408              add al,0x8
00006319  5B                pop ebx
0000631A  0000              add [eax],al
0000631C  0002              add [edx],al
0000631E  0108              add [eax],ecx
00006320  800000            add byte [eax],0x0
00006323  0002              add [edx],al
00006325  0207              add al,[edi]
00006327  0000              add [eax],al
00006329  0000              add [eax],al
0000632B  020407            add al,[edi+eax]
0000632E  360000            add [ss:eax],al
00006331  0002              add [edx],al
00006333  0407              add al,0x7
00006335  3100              xor [eax],eax
00006337  0000              add [eax],al
00006339  0201              add al,[ecx]
0000633B  06                push es
0000633C  82                db 0x82
0000633D  0000              add [eax],al
0000633F  0002              add [edx],al
00006341  020513000000      add al,[0x13]
00006347  030405696E7400    add eax,[eax+0x746e69]
0000634E  0208              add cl,[eax]
00006350  059A000000        add eax,0x9a
00006355  0208              add cl,[eax]
00006357  07                pop es
00006358  2C00              sub al,0x0
0000635A  0000              add [eax],al
0000635C  0204059F000000    add al,[eax+0x9f]
00006363  0404              add al,0x4
00006365  07                pop es
00006366  0201              add al,[ecx]
00006368  06                push es
00006369  8900              mov [eax],eax
0000636B  0000              add [eax],al
0000636D  051D000000        add eax,0x1d
00006372  0119              add [ecx],ebx
00006374  8700              xchg eax,[eax]
00006376  0000              add [eax],al
00006378  010503FCBD04      add [0x4bdfc03],eax
0000637E  0806              or [esi],al
00006380  4F                dec edi
00006381  0000              add [eax],al
00006383  0000              add [eax],al
00006385  0F0100            sgdt [eax]
00006388  0002              add [edx],al
0000638A  005F00            add [edi+0x0],bl
0000638D  0000              add [eax],al
0000638F  0401              add al,0x1
00006391  8E00              mov es,[eax]
00006393  0000              add [eax],al
00006395  01C9              add ecx,ecx
00006397  0000              add [eax],al
00006399  004300            add [ebx+0x0],al
0000639C  0000              add [eax],al
0000639E  40                inc eax
0000639F  BD0408AABD        mov ebp,0xbdaa0804
000063A4  0408              add al,0x8
000063A6  82                db 0x82
000063A7  0000              add [eax],al
000063A9  0002              add [edx],al
000063AB  0405              add al,0x5
000063AD  696E740003AD00    imul ebp,[esi+0x74],dword 0xad0300
000063B4  0000              add [eax],al
000063B6  02D3              add dl,bl
000063B8  37                aaa
000063B9  0000              add [eax],al
000063BB  000404            add [esp+eax],al
000063BE  07                pop es
000063BF  360000            add [ss:eax],al
000063C2  000501FD0000      add [0xfd01],al
000063C8  0001              add [ecx],al
000063CA  830140            add dword [ecx],byte +0x40
000063CD  BD040845BD        mov ebp,0xbd450804
000063D2  0408              add al,0x8
000063D4  0000              add [eax],al
000063D6  0000              add [eax],al
000063D8  06                push es
000063D9  01B900000001      add [ecx+0x1000000],edi
000063DF  690150BD0408      imul eax,[ecx],dword 0x804bd50
000063E5  AA                stosb
000063E6  BD04082C00        mov ebp,0x2c0804
000063EB  0000              add [eax],al
000063ED  B900000007        mov ecx,0x7000000
000063F2  B400              mov ah,0x0
000063F4  0000              add [eax],al
000063F6  016925            add [ecx+0x25],ebp
000063F9  0000              add [eax],al
000063FB  0002              add [edx],al
000063FD  91                xchg eax,ecx
000063FE  0007              add [edi],al
00006400  0D01000001        or eax,0x1000001
00006405  69B9000000029104  imul edi,[ecx+0x2000000],dword 0xa8070491
         -07A8
0000640F  0000              add [eax],al
00006411  0001              add [ecx],al
00006413  69B9000000029108  imul edi,[ecx+0x2000000],dword 0xe7080891
         -08E7
0000641D  0000              add [eax],al
0000641F  0001              add [ecx],al
00006421  7ACC              jpe 0x63ef
00006423  0000              add [eax],al
00006425  0009              add [ecx],cl
00006427  69BD0408A2BD0408  imul edi,[ebp+0xbda20804],dword 0x690a0804
         -0A69
00006431  0001              add [ecx],al
00006433  7B2C              jpo 0x6461
00006435  0000              add [eax],al
00006437  005800            add [eax+0x0],bl
0000643A  0000              add [eax],al
0000643C  0000              add [eax],al
0000643E  0B04BF            or eax,[edi+edi*4]
00006441  0000              add [eax],al
00006443  000B              add [ebx],cl
00006445  04C5              add al,0xc5
00006447  0000              add [eax],al
00006449  000401            add [ecx+eax],al
0000644C  06                push es
0000644D  8900              mov [eax],eax
0000644F  0000              add [eax],al
00006451  0C2C              or al,0x2c
00006453  0000              add [eax],al
00006455  000DF2000000      add [0xf2],cl
0000645B  DC00              fadd qword [eax]
0000645D  0000              add [eax],al
0000645F  0E                push cs
00006460  000F              add [edi],cl
00006462  01F2              add edx,esi
00006464  0000              add [eax],al
00006466  0010              add [eax],dl
00006468  2500000010        and eax,0x10000000
0000646D  B900000010        mov ecx,0x10000000
00006472  B900000000        mov ecx,0x0
00006477  0B04DC            or eax,[esp+ebx*8]
0000647A  0000              add [eax],al
0000647C  0011              add [ecx],dl
0000647E  D400              aam 0x0
00006480  0000              add [eax],al
00006482  013B              add [ebx],edi
00006484  D100              rol dword [eax],1
00006486  0000              add [eax],al
00006488  0101              add [ecx],eax
0000648A  11EC              adc esp,ebp
0000648C  0000              add [eax],al
0000648E  0001              add [ecx],al
00006490  3DD1000000        cmp eax,0xd1
00006495  0101              add [ecx],eax
00006497  0001              add [ecx],al
00006499  1100              adc [eax],eax
0000649B  1006              adc [esi],al
0000649D  1101              adc [ecx],eax
0000649F  1201              adc al,[ecx]
000064A1  0308              add ecx,[eax]
000064A3  1B08              sbb ecx,[eax]
000064A5  2508130500        and eax,0x51308
000064AA  0000              add [eax],al
000064AC  0111              add [ecx],edx
000064AE  01250E130B03      add [0x30b130e],esp
000064B4  0E                push cs
000064B5  1B0E              sbb ecx,[esi]
000064B7  1101              adc [ecx],eax
000064B9  1201              adc al,[ecx]
000064BB  1006              adc [esi],al
000064BD  0000              add [eax],al
000064BF  022400            add ah,[eax+eax]
000064C2  0B0B              or ecx,[ebx]
000064C4  3E0B03            or eax,[ds:ebx]
000064C7  0E                push cs
000064C8  0000              add [eax],al
000064CA  032400            add esp,[eax+eax]
000064CD  0B0B              or ecx,[ebx]
000064CF  3E0B03            or eax,[ds:ebx]
000064D2  0800              or [eax],al
000064D4  000424            add [esp],al
000064D7  000B              add [ebx],cl
000064D9  0B3E              or edi,[esi]
000064DB  0B00              or eax,[eax]
000064DD  00053400030E      add [0xe030034],al
000064E3  3A0B              cmp cl,[ebx]
000064E5  3B0B              cmp ecx,[ebx]
000064E7  49                dec ecx
000064E8  133F              adc edi,[edi]
000064EA  0C02              or al,0x2
000064EC  0A00              or al,[eax]
000064EE  0006              add [esi],al
000064F0  26004913          add [es:ecx+0x13],cl
000064F4  0000              add [eax],al
000064F6  0001              add [ecx],al
000064F8  1101              adc [ecx],eax
000064FA  250E130B03        and eax,0x30b130e
000064FF  0E                push cs
00006500  1B0E              sbb ecx,[esi]
00006502  1101              adc [ecx],eax
00006504  1201              adc al,[ecx]
00006506  1006              adc [esi],al
00006508  0000              add [eax],al
0000650A  022400            add ah,[eax+eax]
0000650D  0B0B              or ecx,[ebx]
0000650F  3E0B03            or eax,[ds:ebx]
00006512  0800              or [eax],al
00006514  0003              add [ebx],al
00006516  16                push ss
00006517  0003              add [ebx],al
00006519  0E                push cs
0000651A  3A0B              cmp cl,[ebx]
0000651C  3B0B              cmp ecx,[ebx]
0000651E  49                dec ecx
0000651F  1300              adc eax,[eax]
00006521  000424            add [esp],al
00006524  000B              add [ebx],cl
00006526  0B3E              or edi,[esi]
00006528  0B03              or eax,[ebx]
0000652A  0E                push cs
0000652B  0000              add [eax],al
0000652D  052E003F0C        add eax,0xc3f002e
00006532  030E              add ecx,[esi]
00006534  3A0B              cmp cl,[ebx]
00006536  3B0B              cmp ecx,[ebx]
00006538  27                daa
00006539  0C11              or al,0x11
0000653B  0112              add [edx],edx
0000653D  014006            add [eax+0x6],eax
00006540  0000              add [eax],al
00006542  06                push es
00006543  2E013F            add [cs:edi],edi
00006546  0C03              or al,0x3
00006548  0E                push cs
00006549  3A0B              cmp cl,[ebx]
0000654B  3B0B              cmp ecx,[ebx]
0000654D  27                daa
0000654E  0C11              or al,0x11
00006550  0112              add [edx],edx
00006552  014006            add [eax+0x6],eax
00006555  0113              add [ebx],edx
00006557  0000              add [eax],al
00006559  07                pop es
0000655A  0500030E3A        add eax,0x3a0e0300
0000655F  0B3B              or edi,[ebx]
00006561  0B4913            or ecx,[ecx+0x13]
00006564  020A              add cl,[edx]
00006566  0000              add [eax],al
00006568  083400            or [eax+eax],dh
0000656B  030E              add ecx,[esi]
0000656D  3A0B              cmp cl,[ebx]
0000656F  3B0B              cmp ecx,[ebx]
00006571  49                dec ecx
00006572  1300              adc eax,[eax]
00006574  0009              add [ecx],cl
00006576  0B01              or eax,[ecx]
00006578  1101              adc [ecx],eax
0000657A  1201              adc al,[ecx]
0000657C  0000              add [eax],al
0000657E  0A3400            or dh,[eax+eax]
00006581  0308              add ecx,[eax]
00006583  3A0B              cmp cl,[ebx]
00006585  3B0B              cmp ecx,[ebx]
00006587  49                dec ecx
00006588  1302              adc eax,[edx]
0000658A  06                push es
0000658B  0000              add [eax],al
0000658D  0B0F              or ecx,[edi]
0000658F  000B              add [ebx],cl
00006591  0B4913            or ecx,[ecx+0x13]
00006594  0000              add [eax],al
00006596  0C26              or al,0x26
00006598  004913            add [ecx+0x13],cl
0000659B  0000              add [eax],al
0000659D  0D01014913        or eax,0x13490101
000065A2  0113              add [ebx],edx
000065A4  0000              add [eax],al
000065A6  0E                push cs
000065A7  2100              and [eax],eax
000065A9  0000              add [eax],al
000065AB  0F1501            unpckhps xmm0,[ecx]
000065AE  27                daa
000065AF  0C01              or al,0x1
000065B1  1300              adc eax,[eax]
000065B3  0010              add [eax],dl
000065B5  0500491300        add eax,0x134900
000065BA  0011              add [ecx],dl
000065BC  3400              xor al,0x0
000065BE  030E              add ecx,[esi]
000065C0  3A0B              cmp cl,[ebx]
000065C2  3B0B              cmp ecx,[ebx]
000065C4  49                dec ecx
000065C5  133F              adc edi,[edi]
000065C7  0C3C              or al,0x3c
000065C9  0C00              or al,0x0
000065CB  0000              add [eax],al
000065CD  57                push edi
000065CE  0000              add [eax],al
000065D0  0002              add [edx],al
000065D2  0032              add [edx],dh
000065D4  0000              add [eax],al
000065D6  0001              add [ecx],al
000065D8  01FB              add ebx,edi
000065DA  0E                push cs
000065DB  0D00010101        or eax,0x1010100
000065E0  0100              add [eax],eax
000065E2  0000              add [eax],al
000065E4  0100              add [eax],eax
000065E6  0001              add [ecx],al
000065E8  2E2E2F            cs das
000065EB  7379              jnc 0x6666
000065ED  7364              jnc 0x6653
000065EF  657073            gs jo 0x6665
000065F2  2F                das
000065F3  693338362F65      imul esi,[ebx],dword 0x652f3638
000065F9  6C                insb
000065FA  660000            o16 add [eax],al
000065FD  7374              jnc 0x6673
000065FF  61                popa
00006600  7274              jc 0x6676
00006602  2E53              cs push ebx
00006604  0001              add [ecx],al
00006606  0000              add [eax],al
00006608  0000              add [eax],al
0000660A  0502608904        add eax,0x4896002
0000660F  0803              or [ebx],al
00006611  C00001            rol byte [eax],0x1
00006614  3321              xor esp,[ecx]
00006616  343D              xor al,0x3d
00006618  2522031820        and eax,0x20180322
0000661D  59                pop ecx
0000661E  5A                pop edx
0000661F  2122              and [edx],esp
00006621  5C                pop esp
00006622  5B                pop ebx
00006623  0201              add al,[ecx]
00006625  0001              add [ecx],al
00006627  0123              add [ebx],esp
00006629  0000              add [eax],al
0000662B  0002              add [edx],al
0000662D  001D00000001      add [0x1000000],bl
00006633  01FB              add ebx,edi
00006635  0E                push cs
00006636  0D00010101        or eax,0x1010100
0000663B  0100              add [eax],eax
0000663D  0000              add [eax],al
0000663F  0100              add [eax],eax
00006641  0001              add [ecx],al
00006643  00696E            add [ecx+0x6e],ch
00006646  69742E6300000000  imul esi,[esi+ebp+0x63],dword 0x0
0000664E  007B00            add [ebx+0x0],bh
00006651  0000              add [eax],al
00006653  0200              add al,[eax]
00006655  57                push edi
00006656  0000              add [eax],al
00006658  0001              add [ecx],al
0000665A  01FB              add ebx,edi
0000665C  0E                push cs
0000665D  0D00010101        or eax,0x1010100
00006662  0100              add [eax],eax
00006664  0000              add [eax],al
00006666  0100              add [eax],eax
00006668  0001              add [ecx],al
0000666A  2F                das
0000666B  7573              jnz 0x66e0
0000666D  722F              jc 0x669e
0000666F  6C                insb
00006670  69622F6763632F    imul esp,[edx+0x2f],dword 0x2f636367
00006677  693438362D6C69    imul esi,[eax+edi],dword 0x696c2d36
0000667E  6E                outsb
0000667F  7578              jnz 0x66f9
00006681  2D676E752F        sub eax,0x2f756e67
00006686  342E              xor al,0x2e
00006688  342E              xor al,0x2e
0000668A  332F              xor ebp,[edi]
0000668C  696E636C756465    imul ebp,[esi+0x63],dword 0x6564756c
00006693  0000              add [eax],al
00006695  656C              gs insb
00006697  662D696E          sub ax,0x6e69
0000669B  69742E6300000000  imul esi,[esi+ebp+0x63],dword 0x0
000066A3  7374              jnc 0x6719
000066A5  646465662E680001  cs push word 0x100
000066AD  0000              add [eax],al
000066AF  0000              add [eax],al
000066B1  050240BD04        add eax,0x4bd4002
000066B6  0803              or [ebx],al
000066B8  830101            add dword [ecx],byte +0x1
000066BB  44                inc esp
000066BC  035EC8            add ebx,[esi-0x38]
000066BF  030E              add ecx,[esi]
000066C1  083C5B            or [ebx+ebx*2],bh
000066C4  086708            or [edi+0x8],ah
000066C7  9D                popf
000066C8  7602              jna 0x66cc
000066CA  0800              or [eax],al
000066CC  0101              add [ecx],eax
000066CE  0000              add [eax],al
000066D0  1000              adc [eax],al
000066D2  0000              add [eax],al
000066D4  FF                db 0xFF
000066D5  FF                db 0xFF
000066D6  FF                db 0xFF
000066D7  FF01              inc dword [ecx]
000066D9  0001              add [ecx],al
000066DB  7C08              jl 0x66e5
000066DD  0C04              or al,0x4
000066DF  0488              add al,0x88
000066E1  0100              add [eax],eax
000066E3  001400            add [eax+eax],dl
000066E6  0000              add [eax],al
000066E8  0000              add [eax],al
000066EA  0000              add [eax],al
000066EC  40                inc eax
000066ED  BD04080500        mov ebp,0x50804
000066F2  0000              add [eax],al
000066F4  41                inc ecx
000066F5  0E                push cs
000066F6  084285            or [edx-0x7b],al
000066F9  020D051C0000      add cl,[0x1c05]
000066FF  0000              add [eax],al
00006701  0000              add [eax],al
00006703  0050BD            add [eax-0x43],dl
00006706  0408              add al,0x8
00006708  5A                pop edx
00006709  0000              add [eax],al
0000670B  00410E            add [ecx+0xe],al
0000670E  084285            or [edx-0x7b],al
00006711  020D054E8305      add cl,[0x5834e05]
00006717  860487            xchg al,[edi+eax*4]
0000671A  0300              add eax,[eax]
0000671C  7368              jnc 0x6786
0000671E  6F                outsd
0000671F  7274              jc 0x6795
00006721  20756E            and [ebp+0x6e],dh
00006724  7369              jnc 0x678f
00006726  676E              a16 outsb
00006728  656420696E        and [fs:ecx+0x6e],ch
0000672D  7400              jz 0x672f
0000672F  7368              jnc 0x6799
00006731  6F                outsd
00006732  7274              jc 0x67a8
00006734  20696E            and [ecx+0x6e],ch
00006737  7400              jz 0x6739
00006739  5F                pop edi
0000673A  49                dec ecx
0000673B  4F                dec edi
0000673C  5F                pop edi
0000673D  7374              jnc 0x67b3
0000673F  64696E5F75736564  imul ebp,[fs:esi+0x5f],dword 0x64657375
00006747  006C6F6E          add [edi+ebp*2+0x6e],ch
0000674B  67206C6F          and [si+0x6f],ch
0000674F  6E                outsb
00006750  6720756E          and [di+0x6e],dh
00006754  7369              jnc 0x67bf
00006756  676E              a16 outsb
00006758  656420696E        and [fs:ecx+0x6e],ch
0000675D  7400              jz 0x675f
0000675F  2F                das
00006760  686F6D652F        push dword 0x2f656d6f
00006765  7069              jo 0x67d0
00006767  657272            gs jc 0x67dc
0000676A  652F              gs das
0000676C  42                inc edx
0000676D  7572              jnz 0x67e1
0000676F  6561              gs popa
00006771  752F              jnz 0x67a2
00006773  6865616465        push dword 0x65646165
00006778  7273              jc 0x67ed
0000677A  2D676C6962        sub eax,0x62696c67
0000677F  632D666F722D      arpl [0x2d726f66],bp
00006785  6C                insb
00006786  696E75782F676C    imul ebp,[esi+0x75],dword 0x6c672f78
0000678D  6962632D322E31    imul esp,[edx+0x63],dword 0x312e322d
00006794  322E              xor ch,[esi]
00006796  322F              xor ch,[edi]
00006798  637375            arpl [ebx+0x75],si
0000679B  00756E            add [ebp+0x6e],dh
0000679E  7369              jnc 0x6809
000067A0  676E              a16 outsb
000067A2  6564206368        and [fs:ebx+0x68],ah
000067A7  61                popa
000067A8  7200              jc 0x67aa
000067AA  47                inc edi
000067AB  4E                dec esi
000067AC  55                push ebp
000067AD  204320            and [ebx+0x20],al
000067B0  342E              xor al,0x2e
000067B2  342E              xor al,0x2e
000067B4  3300              xor eax,[eax]
000067B6  6C                insb
000067B7  6F                outsd
000067B8  6E                outsb
000067B9  67206C6F          and [si+0x6f],ch
000067BD  6E                outsb
000067BE  6720696E          and [bx+di+0x6e],ch
000067C2  7400              jz 0x67c4
000067C4  656E              gs outsb
000067C6  7670              jna 0x6838
000067C8  007369            add [ebx+0x69],dh
000067CB  7A65              jpe 0x6832
000067CD  5F                pop edi
000067CE  7400              jz 0x67d0
000067D0  61                popa
000067D1  7267              jc 0x683a
000067D3  6300              arpl [eax],ax
000067D5  5F                pop edi
000067D6  5F                pop edi
000067D7  6C                insb
000067D8  6962635F637375    imul esp,[edx+0x63],dword 0x7573635f
000067DF  5F                pop edi
000067E0  696E697400656C    imul ebp,[esi+0x69],dword 0x6c650074
000067E7  662D696E          sub ax,0x6e69
000067EB  69742E63005F5F69  imul esi,[esi+ebp+0x63],dword 0x695f5f00
000067F3  6E                outsb
000067F4  69745F6172726179  imul esi,[edi+ebx*2+0x61],dword 0x79617272
000067FC  5F                pop edi
000067FD  7374              jnc 0x6873
000067FF  61                popa
00006800  7274              jc 0x6876
00006802  007369            add [ebx+0x69],dh
00006805  7A65              jpe 0x686c
00006807  005F5F            add [edi+0x5f],bl
0000680A  696E69745F6172    imul ebp,[esi+0x69],dword 0x72615f74
00006811  7261              jc 0x6874
00006813  795F              jns 0x6874
00006815  656E              gs outsb
00006817  64005F5F          add [fs:edi+0x5f],bl
0000681B  6C                insb
0000681C  6962635F637375    imul esp,[edx+0x63],dword 0x7573635f
00006823  5F                pop edi
00006824  66696E690061      imul bp,[esi+0x69],word 0x6100
0000682A  7267              jc 0x6893
0000682C  7600              jna 0x682e
0000682E  0000              add [eax],al
00006830  0000              add [eax],al
00006832  0100              add [eax],eax
00006834  0000              add [eax],al
00006836  0200              add al,[eax]
00006838  7404              jz 0x683e
0000683A  0100              add [eax],eax
0000683C  0000              add [eax],al
0000683E  0300              add eax,[eax]
00006840  0000              add [eax],al
00006842  0200              add al,[eax]
00006844  7408              jz 0x684e
00006846  0300              add eax,[eax]
00006848  0000              add [eax],al
0000684A  0500000002        add eax,0x2000000
0000684F  007508            add [ebp+0x8],dh
00006852  0000              add [eax],al
00006854  0000              add [eax],al
00006856  0000              add [eax],al
00006858  0000              add [eax],al
0000685A  1000              adc [eax],al
0000685C  0000              add [eax],al
0000685E  1100              adc [eax],eax
00006860  0000              add [eax],al
00006862  0200              add al,[eax]
00006864  7404              jz 0x686a
00006866  1100              adc [eax],eax
00006868  0000              add [eax],al
0000686A  1300              adc eax,[eax]
0000686C  0000              add [eax],al
0000686E  0200              add al,[eax]
00006870  7408              jz 0x687a
00006872  1300              adc eax,[eax]
00006874  0000              add [eax],al
00006876  6A00              push byte +0x0
00006878  0000              add [eax],al
0000687A  0200              add al,[eax]
0000687C  7508              jnz 0x6886
0000687E  0000              add [eax],al
00006880  0000              add [eax],al
00006882  0000              add [eax],al
00006884  0000              add [eax],al
00006886  40                inc eax
00006887  0000              add [eax],al
00006889  006700            add [edi+0x0],ah
0000688C  0000              add [eax],al
0000688E  0100              add [eax],eax
00006890  56                push esi
00006891  0000              add [eax],al
00006893  0000              add [eax],al
00006895  0000              add [eax],al
00006897  0000              add [eax],al
00006899  002E              add [esi],ch
0000689B  7379              jnc 0x6916
0000689D  6D                insd
0000689E  7461              jz 0x6901
000068A0  6200              bound eax,[eax]
000068A2  2E7374            cs jnc 0x6919
000068A5  7274              jc 0x691b
000068A7  61                popa
000068A8  6200              bound eax,[eax]
000068AA  2E7368            cs jnc 0x6915
000068AD  7374              jnc 0x6923
000068AF  7274              jc 0x6925
000068B1  61                popa
000068B2  6200              bound eax,[eax]
000068B4  2E696E7465727000  imul ebp,[cs:esi+0x74],dword 0x707265
000068BC  2E6E              cs outsb
000068BE  6F                outsd
000068BF  7465              jz 0x6926
000068C1  2E41              cs inc ecx
000068C3  42                inc edx
000068C4  49                dec ecx
000068C5  2D74616700        sub eax,0x676174
000068CA  2E6861736800      cs push dword 0x687361
000068D0  2E64796E          fs jns 0x6942
000068D4  7379              jnc 0x694f
000068D6  6D                insd
000068D7  002E              add [esi],ch
000068D9  64796E            fs jns 0x694a
000068DC  7374              jnc 0x6952
000068DE  7200              jc 0x68e0
000068E0  2E676E            cs a16 outsb
000068E3  752E              jnz 0x6913
000068E5  7665              jna 0x694c
000068E7  7273              jc 0x695c
000068E9  696F6E002E676E    imul ebp,[edi+0x6e],dword 0x6e672e00
000068F0  752E              jnz 0x6920
000068F2  7665              jna 0x6959
000068F4  7273              jc 0x6969
000068F6  696F6E5F72002E    imul ebp,[edi+0x6e],dword 0x2e00725f
000068FD  7265              jc 0x6964
000068FF  6C                insb
00006900  2E64796E          fs jns 0x6972
00006904  002E              add [esi],ch
00006906  7265              jc 0x696d
00006908  6C                insb
00006909  2E706C            cs jo 0x6978
0000690C  7400              jz 0x690e
0000690E  2E696E6974002E74  imul ebp,[cs:esi+0x69],dword 0x742e0074
00006916  657874            gs js 0x698d
00006919  002E              add [esi],ch
0000691B  66696E69002E      imul bp,[esi+0x69],word 0x2e00
00006921  726F              jc 0x6992
00006923  6461              fs popa
00006925  7461              jz 0x6988
00006927  002E              add [esi],ch
00006929  65685F667261      gs push dword 0x6172665f
0000692F  6D                insd
00006930  655F              gs pop edi
00006932  686472002E        push dword 0x2e007264
00006937  65685F667261      gs push dword 0x6172665f
0000693D  6D                insd
0000693E  65002E            add [gs:esi],ch
00006941  6763635F          arpl [bp+di+0x5f],sp
00006945  657863            gs js 0x69ab
00006948  657074            gs jo 0x69bf
0000694B  5F                pop edi
0000694C  7461              jz 0x69af
0000694E  626C6500          bound ebp,[ebp+0x0]
00006952  2E63746F72        arpl [cs:edi+ebp*2+0x72],si
00006957  7300              jnc 0x6959
00006959  2E64746F          fs jz 0x69cc
0000695D  7273              jc 0x69d2
0000695F  002E              add [esi],ch
00006961  6A63              push byte +0x63
00006963  7200              jc 0x6965
00006965  2E64796E          fs jns 0x69d7
00006969  61                popa
0000696A  6D                insd
0000696B  6963002E676F74    imul esp,[ebx+0x0],dword 0x746f672e
00006972  002E              add [esi],ch
00006974  676F              a16 outsd
00006976  742E              jz 0x69a6
00006978  706C              jo 0x69e6
0000697A  7400              jz 0x697c
0000697C  2E6461            fs popa
0000697F  7461              jz 0x69e2
00006981  002E              add [esi],ch
00006983  627373            bound esi,[ebx+0x73]
00006986  002E              add [esi],ch
00006988  636F6D            arpl [edi+0x6d],bp
0000698B  6D                insd
0000698C  656E              gs outsb
0000698E  7400              jz 0x6990
00006990  2E6465627567      bound esi,[gs:ebp+0x67]
00006996  5F                pop edi
00006997  61                popa
00006998  7261              jc 0x69fb
0000699A  6E                outsb
0000699B  67657300          gs a16 jnc 0x699f
0000699F  2E6465627567      bound esi,[gs:ebp+0x67]
000069A5  5F                pop edi
000069A6  7075              jo 0x6a1d
000069A8  626E61            bound ebp,[esi+0x61]
000069AB  6D                insd
000069AC  657300            gs jnc 0x69af
000069AF  2E6465627567      bound esi,[gs:ebp+0x67]
000069B5  5F                pop edi
000069B6  696E666F002E64    imul ebp,[esi+0x66],dword 0x642e006f
000069BD  65627567          bound esi,[gs:ebp+0x67]
000069C1  5F                pop edi
000069C2  61                popa
000069C3  626272            bound esp,[edx+0x72]
000069C6  657600            gs jna 0x69c9
000069C9  2E6465627567      bound esi,[gs:ebp+0x67]
000069CF  5F                pop edi
000069D0  6C                insb
000069D1  696E65002E6465    imul ebp,[esi+0x65],dword 0x65642e00
000069D8  627567            bound esi,[ebp+0x67]
000069DB  5F                pop edi
000069DC  667261            o16 jc 0x6a40
000069DF  6D                insd
000069E0  65002E            add [gs:esi],ch
000069E3  6465627567        bound esi,[gs:ebp+0x67]
000069E8  5F                pop edi
000069E9  7374              jnc 0x6a5f
000069EB  7200              jc 0x69ed
000069ED  2E6465627567      bound esi,[gs:ebp+0x67]
000069F3  5F                pop edi
000069F4  6C                insb
000069F5  6F                outsd
000069F6  6300              arpl [eax],ax
000069F8  0000              add [eax],al
000069FA  0000              add [eax],al
000069FC  0000              add [eax],al
000069FE  0000              add [eax],al
00006A00  0000              add [eax],al
00006A02  0000              add [eax],al
00006A04  0000              add [eax],al
00006A06  0000              add [eax],al
00006A08  0000              add [eax],al
00006A0A  0000              add [eax],al
00006A0C  0000              add [eax],al
00006A0E  0000              add [eax],al
00006A10  0000              add [eax],al
00006A12  0000              add [eax],al
00006A14  0000              add [eax],al
00006A16  0000              add [eax],al
00006A18  0000              add [eax],al
00006A1A  0000              add [eax],al
00006A1C  0000              add [eax],al
00006A1E  0000              add [eax],al
00006A20  1B00              sbb eax,[eax]
00006A22  0000              add [eax],al
00006A24  0100              add [eax],eax
00006A26  0000              add [eax],al
00006A28  0200              add al,[eax]
00006A2A  0000              add [eax],al
00006A2C  3481              xor al,0x81
00006A2E  0408              add al,0x8
00006A30  3401              xor al,0x1
00006A32  0000              add [eax],al
00006A34  1300              adc eax,[eax]
00006A36  0000              add [eax],al
00006A38  0000              add [eax],al
00006A3A  0000              add [eax],al
00006A3C  0000              add [eax],al
00006A3E  0000              add [eax],al
00006A40  0100              add [eax],eax
00006A42  0000              add [eax],al
00006A44  0000              add [eax],al
00006A46  0000              add [eax],al
00006A48  2300              and eax,[eax]
00006A4A  0000              add [eax],al
00006A4C  07                pop es
00006A4D  0000              add [eax],al
00006A4F  0002              add [edx],al
00006A51  0000              add [eax],al
00006A53  004881            add [eax-0x7f],cl
00006A56  0408              add al,0x8
00006A58  48                dec eax
00006A59  0100              add [eax],eax
00006A5B  0020              add [eax],ah
00006A5D  0000              add [eax],al
00006A5F  0000              add [eax],al
00006A61  0000              add [eax],al
00006A63  0000              add [eax],al
00006A65  0000              add [eax],al
00006A67  000400            add [eax+eax],al
00006A6A  0000              add [eax],al
00006A6C  0000              add [eax],al
00006A6E  0000              add [eax],al
00006A70  3100              xor [eax],eax
00006A72  0000              add [eax],al
00006A74  0500000002        add eax,0x2000000
00006A79  0000              add [eax],al
00006A7B  006881            add [eax-0x7f],ch
00006A7E  0408              add al,0x8
00006A80  68010000BC        push dword 0xbc000001
00006A85  0000              add [eax],al
00006A87  000400            add [eax+eax],al
00006A8A  0000              add [eax],al
00006A8C  0000              add [eax],al
00006A8E  0000              add [eax],al
00006A90  0400              add al,0x0
00006A92  0000              add [eax],al
00006A94  0400              add al,0x0
00006A96  0000              add [eax],al
00006A98  37                aaa
00006A99  0000              add [eax],al
00006A9B  000B              add [ebx],cl
00006A9D  0000              add [eax],al
00006A9F  0002              add [edx],al
00006AA1  0000              add [eax],al
00006AA3  002482            add [edx+eax*4],ah
00006AA6  0408              add al,0x8
00006AA8  2402              and al,0x2
00006AAA  0000              add [eax],al
00006AAC  C00100            rol byte [ecx],0x0
00006AAF  000500000001      add [0x1000000],al
00006AB5  0000              add [eax],al
00006AB7  000400            add [eax+eax],al
00006ABA  0000              add [eax],al
00006ABC  1000              adc [eax],al
00006ABE  0000              add [eax],al
00006AC0  3F                aas
00006AC1  0000              add [eax],al
00006AC3  0003              add [ebx],al
00006AC5  0000              add [eax],al
00006AC7  0002              add [edx],al
00006AC9  0000              add [eax],al
00006ACB  00E4              add ah,ah
00006ACD  830408E4          add dword [eax+ecx],byte -0x1c
00006AD1  0300              add eax,[eax]
00006AD3  00740200          add [edx+eax+0x0],dh
00006AD7  0000              add [eax],al
00006AD9  0000              add [eax],al
00006ADB  0000              add [eax],al
00006ADD  0000              add [eax],al
00006ADF  0001              add [ecx],al
00006AE1  0000              add [eax],al
00006AE3  0000              add [eax],al
00006AE5  0000              add [eax],al
00006AE7  004700            add [edi+0x0],al
00006AEA  0000              add [eax],al
00006AEC  FF                db 0xFF
00006AED  FF                db 0xFF
00006AEE  FF6F02            jmp far [edi+0x2]
00006AF1  0000              add [eax],al
00006AF3  005886            add [eax-0x7a],bl
00006AF6  0408              add al,0x8
00006AF8  58                pop eax
00006AF9  06                push es
00006AFA  0000              add [eax],al
00006AFC  3800              cmp [eax],al
00006AFE  0000              add [eax],al
00006B00  0400              add al,0x0
00006B02  0000              add [eax],al
00006B04  0000              add [eax],al
00006B06  0000              add [eax],al
00006B08  0200              add al,[eax]
00006B0A  0000              add [eax],al
00006B0C  0200              add al,[eax]
00006B0E  0000              add [eax],al
00006B10  54                push esp
00006B11  0000              add [eax],al
00006B13  00FE              add dh,bh
00006B15  FF                db 0xFF
00006B16  FF6F02            jmp far [edi+0x2]
00006B19  0000              add [eax],al
00006B1B  009086040890      add [eax+0x90080486],dl
00006B21  06                push es
00006B22  0000              add [eax],al
00006B24  800000            add byte [eax],0x0
00006B27  000500000003      add [0x3000000],al
00006B2D  0000              add [eax],al
00006B2F  000400            add [eax+eax],al
00006B32  0000              add [eax],al
00006B34  0000              add [eax],al
00006B36  0000              add [eax],al
00006B38  6300              arpl [eax],ax
00006B3A  0000              add [eax],al
00006B3C  0900              or [eax],eax
00006B3E  0000              add [eax],al
00006B40  0200              add al,[eax]
00006B42  0000              add [eax],al
00006B44  108704081007      adc [edi+0x7100804],al
00006B4A  0000              add [eax],al
00006B4C  1800              sbb [eax],al
00006B4E  0000              add [eax],al
00006B50  0400              add al,0x0
00006B52  0000              add [eax],al
00006B54  0000              add [eax],al
00006B56  0000              add [eax],al
00006B58  0400              add al,0x0
00006B5A  0000              add [eax],al
00006B5C  0800              or [eax],al
00006B5E  0000              add [eax],al
00006B60  6C                insb
00006B61  0000              add [eax],al
00006B63  0009              add [ecx],cl
00006B65  0000              add [eax],al
00006B67  0002              add [edx],al
00006B69  0000              add [eax],al
00006B6B  0028              add [eax],ch
00006B6D  870408            xchg eax,[eax+ecx]
00006B70  2807              sub [edi],al
00006B72  0000              add [eax],al
00006B74  A800              test al,0x0
00006B76  0000              add [eax],al
00006B78  0400              add al,0x0
00006B7A  0000              add [eax],al
00006B7C  0B00              or eax,[eax]
00006B7E  0000              add [eax],al
00006B80  0400              add al,0x0
00006B82  0000              add [eax],al
00006B84  0800              or [eax],al
00006B86  0000              add [eax],al
00006B88  7500              jnz 0x6b8a
00006B8A  0000              add [eax],al
00006B8C  0100              add [eax],eax
00006B8E  0000              add [eax],al
00006B90  06                push es
00006B91  0000              add [eax],al
00006B93  00D0              add al,dl
00006B95  870408            xchg eax,[eax+ecx]
00006B98  D007              rol byte [edi],1
00006B9A  0000              add [eax],al
00006B9C  3000              xor [eax],al
00006B9E  0000              add [eax],al
00006BA0  0000              add [eax],al
00006BA2  0000              add [eax],al
00006BA4  0000              add [eax],al
00006BA6  0000              add [eax],al
00006BA8  0400              add al,0x0
00006BAA  0000              add [eax],al
00006BAC  0000              add [eax],al
00006BAE  0000              add [eax],al
00006BB0  7000              jo 0x6bb2
00006BB2  0000              add [eax],al
00006BB4  0100              add [eax],eax
00006BB6  0000              add [eax],al
00006BB8  06                push es
00006BB9  0000              add [eax],al
00006BBB  0000              add [eax],al
00006BBD  880408            mov [eax+ecx],al
00006BC0  0008              add [eax],cl
00006BC2  0000              add [eax],al
00006BC4  60                pusha
00006BC5  0100              add [eax],eax
00006BC7  0000              add [eax],al
00006BC9  0000              add [eax],al
00006BCB  0000              add [eax],al
00006BCD  0000              add [eax],al
00006BCF  0010              add [eax],dl
00006BD1  0000              add [eax],al
00006BD3  000400            add [eax+eax],al
00006BD6  0000              add [eax],al
00006BD8  7B00              jpo 0x6bda
00006BDA  0000              add [eax],al
00006BDC  0100              add [eax],eax
00006BDE  0000              add [eax],al
00006BE0  06                push es
00006BE1  0000              add [eax],al
00006BE3  006089            add [eax-0x77],ah
00006BE6  0408              add al,0x8
00006BE8  60                pusha
00006BE9  0900              or [eax],eax
00006BEB  007834            add [eax+0x34],bh
00006BEE  0000              add [eax],al
00006BF0  0000              add [eax],al
00006BF2  0000              add [eax],al
00006BF4  0000              add [eax],al
00006BF6  0000              add [eax],al
00006BF8  1000              adc [eax],al
00006BFA  0000              add [eax],al
00006BFC  0000              add [eax],al
00006BFE  0000              add [eax],al
00006C00  810000000100      add dword [eax],0x10000
00006C06  0000              add [eax],al
00006C08  06                push es
00006C09  0000              add [eax],al
00006C0B  00D8              add al,bl
00006C0D  BD0408D83D        mov ebp,0x3dd80804
00006C12  0000              add [eax],al
00006C14  1C00              sbb al,0x0
00006C16  0000              add [eax],al
00006C18  0000              add [eax],al
00006C1A  0000              add [eax],al
00006C1C  0000              add [eax],al
00006C1E  0000              add [eax],al
00006C20  0400              add al,0x0
00006C22  0000              add [eax],al
00006C24  0000              add [eax],al
00006C26  0000              add [eax],al
00006C28  8700              xchg eax,[eax]
00006C2A  0000              add [eax],al
00006C2C  0100              add [eax],eax
00006C2E  0000              add [eax],al
00006C30  0200              add al,[eax]
00006C32  0000              add [eax],al
00006C34  F8                clc
00006C35  BD0408F83D        mov ebp,0x3df80804
00006C3A  0000              add [eax],al
00006C3C  58                pop eax
00006C3D  0000              add [eax],al
00006C3F  0000              add [eax],al
00006C41  0000              add [eax],al
00006C43  0000              add [eax],al
00006C45  0000              add [eax],al
00006C47  0008              add [eax],cl
00006C49  0000              add [eax],al
00006C4B  0000              add [eax],al
00006C4D  0000              add [eax],al
00006C4F  008F00000001      add [edi+0x1000000],cl
00006C55  0000              add [eax],al
00006C57  0002              add [edx],al
00006C59  0000              add [eax],al
00006C5B  0050BE            add [eax-0x42],dl
00006C5E  0408              add al,0x8
00006C60  50                push eax
00006C61  3E0000            add [ds:eax],al
00006C64  1406              adc al,0x6
00006C66  0000              add [eax],al
00006C68  0000              add [eax],al
00006C6A  0000              add [eax],al
00006C6C  0000              add [eax],al
00006C6E  0000              add [eax],al
00006C70  0400              add al,0x0
00006C72  0000              add [eax],al
00006C74  0000              add [eax],al
00006C76  0000              add [eax],al
00006C78  9D                popf
00006C79  0000              add [eax],al
00006C7B  0001              add [ecx],al
00006C7D  0000              add [eax],al
00006C7F  0002              add [edx],al
00006C81  0000              add [eax],al
00006C83  0064C404          add [esp+eax*8+0x4],ah
00006C87  08644400          or [esp+eax*2+0x0],ah
00006C8B  00A819000000      add [eax+0x19],ch
00006C91  0000              add [eax],al
00006C93  0000              add [eax],al
00006C95  0000              add [eax],al
00006C97  000400            add [eax+eax],al
00006C9A  0000              add [eax],al
00006C9C  0000              add [eax],al
00006C9E  0000              add [eax],al
00006CA0  A7                cmpsd
00006CA1  0000              add [eax],al
00006CA3  0001              add [ecx],al
00006CA5  0000              add [eax],al
00006CA7  0002              add [edx],al
00006CA9  0000              add [eax],al
00006CAB  000CDE            add [esi+ebx*8],cl
00006CAE  0408              add al,0x8
00006CB0  0C5E              or al,0x5e
00006CB2  0000              add [eax],al
00006CB4  3202              xor al,[edx]
00006CB6  0000              add [eax],al
00006CB8  0000              add [eax],al
00006CBA  0000              add [eax],al
00006CBC  0000              add [eax],al
00006CBE  0000              add [eax],al
00006CC0  0400              add al,0x0
00006CC2  0000              add [eax],al
00006CC4  0000              add [eax],al
00006CC6  0000              add [eax],al
00006CC8  B900000001        mov ecx,0x1000000
00006CCD  0000              add [eax],al
00006CCF  0003              add [ebx],al
00006CD1  0000              add [eax],al
00006CD3  0040F0            add [eax-0x10],al
00006CD6  0408              add al,0x8
00006CD8  40                inc eax
00006CD9  60                pusha
00006CDA  0000              add [eax],al
00006CDC  0C00              or al,0x0
00006CDE  0000              add [eax],al
00006CE0  0000              add [eax],al
00006CE2  0000              add [eax],al
00006CE4  0000              add [eax],al
00006CE6  0000              add [eax],al
00006CE8  0400              add al,0x0
00006CEA  0000              add [eax],al
00006CEC  0000              add [eax],al
00006CEE  0000              add [eax],al
00006CF0  C00000            rol byte [eax],0x0
00006CF3  0001              add [ecx],al
00006CF5  0000              add [eax],al
00006CF7  0003              add [ebx],al
00006CF9  0000              add [eax],al
00006CFB  004CF004          add [eax+esi*8+0x4],cl
00006CFF  084C6000          or [eax+0x0],cl
00006D03  0008              add [eax],cl
00006D05  0000              add [eax],al
00006D07  0000              add [eax],al
00006D09  0000              add [eax],al
00006D0B  0000              add [eax],al
00006D0D  0000              add [eax],al
00006D0F  000400            add [eax+eax],al
00006D12  0000              add [eax],al
00006D14  0000              add [eax],al
00006D16  0000              add [eax],al
00006D18  C70000000100      mov dword [eax],0x10000
00006D1E  0000              add [eax],al
00006D20  0300              add eax,[eax]
00006D22  0000              add [eax],al
00006D24  54                push esp
00006D25  F00408            lock add al,0x8
00006D28  54                push esp
00006D29  60                pusha
00006D2A  0000              add [eax],al
00006D2C  0400              add al,0x0
00006D2E  0000              add [eax],al
00006D30  0000              add [eax],al
00006D32  0000              add [eax],al
00006D34  0000              add [eax],al
00006D36  0000              add [eax],al
00006D38  0400              add al,0x0
00006D3A  0000              add [eax],al
00006D3C  0000              add [eax],al
00006D3E  0000              add [eax],al
00006D40  CC                int3
00006D41  0000              add [eax],al
00006D43  0006              add [esi],al
00006D45  0000              add [eax],al
00006D47  0003              add [ebx],al
00006D49  0000              add [eax],al
00006D4B  0058F0            add [eax-0x10],bl
00006D4E  0408              add al,0x8
00006D50  58                pop eax
00006D51  60                pusha
00006D52  0000              add [eax],al
00006D54  E000              loopne 0x6d56
00006D56  0000              add [eax],al
00006D58  0500000000        add eax,0x0
00006D5D  0000              add [eax],al
00006D5F  000400            add [eax+eax],al
00006D62  0000              add [eax],al
00006D64  0800              or [eax],al
00006D66  0000              add [eax],al
00006D68  D500              aad 0x0
00006D6A  0000              add [eax],al
00006D6C  0100              add [eax],eax
00006D6E  0000              add [eax],al
00006D70  0300              add eax,[eax]
00006D72  0000              add [eax],al
00006D74  38F1              cmp cl,dh
00006D76  0408              add al,0x8
00006D78  386100            cmp [ecx+0x0],ah
00006D7B  000400            add [eax+eax],al
00006D7E  0000              add [eax],al
00006D80  0000              add [eax],al
00006D82  0000              add [eax],al
00006D84  0000              add [eax],al
00006D86  0000              add [eax],al
00006D88  0400              add al,0x0
00006D8A  0000              add [eax],al
00006D8C  0400              add al,0x0
00006D8E  0000              add [eax],al
00006D90  DA00              fiadd dword [eax]
00006D92  0000              add [eax],al
00006D94  0100              add [eax],eax
00006D96  0000              add [eax],al
00006D98  0300              add eax,[eax]
00006D9A  0000              add [eax],al
00006D9C  3CF1              cmp al,0xf1
00006D9E  0408              add al,0x8
00006DA0  3C61              cmp al,0x61
00006DA2  0000              add [eax],al
00006DA4  60                pusha
00006DA5  0000              add [eax],al
00006DA7  0000              add [eax],al
00006DA9  0000              add [eax],al
00006DAB  0000              add [eax],al
00006DAD  0000              add [eax],al
00006DAF  000400            add [eax+eax],al
00006DB2  0000              add [eax],al
00006DB4  0400              add al,0x0
00006DB6  0000              add [eax],al
00006DB8  E300              jecxz 0x6dba
00006DBA  0000              add [eax],al
00006DBC  0100              add [eax],eax
00006DBE  0000              add [eax],al
00006DC0  0300              add eax,[eax]
00006DC2  0000              add [eax],al
00006DC4  9C                pushf
00006DC5  F1                int1
00006DC6  0408              add al,0x8
00006DC8  9C                pushf
00006DC9  61                popa
00006DCA  0000              add [eax],al
00006DCC  0800              or [eax],al
00006DCE  0000              add [eax],al
00006DD0  0000              add [eax],al
00006DD2  0000              add [eax],al
00006DD4  0000              add [eax],al
00006DD6  0000              add [eax],al
00006DD8  0400              add al,0x0
00006DDA  0000              add [eax],al
00006DDC  0000              add [eax],al
00006DDE  0000              add [eax],al
00006DE0  E900000008        jmp 0x8006de5
00006DE5  0000              add [eax],al
00006DE7  0003              add [ebx],al
00006DE9  0000              add [eax],al
00006DEB  00C0              add al,al
00006DED  F1                int1
00006DEE  0408              add al,0x8
00006DF0  A4                movsb
00006DF1  61                popa
00006DF2  0000              add [eax],al
00006DF4  3801              cmp [ecx],al
00006DF6  0000              add [eax],al
00006DF8  0000              add [eax],al
00006DFA  0000              add [eax],al
00006DFC  0000              add [eax],al
00006DFE  0000              add [eax],al
00006E00  2000              and [eax],al
00006E02  0000              add [eax],al
00006E04  0000              add [eax],al
00006E06  0000              add [eax],al
00006E08  EE                out dx,al
00006E09  0000              add [eax],al
00006E0B  0001              add [ecx],al
00006E0D  0000              add [eax],al
00006E0F  0030              add [eax],dh
00006E11  0000              add [eax],al
00006E13  0000              add [eax],al
00006E15  0000              add [eax],al
00006E17  00A46100003400    add [ecx+0x340000],ah
00006E1E  0000              add [eax],al
00006E20  0000              add [eax],al
00006E22  0000              add [eax],al
00006E24  0000              add [eax],al
00006E26  0000              add [eax],al
00006E28  0100              add [eax],eax
00006E2A  0000              add [eax],al
00006E2C  0100              add [eax],eax
00006E2E  0000              add [eax],al
00006E30  F70000000100      test dword [eax],0x10000
00006E36  0000              add [eax],al
00006E38  0000              add [eax],al
00006E3A  0000              add [eax],al
00006E3C  0000              add [eax],al
00006E3E  0000              add [eax],al
00006E40  D86100            fsub dword [ecx+0x0]
00006E43  004000            add [eax+0x0],al
00006E46  0000              add [eax],al
00006E48  0000              add [eax],al
00006E4A  0000              add [eax],al
00006E4C  0000              add [eax],al
00006E4E  0000              add [eax],al
00006E50  0800              or [eax],al
00006E52  0000              add [eax],al
00006E54  0000              add [eax],al
00006E56  0000              add [eax],al
00006E58  06                push es
00006E59  0100              add [eax],eax
00006E5B  0001              add [ecx],al
00006E5D  0000              add [eax],al
00006E5F  0000              add [eax],al
00006E61  0000              add [eax],al
00006E63  0000              add [eax],al
00006E65  0000              add [eax],al
00006E67  0018              add [eax],bl
00006E69  6200              bound eax,[eax]
00006E6B  005F00            add [edi+0x0],bl
00006E6E  0000              add [eax],al
00006E70  0000              add [eax],al
00006E72  0000              add [eax],al
00006E74  0000              add [eax],al
00006E76  0000              add [eax],al
00006E78  0100              add [eax],eax
00006E7A  0000              add [eax],al
00006E7C  0000              add [eax],al
00006E7E  0000              add [eax],al
00006E80  16                push ss
00006E81  0100              add [eax],eax
00006E83  0001              add [ecx],al
00006E85  0000              add [eax],al
00006E87  0000              add [eax],al
00006E89  0000              add [eax],al
00006E8B  0000              add [eax],al
00006E8D  0000              add [eax],al
00006E8F  007762            add [edi+0x62],dh
00006E92  0000              add [eax],al
00006E94  2102              and [edx],eax
00006E96  0000              add [eax],al
00006E98  0000              add [eax],al
00006E9A  0000              add [eax],al
00006E9C  0000              add [eax],al
00006E9E  0000              add [eax],al
00006EA0  0100              add [eax],eax
00006EA2  0000              add [eax],al
00006EA4  0000              add [eax],al
00006EA6  0000              add [eax],al
00006EA8  2201              and al,[ecx]
00006EAA  0000              add [eax],al
00006EAC  0100              add [eax],eax
00006EAE  0000              add [eax],al
00006EB0  0000              add [eax],al
00006EB2  0000              add [eax],al
00006EB4  0000              add [eax],al
00006EB6  0000              add [eax],al
00006EB8  98                cwde
00006EB9  640000            add [fs:eax],al
00006EBC  3501000000        xor eax,0x1
00006EC1  0000              add [eax],al
00006EC3  0000              add [eax],al
00006EC5  0000              add [eax],al
00006EC7  0001              add [ecx],al
00006EC9  0000              add [eax],al
00006ECB  0000              add [eax],al
00006ECD  0000              add [eax],al
00006ECF  0030              add [eax],dh
00006ED1  0100              add [eax],eax
00006ED3  0001              add [ecx],al
00006ED5  0000              add [eax],al
00006ED7  0000              add [eax],al
00006ED9  0000              add [eax],al
00006EDB  0000              add [eax],al
00006EDD  0000              add [eax],al
00006EDF  00CD              add ch,cl
00006EE1  650000            add [gs:eax],al
00006EE4  0101              add [ecx],eax
00006EE6  0000              add [eax],al
00006EE8  0000              add [eax],al
00006EEA  0000              add [eax],al
00006EEC  0000              add [eax],al
00006EEE  0000              add [eax],al
00006EF0  0100              add [eax],eax
00006EF2  0000              add [eax],al
00006EF4  0000              add [eax],al
00006EF6  0000              add [eax],al
00006EF8  3C01              cmp al,0x1
00006EFA  0000              add [eax],al
00006EFC  0100              add [eax],eax
00006EFE  0000              add [eax],al
00006F00  0000              add [eax],al
00006F02  0000              add [eax],al
00006F04  0000              add [eax],al
00006F06  0000              add [eax],al
00006F08  D06600            shl byte [esi+0x0],1
00006F0B  004C0000          add [eax+eax+0x0],cl
00006F0F  0000              add [eax],al
00006F11  0000              add [eax],al
00006F13  0000              add [eax],al
00006F15  0000              add [eax],al
00006F17  000400            add [eax+eax],al
00006F1A  0000              add [eax],al
00006F1C  0000              add [eax],al
00006F1E  0000              add [eax],al
00006F20  49                dec ecx
00006F21  0100              add [eax],eax
00006F23  0001              add [ecx],al
00006F25  0000              add [eax],al
00006F27  0030              add [eax],dh
00006F29  0000              add [eax],al
00006F2B  0000              add [eax],al
00006F2D  0000              add [eax],al
00006F2F  001C67            add [edi],bl
00006F32  0000              add [eax],al
00006F34  1201              adc al,[ecx]
00006F36  0000              add [eax],al
00006F38  0000              add [eax],al
00006F3A  0000              add [eax],al
00006F3C  0000              add [eax],al
00006F3E  0000              add [eax],al
00006F40  0100              add [eax],eax
00006F42  0000              add [eax],al
00006F44  0100              add [eax],eax
00006F46  0000              add [eax],al
00006F48  54                push esp
00006F49  0100              add [eax],eax
00006F4B  0001              add [ecx],al
00006F4D  0000              add [eax],al
00006F4F  0000              add [eax],al
00006F51  0000              add [eax],al
00006F53  0000              add [eax],al
00006F55  0000              add [eax],al
00006F57  002E              add [esi],ch
00006F59  6800006B00        push dword 0x6b0000
00006F5E  0000              add [eax],al
00006F60  0000              add [eax],al
00006F62  0000              add [eax],al
00006F64  0000              add [eax],al
00006F66  0000              add [eax],al
00006F68  0100              add [eax],eax
00006F6A  0000              add [eax],al
00006F6C  0000              add [eax],al
00006F6E  0000              add [eax],al
00006F70  1100              adc [eax],eax
00006F72  0000              add [eax],al
00006F74  0300              add eax,[eax]
00006F76  0000              add [eax],al
00006F78  0000              add [eax],al
00006F7A  0000              add [eax],al
00006F7C  0000              add [eax],al
00006F7E  0000              add [eax],al
00006F80  99                cdq
00006F81  6800005F01        push dword 0x15f0000
00006F86  0000              add [eax],al
00006F88  0000              add [eax],al
00006F8A  0000              add [eax],al
00006F8C  0000              add [eax],al
00006F8E  0000              add [eax],al
00006F90  0100              add [eax],eax
00006F92  0000              add [eax],al
00006F94  0000              add [eax],al
00006F96  0000              add [eax],al
00006F98  0100              add [eax],eax
00006F9A  0000              add [eax],al
00006F9C  0200              add al,[eax]
00006F9E  0000              add [eax],al
00006FA0  0000              add [eax],al
00006FA2  0000              add [eax],al
00006FA4  0000              add [eax],al
00006FA6  0000              add [eax],al
00006FA8  E86F0000B0        call 0xb000701c
00006FAD  1500002500        adc eax,0x250000
00006FB2  0000              add [eax],al
00006FB4  42                inc edx
00006FB5  0000              add [eax],al
00006FB7  000400            add [eax+eax],al
00006FBA  0000              add [eax],al
00006FBC  1000              adc [eax],al
00006FBE  0000              add [eax],al
00006FC0  0900              or [eax],eax
00006FC2  0000              add [eax],al
00006FC4  0300              add eax,[eax]
00006FC6  0000              add [eax],al
00006FC8  0000              add [eax],al
00006FCA  0000              add [eax],al
00006FCC  0000              add [eax],al
00006FCE  0000              add [eax],al
00006FD0  98                cwde
00006FD1  8500              test [eax],eax
00006FD3  00E5              add ch,ah
00006FD5  3900              cmp [eax],eax
00006FD7  0000              add [eax],al
00006FD9  0000              add [eax],al
00006FDB  0000              add [eax],al
00006FDD  0000              add [eax],al
00006FDF  0001              add [ecx],al
00006FE1  0000              add [eax],al
00006FE3  0000              add [eax],al
00006FE5  0000              add [eax],al
00006FE7  0000              add [eax],al
00006FE9  0000              add [eax],al
00006FEB  0000              add [eax],al
00006FED  0000              add [eax],al
00006FEF  0000              add [eax],al
00006FF1  0000              add [eax],al
00006FF3  0000              add [eax],al
00006FF5  0000              add [eax],al
00006FF7  0000              add [eax],al
00006FF9  0000              add [eax],al
00006FFB  003481            add [ecx+eax*4],dh
00006FFE  0408              add al,0x8
00007000  0000              add [eax],al
00007002  0000              add [eax],al
00007004  0300              add eax,[eax]
00007006  0100              add [eax],eax
00007008  0000              add [eax],al
0000700A  0000              add [eax],al
0000700C  48                dec eax
0000700D  81040800000000    add dword [eax+ecx],0x0
00007014  0300              add eax,[eax]
00007016  0200              add al,[eax]
00007018  0000              add [eax],al
0000701A  0000              add [eax],al
0000701C  6881040800        push dword 0x80481
00007021  0000              add [eax],al
00007023  0003              add [ebx],al
00007025  0003              add [ebx],al
00007027  0000              add [eax],al
00007029  0000              add [eax],al
0000702B  002482            add [edx+eax*4],ah
0000702E  0408              add al,0x8
00007030  0000              add [eax],al
00007032  0000              add [eax],al
00007034  0300              add eax,[eax]
00007036  0400              add al,0x0
00007038  0000              add [eax],al
0000703A  0000              add [eax],al
0000703C  E483              in al,0x83
0000703E  0408              add al,0x8
00007040  0000              add [eax],al
00007042  0000              add [eax],al
00007044  0300              add eax,[eax]
00007046  0500000000        add eax,0x0
0000704B  005886            add [eax-0x7a],bl
0000704E  0408              add al,0x8
00007050  0000              add [eax],al
00007052  0000              add [eax],al
00007054  0300              add eax,[eax]
00007056  06                push es
00007057  0000              add [eax],al
00007059  0000              add [eax],al
0000705B  009086040800      add [eax+0x80486],dl
00007061  0000              add [eax],al
00007063  0003              add [ebx],al
00007065  0007              add [edi],al
00007067  0000              add [eax],al
00007069  0000              add [eax],al
0000706B  0010              add [eax],dl
0000706D  870408            xchg eax,[eax+ecx]
00007070  0000              add [eax],al
00007072  0000              add [eax],al
00007074  0300              add eax,[eax]
00007076  0800              or [eax],al
00007078  0000              add [eax],al
0000707A  0000              add [eax],al
0000707C  288704080000      sub [edi+0x804],al
00007082  0000              add [eax],al
00007084  0300              add eax,[eax]
00007086  0900              or [eax],eax
00007088  0000              add [eax],al
0000708A  0000              add [eax],al
0000708C  D08704080000      rol byte [edi+0x804],1
00007092  0000              add [eax],al
00007094  0300              add eax,[eax]
00007096  0A00              or al,[eax]
00007098  0000              add [eax],al
0000709A  0000              add [eax],al
0000709C  008804080000      add [eax+0x804],cl
000070A2  0000              add [eax],al
000070A4  0300              add eax,[eax]
000070A6  0B00              or eax,[eax]
000070A8  0000              add [eax],al
000070AA  0000              add [eax],al
000070AC  60                pusha
000070AD  890408            mov [eax+ecx],eax
000070B0  0000              add [eax],al
000070B2  0000              add [eax],al
000070B4  0300              add eax,[eax]
000070B6  0C00              or al,0x0
000070B8  0000              add [eax],al
000070BA  0000              add [eax],al
000070BC  D8BD04080000      fdivr dword [ebp+0x804]
000070C2  0000              add [eax],al
000070C4  0300              add eax,[eax]
000070C6  0D00000000        or eax,0x0
000070CB  00F8              add al,bh
000070CD  BD04080000        mov ebp,0x804
000070D2  0000              add [eax],al
000070D4  0300              add eax,[eax]
000070D6  0E                push cs
000070D7  0000              add [eax],al
000070D9  0000              add [eax],al
000070DB  0050BE            add [eax-0x42],dl
000070DE  0408              add al,0x8
000070E0  0000              add [eax],al
000070E2  0000              add [eax],al
000070E4  0300              add eax,[eax]
000070E6  0F0000            sldt [eax]
000070E9  0000              add [eax],al
000070EB  0064C404          add [esp+eax*8+0x4],ah
000070EF  0800              or [eax],al
000070F1  0000              add [eax],al
000070F3  0003              add [ebx],al
000070F5  0010              add [eax],dl
000070F7  0000              add [eax],al
000070F9  0000              add [eax],al
000070FB  000CDE            add [esi+ebx*8],cl
000070FE  0408              add al,0x8
00007100  0000              add [eax],al
00007102  0000              add [eax],al
00007104  0300              add eax,[eax]
00007106  1100              adc [eax],eax
00007108  0000              add [eax],al
0000710A  0000              add [eax],al
0000710C  40                inc eax
0000710D  F00408            lock add al,0x8
00007110  0000              add [eax],al
00007112  0000              add [eax],al
00007114  0300              add eax,[eax]
00007116  1200              adc al,[eax]
00007118  0000              add [eax],al
0000711A  0000              add [eax],al
0000711C  4C                dec esp
0000711D  F00408            lock add al,0x8
00007120  0000              add [eax],al
00007122  0000              add [eax],al
00007124  0300              add eax,[eax]
00007126  1300              adc eax,[eax]
00007128  0000              add [eax],al
0000712A  0000              add [eax],al
0000712C  54                push esp
0000712D  F00408            lock add al,0x8
00007130  0000              add [eax],al
00007132  0000              add [eax],al
00007134  0300              add eax,[eax]
00007136  1400              adc al,0x0
00007138  0000              add [eax],al
0000713A  0000              add [eax],al
0000713C  58                pop eax
0000713D  F00408            lock add al,0x8
00007140  0000              add [eax],al
00007142  0000              add [eax],al
00007144  0300              add eax,[eax]
00007146  1500000000        adc eax,0x0
0000714B  0038              add [eax],bh
0000714D  F1                int1
0000714E  0408              add al,0x8
00007150  0000              add [eax],al
00007152  0000              add [eax],al
00007154  0300              add eax,[eax]
00007156  16                push ss
00007157  0000              add [eax],al
00007159  0000              add [eax],al
0000715B  003CF1            add [ecx+esi*8],bh
0000715E  0408              add al,0x8
00007160  0000              add [eax],al
00007162  0000              add [eax],al
00007164  0300              add eax,[eax]
00007166  17                pop ss
00007167  0000              add [eax],al
00007169  0000              add [eax],al
0000716B  009CF104080000    add [ecx+esi*8+0x804],bl
00007172  0000              add [eax],al
00007174  0300              add eax,[eax]
00007176  1800              sbb [eax],al
00007178  0000              add [eax],al
0000717A  0000              add [eax],al
0000717C  C0                db 0xC0
0000717D  F1                int1
0000717E  0408              add al,0x8
00007180  0000              add [eax],al
00007182  0000              add [eax],al
00007184  0300              add eax,[eax]
00007186  1900              sbb [eax],eax
00007188  0000              add [eax],al
0000718A  0000              add [eax],al
0000718C  0000              add [eax],al
0000718E  0000              add [eax],al
00007190  0000              add [eax],al
00007192  0000              add [eax],al
00007194  0300              add eax,[eax]
00007196  1A00              sbb al,[eax]
00007198  0000              add [eax],al
0000719A  0000              add [eax],al
0000719C  0000              add [eax],al
0000719E  0000              add [eax],al
000071A0  0000              add [eax],al
000071A2  0000              add [eax],al
000071A4  0300              add eax,[eax]
000071A6  1B00              sbb eax,[eax]
000071A8  0000              add [eax],al
000071AA  0000              add [eax],al
000071AC  0000              add [eax],al
000071AE  0000              add [eax],al
000071B0  0000              add [eax],al
000071B2  0000              add [eax],al
000071B4  0300              add eax,[eax]
000071B6  1C00              sbb al,0x0
000071B8  0000              add [eax],al
000071BA  0000              add [eax],al
000071BC  0000              add [eax],al
000071BE  0000              add [eax],al
000071C0  0000              add [eax],al
000071C2  0000              add [eax],al
000071C4  0300              add eax,[eax]
000071C6  1D00000000        sbb eax,0x0
000071CB  0000              add [eax],al
000071CD  0000              add [eax],al
000071CF  0000              add [eax],al
000071D1  0000              add [eax],al
000071D3  0003              add [ebx],al
000071D5  001E              add [esi],bl
000071D7  0000              add [eax],al
000071D9  0000              add [eax],al
000071DB  0000              add [eax],al
000071DD  0000              add [eax],al
000071DF  0000              add [eax],al
000071E1  0000              add [eax],al
000071E3  0003              add [ebx],al
000071E5  001F              add [edi],bl
000071E7  0000              add [eax],al
000071E9  0000              add [eax],al
000071EB  0000              add [eax],al
000071ED  0000              add [eax],al
000071EF  0000              add [eax],al
000071F1  0000              add [eax],al
000071F3  0003              add [ebx],al
000071F5  0020              add [eax],ah
000071F7  0000              add [eax],al
000071F9  0000              add [eax],al
000071FB  0000              add [eax],al
000071FD  0000              add [eax],al
000071FF  0000              add [eax],al
00007201  0000              add [eax],al
00007203  0003              add [ebx],al
00007205  0021              add [ecx],ah
00007207  0000              add [eax],al
00007209  0000              add [eax],al
0000720B  0000              add [eax],al
0000720D  0000              add [eax],al
0000720F  0000              add [eax],al
00007211  0000              add [eax],al
00007213  0003              add [ebx],al
00007215  0022              add [edx],ah
00007217  0001              add [ecx],al
00007219  0000              add [eax],al
0000721B  0000              add [eax],al
0000721D  0000              add [eax],al
0000721F  0000              add [eax],al
00007221  0000              add [eax],al
00007223  000400            add [eax+eax],al
00007226  F1                int1
00007227  FF08              dec dword [eax]
00007229  0000              add [eax],al
0000722B  0000              add [eax],al
0000722D  0000              add [eax],al
0000722F  0000              add [eax],al
00007231  0000              add [eax],al
00007233  000400            add [eax+eax],al
00007236  F1                int1
00007237  FF13              call near [ebx]
00007239  0000              add [eax],al
0000723B  0000              add [eax],al
0000723D  0000              add [eax],al
0000723F  0000              add [eax],al
00007241  0000              add [eax],al
00007243  000400            add [eax+eax],al
00007246  F1                int1
00007247  FF1E              call far [esi]
00007249  0000              add [eax],al
0000724B  0040F0            add [eax-0x10],al
0000724E  0408              add al,0x8
00007250  0000              add [eax],al
00007252  0000              add [eax],al
00007254  0100              add [eax],eax
00007256  1200              adc al,[eax]
00007258  2C00              sub al,0x0
0000725A  0000              add [eax],al
0000725C  4C                dec esp
0000725D  F00408            lock add al,0x8
00007260  0000              add [eax],al
00007262  0000              add [eax],al
00007264  0100              add [eax],eax
00007266  1300              adc eax,[eax]
00007268  3A00              cmp al,[eax]
0000726A  0000              add [eax],al
0000726C  54                push esp
0000726D  F00408            lock add al,0x8
00007270  0000              add [eax],al
00007272  0000              add [eax],al
00007274  0100              add [eax],eax
00007276  1400              adc al,0x0
00007278  47                inc edi
00007279  0000              add [eax],al
0000727B  009089040800      add [eax+0x80489],dl
00007281  0000              add [eax],al
00007283  0002              add [edx],al
00007285  000C00            add [eax+eax],cl
00007288  5C                pop esp
00007289  0000              add [eax],al
0000728B  00C0              add al,al
0000728D  890408            mov [eax+ecx],eax
00007290  0000              add [eax],al
00007292  0000              add [eax],al
00007294  0200              add al,[eax]
00007296  0C00              or al,0x0
00007298  6F                outsd
00007299  0000              add [eax],al
0000729B  0000              add [eax],al
0000729D  8A0408            mov al,[eax+ecx]
000072A0  0000              add [eax],al
000072A2  0000              add [eax],al
000072A4  0200              add al,[eax]
000072A6  0C00              or al,0x0
000072A8  8500              test [eax],eax
000072AA  0000              add [eax],al
000072AC  EC                in al,dx
000072AD  F20408            repne add al,0x8
000072B0  0100              add [eax],eax
000072B2  0000              add [eax],al
000072B4  0100              add [eax],eax
000072B6  1900              sbb [eax],eax
000072B8  94                xchg eax,esp
000072B9  0000              add [eax],al
000072BB  00F0              add al,dh
000072BD  F20408            repne add al,0x8
000072C0  0400              add al,0x0
000072C2  0000              add [eax],al
000072C4  0100              add [eax],eax
000072C6  1900              sbb [eax],eax
000072C8  A200000050        mov [0x50000000],al
000072CD  8A0408            mov al,[eax+ecx]
000072D0  0000              add [eax],al
000072D2  0000              add [eax],al
000072D4  0200              add al,[eax]
000072D6  0C00              or al,0x0
000072D8  1300              adc eax,[eax]
000072DA  0000              add [eax],al
000072DC  0000              add [eax],al
000072DE  0000              add [eax],al
000072E0  0000              add [eax],al
000072E2  0000              add [eax],al
000072E4  0400              add al,0x0
000072E6  F1                int1
000072E7  FFAE00000048      jmp far [esi+0x48000000]
000072ED  F00408            lock add al,0x8
000072F0  0000              add [eax],al
000072F2  0000              add [eax],al
000072F4  0100              add [eax],eax
000072F6  1200              adc al,[eax]
000072F8  BB00000008        mov ebx,0x8000000
000072FD  DE0408            fiadd word [eax+ecx]
00007300  0000              add [eax],al
00007302  0000              add [eax],al
00007304  0100              add [eax],eax
00007306  1000              adc [eax],al
00007308  C9                leave
00007309  0000              add [eax],al
0000730B  0054F004          add [eax+esi*8+0x4],dl
0000730F  0800              or [eax],al
00007311  0000              add [eax],al
00007313  0001              add [ecx],al
00007315  001400            add [eax+eax],dl
00007318  D500              aad 0x0
0000731A  0000              add [eax],al
0000731C  B0BD              mov al,0xbd
0000731E  0408              add al,0x8
00007320  0000              add [eax],al
00007322  0000              add [eax],al
00007324  0200              add al,[eax]
00007326  0C00              or al,0x0
00007328  0800              or [eax],al
0000732A  0000              add [eax],al
0000732C  0000              add [eax],al
0000732E  0000              add [eax],al
00007330  0000              add [eax],al
00007332  0000              add [eax],al
00007334  0400              add al,0x0
00007336  F1                int1
00007337  FF                db 0xFF
00007338  EB00              jmp short 0x733a
0000733A  0000              add [eax],al
0000733C  0000              add [eax],al
0000733E  0000              add [eax],al
00007340  0000              add [eax],al
00007342  0000              add [eax],al
00007344  0400              add al,0x0
00007346  F1                int1
00007347  FF05010000F4      inc dword [0xf4000001]
0000734D  F20408            repne add al,0x8
00007350  0100              add [eax],eax
00007352  0000              add [eax],al
00007354  0100              add [eax],eax
00007356  1900              sbb [eax],eax
00007358  1401              adc al,0x1
0000735A  0000              add [eax],al
0000735C  24BE              and al,0xbe
0000735E  0408              add al,0x8
00007360  1000              adc [eax],al
00007362  0000              add [eax],al
00007364  0100              add [eax],eax
00007366  0E                push cs
00007367  001B              add [ebx],bl
00007369  0100              add [eax],eax
0000736B  0034BE            add [esi+edi*4],dh
0000736E  0408              add al,0x8
00007370  1000              adc [eax],al
00007372  0000              add [eax],al
00007374  0100              add [eax],eax
00007376  0E                push cs
00007377  0022              add [edx],ah
00007379  0100              add [eax],eax
0000737B  00F4              add ah,dh
0000737D  97                xchg eax,edi
0000737E  0408              add al,0x8
00007380  3F                aas
00007381  0000              add [eax],al
00007383  0002              add [edx],al
00007385  000C00            add [eax+eax],cl
00007388  52                push edx
00007389  0100              add [eax],eax
0000738B  0020              add [eax],ah
0000738D  BE04080400        mov esi,0x40804
00007392  0000              add [eax],al
00007394  0100              add [eax],eax
00007396  0E                push cs
00007397  005A01            add [edx+0x1],bl
0000739A  0000              add [eax],al
0000739C  339804081C00      xor ebx,[eax+0x1c0804]
000073A2  0000              add [eax],al
000073A4  0200              add al,[eax]
000073A6  0C00              or al,0x0
000073A8  9A010000000000    call 0x0:0x1
000073AF  0000              add [eax],al
000073B1  0000              add [eax],al
000073B3  000400            add [eax+eax],al
000073B6  F1                int1
000073B7  FF00              inc dword [eax]
000073B9  0000              add [eax],al
000073BB  0000              add [eax],al
000073BD  0000              add [eax],al
000073BF  0000              add [eax],al
000073C1  0000              add [eax],al
000073C3  000400            add [eax+eax],al
000073C6  F1                int1
000073C7  FFA50100003C      jmp near [ebp+0x3c000001]
000073CD  F1                int1
000073CE  0408              add al,0x8
000073D0  0000              add [eax],al
000073D2  0000              add [eax],al
000073D4  0100              add [eax],eax
000073D6  17                pop ss
000073D7  00BB0100003E      add [ebx+0x3e000001],bh
000073DD  F00408            lock add al,0x8
000073E0  0000              add [eax],al
000073E2  0000              add [eax],al
000073E4  0000              add [eax],al
000073E6  1200              adc al,[eax]
000073E8  CC                int3
000073E9  0100              add [eax],eax
000073EB  003E              add [esi],bh
000073ED  F00408            lock add al,0x8
000073F0  0000              add [eax],al
000073F2  0000              add [eax],al
000073F4  0000              add [eax],al
000073F6  1200              adc al,[eax]
000073F8  DF01              fild word [ecx]
000073FA  0000              add [eax],al
000073FC  58                pop eax
000073FD  F00408            lock add al,0x8
00007400  0000              add [eax],al
00007402  0000              add [eax],al
00007404  0100              add [eax],eax
00007406  1500E80100        adc eax,0x1e800
0000740B  009CF104080000    add [ecx+esi*8+0x804],bl
00007412  0000              add [eax],al
00007414  2000              and [eax],al
00007416  1800              sbb [eax],al
00007418  F30100            rep add [eax],eax
0000741B  0080B704080A      add [eax+0xa0804b7],al
00007421  0000              add [eax],al
00007423  0022              add [edx],ah
00007425  000C00            add [eax+eax],cl
00007428  2F                das
00007429  0200              add al,[eax]
0000742B  00C0              add al,al
0000742D  F1                int1
0000742E  0408              add al,0x8
00007430  90                nop
00007431  0000              add [eax],al
00007433  0011              add [ecx],dl
00007435  0019              add [ecx],bl
00007437  004502            add [ebp+0x2],al
0000743A  0000              add [eax],al
0000743C  93                xchg eax,ebx
0000743D  BB04082100        mov ebx,0x210804
00007442  0000              add [eax],al
00007444  2200              and al,[eax]
00007446  0C00              or al,0x0
00007448  A20200000E        mov [0xe000002],al
0000744D  B504              mov ch,0x4
0000744F  0836              or [esi],dh
00007451  0000              add [eax],al
00007453  0022              add [edx],ah
00007455  000C00            add [eax+eax],cl
00007458  E002              loopne 0x745c
0000745A  0000              add [eax],al
0000745C  A4                movsb
0000745D  A104080800        mov eax,[0x80804]
00007462  0000              add [eax],al
00007464  2200              and al,[eax]
00007466  0C00              or al,0x0
00007468  25030000B2        and eax,0xb2000003
0000746D  9F                lahf
0000746E  0408              add al,0x8
00007470  810000002200      add dword [eax],0x220000
00007476  0C00              or al,0x0
00007478  57                push edi
00007479  0300              add eax,[eax]
0000747B  0094A004081A00    add [eax+0x1a0804],dl
00007482  0000              add [eax],al
00007484  2200              and al,[eax]
00007486  0C00              or al,0x0
00007488  7B03              jpo 0x748d
0000748A  0000              add [eax],al
0000748C  D8B204084400      fdiv dword [edx+0x440804]
00007492  0000              add [eax],al
00007494  2200              and al,[eax]
00007496  0C00              or al,0x0
00007498  BE0300007E        mov esi,0x7e000003
0000749D  A204081F00        mov [0x1f0804],al
000074A2  0000              add [eax],al
000074A4  2200              and al,[eax]
000074A6  0C00              or al,0x0
000074A8  ED                in eax,dx
000074A9  0300              add eax,[eax]
000074AB  0000              add [eax],al
000074AD  0000              add [eax],al
000074AF  0000              add [eax],al
000074B1  0000              add [eax],al
000074B3  0012              add [edx],dl
000074B5  0000              add [eax],al
000074B7  0018              add [eax],bl
000074B9  0400              add al,0x0
000074BB  0000              add [eax],al
000074BD  0000              add [eax],al
000074BF  0000              add [eax],al
000074C1  0000              add [eax],al
000074C3  0012              add [edx],dl
000074C5  0000              add [eax],al
000074C7  002F              add [edi],ch
000074C9  0400              add al,0x0
000074CB  00C6              add dh,al
000074CD  A10408B700        mov eax,[0xb70804]
000074D2  0000              add [eax],al
000074D4  2200              and al,[eax]
000074D6  0C00              or al,0x0
000074D8  5E                pop esi
000074D9  0400              add al,0x0
000074DB  0057B7            add [edi-0x49],dl
000074DE  0408              add al,0x8
000074E0  2900              sub [eax],eax
000074E2  0000              add [eax],al
000074E4  2200              and al,[eax]
000074E6  0C00              or al,0x0
000074E8  7D04              jnl 0x74ee
000074EA  0000              add [eax],al
000074EC  ED                in eax,dx
000074ED  A7                cmpsd
000074EE  0408              add al,0x8
000074F0  1A00              sbb al,[eax]
000074F2  0000              add [eax],al
000074F4  2200              and al,[eax]
000074F6  0C00              or al,0x0
000074F8  A5                movsd
000074F9  0400              add al,0x0
000074FB  0000              add [eax],al
000074FD  0000              add [eax],al
000074FF  0000              add [eax],al
00007501  0000              add [eax],al
00007503  0012              add [edx],dl
00007505  0000              add [eax],al
00007507  00BC0400000000    add [esp+eax+0x0],bh
0000750E  0000              add [eax],al
00007510  0000              add [eax],al
00007512  0000              add [eax],al
00007514  1200              adc al,[eax]
00007516  0000              add [eax],al
00007518  D6                salc
00007519  0400              add al,0x0
0000751B  00B2B5040808      add [edx+0x80804b5],dh
00007521  0000              add [eax],al
00007523  0022              add [edx],ah
00007525  000C00            add [eax+eax],cl
00007528  0205000040BD      add al,[0xbd400000]
0000752E  0408              add al,0x8
00007530  0500000012        add eax,0x12000000
00007535  000C00            add [eax+eax],cl
00007538  1205000086BC      adc al,[0xbc860000]
0000753E  0408              add al,0x8
00007540  1200              adc al,[eax]
00007542  0000              add [eax],al
00007544  2200              and al,[eax]
00007546  0C00              or al,0x0
00007548  6B05000059B604    imul eax,[0xb6590000],byte +0x4
0000754F  081A              or [edx],bl
00007551  0000              add [eax],al
00007553  0022              add [edx],ah
00007555  000C00            add [eax+eax],cl
00007558  90                nop
00007559  0500006089        add eax,0x89600000
0000755E  0408              add al,0x8
00007560  0000              add [eax],al
00007562  0000              add [eax],al
00007564  1200              adc al,[eax]
00007566  0C00              or al,0x0
00007568  97                xchg eax,edi
00007569  0500001FBA        add eax,0xba1f0000
0000756E  0408              add al,0x8
00007570  37                aaa
00007571  0000              add [eax],al
00007573  0022              add [edx],ah
00007575  000C00            add [eax+eax],cl
00007578  B605              mov dh,0x5
0000757A  0000              add [eax],al
0000757C  E2B4              loop 0x7532
0000757E  0408              add al,0x8
00007580  0500000022        add eax,0x22000000
00007585  000C00            add [eax+eax],cl
00007588  DE05000012A6      fiadd word [0xa6120000]
0000758E  0408              add al,0x8
00007590  27                daa
00007591  0000              add [eax],al
00007593  0022              add [edx],ah
00007595  000C00            add [eax+eax],cl
00007598  0D0600005C        or eax,0x5c000006
0000759D  98                cwde
0000759E  0408              add al,0x8
000075A0  0D00000022        or eax,0x22000000
000075A5  000C00            add [eax+eax],cl
000075A8  27                daa
000075A9  06                push es
000075AA  0000              add [eax],al
000075AC  E5BC              in eax,0xbc
000075AE  0408              add al,0x8
000075B0  49                dec ecx
000075B1  0000              add [eax],al
000075B3  0022              add [edx],ah
000075B5  000C00            add [eax+eax],cl
000075B8  7D06              jnl 0x75c0
000075BA  0000              add [eax],al
000075BC  4C                dec esp
000075BD  B304              mov bl,0x4
000075BF  0808              or [eax],cl
000075C1  0000              add [eax],al
000075C3  0022              add [edx],ah
000075C5  000C00            add [eax+eax],cl
000075C8  CF                iret
000075C9  06                push es
000075CA  0000              add [eax],al
000075CC  889E04085F00      mov [esi+0x5f0804],bl
000075D2  0000              add [eax],al
000075D4  2200              and al,[eax]
000075D6  0C00              or al,0x0
000075D8  EF                out dx,eax
000075D9  06                push es
000075DA  0000              add [eax],al
000075DC  4E                dec esi
000075DD  9F                lahf
000075DE  0408              add al,0x8
000075E0  0500000022        add eax,0x22000000
000075E5  000C00            add [eax+eax],cl
000075E8  2307              and eax,[edi]
000075EA  0000              add [eax],al
000075EC  72A0              jc 0x758e
000075EE  0408              add al,0x8
000075F0  0800              or [eax],al
000075F2  0000              add [eax],al
000075F4  2200              and al,[eax]
000075F6  0C00              or al,0x0
000075F8  68070000BC        push dword 0xbc000007
000075FD  99                cdq
000075FE  0408              add al,0x8
00007600  1900              sbb [eax],eax
00007602  0000              add [eax],al
00007604  2200              and al,[eax]
00007606  0C00              or al,0x0
00007608  8507              test [edi],eax
0000760A  0000              add [eax],al
0000760C  AC                lodsb
0000760D  A904080A00        test eax,0xa0804
00007612  0000              add [eax],al
00007614  2200              and al,[eax]
00007616  0C00              or al,0x0
00007618  D407              aam 0x7
0000761A  0000              add [eax],al
0000761C  54                push esp
0000761D  A804              test al,0x4
0000761F  084A00            or [edx+0x0],cl
00007622  0000              add [eax],al
00007624  2200              and al,[eax]
00007626  0C00              or al,0x0
00007628  0B08              or ecx,[eax]
0000762A  0000              add [eax],al
0000762C  48                dec eax
0000762D  9F                lahf
0000762E  0408              add al,0x8
00007630  0500000022        add eax,0x22000000
00007635  000C00            add [eax+eax],cl
00007638  3F                aas
00007639  0800              or [eax],al
0000763B  004CA804          add [eax+ebp*4+0x4],cl
0000763F  0808              or [eax],cl
00007641  0000              add [eax],al
00007643  0022              add [edx],ah
00007645  000C00            add [eax+eax],cl
00007648  8508              test [eax],ecx
0000764A  0000              add [eax],al
0000764C  0000              add [eax],al
0000764E  0000              add [eax],al
00007650  0000              add [eax],al
00007652  0000              add [eax],al
00007654  2000              and [eax],al
00007656  0000              add [eax],al
00007658  94                xchg eax,esp
00007659  0800              or [eax],al
0000765B  0000              add [eax],al
0000765D  0000              add [eax],al
0000765F  0000              add [eax],al
00007661  0000              add [eax],al
00007663  0020              add [eax],ah
00007665  0000              add [eax],al
00007667  00A808000052      add [eax+0x52000008],ch
0000766D  A7                cmpsd
0000766E  0408              add al,0x8
00007670  2F                das
00007671  0000              add [eax],al
00007673  0022              add [edx],ah
00007675  000C00            add [eax+eax],cl
00007678  D308              ror dword [eax],cl
0000767A  0000              add [eax],al
0000767C  54                push esp
0000767D  9F                lahf
0000767E  0408              add al,0x8
00007680  1300              adc eax,[eax]
00007682  0000              add [eax],al
00007684  2200              and al,[eax]
00007686  0C00              or al,0x0
00007688  1309              adc ecx,[ecx]
0000768A  0000              add [eax],al
0000768C  FA                cli
0000768D  A004081300        mov al,[0x130804]
00007692  0000              add [eax],al
00007694  2200              and al,[eax]
00007696  0C00              or al,0x0
00007698  53                push ebx
00007699  0900              or [eax],eax
0000769B  00F8              add al,bh
0000769D  BD04080400        mov ebp,0x40804
000076A2  0000              add [eax],al
000076A4  1100              adc [eax],eax
000076A6  0E                push cs
000076A7  005A09            add [edx+0x9],bl
000076AA  0000              add [eax],al
000076AC  E7B8              out 0xb8,eax
000076AE  0408              add al,0x8
000076B0  1300              adc eax,[eax]
000076B2  0000              add [eax],al
000076B4  2200              and al,[eax]
000076B6  0C00              or al,0x0
000076B8  9E                sahf
000076B9  0900              or [eax],eax
000076BB  0094A004081A00    add [eax+0x1a0804],dl
000076C2  0000              add [eax],al
000076C4  2200              and al,[eax]
000076C6  0C00              or al,0x0
000076C8  C20900            ret 0x9
000076CB  00F4              add ah,dh
000076CD  9A040813000000    call 0x0:0x130804
000076D4  2200              and al,[eax]
000076D6  0C00              or al,0x0
000076D8  DF09              fisttp qword [ecx]
000076DA  0000              add [eax],al
000076DC  0000              add [eax],al
000076DE  0000              add [eax],al
000076E0  0000              add [eax],al
000076E2  0000              add [eax],al
000076E4  1200              adc al,[eax]
000076E6  0000              add [eax],al
000076E8  F30900            rep or [eax],eax
000076EB  00249E            add [esi+ebx*4],ah
000076EE  0408              add al,0x8
000076F0  0500000022        add eax,0x22000000
000076F5  000C00            add [eax+eax],cl
000076F8  17                pop ss
000076F9  0A00              or al,[eax]
000076FB  0042B1            add [edx-0x4f],al
000076FE  0408              add al,0x8
00007700  1A00              sbb al,[eax]
00007702  0000              add [eax],al
00007704  2200              and al,[eax]
00007706  0C00              or al,0x0
00007708  27                daa
00007709  0A00              or al,[eax]
0000770B  00F3              add bl,dh
0000770D  B104              mov cl,0x4
0000770F  0821              or [ecx],ah
00007711  0000              add [eax],al
00007713  0022              add [edx],ah
00007715  000C00            add [eax+eax],cl
00007718  650A00            or al,[gs:eax]
0000771B  0039              add [ecx],bh
0000771D  A6                cmpsb
0000771E  0408              add al,0x8
00007720  2100              and [eax],eax
00007722  0000              add [eax],al
00007724  2200              and al,[eax]
00007726  0C00              or al,0x0
00007728  9E                sahf
00007729  0A00              or al,[eax]
0000772B  00D8              add al,bl
0000772D  BD04080000        mov ebp,0x804
00007732  0000              add [eax],al
00007734  1200              adc al,[eax]
00007736  0D00A40A00        or eax,0xaa400
0000773B  001C9A            add [edx+ebx*4],bl
0000773E  0408              add al,0x8
00007740  1300              adc eax,[eax]
00007742  0000              add [eax],al
00007744  2200              and al,[eax]
00007746  0C00              or al,0x0
00007748  B10A              mov cl,0xa
0000774A  0000              add [eax],al
0000774C  22A104088100      and ah,[ecx+0x810804]
00007752  0000              add [eax],al
00007754  2200              and al,[eax]
00007756  0C00              or al,0x0
00007758  E30A              jecxz 0x7764
0000775A  0000              add [eax],al
0000775C  0000              add [eax],al
0000775E  0000              add [eax],al
00007760  0000              add [eax],al
00007762  0000              add [eax],al
00007764  1200              adc al,[eax]
00007766  0000              add [eax],al
00007768  FD                std
00007769  0A00              or al,[eax]
0000776B  00808A0408D7      add [eax+0xd708048a],al
00007771  0100              add [eax],eax
00007773  0012              add [edx],dl
00007775  000C00            add [eax+eax],cl
00007778  2E0B00            or eax,[cs:eax]
0000777B  0000              add [eax],al
0000777D  0000              add [eax],al
0000777F  0000              add [eax],al
00007781  0000              add [eax],al
00007783  0012              add [edx],dl
00007785  0000              add [eax],al
00007787  00530B            add [ebx+0xb],dl
0000778A  0000              add [eax],al
0000778C  D6                salc
0000778D  99                cdq
0000778E  0408              add al,0x8
00007790  1800              sbb [eax],al
00007792  0000              add [eax],al
00007794  2200              and al,[eax]
00007796  0C00              or al,0x0
00007798  780B              js 0x77a5
0000779A  0000              add [eax],al
0000779C  A7                cmpsd
0000779D  B804080800        mov eax,0x80804
000077A2  0000              add [eax],al
000077A4  2200              and al,[eax]
000077A6  0C00              or al,0x0
000077A8  AE                scasb
000077A9  0B00              or eax,[eax]
000077AB  00EE              add dh,ch
000077AD  99                cdq
000077AE  0408              add al,0x8
000077B0  1200              adc al,[eax]
000077B2  0000              add [eax],al
000077B4  2200              and al,[eax]
000077B6  0C00              or al,0x0
000077B8  C80B0000          enter 0xb,0x0
000077BC  C6                db 0xC6
000077BD  A804              test al,0x4
000077BF  0828              or [eax],ch
000077C1  0000              add [eax],al
000077C3  0022              add [edx],ah
000077C5  000C00            add [eax+eax],cl
000077C8  F6                db 0xF6
000077C9  0B00              or eax,[eax]
000077CB  00B29D040813      add [edx+0x1308049d],dh
000077D1  0000              add [eax],al
000077D3  0022              add [edx],ah
000077D5  000C00            add [eax+eax],cl
000077D8  4A                dec edx
000077D9  0C00              or al,0x0
000077DB  0034A0            add [eax],dh
000077DE  0408              add al,0x8
000077E0  3E0000            add [ds:eax],al
000077E3  0022              add [edx],ah
000077E5  000C00            add [eax+eax],cl
000077E8  850C00            test [eax+eax],ecx
000077EB  001CB3            add [ebx+esi*4],bl
000077EE  0408              add al,0x8
000077F0  0F0000            sldt [eax]
000077F3  0022              add [edx],ah
000077F5  000C00            add [eax+eax],cl
000077F8  D80C00            fmul dword [eax+eax]
000077FB  00B2A7040813      add [edx+0x130804a7],dh
00007801  0000              add [eax],al
00007803  0022              add [edx],ah
00007805  000C00            add [eax+eax],cl
00007808  F4                hlt
00007809  0C00              or al,0x0
0000780B  0008              add [eax],cl
0000780D  B504              mov ch,0x4
0000780F  080500000022      or [0x22000000],al
00007815  000C00            add [eax+eax],cl
00007818  2C0D              sub al,0xd
0000781A  0000              add [eax],al
0000781C  38A704081A00      cmp [edi+0x1a0804],ah
00007822  0000              add [eax],al
00007824  2200              and al,[eax]
00007826  0C00              or al,0x0
00007828  54                push esp
00007829  0D000056BA        or eax,0xba560000
0000782E  0408              add al,0x8
00007830  660000            o16 add [eax],al
00007833  0022              add [edx],ah
00007835  000C00            add [eax+eax],cl
00007838  CA0D00            retf 0xd
0000783B  00A0B3040838      add [eax+0x380804b3],ah
00007841  0000              add [eax],al
00007843  0022              add [edx],ah
00007845  000C00            add [eax+eax],cl
00007848  000E              add [esi],cl
0000784A  0000              add [eax],al
0000784C  CC                int3
0000784D  9B                wait
0000784E  0408              add al,0x8
00007850  55                push ebp
00007851  0000              add [eax],al
00007853  0022              add [edx],ah
00007855  000C00            add [eax+eax],cl
00007858  250E0000BA        and eax,0xba00000e
0000785D  B504              mov ch,0x4
0000785F  0813              or [ebx],dl
00007861  0000              add [eax],al
00007863  0022              add [edx],ah
00007865  000C00            add [eax+eax],cl
00007868  4A                dec edx
00007869  0E                push cs
0000786A  0000              add [eax],al
0000786C  249E              and al,0x9e
0000786E  0408              add al,0x8
00007870  0500000022        add eax,0x22000000
00007875  000C00            add [eax+eax],cl
00007878  6E                outsb
00007879  0E                push cs
0000787A  0000              add [eax],al
0000787C  B3AB              mov bl,0xab
0000787E  0408              add al,0x8
00007880  2100              and [eax],eax
00007882  0000              add [eax],al
00007884  2200              and al,[eax]
00007886  0C00              or al,0x0
00007888  C00E00            ror byte [esi],0x0
0000788B  0000              add [eax],al
0000788D  0000              add [eax],al
0000788F  0000              add [eax],al
00007891  0000              add [eax],al
00007893  0012              add [edx],dl
00007895  0000              add [eax],al
00007897  00DD              add ch,bl
00007899  0E                push cs
0000789A  0000              add [eax],al
0000789C  6998040824000000  imul ebx,[eax+0x240804],dword 0x220000
         -2200
000078A6  0C00              or al,0x0
000078A8  F8                clc
000078A9  0E                push cs
000078AA  0000              add [eax],al
000078AC  2E9F              cs lahf
000078AE  0408              add al,0x8
000078B0  1A00              sbb al,[eax]
000078B2  0000              add [eax],al
000078B4  2200              and al,[eax]
000078B6  0C00              or al,0x0
000078B8  190F              sbb [edi],ecx
000078BA  0000              add [eax],al
000078BC  9C                pushf
000078BD  A5                movsd
000078BE  0408              add al,0x8
000078C0  37                aaa
000078C1  0000              add [eax],al
000078C3  0022              add [edx],ah
000078C5  000C00            add [eax+eax],cl
000078C8  4B                dec ebx
000078C9  0F0000            sldt [eax]
000078CC  0E                push cs
000078CD  A104081300        mov eax,[0x130804]
000078D2  0000              add [eax],al
000078D4  2200              and al,[eax]
000078D6  0C00              or al,0x0
000078D8  7D0F              jnl 0x78e9
000078DA  0000              add [eax],al
000078DC  CC                int3
000078DD  9B                wait
000078DE  0408              add al,0x8
000078E0  55                push ebp
000078E1  0000              add [eax],al
000078E3  0022              add [edx],ah
000078E5  000C00            add [eax+eax],cl
000078E8  A20F000068        mov [0x6800000f],al
000078ED  B90408B700        mov ecx,0xb70804
000078F2  0000              add [eax],al
000078F4  2200              and al,[eax]
000078F6  0C00              or al,0x0
000078F8  BF0F00006E        mov edi,0x6e00000f
000078FD  B204              mov dl,0x4
000078FF  0813              or [ebx],dl
00007901  0000              add [eax],al
00007903  0022              add [edx],ah
00007905  000C00            add [eax+eax],cl
00007908  DB0F              fisttp word [edi]
0000790A  0000              add [eax],al
0000790C  A6                cmpsb
0000790D  A4                movsb
0000790E  0408              add al,0x8
00007910  50                push eax
00007911  0000              add [eax],al
00007913  0022              add [edx],ah
00007915  000C00            add [eax+eax],cl
00007918  0B10              or edx,[eax]
0000791A  0000              add [eax],al
0000791C  98                cwde
0000791D  A304087300        mov [0x730804],eax
00007922  0000              add [eax],al
00007924  2200              and al,[eax]
00007926  0C00              or al,0x0
00007928  42                inc edx
00007929  1000              adc [eax],al
0000792B  0070A5            add [eax-0x5b],dh
0000792E  0408              add al,0x8
00007930  2C00              sub al,0x0
00007932  0000              add [eax],al
00007934  2200              and al,[eax]
00007936  0C00              or al,0x0
00007938  7410              jz 0x794a
0000793A  0000              add [eax],al
0000793C  9C                pushf
0000793D  9A040857000000    call 0x0:0x570804
00007944  2200              and al,[eax]
00007946  0C00              or al,0x0
00007948  8D10              lea edx,[eax]
0000794A  0000              add [eax],al
0000794C  5C                pop esp
0000794D  B104              mov cl,0x4
0000794F  0813              or [ebx],dl
00007951  0000              add [eax],al
00007953  0022              add [edx],ah
00007955  000C00            add [eax+eax],cl
00007958  BD10000072        mov ebp,0x72000010
0000795D  B004              mov al,0x4
0000795F  081500000022      or [0x22000000],dl
00007965  000C00            add [eax+eax],cl
00007968  0B11              or edx,[ecx]
0000796A  0000              add [eax],al
0000796C  A088040800        mov al,[0x80488]
00007971  0000              add [eax],al
00007973  0012              add [edx],dl
00007975  0000              add [eax],al
00007977  0030              add [eax],dh
00007979  1100              adc [eax],eax
0000797B  001E              add [esi],bl
0000797D  A5                movsd
0000797E  0408              add al,0x8
00007980  51                push ecx
00007981  0000              add [eax],al
00007983  0022              add [edx],ah
00007985  000C00            add [eax+eax],cl
00007988  A01100001C        mov al,[0x1c000011]
0000798D  B304              mov bl,0x4
0000798F  080F              or [edi],cl
00007991  0000              add [eax],al
00007993  0022              add [edx],ah
00007995  000C00            add [eax+eax],cl
00007998  F31100            rep adc [eax],eax
0000799B  002A              add [edx],ch
0000799D  9E                sahf
0000799E  0408              add al,0x8
000079A0  1300              adc eax,[eax]
000079A2  0000              add [eax],al
000079A4  2200              and al,[eax]
000079A6  0C00              or al,0x0
000079A8  2112              and [edx],edx
000079AA  0000              add [eax],al
000079AC  0000              add [eax],al
000079AE  0000              add [eax],al
000079B0  0000              add [eax],al
000079B2  0000              add [eax],al
000079B4  2000              and [eax],al
000079B6  0000              add [eax],al
000079B8  3D12000000        cmp eax,0x12
000079BD  0000              add [eax],al
000079BF  0000              add [eax],al
000079C1  0000              add [eax],al
000079C3  0012              add [edx],dl
000079C5  0000              add [eax],al
000079C7  008212000044      add [edx+0x44000012],al
000079CD  9A040858000000    call 0x0:0x580804
000079D4  2200              and al,[eax]
000079D6  0C00              or al,0x0
000079D8  A3120000FC        mov [0xfc000012],eax
000079DD  BD04080400        mov ebp,0x40804
000079E2  0000              add [eax],al
000079E4  1100              adc [eax],eax
000079E6  0E                push cs
000079E7  00B21200000E      add [edx+0xe000012],dh
000079ED  A104081300        mov eax,[0x130804]
000079F2  0000              add [eax],al
000079F4  2200              and al,[eax]
000079F6  0C00              or al,0x0
000079F8  E412              in al,0x12
000079FA  0000              add [eax],al
000079FC  269F              es lahf
000079FE  0408              add al,0x8
00007A00  0800              or [eax],al
00007A02  0000              add [eax],al
00007A04  2200              and al,[eax]
00007A06  0C00              or al,0x0
00007A08  17                pop ss
00007A09  1300              adc eax,[eax]
00007A0B  004F98            add [edi-0x68],cl
00007A0E  0408              add al,0x8
00007A10  0800              or [eax],al
00007A12  0000              add [eax],al
00007A14  2200              and al,[eax]
00007A16  0C00              or al,0x0
00007A18  1F                pop ds
00007A19  1300              adc eax,[eax]
00007A1B  00FA              add dl,bh
00007A1D  B804080A00        mov eax,0xa0804
00007A22  0000              add [eax],al
00007A24  2200              and al,[eax]
00007A26  0C00              or al,0x0
00007A28  5B                pop ebx
00007A29  1300              adc eax,[eax]
00007A2B  0020              add [eax],ah
00007A2D  9D                popf
00007A2E  0408              add al,0x8
00007A30  2000              and [eax],al
00007A32  0000              add [eax],al
00007A34  2200              and al,[eax]
00007A36  0C00              or al,0x0
00007A38  7A13              jpe 0x7a4d
00007A3A  0000              add [eax],al
00007A3C  84BB04080F00      test [ebx+0xf0804],bh
00007A42  0000              add [eax],al
00007A44  2200              and al,[eax]
00007A46  0C00              or al,0x0
00007A48  B913000017        mov ecx,0x17000013
00007A4D  A7                cmpsd
00007A4E  0408              add al,0x8
00007A50  2100              and [eax],eax
00007A52  0000              add [eax],al
00007A54  2200              and al,[eax]
00007A56  0C00              or al,0x0
00007A58  06                push es
00007A59  1400              adc al,0x0
00007A5B  006FB1            add [edi-0x4f],ch
00007A5E  0408              add al,0x8
00007A60  2100              and [eax],eax
00007A62  0000              add [eax],al
00007A64  2200              and al,[eax]
00007A66  0C00              or al,0x0
00007A68  321400            xor dl,[eax+eax]
00007A6B  00749B04          add [ebx+ebx*4+0x4],dh
00007A6F  085700            or [edi+0x0],dl
00007A72  0000              add [eax],al
00007A74  2200              and al,[eax]
00007A76  0C00              or al,0x0
00007A78  56                push esi
00007A79  1400              adc al,0x0
00007A7B  007AA0            add [edx-0x60],bh
00007A7E  0408              add al,0x8
00007A80  1A00              sbb al,[eax]
00007A82  0000              add [eax],al
00007A84  2200              and al,[eax]
00007A86  0C00              or al,0x0
00007A88  891400            mov [eax+eax],edx
00007A8B  00B29F040881      add [edx+0x8108049f],dh
00007A91  0000              add [eax],al
00007A93  0022              add [edx],ah
00007A95  000C00            add [eax+eax],cl
00007A98  BB140000C2        mov ebx,0xc2000014
00007A9D  B804082500        mov eax,0x250804
00007AA2  0000              add [eax],al
00007AA4  2200              and al,[eax]
00007AA6  0C00              or al,0x0
00007AA8  FF1400            call near [eax+eax]
00007AAB  0010              add [eax],dl
00007AAD  A904080F00        test eax,0xf0804
00007AB2  0000              add [eax],al
00007AB4  2200              and al,[eax]
00007AB6  0C00              or al,0x0
00007AB8  51                push ecx
00007AB9  1500008099        adc eax,0x99800000
00007ABE  0408              add al,0x8
00007AC0  3B00              cmp eax,[eax]
00007AC2  0000              add [eax],al
00007AC4  2200              and al,[eax]
00007AC6  0C00              or al,0x0
00007AC8  7915              jns 0x7adf
00007ACA  0000              add [eax],al
00007ACC  0000              add [eax],al
00007ACE  0000              add [eax],al
00007AD0  0000              add [eax],al
00007AD2  0000              add [eax],al
00007AD4  2000              and [eax],al
00007AD6  0000              add [eax],al
00007AD8  93                xchg eax,ebx
00007AD9  1500009CF1        adc eax,0xf19c0000
00007ADE  0408              add al,0x8
00007AE0  0000              add [eax],al
00007AE2  0000              add [eax],al
00007AE4  1000              adc [eax],al
00007AE6  1800              sbb [eax],al
00007AE8  A01500000B        mov al,[0xb000015]
00007AED  A4                movsb
00007AEE  0408              add al,0x8
00007AF0  9A00000022000C    call 0xc00:0x22000000
00007AF7  0011              add [ecx],dl
00007AF9  16                push ss
00007AFA  0000              add [eax],al
00007AFC  9E                sahf
00007AFD  9D                popf
00007AFE  0408              add al,0x8
00007B00  1300              adc eax,[eax]
00007B02  0000              add [eax],al
00007B04  2200              and al,[eax]
00007B06  0C00              or al,0x0
00007B08  6716              a16 push ss
00007B0A  0000              add [eax],al
00007B0C  42                inc edx
00007B0D  BC04084400        mov esp,0x440804
00007B12  0000              add [eax],al
00007B14  2200              and al,[eax]
00007B16  0C00              or al,0x0
00007B18  C516              lds edx,[esi]
00007B1A  0000              add [eax],al
00007B1C  E0B1              loopne 0x7acf
00007B1E  0408              add al,0x8
00007B20  1300              adc eax,[eax]
00007B22  0000              add [eax],al
00007B24  2200              and al,[eax]
00007B26  0C00              or al,0x0
00007B28  07                pop es
00007B29  17                pop ss
00007B2A  0000              add [eax],al
00007B2C  54                push esp
00007B2D  9F                lahf
00007B2E  0408              add al,0x8
00007B30  1300              adc eax,[eax]
00007B32  0000              add [eax],al
00007B34  2200              and al,[eax]
00007B36  0C00              or al,0x0
00007B38  47                inc edi
00007B39  17                pop ss
00007B3A  0000              add [eax],al
00007B3C  E5B7              in eax,0xb7
00007B3E  0408              add al,0x8
00007B40  2C00              sub al,0x0
00007B42  0000              add [eax],al
00007B44  2200              and al,[eax]
00007B46  0C00              or al,0x0
00007B48  A6                cmpsb
00007B49  17                pop ss
00007B4A  0000              add [eax],al
00007B4C  F6A40408280000    mul byte [esp+eax+0x2808]
00007B53  0022              add [edx],ah
00007B55  000C00            add [eax+eax],cl
00007B58  D6                salc
00007B59  17                pop ss
00007B5A  0000              add [eax],al
00007B5C  DEB504081A00      fidiv word [ebp+0x1a0804]
00007B62  0000              add [eax],al
00007B64  2200              and al,[eax]
00007B66  0C00              or al,0x0
00007B68  F617              not byte [edi]
00007B6A  0000              add [eax],al
00007B6C  D4A5              aam 0xa5
00007B6E  0408              add al,0x8
00007B70  3D00000022        cmp eax,0x22000000
00007B75  000C00            add [eax+eax],cl
00007B78  27                daa
00007B79  1800              sbb [eax],al
00007B7B  0001              add [ecx],al
00007B7D  AF                scasd
00007B7E  0408              add al,0x8
00007B80  3B01              cmp eax,[ecx]
00007B82  0000              add [eax],al
00007B84  2200              and al,[eax]
00007B86  0C00              or al,0x0
00007B88  A5                movsd
00007B89  1800              sbb [eax],al
00007B8B  003E              add [esi],bh
00007B8D  9E                sahf
00007B8E  0408              add al,0x8
00007B90  4A                dec edx
00007B91  0000              add [eax],al
00007B93  0022              add [edx],ah
00007B95  000C00            add [eax+eax],cl
00007B98  CA1800            retf 0x18
00007B9B  0090B1040805      add [eax+0x50804b1],dl
00007BA1  0000              add [eax],al
00007BA3  0022              add [edx],ah
00007BA5  000C00            add [eax+eax],cl
00007BA8  F9                stc
00007BA9  1800              sbb [eax],al
00007BAB  0054B304          add [ebx+esi*4+0x4],dl
00007BAF  081A              or [edx],bl
00007BB1  0000              add [eax],al
00007BB3  0022              add [edx],ah
00007BB5  000C00            add [eax+eax],cl
00007BB8  261900            sbb [es:eax],eax
00007BBB  009CA504083700    add [ebp+0x370804],bl
00007BC2  0000              add [eax],al
00007BC4  2200              and al,[eax]
00007BC6  0C00              or al,0x0
00007BC8  58                pop eax
00007BC9  1900              sbb [eax],eax
00007BCB  0043A8            add [ebx-0x58],al
00007BCE  0408              add al,0x8
00007BD0  0800              or [eax],al
00007BD2  0000              add [eax],al
00007BD4  2200              and al,[eax]
00007BD6  0C00              or al,0x0
00007BD8  A6                cmpsb
00007BD9  1900              sbb [eax],eax
00007BDB  008E9C040877      add [esi+0x7708049c],cl
00007BE1  0000              add [eax],al
00007BE3  0022              add [edx],ah
00007BE5  000C00            add [eax+eax],cl
00007BE8  001A              add [edx],bl
00007BEA  0000              add [eax],al
00007BEC  AE                scasb
00007BED  A004084B00        mov al,[0x4b0804]
00007BF2  0000              add [eax],al
00007BF4  2200              and al,[eax]
00007BF6  0C00              or al,0x0
00007BF8  46                inc esi
00007BF9  1A00              sbb al,[eax]
00007BFB  0062BB            add [edx-0x45],ah
00007BFE  0408              add al,0x8
00007C00  2100              and [eax],eax
00007C02  0000              add [eax],al
00007C04  2200              and al,[eax]
00007C06  0C00              or al,0x0
00007C08  B01A              mov al,0x1a
00007C0A  0000              add [eax],al
00007C0C  C6                db 0xC6
00007C0D  AE                scasb
00007C0E  0408              add al,0x8
00007C10  3B00              cmp eax,[eax]
00007C12  0000              add [eax],al
00007C14  2200              and al,[eax]
00007C16  0C00              or al,0x0
00007C18  011B              add [ebx],ebx
00007C1A  0000              add [eax],al
00007C1C  889E04085F00      mov [esi+0x5f0804],bl
00007C22  0000              add [eax],al
00007C24  2200              and al,[eax]
00007C26  0C00              or al,0x0
00007C28  211B              and [ebx],ebx
00007C2A  0000              add [eax],al
00007C2C  1E                push ds
00007C2D  9E                sahf
00007C2E  0408              add al,0x8
00007C30  0500000022        add eax,0x22000000
00007C35  000C00            add [eax+eax],cl
00007C38  45                inc ebp
00007C39  1B00              sbb eax,[eax]
00007C3B  0074A604          add [esi+0x4],dh
00007C3F  0837              or [edi],dh
00007C41  0000              add [eax],al
00007C43  0022              add [edx],ah
00007C45  000C00            add [eax+eax],cl
00007C48  891B              mov [ebx],ebx
00007C4A  0000              add [eax],al
00007C4C  1C9B              sbb al,0x9b
00007C4E  0408              add al,0x8
00007C50  58                pop eax
00007C51  0000              add [eax],al
00007C53  0022              add [edx],ah
00007C55  000C00            add [eax+eax],cl
00007C58  B71B              mov bh,0x1b
00007C5A  0000              add [eax],al
00007C5C  289904081300      sub [ecx+0x130804],bl
00007C62  0000              add [eax],al
00007C64  2200              and al,[eax]
00007C66  0C00              or al,0x0
00007C68  081C00            or [eax+eax],bl
00007C6B  00C6              add dh,al
00007C6D  A10408B700        mov eax,[0xb70804]
00007C72  0000              add [eax],al
00007C74  2200              and al,[eax]
00007C76  0C00              or al,0x0
00007C78  37                aaa
00007C79  1C00              sbb al,0x0
00007C7B  0068B9            add [eax-0x47],ch
00007C7E  0408              add al,0x8
00007C80  B700              mov bh,0x0
00007C82  0000              add [eax],al
00007C84  2200              and al,[eax]
00007C86  0C00              or al,0x0
00007C88  54                push esp
00007C89  1C00              sbb al,0x0
00007C8B  00D4              add ah,dl
00007C8D  AB                stosd
00007C8E  0408              add al,0x8
00007C90  F20200            repne add al,[eax]
00007C93  0022              add [edx],ah
00007C95  000C00            add [eax+eax],cl
00007C98  B81C000044        mov eax,0x4400001c
00007C9D  B504              mov ch,0x4
00007C9F  086E00            or [esi+0x0],ch
00007CA2  0000              add [eax],al
00007CA4  2200              and al,[eax]
00007CA6  0C00              or al,0x0
00007CA8  111D00006E99      adc [0x996e0000],ebx
00007CAE  0408              add al,0x8
00007CB0  1200              adc al,[eax]
00007CB2  0000              add [eax],al
00007CB4  2200              and al,[eax]
00007CB6  0C00              or al,0x0
00007CB8  2A1D0000FAA0      sub bl,[0xa0fa0000]
00007CBE  0408              add al,0x8
00007CC0  1300              adc eax,[eax]
00007CC2  0000              add [eax],al
00007CC4  2200              and al,[eax]
00007CC6  0C00              or al,0x0
00007CC8  6A1D              push byte +0x1d
00007CCA  0000              add [eax],al
00007CCC  C6                db 0xC6
00007CCD  A7                cmpsd
00007CCE  0408              add al,0x8
00007CD0  27                daa
00007CD1  0000              add [eax],al
00007CD3  0022              add [edx],ah
00007CD5  000C00            add [eax+eax],cl
00007CD8  AD                lodsd
00007CD9  1D0000DEB5        sbb eax,0xb5de0000
00007CDE  0408              add al,0x8
00007CE0  1A00              sbb al,[eax]
00007CE2  0000              add [eax],al
00007CE4  2200              and al,[eax]
00007CE6  0C00              or al,0x0
00007CE8  CD1D              int 0x1d
00007CEA  0000              add [eax],al
00007CEC  749B              jz 0x7c89
00007CEE  0408              add al,0x8
00007CF0  57                push edi
00007CF1  0000              add [eax],al
00007CF3  0022              add [edx],ah
00007CF5  000C00            add [eax+eax],cl
00007CF8  F1                int1
00007CF9  1D0000ACA6        sbb eax,0xa6ac0000
00007CFE  0408              add al,0x8
00007D00  44                inc esp
00007D01  0000              add [eax],al
00007D03  0022              add [edx],ah
00007D05  000C00            add [eax+eax],cl
00007D08  341E              xor al,0x1e
00007D0A  0000              add [eax],al
00007D0C  6E                outsb
00007D0D  B304              mov bl,0x4
00007D0F  0832              or [edx],dh
00007D11  0000              add [eax],al
00007D13  0022              add [edx],ah
00007D15  000C00            add [eax+eax],cl
00007D18  781E              js 0x7d38
00007D1A  0000              add [eax],al
00007D1C  A4                movsb
00007D1D  F1                int1
00007D1E  0408              add al,0x8
00007D20  0000              add [eax],al
00007D22  0000              add [eax],al
00007D24  1102              adc [edx],eax
00007D26  1800              sbb [eax],al
00007D28  841E              test [esi],bl
00007D2A  0000              add [eax],al
00007D2C  5A                pop edx
00007D2D  A6                cmpsb
00007D2E  0408              add al,0x8
00007D30  1A00              sbb al,[eax]
00007D32  0000              add [eax],al
00007D34  2200              and al,[eax]
00007D36  0C00              or al,0x0
00007D38  9C                pushf
00007D39  1E                push ds
00007D3A  0000              add [eax],al
00007D3C  C6                db 0xC6
00007D3D  9D                popf
00007D3E  0408              add al,0x8
00007D40  57                push edi
00007D41  0000              add [eax],al
00007D43  0022              add [edx],ah
00007D45  000C00            add [eax+eax],cl
00007D48  EF                out dx,eax
00007D49  1E                push ds
00007D4A  0000              add [eax],al
00007D4C  54                push esp
00007D4D  A804              test al,0x4
00007D4F  084A00            or [edx+0x0],cl
00007D52  0000              add [eax],al
00007D54  2200              and al,[eax]
00007D56  0C00              or al,0x0
00007D58  261F              es pop ds
00007D5A  0000              add [eax],al
00007D5C  60                pusha
00007D5D  F20408            repne add al,0x8
00007D60  8C00              mov [eax],es
00007D62  0000              add [eax],al
00007D64  1100              adc [eax],eax
00007D66  1900              sbb [eax],eax
00007D68  3D1F000028        cmp eax,0x2800001f
00007D6D  B104              mov cl,0x4
00007D6F  081A              or [edx],bl
00007D71  0000              add [eax],al
00007D73  0022              add [edx],ah
00007D75  000C00            add [eax+eax],cl
00007D78  831F00            sbb dword [edi],byte +0x0
00007D7B  0001              add [ecx],al
00007D7D  BB04080800        mov ebx,0x80804
00007D82  0000              add [eax],al
00007D84  2200              and al,[eax]
00007D86  0C00              or al,0x0
00007D88  C11F00            rcr dword [edi],0x0
00007D8B  00D5              add ch,dl
00007D8D  98                cwde
00007D8E  0408              add al,0x8
00007D90  2B00              sub eax,[eax]
00007D92  0000              add [eax],al
00007D94  2200              and al,[eax]
00007D96  0C00              or al,0x0
00007D98  CB                retf
00007D99  1F                pop ds
00007D9A  0000              add [eax],al
00007D9C  B4BB              mov ah,0xbb
00007D9E  0408              add al,0x8
00007DA0  2100              and [eax],eax
00007DA2  0000              add [eax],al
00007DA4  2200              and al,[eax]
00007DA6  0C00              or al,0x0
00007DA8  41                inc ecx
00007DA9  2000              and [eax],al
00007DAB  0022              add [edx],ah
00007DAD  A104088100        mov eax,[0x810804]
00007DB2  0000              add [eax],al
00007DB4  2200              and al,[eax]
00007DB6  0C00              or al,0x0
00007DB8  7320              jnc 0x7dda
00007DBA  0000              add [eax],al
00007DBC  A0F1040800        mov al,[0x804f1]
00007DC1  0000              add [eax],al
00007DC3  0011              add [ecx],dl
00007DC5  0218              add bl,[eax]
00007DC7  008020000098      add [eax+0x98000020],al
00007DCD  BC04081300        mov esp,0x130804
00007DD2  0000              add [eax],al
00007DD4  2200              and al,[eax]
00007DD6  0C00              or al,0x0
00007DD8  F1                int1
00007DD9  2000              and [eax],al
00007DDB  0050F0            add [eax-0x10],dl
00007DDE  0408              add al,0x8
00007DE0  0000              add [eax],al
00007DE2  0000              add [eax],al
00007DE4  1102              adc [edx],eax
00007DE6  1300              adc eax,[eax]
00007DE8  FE                db 0xFE
00007DE9  2000              and [eax],al
00007DEB  00D4              add ah,dl
00007DED  B404              mov ah,0x4
00007DEF  0808              or [eax],cl
00007DF1  0000              add [eax],al
00007DF3  0022              add [edx],ah
00007DF5  000C00            add [eax+eax],cl
00007DF8  51                push ecx
00007DF9  2100              and [eax],eax
00007DFB  00F9              add cl,bh
00007DFD  BA04080800        mov edx,0x80804
00007E02  0000              add [eax],al
00007E04  2200              and al,[eax]
00007E06  0C00              or al,0x0
00007E08  7721              ja 0x7e2b
00007E0A  0000              add [eax],al
00007E0C  E2B4              loop 0x7dc2
00007E0E  0408              add al,0x8
00007E10  0500000022        add eax,0x22000000
00007E15  000C00            add [eax+eax],cl
00007E18  9F                lahf
00007E19  2100              and [eax],eax
00007E1B  0050BD            add [eax-0x43],dl
00007E1E  0408              add al,0x8
00007E20  5A                pop edx
00007E21  0000              add [eax],al
00007E23  0012              add [edx],dl
00007E25  000C00            add [eax+eax],cl
00007E28  AF                scasd
00007E29  2100              and [eax],eax
00007E2B  00489F            add [eax-0x61],cl
00007E2E  0408              add al,0x8
00007E30  0500000022        add eax,0x22000000
00007E35  000C00            add [eax+eax],cl
00007E38  E321              jecxz 0x7e5b
00007E3A  0000              add [eax],al
00007E3C  689F04084A        push dword 0x4a08049f
00007E41  0000              add [eax],al
00007E43  0022              add [edx],ah
00007E45  000C00            add [eax+eax],cl
00007E48  1A22              sbb ah,[edx]
00007E4A  0000              add [eax],al
00007E4C  309A04081300      xor [edx+0x130804],bl
00007E52  0000              add [eax],al
00007E54  2200              and al,[eax]
00007E56  0C00              or al,0x0
00007E58  27                daa
00007E59  2200              and al,[eax]
00007E5B  0084BB04080F00    add [ebx+edi*4+0xf0804],al
00007E62  0000              add [eax],al
00007E64  2200              and al,[eax]
00007E66  0C00              or al,0x0
00007E68  662200            o16 and al,[eax]
00007E6B  008E98040829      add [esi+0x29080498],cl
00007E71  0000              add [eax],al
00007E73  0022              add [edx],ah
00007E75  000C00            add [eax+eax],cl
00007E78  8C22              mov [edx],fs
00007E7A  0000              add [eax],al
00007E7C  1C9A              sbb al,0x9a
00007E7E  0408              add al,0x8
00007E80  1300              adc eax,[eax]
00007E82  0000              add [eax],al
00007E84  2200              and al,[eax]
00007E86  0C00              or al,0x0
00007E88  99                cdq
00007E89  2200              and al,[eax]
00007E8B  0086B6040844      add [esi+0x440804b6],al
00007E91  0000              add [eax],al
00007E93  0022              add [edx],ah
00007E95  000C00            add [eax+eax],cl
00007E98  DE22              fisub word [edx]
00007E9A  0000              add [eax],al
00007E9C  3ABB04082800      cmp bh,[ebx+0x280804]
00007EA2  0000              add [eax],al
00007EA4  2200              and al,[eax]
00007EA6  0C00              or al,0x0
00007EA8  FA                cli
00007EA9  2200              and al,[eax]
00007EAB  00D8              add al,bl
00007EAD  B504              mov ch,0x4
00007EAF  080500000022      or [0x22000000],al
00007EB5  000C00            add [eax+eax],cl
00007EB8  2E2300            and eax,[cs:eax]
00007EBB  0036              add [esi],dh
00007EBD  9C                pushf
00007EBE  0408              add al,0x8
00007EC0  57                push edi
00007EC1  0000              add [eax],al
00007EC3  0022              add [edx],ah
00007EC5  000C00            add [eax+eax],cl
00007EC8  59                pop ecx
00007EC9  2300              and eax,[eax]
00007ECB  0082B2040805      add [edx+0x50804b2],al
00007ED1  0000              add [eax],al
00007ED3  0022              add [edx],ah
00007ED5  000C00            add [eax+eax],cl
00007ED8  8D23              lea esp,[ebx]
00007EDA  0000              add [eax],al
00007EDC  88B204081300      mov [edx+0x130804],dh
00007EE2  0000              add [eax],al
00007EE4  2200              and al,[eax]
00007EE6  0C00              or al,0x0
00007EE8  CF                iret
00007EE9  2300              and eax,[eax]
00007EEB  0014B2            add [edx+esi*4],dl
00007EEE  0408              add al,0x8
00007EF0  2900              sub [eax],eax
00007EF2  0000              add [eax],al
00007EF4  2200              and al,[eax]
00007EF6  0C00              or al,0x0
00007EF8  0E                push cs
00007EF9  2400              and al,0x0
00007EFB  00E0              add al,ah
00007EFD  B704              mov bh,0x4
00007EFF  080500000022      or [0x22000000],al
00007F05  000C00            add [eax+eax],cl
00007F08  46                inc esi
00007F09  2400              and al,0x0
00007F0B  0006              add [esi],al
00007F0D  9D                popf
00007F0E  0408              add al,0x8
00007F10  1A00              sbb al,[eax]
00007F12  0000              add [eax],al
00007F14  2200              and al,[eax]
00007F16  0C00              or al,0x0
00007F18  5E                pop esi
00007F19  2400              and al,0x0
00007F1B  0038              add [eax],bh
00007F1D  B904083000        mov ecx,0x300804
00007F22  0000              add [eax],al
00007F24  2200              and al,[eax]
00007F26  0C00              or al,0x0
00007F28  C42400            les esp,[eax+eax]
00007F2B  0000              add [eax],al
00007F2D  0000              add [eax],al
00007F2F  0000              add [eax],al
00007F31  0000              add [eax],al
00007F33  0012              add [edx],dl
00007F35  0000              add [eax],al
00007F37  00D7              add bh,dl
00007F39  2400              and al,0x0
00007F3B  0087B00408A1      add [edi+0xa10804b0],al
00007F41  0000              add [eax],al
00007F43  0022              add [edx],ah
00007F45  000C00            add [eax+eax],cl
00007F48  4D                dec ebp
00007F49  25000008A8        and eax,0xa8080000
00007F4E  0408              add al,0x8
00007F50  3B00              cmp eax,[eax]
00007F52  0000              add [eax],al
00007F54  2200              and al,[eax]
00007F56  0C00              or al,0x0
00007F58  7C25              jl 0x7f7f
00007F5A  0000              add [eax],al
00007F5C  D8B30408A400      fdiv dword [ebx+0xa40804]
00007F62  0000              add [eax],al
00007F64  2200              and al,[eax]
00007F66  0C00              or al,0x0
00007F68  B725              mov bh,0x25
00007F6A  0000              add [eax],al
00007F6C  B2A7              mov dl,0xa7
00007F6E  0408              add al,0x8
00007F70  1300              adc eax,[eax]
00007F72  0000              add [eax],al
00007F74  2200              and al,[eax]
00007F76  0C00              or al,0x0
00007F78  D32500000099      shl dword [0x99000000],cl
00007F7E  0408              add al,0x8
00007F80  27                daa
00007F81  0000              add [eax],al
00007F83  0022              add [edx],ah
00007F85  000C00            add [eax+eax],cl
00007F88  E125              loope 0x7faf
00007F8A  0000              add [eax],al
00007F8C  6E                outsb
00007F8D  B204              mov dl,0x4
00007F8F  0813              or [ebx],dl
00007F91  0000              add [eax],al
00007F93  0022              add [edx],ah
00007F95  000C00            add [eax+eax],cl
00007F98  FD                std
00007F99  25000082A7        and eax,0xa7820000
00007F9E  0408              add al,0x8
00007FA0  3000              xor [eax],al
00007FA2  0000              add [eax],al
00007FA4  2200              and al,[eax]
00007FA6  0C00              or al,0x0
00007FA8  3D260000AB        cmp eax,0xab000026
00007FAD  BC04082500        mov esp,0x250804
00007FB2  0000              add [eax],al
00007FB4  2200              and al,[eax]
00007FB6  0C00              or al,0x0
00007FB8  682600009C        push dword 0x9c000026
00007FBD  9A040857000000    call 0x0:0x570804
00007FC4  2200              and al,[eax]
00007FC6  0C00              or al,0x0
00007FC8  812600001FA9      and dword [esi],0xa91f0000
00007FCE  0408              add al,0x8
00007FD0  52                push edx
00007FD1  0000              add [eax],al
00007FD3  0022              add [edx],ah
00007FD5  000C00            add [eax+eax],cl
00007FD8  F2260000          repne add [es:eax],al
00007FDC  61                popa
00007FDD  B804084600        mov eax,0x460804
00007FE2  0000              add [eax],al
00007FE4  2200              and al,[eax]
00007FE6  0C00              or al,0x0
00007FE8  17                pop ss
00007FE9  27                daa
00007FEA  0000              add [eax],al
00007FEC  7CB4              jl 0x7fa2
00007FEE  0408              add al,0x8
00007FF0  2F                das
00007FF1  0000              add [eax],al
00007FF3  0022              add [edx],ah
00007FF5  000C00            add [eax+eax],cl
00007FF8  54                push esp
00007FF9  27                daa
00007FFA  0000              add [eax],al
00007FFC  2EBD04080800      cs mov ebp,0x80804
00008002  0000              add [eax],al
00008004  2200              and al,[eax]
00008006  0C00              or al,0x0
00008008  93                xchg eax,ebx
00008009  27                daa
0000800A  0000              add [eax],al
0000800C  27                daa
0000800D  B804080800        mov eax,0x80804
00008012  0000              add [eax],al
00008014  2200              and al,[eax]
00008016  0C00              or al,0x0
00008018  BF270000A4        mov edi,0xa4000027
0000801D  F1                int1
0000801E  0408              add al,0x8
00008020  0000              add [eax],al
00008022  0000              add [eax],al
00008024  1000              adc [eax],al
00008026  1900              sbb [eax],eax
00008028  CB                retf
00008029  27                daa
0000802A  0000              add [eax],al
0000802C  E5B6              in eax,0xb6
0000802E  0408              add al,0x8
00008030  1B00              sbb eax,[eax]
00008032  0000              add [eax],al
00008034  2200              and al,[eax]
00008036  0C00              or al,0x0
00008038  E127              loope 0x8061
0000803A  0000              add [eax],al
0000803C  56                push esi
0000803D  99                cdq
0000803E  0408              add al,0x8
00008040  1800              sbb [eax],al
00008042  0000              add [eax],al
00008044  2200              and al,[eax]
00008046  0C00              or al,0x0
00008048  0528000042        add eax,0x42000028
0000804D  B104              mov cl,0x4
0000804F  081A              or [edx],bl
00008051  0000              add [eax],al
00008053  0022              add [edx],ah
00008055  000C00            add [eax+eax],cl
00008058  1528000096        adc eax,0x96000028
0000805D  B104              mov cl,0x4
0000805F  081A              or [edx],bl
00008061  0000              add [eax],al
00008063  0022              add [edx],ah
00008065  000C00            add [eax+eax],cl
00008068  362800            sub [ss:eax],al
0000806B  003B              add [ebx],bh
0000806D  99                cdq
0000806E  0408              add al,0x8
00008070  1B00              sbb eax,[eax]
00008072  0000              add [eax],al
00008074  2200              and al,[eax]
00008076  0C00              or al,0x0
00008078  4C                dec esp
00008079  2800              sub [eax],al
0000807B  009EA2040822      add [esi+0x220804a2],bl
00008081  0000              add [eax],al
00008083  0022              add [edx],ah
00008085  000C00            add [eax+eax],cl
00008088  7928              jns 0x80b2
0000808A  0000              add [eax],al
0000808C  00B704083600      add [edi+0x360804],dh
00008092  0000              add [eax],al
00008094  2200              and al,[eax]
00008096  0C00              or al,0x0
00008098  B728              mov bh,0x28
0000809A  0000              add [eax],al
0000809C  CAB604            retf 0x4b6
0000809F  081B              or [ebx],bl
000080A1  0000              add [eax],al
000080A3  0022              add [edx],ah
000080A5  000C00            add [eax+eax],cl
000080A8  EA280000EEA804    jmp 0x4a8:0xee000028
000080AF  0821              or [ecx],ah
000080B1  0000              add [eax],al
000080B3  0022              add [edx],ah
000080B5  000C00            add [eax+eax],cl
000080B8  6C                insb
000080B9  2900              sub [eax],eax
000080BB  003CB0            add [eax+esi*4],bh
000080BE  0408              add al,0x8
000080C0  2C00              sub al,0x0
000080C2  0000              add [eax],al
000080C4  2200              and al,[eax]
000080C6  0C00              or al,0x0
000080C8  CB                retf
000080C9  2900              sub [eax],eax
000080CB  00689F            add [eax-0x61],ch
000080CE  0408              add al,0x8
000080D0  4A                dec edx
000080D1  0000              add [eax],al
000080D3  0022              add [edx],ah
000080D5  000C00            add [eax+eax],cl
000080D8  022A              add ch,[edx]
000080DA  0000              add [eax],al
000080DC  1C9B              sbb al,0x9b
000080DE  0408              add al,0x8
000080E0  58                pop eax
000080E1  0000              add [eax],al
000080E3  0022              add [edx],ah
000080E5  000C00            add [eax+eax],cl
000080E8  302A              xor [edx],ch
000080EA  0000              add [eax],al
000080EC  AC                lodsb
000080ED  A104081A00        mov eax,[0x1a0804]
000080F2  0000              add [eax],al
000080F4  2200              and al,[eax]
000080F6  0C00              or al,0x0
000080F8  632A              arpl [edx],bp
000080FA  0000              add [eax],al
000080FC  36B704            ss mov bh,0x4
000080FF  0821              or [ecx],ah
00008101  0000              add [eax],al
00008103  0022              add [edx],ah
00008105  000C00            add [eax+eax],cl
00008108  AD                lodsd
00008109  2A00              sub al,[eax]
0000810B  0000              add [eax],al
0000810D  0000              add [eax],al
0000810F  0000              add [eax],al
00008111  0000              add [eax],al
00008113  0012              add [edx],dl
00008115  0000              add [eax],al
00008117  00C5              add ch,al
00008119  2A00              sub al,[eax]
0000811B  0000              add [eax],al
0000811D  9A04081B000000    call 0x0:0x1b0804
00008124  2200              and al,[eax]
00008126  0C00              or al,0x0
00008128  DB2A              fld tword [edx]
0000812A  0000              add [eax],al
0000812C  96                xchg eax,esi
0000812D  B104              mov cl,0x4
0000812F  081A              or [edx],bl
00008131  0000              add [eax],al
00008133  0022              add [edx],ah
00008135  000C00            add [eax+eax],cl
00008138  FC                cld
00008139  2A00              sub al,[eax]
0000813B  00B0B104082F      add [eax+0x2f0804b1],dh
00008141  0000              add [eax],al
00008143  0022              add [edx],ah
00008145  000C00            add [eax+eax],cl
00008148  392B              cmp [ebx],ebp
0000814A  0000              add [eax],al
0000814C  D0BC0408150000    sar byte [esp+eax+0x1508],1
00008153  0022              add [edx],ah
00008155  000C00            add [eax+eax],cl
00008158  92                xchg eax,edx
00008159  2B00              sub eax,[eax]
0000815B  0000              add [eax],al
0000815D  0000              add [eax],al
0000815F  0000              add [eax],al
00008161  0000              add [eax],al
00008163  0012              add [edx],dl
00008165  0000              add [eax],al
00008167  00A52B00003E      add [ebp+0x3e00002b],ah
0000816D  B204              mov dl,0x4
0000816F  0830              or [eax],dh
00008171  0000              add [eax],al
00008173  0022              add [edx],ah
00008175  000C00            add [eax+eax],cl
00008178  D32B              shr dword [ebx],cl
0000817A  0000              add [eax],al
0000817C  82                db 0x82
0000817D  A7                cmpsd
0000817E  0408              add al,0x8
00008180  3000              xor [eax],al
00008182  0000              add [eax],al
00008184  2200              and al,[eax]
00008186  0C00              or al,0x0
00008188  132C00            adc ebp,[eax+eax]
0000818B  008E9C040877      add [esi+0x7708049c],cl
00008191  0000              add [eax],al
00008193  0022              add [edx],ah
00008195  000C00            add [eax+eax],cl
00008198  6D                insd
00008199  2C00              sub al,0x0
0000819B  0008              add [eax],cl
0000819D  B504              mov ch,0x4
0000819F  080500000022      or [0x22000000],al
000081A5  000C00            add [eax+eax],cl
000081A8  A5                movsd
000081A9  2C00              sub al,0x0
000081AB  0020              add [eax],ah
000081AD  9D                popf
000081AE  0408              add al,0x8
000081B0  2000              and [eax],al
000081B2  0000              add [eax],al
000081B4  2200              and al,[eax]
000081B6  0C00              or al,0x0
000081B8  C42C00            les ebp,[eax+eax]
000081BB  008AB7040855      add [edx+0x550804b7],cl
000081C1  0000              add [eax],al
000081C3  0022              add [edx],ah
000081C5  000C00            add [eax+eax],cl
000081C8  F4                hlt
000081C9  2C00              sub al,0x0
000081CB  00F8              add al,bh
000081CD  F20408            repne add al,0x8
000081D0  0000              add [eax],al
000081D2  0000              add [eax],al
000081D4  1000              adc [eax],al
000081D6  1900              sbb [eax],eax
000081D8  F9                stc
000081D9  2C00              sub al,0x0
000081DB  0000              add [eax],al
000081DD  0000              add [eax],al
000081DF  0000              add [eax],al
000081E1  0000              add [eax],al
000081E3  0012              add [edx],dl
000081E5  0000              add [eax],al
000081E7  0017              add [edi],dl
000081E9  2D000072A9        sub eax,0xa9720000
000081EE  0408              add al,0x8
000081F0  3900              cmp [eax],eax
000081F2  0000              add [eax],al
000081F4  2200              and al,[eax]
000081F6  0C00              or al,0x0
000081F8  682D0000E0        push dword 0xe000002d
000081FD  B704              mov bh,0x4
000081FF  080500000022      or [0x22000000],al
00008205  000C00            add [eax+eax],cl
00008208  A02D0000AB        mov al,[0xab00002d]
0000820D  B404              mov ah,0x4
0000820F  0828              or [eax],ch
00008211  0000              add [eax],al
00008213  0022              add [edx],ah
00008215  000C00            add [eax+eax],cl
00008218  F62D0000C0A2      imul byte [0xa2c00000]
0000821E  0408              add al,0x8
00008220  D800              fadd dword [eax]
00008222  0000              add [eax],al
00008224  2200              and al,[eax]
00008226  0C00              or al,0x0
00008228  672E0000          add [cs:bx+si],al
0000822C  E7B4              out 0xb4,eax
0000822E  0408              add al,0x8
00008230  2100              and [eax],eax
00008232  0000              add [eax],al
00008234  2200              and al,[eax]
00008236  0C00              or al,0x0
00008238  AE                scasb
00008239  2E0000            add [cs:eax],al
0000823C  2F                das
0000823D  B804083200        mov eax,0x320804
00008242  0000              add [eax],al
00008244  2200              and al,[eax]
00008246  0C00              or al,0x0
00008248  DE2E              fisubr word [esi]
0000824A  0000              add [eax],al
0000824C  AF                scasd
0000824D  B804081300        mov eax,0x130804
00008252  0000              add [eax],al
00008254  2200              and al,[eax]
00008256  0C00              or al,0x0
00008258  2C2F              sub al,0x2f
0000825A  0000              add [eax],al
0000825C  40                inc eax
0000825D  9D                popf
0000825E  0408              add al,0x8
00008260  5E                pop esi
00008261  0000              add [eax],al
00008263  0022              add [edx],ah
00008265  000C00            add [eax+eax],cl
00008268  842F              test [edi],ch
0000826A  0000              add [eax],al
0000826C  0000              add [eax],al
0000826E  0000              add [eax],al
00008270  0000              add [eax],al
00008272  0000              add [eax],al
00008274  1200              adc al,[eax]
00008276  0000              add [eax],al
00008278  A02F000000        mov al,[0x2f]
0000827D  0000              add [eax],al
0000827F  0000              add [eax],al
00008281  0000              add [eax],al
00008283  0012              add [edx],dl
00008285  0000              add [eax],al
00008287  00C6              add dh,al
00008289  2F                das
0000828A  0000              add [eax],al
0000828C  A0B2040837        mov al,[0x370804b2]
00008291  0000              add [eax],al
00008293  0022              add [edx],ah
00008295  000C00            add [eax+eax],cl
00008298  0A30              or dh,[eax]
0000829A  0000              add [eax],al
0000829C  B6A9              mov dh,0xa9
0000829E  0408              add al,0x8
000082A0  FD                std
000082A1  0100              add [eax],eax
000082A3  0022              add [edx],ah
000082A5  000C00            add [eax+eax],cl
000082A8  8A30              mov dh,[eax]
000082AA  0000              add [eax],al
000082AC  20BC0408220000    and [esp+eax+0x2208],bh
000082B3  0022              add [edx],ah
000082B5  000C00            add [eax+eax],cl
000082B8  FB                sti
000082B9  3000              xor [eax],al
000082BB  009BB2040805      add [ebx+0x50804b2],bl
000082C1  0000              add [eax],al
000082C3  0022              add [edx],ah
000082C5  000C00            add [eax+eax],cl
000082C8  3A31              cmp dh,[ecx]
000082CA  0000              add [eax],al
000082CC  289904081300      sub [ecx+0x130804],bl
000082D2  0000              add [eax],al
000082D4  2200              and al,[eax]
000082D6  0C00              or al,0x0
000082D8  8B31              mov esi,[ecx]
000082DA  0000              add [eax],al
000082DC  44                inc esp
000082DD  9A040858000000    call 0x0:0x580804
000082E4  2200              and al,[eax]
000082E6  0C00              or al,0x0
000082E8  AC                lodsb
000082E9  3100              xor [eax],eax
000082EB  00A0B2040837      add [eax+0x370804b2],ah
000082F1  0000              add [eax],al
000082F3  0022              add [edx],ah
000082F5  000C00            add [eax+eax],cl
000082F8  F03100            lock xor [eax],eax
000082FB  0020              add [eax],ah
000082FD  890408            mov [eax+ecx],eax
00008300  0000              add [eax],al
00008302  0000              add [eax],al
00008304  1200              adc al,[eax]
00008306  0000              add [eax],al
00008308  3832              cmp [edx],dh
0000830A  0000              add [eax],al
0000830C  B89804081D        mov eax,0x1d080498
00008311  0000              add [eax],al
00008313  0022              add [edx],ah
00008315  000C00            add [eax+eax],cl
00008318  53                push ebx
00008319  3200              xor al,[eax]
0000831B  0000              add [eax],al
0000831D  0000              add [eax],al
0000831F  0000              add [eax],al
00008321  0000              add [eax],al
00008323  0012              add [edx],dl
00008325  0000              add [eax],al
00008327  007132            add [ecx+0x32],dh
0000832A  0000              add [eax],al
0000832C  229C0408130000    and bl,[esp+eax+0x1308]
00008333  0022              add [edx],ah
00008335  000C00            add [eax+eax],cl
00008338  9C                pushf
00008339  3200              xor al,[eax]
0000833B  0068B0            add [eax-0x50],ch
0000833E  0408              add al,0x8
00008340  0A00              or al,[eax]
00008342  0000              add [eax],al
00008344  2200              and al,[eax]
00008346  0C00              or al,0x0
00008348  EC                in al,dx
00008349  3200              xor al,[eax]
0000834B  000A              add [edx],cl
0000834D  BB04080800        mov ebx,0x80804
00008352  0000              add [eax],al
00008354  2200              and al,[eax]
00008356  0C00              or al,0x0
00008358  2033              and [ebx],dh
0000835A  0000              add [eax],al
0000835C  4E                dec esi
0000835D  9F                lahf
0000835E  0408              add al,0x8
00008360  0500000022        add eax,0x22000000
00008365  000C00            add [eax+eax],cl
00008368  54                push esp
00008369  3300              xor eax,[eax]
0000836B  00F8              add al,bh
0000836D  B504              mov ch,0x4
0000836F  086100            or [ecx+0x0],ah
00008372  0000              add [eax],al
00008374  2200              and al,[eax]
00008376  0C00              or al,0x0
00008378  E033              loopne 0x83ad
0000837A  0000              add [eax],al
0000837C  9E                sahf
0000837D  A804              test al,0x4
0000837F  0827              or [edi],ah
00008381  0000              add [eax],al
00008383  0022              add [edx],ah
00008385  000C00            add [eax+eax],cl
00008388  103400            adc [eax+eax],dh
0000838B  0006              add [esi],al
0000838D  9D                popf
0000838E  0408              add al,0x8
00008390  1A00              sbb al,[eax]
00008392  0000              add [eax],al
00008394  2200              and al,[eax]
00008396  0C00              or al,0x0
00008398  283400            sub [eax+eax],dh
0000839B  002A              add [edx],ch
0000839D  9E                sahf
0000839E  0408              add al,0x8
000083A0  1300              adc eax,[eax]
000083A2  0000              add [eax],al
000083A4  2200              and al,[eax]
000083A6  0C00              or al,0x0
000083A8  56                push esi
000083A9  3400              xor al,0x0
000083AB  0004B9            add [ecx+edi*4],al
000083AE  0408              add al,0x8
000083B0  2100              and [eax],eax
000083B2  0000              add [eax],al
000083B4  2200              and al,[eax]
000083B6  0C00              or al,0x0
000083B8  91                xchg eax,ecx
000083B9  3400              xor al,0x0
000083BB  0008              add [eax],cl
000083BD  9B                wait
000083BE  0408              add al,0x8
000083C0  1300              adc eax,[eax]
000083C2  0000              add [eax],al
000083C4  2200              and al,[eax]
000083C6  0C00              or al,0x0
000083C8  AE                scasb
000083C9  3400              xor al,0x0
000083CB  00F4              add ah,dh
000083CD  9A040813000000    call 0x0:0x130804
000083D4  2200              and al,[eax]
000083D6  0C00              or al,0x0
000083D8  CB                retf
000083D9  3400              xor al,0x0
000083DB  00A4F104080000    add [ecx+esi*8+0x804],ah
000083E2  0000              add [eax],al
000083E4  1000              adc [eax],al
000083E6  1800              sbb [eax],al
000083E8  D2                db 0xD2
000083E9  3400              xor al,0x0
000083EB  005798            add [edi-0x68],dl
000083EE  0408              add al,0x8
000083F0  0500000022        add eax,0x22000000
000083F5  000C00            add [eax+eax],cl
000083F8  DB                db 0xDB
000083F9  3400              xor al,0x0
000083FB  004089            add [eax-0x77],al
000083FE  0408              add al,0x8
00008400  0000              add [eax],al
00008402  0000              add [eax],al
00008404  1200              adc al,[eax]
00008406  0000              add [eax],al
00008408  FC                cld
00008409  3400              xor al,0x0
0000840B  0030              add [eax],dh
0000840D  9A040813000000    call 0x0:0x130804
00008414  2200              and al,[eax]
00008416  0C00              or al,0x0
00008418  09350000CEB5      or [0xb5ce0000],esi
0000841E  0408              add al,0x8
00008420  0A00              or al,[eax]
00008422  0000              add [eax],al
00008424  2200              and al,[eax]
00008426  0C00              or al,0x0
00008428  3535000012        xor eax,0x12000035
0000842D  BB04082700        mov ebx,0x270804
00008432  0000              add [eax],al
00008434  2200              and al,[eax]
00008436  0C00              or al,0x0
00008438  53                push ebx
00008439  350000D8B5        xor eax,0xb5d80000
0000843E  0408              add al,0x8
00008440  0500000022        add eax,0x22000000
00008445  000C00            add [eax+eax],cl
00008448  8735000074A6      xchg esi,[0xa6740000]
0000844E  0408              add al,0x8
00008450  37                aaa
00008451  0000              add [eax],al
00008453  0022              add [edx],ah
00008455  000C00            add [eax+eax],cl
00008458  CB                retf
00008459  3500000000        xor eax,0x0
0000845E  0000              add [eax],al
00008460  0000              add [eax],al
00008462  0000              add [eax],al
00008464  1200              adc al,[eax]
00008466  0000              add [eax],al
00008468  E335              jecxz 0x849f
0000846A  0000              add [eax],al
0000846C  3E9E              ds sahf
0000846E  0408              add al,0x8
00008470  4A                dec edx
00008471  0000              add [eax],al
00008473  0022              add [edx],ah
00008475  000C00            add [eax+eax],cl
00008478  0836              or [esi],dh
0000847A  0000              add [eax],al
0000847C  089B04081300      or [ebx+0x130804],bl
00008482  0000              add [eax],al
00008484  2200              and al,[eax]
00008486  0C00              or al,0x0
00008488  25360000D5        and eax,0xd5000036
0000848D  BB04084B00        mov ebx,0x4b0804
00008492  0000              add [eax],al
00008494  2200              and al,[eax]
00008496  0C00              or al,0x0
00008498  7336              jnc 0x84d0
0000849A  0000              add [eax],al
0000849C  DCB40408050000    fdiv qword [esp+eax+0x508]
000084A3  0022              add [edx],ah
000084A5  000C00            add [eax+eax],cl
000084A8  B036              mov al,0x36
000084AA  0000              add [eax],al
000084AC  229C0408130000    and bl,[esp+eax+0x1308]
000084B3  0022              add [edx],ah
000084B5  000C00            add [eax+eax],cl
000084B8  DB                db 0xDB
000084B9  360000            add [ss:eax],al
000084BC  F0A6              lock cmpsb
000084BE  0408              add al,0x8
000084C0  27                daa
000084C1  0000              add [eax],al
000084C3  0022              add [edx],ah
000084C5  000C00            add [eax+eax],cl
000084C8  1E                push ds
000084C9  37                aaa
000084CA  0000              add [eax],al
000084CC  369C              ss pushf
000084CE  0408              add al,0x8
000084D0  57                push edi
000084D1  0000              add [eax],al
000084D3  0022              add [edx],ah
000084D5  000C00            add [eax+eax],cl
000084D8  49                dec ecx
000084D9  37                aaa
000084DA  0000              add [eax],al
000084DC  AA                stosb
000084DD  BD04080000        mov ebp,0x804
000084E2  0000              add [eax],al
000084E4  1202              adc al,[edx]
000084E6  0C00              or al,0x0
000084E8  60                pusha
000084E9  37                aaa
000084EA  0000              add [eax],al
000084EC  BCBA04083D        mov esp,0x3d0804ba
000084F1  0000              add [eax],al
000084F3  0022              add [edx],ah
000084F5  000C00            add [eax+eax],cl
000084F8  B437              mov ah,0x37
000084FA  0000              add [eax],al
000084FC  2BB304082100      sub esi,[ebx+0x210804]
00008502  0000              add [eax],al
00008504  2200              and al,[eax]
00008506  0C00              or al,0x0
00008508  27                daa
00008509  3800              cmp [eax],al
0000850B  0012              add [edx],dl
0000850D  B804081500        mov eax,0x150804
00008512  0000              add [eax],al
00008514  2200              and al,[eax]
00008516  0C00              or al,0x0
00008518  7638              jna 0x8552
0000851A  0000              add [eax],al
0000851C  25B9040813        and eax,0x130804b9
00008521  0000              add [eax],al
00008523  0022              add [edx],ah
00008525  000C00            add [eax+eax],cl
00008528  B438              mov ah,0x38
0000852A  0000              add [eax],al
0000852C  73B6              jnc 0x84e4
0000852E  0408              add al,0x8
00008530  1300              adc eax,[eax]
00008532  0000              add [eax],al
00008534  2200              and al,[eax]
00008536  0C00              or al,0x0
00008538  0239              add bh,[ecx]
0000853A  0000              add [eax],al
0000853C  57                push edi
0000853D  8C0408            mov [eax+ecx],es
00008540  9D                popf
00008541  0B00              or eax,[eax]
00008543  0012              add [edx],dl
00008545  000C00            add [eax+eax],cl
00008548  07                pop es
00008549  3900              cmp [eax],eax
0000854B  00D0              add al,dl
0000854D  870408            xchg eax,[eax+ecx]
00008550  0000              add [eax],al
00008552  0000              add [eax],al
00008554  1200              adc al,[eax]
00008556  0A00              or al,[eax]
00008558  0D39000010        or eax,0x10000039
0000855D  A904080F00        test eax,0xf0804
00008562  0000              add [eax],al
00008564  2200              and al,[eax]
00008566  0C00              or al,0x0
00008568  5F                pop edi
00008569  3900              cmp [eax],eax
0000856B  001E              add [esi],bl
0000856D  9E                sahf
0000856E  0408              add al,0x8
00008570  0500000022        add eax,0x22000000
00008575  000C00            add [eax+eax],cl
00008578  833900            cmp dword [ecx],byte +0x0
0000857B  0082B2040805      add [edx+0x50804b2],al
00008581  0000              add [eax],al
00008583  0022              add [edx],ah
00008585  000C00            add [eax+eax],cl
00008588  B739              mov bh,0x39
0000858A  0000              add [eax],al
0000858C  E89E04083E        call 0x3e088a2f
00008591  0000              add [eax],al
00008593  0022              add [edx],ah
00008595  000C00            add [eax+eax],cl
00008598  00696E            add [ecx+0x6e],ch
0000859B  69742E6300696E69  imul esi,[esi+ebp+0x63],dword 0x696e6900
000085A3  7466              jz 0x860b
000085A5  696E692E630063    imul ebp,[esi+0x69],dword 0x6300632e
000085AC  7274              jc 0x8622
000085AE  7374              jnc 0x8624
000085B0  7566              jnz 0x8618
000085B2  662E6300          o16 arpl [cs:eax],ax
000085B6  5F                pop edi
000085B7  5F                pop edi
000085B8  43                inc ebx
000085B9  54                push esp
000085BA  4F                dec edi
000085BB  52                push edx
000085BC  5F                pop edi
000085BD  4C                dec esp
000085BE  49                dec ecx
000085BF  53                push ebx
000085C0  54                push esp
000085C1  5F                pop edi
000085C2  5F                pop edi
000085C3  005F5F            add [edi+0x5f],bl
000085C6  44                inc esp
000085C7  54                push esp
000085C8  4F                dec edi
000085C9  52                push edx
000085CA  5F                pop edi
000085CB  4C                dec esp
000085CC  49                dec ecx
000085CD  53                push ebx
000085CE  54                push esp
000085CF  5F                pop edi
000085D0  5F                pop edi
000085D1  005F5F            add [edi+0x5f],bl
000085D4  4A                dec edx
000085D5  43                inc ebx
000085D6  52                push edx
000085D7  5F                pop edi
000085D8  4C                dec esp
000085D9  49                dec ecx
000085DA  53                push ebx
000085DB  54                push esp
000085DC  5F                pop edi
000085DD  5F                pop edi
000085DE  00646572          add [ebp+0x72],ah
000085E2  656769737465725F  imul esi,[gs:bp+di+0x74],dword 0x745f7265
         -74
000085EB  6D                insd
000085EC  5F                pop edi
000085ED  636C6F6E          arpl [edi+ebp*2+0x6e],bp
000085F1  657300            gs jnc 0x85f4
000085F4  7265              jc 0x865b
000085F6  6769737465725F74  imul esi,[bp+di+0x74],dword 0x745f7265
000085FE  6D                insd
000085FF  5F                pop edi
00008600  636C6F6E          arpl [edi+ebp*2+0x6e],bp
00008604  657300            gs jnc 0x8607
00008607  5F                pop edi
00008608  5F                pop edi
00008609  646F              fs outsd
0000860B  5F                pop edi
0000860C  676C              a16 insb
0000860E  6F                outsd
0000860F  62616C            bound esp,[ecx+0x6c]
00008612  5F                pop edi
00008613  64746F            fs jz 0x8685
00008616  7273              jc 0x868b
00008618  5F                pop edi
00008619  61                popa
0000861A  7578              jnz 0x8694
0000861C  00636F            add [ebx+0x6f],ah
0000861F  6D                insd
00008620  706C              jo 0x868e
00008622  657465            gs jz 0x868a
00008625  642E3333          xor esi,[cs:ebx]
00008629  3238              xor bh,[eax]
0000862B  0064746F          add [esp+esi*2+0x6f],ah
0000862F  725F              jc 0x8690
00008631  6964782E33333330  imul esp,[eax+edi*2+0x2e],dword 0x30333333
00008639  006672            add [esi+0x72],ah
0000863C  61                popa
0000863D  6D                insd
0000863E  655F              gs pop edi
00008640  64756D            fs jnz 0x86b0
00008643  6D                insd
00008644  7900              jns 0x8646
00008646  5F                pop edi
00008647  5F                pop edi
00008648  43                inc ebx
00008649  54                push esp
0000864A  4F                dec edi
0000864B  52                push edx
0000864C  5F                pop edi
0000864D  45                inc ebp
0000864E  4E                dec esi
0000864F  44                inc esp
00008650  5F                pop edi
00008651  5F                pop edi
00008652  005F5F            add [edi+0x5f],bl
00008655  46                inc esi
00008656  52                push edx
00008657  41                inc ecx
00008658  4D                dec ebp
00008659  45                inc ebp
0000865A  5F                pop edi
0000865B  45                inc ebp
0000865C  4E                dec esi
0000865D  44                inc esp
0000865E  5F                pop edi
0000865F  5F                pop edi
00008660  005F5F            add [edi+0x5f],bl
00008663  4A                dec edx
00008664  43                inc ebx
00008665  52                push edx
00008666  5F                pop edi
00008667  45                inc ebp
00008668  4E                dec esi
00008669  44                inc esp
0000866A  5F                pop edi
0000866B  5F                pop edi
0000866C  005F5F            add [edi+0x5f],bl
0000866F  646F              fs outsd
00008671  5F                pop edi
00008672  676C              a16 insb
00008674  6F                outsd
00008675  62616C            bound esp,[ecx+0x6c]
00008678  5F                pop edi
00008679  63746F72          arpl [edi+ebp*2+0x72],si
0000867D  735F              jnc 0x86de
0000867F  61                popa
00008680  7578              jnz 0x86fa
00008682  0031              add [ecx],dh
00008684  3833              cmp [ebx],dh
00008686  363438            ss xor al,0x38
00008689  365F              ss pop edi
0000868B  313438            xor [eax+edi],esi
0000868E  353438385F        xor eax,0x5f383834
00008693  46                inc esi
00008694  656C              gs insb
00008696  69782E63707000    imul edi,[eax+0x2e],dword 0x707063
0000869D  5F                pop edi
0000869E  5A                pop edx
0000869F  53                push ebx
000086A0  744C              jz 0x86ee
000086A2  385F5F            cmp [edi+0x5f],bl
000086A5  696F696E697400    imul ebp,[edi+0x69],dword 0x74696e
000086AC  5F                pop edi
000086AD  5A                pop edx
000086AE  4C                dec esp
000086AF  32445900          xor al,[ecx+ebx*2+0x0]
000086B3  5F                pop edi
000086B4  5A                pop edx
000086B5  4C                dec esp
000086B6  32445800          xor al,[eax+ebx*2+0x0]
000086BA  5F                pop edi
000086BB  5A                pop edx
000086BC  3431              xor al,0x31
000086BE  5F                pop edi
000086BF  5F                pop edi
000086C0  7374              jnc 0x8736
000086C2  61                popa
000086C3  7469              jz 0x872e
000086C5  635F69            arpl [edi+0x69],bx
000086C8  6E                outsb
000086C9  697469616C697A61  imul esi,[ecx+ebp*2+0x61],dword 0x617a696c
000086D1  7469              jz 0x873c
000086D3  6F                outsd
000086D4  6E                outsb
000086D5  5F                pop edi
000086D6  61                popa
000086D7  6E                outsb
000086D8  645F              fs pop edi
000086DA  64657374          gs jnc 0x8752
000086DE  7275              jc 0x8755
000086E0  6374696F          arpl [ecx+ebp*2+0x6f],si
000086E4  6E                outsb
000086E5  5F                pop edi
000086E6  306969            xor [ecx+0x69],ch
000086E9  005F5A            add [edi+0x5a],bl
000086EC  4C                dec esp
000086ED  33494E            xor ecx,[ecx+0x4e]
000086F0  46                inc esi
000086F1  005F47            add [edi+0x47],bl
000086F4  4C                dec esp
000086F5  4F                dec edi
000086F6  42                inc edx
000086F7  41                inc ecx
000086F8  4C                dec esp
000086F9  5F                pop edi
000086FA  5F                pop edi
000086FB  7375              jnc 0x8772
000086FD  625F49            bound ebx,[edi+0x49]
00008700  5F                pop edi
00008701  5F                pop edi
00008702  5A                pop edx
00008703  35666C6F6F        xor eax,0x6f6f6c66
00008708  6452              fs push edx
0000870A  4B                dec ebx
0000870B  53                push ebx
0000870C  7436              jz 0x8744
0000870E  7665              jna 0x8775
00008710  63746F72          arpl [edi+ebp*2+0x72],si
00008714  49                dec ecx
00008715  53                push ebx
00008716  5F                pop edi
00008717  49                dec ecx
00008718  69536149694545    imul edx,[ebx+0x61],dword 0x45456949
0000871F  53                push ebx
00008720  61                popa
00008721  49                dec ecx
00008722  53                push ebx
00008723  315F45            xor [edi+0x45],ebx
00008726  45                inc ebp
00008727  53                push ebx
00008728  355F695253        xor eax,0x5352695f
0000872D  335F69            xor ebx,[edi+0x69]
00008730  6900656C662D      imul eax,[eax],dword 0x2d666c65
00008736  696E69742E6300    imul ebp,[esi+0x69],dword 0x632e74
0000873D  5F                pop edi
0000873E  47                inc edi
0000873F  4C                dec esp
00008740  4F                dec edi
00008741  42                inc edx
00008742  41                inc ecx
00008743  4C                dec esp
00008744  5F                pop edi
00008745  4F                dec edi
00008746  46                inc esi
00008747  46                inc esi
00008748  53                push ebx
00008749  45                inc ebp
0000874A  54                push esp
0000874B  5F                pop edi
0000874C  54                push esp
0000874D  41                inc ecx
0000874E  42                inc edx
0000874F  4C                dec esp
00008750  45                inc ebp
00008751  5F                pop edi
00008752  005F5F            add [edi+0x5f],bl
00008755  696E69745F6172    imul ebp,[esi+0x69],dword 0x72615f74
0000875C  7261              jc 0x87bf
0000875E  795F              jns 0x87bf
00008760  656E              gs outsb
00008762  64005F5F          add [fs:edi+0x5f],bl
00008766  696E69745F6172    imul ebp,[esi+0x69],dword 0x72615f74
0000876D  7261              jc 0x87d0
0000876F  795F              jns 0x87d0
00008771  7374              jnc 0x87e7
00008773  61                popa
00008774  7274              jc 0x87ea
00008776  005F44            add [edi+0x44],bl
00008779  59                pop ecx
0000877A  4E                dec esi
0000877B  41                inc ecx
0000877C  4D                dec ebp
0000877D  49                dec ecx
0000877E  43                inc ebx
0000877F  00646174          add [ecx+0x74],ah
00008783  61                popa
00008784  5F                pop edi
00008785  7374              jnc 0x87fb
00008787  61                popa
00008788  7274              jc 0x87fe
0000878A  005F5A            add [edi+0x5a],bl
0000878D  4E                dec esi
0000878E  4B                dec ebx
0000878F  395F5F            cmp [edi+0x5f],ebx
00008792  676E              a16 outsb
00008794  755F              jnz 0x87f5
00008796  637878            arpl [eax+0x78],di
00008799  3133              xor [ebx],esi
0000879B  6E                outsb
0000879C  65775F            gs ja 0x87fe
0000879F  61                popa
000087A0  6C                insb
000087A1  6C                insb
000087A2  6F                outsd
000087A3  636174            arpl [ecx+0x74],sp
000087A6  6F                outsd
000087A7  7249              jc 0x87f2
000087A9  53                push ebx
000087AA  7436              jz 0x87e2
000087AC  7665              jna 0x8813
000087AE  63746F72          arpl [edi+ebp*2+0x72],si
000087B2  49                dec ecx
000087B3  69536149694545    imul edx,[ebx+0x61],dword 0x45456949
000087BA  45                inc ebp
000087BB  386D61            cmp [ebp+0x61],ch
000087BE  785F              js 0x881f
000087C0  7369              jnc 0x882b
000087C2  7A65              jpe 0x8829
000087C4  45                inc ebp
000087C5  7600              jna 0x87c7
000087C7  5F                pop edi
000087C8  5A                pop edx
000087C9  53                push ebx
000087CA  7433              jz 0x87ff
000087CC  63696E            arpl [ecx+0x6e],bp
000087CF  40                inc eax
000087D0  40                inc eax
000087D1  47                inc edi
000087D2  4C                dec esp
000087D3  49                dec ecx
000087D4  42                inc edx
000087D5  43                inc ebx
000087D6  58                pop eax
000087D7  58                pop eax
000087D8  5F                pop edi
000087D9  332E              xor ebp,[esi]
000087DB  3400              xor al,0x0
000087DD  5F                pop edi
000087DE  5A                pop edx
000087DF  53                push ebx
000087E0  7431              jz 0x8813
000087E2  38756E            cmp [ebp+0x6e],dh
000087E5  696E697469616C    imul ebp,[esi+0x69],dword 0x6c616974
000087EC  697A65645F636F    imul edi,[edx+0x65],dword 0x6f635f64
000087F3  7079              jo 0x886e
000087F5  49                dec ecx
000087F6  4E                dec esi
000087F7  395F5F            cmp [edi+0x5f],ebx
000087FA  676E              a16 outsb
000087FC  755F              jnz 0x885d
000087FE  637878            arpl [eax+0x78],di
00008801  3137              xor [edi],esi
00008803  5F                pop edi
00008804  5F                pop edi
00008805  6E                outsb
00008806  6F                outsd
00008807  726D              jc 0x8876
00008809  61                popa
0000880A  6C                insb
0000880B  5F                pop edi
0000880C  6974657261746F72  imul esi,[ebp+0x72],dword 0x726f7461
00008814  49                dec ecx
00008815  50                push eax
00008816  4B                dec ebx
00008817  69537436766563    imul edx,[ebx+0x74],dword 0x63657636
0000881E  746F              jz 0x888f
00008820  7249              jc 0x886b
00008822  69536149694545    imul edx,[ebx+0x61],dword 0x45456949
00008829  45                inc ebp
0000882A  45                inc ebp
0000882B  50                push eax
0000882C  694554305F545F    imul eax,[ebp+0x54],dword 0x5f545f30
00008833  53                push ebx
00008834  41                inc ecx
00008835  5F                pop edi
00008836  53                push ebx
00008837  395F00            cmp [edi+0x0],ebx
0000883A  5F                pop edi
0000883B  5A                pop edx
0000883C  4E                dec esi
0000883D  395F5F            cmp [edi+0x5f],ebx
00008840  676E              a16 outsb
00008842  755F              jnz 0x88a3
00008844  637878            arpl [eax+0x78],di
00008847  3133              xor [ebx],esi
00008849  6E                outsb
0000884A  65775F            gs ja 0x88ac
0000884D  61                popa
0000884E  6C                insb
0000884F  6C                insb
00008850  6F                outsd
00008851  636174            arpl [ecx+0x74],sp
00008854  6F                outsd
00008855  7249              jc 0x88a0
00008857  53                push ebx
00008858  7436              jz 0x8890
0000885A  7665              jna 0x88c1
0000885C  63746F72          arpl [edi+ebp*2+0x72],si
00008860  49                dec ecx
00008861  69536149694545    imul edx,[ebx+0x61],dword 0x45456949
00008868  45                inc ebp
00008869  38616C            cmp [ecx+0x6c],ah
0000886C  6C                insb
0000886D  6F                outsd
0000886E  636174            arpl [ecx+0x74],sp
00008871  6545              gs inc ebp
00008873  6A50              push byte +0x50
00008875  4B                dec ebx
00008876  7600              jna 0x8878
00008878  5F                pop edi
00008879  5A                pop edx
0000887A  4E                dec esi
0000887B  53                push ebx
0000887C  7431              jz 0x88af
0000887E  325F56            xor bl,[edi+0x56]
00008881  6563746F72        arpl [gs:edi+ebp*2+0x72],si
00008886  5F                pop edi
00008887  626173            bound esp,[ecx+0x73]
0000888A  6549              gs dec ecx
0000888C  53                push ebx
0000888D  7434              jz 0x88c3
0000888F  7061              jo 0x88f2
00008891  6972496953305F    imul esi,[edx+0x49],dword 0x5f305369
00008898  49                dec ecx
00008899  69694545536149    imul ebp,[ecx+0x45],dword 0x49615345
000088A0  53                push ebx
000088A1  325F45            xor bl,[edi+0x45]
000088A4  45                inc ebp
000088A5  3139              xor [ecx],edi
000088A7  5F                pop edi
000088A8  4D                dec ebp
000088A9  5F                pop edi
000088AA  6765745F          gs a16 jz 0x890d
000088AE  54                push esp
000088AF  705F              jo 0x8910
000088B1  61                popa
000088B2  6C                insb
000088B3  6C                insb
000088B4  6F                outsd
000088B5  636174            arpl [ecx+0x74],sp
000088B8  6F                outsd
000088B9  7245              jc 0x8900
000088BB  7600              jna 0x88bd
000088BD  5F                pop edi
000088BE  5A                pop edx
000088BF  4E                dec esi
000088C0  53                push ebx
000088C1  7431              jz 0x88f4
000088C3  325F56            xor bl,[edi+0x56]
000088C6  6563746F72        arpl [gs:edi+ebp*2+0x72],si
000088CB  5F                pop edi
000088CC  626173            bound esp,[ecx+0x73]
000088CF  6549              gs dec ecx
000088D1  53                push ebx
000088D2  7436              jz 0x890a
000088D4  7665              jna 0x893b
000088D6  63746F72          arpl [edi+ebp*2+0x72],si
000088DA  49                dec ecx
000088DB  69536149694545    imul edx,[ebx+0x61],dword 0x45456949
000088E2  53                push ebx
000088E3  61                popa
000088E4  49                dec ecx
000088E5  53                push ebx
000088E6  325F45            xor bl,[edi+0x45]
000088E9  45                inc ebp
000088EA  44                inc esp
000088EB  314576            xor [ebp+0x76],eax
000088EE  005F5A            add [edi+0x5a],bl
000088F1  4E                dec esi
000088F2  53                push ebx
000088F3  7431              jz 0x8926
000088F5  325F56            xor bl,[edi+0x56]
000088F8  6563746F72        arpl [gs:edi+ebp*2+0x72],si
000088FD  5F                pop edi
000088FE  626173            bound esp,[ecx+0x73]
00008901  6549              gs dec ecx
00008903  69536149694545    imul edx,[ebx+0x61],dword 0x45456949
0000890A  43                inc ebx
0000890B  324552            xor al,[ebp+0x52]
0000890E  4B                dec ebx
0000890F  53                push ebx
00008910  305F00            xor [edi+0x0],bl
00008913  5F                pop edi
00008914  5A                pop edx
00008915  4E                dec esi
00008916  53                push ebx
00008917  7431              jz 0x894a
00008919  325F56            xor bl,[edi+0x56]
0000891C  6563746F72        arpl [gs:edi+ebp*2+0x72],si
00008921  5F                pop edi
00008922  626173            bound esp,[ecx+0x73]
00008925  6549              gs dec ecx
00008927  53                push ebx
00008928  7434              jz 0x895e
0000892A  7061              jo 0x898d
0000892C  6972496953305F    imul esi,[edx+0x49],dword 0x5f305369
00008933  49                dec ecx
00008934  69694545536149    imul ebp,[ecx+0x45],dword 0x49615345
0000893B  53                push ebx
0000893C  325F45            xor bl,[edi+0x45]
0000893F  45                inc ebp
00008940  3137              xor [edi],esi
00008942  5F                pop edi
00008943  4D                dec ebp
00008944  5F                pop edi
00008945  637265            arpl [edx+0x65],si
00008948  61                popa
00008949  7465              jz 0x89b0
0000894B  5F                pop edi
0000894C  7374              jnc 0x89c2
0000894E  6F                outsd
0000894F  7261              jc 0x89b2
00008951  676545            gs a16 inc ebp
00008954  6A00              push byte +0x0
00008956  5F                pop edi
00008957  5A                pop edx
00008958  4E                dec esi
00008959  53                push ebx
0000895A  7436              jz 0x8992
0000895C  7665              jna 0x89c3
0000895E  63746F72          arpl [edi+ebp*2+0x72],si
00008962  49                dec ecx
00008963  53                push ebx
00008964  7434              jz 0x899a
00008966  7061              jo 0x89c9
00008968  6972496953305F    imul esi,[edx+0x49],dword 0x5f305369
0000896F  49                dec ecx
00008970  69694545536149    imul ebp,[ecx+0x45],dword 0x49615345
00008977  53                push ebx
00008978  325F45            xor bl,[edi+0x45]
0000897B  45                inc ebp
0000897C  3562656769        xor eax,0x69676562
00008981  6E                outsb
00008982  45                inc ebp
00008983  7600              jna 0x8985
00008985  5F                pop edi
00008986  5A                pop edx
00008987  53                push ebx
00008988  7432              jz 0x89bc
0000898A  305F5F            xor [edi+0x5f],bl
0000898D  7468              jz 0x89f7
0000898F  726F              jc 0x8a00
00008991  775F              ja 0x89f2
00008993  6C                insb
00008994  656E              gs outsb
00008996  677468            a16 jz 0x8a01
00008999  5F                pop edi
0000899A  657272            gs jc 0x8a0f
0000899D  6F                outsd
0000899E  7250              jc 0x89f0
000089A0  4B                dec ebx
000089A1  634040            arpl [eax+0x40],ax
000089A4  47                inc edi
000089A5  4C                dec esp
000089A6  49                dec ecx
000089A7  42                inc edx
000089A8  43                inc ebx
000089A9  58                pop eax
000089AA  58                pop eax
000089AB  5F                pop edi
000089AC  332E              xor ebp,[esi]
000089AE  3400              xor al,0x0
000089B0  5F                pop edi
000089B1  5A                pop edx
000089B2  4E                dec esi
000089B3  53                push ebx
000089B4  6F                outsd
000089B5  6C                insb
000089B6  7345              jnc 0x89fd
000089B8  6440              fs inc eax
000089BA  40                inc eax
000089BB  47                inc edi
000089BC  4C                dec esp
000089BD  49                dec ecx
000089BE  42                inc edx
000089BF  43                inc ebx
000089C0  58                pop eax
000089C1  58                pop eax
000089C2  5F                pop edi
000089C3  332E              xor ebp,[esi]
000089C5  3400              xor al,0x0
000089C7  5F                pop edi
000089C8  5A                pop edx
000089C9  4E                dec esi
000089CA  53                push ebx
000089CB  7436              jz 0x8a03
000089CD  7665              jna 0x8a34
000089CF  63746F72          arpl [edi+ebp*2+0x72],si
000089D3  49                dec ecx
000089D4  53                push ebx
000089D5  7434              jz 0x8a0b
000089D7  7061              jo 0x8a3a
000089D9  6972496953305F    imul esi,[edx+0x49],dword 0x5f305369
000089E0  49                dec ecx
000089E1  69694545536149    imul ebp,[ecx+0x45],dword 0x49615345
000089E8  53                push ebx
000089E9  325F45            xor bl,[edi+0x45]
000089EC  45                inc ebp
000089ED  43                inc ebx
000089EE  314552            xor [ebp+0x52],eax
000089F1  4B                dec ebx
000089F2  53                push ebx
000089F3  345F              xor al,0x5f
000089F5  005F5A            add [edi+0x5a],bl
000089F8  53                push ebx
000089F9  7436              jz 0x8a31
000089FB  66696C6C5F6E49    imul bp,[esp+ebp*2+0x5f],word 0x496e
00008A02  50                push eax
00008A03  696A6945545F53    imul ebp,[edx+0x69],dword 0x535f5445
00008A0A  315F54            xor [edi+0x54],ebx
00008A0D  305F52            xor [edi+0x52],bl
00008A10  4B                dec ebx
00008A11  54                push esp
00008A12  315F00            xor [edi+0x0],ebx
00008A15  5F                pop edi
00008A16  5A                pop edx
00008A17  53                push ebx
00008A18  7438              jz 0x8a52
00008A1A  5F                pop edi
00008A1B  44                inc esp
00008A1C  657374            gs jnc 0x8a93
00008A1F  726F              jc 0x8a90
00008A21  7949              jns 0x8a6c
00008A23  50                push eax
00008A24  53                push ebx
00008A25  7434              jz 0x8a5b
00008A27  7061              jo 0x8a8a
00008A29  6972496953305F    imul esi,[edx+0x49],dword 0x5f305369
00008A30  49                dec ecx
00008A31  69694545457654    imul ebp,[ecx+0x45],dword 0x54764545
00008A38  5F                pop edi
00008A39  53                push ebx
00008A3A  345F              xor al,0x5f
00008A3C  005F5A            add [edi+0x5a],bl
00008A3F  4E                dec esi
00008A40  53                push ebx
00008A41  6F                outsd
00008A42  6C                insb
00008A43  7345              jnc 0x8a8a
00008A45  694040474C4942    imul eax,[eax+0x40],dword 0x42494c47
00008A4C  43                inc ebx
00008A4D  58                pop eax
00008A4E  58                pop eax
00008A4F  5F                pop edi
00008A50  332E              xor ebp,[esi]
00008A52  3400              xor al,0x0
00008A54  5F                pop edi
00008A55  5F                pop edi
00008A56  637861            arpl [eax+0x61],di
00008A59  5F                pop edi
00008A5A  61                popa
00008A5B  7465              jz 0x8ac2
00008A5D  7869              js 0x8ac8
00008A5F  7440              jz 0x8aa1
00008A61  40                inc eax
00008A62  47                inc edi
00008A63  4C                dec esp
00008A64  49                dec ecx
00008A65  42                inc edx
00008A66  43                inc ebx
00008A67  5F                pop edi
00008A68  322E              xor ch,[esi]
00008A6A  312E              xor [esi],ebp
00008A6C  3300              xor eax,[eax]
00008A6E  5F                pop edi
00008A6F  5A                pop edx
00008A70  53                push ebx
00008A71  7431              jz 0x8aa4
00008A73  315F5F            xor [edi+0x5f],ebx
00008A76  61                popa
00008A77  64647265          fs jc 0x8ae0
00008A7B  7373              jnc 0x8af0
00008A7D  6F                outsd
00008A7E  6649              dec cx
00008A80  53                push ebx
00008A81  7436              jz 0x8ab9
00008A83  7665              jna 0x8aea
00008A85  63746F72          arpl [edi+ebp*2+0x72],si
00008A89  49                dec ecx
00008A8A  69536149694545    imul edx,[ebx+0x61],dword 0x45456949
00008A91  45                inc ebp
00008A92  50                push eax
00008A93  54                push esp
00008A94  5F                pop edi
00008A95  52                push edx
00008A96  53                push ebx
00008A97  335F00            xor ebx,[edi+0x0]
00008A9A  5F                pop edi
00008A9B  5F                pop edi
00008A9C  6C                insb
00008A9D  6962635F637375    imul esp,[edx+0x63],dword 0x7573635f
00008AA4  5F                pop edi
00008AA5  66696E69005F      imul bp,[esi+0x69],word 0x5f00
00008AAB  5A                pop edx
00008AAC  4E                dec esi
00008AAD  53                push ebx
00008AAE  7431              jz 0x8ae1
00008AB0  305F49            xor [edi+0x49],bl
00008AB3  7465              jz 0x8b1a
00008AB5  725F              jc 0x8b16
00008AB7  626173            bound esp,[ecx+0x73]
00008ABA  6549              gs dec ecx
00008ABC  4E                dec esi
00008ABD  395F5F            cmp [edi+0x5f],ebx
00008AC0  676E              a16 outsb
00008AC2  755F              jnz 0x8b23
00008AC4  637878            arpl [eax+0x78],di
00008AC7  3137              xor [edi],esi
00008AC9  5F                pop edi
00008ACA  5F                pop edi
00008ACB  6E                outsb
00008ACC  6F                outsd
00008ACD  726D              jc 0x8b3c
00008ACF  61                popa
00008AD0  6C                insb
00008AD1  5F                pop edi
00008AD2  6974657261746F72  imul esi,[ebp+0x72],dword 0x726f7461
00008ADA  49                dec ecx
00008ADB  50                push eax
00008ADC  4B                dec ebx
00008ADD  69537436766563    imul edx,[ebx+0x74],dword 0x63657636
00008AE4  746F              jz 0x8b55
00008AE6  7249              jc 0x8b31
00008AE8  69536149694545    imul edx,[ebx+0x61],dword 0x45456949
00008AEF  45                inc ebp
00008AF0  45                inc ebp
00008AF1  4C                dec esp
00008AF2  6230              bound esi,[eax]
00008AF4  45                inc ebp
00008AF5  45                inc ebp
00008AF6  37                aaa
00008AF7  5F                pop edi
00008AF8  53                push ebx
00008AF9  5F                pop edi
00008AFA  626173            bound esp,[ecx+0x73]
00008AFD  6545              gs inc ebp
00008AFF  53                push ebx
00008B00  37                aaa
00008B01  5F                pop edi
00008B02  005F5A            add [edi+0x5a],bl
00008B05  53                push ebx
00008B06  7467              jz 0x8b6f
00008B08  7449              jz 0x8b53
00008B0A  69537434706169    imul edx,[ebx+0x74],dword 0x69617034
00008B11  7249              jc 0x8b5c
00008B13  6969454562524B    imul ebp,[ecx+0x45],dword 0x4b526245
00008B1A  53                push ebx
00008B1B  305F49            xor [edi+0x49],bl
00008B1E  54                push esp
00008B1F  5F                pop edi
00008B20  54                push esp
00008B21  305F45            xor [edi+0x45],bl
00008B24  53                push ebx
00008B25  365F              ss pop edi
00008B27  005F73            add [edi+0x73],bl
00008B2A  7461              jz 0x8b8d
00008B2C  7274              jc 0x8ba2
00008B2E  005F5A            add [edi+0x5a],bl
00008B31  53                push ebx
00008B32  746C              jz 0x8ba0
00008B34  7449              jz 0x8b7f
00008B36  69694562524B53    imul ebp,[ecx+0x45],dword 0x534b5262
00008B3D  7434              jz 0x8b73
00008B3F  7061              jo 0x8ba2
00008B41  697249545F5430    imul esi,[edx+0x49],dword 0x30545f54
00008B48  5F                pop edi
00008B49  45                inc ebp
00008B4A  53                push ebx
00008B4B  355F005F5A        xor eax,0x5a5f005f
00008B50  4E                dec esi
00008B51  395F5F            cmp [edi+0x5f],ebx
00008B54  676E              a16 outsb
00008B56  755F              jnz 0x8bb7
00008B58  637878            arpl [eax+0x78],di
00008B5B  3133              xor [ebx],esi
00008B5D  6E                outsb
00008B5E  65775F            gs ja 0x8bc0
00008B61  61                popa
00008B62  6C                insb
00008B63  6C                insb
00008B64  6F                outsd
00008B65  636174            arpl [ecx+0x74],sp
00008B68  6F                outsd
00008B69  7249              jc 0x8bb4
00008B6B  6945433145524B    imul eax,[ebp+0x43],dword 0x4b524531
00008B72  53                push ebx
00008B73  315F00            xor [edi+0x0],ebx
00008B76  5F                pop edi
00008B77  5A                pop edx
00008B78  4E                dec esi
00008B79  53                push ebx
00008B7A  7431              jz 0x8bad
00008B7C  325F56            xor bl,[edi+0x56]
00008B7F  6563746F72        arpl [gs:edi+ebp*2+0x72],si
00008B84  5F                pop edi
00008B85  626173            bound esp,[ecx+0x73]
00008B88  6549              gs dec ecx
00008B8A  69536149694545    imul edx,[ebx+0x61],dword 0x45456949
00008B91  3133              xor [ebx],esi
00008B93  5F                pop edi
00008B94  4D                dec ebp
00008B95  5F                pop edi
00008B96  646561            gs popa
00008B99  6C                insb
00008B9A  6C                insb
00008B9B  6F                outsd
00008B9C  636174            arpl [ecx+0x74],sp
00008B9F  6545              gs inc ebp
00008BA1  50                push eax
00008BA2  696A005F5A5374    imul ebp,[edx+0x0],dword 0x74535a5f
00008BA9  6F                outsd
00008BAA  7253              jc 0x8bff
00008BAC  7431              jz 0x8bdf
00008BAE  335F49            xor ebx,[edi+0x49]
00008BB1  6F                outsd
00008BB2  735F              jnc 0x8c13
00008BB4  46                inc esi
00008BB5  6D                insd
00008BB6  7466              jz 0x8c1e
00008BB8  6C                insb
00008BB9  61                popa
00008BBA  677353            a16 jnc 0x8c10
00008BBD  5F                pop edi
00008BBE  005F5A            add [edi+0x5a],bl
00008BC1  4E                dec esi
00008BC2  53                push ebx
00008BC3  7431              jz 0x8bf6
00008BC5  315F5F            xor [edi+0x5f],ebx
00008BC8  636F70            arpl [edi+0x70],bp
00008BCB  795F              jns 0x8c2c
00008BCD  6D                insd
00008BCE  6F                outsd
00008BCF  7665              jna 0x8c36
00008BD1  49                dec ecx
00008BD2  4C                dec esp
00008BD3  6230              bound esi,[eax]
00008BD5  45                inc ebp
00008BD6  4C                dec esp
00008BD7  6231              bound esi,[ecx]
00008BD9  45                inc ebp
00008BDA  53                push ebx
00008BDB  7432              jz 0x8c0f
00008BDD  367261            ss jc 0x8c41
00008BE0  6E                outsb
00008BE1  646F              fs outsd
00008BE3  6D                insd
00008BE4  5F                pop edi
00008BE5  61                popa
00008BE6  636365            arpl [ebx+0x65],sp
00008BE9  7373              jnc 0x8c5e
00008BEB  5F                pop edi
00008BEC  6974657261746F72  imul esi,[ebp+0x72],dword 0x726f7461
00008BF4  5F                pop edi
00008BF5  7461              jz 0x8c58
00008BF7  6745              a16 inc ebp
00008BF9  385F5F            cmp [edi+0x5f],bl
00008BFC  636F70            arpl [edi+0x70],bp
00008BFF  795F              jns 0x8c60
00008C01  6D                insd
00008C02  49                dec ecx
00008C03  69454550545F50    imul eax,[ebp+0x45],dword 0x505f5450
00008C0A  4B                dec ebx
00008C0B  53                push ebx
00008C0C  335F53            xor ebx,[edi+0x53]
00008C0F  365F              ss pop edi
00008C11  53                push ebx
00008C12  345F              xor al,0x5f
00008C14  005F5A            add [edi+0x5a],bl
00008C17  4E                dec esi
00008C18  4B                dec ebx
00008C19  395F5F            cmp [edi+0x5f],ebx
00008C1C  676E              a16 outsb
00008C1E  755F              jnz 0x8c7f
00008C20  637878            arpl [eax+0x78],di
00008C23  3137              xor [edi],esi
00008C25  5F                pop edi
00008C26  5F                pop edi
00008C27  6E                outsb
00008C28  6F                outsd
00008C29  726D              jc 0x8c98
00008C2B  61                popa
00008C2C  6C                insb
00008C2D  5F                pop edi
00008C2E  6974657261746F72  imul esi,[ebp+0x72],dword 0x726f7461
00008C36  49                dec ecx
00008C37  50                push eax
00008C38  53                push ebx
00008C39  7434              jz 0x8c6f
00008C3B  7061              jo 0x8c9e
00008C3D  6972496953315F    imul esi,[edx+0x49],dword 0x5f315369
00008C44  49                dec ecx
00008C45  69694545537436    imul ebp,[ecx+0x45],dword 0x36745345
00008C4C  7665              jna 0x8cb3
00008C4E  63746F72          arpl [edi+ebp*2+0x72],si
00008C52  49                dec ecx
00008C53  53                push ebx
00008C54  335F53            xor ebx,[edi+0x53]
00008C57  61                popa
00008C58  49                dec ecx
00008C59  53                push ebx
00008C5A  335F45            xor ebx,[edi+0x45]
00008C5D  45                inc ebp
00008C5E  45                inc ebp
00008C5F  3462              xor al,0x62
00008C61  61                popa
00008C62  7365              jnc 0x8cc9
00008C64  45                inc ebp
00008C65  7600              jna 0x8c67
00008C67  5F                pop edi
00008C68  5A                pop edx
00008C69  4E                dec esi
00008C6A  53                push ebx
00008C6B  7431              jz 0x8c9e
00008C6D  325F56            xor bl,[edi+0x56]
00008C70  6563746F72        arpl [gs:edi+ebp*2+0x72],si
00008C75  5F                pop edi
00008C76  626173            bound esp,[ecx+0x73]
00008C79  6549              gs dec ecx
00008C7B  69536149694545    imul edx,[ebx+0x61],dword 0x45456949
00008C82  44                inc esp
00008C83  324576            xor al,[ebp+0x76]
00008C86  005F5A            add [edi+0x5a],bl
00008C89  4E                dec esi
00008C8A  395F5F            cmp [edi+0x5f],ebx
00008C8D  676E              a16 outsb
00008C8F  755F              jnz 0x8cf0
00008C91  637878            arpl [eax+0x78],di
00008C94  3133              xor [ebx],esi
00008C96  6E                outsb
00008C97  65775F            gs ja 0x8cf9
00008C9A  61                popa
00008C9B  6C                insb
00008C9C  6C                insb
00008C9D  6F                outsd
00008C9E  636174            arpl [ecx+0x74],sp
00008CA1  6F                outsd
00008CA2  7249              jc 0x8ced
00008CA4  53                push ebx
00008CA5  7436              jz 0x8cdd
00008CA7  7665              jna 0x8d0e
00008CA9  63746F72          arpl [edi+ebp*2+0x72],si
00008CAD  49                dec ecx
00008CAE  69536149694545    imul edx,[ebx+0x61],dword 0x45456949
00008CB5  45                inc ebp
00008CB6  44                inc esp
00008CB7  324576            xor al,[ebp+0x76]
00008CBA  005F5A            add [edi+0x5a],bl
00008CBD  4E                dec esi
00008CBE  53                push ebx
00008CBF  7431              jz 0x8cf2
00008CC1  325F56            xor bl,[edi+0x56]
00008CC4  6563746F72        arpl [gs:edi+ebp*2+0x72],si
00008CC9  5F                pop edi
00008CCA  626173            bound esp,[ecx+0x73]
00008CCD  6549              gs dec ecx
00008CCF  53                push ebx
00008CD0  7436              jz 0x8d08
00008CD2  7665              jna 0x8d39
00008CD4  63746F72          arpl [edi+ebp*2+0x72],si
00008CD8  49                dec ecx
00008CD9  69536149694545    imul edx,[ebx+0x61],dword 0x45456949
00008CE0  53                push ebx
00008CE1  61                popa
00008CE2  49                dec ecx
00008CE3  53                push ebx
00008CE4  325F45            xor bl,[edi+0x45]
00008CE7  45                inc ebp
00008CE8  3139              xor [ecx],edi
00008CEA  5F                pop edi
00008CEB  4D                dec ebp
00008CEC  5F                pop edi
00008CED  6765745F          gs a16 jz 0x8d50
00008CF1  54                push esp
00008CF2  705F              jo 0x8d53
00008CF4  61                popa
00008CF5  6C                insb
00008CF6  6C                insb
00008CF7  6F                outsd
00008CF8  636174            arpl [ecx+0x74],sp
00008CFB  6F                outsd
00008CFC  7245              jc 0x8d43
00008CFE  7600              jna 0x8d00
00008D00  5F                pop edi
00008D01  5A                pop edx
00008D02  4E                dec esi
00008D03  4B                dec ebx
00008D04  53                push ebx
00008D05  7436              jz 0x8d3d
00008D07  7665              jna 0x8d6e
00008D09  63746F72          arpl [edi+ebp*2+0x72],si
00008D0D  49                dec ecx
00008D0E  69536149694545    imul edx,[ebx+0x61],dword 0x45456949
00008D15  3473              xor al,0x73
00008D17  697A654576005F    imul edi,[edx+0x65],dword 0x5f007645
00008D1E  5A                pop edx
00008D1F  4E                dec esi
00008D20  4B                dec ebx
00008D21  395F5F            cmp [edi+0x5f],ebx
00008D24  676E              a16 outsb
00008D26  755F              jnz 0x8d87
00008D28  637878            arpl [eax+0x78],di
00008D2B  3137              xor [edi],esi
00008D2D  5F                pop edi
00008D2E  5F                pop edi
00008D2F  6E                outsb
00008D30  6F                outsd
00008D31  726D              jc 0x8da0
00008D33  61                popa
00008D34  6C                insb
00008D35  5F                pop edi
00008D36  6974657261746F72  imul esi,[ebp+0x72],dword 0x726f7461
00008D3E  49                dec ecx
00008D3F  50                push eax
00008D40  53                push ebx
00008D41  7434              jz 0x8d77
00008D43  7061              jo 0x8da6
00008D45  6972496953315F    imul esi,[edx+0x49],dword 0x5f315369
00008D4C  49                dec ecx
00008D4D  69694545537436    imul ebp,[ecx+0x45],dword 0x36745345
00008D54  7665              jna 0x8dbb
00008D56  63746F72          arpl [edi+ebp*2+0x72],si
00008D5A  49                dec ecx
00008D5B  53                push ebx
00008D5C  335F53            xor ebx,[edi+0x53]
00008D5F  61                popa
00008D60  49                dec ecx
00008D61  53                push ebx
00008D62  335F45            xor ebx,[edi+0x45]
00008D65  45                inc ebp
00008D66  45                inc ebp
00008D67  646545            gs inc ebp
00008D6A  7600              jna 0x8d6c
00008D6C  5F                pop edi
00008D6D  5A                pop edx
00008D6E  4E                dec esi
00008D6F  53                push ebx
00008D70  7431              jz 0x8da3
00008D72  325F56            xor bl,[edi+0x56]
00008D75  6563746F72        arpl [gs:edi+ebp*2+0x72],si
00008D7A  5F                pop edi
00008D7B  626173            bound esp,[ecx+0x73]
00008D7E  6549              gs dec ecx
00008D80  53                push ebx
00008D81  7434              jz 0x8db7
00008D83  7061              jo 0x8de6
00008D85  6972496953305F    imul esi,[edx+0x49],dword 0x5f305369
00008D8C  49                dec ecx
00008D8D  69694545536149    imul ebp,[ecx+0x45],dword 0x49615345
00008D94  53                push ebx
00008D95  325F45            xor bl,[edi+0x45]
00008D98  45                inc ebp
00008D99  43                inc ebx
00008D9A  32456A            xor al,[ebp+0x6a]
00008D9D  52                push edx
00008D9E  4B                dec ebx
00008D9F  53                push ebx
00008DA0  335F00            xor ebx,[edi+0x0]
00008DA3  5F                pop edi
00008DA4  5A                pop edx
00008DA5  4E                dec esi
00008DA6  395F5F            cmp [edi+0x5f],ebx
00008DA9  676E              a16 outsb
00008DAB  755F              jnz 0x8e0c
00008DAD  637878            arpl [eax+0x78],di
00008DB0  3133              xor [ebx],esi
00008DB2  6E                outsb
00008DB3  65775F            gs ja 0x8e15
00008DB6  61                popa
00008DB7  6C                insb
00008DB8  6C                insb
00008DB9  6F                outsd
00008DBA  636174            arpl [ecx+0x74],sp
00008DBD  6F                outsd
00008DBE  7249              jc 0x8e09
00008DC0  53                push ebx
00008DC1  7436              jz 0x8df9
00008DC3  7665              jna 0x8e2a
00008DC5  63746F72          arpl [edi+ebp*2+0x72],si
00008DC9  49                dec ecx
00008DCA  69536149694545    imul edx,[ebx+0x61],dword 0x45456949
00008DD1  45                inc ebp
00008DD2  43                inc ebx
00008DD3  314576            xor [ebp+0x76],eax
00008DD6  005F5A            add [edi+0x5a],bl
00008DD9  4E                dec esi
00008DDA  4B                dec ebx
00008DDB  53                push ebx
00008DDC  7431              jz 0x8e0f
00008DDE  325F56            xor bl,[edi+0x56]
00008DE1  6563746F72        arpl [gs:edi+ebp*2+0x72],si
00008DE6  5F                pop edi
00008DE7  626173            bound esp,[ecx+0x73]
00008DEA  6549              gs dec ecx
00008DEC  53                push ebx
00008DED  7434              jz 0x8e23
00008DEF  7061              jo 0x8e52
00008DF1  6972496953305F    imul esi,[edx+0x49],dword 0x5f305369
00008DF8  49                dec ecx
00008DF9  69694545536149    imul ebp,[ecx+0x45],dword 0x49615345
00008E00  53                push ebx
00008E01  325F45            xor bl,[edi+0x45]
00008E04  45                inc ebp
00008E05  3139              xor [ecx],edi
00008E07  5F                pop edi
00008E08  4D                dec ebp
00008E09  5F                pop edi
00008E0A  6765745F          gs a16 jz 0x8e6d
00008E0E  54                push esp
00008E0F  705F              jo 0x8e70
00008E11  61                popa
00008E12  6C                insb
00008E13  6C                insb
00008E14  6F                outsd
00008E15  636174            arpl [ecx+0x74],sp
00008E18  6F                outsd
00008E19  7245              jc 0x8e60
00008E1B  7600              jna 0x8e1d
00008E1D  5F                pop edi
00008E1E  5F                pop edi
00008E1F  676D              a16 insd
00008E21  6F                outsd
00008E22  6E                outsb
00008E23  5F                pop edi
00008E24  7374              jnc 0x8e9a
00008E26  61                popa
00008E27  7274              jc 0x8e9d
00008E29  5F                pop edi
00008E2A  5F                pop edi
00008E2B  005F4A            add [edi+0x4a],bl
00008E2E  765F              jna 0x8e8f
00008E30  52                push edx
00008E31  6567697374657243  imul esi,[gs:bp+di+0x74],dword 0x6c437265
         -6C
00008E3A  61                popa
00008E3B  7373              jnc 0x8eb0
00008E3D  657300            gs jnc 0x8e40
00008E40  5F                pop edi
00008E41  5A                pop edx
00008E42  4E                dec esi
00008E43  53                push ebx
00008E44  7431              jz 0x8e77
00008E46  325F56            xor bl,[edi+0x56]
00008E49  6563746F72        arpl [gs:edi+ebp*2+0x72],si
00008E4E  5F                pop edi
00008E4F  626173            bound esp,[ecx+0x73]
00008E52  6549              gs dec ecx
00008E54  69536149694545    imul edx,[ebx+0x61],dword 0x45456949
00008E5B  3131              xor [ecx],esi
00008E5D  5F                pop edi
00008E5E  4D                dec ebp
00008E5F  5F                pop edi
00008E60  61                popa
00008E61  6C                insb
00008E62  6C                insb
00008E63  6F                outsd
00008E64  636174            arpl [ecx+0x74],sp
00008E67  6545              gs inc ebp
00008E69  6A00              push byte +0x0
00008E6B  5F                pop edi
00008E6C  5A                pop edx
00008E6D  4E                dec esi
00008E6E  53                push ebx
00008E6F  7431              jz 0x8ea2
00008E71  325F56            xor bl,[edi+0x56]
00008E74  6563746F72        arpl [gs:edi+ebp*2+0x72],si
00008E79  5F                pop edi
00008E7A  626173            bound esp,[ecx+0x73]
00008E7D  6549              gs dec ecx
00008E7F  53                push ebx
00008E80  7436              jz 0x8eb8
00008E82  7665              jna 0x8ee9
00008E84  63746F72          arpl [edi+ebp*2+0x72],si
00008E88  49                dec ecx
00008E89  69536149694545    imul edx,[ebx+0x61],dword 0x45456949
00008E90  53                push ebx
00008E91  61                popa
00008E92  49                dec ecx
00008E93  53                push ebx
00008E94  325F45            xor bl,[edi+0x45]
00008E97  45                inc ebp
00008E98  3132              xor [edx],esi
00008E9A  5F                pop edi
00008E9B  56                push esi
00008E9C  6563746F72        arpl [gs:edi+ebp*2+0x72],si
00008EA1  5F                pop edi
00008EA2  696D706C443145    imul ebp,[ebp+0x70],dword 0x4531446c
00008EA9  7600              jna 0x8eab
00008EAB  5F                pop edi
00008EAC  5A                pop edx
00008EAD  4E                dec esi
00008EAE  53                push ebx
00008EAF  7431              jz 0x8ee2
00008EB1  325F56            xor bl,[edi+0x56]
00008EB4  6563746F72        arpl [gs:edi+ebp*2+0x72],si
00008EB9  5F                pop edi
00008EBA  626173            bound esp,[ecx+0x73]
00008EBD  6549              gs dec ecx
00008EBF  53                push ebx
00008EC0  7434              jz 0x8ef6
00008EC2  7061              jo 0x8f25
00008EC4  6972496953305F    imul esi,[edx+0x49],dword 0x5f305369
00008ECB  49                dec ecx
00008ECC  69694545536149    imul ebp,[ecx+0x45],dword 0x49615345
00008ED3  53                push ebx
00008ED4  325F45            xor bl,[edi+0x45]
00008ED7  45                inc ebp
00008ED8  3132              xor [edx],esi
00008EDA  5F                pop edi
00008EDB  56                push esi
00008EDC  6563746F72        arpl [gs:edi+ebp*2+0x72],si
00008EE1  5F                pop edi
00008EE2  696D706C443145    imul ebp,[ebp+0x70],dword 0x4531446c
00008EE9  7600              jna 0x8eeb
00008EEB  5F                pop edi
00008EEC  66705F            o16 jo 0x8f4e
00008EEF  6877005F5A        push dword 0x5a5f0077
00008EF4  4E                dec esi
00008EF5  395F5F            cmp [edi+0x5f],ebx
00008EF8  676E              a16 outsb
00008EFA  755F              jnz 0x8f5b
00008EFC  637878            arpl [eax+0x78],di
00008EFF  31345F            xor [edi+ebx*2],esi
00008F02  5F                pop edi
00008F03  61                popa
00008F04  6C                insb
00008F05  6C                insb
00008F06  6F                outsd
00008F07  635F74            arpl [edi+0x74],bx
00008F0A  7261              jc 0x8f6d
00008F0C  6974734953614953  imul esi,[ebx+esi*2+0x49],dword 0x53496153
00008F14  7434              jz 0x8f4a
00008F16  7061              jo 0x8f79
00008F18  6972496953315F    imul esi,[edx+0x49],dword 0x5f315369
00008F1F  49                dec ecx
00008F20  69694545454538    imul ebp,[ecx+0x45],dword 0x38454545
00008F27  6D                insd
00008F28  61                popa
00008F29  785F              js 0x8f8a
00008F2B  7369              jnc 0x8f96
00008F2D  7A65              jpe 0x8f94
00008F2F  45                inc ebp
00008F30  52                push edx
00008F31  4B                dec ebx
00008F32  53                push ebx
00008F33  345F              xor al,0x5f
00008F35  005F5A            add [edi+0x5a],bl
00008F38  4E                dec esi
00008F39  53                push ebx
00008F3A  7431              jz 0x8f6d
00008F3C  325F56            xor bl,[edi+0x56]
00008F3F  6563746F72        arpl [gs:edi+ebp*2+0x72],si
00008F44  5F                pop edi
00008F45  626173            bound esp,[ecx+0x73]
00008F48  6549              gs dec ecx
00008F4A  69536149694545    imul edx,[ebx+0x61],dword 0x45456949
00008F51  43                inc ebx
00008F52  314552            xor [ebp+0x52],eax
00008F55  4B                dec ebx
00008F56  53                push ebx
00008F57  305F00            xor [edi+0x0],bl
00008F5A  5F                pop edi
00008F5B  5A                pop edx
00008F5C  4E                dec esi
00008F5D  53                push ebx
00008F5E  61                popa
00008F5F  49                dec ecx
00008F60  53                push ebx
00008F61  7436              jz 0x8f99
00008F63  7665              jna 0x8fca
00008F65  63746F72          arpl [edi+ebp*2+0x72],si
00008F69  49                dec ecx
00008F6A  69536149694545    imul edx,[ebx+0x61],dword 0x45456949
00008F71  45                inc ebp
00008F72  43                inc ebx
00008F73  314576            xor [ebp+0x76],eax
00008F76  005F5A            add [edi+0x5a],bl
00008F79  646C              fs insb
00008F7B  50                push eax
00008F7C  7640              jna 0x8fbe
00008F7E  40                inc eax
00008F7F  47                inc edi
00008F80  4C                dec esp
00008F81  49                dec ecx
00008F82  42                inc edx
00008F83  43                inc ebx
00008F84  58                pop eax
00008F85  58                pop eax
00008F86  5F                pop edi
00008F87  332E              xor ebp,[esi]
00008F89  3400              xor al,0x0
00008F8B  5F                pop edi
00008F8C  5A                pop edx
00008F8D  4E                dec esi
00008F8E  395F5F            cmp [edi+0x5f],ebx
00008F91  676E              a16 outsb
00008F93  755F              jnz 0x8ff4
00008F95  637878            arpl [eax+0x78],di
00008F98  3133              xor [ebx],esi
00008F9A  6E                outsb
00008F9B  65775F            gs ja 0x8ffd
00008F9E  61                popa
00008F9F  6C                insb
00008FA0  6C                insb
00008FA1  6F                outsd
00008FA2  636174            arpl [ecx+0x74],sp
00008FA5  6F                outsd
00008FA6  7249              jc 0x8ff1
00008FA8  69454431457600    imul eax,[ebp+0x44],dword 0x764531
00008FAF  5F                pop edi
00008FB0  5A                pop edx
00008FB1  4E                dec esi
00008FB2  53                push ebx
00008FB3  61                popa
00008FB4  49                dec ecx
00008FB5  6945433145524B    imul eax,[ebp+0x43],dword 0x4b524531
00008FBC  53                push ebx
00008FBD  5F                pop edi
00008FBE  005F5A            add [edi+0x5a],bl
00008FC1  53                push ebx
00008FC2  7432              jz 0x8ff6
00008FC4  30756E            xor [ebp+0x6e],dh
00008FC7  696E697469616C    imul ebp,[esi+0x69],dword 0x6c616974
00008FCE  697A65645F6669    imul edi,[edx+0x65],dword 0x69665f64
00008FD5  6C                insb
00008FD6  6C                insb
00008FD7  5F                pop edi
00008FD8  6E                outsb
00008FD9  49                dec ecx
00008FDA  50                push eax
00008FDB  53                push ebx
00008FDC  7436              jz 0x9014
00008FDE  7665              jna 0x9045
00008FE0  63746F72          arpl [edi+ebp*2+0x72],si
00008FE4  49                dec ecx
00008FE5  69536149694545    imul edx,[ebx+0x61],dword 0x45456949
00008FEC  6A53              push byte +0x53
00008FEE  325F45            xor bl,[edi+0x45]
00008FF1  7654              jna 0x9047
00008FF3  5F                pop edi
00008FF4  54                push esp
00008FF5  305F52            xor [edi+0x52],bl
00008FF8  4B                dec ebx
00008FF9  54                push esp
00008FFA  315F00            xor [edi+0x0],ebx
00008FFD  5F                pop edi
00008FFE  5A                pop edx
00008FFF  53                push ebx
00009000  7432              jz 0x9034
00009002  345F              xor al,0x5f
00009004  5F                pop edi
00009005  756E              jnz 0x9075
00009007  696E697469616C    imul ebp,[esi+0x69],dword 0x6c616974
0000900E  697A65645F6669    imul edi,[edx+0x65],dword 0x69665f64
00009015  6C                insb
00009016  6C                insb
00009017  5F                pop edi
00009018  6E                outsb
00009019  5F                pop edi
0000901A  61                popa
0000901B  49                dec ecx
0000901C  50                push eax
0000901D  696A6969457654    imul ebp,[edx+0x69],dword 0x54764569
00009024  5F                pop edi
00009025  54                push esp
00009026  305F52            xor [edi+0x52],bl
00009029  4B                dec ebx
0000902A  54                push esp
0000902B  315F52            xor [edi+0x52],ebx
0000902E  53                push ebx
0000902F  61                popa
00009030  49                dec ecx
00009031  54                push esp
00009032  325F45            xor bl,[edi+0x45]
00009035  005F66            add [edi+0x66],bl
00009038  696E69005F5A4E    imul ebp,[esi+0x69],dword 0x4e5a5f00
0000903F  53                push ebx
00009040  61                popa
00009041  49                dec ecx
00009042  69454332457600    imul eax,[ebp+0x43],dword 0x764532
00009049  5F                pop edi
0000904A  5A                pop edx
0000904B  4E                dec esi
0000904C  53                push ebx
0000904D  7431              jz 0x9080
0000904F  325F56            xor bl,[edi+0x56]
00009052  6563746F72        arpl [gs:edi+ebp*2+0x72],si
00009057  5F                pop edi
00009058  626173            bound esp,[ecx+0x73]
0000905B  6549              gs dec ecx
0000905D  53                push ebx
0000905E  7434              jz 0x9094
00009060  7061              jo 0x90c3
00009062  6972496953305F    imul esi,[edx+0x49],dword 0x5f305369
00009069  49                dec ecx
0000906A  69694545536149    imul ebp,[ecx+0x45],dword 0x49615345
00009071  53                push ebx
00009072  325F45            xor bl,[edi+0x45]
00009075  45                inc ebp
00009076  44                inc esp
00009077  314576            xor [ebp+0x76],eax
0000907A  005F5F            add [edi+0x5f],bl
0000907D  637861            arpl [eax+0x61],di
00009080  5F                pop edi
00009081  7265              jc 0x90e8
00009083  7468              jz 0x90ed
00009085  726F              jc 0x90f6
00009087  7740              ja 0x90c9
00009089  40                inc eax
0000908A  43                inc ebx
0000908B  58                pop eax
0000908C  58                pop eax
0000908D  41                inc ecx
0000908E  42                inc edx
0000908F  49                dec ecx
00009090  5F                pop edi
00009091  312E              xor [esi],ebp
00009093  3300              xor eax,[eax]
00009095  5F                pop edi
00009096  5A                pop edx
00009097  35666C6F6F        xor eax,0x6f6f6c66
0000909C  6452              fs push edx
0000909E  4B                dec ebx
0000909F  53                push ebx
000090A0  7436              jz 0x90d8
000090A2  7665              jna 0x9109
000090A4  63746F72          arpl [edi+ebp*2+0x72],si
000090A8  49                dec ecx
000090A9  53                push ebx
000090AA  5F                pop edi
000090AB  49                dec ecx
000090AC  69536149694545    imul edx,[ebx+0x61],dword 0x45456949
000090B3  53                push ebx
000090B4  61                popa
000090B5  49                dec ecx
000090B6  53                push ebx
000090B7  315F45            xor [edi+0x45],ebx
000090BA  45                inc ebp
000090BB  53                push ebx
000090BC  355F695253        xor eax,0x5352695f
000090C1  335F69            xor ebx,[edi+0x69]
000090C4  69005F5A4E53      imul eax,[eax],dword 0x534e5a5f
000090CA  7438              jz 0x9104
000090CC  696F735F626173    imul ebp,[edi+0x73],dword 0x7361625f
000090D3  653449            gs xor al,0x49
000090D6  6E                outsb
000090D7  6974433145764040  imul esi,[ebx+eax*2+0x31],dword 0x40407645
000090DF  47                inc edi
000090E0  4C                dec esp
000090E1  49                dec ecx
000090E2  42                inc edx
000090E3  43                inc ebx
000090E4  58                pop eax
000090E5  58                pop eax
000090E6  5F                pop edi
000090E7  332E              xor ebp,[esi]
000090E9  3400              xor al,0x0
000090EB  5F                pop edi
000090EC  5A                pop edx
000090ED  4E                dec esi
000090EE  4B                dec ebx
000090EF  53                push ebx
000090F0  7436              jz 0x9128
000090F2  7665              jna 0x9159
000090F4  63746F72          arpl [edi+ebp*2+0x72],si
000090F8  49                dec ecx
000090F9  53                push ebx
000090FA  5F                pop edi
000090FB  49                dec ecx
000090FC  69536149694545    imul edx,[ebx+0x61],dword 0x45456949
00009103  53                push ebx
00009104  61                popa
00009105  49                dec ecx
00009106  53                push ebx
00009107  315F45            xor [edi+0x45],ebx
0000910A  45                inc ebp
0000910B  6978456A005F5A    imul edi,[eax+0x45],dword 0x5a5f006a
00009112  4E                dec esi
00009113  53                push ebx
00009114  7431              jz 0x9147
00009116  305F49            xor [edi+0x49],bl
00009119  7465              jz 0x9180
0000911B  725F              jc 0x917c
0000911D  626173            bound esp,[ecx+0x73]
00009120  6549              gs dec ecx
00009122  50                push eax
00009123  53                push ebx
00009124  7434              jz 0x915a
00009126  7061              jo 0x9189
00009128  6972496953305F    imul esi,[edx+0x49],dword 0x5f305369
0000912F  49                dec ecx
00009130  696945454C6230    imul ebp,[ecx+0x45],dword 0x30624c45
00009137  45                inc ebp
00009138  45                inc ebp
00009139  37                aaa
0000913A  5F                pop edi
0000913B  53                push ebx
0000913C  5F                pop edi
0000913D  626173            bound esp,[ecx+0x73]
00009140  6545              gs inc ebp
00009142  53                push ebx
00009143  335F00            xor ebx,[edi+0x0]
00009146  5F                pop edi
00009147  5A                pop edx
00009148  4E                dec esi
00009149  4B                dec ebx
0000914A  53                push ebx
0000914B  7436              jz 0x9183
0000914D  7665              jna 0x91b4
0000914F  63746F72          arpl [edi+ebp*2+0x72],si
00009153  49                dec ecx
00009154  69536149694545    imul edx,[ebx+0x61],dword 0x45456949
0000915B  6978456A005F5A    imul edi,[eax+0x45],dword 0x5a5f006a
00009162  4E                dec esi
00009163  4B                dec ebx
00009164  53                push ebx
00009165  7436              jz 0x919d
00009167  7665              jna 0x91ce
00009169  63746F72          arpl [edi+ebp*2+0x72],si
0000916D  49                dec ecx
0000916E  53                push ebx
0000916F  7434              jz 0x91a5
00009171  7061              jo 0x91d4
00009173  6972496953305F    imul esi,[edx+0x49],dword 0x5f305369
0000917A  49                dec ecx
0000917B  69694545536149    imul ebp,[ecx+0x45],dword 0x49615345
00009182  53                push ebx
00009183  325F45            xor bl,[edi+0x45]
00009186  45                inc ebp
00009187  33656E            xor esp,[ebp+0x6e]
0000918A  6445              fs inc ebp
0000918C  7600              jna 0x918e
0000918E  5F                pop edi
0000918F  5A                pop edx
00009190  4E                dec esi
00009191  4B                dec ebx
00009192  53                push ebx
00009193  7431              jz 0x91c6
00009195  3470              xor al,0x70
00009197  7269              jc 0x9202
00009199  6F                outsd
0000919A  7269              jc 0x9205
0000919C  7479              jz 0x9217
0000919E  5F                pop edi
0000919F  7175              jno 0x9216
000091A1  657565            gs jnz 0x9209
000091A4  49                dec ecx
000091A5  53                push ebx
000091A6  7434              jz 0x91dc
000091A8  7061              jo 0x920b
000091AA  6972496953305F    imul esi,[edx+0x49],dword 0x5f305369
000091B1  49                dec ecx
000091B2  69694545537436    imul ebp,[ecx+0x45],dword 0x36745345
000091B9  7665              jna 0x9220
000091BB  63746F72          arpl [edi+ebp*2+0x72],si
000091BF  49                dec ecx
000091C0  53                push ebx
000091C1  325F53            xor bl,[edi+0x53]
000091C4  61                popa
000091C5  49                dec ecx
000091C6  53                push ebx
000091C7  325F45            xor bl,[edi+0x45]
000091CA  45                inc ebp
000091CB  53                push ebx
000091CC  7437              jz 0x9205
000091CE  677265            a16 jc 0x9236
000091D1  61                popa
000091D2  7465              jz 0x9239
000091D4  7249              jc 0x921f
000091D6  53                push ebx
000091D7  325F45            xor bl,[edi+0x45]
000091DA  45                inc ebp
000091DB  33746F70          xor esi,[edi+ebp*2+0x70]
000091DF  45                inc ebp
000091E0  7600              jna 0x91e2
000091E2  5F                pop edi
000091E3  5A                pop edx
000091E4  4E                dec esi
000091E5  53                push ebx
000091E6  7436              jz 0x921e
000091E8  7665              jna 0x924f
000091EA  63746F72          arpl [edi+ebp*2+0x72],si
000091EE  49                dec ecx
000091EF  53                push ebx
000091F0  5F                pop edi
000091F1  49                dec ecx
000091F2  69536149694545    imul edx,[ebx+0x61],dword 0x45456949
000091F9  53                push ebx
000091FA  61                popa
000091FB  49                dec ecx
000091FC  53                push ebx
000091FD  315F45            xor [edi+0x45],ebx
00009200  45                inc ebp
00009201  3138              xor [eax],edi
00009203  5F                pop edi
00009204  4D                dec ebp
00009205  5F                pop edi
00009206  66696C6C5F696E    imul bp,[esp+ebp*2+0x5f],word 0x6e69
0000920D  697469616C697A65  imul esi,[ecx+ebp*2+0x61],dword 0x657a696c
00009215  45                inc ebp
00009216  6A52              push byte +0x52
00009218  4B                dec ebx
00009219  53                push ebx
0000921A  315F00            xor [edi+0x0],ebx
0000921D  5F                pop edi
0000921E  5A                pop edx
0000921F  4E                dec esi
00009220  395F5F            cmp [edi+0x5f],ebx
00009223  676E              a16 outsb
00009225  755F              jnz 0x9286
00009227  637878            arpl [eax+0x78],di
0000922A  3137              xor [edi],esi
0000922C  5F                pop edi
0000922D  5F                pop edi
0000922E  6E                outsb
0000922F  6F                outsd
00009230  726D              jc 0x929f
00009232  61                popa
00009233  6C                insb
00009234  5F                pop edi
00009235  6974657261746F72  imul esi,[ebp+0x72],dword 0x726f7461
0000923D  49                dec ecx
0000923E  50                push eax
0000923F  4B                dec ebx
00009240  53                push ebx
00009241  7434              jz 0x9277
00009243  7061              jo 0x92a6
00009245  6972496953315F    imul esi,[edx+0x49],dword 0x5f315369
0000924C  49                dec ecx
0000924D  69694545537436    imul ebp,[ecx+0x45],dword 0x36745345
00009254  7665              jna 0x92bb
00009256  63746F72          arpl [edi+ebp*2+0x72],si
0000925A  49                dec ecx
0000925B  53                push ebx
0000925C  335F53            xor ebx,[edi+0x53]
0000925F  61                popa
00009260  49                dec ecx
00009261  53                push ebx
00009262  335F45            xor ebx,[edi+0x45]
00009265  45                inc ebp
00009266  45                inc ebp
00009267  43                inc ebx
00009268  314552            xor [ebp+0x52],eax
0000926B  4B                dec ebx
0000926C  53                push ebx
0000926D  355F005F5A        xor eax,0x5a5f005f
00009272  4E                dec esi
00009273  53                push ebx
00009274  61                popa
00009275  49                dec ecx
00009276  53                push ebx
00009277  7434              jz 0x92ad
00009279  7061              jo 0x92dc
0000927B  69724969535F49    imul esi,[edx+0x49],dword 0x495f5369
00009282  69694545454431    imul ebp,[ecx+0x45],dword 0x31444545
00009289  45                inc ebp
0000928A  7600              jna 0x928c
0000928C  5F                pop edi
0000928D  5A                pop edx
0000928E  4E                dec esi
0000928F  395F5F            cmp [edi+0x5f],ebx
00009292  676E              a16 outsb
00009294  755F              jnz 0x92f5
00009296  637878            arpl [eax+0x78],di
00009299  3133              xor [ebx],esi
0000929B  6E                outsb
0000929C  65775F            gs ja 0x92fe
0000929F  61                popa
000092A0  6C                insb
000092A1  6C                insb
000092A2  6F                outsd
000092A3  636174            arpl [ecx+0x74],sp
000092A6  6F                outsd
000092A7  7249              jc 0x92f2
000092A9  53                push ebx
000092AA  7436              jz 0x92e2
000092AC  7665              jna 0x9313
000092AE  63746F72          arpl [edi+ebp*2+0x72],si
000092B2  49                dec ecx
000092B3  69536149694545    imul edx,[ebx+0x61],dword 0x45456949
000092BA  45                inc ebp
000092BB  43                inc ebx
000092BC  324552            xor al,[ebp+0x52]
000092BF  4B                dec ebx
000092C0  53                push ebx
000092C1  345F              xor al,0x5f
000092C3  005F5A            add [edi+0x5a],bl
000092C6  53                push ebx
000092C7  7438              jz 0x9301
000092C9  5F                pop edi
000092CA  44                inc esp
000092CB  657374            gs jnc 0x9342
000092CE  726F              jc 0x933f
000092D0  7949              jns 0x931b
000092D2  50                push eax
000092D3  53                push ebx
000092D4  7436              jz 0x930c
000092D6  7665              jna 0x933d
000092D8  63746F72          arpl [edi+ebp*2+0x72],si
000092DC  49                dec ecx
000092DD  69536149694545    imul edx,[ebx+0x61],dword 0x45456949
000092E4  45                inc ebp
000092E5  7654              jna 0x933b
000092E7  5F                pop edi
000092E8  53                push ebx
000092E9  345F              xor al,0x5f
000092EB  005F5A            add [edi+0x5a],bl
000092EE  4E                dec esi
000092EF  53                push ebx
000092F0  7432              jz 0x9324
000092F2  305F5F            xor [edi+0x5f],bl
000092F5  636F70            arpl [edi+0x70],bp
000092F8  795F              jns 0x9359
000092FA  6D                insd
000092FB  6F                outsd
000092FC  7665              jna 0x9363
000092FE  5F                pop edi
000092FF  626163            bound esp,[ecx+0x63]
00009302  6B776172          imul esi,[edi+0x61],byte +0x72
00009306  6449              fs dec ecx
00009308  4C                dec esp
00009309  6230              bound esi,[eax]
0000930B  45                inc ebp
0000930C  4C                dec esp
0000930D  6230              bound esi,[eax]
0000930F  45                inc ebp
00009310  53                push ebx
00009311  7432              jz 0x9345
00009313  367261            ss jc 0x9377
00009316  6E                outsb
00009317  646F              fs outsd
00009319  6D                insd
0000931A  5F                pop edi
0000931B  61                popa
0000931C  636365            arpl [ebx+0x65],sp
0000931F  7373              jnc 0x9394
00009321  5F                pop edi
00009322  6974657261746F72  imul esi,[ebp+0x72],dword 0x726f7461
0000932A  5F                pop edi
0000932B  7461              jz 0x938e
0000932D  6745              a16 inc ebp
0000932F  3133              xor [ebx],esi
00009331  5F                pop edi
00009332  5F                pop edi
00009333  636F70            arpl [edi+0x70],bp
00009336  795F              jns 0x9397
00009338  6D                insd
00009339  6F                outsd
0000933A  7665              jna 0x93a1
0000933C  5F                pop edi
0000933D  624950            bound ecx,[ecx+0x50]
00009340  53                push ebx
00009341  7434              jz 0x9377
00009343  7061              jo 0x93a6
00009345  6972496953335F    imul esi,[edx+0x49],dword 0x5f335369
0000934C  49                dec ecx
0000934D  6969454553365F    imul ebp,[ecx+0x45],dword 0x5f365345
00009354  45                inc ebp
00009355  45                inc ebp
00009356  54                push esp
00009357  305F54            xor [edi+0x54],bl
0000935A  5F                pop edi
0000935B  53                push ebx
0000935C  385F53            cmp [edi+0x53],bl
0000935F  37                aaa
00009360  5F                pop edi
00009361  005F5A            add [edi+0x5a],bl
00009364  53                push ebx
00009365  7431              jz 0x9398
00009367  33636F            xor esp,[ebx+0x6f]
0000936A  7079              jo 0x93e5
0000936C  5F                pop edi
0000936D  626163            bound esp,[ecx+0x63]
00009370  6B776172          imul esi,[edi+0x61],byte +0x72
00009374  6449              fs dec ecx
00009376  50                push eax
00009377  53                push ebx
00009378  7434              jz 0x93ae
0000937A  7061              jo 0x93dd
0000937C  6972496953305F    imul esi,[edx+0x49],dword 0x5f305369
00009383  49                dec ecx
00009384  6969454553335F    imul ebp,[ecx+0x45],dword 0x5f335345
0000938B  45                inc ebp
0000938C  54                push esp
0000938D  305F54            xor [edi+0x54],bl
00009390  5F                pop edi
00009391  53                push ebx
00009392  355F53345F        xor eax,0x5f34535f
00009397  005F5A            add [edi+0x5a],bl
0000939A  4E                dec esi
0000939B  53                push ebx
0000939C  7436              jz 0x93d4
0000939E  7665              jna 0x9405
000093A0  63746F72          arpl [edi+ebp*2+0x72],si
000093A4  49                dec ecx
000093A5  69536149694545    imul edx,[ebx+0x61],dword 0x45456949
000093AC  43                inc ebx
000093AD  324969            xor cl,[ecx+0x69]
000093B0  45                inc ebp
000093B1  45                inc ebp
000093B2  54                push esp
000093B3  5F                pop edi
000093B4  53                push ebx
000093B5  335F52            xor ebx,[edi+0x52]
000093B8  4B                dec ebx
000093B9  53                push ebx
000093BA  305F00            xor [edi+0x0],bl
000093BD  5F                pop edi
000093BE  5A                pop edx
000093BF  53                push ebx
000093C0  7438              jz 0x93fa
000093C2  5F                pop edi
000093C3  44                inc esp
000093C4  657374            gs jnc 0x943b
000093C7  726F              jc 0x9438
000093C9  7949              jns 0x9414
000093CB  53                push ebx
000093CC  7436              jz 0x9404
000093CE  7665              jna 0x9435
000093D0  63746F72          arpl [edi+ebp*2+0x72],si
000093D4  49                dec ecx
000093D5  69536149694545    imul edx,[ebx+0x61],dword 0x45456949
000093DC  45                inc ebp
000093DD  7650              jna 0x942f
000093DF  54                push esp
000093E0  5F                pop edi
000093E1  005F5A            add [edi+0x5a],bl
000093E4  4E                dec esi
000093E5  395F5F            cmp [edi+0x5f],ebx
000093E8  676E              a16 outsb
000093EA  755F              jnz 0x944b
000093EC  637878            arpl [eax+0x78],di
000093EF  3133              xor [ebx],esi
000093F1  6E                outsb
000093F2  65775F            gs ja 0x9454
000093F5  61                popa
000093F6  6C                insb
000093F7  6C                insb
000093F8  6F                outsd
000093F9  636174            arpl [ecx+0x74],sp
000093FC  6F                outsd
000093FD  7249              jc 0x9448
000093FF  69454432457600    imul eax,[ebp+0x44],dword 0x764532
00009406  5F                pop edi
00009407  5A                pop edx
00009408  4E                dec esi
00009409  395F5F            cmp [edi+0x5f],ebx
0000940C  676E              a16 outsb
0000940E  755F              jnz 0x946f
00009410  637878            arpl [eax+0x78],di
00009413  31345F            xor [edi+ebx*2],esi
00009416  5F                pop edi
00009417  61                popa
00009418  6C                insb
00009419  6C                insb
0000941A  6F                outsd
0000941B  635F74            arpl [edi+0x74],bx
0000941E  7261              jc 0x9481
00009420  6974734953614953  imul esi,[ebx+esi*2+0x49],dword 0x53496153
00009428  7434              jz 0x945e
0000942A  7061              jo 0x948d
0000942C  6972496953315F    imul esi,[edx+0x49],dword 0x5f315369
00009433  49                dec ecx
00009434  69694545454539    imul ebp,[ecx+0x45],dword 0x39454545
0000943B  636F6E            arpl [edi+0x6e],bp
0000943E  7374              jnc 0x94b4
00009440  7275              jc 0x94b7
00009442  63744953          arpl [ecx+ecx*2+0x53],si
00009446  335F45            xor ebx,[edi+0x45]
00009449  45                inc ebp
0000944A  7652              jna 0x949e
0000944C  53                push ebx
0000944D  345F              xor al,0x5f
0000944F  50                push eax
00009450  53                push ebx
00009451  335F52            xor ebx,[edi+0x52]
00009454  4B                dec ebx
00009455  54                push esp
00009456  5F                pop edi
00009457  005F5F            add [edi+0x5f],bl
0000945A  6C                insb
0000945B  6962635F737461    imul esp,[edx+0x63],dword 0x6174735f
00009462  7274              jc 0x94d8
00009464  5F                pop edi
00009465  6D                insd
00009466  61                popa
00009467  696E4040474C49    imul ebp,[esi+0x40],dword 0x494c4740
0000946E  42                inc edx
0000946F  43                inc ebx
00009470  5F                pop edi
00009471  322E              xor ch,[esi]
00009473  3000              xor [eax],al
00009475  5F                pop edi
00009476  5A                pop edx
00009477  53                push ebx
00009478  746F              jz 0x94e9
0000947A  52                push edx
0000947B  52                push edx
0000947C  53                push ebx
0000947D  7431              jz 0x94b0
0000947F  335F49            xor ebx,[edi+0x49]
00009482  6F                outsd
00009483  735F              jnc 0x94e4
00009485  46                inc esi
00009486  6D                insd
00009487  7466              jz 0x94ef
00009489  6C                insb
0000948A  61                popa
0000948B  677353            a16 jnc 0x94e1
0000948E  5F                pop edi
0000948F  005F5A            add [edi+0x5a],bl
00009492  53                push ebx
00009493  7438              jz 0x94cd
00009495  5F                pop edi
00009496  44                inc esp
00009497  657374            gs jnc 0x950e
0000949A  726F              jc 0x950b
0000949C  7949              jns 0x94e7
0000949E  50                push eax
0000949F  69694576545F53    imul ebp,[ecx+0x45],dword 0x535f5476
000094A6  315F52            xor [edi+0x52],ebx
000094A9  53                push ebx
000094AA  61                popa
000094AB  49                dec ecx
000094AC  54                push esp
000094AD  305F45            xor [edi+0x45],bl
000094B0  005F5A            add [edi+0x5a],bl
000094B3  4E                dec esi
000094B4  53                push ebx
000094B5  7431              jz 0x94e8
000094B7  325F56            xor bl,[edi+0x56]
000094BA  6563746F72        arpl [gs:edi+ebp*2+0x72],si
000094BF  5F                pop edi
000094C0  626173            bound esp,[ecx+0x73]
000094C3  6549              gs dec ecx
000094C5  69536149694545    imul edx,[ebx+0x61],dword 0x45456949
000094CC  3132              xor [edx],esi
000094CE  5F                pop edi
000094CF  56                push esi
000094D0  6563746F72        arpl [gs:edi+ebp*2+0x72],si
000094D5  5F                pop edi
000094D6  696D706C433145    imul ebp,[ebp+0x70],dword 0x4531436c
000094DD  52                push edx
000094DE  4B                dec ebx
000094DF  53                push ebx
000094E0  305F00            xor [edi+0x0],bl
000094E3  5F                pop edi
000094E4  5A                pop edx
000094E5  4E                dec esi
000094E6  53                push ebx
000094E7  7431              jz 0x951a
000094E9  325F56            xor bl,[edi+0x56]
000094EC  6563746F72        arpl [gs:edi+ebp*2+0x72],si
000094F1  5F                pop edi
000094F2  626173            bound esp,[ecx+0x73]
000094F5  6549              gs dec ecx
000094F7  53                push ebx
000094F8  7434              jz 0x952e
000094FA  7061              jo 0x955d
000094FC  6972496953305F    imul esi,[edx+0x49],dword 0x5f305369
00009503  49                dec ecx
00009504  69694545536149    imul ebp,[ecx+0x45],dword 0x49615345
0000950B  53                push ebx
0000950C  325F45            xor bl,[edi+0x45]
0000950F  45                inc ebp
00009510  43                inc ebx
00009511  314576            xor [ebp+0x76],eax
00009514  005F5A            add [edi+0x5a],bl
00009517  4E                dec esi
00009518  53                push ebx
00009519  7436              jz 0x9551
0000951B  7665              jna 0x9582
0000951D  63746F72          arpl [edi+ebp*2+0x72],si
00009521  49                dec ecx
00009522  69536149694545    imul edx,[ebx+0x61],dword 0x45456949
00009529  43                inc ebx
0000952A  314969            xor [ecx+0x69],ecx
0000952D  45                inc ebp
0000952E  45                inc ebp
0000952F  54                push esp
00009530  5F                pop edi
00009531  53                push ebx
00009532  335F52            xor ebx,[edi+0x52]
00009535  4B                dec ebx
00009536  53                push ebx
00009537  305F00            xor [edi+0x0],bl
0000953A  5F                pop edi
0000953B  5A                pop edx
0000953C  4E                dec esi
0000953D  53                push ebx
0000953E  7436              jz 0x9576
00009540  7665              jna 0x95a7
00009542  63746F72          arpl [edi+ebp*2+0x72],si
00009546  49                dec ecx
00009547  69536149694545    imul edx,[ebx+0x61],dword 0x45456949
0000954E  43                inc ebx
0000954F  314552            xor [ebp+0x52],eax
00009552  4B                dec ebx
00009553  53                push ebx
00009554  315F00            xor [edi+0x0],ebx
00009557  5F                pop edi
00009558  5A                pop edx
00009559  4E                dec esi
0000955A  53                push ebx
0000955B  61                popa
0000955C  49                dec ecx
0000955D  53                push ebx
0000955E  7434              jz 0x9594
00009560  7061              jo 0x95c3
00009562  69724969535F49    imul esi,[edx+0x49],dword 0x495f5369
00009569  69694545454332    imul ebp,[ecx+0x45],dword 0x32434545
00009570  45                inc ebp
00009571  7600              jna 0x9573
00009573  5F                pop edi
00009574  5A                pop edx
00009575  4E                dec esi
00009576  4B                dec ebx
00009577  53                push ebx
00009578  7436              jz 0x95b0
0000957A  7665              jna 0x95e1
0000957C  63746F72          arpl [edi+ebp*2+0x72],si
00009580  49                dec ecx
00009581  53                push ebx
00009582  7434              jz 0x95b8
00009584  7061              jo 0x95e7
00009586  6972496953305F    imul esi,[edx+0x49],dword 0x5f305369
0000958D  49                dec ecx
0000958E  69694545536149    imul ebp,[ecx+0x45],dword 0x49615345
00009595  53                push ebx
00009596  325F45            xor bl,[edi+0x45]
00009599  45                inc ebp
0000959A  35656D7074        xor eax,0x74706d65
0000959F  7945              jns 0x95e6
000095A1  7600              jna 0x95a3
000095A3  5F                pop edi
000095A4  5A                pop edx
000095A5  4E                dec esi
000095A6  53                push ebx
000095A7  7436              jz 0x95df
000095A9  7665              jna 0x9610
000095AB  63746F72          arpl [edi+ebp*2+0x72],si
000095AF  49                dec ecx
000095B0  53                push ebx
000095B1  7434              jz 0x95e7
000095B3  7061              jo 0x9616
000095B5  6972496953305F    imul esi,[edx+0x49],dword 0x5f305369
000095BC  49                dec ecx
000095BD  69694545536149    imul ebp,[ecx+0x45],dword 0x49615345
000095C4  53                push ebx
000095C5  325F45            xor bl,[edi+0x45]
000095C8  45                inc ebp
000095C9  397075            cmp [eax+0x75],esi
000095CC  7368              jnc 0x9636
000095CE  5F                pop edi
000095CF  626163            bound esp,[ecx+0x63]
000095D2  6B45524B          imul eax,[ebp+0x52],byte +0x4b
000095D6  53                push ebx
000095D7  325F00            xor bl,[edi+0x0]
000095DA  5F                pop edi
000095DB  5A                pop edx
000095DC  4E                dec esi
000095DD  53                push ebx
000095DE  7436              jz 0x9616
000095E0  7665              jna 0x9647
000095E2  63746F72          arpl [edi+ebp*2+0x72],si
000095E6  49                dec ecx
000095E7  53                push ebx
000095E8  7434              jz 0x961e
000095EA  7061              jo 0x964d
000095EC  6972496953305F    imul esi,[edx+0x49],dword 0x5f305369
000095F3  49                dec ecx
000095F4  69694545536149    imul ebp,[ecx+0x45],dword 0x49615345
000095FB  53                push ebx
000095FC  325F45            xor bl,[edi+0x45]
000095FF  45                inc ebp
00009600  38706F            cmp [eax+0x6f],dh
00009603  705F              jo 0x9664
00009605  626163            bound esp,[ecx+0x63]
00009608  6B457600          imul eax,[ebp+0x76],byte +0x0
0000960C  5F                pop edi
0000960D  5A                pop edx
0000960E  4E                dec esi
0000960F  53                push ebx
00009610  7436              jz 0x9648
00009612  7665              jna 0x9679
00009614  63746F72          arpl [edi+ebp*2+0x72],si
00009618  49                dec ecx
00009619  69536149694545    imul edx,[ebx+0x61],dword 0x45456949
00009620  44                inc esp
00009621  314576            xor [ebp+0x76],eax
00009624  005F5A            add [edi+0x5a],bl
00009627  4E                dec esi
00009628  395F5F            cmp [edi+0x5f],ebx
0000962B  676E              a16 outsb
0000962D  755F              jnz 0x968e
0000962F  637878            arpl [eax+0x78],di
00009632  3133              xor [ebx],esi
00009634  6E                outsb
00009635  65775F            gs ja 0x9697
00009638  61                popa
00009639  6C                insb
0000963A  6C                insb
0000963B  6F                outsd
0000963C  636174            arpl [ecx+0x74],sp
0000963F  6F                outsd
00009640  7249              jc 0x968b
00009642  69453130646561    imul eax,[ebp+0x31],dword 0x61656430
00009649  6C                insb
0000964A  6C                insb
0000964B  6F                outsd
0000964C  636174            arpl [ecx+0x74],sp
0000964F  6545              gs inc ebp
00009651  50                push eax
00009652  696A005F5A4E39    imul ebp,[edx+0x0],dword 0x394e5a5f
00009659  5F                pop edi
0000965A  5F                pop edi
0000965B  676E              a16 outsb
0000965D  755F              jnz 0x96be
0000965F  637878            arpl [eax+0x78],di
00009662  3137              xor [edi],esi
00009664  5F                pop edi
00009665  5F                pop edi
00009666  6E                outsb
00009667  6F                outsd
00009668  726D              jc 0x96d7
0000966A  61                popa
0000966B  6C                insb
0000966C  5F                pop edi
0000966D  6974657261746F72  imul esi,[ebp+0x72],dword 0x726f7461
00009675  49                dec ecx
00009676  50                push eax
00009677  53                push ebx
00009678  7434              jz 0x96ae
0000967A  7061              jo 0x96dd
0000967C  6972496953315F    imul esi,[edx+0x49],dword 0x5f315369
00009683  49                dec ecx
00009684  69694545537436    imul ebp,[ecx+0x45],dword 0x36745345
0000968B  7665              jna 0x96f2
0000968D  63746F72          arpl [edi+ebp*2+0x72],si
00009691  49                dec ecx
00009692  53                push ebx
00009693  335F53            xor ebx,[edi+0x53]
00009696  61                popa
00009697  49                dec ecx
00009698  53                push ebx
00009699  335F45            xor ebx,[edi+0x45]
0000969C  45                inc ebp
0000969D  45                inc ebp
0000969E  6D                insd
0000969F  6D                insd
000096A0  45                inc ebp
000096A1  7600              jna 0x96a3
000096A3  5F                pop edi
000096A4  5A                pop edx
000096A5  4E                dec esi
000096A6  53                push ebx
000096A7  7438              jz 0x96e1
000096A9  696F735F626173    imul ebp,[edi+0x73],dword 0x7361625f
000096B0  653449            gs xor al,0x49
000096B3  6E                outsb
000096B4  6974443145764040  imul esi,[esp+eax*2+0x31],dword 0x40407645
000096BC  47                inc edi
000096BD  4C                dec esp
000096BE  49                dec ecx
000096BF  42                inc edx
000096C0  43                inc ebx
000096C1  58                pop eax
000096C2  58                pop eax
000096C3  5F                pop edi
000096C4  332E              xor ebp,[esi]
000096C6  3400              xor al,0x0
000096C8  5F                pop edi
000096C9  5A                pop edx
000096CA  53                push ebx
000096CB  7438              jz 0x9705
000096CD  706F              jo 0x973e
000096CF  705F              jo 0x9730
000096D1  6865617049        push dword 0x49706165
000096D6  4E                dec esi
000096D7  395F5F            cmp [edi+0x5f],ebx
000096DA  676E              a16 outsb
000096DC  755F              jnz 0x973d
000096DE  637878            arpl [eax+0x78],di
000096E1  3137              xor [edi],esi
000096E3  5F                pop edi
000096E4  5F                pop edi
000096E5  6E                outsb
000096E6  6F                outsd
000096E7  726D              jc 0x9756
000096E9  61                popa
000096EA  6C                insb
000096EB  5F                pop edi
000096EC  6974657261746F72  imul esi,[ebp+0x72],dword 0x726f7461
000096F4  49                dec ecx
000096F5  50                push eax
000096F6  53                push ebx
000096F7  7434              jz 0x972d
000096F9  7061              jo 0x975c
000096FB  6972496953325F    imul esi,[edx+0x49],dword 0x5f325369
00009702  49                dec ecx
00009703  69694545537436    imul ebp,[ecx+0x45],dword 0x36745345
0000970A  7665              jna 0x9771
0000970C  63746F72          arpl [edi+ebp*2+0x72],si
00009710  49                dec ecx
00009711  53                push ebx
00009712  345F              xor al,0x5f
00009714  53                push ebx
00009715  61                popa
00009716  49                dec ecx
00009717  53                push ebx
00009718  345F              xor al,0x5f
0000971A  45                inc ebp
0000971B  45                inc ebp
0000971C  45                inc ebp
0000971D  45                inc ebp
0000971E  53                push ebx
0000971F  7437              jz 0x9758
00009721  677265            a16 jc 0x9789
00009724  61                popa
00009725  7465              jz 0x978c
00009727  7249              jc 0x9772
00009729  53                push ebx
0000972A  345F              xor al,0x5f
0000972C  45                inc ebp
0000972D  45                inc ebp
0000972E  7654              jna 0x9784
00009730  5F                pop edi
00009731  53                push ebx
00009732  43                inc ebx
00009733  5F                pop edi
00009734  54                push esp
00009735  305F00            xor [edi+0x0],bl
00009738  5F                pop edi
00009739  5A                pop edx
0000973A  4E                dec esi
0000973B  395F5F            cmp [edi+0x5f],ebx
0000973E  676E              a16 outsb
00009740  755F              jnz 0x97a1
00009742  637878            arpl [eax+0x78],di
00009745  3137              xor [edi],esi
00009747  5F                pop edi
00009748  5F                pop edi
00009749  6E                outsb
0000974A  6F                outsd
0000974B  726D              jc 0x97ba
0000974D  61                popa
0000974E  6C                insb
0000974F  5F                pop edi
00009750  6974657261746F72  imul esi,[ebp+0x72],dword 0x726f7461
00009758  49                dec ecx
00009759  50                push eax
0000975A  4B                dec ebx
0000975B  53                push ebx
0000975C  7434              jz 0x9792
0000975E  7061              jo 0x97c1
00009760  6972496953315F    imul esi,[edx+0x49],dword 0x5f315369
00009767  49                dec ecx
00009768  69694545537436    imul ebp,[ecx+0x45],dword 0x36745345
0000976F  7665              jna 0x97d6
00009771  63746F72          arpl [edi+ebp*2+0x72],si
00009775  49                dec ecx
00009776  53                push ebx
00009777  335F53            xor ebx,[edi+0x53]
0000977A  61                popa
0000977B  49                dec ecx
0000977C  53                push ebx
0000977D  335F45            xor ebx,[edi+0x45]
00009780  45                inc ebp
00009781  45                inc ebp
00009782  43                inc ebx
00009783  324552            xor al,[ebp+0x52]
00009786  4B                dec ebx
00009787  53                push ebx
00009788  355F005F5A        xor eax,0x5a5f005f
0000978D  4E                dec esi
0000978E  53                push ebx
0000978F  7431              jz 0x97c2
00009791  325F56            xor bl,[edi+0x56]
00009794  6563746F72        arpl [gs:edi+ebp*2+0x72],si
00009799  5F                pop edi
0000979A  626173            bound esp,[ecx+0x73]
0000979D  6549              gs dec ecx
0000979F  69536149694545    imul edx,[ebx+0x61],dword 0x45456949
000097A6  3132              xor [edx],esi
000097A8  5F                pop edi
000097A9  56                push esi
000097AA  6563746F72        arpl [gs:edi+ebp*2+0x72],si
000097AF  5F                pop edi
000097B0  696D706C443245    imul ebp,[ebp+0x70],dword 0x4532446c
000097B7  7600              jna 0x97b9
000097B9  5F                pop edi
000097BA  49                dec ecx
000097BB  54                push esp
000097BC  4D                dec ebp
000097BD  5F                pop edi
000097BE  64657265          gs jc 0x9827
000097C2  676973746572544D  imul esi,[bp+di+0x74],dword 0x4d547265
000097CA  43                inc ebx
000097CB  6C                insb
000097CC  6F                outsd
000097CD  6E                outsb
000097CE  6554              gs push esp
000097D0  61                popa
000097D1  626C6500          bound ebp,[ebp+0x0]
000097D5  5F                pop edi
000097D6  5A                pop edx
000097D7  53                push ebx
000097D8  746C              jz 0x9846
000097DA  7349              jnc 0x9825
000097DC  53                push ebx
000097DD  7431              jz 0x9810
000097DF  316368            xor [ebx+0x68],esp
000097E2  61                popa
000097E3  725F              jc 0x9844
000097E5  7472              jz 0x9859
000097E7  61                popa
000097E8  6974734963454552  imul esi,[ebx+esi*2+0x49],dword 0x52454563
000097F0  53                push ebx
000097F1  7431              jz 0x9824
000097F3  336261            xor esp,[edx+0x61]
000097F6  7369              jnc 0x9861
000097F8  635F6F            arpl [edi+0x6f],bx
000097FB  7374              jnc 0x9871
000097FD  7265              jc 0x9864
000097FF  61                popa
00009800  6D                insd
00009801  49                dec ecx
00009802  63545F45          arpl [edi+ebx*2+0x45],dx
00009806  53                push ebx
00009807  355F504B63        xor eax,0x634b505f
0000980C  40                inc eax
0000980D  40                inc eax
0000980E  47                inc edi
0000980F  4C                dec esp
00009810  49                dec ecx
00009811  42                inc edx
00009812  43                inc ebx
00009813  58                pop eax
00009814  58                pop eax
00009815  5F                pop edi
00009816  332E              xor ebp,[esi]
00009818  3400              xor al,0x0
0000981A  5F                pop edi
0000981B  5A                pop edx
0000981C  4E                dec esi
0000981D  53                push ebx
0000981E  7436              jz 0x9856
00009820  7665              jna 0x9887
00009822  63746F72          arpl [edi+ebp*2+0x72],si
00009826  49                dec ecx
00009827  69536149694545    imul edx,[ebx+0x61],dword 0x45456949
0000982E  43                inc ebx
0000982F  31456A            xor [ebp+0x6a],eax
00009832  52                push edx
00009833  4B                dec ebx
00009834  69524B53305F00    imul edx,[edx+0x4b],dword 0x5f3053
0000983B  5F                pop edi
0000983C  49                dec ecx
0000983D  4F                dec edi
0000983E  5F                pop edi
0000983F  7374              jnc 0x98b5
00009841  64696E5F75736564  imul ebp,[fs:esi+0x5f],dword 0x64657375
00009849  005F5A            add [edi+0x5a],bl
0000984C  4E                dec esi
0000984D  53                push ebx
0000984E  7431              jz 0x9881
00009850  325F56            xor bl,[edi+0x56]
00009853  6563746F72        arpl [gs:edi+ebp*2+0x72],si
00009858  5F                pop edi
00009859  626173            bound esp,[ecx+0x73]
0000985C  6549              gs dec ecx
0000985E  53                push ebx
0000985F  7434              jz 0x9895
00009861  7061              jo 0x98c4
00009863  6972496953305F    imul esi,[edx+0x49],dword 0x5f305369
0000986A  49                dec ecx
0000986B  69694545536149    imul ebp,[ecx+0x45],dword 0x49615345
00009872  53                push ebx
00009873  325F45            xor bl,[edi+0x45]
00009876  45                inc ebp
00009877  43                inc ebx
00009878  324576            xor al,[ebp+0x76]
0000987B  005F5A            add [edi+0x5a],bl
0000987E  4E                dec esi
0000987F  53                push ebx
00009880  7431              jz 0x98b3
00009882  325F56            xor bl,[edi+0x56]
00009885  6563746F72        arpl [gs:edi+ebp*2+0x72],si
0000988A  5F                pop edi
0000988B  626173            bound esp,[ecx+0x73]
0000988E  6549              gs dec ecx
00009890  69536149694545    imul edx,[ebx+0x61],dword 0x45456949
00009897  3139              xor [ecx],edi
00009899  5F                pop edi
0000989A  4D                dec ebp
0000989B  5F                pop edi
0000989C  6765745F          gs a16 jz 0x98ff
000098A0  54                push esp
000098A1  705F              jo 0x9902
000098A3  61                popa
000098A4  6C                insb
000098A5  6C                insb
000098A6  6F                outsd
000098A7  636174            arpl [ecx+0x74],sp
000098AA  6F                outsd
000098AB  7245              jc 0x98f2
000098AD  7600              jna 0x98af
000098AF  5F                pop edi
000098B0  5A                pop edx
000098B1  6E                outsb
000098B2  776A              ja 0x991e
000098B4  50                push eax
000098B5  7600              jna 0x98b7
000098B7  5F                pop edi
000098B8  5A                pop edx
000098B9  4E                dec esi
000098BA  4B                dec ebx
000098BB  395F5F            cmp [edi+0x5f],ebx
000098BE  676E              a16 outsb
000098C0  755F              jnz 0x9921
000098C2  637878            arpl [eax+0x78],di
000098C5  3133              xor [ebx],esi
000098C7  6E                outsb
000098C8  65775F            gs ja 0x992a
000098CB  61                popa
000098CC  6C                insb
000098CD  6C                insb
000098CE  6F                outsd
000098CF  636174            arpl [ecx+0x74],sp
000098D2  6F                outsd
000098D3  7249              jc 0x991e
000098D5  53                push ebx
000098D6  7434              jz 0x990c
000098D8  7061              jo 0x993b
000098DA  6972496953315F    imul esi,[edx+0x49],dword 0x5f315369
000098E1  49                dec ecx
000098E2  6969454545386D    imul ebp,[ecx+0x45],dword 0x6d384545
000098E9  61                popa
000098EA  785F              js 0x994b
000098EC  7369              jnc 0x9957
000098EE  7A65              jpe 0x9955
000098F0  45                inc ebp
000098F1  7600              jna 0x98f3
000098F3  5F                pop edi
000098F4  5A                pop edx
000098F5  4E                dec esi
000098F6  53                push ebx
000098F7  7434              jz 0x992d
000098F9  7061              jo 0x995c
000098FB  69724969535F49    imul esi,[edx+0x49],dword 0x495f5369
00009902  69694545433145    imul ebp,[ecx+0x45],dword 0x45314345
00009909  52                push edx
0000990A  4B                dec ebx
0000990B  69524B53305F00    imul edx,[edx+0x4b],dword 0x5f3053
00009912  5F                pop edi
00009913  5A                pop edx
00009914  4E                dec esi
00009915  395F5F            cmp [edi+0x5f],ebx
00009918  676E              a16 outsb
0000991A  755F              jnz 0x997b
0000991C  637878            arpl [eax+0x78],di
0000991F  3137              xor [edi],esi
00009921  5F                pop edi
00009922  5F                pop edi
00009923  6E                outsb
00009924  6F                outsd
00009925  726D              jc 0x9994
00009927  61                popa
00009928  6C                insb
00009929  5F                pop edi
0000992A  6974657261746F72  imul esi,[ebp+0x72],dword 0x726f7461
00009932  49                dec ecx
00009933  50                push eax
00009934  4B                dec ebx
00009935  69537436766563    imul edx,[ebx+0x74],dword 0x63657636
0000993C  746F              jz 0x99ad
0000993E  7249              jc 0x9989
00009940  69536149694545    imul edx,[ebx+0x61],dword 0x45456949
00009947  45                inc ebp
00009948  43                inc ebx
00009949  324552            xor al,[ebp+0x52]
0000994C  4B                dec ebx
0000994D  53                push ebx
0000994E  325F00            xor bl,[edi+0x0]
00009951  5F                pop edi
00009952  5A                pop edx
00009953  53                push ebx
00009954  7432              jz 0x9988
00009956  345F              xor al,0x5f
00009958  5F                pop edi
00009959  756E              jnz 0x99c9
0000995B  696E697469616C    imul ebp,[esi+0x69],dword 0x6c616974
00009962  697A65645F6669    imul edi,[edx+0x65],dword 0x69665f64
00009969  6C                insb
0000996A  6C                insb
0000996B  5F                pop edi
0000996C  6E                outsb
0000996D  5F                pop edi
0000996E  61                popa
0000996F  49                dec ecx
00009970  50                push eax
00009971  53                push ebx
00009972  7436              jz 0x99aa
00009974  7665              jna 0x99db
00009976  63746F72          arpl [edi+ebp*2+0x72],si
0000997A  49                dec ecx
0000997B  69536149694545    imul edx,[ebx+0x61],dword 0x45456949
00009982  6A53              push byte +0x53
00009984  325F53            xor bl,[edi+0x53]
00009987  325F45            xor bl,[edi+0x45]
0000998A  7654              jna 0x99e0
0000998C  5F                pop edi
0000998D  54                push esp
0000998E  305F52            xor [edi+0x52],bl
00009991  4B                dec ebx
00009992  54                push esp
00009993  315F52            xor [edi+0x52],ebx
00009996  53                push ebx
00009997  61                popa
00009998  49                dec ecx
00009999  54                push esp
0000999A  325F45            xor bl,[edi+0x45]
0000999D  005F5A            add [edi+0x5a],bl
000099A0  53                push ebx
000099A1  7432              jz 0x99d5
000099A3  30756E            xor [ebp+0x6e],dh
000099A6  696E697469616C    imul ebp,[esi+0x69],dword 0x6c616974
000099AD  697A65645F6669    imul edi,[edx+0x65],dword 0x69665f64
000099B4  6C                insb
000099B5  6C                insb
000099B6  5F                pop edi
000099B7  6E                outsb
000099B8  49                dec ecx
000099B9  50                push eax
000099BA  696A694576545F    imul ebp,[edx+0x69],dword 0x5f547645
000099C1  54                push esp
000099C2  305F52            xor [edi+0x52],bl
000099C5  4B                dec ebx
000099C6  54                push esp
000099C7  315F00            xor [edi+0x0],ebx
000099CA  5F                pop edi
000099CB  5A                pop edx
000099CC  4E                dec esi
000099CD  53                push ebx
000099CE  7436              jz 0x9a06
000099D0  7665              jna 0x9a37
000099D2  63746F72          arpl [edi+ebp*2+0x72],si
000099D6  49                dec ecx
000099D7  53                push ebx
000099D8  5F                pop edi
000099D9  49                dec ecx
000099DA  69536149694545    imul edx,[ebx+0x61],dword 0x45456949
000099E1  53                push ebx
000099E2  61                popa
000099E3  49                dec ecx
000099E4  53                push ebx
000099E5  315F45            xor [edi+0x45],ebx
000099E8  45                inc ebp
000099E9  44                inc esp
000099EA  314576            xor [ebp+0x76],eax
000099ED  005F5A            add [edi+0x5a],bl
000099F0  53                push ebx
000099F1  7438              jz 0x9a2b
000099F3  5F                pop edi
000099F4  44                inc esp
000099F5  657374            gs jnc 0x9a6c
000099F8  726F              jc 0x9a69
000099FA  7949              jns 0x9a45
000099FC  50                push eax
000099FD  53                push ebx
000099FE  7436              jz 0x9a36
00009A00  7665              jna 0x9a67
00009A02  63746F72          arpl [edi+ebp*2+0x72],si
00009A06  49                dec ecx
00009A07  69536149694545    imul edx,[ebx+0x61],dword 0x45456949
00009A0E  53                push ebx
00009A0F  325F45            xor bl,[edi+0x45]
00009A12  7654              jna 0x9a68
00009A14  5F                pop edi
00009A15  53                push ebx
00009A16  345F              xor al,0x5f
00009A18  52                push edx
00009A19  53                push ebx
00009A1A  61                popa
00009A1B  49                dec ecx
00009A1C  54                push esp
00009A1D  305F45            xor [edi+0x45],bl
00009A20  005F5A            add [edi+0x5a],bl
00009A23  4E                dec esi
00009A24  53                push ebx
00009A25  7431              jz 0x9a58
00009A27  325F56            xor bl,[edi+0x56]
00009A2A  6563746F72        arpl [gs:edi+ebp*2+0x72],si
00009A2F  5F                pop edi
00009A30  626173            bound esp,[ecx+0x73]
00009A33  6549              gs dec ecx
00009A35  53                push ebx
00009A36  7436              jz 0x9a6e
00009A38  7665              jna 0x9a9f
00009A3A  63746F72          arpl [edi+ebp*2+0x72],si
00009A3E  49                dec ecx
00009A3F  69536149694545    imul edx,[ebx+0x61],dword 0x45456949
00009A46  53                push ebx
00009A47  61                popa
00009A48  49                dec ecx
00009A49  53                push ebx
00009A4A  325F45            xor bl,[edi+0x45]
00009A4D  45                inc ebp
00009A4E  44                inc esp
00009A4F  324576            xor al,[ebp+0x76]
00009A52  005F5A            add [edi+0x5a],bl
00009A55  53                push ebx
00009A56  7432              jz 0x9a8a
00009A58  325F5F            xor bl,[edi+0x5f]
00009A5B  636F70            arpl [edi+0x70],bp
00009A5E  795F              jns 0x9abf
00009A60  6D                insd
00009A61  6F                outsd
00009A62  7665              jna 0x9ac9
00009A64  5F                pop edi
00009A65  626163            bound esp,[ecx+0x63]
00009A68  6B776172          imul esi,[edi+0x61],byte +0x72
00009A6C  645F              fs pop edi
00009A6E  61                popa
00009A6F  49                dec ecx
00009A70  4C                dec esp
00009A71  6230              bound esi,[eax]
00009A73  45                inc ebp
00009A74  50                push eax
00009A75  53                push ebx
00009A76  7434              jz 0x9aac
00009A78  7061              jo 0x9adb
00009A7A  6972496953305F    imul esi,[edx+0x49],dword 0x5f305369
00009A81  49                dec ecx
00009A82  6969454553335F    imul ebp,[ecx+0x45],dword 0x5f335345
00009A89  45                inc ebp
00009A8A  54                push esp
00009A8B  315F54            xor [edi+0x54],ebx
00009A8E  305F53            xor [edi+0x53],bl
00009A91  355F53345F        xor eax,0x5f34535f
00009A96  005F5A            add [edi+0x5a],bl
00009A99  4E                dec esi
00009A9A  395F5F            cmp [edi+0x5f],ebx
00009A9D  676E              a16 outsb
00009A9F  755F              jnz 0x9b00
00009AA1  637878            arpl [eax+0x78],di
00009AA4  3137              xor [edi],esi
00009AA6  5F                pop edi
00009AA7  5F                pop edi
00009AA8  6E                outsb
00009AA9  6F                outsd
00009AAA  726D              jc 0x9b19
00009AAC  61                popa
00009AAD  6C                insb
00009AAE  5F                pop edi
00009AAF  6974657261746F72  imul esi,[ebp+0x72],dword 0x726f7461
00009AB7  49                dec ecx
00009AB8  50                push eax
00009AB9  53                push ebx
00009ABA  7434              jz 0x9af0
00009ABC  7061              jo 0x9b1f
00009ABE  6972496953315F    imul esi,[edx+0x49],dword 0x5f315369
00009AC5  49                dec ecx
00009AC6  69694545537436    imul ebp,[ecx+0x45],dword 0x36745345
00009ACD  7665              jna 0x9b34
00009ACF  63746F72          arpl [edi+ebp*2+0x72],si
00009AD3  49                dec ecx
00009AD4  53                push ebx
00009AD5  335F53            xor ebx,[edi+0x53]
00009AD8  61                popa
00009AD9  49                dec ecx
00009ADA  53                push ebx
00009ADB  335F45            xor ebx,[edi+0x45]
00009ADE  45                inc ebp
00009ADF  45                inc ebp
00009AE0  43                inc ebx
00009AE1  324552            xor al,[ebp+0x52]
00009AE4  4B                dec ebx
00009AE5  53                push ebx
00009AE6  345F              xor al,0x5f
00009AE8  005F5A            add [edi+0x5a],bl
00009AEB  4E                dec esi
00009AEC  4B                dec ebx
00009AED  53                push ebx
00009AEE  7436              jz 0x9b26
00009AF0  7665              jna 0x9b57
00009AF2  63746F72          arpl [edi+ebp*2+0x72],si
00009AF6  49                dec ecx
00009AF7  53                push ebx
00009AF8  5F                pop edi
00009AF9  49                dec ecx
00009AFA  69536149694545    imul edx,[ebx+0x61],dword 0x45456949
00009B01  53                push ebx
00009B02  61                popa
00009B03  49                dec ecx
00009B04  53                push ebx
00009B05  315F45            xor [edi+0x45],ebx
00009B08  45                inc ebp
00009B09  3473              xor al,0x73
00009B0B  697A654576005F    imul edi,[edx+0x65],dword 0x5f007645
00009B12  49                dec ecx
00009B13  54                push esp
00009B14  4D                dec ebp
00009B15  5F                pop edi
00009B16  7265              jc 0x9b7d
00009B18  676973746572544D  imul esi,[bp+di+0x74],dword 0x4d547265
00009B20  43                inc ebx
00009B21  6C                insb
00009B22  6F                outsd
00009B23  6E                outsb
00009B24  6554              gs push esp
00009B26  61                popa
00009B27  626C6500          bound ebp,[ebp+0x0]
00009B2B  5F                pop edi
00009B2C  5F                pop edi
00009B2D  6461              fs popa
00009B2F  7461              jz 0x9b92
00009B31  5F                pop edi
00009B32  7374              jnc 0x9ba8
00009B34  61                popa
00009B35  7274              jc 0x9bab
00009B37  005F5A            add [edi+0x5a],bl
00009B3A  53                push ebx
00009B3B  7439              jz 0x9b76
00009B3D  7075              jo 0x9bb4
00009B3F  7368              jnc 0x9ba9
00009B41  5F                pop edi
00009B42  6865617049        push dword 0x49706165
00009B47  4E                dec esi
00009B48  395F5F            cmp [edi+0x5f],ebx
00009B4B  676E              a16 outsb
00009B4D  755F              jnz 0x9bae
00009B4F  637878            arpl [eax+0x78],di
00009B52  3137              xor [edi],esi
00009B54  5F                pop edi
00009B55  5F                pop edi
00009B56  6E                outsb
00009B57  6F                outsd
00009B58  726D              jc 0x9bc7
00009B5A  61                popa
00009B5B  6C                insb
00009B5C  5F                pop edi
00009B5D  6974657261746F72  imul esi,[ebp+0x72],dword 0x726f7461
00009B65  49                dec ecx
00009B66  50                push eax
00009B67  53                push ebx
00009B68  7434              jz 0x9b9e
00009B6A  7061              jo 0x9bcd
00009B6C  6972496953325F    imul esi,[edx+0x49],dword 0x5f325369
00009B73  49                dec ecx
00009B74  69694545537436    imul ebp,[ecx+0x45],dword 0x36745345
00009B7B  7665              jna 0x9be2
00009B7D  63746F72          arpl [edi+ebp*2+0x72],si
00009B81  49                dec ecx
00009B82  53                push ebx
00009B83  345F              xor al,0x5f
00009B85  53                push ebx
00009B86  61                popa
00009B87  49                dec ecx
00009B88  53                push ebx
00009B89  345F              xor al,0x5f
00009B8B  45                inc ebp
00009B8C  45                inc ebp
00009B8D  45                inc ebp
00009B8E  45                inc ebp
00009B8F  53                push ebx
00009B90  7437              jz 0x9bc9
00009B92  677265            a16 jc 0x9bfa
00009B95  61                popa
00009B96  7465              jz 0x9bfd
00009B98  7249              jc 0x9be3
00009B9A  53                push ebx
00009B9B  345F              xor al,0x5f
00009B9D  45                inc ebp
00009B9E  45                inc ebp
00009B9F  7654              jna 0x9bf5
00009BA1  5F                pop edi
00009BA2  53                push ebx
00009BA3  43                inc ebx
00009BA4  5F                pop edi
00009BA5  54                push esp
00009BA6  305F00            xor [edi+0x0],bl
00009BA9  5F                pop edi
00009BAA  5A                pop edx
00009BAB  4E                dec esi
00009BAC  4B                dec ebx
00009BAD  53                push ebx
00009BAE  7431              jz 0x9be1
00009BB0  3470              xor al,0x70
00009BB2  7269              jc 0x9c1d
00009BB4  6F                outsd
00009BB5  7269              jc 0x9c20
00009BB7  7479              jz 0x9c32
00009BB9  5F                pop edi
00009BBA  7175              jno 0x9c31
00009BBC  657565            gs jnz 0x9c24
00009BBF  49                dec ecx
00009BC0  53                push ebx
00009BC1  7434              jz 0x9bf7
00009BC3  7061              jo 0x9c26
00009BC5  6972496953305F    imul esi,[edx+0x49],dword 0x5f305369
00009BCC  49                dec ecx
00009BCD  69694545537436    imul ebp,[ecx+0x45],dword 0x36745345
00009BD4  7665              jna 0x9c3b
00009BD6  63746F72          arpl [edi+ebp*2+0x72],si
00009BDA  49                dec ecx
00009BDB  53                push ebx
00009BDC  325F53            xor bl,[edi+0x53]
00009BDF  61                popa
00009BE0  49                dec ecx
00009BE1  53                push ebx
00009BE2  325F45            xor bl,[edi+0x45]
00009BE5  45                inc ebp
00009BE6  53                push ebx
00009BE7  7437              jz 0x9c20
00009BE9  677265            a16 jc 0x9c51
00009BEC  61                popa
00009BED  7465              jz 0x9c54
00009BEF  7249              jc 0x9c3a
00009BF1  53                push ebx
00009BF2  325F45            xor bl,[edi+0x45]
00009BF5  45                inc ebp
00009BF6  35656D7074        xor eax,0x74706d65
00009BFB  7945              jns 0x9c42
00009BFD  7600              jna 0x9bff
00009BFF  5F                pop edi
00009C00  5A                pop edx
00009C01  53                push ebx
00009C02  7431              jz 0x9c35
00009C04  345F              xor al,0x5f
00009C06  5F                pop edi
00009C07  636F70            arpl [edi+0x70],bp
00009C0A  795F              jns 0x9c6b
00009C0C  6D                insd
00009C0D  6F                outsd
00009C0E  7665              jna 0x9c75
00009C10  5F                pop edi
00009C11  61                popa
00009C12  32494C            xor cl,[ecx+0x4c]
00009C15  6230              bound esi,[eax]
00009C17  45                inc ebp
00009C18  4E                dec esi
00009C19  395F5F            cmp [edi+0x5f],ebx
00009C1C  676E              a16 outsb
00009C1E  755F              jnz 0x9c7f
00009C20  637878            arpl [eax+0x78],di
00009C23  3137              xor [edi],esi
00009C25  5F                pop edi
00009C26  5F                pop edi
00009C27  6E                outsb
00009C28  6F                outsd
00009C29  726D              jc 0x9c98
00009C2B  61                popa
00009C2C  6C                insb
00009C2D  5F                pop edi
00009C2E  6974657261746F72  imul esi,[ebp+0x72],dword 0x726f7461
00009C36  49                dec ecx
00009C37  50                push eax
00009C38  4B                dec ebx
00009C39  69537436766563    imul edx,[ebx+0x74],dword 0x63657636
00009C40  746F              jz 0x9cb1
00009C42  7249              jc 0x9c8d
00009C44  69536149694545    imul edx,[ebx+0x61],dword 0x45456949
00009C4B  45                inc ebp
00009C4C  45                inc ebp
00009C4D  50                push eax
00009C4E  694554315F5430    imul eax,[ebp+0x54],dword 0x30545f31
00009C55  5F                pop edi
00009C56  53                push ebx
00009C57  41                inc ecx
00009C58  5F                pop edi
00009C59  53                push ebx
00009C5A  395F00            cmp [edi+0x0],ebx
00009C5D  5F                pop edi
00009C5E  5A                pop edx
00009C5F  4E                dec esi
00009C60  395F5F            cmp [edi+0x5f],ebx
00009C63  676E              a16 outsb
00009C65  755F              jnz 0x9cc6
00009C67  637878            arpl [eax+0x78],di
00009C6A  3133              xor [ebx],esi
00009C6C  6E                outsb
00009C6D  65775F            gs ja 0x9ccf
00009C70  61                popa
00009C71  6C                insb
00009C72  6C                insb
00009C73  6F                outsd
00009C74  636174            arpl [ecx+0x74],sp
00009C77  6F                outsd
00009C78  7249              jc 0x9cc3
00009C7A  53                push ebx
00009C7B  7436              jz 0x9cb3
00009C7D  7665              jna 0x9ce4
00009C7F  63746F72          arpl [edi+ebp*2+0x72],si
00009C83  49                dec ecx
00009C84  69536149694545    imul edx,[ebx+0x61],dword 0x45456949
00009C8B  45                inc ebp
00009C8C  3130              xor [eax],esi
00009C8E  646561            gs popa
00009C91  6C                insb
00009C92  6C                insb
00009C93  6F                outsd
00009C94  636174            arpl [ecx+0x74],sp
00009C97  6545              gs inc ebp
00009C99  50                push eax
00009C9A  53                push ebx
00009C9B  335F6A            xor ebx,[edi+0x6a]
00009C9E  005F5A            add [edi+0x5a],bl
00009CA1  4E                dec esi
00009CA2  53                push ebx
00009CA3  7431              jz 0x9cd6
00009CA5  325F56            xor bl,[edi+0x56]
00009CA8  6563746F72        arpl [gs:edi+ebp*2+0x72],si
00009CAD  5F                pop edi
00009CAE  626173            bound esp,[ecx+0x73]
00009CB1  6549              gs dec ecx
00009CB3  53                push ebx
00009CB4  7436              jz 0x9cec
00009CB6  7665              jna 0x9d1d
00009CB8  63746F72          arpl [edi+ebp*2+0x72],si
00009CBC  49                dec ecx
00009CBD  69536149694545    imul edx,[ebx+0x61],dword 0x45456949
00009CC4  53                push ebx
00009CC5  61                popa
00009CC6  49                dec ecx
00009CC7  53                push ebx
00009CC8  325F45            xor bl,[edi+0x45]
00009CCB  45                inc ebp
00009CCC  3132              xor [edx],esi
00009CCE  5F                pop edi
00009CCF  56                push esi
00009CD0  6563746F72        arpl [gs:edi+ebp*2+0x72],si
00009CD5  5F                pop edi
00009CD6  696D706C443245    imul ebp,[ebp+0x70],dword 0x4532446c
00009CDD  7600              jna 0x9cdf
00009CDF  5F                pop edi
00009CE0  5A                pop edx
00009CE1  4E                dec esi
00009CE2  395F5F            cmp [edi+0x5f],ebx
00009CE5  676E              a16 outsb
00009CE7  755F              jnz 0x9d48
00009CE9  637878            arpl [eax+0x78],di
00009CEC  6E                outsb
00009CED  6549              gs dec ecx
00009CEF  50                push eax
00009CF0  4B                dec ebx
00009CF1  53                push ebx
00009CF2  7434              jz 0x9d28
00009CF4  7061              jo 0x9d57
00009CF6  6972496953315F    imul esi,[edx+0x49],dword 0x5f315369
00009CFD  49                dec ecx
00009CFE  69694545537436    imul ebp,[ecx+0x45],dword 0x36745345
00009D05  7665              jna 0x9d6c
00009D07  63746F72          arpl [edi+ebp*2+0x72],si
00009D0B  49                dec ecx
00009D0C  53                push ebx
00009D0D  335F53            xor ebx,[edi+0x53]
00009D10  61                popa
00009D11  49                dec ecx
00009D12  53                push ebx
00009D13  335F45            xor ebx,[edi+0x45]
00009D16  45                inc ebp
00009D17  45                inc ebp
00009D18  45                inc ebp
00009D19  62524B            bound edx,[edx+0x4b]
00009D1C  4E                dec esi
00009D1D  53                push ebx
00009D1E  5F                pop edi
00009D1F  3137              xor [edi],esi
00009D21  5F                pop edi
00009D22  5F                pop edi
00009D23  6E                outsb
00009D24  6F                outsd
00009D25  726D              jc 0x9d94
00009D27  61                popa
00009D28  6C                insb
00009D29  5F                pop edi
00009D2A  6974657261746F72  imul esi,[ebp+0x72],dword 0x726f7461
00009D32  49                dec ecx
00009D33  54                push esp
00009D34  5F                pop edi
00009D35  54                push esp
00009D36  305F45            xor [edi+0x45],bl
00009D39  45                inc ebp
00009D3A  53                push ebx
00009D3B  45                inc ebp
00009D3C  5F                pop edi
00009D3D  005F5A            add [edi+0x5a],bl
00009D40  4E                dec esi
00009D41  4B                dec ebx
00009D42  53                push ebx
00009D43  7436              jz 0x9d7b
00009D45  7665              jna 0x9dac
00009D47  63746F72          arpl [edi+ebp*2+0x72],si
00009D4B  49                dec ecx
00009D4C  53                push ebx
00009D4D  7434              jz 0x9d83
00009D4F  7061              jo 0x9db2
00009D51  6972496953305F    imul esi,[edx+0x49],dword 0x5f305369
00009D58  49                dec ecx
00009D59  69694545536149    imul ebp,[ecx+0x45],dword 0x49615345
00009D60  53                push ebx
00009D61  325F45            xor bl,[edi+0x45]
00009D64  45                inc ebp
00009D65  3566726F6E        xor eax,0x6e6f7266
00009D6A  7445              jz 0x9db1
00009D6C  7600              jna 0x9d6e
00009D6E  5F                pop edi
00009D6F  5A                pop edx
00009D70  4E                dec esi
00009D71  53                push ebx
00009D72  61                popa
00009D73  49                dec ecx
00009D74  53                push ebx
00009D75  7434              jz 0x9dab
00009D77  7061              jo 0x9dda
00009D79  69724969535F49    imul esi,[edx+0x49],dword 0x495f5369
00009D80  69694545454332    imul ebp,[ecx+0x45],dword 0x32434545
00009D87  45                inc ebp
00009D88  52                push edx
00009D89  4B                dec ebx
00009D8A  53                push ebx
00009D8B  325F00            xor bl,[edi+0x0]
00009D8E  5F                pop edi
00009D8F  5A                pop edx
00009D90  4E                dec esi
00009D91  53                push ebx
00009D92  7431              jz 0x9dc5
00009D94  325F56            xor bl,[edi+0x56]
00009D97  6563746F72        arpl [gs:edi+ebp*2+0x72],si
00009D9C  5F                pop edi
00009D9D  626173            bound esp,[ecx+0x73]
00009DA0  6549              gs dec ecx
00009DA2  69536149694545    imul edx,[ebx+0x61],dword 0x45456949
00009DA9  3137              xor [edi],esi
00009DAB  5F                pop edi
00009DAC  4D                dec ebp
00009DAD  5F                pop edi
00009DAE  637265            arpl [edx+0x65],si
00009DB1  61                popa
00009DB2  7465              jz 0x9e19
00009DB4  5F                pop edi
00009DB5  7374              jnc 0x9e2b
00009DB7  6F                outsd
00009DB8  7261              jc 0x9e1b
00009DBA  676545            gs a16 inc ebp
00009DBD  6A00              push byte +0x0
00009DBF  5F                pop edi
00009DC0  5A                pop edx
00009DC1  53                push ebx
00009DC2  7431              jz 0x9df5
00009DC4  315F5F            xor [edi+0x5f],ebx
00009DC7  7075              jo 0x9e3e
00009DC9  7368              jnc 0x9e33
00009DCB  5F                pop edi
00009DCC  6865617049        push dword 0x49706165
00009DD1  4E                dec esi
00009DD2  395F5F            cmp [edi+0x5f],ebx
00009DD5  676E              a16 outsb
00009DD7  755F              jnz 0x9e38
00009DD9  637878            arpl [eax+0x78],di
00009DDC  3137              xor [edi],esi
00009DDE  5F                pop edi
00009DDF  5F                pop edi
00009DE0  6E                outsb
00009DE1  6F                outsd
00009DE2  726D              jc 0x9e51
00009DE4  61                popa
00009DE5  6C                insb
00009DE6  5F                pop edi
00009DE7  6974657261746F72  imul esi,[ebp+0x72],dword 0x726f7461
00009DEF  49                dec ecx
00009DF0  50                push eax
00009DF1  53                push ebx
00009DF2  7434              jz 0x9e28
00009DF4  7061              jo 0x9e57
00009DF6  6972496953325F    imul esi,[edx+0x49],dword 0x5f325369
00009DFD  49                dec ecx
00009DFE  69694545537436    imul ebp,[ecx+0x45],dword 0x36745345
00009E05  7665              jna 0x9e6c
00009E07  63746F72          arpl [edi+ebp*2+0x72],si
00009E0B  49                dec ecx
00009E0C  53                push ebx
00009E0D  345F              xor al,0x5f
00009E0F  53                push ebx
00009E10  61                popa
00009E11  49                dec ecx
00009E12  53                push ebx
00009E13  345F              xor al,0x5f
00009E15  45                inc ebp
00009E16  45                inc ebp
00009E17  45                inc ebp
00009E18  45                inc ebp
00009E19  6953345F537437    imul edx,[ebx+0x34],dword 0x3774535f
00009E20  677265            a16 jc 0x9e88
00009E23  61                popa
00009E24  7465              jz 0x9e8b
00009E26  7249              jc 0x9e71
00009E28  53                push ebx
00009E29  345F              xor al,0x5f
00009E2B  45                inc ebp
00009E2C  45                inc ebp
00009E2D  7654              jna 0x9e83
00009E2F  5F                pop edi
00009E30  54                push esp
00009E31  305F53            xor [edi+0x53],bl
00009E34  44                inc esp
00009E35  5F                pop edi
00009E36  54                push esp
00009E37  315F54            xor [edi+0x54],ebx
00009E3A  325F00            xor bl,[edi+0x0]
00009E3D  5F                pop edi
00009E3E  5A                pop edx
00009E3F  4E                dec esi
00009E40  53                push ebx
00009E41  7431              jz 0x9e74
00009E43  325F56            xor bl,[edi+0x56]
00009E46  6563746F72        arpl [gs:edi+ebp*2+0x72],si
00009E4B  5F                pop edi
00009E4C  626173            bound esp,[ecx+0x73]
00009E4F  6549              gs dec ecx
00009E51  69536149694545    imul edx,[ebx+0x61],dword 0x45456949
00009E58  43                inc ebx
00009E59  31456A            xor [ebp+0x6a],eax
00009E5C  52                push edx
00009E5D  4B                dec ebx
00009E5E  53                push ebx
00009E5F  305F00            xor [edi+0x0],bl
00009E62  5F                pop edi
00009E63  5A                pop edx
00009E64  4E                dec esi
00009E65  53                push ebx
00009E66  7431              jz 0x9e99
00009E68  325F44            xor bl,[edi+0x44]
00009E6B  657374            gs jnc 0x9ee2
00009E6E  726F              jc 0x9edf
00009E70  795F              jns 0x9ed1
00009E72  61                popa
00009E73  7578              jnz 0x9eed
00009E75  49                dec ecx
00009E76  4C                dec esp
00009E77  6231              bound esi,[ecx]
00009E79  45                inc ebp
00009E7A  45                inc ebp
00009E7B  395F5F            cmp [edi+0x5f],ebx
00009E7E  64657374          gs jnc 0x9ef6
00009E82  726F              jc 0x9ef3
00009E84  7949              jns 0x9ecf
00009E86  50                push eax
00009E87  69454576545F53    imul eax,[ebp+0x45],dword 0x535f5476
00009E8E  335F00            xor ebx,[edi+0x0]
00009E91  5F                pop edi
00009E92  5A                pop edx
00009E93  4E                dec esi
00009E94  4B                dec ebx
00009E95  53                push ebx
00009E96  7437              jz 0x9ecf
00009E98  677265            a16 jc 0x9f00
00009E9B  61                popa
00009E9C  7465              jz 0x9f03
00009E9E  7249              jc 0x9ee9
00009EA0  53                push ebx
00009EA1  7434              jz 0x9ed7
00009EA3  7061              jo 0x9f06
00009EA5  6972496953305F    imul esi,[edx+0x49],dword 0x5f305369
00009EAC  49                dec ecx
00009EAD  6969454545636C    imul ebp,[ecx+0x45],dword 0x6c634545
00009EB4  45                inc ebp
00009EB5  52                push edx
00009EB6  4B                dec ebx
00009EB7  53                push ebx
00009EB8  325F53            xor bl,[edi+0x53]
00009EBB  355F005F5A        xor eax,0x5a5f005f
00009EC0  4E                dec esi
00009EC1  53                push ebx
00009EC2  7431              jz 0x9ef5
00009EC4  325F56            xor bl,[edi+0x56]
00009EC7  6563746F72        arpl [gs:edi+ebp*2+0x72],si
00009ECC  5F                pop edi
00009ECD  626173            bound esp,[ecx+0x73]
00009ED0  6549              gs dec ecx
00009ED2  69536149694545    imul edx,[ebx+0x61],dword 0x45456949
00009ED9  3132              xor [edx],esi
00009EDB  5F                pop edi
00009EDC  56                push esi
00009EDD  6563746F72        arpl [gs:edi+ebp*2+0x72],si
00009EE2  5F                pop edi
00009EE3  696D706C433245    imul ebp,[ebp+0x70],dword 0x4532436c
00009EEA  52                push edx
00009EEB  4B                dec ebx
00009EEC  53                push ebx
00009EED  305F00            xor [edi+0x0],bl
00009EF0  5F                pop edi
00009EF1  5A                pop edx
00009EF2  4E                dec esi
00009EF3  395F5F            cmp [edi+0x5f],ebx
00009EF6  676E              a16 outsb
00009EF8  755F              jnz 0x9f59
00009EFA  637878            arpl [eax+0x78],di
00009EFD  31345F            xor [edi+ebx*2],esi
00009F00  5F                pop edi
00009F01  61                popa
00009F02  6C                insb
00009F03  6C                insb
00009F04  6F                outsd
00009F05  635F74            arpl [edi+0x74],bx
00009F08  7261              jc 0x9f6b
00009F0A  6974734953614953  imul esi,[ebx+esi*2+0x49],dword 0x53496153
00009F12  7434              jz 0x9f48
00009F14  7061              jo 0x9f77
00009F16  6972496953315F    imul esi,[edx+0x49],dword 0x5f315369
00009F1D  49                dec ecx
00009F1E  69694545454531    imul ebp,[ecx+0x45],dword 0x31454545
00009F25  37                aaa
00009F26  5F                pop edi
00009F27  53                push ebx
00009F28  5F                pop edi
00009F29  7365              jnc 0x9f90
00009F2B  6C                insb
00009F2C  6563745F6F        arpl [gs:edi+ebx*2+0x6f],si
00009F31  6E                outsb
00009F32  5F                pop edi
00009F33  636F70            arpl [edi+0x70],bp
00009F36  7945              jns 0x9f7d
00009F38  52                push edx
00009F39  4B                dec ebx
00009F3A  53                push ebx
00009F3B  345F              xor al,0x5f
00009F3D  005F5A            add [edi+0x5a],bl
00009F40  4E                dec esi
00009F41  53                push ebx
00009F42  7431              jz 0x9f75
00009F44  3470              xor al,0x70
00009F46  7269              jc 0x9fb1
00009F48  6F                outsd
00009F49  7269              jc 0x9fb4
00009F4B  7479              jz 0x9fc6
00009F4D  5F                pop edi
00009F4E  7175              jno 0x9fc5
00009F50  657565            gs jnz 0x9fb8
00009F53  49                dec ecx
00009F54  53                push ebx
00009F55  7434              jz 0x9f8b
00009F57  7061              jo 0x9fba
00009F59  6972496953305F    imul esi,[edx+0x49],dword 0x5f305369
00009F60  49                dec ecx
00009F61  69694545537436    imul ebp,[ecx+0x45],dword 0x36745345
00009F68  7665              jna 0x9fcf
00009F6A  63746F72          arpl [edi+ebp*2+0x72],si
00009F6E  49                dec ecx
00009F6F  53                push ebx
00009F70  325F53            xor bl,[edi+0x53]
00009F73  61                popa
00009F74  49                dec ecx
00009F75  53                push ebx
00009F76  325F45            xor bl,[edi+0x45]
00009F79  45                inc ebp
00009F7A  53                push ebx
00009F7B  7437              jz 0x9fb4
00009F7D  677265            a16 jc 0x9fe5
00009F80  61                popa
00009F81  7465              jz 0x9fe8
00009F83  7249              jc 0x9fce
00009F85  53                push ebx
00009F86  325F45            xor bl,[edi+0x45]
00009F89  45                inc ebp
00009F8A  43                inc ebx
00009F8B  324552            xor al,[ebp+0x52]
00009F8E  4B                dec ebx
00009F8F  53                push ebx
00009F90  37                aaa
00009F91  5F                pop edi
00009F92  52                push edx
00009F93  4B                dec ebx
00009F94  53                push ebx
00009F95  355F005F5A        xor eax,0x5a5f005f
00009F9A  4E                dec esi
00009F9B  53                push ebx
00009F9C  7436              jz 0x9fd4
00009F9E  7665              jna 0xa005
00009FA0  63746F72          arpl [edi+ebp*2+0x72],si
00009FA4  49                dec ecx
00009FA5  69536149694545    imul edx,[ebx+0x61],dword 0x45456949
00009FAC  3232              xor dh,[edx]
00009FAE  5F                pop edi
00009FAF  4D                dec ebp
00009FB0  5F                pop edi
00009FB1  696E697469616C    imul ebp,[esi+0x69],dword 0x6c616974
00009FB8  697A655F646973    imul edi,[edx+0x65],dword 0x7369645f
00009FBF  7061              jo 0xa022
00009FC1  7463              jz 0xa026
00009FC3  6849694545        push dword 0x45456949
00009FC8  7654              jna 0xa01e
00009FCA  5F                pop edi
00009FCB  53                push ebx
00009FCC  335F53            xor ebx,[edi+0x53]
00009FCF  7431              jz 0xa002
00009FD1  315F5F            xor [edi+0x5f],ebx
00009FD4  7472              jz 0xa048
00009FD6  7565              jnz 0xa03d
00009FD8  5F                pop edi
00009FD9  7479              jz 0xa054
00009FDB  7065              jo 0xa042
00009FDD  005F5A            add [edi+0x5a],bl
00009FE0  53                push ebx
00009FE1  7432              jz 0xa015
00009FE3  325F5F            xor bl,[edi+0x5f]
00009FE6  756E              jnz 0xa056
00009FE8  696E697469616C    imul ebp,[esi+0x69],dword 0x6c616974
00009FEF  697A65645F636F    imul edi,[edx+0x65],dword 0x6f635f64
00009FF6  7079              jo 0xa071
00009FF8  5F                pop edi
00009FF9  61                popa
00009FFA  49                dec ecx
00009FFB  4E                dec esi
00009FFC  395F5F            cmp [edi+0x5f],ebx
00009FFF  676E              a16 outsb
0000A001  755F              jnz 0xa062
0000A003  637878            arpl [eax+0x78],di
0000A006  3137              xor [edi],esi
0000A008  5F                pop edi
0000A009  5F                pop edi
0000A00A  6E                outsb
0000A00B  6F                outsd
0000A00C  726D              jc 0xa07b
0000A00E  61                popa
0000A00F  6C                insb
0000A010  5F                pop edi
0000A011  6974657261746F72  imul esi,[ebp+0x72],dword 0x726f7461
0000A019  49                dec ecx
0000A01A  50                push eax
0000A01B  4B                dec ebx
0000A01C  69537436766563    imul edx,[ebx+0x74],dword 0x63657636
0000A023  746F              jz 0xa094
0000A025  7249              jc 0xa070
0000A027  69536149694545    imul edx,[ebx+0x61],dword 0x45456949
0000A02E  45                inc ebp
0000A02F  45                inc ebp
0000A030  50                push eax
0000A031  69694554305F54    imul ebp,[ecx+0x45],dword 0x545f3054
0000A038  5F                pop edi
0000A039  53                push ebx
0000A03A  41                inc ecx
0000A03B  5F                pop edi
0000A03C  53                push ebx
0000A03D  395F52            cmp [edi+0x52],ebx
0000A040  53                push ebx
0000A041  61                popa
0000A042  49                dec ecx
0000A043  54                push esp
0000A044  315F45            xor [edi+0x45],ebx
0000A047  005F5A            add [edi+0x5a],bl
0000A04A  4E                dec esi
0000A04B  4B                dec ebx
0000A04C  395F5F            cmp [edi+0x5f],ebx
0000A04F  676E              a16 outsb
0000A051  755F              jnz 0xa0b2
0000A053  637878            arpl [eax+0x78],di
0000A056  3137              xor [edi],esi
0000A058  5F                pop edi
0000A059  5F                pop edi
0000A05A  6E                outsb
0000A05B  6F                outsd
0000A05C  726D              jc 0xa0cb
0000A05E  61                popa
0000A05F  6C                insb
0000A060  5F                pop edi
0000A061  6974657261746F72  imul esi,[ebp+0x72],dword 0x726f7461
0000A069  49                dec ecx
0000A06A  50                push eax
0000A06B  53                push ebx
0000A06C  7434              jz 0xa0a2
0000A06E  7061              jo 0xa0d1
0000A070  6972496953315F    imul esi,[edx+0x49],dword 0x5f315369
0000A077  49                dec ecx
0000A078  69694545537436    imul ebp,[ecx+0x45],dword 0x36745345
0000A07F  7665              jna 0xa0e6
0000A081  63746F72          arpl [edi+ebp*2+0x72],si
0000A085  49                dec ecx
0000A086  53                push ebx
0000A087  335F53            xor ebx,[edi+0x53]
0000A08A  61                popa
0000A08B  49                dec ecx
0000A08C  53                push ebx
0000A08D  335F45            xor ebx,[edi+0x45]
0000A090  45                inc ebp
0000A091  45                inc ebp
0000A092  6D                insd
0000A093  6945524B69005F    imul eax,[ebp+0x52],dword 0x5f00694b
0000A09A  5A                pop edx
0000A09B  4E                dec esi
0000A09C  53                push ebx
0000A09D  7431              jz 0xa0d0
0000A09F  325F56            xor bl,[edi+0x56]
0000A0A2  6563746F72        arpl [gs:edi+ebp*2+0x72],si
0000A0A7  5F                pop edi
0000A0A8  626173            bound esp,[ecx+0x73]
0000A0AB  6549              gs dec ecx
0000A0AD  69536149694545    imul edx,[ebx+0x61],dword 0x45456949
0000A0B4  44                inc esp
0000A0B5  314576            xor [ebp+0x76],eax
0000A0B8  005F5A            add [edi+0x5a],bl
0000A0BB  4E                dec esi
0000A0BC  395F5F            cmp [edi+0x5f],ebx
0000A0BF  676E              a16 outsb
0000A0C1  755F              jnz 0xa122
0000A0C3  637878            arpl [eax+0x78],di
0000A0C6  3133              xor [ebx],esi
0000A0C8  6E                outsb
0000A0C9  65775F            gs ja 0xa12b
0000A0CC  61                popa
0000A0CD  6C                insb
0000A0CE  6C                insb
0000A0CF  6F                outsd
0000A0D0  636174            arpl [ecx+0x74],sp
0000A0D3  6F                outsd
0000A0D4  7249              jc 0xa11f
0000A0D6  69454331457600    imul eax,[ebp+0x43],dword 0x764531
0000A0DD  5F                pop edi
0000A0DE  5A                pop edx
0000A0DF  4E                dec esi
0000A0E0  53                push ebx
0000A0E1  7431              jz 0xa114
0000A0E3  325F56            xor bl,[edi+0x56]
0000A0E6  6563746F72        arpl [gs:edi+ebp*2+0x72],si
0000A0EB  5F                pop edi
0000A0EC  626173            bound esp,[ecx+0x73]
0000A0EF  6549              gs dec ecx
0000A0F1  53                push ebx
0000A0F2  7436              jz 0xa12a
0000A0F4  7665              jna 0xa15b
0000A0F6  63746F72          arpl [edi+ebp*2+0x72],si
0000A0FA  49                dec ecx
0000A0FB  69536149694545    imul edx,[ebx+0x61],dword 0x45456949
0000A102  53                push ebx
0000A103  61                popa
0000A104  49                dec ecx
0000A105  53                push ebx
0000A106  325F45            xor bl,[edi+0x45]
0000A109  45                inc ebp
0000A10A  3132              xor [edx],esi
0000A10C  5F                pop edi
0000A10D  56                push esi
0000A10E  6563746F72        arpl [gs:edi+ebp*2+0x72],si
0000A113  5F                pop edi
0000A114  696D706C433145    imul ebp,[ebp+0x70],dword 0x4531436c
0000A11B  52                push edx
0000A11C  4B                dec ebx
0000A11D  53                push ebx
0000A11E  335F00            xor ebx,[edi+0x0]
0000A121  5F                pop edi
0000A122  5A                pop edx
0000A123  4E                dec esi
0000A124  53                push ebx
0000A125  7436              jz 0xa15d
0000A127  7665              jna 0xa18e
0000A129  63746F72          arpl [edi+ebp*2+0x72],si
0000A12D  49                dec ecx
0000A12E  53                push ebx
0000A12F  5F                pop edi
0000A130  49                dec ecx
0000A131  69536149694545    imul edx,[ebx+0x61],dword 0x45456949
0000A138  53                push ebx
0000A139  61                popa
0000A13A  49                dec ecx
0000A13B  53                push ebx
0000A13C  315F45            xor [edi+0x45],ebx
0000A13F  45                inc ebp
0000A140  43                inc ebx
0000A141  32456A            xor al,[ebp+0x6a]
0000A144  52                push edx
0000A145  4B                dec ebx
0000A146  53                push ebx
0000A147  315F52            xor [edi+0x52],ebx
0000A14A  4B                dec ebx
0000A14B  53                push ebx
0000A14C  325F00            xor bl,[edi+0x0]
0000A14F  5F                pop edi
0000A150  5A                pop edx
0000A151  4E                dec esi
0000A152  53                push ebx
0000A153  7431              jz 0xa186
0000A155  3470              xor al,0x70
0000A157  7269              jc 0xa1c2
0000A159  6F                outsd
0000A15A  7269              jc 0xa1c5
0000A15C  7479              jz 0xa1d7
0000A15E  5F                pop edi
0000A15F  7175              jno 0xa1d6
0000A161  657565            gs jnz 0xa1c9
0000A164  49                dec ecx
0000A165  53                push ebx
0000A166  7434              jz 0xa19c
0000A168  7061              jo 0xa1cb
0000A16A  6972496953305F    imul esi,[edx+0x49],dword 0x5f305369
0000A171  49                dec ecx
0000A172  69694545537436    imul ebp,[ecx+0x45],dword 0x36745345
0000A179  7665              jna 0xa1e0
0000A17B  63746F72          arpl [edi+ebp*2+0x72],si
0000A17F  49                dec ecx
0000A180  53                push ebx
0000A181  325F53            xor bl,[edi+0x53]
0000A184  61                popa
0000A185  49                dec ecx
0000A186  53                push ebx
0000A187  325F45            xor bl,[edi+0x45]
0000A18A  45                inc ebp
0000A18B  53                push ebx
0000A18C  7437              jz 0xa1c5
0000A18E  677265            a16 jc 0xa1f6
0000A191  61                popa
0000A192  7465              jz 0xa1f9
0000A194  7249              jc 0xa1df
0000A196  53                push ebx
0000A197  325F45            xor bl,[edi+0x45]
0000A19A  45                inc ebp
0000A19B  44                inc esp
0000A19C  314576            xor [ebp+0x76],eax
0000A19F  005F5A            add [edi+0x5a],bl
0000A1A2  4E                dec esi
0000A1A3  53                push ebx
0000A1A4  7436              jz 0xa1dc
0000A1A6  7665              jna 0xa20d
0000A1A8  63746F72          arpl [edi+ebp*2+0x72],si
0000A1AC  49                dec ecx
0000A1AD  53                push ebx
0000A1AE  7434              jz 0xa1e4
0000A1B0  7061              jo 0xa213
0000A1B2  6972496953305F    imul esi,[edx+0x49],dword 0x5f305369
0000A1B9  49                dec ecx
0000A1BA  69694545536149    imul ebp,[ecx+0x45],dword 0x49615345
0000A1C1  53                push ebx
0000A1C2  325F45            xor bl,[edi+0x45]
0000A1C5  45                inc ebp
0000A1C6  43                inc ebx
0000A1C7  324552            xor al,[ebp+0x52]
0000A1CA  4B                dec ebx
0000A1CB  53                push ebx
0000A1CC  345F              xor al,0x5f
0000A1CE  005F5A            add [edi+0x5a],bl
0000A1D1  4E                dec esi
0000A1D2  53                push ebx
0000A1D3  7436              jz 0xa20b
0000A1D5  7665              jna 0xa23c
0000A1D7  63746F72          arpl [edi+ebp*2+0x72],si
0000A1DB  49                dec ecx
0000A1DC  69536149694545    imul edx,[ebx+0x61],dword 0x45456949
0000A1E3  43                inc ebx
0000A1E4  324552            xor al,[ebp+0x52]
0000A1E7  4B                dec ebx
0000A1E8  53                push ebx
0000A1E9  315F00            xor [edi+0x0],ebx
0000A1EC  5F                pop edi
0000A1ED  5A                pop edx
0000A1EE  4E                dec esi
0000A1EF  53                push ebx
0000A1F0  7436              jz 0xa228
0000A1F2  7665              jna 0xa259
0000A1F4  63746F72          arpl [edi+ebp*2+0x72],si
0000A1F8  49                dec ecx
0000A1F9  53                push ebx
0000A1FA  7434              jz 0xa230
0000A1FC  7061              jo 0xa25f
0000A1FE  6972496953305F    imul esi,[edx+0x49],dword 0x5f305369
0000A205  49                dec ecx
0000A206  69694545536149    imul ebp,[ecx+0x45],dword 0x49615345
0000A20D  53                push ebx
0000A20E  325F45            xor bl,[edi+0x45]
0000A211  45                inc ebp
0000A212  3133              xor [ebx],esi
0000A214  5F                pop edi
0000A215  4D                dec ebp
0000A216  5F                pop edi
0000A217  696E736572745F    imul ebp,[esi+0x73],dword 0x5f747265
0000A21E  61                popa
0000A21F  7578              jnz 0xa299
0000A221  45                inc ebp
0000A222  4E                dec esi
0000A223  395F5F            cmp [edi+0x5f],ebx
0000A226  676E              a16 outsb
0000A228  755F              jnz 0xa289
0000A22A  637878            arpl [eax+0x78],di
0000A22D  3137              xor [edi],esi
0000A22F  5F                pop edi
0000A230  5F                pop edi
0000A231  6E                outsb
0000A232  6F                outsd
0000A233  726D              jc 0xa2a2
0000A235  61                popa
0000A236  6C                insb
0000A237  5F                pop edi
0000A238  6974657261746F72  imul esi,[ebp+0x72],dword 0x726f7461
0000A240  49                dec ecx
0000A241  50                push eax
0000A242  53                push ebx
0000A243  325F53            xor bl,[edi+0x53]
0000A246  345F              xor al,0x5f
0000A248  45                inc ebp
0000A249  45                inc ebp
0000A24A  52                push edx
0000A24B  4B                dec ebx
0000A24C  53                push ebx
0000A24D  325F00            xor bl,[edi+0x0]
0000A250  5F                pop edi
0000A251  5A                pop edx
0000A252  4E                dec esi
0000A253  53                push ebx
0000A254  7432              jz 0xa288
0000A256  325F5F            xor bl,[edi+0x5f]
0000A259  756E              jnz 0xa2c9
0000A25B  696E697469616C    imul ebp,[esi+0x69],dword 0x6c616974
0000A262  697A65645F6669    imul edi,[edx+0x65],dword 0x69665f64
0000A269  6C                insb
0000A26A  6C                insb
0000A26B  5F                pop edi
0000A26C  6E                outsb
0000A26D  49                dec ecx
0000A26E  4C                dec esp
0000A26F  6230              bound esi,[eax]
0000A271  45                inc ebp
0000A272  45                inc ebp
0000A273  31355F5F756E      xor [0x6e755f5f],esi
0000A279  696E69745F6669    imul ebp,[esi+0x69],dword 0x69665f74
0000A280  6C                insb
0000A281  6C                insb
0000A282  5F                pop edi
0000A283  6E                outsb
0000A284  49                dec ecx
0000A285  50                push eax
0000A286  53                push ebx
0000A287  7436              jz 0xa2bf
0000A289  7665              jna 0xa2f0
0000A28B  63746F72          arpl [edi+ebp*2+0x72],si
0000A28F  49                dec ecx
0000A290  69536149694545    imul edx,[ebx+0x61],dword 0x45456949
0000A297  6A53              push byte +0x53
0000A299  345F              xor al,0x5f
0000A29B  45                inc ebp
0000A29C  45                inc ebp
0000A29D  7654              jna 0xa2f3
0000A29F  5F                pop edi
0000A2A0  54                push esp
0000A2A1  305F52            xor [edi+0x52],bl
0000A2A4  4B                dec ebx
0000A2A5  54                push esp
0000A2A6  315F00            xor [edi+0x0],ebx
0000A2A9  5F                pop edi
0000A2AA  5A                pop edx
0000A2AB  4E                dec esi
0000A2AC  53                push ebx
0000A2AD  7436              jz 0xa2e5
0000A2AF  7665              jna 0xa316
0000A2B1  63746F72          arpl [edi+ebp*2+0x72],si
0000A2B5  49                dec ecx
0000A2B6  69536149694545    imul edx,[ebx+0x61],dword 0x45456949
0000A2BD  6978456A005F5A    imul edi,[eax+0x45],dword 0x5a5f006a
0000A2C4  4E                dec esi
0000A2C5  53                push ebx
0000A2C6  7431              jz 0xa2f9
0000A2C8  325F56            xor bl,[edi+0x56]
0000A2CB  6563746F72        arpl [gs:edi+ebp*2+0x72],si
0000A2D0  5F                pop edi
0000A2D1  626173            bound esp,[ecx+0x73]
0000A2D4  6549              gs dec ecx
0000A2D6  53                push ebx
0000A2D7  7434              jz 0xa30d
0000A2D9  7061              jo 0xa33c
0000A2DB  6972496953305F    imul esi,[edx+0x49],dword 0x5f305369
0000A2E2  49                dec ecx
0000A2E3  69694545536149    imul ebp,[ecx+0x45],dword 0x49615345
0000A2EA  53                push ebx
0000A2EB  325F45            xor bl,[edi+0x45]
0000A2EE  45                inc ebp
0000A2EF  3132              xor [edx],esi
0000A2F1  5F                pop edi
0000A2F2  56                push esi
0000A2F3  6563746F72        arpl [gs:edi+ebp*2+0x72],si
0000A2F8  5F                pop edi
0000A2F9  696D706C443245    imul ebp,[ebp+0x70],dword 0x4532446c
0000A300  7600              jna 0xa302
0000A302  5F                pop edi
0000A303  5A                pop edx
0000A304  4E                dec esi
0000A305  53                push ebx
0000A306  7431              jz 0xa339
0000A308  325F56            xor bl,[edi+0x56]
0000A30B  6563746F72        arpl [gs:edi+ebp*2+0x72],si
0000A310  5F                pop edi
0000A311  626173            bound esp,[ecx+0x73]
0000A314  6549              gs dec ecx
0000A316  53                push ebx
0000A317  7434              jz 0xa34d
0000A319  7061              jo 0xa37c
0000A31B  6972496953305F    imul esi,[edx+0x49],dword 0x5f305369
0000A322  49                dec ecx
0000A323  69694545536149    imul ebp,[ecx+0x45],dword 0x49615345
0000A32A  53                push ebx
0000A32B  325F45            xor bl,[edi+0x45]
0000A32E  45                inc ebp
0000A32F  3133              xor [ebx],esi
0000A331  5F                pop edi
0000A332  4D                dec ebp
0000A333  5F                pop edi
0000A334  646561            gs popa
0000A337  6C                insb
0000A338  6C                insb
0000A339  6F                outsd
0000A33A  636174            arpl [ecx+0x74],sp
0000A33D  6545              gs inc ebp
0000A33F  50                push eax
0000A340  53                push ebx
0000A341  325F6A            xor bl,[edi+0x6a]
0000A344  005F5A            add [edi+0x5a],bl
0000A347  4E                dec esi
0000A348  53                push ebx
0000A349  61                popa
0000A34A  49                dec ecx
0000A34B  53                push ebx
0000A34C  7434              jz 0xa382
0000A34E  7061              jo 0xa3b1
0000A350  69724969535F49    imul esi,[edx+0x49],dword 0x495f5369
0000A357  69694545454331    imul ebp,[ecx+0x45],dword 0x31434545
0000A35E  45                inc ebp
0000A35F  52                push edx
0000A360  4B                dec ebx
0000A361  53                push ebx
0000A362  325F00            xor bl,[edi+0x0]
0000A365  5F                pop edi
0000A366  5A                pop edx
0000A367  4E                dec esi
0000A368  53                push ebx
0000A369  7436              jz 0xa3a1
0000A36B  7665              jna 0xa3d2
0000A36D  63746F72          arpl [edi+ebp*2+0x72],si
0000A371  49                dec ecx
0000A372  53                push ebx
0000A373  5F                pop edi
0000A374  49                dec ecx
0000A375  69536149694545    imul edx,[ebx+0x61],dword 0x45456949
0000A37C  53                push ebx
0000A37D  61                popa
0000A37E  49                dec ecx
0000A37F  53                push ebx
0000A380  315F45            xor [edi+0x45],ebx
0000A383  45                inc ebp
0000A384  44                inc esp
0000A385  324576            xor al,[ebp+0x76]
0000A388  005F5A            add [edi+0x5a],bl
0000A38B  4E                dec esi
0000A38C  53                push ebx
0000A38D  7431              jz 0xa3c0
0000A38F  325F56            xor bl,[edi+0x56]
0000A392  6563746F72        arpl [gs:edi+ebp*2+0x72],si
0000A397  5F                pop edi
0000A398  626173            bound esp,[ecx+0x73]
0000A39B  6549              gs dec ecx
0000A39D  53                push ebx
0000A39E  7436              jz 0xa3d6
0000A3A0  7665              jna 0xa407
0000A3A2  63746F72          arpl [edi+ebp*2+0x72],si
0000A3A6  49                dec ecx
0000A3A7  69536149694545    imul edx,[ebx+0x61],dword 0x45456949
0000A3AE  53                push ebx
0000A3AF  61                popa
0000A3B0  49                dec ecx
0000A3B1  53                push ebx
0000A3B2  325F45            xor bl,[edi+0x45]
0000A3B5  45                inc ebp
0000A3B6  3137              xor [edi],esi
0000A3B8  5F                pop edi
0000A3B9  4D                dec ebp
0000A3BA  5F                pop edi
0000A3BB  637265            arpl [edx+0x65],si
0000A3BE  61                popa
0000A3BF  7465              jz 0xa426
0000A3C1  5F                pop edi
0000A3C2  7374              jnc 0xa438
0000A3C4  6F                outsd
0000A3C5  7261              jc 0xa428
0000A3C7  676545            gs a16 inc ebp
0000A3CA  6A00              push byte +0x0
0000A3CC  5F                pop edi
0000A3CD  5A                pop edx
0000A3CE  4E                dec esi
0000A3CF  395F5F            cmp [edi+0x5f],ebx
0000A3D2  676E              a16 outsb
0000A3D4  755F              jnz 0xa435
0000A3D6  637878            arpl [eax+0x78],di
0000A3D9  3133              xor [ebx],esi
0000A3DB  6E                outsb
0000A3DC  65775F            gs ja 0xa43e
0000A3DF  61                popa
0000A3E0  6C                insb
0000A3E1  6C                insb
0000A3E2  6F                outsd
0000A3E3  636174            arpl [ecx+0x74],sp
0000A3E6  6F                outsd
0000A3E7  7249              jc 0xa432
0000A3E9  53                push ebx
0000A3EA  7434              jz 0xa420
0000A3EC  7061              jo 0xa44f
0000A3EE  6972496953315F    imul esi,[edx+0x49],dword 0x5f315369
0000A3F5  49                dec ecx
0000A3F6  69694545453963    imul ebp,[ecx+0x45],dword 0x63394545
0000A3FD  6F                outsd
0000A3FE  6E                outsb
0000A3FF  7374              jnc 0xa475
0000A401  7275              jc 0xa478
0000A403  63744550          arpl [ebp+eax*2+0x50],si
0000A407  53                push ebx
0000A408  335F52            xor ebx,[edi+0x52]
0000A40B  4B                dec ebx
0000A40C  53                push ebx
0000A40D  335F00            xor ebx,[edi+0x0]
0000A410  5F                pop edi
0000A411  5F                pop edi
0000A412  54                push esp
0000A413  4D                dec ebp
0000A414  43                inc ebx
0000A415  5F                pop edi
0000A416  45                inc ebp
0000A417  4E                dec esi
0000A418  44                inc esp
0000A419  5F                pop edi
0000A41A  5F                pop edi
0000A41B  005F5A            add [edi+0x5a],bl
0000A41E  53                push ebx
0000A41F  7438              jz 0xa459
0000A421  5F                pop edi
0000A422  44                inc esp
0000A423  657374            gs jnc 0xa49a
0000A426  726F              jc 0xa497
0000A428  7949              jns 0xa473
0000A42A  50                push eax
0000A42B  694576545F5331    imul eax,[ebp+0x76],dword 0x31535f54
0000A432  5F                pop edi
0000A433  005F5A            add [edi+0x5a],bl
0000A436  4E                dec esi
0000A437  53                push ebx
0000A438  7431              jz 0xa46b
0000A43A  3470              xor al,0x70
0000A43C  7269              jc 0xa4a7
0000A43E  6F                outsd
0000A43F  7269              jc 0xa4aa
0000A441  7479              jz 0xa4bc
0000A443  5F                pop edi
0000A444  7175              jno 0xa4bb
0000A446  657565            gs jnz 0xa4ae
0000A449  49                dec ecx
0000A44A  53                push ebx
0000A44B  7434              jz 0xa481
0000A44D  7061              jo 0xa4b0
0000A44F  6972496953305F    imul esi,[edx+0x49],dword 0x5f305369
0000A456  49                dec ecx
0000A457  69694545537436    imul ebp,[ecx+0x45],dword 0x36745345
0000A45E  7665              jna 0xa4c5
0000A460  63746F72          arpl [edi+ebp*2+0x72],si
0000A464  49                dec ecx
0000A465  53                push ebx
0000A466  325F53            xor bl,[edi+0x53]
0000A469  61                popa
0000A46A  49                dec ecx
0000A46B  53                push ebx
0000A46C  325F45            xor bl,[edi+0x45]
0000A46F  45                inc ebp
0000A470  53                push ebx
0000A471  7437              jz 0xa4aa
0000A473  677265            a16 jc 0xa4db
0000A476  61                popa
0000A477  7465              jz 0xa4de
0000A479  7249              jc 0xa4c4
0000A47B  53                push ebx
0000A47C  325F45            xor bl,[edi+0x45]
0000A47F  45                inc ebp
0000A480  33706F            xor esi,[eax+0x6f]
0000A483  7045              jo 0xa4ca
0000A485  7600              jna 0xa487
0000A487  5F                pop edi
0000A488  5A                pop edx
0000A489  4E                dec esi
0000A48A  53                push ebx
0000A48B  7431              jz 0xa4be
0000A48D  325F56            xor bl,[edi+0x56]
0000A490  6563746F72        arpl [gs:edi+ebp*2+0x72],si
0000A495  5F                pop edi
0000A496  626173            bound esp,[ecx+0x73]
0000A499  6549              gs dec ecx
0000A49B  53                push ebx
0000A49C  7434              jz 0xa4d2
0000A49E  7061              jo 0xa501
0000A4A0  6972496953305F    imul esi,[edx+0x49],dword 0x5f305369
0000A4A7  49                dec ecx
0000A4A8  69694545536149    imul ebp,[ecx+0x45],dword 0x49615345
0000A4AF  53                push ebx
0000A4B0  325F45            xor bl,[edi+0x45]
0000A4B3  45                inc ebp
0000A4B4  43                inc ebx
0000A4B5  31456A            xor [ebp+0x6a],eax
0000A4B8  52                push edx
0000A4B9  4B                dec ebx
0000A4BA  53                push ebx
0000A4BB  335F00            xor ebx,[edi+0x0]
0000A4BE  5F                pop edi
0000A4BF  5A                pop edx
0000A4C0  53                push ebx
0000A4C1  7434              jz 0xa4f7
0000A4C3  636F75            arpl [edi+0x75],bp
0000A4C6  7440              jz 0xa508
0000A4C8  40                inc eax
0000A4C9  47                inc edi
0000A4CA  4C                dec esp
0000A4CB  49                dec ecx
0000A4CC  42                inc edx
0000A4CD  43                inc ebx
0000A4CE  58                pop eax
0000A4CF  58                pop eax
0000A4D0  5F                pop edi
0000A4D1  332E              xor ebp,[esi]
0000A4D3  3400              xor al,0x0
0000A4D5  5F                pop edi
0000A4D6  5A                pop edx
0000A4D7  4E                dec esi
0000A4D8  395F5F            cmp [edi+0x5f],ebx
0000A4DB  676E              a16 outsb
0000A4DD  755F              jnz 0xa53e
0000A4DF  637878            arpl [eax+0x78],di
0000A4E2  31345F            xor [edi+ebx*2],esi
0000A4E5  5F                pop edi
0000A4E6  61                popa
0000A4E7  6C                insb
0000A4E8  6C                insb
0000A4E9  6F                outsd
0000A4EA  635F74            arpl [edi+0x74],bx
0000A4ED  7261              jc 0xa550
0000A4EF  6974734953614953  imul esi,[ebx+esi*2+0x49],dword 0x53496153
0000A4F7  7434              jz 0xa52d
0000A4F9  7061              jo 0xa55c
0000A4FB  6972496953315F    imul esi,[edx+0x49],dword 0x5f315369
0000A502  49                dec ecx
0000A503  69694545454537    imul ebp,[ecx+0x45],dword 0x37454545
0000A50A  64657374          gs jnc 0xa582
0000A50E  726F              jc 0xa57f
0000A510  7945              jns 0xa557
0000A512  52                push edx
0000A513  53                push ebx
0000A514  345F              xor al,0x5f
0000A516  50                push eax
0000A517  53                push ebx
0000A518  335F00            xor ebx,[edi+0x0]
0000A51B  5F                pop edi
0000A51C  5A                pop edx
0000A51D  4E                dec esi
0000A51E  395F5F            cmp [edi+0x5f],ebx
0000A521  676E              a16 outsb
0000A523  755F              jnz 0xa584
0000A525  637878            arpl [eax+0x78],di
0000A528  31345F            xor [edi+ebx*2],esi
0000A52B  5F                pop edi
0000A52C  61                popa
0000A52D  6C                insb
0000A52E  6C                insb
0000A52F  6F                outsd
0000A530  635F74            arpl [edi+0x74],bx
0000A533  7261              jc 0xa596
0000A535  6974734953614969  imul esi,[ebx+esi*2+0x49],dword 0x69496153
0000A53D  45                inc ebp
0000A53E  45                inc ebp
0000A53F  3137              xor [edi],esi
0000A541  5F                pop edi
0000A542  53                push ebx
0000A543  5F                pop edi
0000A544  7365              jnc 0xa5ab
0000A546  6C                insb
0000A547  6563745F6F        arpl [gs:edi+ebx*2+0x6f],si
0000A54C  6E                outsb
0000A54D  5F                pop edi
0000A54E  636F70            arpl [edi+0x70],bp
0000A551  7945              jns 0xa598
0000A553  52                push edx
0000A554  4B                dec ebx
0000A555  53                push ebx
0000A556  315F00            xor [edi+0x0],ebx
0000A559  5F                pop edi
0000A55A  5A                pop edx
0000A55B  336D61            xor ebp,[ebp+0x61]
0000A55E  7869              js 0xa5c9
0000A560  6969005F5A4E53    imul ebp,[ecx+0x0],dword 0x534e5a5f
0000A567  7432              jz 0xa59b
0000A569  305F5F            xor [edi+0x5f],bl
0000A56C  756E              jnz 0xa5dc
0000A56E  696E697469616C    imul ebp,[esi+0x69],dword 0x6c616974
0000A575  697A65645F636F    imul edi,[edx+0x65],dword 0x6f635f64
0000A57C  7079              jo 0xa5f7
0000A57E  49                dec ecx
0000A57F  4C                dec esp
0000A580  6231              bound esi,[ecx]
0000A582  45                inc ebp
0000A583  45                inc ebp
0000A584  3133              xor [ebx],esi
0000A586  5F                pop edi
0000A587  5F                pop edi
0000A588  756E              jnz 0xa5f8
0000A58A  696E69745F636F    imul ebp,[esi+0x69],dword 0x6f635f74
0000A591  7079              jo 0xa60c
0000A593  49                dec ecx
0000A594  4E                dec esi
0000A595  395F5F            cmp [edi+0x5f],ebx
0000A598  676E              a16 outsb
0000A59A  755F              jnz 0xa5fb
0000A59C  637878            arpl [eax+0x78],di
0000A59F  3137              xor [edi],esi
0000A5A1  5F                pop edi
0000A5A2  5F                pop edi
0000A5A3  6E                outsb
0000A5A4  6F                outsd
0000A5A5  726D              jc 0xa614
0000A5A7  61                popa
0000A5A8  6C                insb
0000A5A9  5F                pop edi
0000A5AA  6974657261746F72  imul esi,[ebp+0x72],dword 0x726f7461
0000A5B2  49                dec ecx
0000A5B3  50                push eax
0000A5B4  4B                dec ebx
0000A5B5  69537436766563    imul edx,[ebx+0x74],dword 0x63657636
0000A5BC  746F              jz 0xa62d
0000A5BE  7249              jc 0xa609
0000A5C0  69536149694545    imul edx,[ebx+0x61],dword 0x45456949
0000A5C7  45                inc ebp
0000A5C8  45                inc ebp
0000A5C9  50                push eax
0000A5CA  69454554305F54    imul eax,[ebp+0x45],dword 0x545f3054
0000A5D1  5F                pop edi
0000A5D2  53                push ebx
0000A5D3  43                inc ebx
0000A5D4  5F                pop edi
0000A5D5  53                push ebx
0000A5D6  42                inc edx
0000A5D7  5F                pop edi
0000A5D8  005F5A            add [edi+0x5a],bl
0000A5DB  4E                dec esi
0000A5DC  53                push ebx
0000A5DD  7431              jz 0xa610
0000A5DF  325F56            xor bl,[edi+0x56]
0000A5E2  6563746F72        arpl [gs:edi+ebp*2+0x72],si
0000A5E7  5F                pop edi
0000A5E8  626173            bound esp,[ecx+0x73]
0000A5EB  6549              gs dec ecx
0000A5ED  53                push ebx
0000A5EE  7434              jz 0xa624
0000A5F0  7061              jo 0xa653
0000A5F2  6972496953305F    imul esi,[edx+0x49],dword 0x5f305369
0000A5F9  49                dec ecx
0000A5FA  69694545536149    imul ebp,[ecx+0x45],dword 0x49615345
0000A601  53                push ebx
0000A602  325F45            xor bl,[edi+0x45]
0000A605  45                inc ebp
0000A606  44                inc esp
0000A607  324576            xor al,[ebp+0x76]
0000A60A  005F5F            add [edi+0x5f],bl
0000A60D  64736F            fs jnc 0xa67f
0000A610  5F                pop edi
0000A611  68616E646C        push dword 0x6c646e61
0000A616  65005F5A          add [gs:edi+0x5a],bl
0000A61A  53                push ebx
0000A61B  7431              jz 0xa64e
0000A61D  325F5F            xor bl,[edi+0x5f]
0000A620  6E                outsb
0000A621  697465725F626173  imul esi,[ebp+0x72],dword 0x7361625f
0000A629  6549              gs dec ecx
0000A62B  4E                dec esi
0000A62C  395F5F            cmp [edi+0x5f],ebx
0000A62F  676E              a16 outsb
0000A631  755F              jnz 0xa692
0000A633  637878            arpl [eax+0x78],di
0000A636  3137              xor [edi],esi
0000A638  5F                pop edi
0000A639  5F                pop edi
0000A63A  6E                outsb
0000A63B  6F                outsd
0000A63C  726D              jc 0xa6ab
0000A63E  61                popa
0000A63F  6C                insb
0000A640  5F                pop edi
0000A641  6974657261746F72  imul esi,[ebp+0x72],dword 0x726f7461
0000A649  49                dec ecx
0000A64A  50                push eax
0000A64B  4B                dec ebx
0000A64C  69537436766563    imul edx,[ebx+0x74],dword 0x63657636
0000A653  746F              jz 0xa6c4
0000A655  7249              jc 0xa6a0
0000A657  69536149694545    imul edx,[ebx+0x61],dword 0x45456949
0000A65E  45                inc ebp
0000A65F  45                inc ebp
0000A660  45                inc ebp
0000A661  4E                dec esi
0000A662  53                push ebx
0000A663  7431              jz 0xa696
0000A665  315F4E            xor [edi+0x4e],ebx
0000A668  697465725F626173  imul esi,[ebp+0x72],dword 0x7361625f
0000A670  6549              gs dec ecx
0000A672  54                push esp
0000A673  5F                pop edi
0000A674  45                inc ebp
0000A675  3133              xor [ebx],esi
0000A677  6974657261746F72  imul esi,[ebp+0x72],dword 0x726f7461
0000A67F  5F                pop edi
0000A680  7479              jz 0xa6fb
0000A682  7065              jo 0xa6e9
0000A684  45                inc ebp
0000A685  53                push ebx
0000A686  395F00            cmp [edi+0x0],ebx
0000A689  5F                pop edi
0000A68A  5F                pop edi
0000A68B  44                inc esp
0000A68C  54                push esp
0000A68D  4F                dec edi
0000A68E  52                push edx
0000A68F  5F                pop edi
0000A690  45                inc ebp
0000A691  4E                dec esi
0000A692  44                inc esp
0000A693  5F                pop edi
0000A694  5F                pop edi
0000A695  005F5A            add [edi+0x5a],bl
0000A698  4E                dec esi
0000A699  4B                dec ebx
0000A69A  395F5F            cmp [edi+0x5f],ebx
0000A69D  676E              a16 outsb
0000A69F  755F              jnz 0xa700
0000A6A1  637878            arpl [eax+0x78],di
0000A6A4  3137              xor [edi],esi
0000A6A6  5F                pop edi
0000A6A7  5F                pop edi
0000A6A8  6E                outsb
0000A6A9  6F                outsd
0000A6AA  726D              jc 0xa719
0000A6AC  61                popa
0000A6AD  6C                insb
0000A6AE  5F                pop edi
0000A6AF  6974657261746F72  imul esi,[ebp+0x72],dword 0x726f7461
0000A6B7  49                dec ecx
0000A6B8  50                push eax
0000A6B9  4B                dec ebx
0000A6BA  53                push ebx
0000A6BB  7434              jz 0xa6f1
0000A6BD  7061              jo 0xa720
0000A6BF  6972496953315F    imul esi,[edx+0x49],dword 0x5f315369
0000A6C6  49                dec ecx
0000A6C7  69694545537436    imul ebp,[ecx+0x45],dword 0x36745345
0000A6CE  7665              jna 0xa735
0000A6D0  63746F72          arpl [edi+ebp*2+0x72],si
0000A6D4  49                dec ecx
0000A6D5  53                push ebx
0000A6D6  335F53            xor ebx,[edi+0x53]
0000A6D9  61                popa
0000A6DA  49                dec ecx
0000A6DB  53                push ebx
0000A6DC  335F45            xor ebx,[edi+0x45]
0000A6DF  45                inc ebp
0000A6E0  45                inc ebp
0000A6E1  3462              xor al,0x62
0000A6E3  61                popa
0000A6E4  7365              jnc 0xa74b
0000A6E6  45                inc ebp
0000A6E7  7600              jna 0xa6e9
0000A6E9  5F                pop edi
0000A6EA  5A                pop edx
0000A6EB  4E                dec esi
0000A6EC  53                push ebx
0000A6ED  7431              jz 0xa720
0000A6EF  305F49            xor [edi+0x49],bl
0000A6F2  7465              jz 0xa759
0000A6F4  725F              jc 0xa755
0000A6F6  626173            bound esp,[ecx+0x73]
0000A6F9  6549              gs dec ecx
0000A6FB  50                push eax
0000A6FC  694C62304545375F  imul ecx,[edx+0x30],dword 0x5f374545
0000A704  53                push ebx
0000A705  5F                pop edi
0000A706  626173            bound esp,[ecx+0x73]
0000A709  6545              gs inc ebp
0000A70B  53                push ebx
0000A70C  305F00            xor [edi+0x0],bl
0000A70F  5F                pop edi
0000A710  5A                pop edx
0000A711  4E                dec esi
0000A712  395F5F            cmp [edi+0x5f],ebx
0000A715  676E              a16 outsb
0000A717  755F              jnz 0xa778
0000A719  637878            arpl [eax+0x78],di
0000A71C  3133              xor [ebx],esi
0000A71E  6E                outsb
0000A71F  65775F            gs ja 0xa781
0000A722  61                popa
0000A723  6C                insb
0000A724  6C                insb
0000A725  6F                outsd
0000A726  636174            arpl [ecx+0x74],sp
0000A729  6F                outsd
0000A72A  7249              jc 0xa775
0000A72C  6945433245524B    imul eax,[ebp+0x43],dword 0x4b524532
0000A733  53                push ebx
0000A734  315F00            xor [edi+0x0],ebx
0000A737  5F                pop edi
0000A738  5F                pop edi
0000A739  6C                insb
0000A73A  6962635F637375    imul esp,[edx+0x63],dword 0x7573635f
0000A741  5F                pop edi
0000A742  696E6974005F5A    imul ebp,[esi+0x69],dword 0x5a5f0074
0000A749  4E                dec esi
0000A74A  395F5F            cmp [edi+0x5f],ebx
0000A74D  676E              a16 outsb
0000A74F  755F              jnz 0xa7b0
0000A751  637878            arpl [eax+0x78],di
0000A754  3133              xor [ebx],esi
0000A756  6E                outsb
0000A757  65775F            gs ja 0xa7b9
0000A75A  61                popa
0000A75B  6C                insb
0000A75C  6C                insb
0000A75D  6F                outsd
0000A75E  636174            arpl [ecx+0x74],sp
0000A761  6F                outsd
0000A762  7249              jc 0xa7ad
0000A764  53                push ebx
0000A765  7436              jz 0xa79d
0000A767  7665              jna 0xa7ce
0000A769  63746F72          arpl [edi+ebp*2+0x72],si
0000A76D  49                dec ecx
0000A76E  69536149694545    imul edx,[ebx+0x61],dword 0x45456949
0000A775  45                inc ebp
0000A776  43                inc ebx
0000A777  324576            xor al,[ebp+0x76]
0000A77A  005F5A            add [edi+0x5a],bl
0000A77D  4E                dec esi
0000A77E  53                push ebx
0000A77F  7431              jz 0xa7b2
0000A781  325F56            xor bl,[edi+0x56]
0000A784  6563746F72        arpl [gs:edi+ebp*2+0x72],si
0000A789  5F                pop edi
0000A78A  626173            bound esp,[ecx+0x73]
0000A78D  6549              gs dec ecx
0000A78F  53                push ebx
0000A790  7436              jz 0xa7c8
0000A792  7665              jna 0xa7f9
0000A794  63746F72          arpl [edi+ebp*2+0x72],si
0000A798  49                dec ecx
0000A799  69536149694545    imul edx,[ebx+0x61],dword 0x45456949
0000A7A0  53                push ebx
0000A7A1  61                popa
0000A7A2  49                dec ecx
0000A7A3  53                push ebx
0000A7A4  325F45            xor bl,[edi+0x45]
0000A7A7  45                inc ebp
0000A7A8  43                inc ebx
0000A7A9  31456A            xor [ebp+0x6a],eax
0000A7AC  52                push edx
0000A7AD  4B                dec ebx
0000A7AE  53                push ebx
0000A7AF  335F00            xor ebx,[edi+0x0]
0000A7B2  5F                pop edi
0000A7B3  5A                pop edx
0000A7B4  4E                dec esi
0000A7B5  53                push ebx
0000A7B6  61                popa
0000A7B7  49                dec ecx
0000A7B8  69454432457600    imul eax,[ebp+0x44],dword 0x764532
0000A7BF  5F                pop edi
0000A7C0  5A                pop edx
0000A7C1  4E                dec esi
0000A7C2  395F5F            cmp [edi+0x5f],ebx
0000A7C5  676E              a16 outsb
0000A7C7  755F              jnz 0xa828
0000A7C9  637878            arpl [eax+0x78],di
0000A7CC  3137              xor [edi],esi
0000A7CE  5F                pop edi
0000A7CF  5F                pop edi
0000A7D0  6E                outsb
0000A7D1  6F                outsd
0000A7D2  726D              jc 0xa841
0000A7D4  61                popa
0000A7D5  6C                insb
0000A7D6  5F                pop edi
0000A7D7  6974657261746F72  imul esi,[ebp+0x72],dword 0x726f7461
0000A7DF  49                dec ecx
0000A7E0  50                push eax
0000A7E1  4B                dec ebx
0000A7E2  69537436766563    imul edx,[ebx+0x74],dword 0x63657636
0000A7E9  746F              jz 0xa85a
0000A7EB  7249              jc 0xa836
0000A7ED  69536149694545    imul edx,[ebx+0x61],dword 0x45456949
0000A7F4  45                inc ebp
0000A7F5  43                inc ebx
0000A7F6  314552            xor [ebp+0x52],eax
0000A7F9  4B                dec ebx
0000A7FA  53                push ebx
0000A7FB  325F00            xor bl,[edi+0x0]
0000A7FE  5F                pop edi
0000A7FF  5A                pop edx
0000A800  4E                dec esi
0000A801  53                push ebx
0000A802  7438              jz 0xa83c
0000A804  696F735F626173    imul ebp,[edi+0x73],dword 0x7361625f
0000A80B  653473            gs xor al,0x73
0000A80E  657466            gs jz 0xa877
0000A811  45                inc ebp
0000A812  53                push ebx
0000A813  7431              jz 0xa846
0000A815  335F49            xor ebx,[edi+0x49]
0000A818  6F                outsd
0000A819  735F              jnc 0xa87a
0000A81B  46                inc esi
0000A81C  6D                insd
0000A81D  7466              jz 0xa885
0000A81F  6C                insb
0000A820  61                popa
0000A821  677300            a16 jnc 0xa824
0000A824  5F                pop edi
0000A825  5A                pop edx
0000A826  4E                dec esi
0000A827  53                push ebx
0000A828  61                popa
0000A829  49                dec ecx
0000A82A  69454331457600    imul eax,[ebp+0x43],dword 0x764531
0000A831  5F                pop edi
0000A832  5A                pop edx
0000A833  53                push ebx
0000A834  7432              jz 0xa868
0000A836  335F5F            xor ebx,[edi+0x5f]
0000A839  636F70            arpl [edi+0x70],bp
0000A83C  795F              jns 0xa89d
0000A83E  6D                insd
0000A83F  6F                outsd
0000A840  7665              jna 0xa8a7
0000A842  5F                pop edi
0000A843  626163            bound esp,[ecx+0x63]
0000A846  6B776172          imul esi,[edi+0x61],byte +0x72
0000A84A  645F              fs pop edi
0000A84C  61                popa
0000A84D  32494C            xor cl,[ecx+0x4c]
0000A850  6230              bound esi,[eax]
0000A852  45                inc ebp
0000A853  50                push eax
0000A854  53                push ebx
0000A855  7434              jz 0xa88b
0000A857  7061              jo 0xa8ba
0000A859  6972496953305F    imul esi,[edx+0x49],dword 0x5f305369
0000A860  49                dec ecx
0000A861  6969454553335F    imul ebp,[ecx+0x45],dword 0x5f335345
0000A868  45                inc ebp
0000A869  54                push esp
0000A86A  315F54            xor [edi+0x54],ebx
0000A86D  305F53            xor [edi+0x53],bl
0000A870  355F53345F        xor eax,0x5f34535f
0000A875  005F5A            add [edi+0x5a],bl
0000A878  4E                dec esi
0000A879  4B                dec ebx
0000A87A  53                push ebx
0000A87B  7436              jz 0xa8b3
0000A87D  7665              jna 0xa8e4
0000A87F  63746F72          arpl [edi+ebp*2+0x72],si
0000A883  49                dec ecx
0000A884  69536149694545    imul edx,[ebx+0x61],dword 0x45456949
0000A88B  33656E            xor esp,[ebp+0x6e]
0000A88E  6445              fs inc ebp
0000A890  7600              jna 0xa892
0000A892  5F                pop edi
0000A893  5A                pop edx
0000A894  4E                dec esi
0000A895  395F5F            cmp [edi+0x5f],ebx
0000A898  676E              a16 outsb
0000A89A  755F              jnz 0xa8fb
0000A89C  637878            arpl [eax+0x78],di
0000A89F  3133              xor [ebx],esi
0000A8A1  6E                outsb
0000A8A2  65775F            gs ja 0xa904
0000A8A5  61                popa
0000A8A6  6C                insb
0000A8A7  6C                insb
0000A8A8  6F                outsd
0000A8A9  636174            arpl [ecx+0x74],sp
0000A8AC  6F                outsd
0000A8AD  7249              jc 0xa8f8
0000A8AF  53                push ebx
0000A8B0  7434              jz 0xa8e6
0000A8B2  7061              jo 0xa915
0000A8B4  6972496953315F    imul esi,[edx+0x49],dword 0x5f315369
0000A8BB  49                dec ecx
0000A8BC  69694545454332    imul ebp,[ecx+0x45],dword 0x32434545
0000A8C3  45                inc ebp
0000A8C4  7600              jna 0xa8c6
0000A8C6  5F                pop edi
0000A8C7  5A                pop edx
0000A8C8  4E                dec esi
0000A8C9  53                push ebx
0000A8CA  7436              jz 0xa902
0000A8CC  7665              jna 0xa933
0000A8CE  63746F72          arpl [edi+ebp*2+0x72],si
0000A8D2  49                dec ecx
0000A8D3  53                push ebx
0000A8D4  7434              jz 0xa90a
0000A8D6  7061              jo 0xa939
0000A8D8  6972496953305F    imul esi,[edx+0x49],dword 0x5f305369
0000A8DF  49                dec ecx
0000A8E0  69694545536149    imul ebp,[ecx+0x45],dword 0x49615345
0000A8E7  53                push ebx
0000A8E8  325F45            xor bl,[edi+0x45]
0000A8EB  45                inc ebp
0000A8EC  44                inc esp
0000A8ED  324576            xor al,[ebp+0x76]
0000A8F0  005F5A            add [edi+0x5a],bl
0000A8F3  4E                dec esi
0000A8F4  395F5F            cmp [edi+0x5f],ebx
0000A8F7  676E              a16 outsb
0000A8F9  755F              jnz 0xa95a
0000A8FB  637878            arpl [eax+0x78],di
0000A8FE  3133              xor [ebx],esi
0000A900  6E                outsb
0000A901  65775F            gs ja 0xa963
0000A904  61                popa
0000A905  6C                insb
0000A906  6C                insb
0000A907  6F                outsd
0000A908  636174            arpl [ecx+0x74],sp
0000A90B  6F                outsd
0000A90C  7249              jc 0xa957
0000A90E  53                push ebx
0000A90F  7434              jz 0xa945
0000A911  7061              jo 0xa974
0000A913  6972496953315F    imul esi,[edx+0x49],dword 0x5f315369
0000A91A  49                dec ecx
0000A91B  69694545454431    imul ebp,[ecx+0x45],dword 0x31444545
0000A922  45                inc ebp
0000A923  7600              jna 0xa925
0000A925  5F                pop edi
0000A926  5A                pop edx
0000A927  4E                dec esi
0000A928  395F5F            cmp [edi+0x5f],ebx
0000A92B  676E              a16 outsb
0000A92D  755F              jnz 0xa98e
0000A92F  637878            arpl [eax+0x78],di
0000A932  3133              xor [ebx],esi
0000A934  6E                outsb
0000A935  65775F            gs ja 0xa997
0000A938  61                popa
0000A939  6C                insb
0000A93A  6C                insb
0000A93B  6F                outsd
0000A93C  636174            arpl [ecx+0x74],sp
0000A93F  6F                outsd
0000A940  7249              jc 0xa98b
0000A942  53                push ebx
0000A943  7434              jz 0xa979
0000A945  7061              jo 0xa9a8
0000A947  6972496953315F    imul esi,[edx+0x49],dword 0x5f315369
0000A94E  49                dec ecx
0000A94F  69694545453130    imul ebp,[ecx+0x45],dword 0x30314545
0000A956  646561            gs popa
0000A959  6C                insb
0000A95A  6C                insb
0000A95B  6F                outsd
0000A95C  636174            arpl [ecx+0x74],sp
0000A95F  6545              gs inc ebp
0000A961  50                push eax
0000A962  53                push ebx
0000A963  335F6A            xor ebx,[edi+0x6a]
0000A966  005F5A            add [edi+0x5a],bl
0000A969  4E                dec esi
0000A96A  53                push ebx
0000A96B  7431              jz 0xa99e
0000A96D  325F44            xor bl,[edi+0x44]
0000A970  657374            gs jnc 0xa9e7
0000A973  726F              jc 0xa9e4
0000A975  795F              jns 0xa9d6
0000A977  61                popa
0000A978  7578              jnz 0xa9f2
0000A97A  49                dec ecx
0000A97B  4C                dec esp
0000A97C  6230              bound esi,[eax]
0000A97E  45                inc ebp
0000A97F  45                inc ebp
0000A980  395F5F            cmp [edi+0x5f],ebx
0000A983  64657374          gs jnc 0xa9fb
0000A987  726F              jc 0xa9f8
0000A989  7949              jns 0xa9d4
0000A98B  50                push eax
0000A98C  53                push ebx
0000A98D  7436              jz 0xa9c5
0000A98F  7665              jna 0xa9f6
0000A991  63746F72          arpl [edi+ebp*2+0x72],si
0000A995  49                dec ecx
0000A996  69536149694545    imul edx,[ebx+0x61],dword 0x45456949
0000A99D  45                inc ebp
0000A99E  45                inc ebp
0000A99F  7654              jna 0xa9f5
0000A9A1  5F                pop edi
0000A9A2  53                push ebx
0000A9A3  365F              ss pop edi
0000A9A5  005F5A            add [edi+0x5a],bl
0000A9A8  4E                dec esi
0000A9A9  395F5F            cmp [edi+0x5f],ebx
0000A9AC  676E              a16 outsb
0000A9AE  755F              jnz 0xaa0f
0000A9B0  637878            arpl [eax+0x78],di
0000A9B3  3133              xor [ebx],esi
0000A9B5  6E                outsb
0000A9B6  65775F            gs ja 0xaa18
0000A9B9  61                popa
0000A9BA  6C                insb
0000A9BB  6C                insb
0000A9BC  6F                outsd
0000A9BD  636174            arpl [ecx+0x74],sp
0000A9C0  6F                outsd
0000A9C1  7249              jc 0xaa0c
0000A9C3  53                push ebx
0000A9C4  7434              jz 0xa9fa
0000A9C6  7061              jo 0xaa29
0000A9C8  6972496953315F    imul esi,[edx+0x49],dword 0x5f315369
0000A9CF  49                dec ecx
0000A9D0  69694545454331    imul ebp,[ecx+0x45],dword 0x31434545
0000A9D7  45                inc ebp
0000A9D8  52                push edx
0000A9D9  4B                dec ebx
0000A9DA  53                push ebx
0000A9DB  345F              xor al,0x5f
0000A9DD  005F5A            add [edi+0x5a],bl
0000A9E0  4E                dec esi
0000A9E1  53                push ebx
0000A9E2  7434              jz 0xaa18
0000A9E4  7061              jo 0xaa47
0000A9E6  69724969694543    imul esi,[edx+0x49],dword 0x43456969
0000A9ED  314552            xor [ebp+0x52],eax
0000A9F0  4B                dec ebx
0000A9F1  6953325F005F5A    imul edx,[ebx+0x32],dword 0x5a5f005f
0000A9F8  53                push ebx
0000A9F9  7431              jz 0xaa2c
0000A9FB  305F5F            xor [edi+0x5f],bl
0000A9FE  66696C6C5F6E5F    imul bp,[esp+ebp*2+0x5f],word 0x5f6e
0000AA05  61                popa
0000AA06  49                dec ecx
0000AA07  50                push eax
0000AA08  696A69454E395F    imul ebp,[edx+0x69],dword 0x5f394e45
0000AA0F  5F                pop edi
0000AA10  676E              a16 outsb
0000AA12  755F              jnz 0xaa73
0000AA14  637878            arpl [eax+0x78],di
0000AA17  3131              xor [ecx],esi
0000AA19  5F                pop edi
0000AA1A  5F                pop edi
0000AA1B  656E              gs outsb
0000AA1D  61                popa
0000AA1E  626C655F          bound ebp,[ebp+0x5f]
0000AA22  69664958737253    imul esp,[esi+0x49],dword 0x53727358
0000AA29  7431              jz 0xaa5c
0000AA2B  315F5F            xor [edi+0x5f],ebx
0000AA2E  69735F7363616C    imul esi,[ebx+0x5f],dword 0x6c616373
0000AA35  61                popa
0000AA36  7249              jc 0xaa81
0000AA38  54                push esp
0000AA39  315F45            xor [edi+0x45],ebx
0000AA3C  37                aaa
0000AA3D  5F                pop edi
0000AA3E  5F                pop edi
0000AA3F  7661              jna 0xaaa2
0000AA41  6C                insb
0000AA42  7565              jnz 0xaaa9
0000AA44  45                inc ebp
0000AA45  54                push esp
0000AA46  5F                pop edi
0000AA47  45                inc ebp
0000AA48  365F              ss pop edi
0000AA4A  5F                pop edi
0000AA4B  7479              jz 0xaac6
0000AA4D  7065              jo 0xaab4
0000AA4F  45                inc ebp
0000AA50  53                push ebx
0000AA51  365F              ss pop edi
0000AA53  54                push esp
0000AA54  305F52            xor [edi+0x52],bl
0000AA57  4B                dec ebx
0000AA58  53                push ebx
0000AA59  345F              xor al,0x5f
0000AA5B  005F5A            add [edi+0x5a],bl
0000AA5E  6E                outsb
0000AA5F  776A              ja 0xaacb
0000AA61  40                inc eax
0000AA62  40                inc eax
0000AA63  47                inc edi
0000AA64  4C                dec esp
0000AA65  49                dec ecx
0000AA66  42                inc edx
0000AA67  43                inc ebx
0000AA68  58                pop eax
0000AA69  58                pop eax
0000AA6A  5F                pop edi
0000AA6B  332E              xor ebp,[esi]
0000AA6D  3400              xor al,0x0
0000AA6F  5F                pop edi
0000AA70  5A                pop edx
0000AA71  53                push ebx
0000AA72  7431              jz 0xaaa5
0000AA74  305F5F            xor [edi+0x5f],bl
0000AA77  706F              jo 0xaae8
0000AA79  705F              jo 0xaada
0000AA7B  6865617049        push dword 0x49706165
0000AA80  4E                dec esi
0000AA81  395F5F            cmp [edi+0x5f],ebx
0000AA84  676E              a16 outsb
0000AA86  755F              jnz 0xaae7
0000AA88  637878            arpl [eax+0x78],di
0000AA8B  3137              xor [edi],esi
0000AA8D  5F                pop edi
0000AA8E  5F                pop edi
0000AA8F  6E                outsb
0000AA90  6F                outsd
0000AA91  726D              jc 0xab00
0000AA93  61                popa
0000AA94  6C                insb
0000AA95  5F                pop edi
0000AA96  6974657261746F72  imul esi,[ebp+0x72],dword 0x726f7461
0000AA9E  49                dec ecx
0000AA9F  50                push eax
0000AAA0  53                push ebx
0000AAA1  7434              jz 0xaad7
0000AAA3  7061              jo 0xab06
0000AAA5  6972496953325F    imul esi,[edx+0x49],dword 0x5f325369
0000AAAC  49                dec ecx
0000AAAD  69694545537436    imul ebp,[ecx+0x45],dword 0x36745345
0000AAB4  7665              jna 0xab1b
0000AAB6  63746F72          arpl [edi+ebp*2+0x72],si
0000AABA  49                dec ecx
0000AABB  53                push ebx
0000AABC  345F              xor al,0x5f
0000AABE  53                push ebx
0000AABF  61                popa
0000AAC0  49                dec ecx
0000AAC1  53                push ebx
0000AAC2  345F              xor al,0x5f
0000AAC4  45                inc ebp
0000AAC5  45                inc ebp
0000AAC6  45                inc ebp
0000AAC7  45                inc ebp
0000AAC8  53                push ebx
0000AAC9  7437              jz 0xab02
0000AACB  677265            a16 jc 0xab33
0000AACE  61                popa
0000AACF  7465              jz 0xab36
0000AAD1  7249              jc 0xab1c
0000AAD3  53                push ebx
0000AAD4  345F              xor al,0x5f
0000AAD6  45                inc ebp
0000AAD7  45                inc ebp
0000AAD8  7654              jna 0xab2e
0000AADA  5F                pop edi
0000AADB  53                push ebx
0000AADC  43                inc ebx
0000AADD  5F                pop edi
0000AADE  53                push ebx
0000AADF  43                inc ebx
0000AAE0  5F                pop edi
0000AAE1  54                push esp
0000AAE2  305F00            xor [edi+0x0],bl
0000AAE5  5F                pop edi
0000AAE6  5A                pop edx
0000AAE7  4E                dec esi
0000AAE8  4B                dec ebx
0000AAE9  53                push ebx
0000AAEA  7436              jz 0xab22
0000AAEC  7665              jna 0xab53
0000AAEE  63746F72          arpl [edi+ebp*2+0x72],si
0000AAF2  49                dec ecx
0000AAF3  53                push ebx
0000AAF4  7434              jz 0xab2a
0000AAF6  7061              jo 0xab59
0000AAF8  6972496953305F    imul esi,[edx+0x49],dword 0x5f305369
0000AAFF  49                dec ecx
0000AB00  69694545536149    imul ebp,[ecx+0x45],dword 0x49615345
0000AB07  53                push ebx
0000AB08  325F45            xor bl,[edi+0x45]
0000AB0B  45                inc ebp
0000AB0C  3473              xor al,0x73
0000AB0E  697A654576005F    imul edi,[edx+0x65],dword 0x5f007645
0000AB15  5A                pop edx
0000AB16  4E                dec esi
0000AB17  4B                dec ebx
0000AB18  53                push ebx
0000AB19  7436              jz 0xab51
0000AB1B  7665              jna 0xab82
0000AB1D  63746F72          arpl [edi+ebp*2+0x72],si
0000AB21  49                dec ecx
0000AB22  53                push ebx
0000AB23  7434              jz 0xab59
0000AB25  7061              jo 0xab88
0000AB27  6972496953305F    imul esi,[edx+0x49],dword 0x5f305369
0000AB2E  49                dec ecx
0000AB2F  69694545536149    imul ebp,[ecx+0x45],dword 0x49615345
0000AB36  53                push ebx
0000AB37  325F45            xor bl,[edi+0x45]
0000AB3A  45                inc ebp
0000AB3B  3132              xor [edx],esi
0000AB3D  5F                pop edi
0000AB3E  4D                dec ebp
0000AB3F  5F                pop edi
0000AB40  636865            arpl [eax+0x65],bp
0000AB43  636B5F            arpl [ebx+0x5f],bp
0000AB46  6C                insb
0000AB47  656E              gs outsb
0000AB49  45                inc ebp
0000AB4A  6A50              push byte +0x50
0000AB4C  4B                dec ebx
0000AB4D  6300              arpl [eax],ax
0000AB4F  5F                pop edi
0000AB50  5A                pop edx
0000AB51  4E                dec esi
0000AB52  53                push ebx
0000AB53  61                popa
0000AB54  49                dec ecx
0000AB55  53                push ebx
0000AB56  7434              jz 0xab8c
0000AB58  7061              jo 0xabbb
0000AB5A  69724969535F49    imul esi,[edx+0x49],dword 0x495f5369
0000AB61  69694545454432    imul ebp,[ecx+0x45],dword 0x32444545
0000AB68  45                inc ebp
0000AB69  7600              jna 0xab6b
0000AB6B  5F                pop edi
0000AB6C  5A                pop edx
0000AB6D  36696E7369646569  imul ebp,[ss:esi+0x73],dword 0x69656469
0000AB75  696969005F5A4E    imul ebp,[ecx+0x69],dword 0x4e5a5f00
0000AB7C  53                push ebx
0000AB7D  61                popa
0000AB7E  49                dec ecx
0000AB7F  53                push ebx
0000AB80  7434              jz 0xabb6
0000AB82  7061              jo 0xabe5
0000AB84  69724969535F49    imul esi,[edx+0x49],dword 0x495f5369
0000AB8B  69694545454331    imul ebp,[ecx+0x45],dword 0x31434545
0000AB92  45                inc ebp
0000AB93  7600              jna 0xab95
0000AB95  5F                pop edi
0000AB96  5A                pop edx
0000AB97  4E                dec esi
0000AB98  53                push ebx
0000AB99  7431              jz 0xabcc
0000AB9B  325F56            xor bl,[edi+0x56]
0000AB9E  6563746F72        arpl [gs:edi+ebp*2+0x72],si
0000ABA3  5F                pop edi
0000ABA4  626173            bound esp,[ecx+0x73]
0000ABA7  6549              gs dec ecx
0000ABA9  53                push ebx
0000ABAA  7434              jz 0xabe0
0000ABAC  7061              jo 0xac0f
0000ABAE  6972496953305F    imul esi,[edx+0x49],dword 0x5f305369
0000ABB5  49                dec ecx
0000ABB6  69694545536149    imul ebp,[ecx+0x45],dword 0x49615345
0000ABBD  53                push ebx
0000ABBE  325F45            xor bl,[edi+0x45]
0000ABC1  45                inc ebp
0000ABC2  3132              xor [edx],esi
0000ABC4  5F                pop edi
0000ABC5  56                push esi
0000ABC6  6563746F72        arpl [gs:edi+ebp*2+0x72],si
0000ABCB  5F                pop edi
0000ABCC  696D706C433245    imul ebp,[ebp+0x70],dword 0x4532436c
0000ABD3  7600              jna 0xabd5
0000ABD5  5F                pop edi
0000ABD6  5A                pop edx
0000ABD7  53                push ebx
0000ABD8  7431              jz 0xac0b
0000ABDA  335F5F            xor ebx,[edi+0x5f]
0000ABDD  636F70            arpl [edi+0x70],bp
0000ABE0  795F              jns 0xac41
0000ABE2  6D                insd
0000ABE3  6F                outsd
0000ABE4  7665              jna 0xac4b
0000ABE6  5F                pop edi
0000ABE7  61                popa
0000ABE8  49                dec ecx
0000ABE9  4C                dec esp
0000ABEA  6230              bound esi,[eax]
0000ABEC  45                inc ebp
0000ABED  50                push eax
0000ABEE  4B                dec ebx
0000ABEF  6950694554315F    imul edx,[eax+0x69],dword 0x5f315445
0000ABF6  54                push esp
0000ABF7  305F53            xor [edi+0x53],bl
0000ABFA  345F              xor al,0x5f
0000ABFC  53                push ebx
0000ABFD  335F00            xor ebx,[edi+0x0]
0000AC00  5F                pop edi
0000AC01  5A                pop edx
0000AC02  4E                dec esi
0000AC03  53                push ebx
0000AC04  7436              jz 0xac3c
0000AC06  7665              jna 0xac6d
0000AC08  63746F72          arpl [edi+ebp*2+0x72],si
0000AC0C  49                dec ecx
0000AC0D  69536149694545    imul edx,[ebx+0x61],dword 0x45456949
0000AC14  44                inc esp
0000AC15  324576            xor al,[ebp+0x76]
0000AC18  005F5A            add [edi+0x5a],bl
0000AC1B  4E                dec esi
0000AC1C  395F5F            cmp [edi+0x5f],ebx
0000AC1F  676E              a16 outsb
0000AC21  755F              jnz 0xac82
0000AC23  637878            arpl [eax+0x78],di
0000AC26  6D                insd
0000AC27  69495053743470    imul ecx,[ecx+0x50],dword 0x70347453
0000AC2E  61                popa
0000AC2F  6972496953315F    imul esi,[edx+0x49],dword 0x5f315369
0000AC36  49                dec ecx
0000AC37  69694545537436    imul ebp,[ecx+0x45],dword 0x36745345
0000AC3E  7665              jna 0xaca5
0000AC40  63746F72          arpl [edi+ebp*2+0x72],si
0000AC44  49                dec ecx
0000AC45  53                push ebx
0000AC46  335F53            xor ebx,[edi+0x53]
0000AC49  61                popa
0000AC4A  49                dec ecx
0000AC4B  53                push ebx
0000AC4C  335F45            xor ebx,[edi+0x45]
0000AC4F  45                inc ebp
0000AC50  45                inc ebp
0000AC51  45                inc ebp
0000AC52  4E                dec esi
0000AC53  53                push ebx
0000AC54  5F                pop edi
0000AC55  3137              xor [edi],esi
0000AC57  5F                pop edi
0000AC58  5F                pop edi
0000AC59  6E                outsb
0000AC5A  6F                outsd
0000AC5B  726D              jc 0xacca
0000AC5D  61                popa
0000AC5E  6C                insb
0000AC5F  5F                pop edi
0000AC60  6974657261746F72  imul esi,[ebp+0x72],dword 0x726f7461
0000AC68  49                dec ecx
0000AC69  54                push esp
0000AC6A  5F                pop edi
0000AC6B  54                push esp
0000AC6C  305F45            xor [edi+0x45],bl
0000AC6F  313564696666      xor [0x66666964],esi
0000AC75  657265            gs jc 0xacdd
0000AC78  6E                outsb
0000AC79  63655F            arpl [ebp+0x5f],sp
0000AC7C  7479              jz 0xacf7
0000AC7E  7065              jo 0xace5
0000AC80  45                inc ebp
0000AC81  52                push edx
0000AC82  4B                dec ebx
0000AC83  53                push ebx
0000AC84  42                inc edx
0000AC85  5F                pop edi
0000AC86  53                push ebx
0000AC87  45                inc ebp
0000AC88  5F                pop edi
0000AC89  005F5A            add [edi+0x5a],bl
0000AC8C  53                push ebx
0000AC8D  746C              jz 0xacfb
0000AC8F  7449              jz 0xacda
0000AC91  69537434706169    imul edx,[ebx+0x74],dword 0x69617034
0000AC98  7249              jc 0xace3
0000AC9A  6969454562524B    imul ebp,[ecx+0x45],dword 0x4b526245
0000ACA1  53                push ebx
0000ACA2  305F49            xor [edi+0x49],bl
0000ACA5  54                push esp
0000ACA6  5F                pop edi
0000ACA7  54                push esp
0000ACA8  305F45            xor [edi+0x45],bl
0000ACAB  53                push ebx
0000ACAC  365F              ss pop edi
0000ACAE  005F5A            add [edi+0x5a],bl
0000ACB1  4E                dec esi
0000ACB2  53                push ebx
0000ACB3  7431              jz 0xace6
0000ACB5  325F56            xor bl,[edi+0x56]
0000ACB8  6563746F72        arpl [gs:edi+ebp*2+0x72],si
0000ACBD  5F                pop edi
0000ACBE  626173            bound esp,[ecx+0x73]
0000ACC1  6549              gs dec ecx
0000ACC3  53                push ebx
0000ACC4  7434              jz 0xacfa
0000ACC6  7061              jo 0xad29
0000ACC8  6972496953305F    imul esi,[edx+0x49],dword 0x5f305369
0000ACCF  49                dec ecx
0000ACD0  69694545536149    imul ebp,[ecx+0x45],dword 0x49615345
0000ACD7  53                push ebx
0000ACD8  325F45            xor bl,[edi+0x45]
0000ACDB  45                inc ebp
0000ACDC  3131              xor [ecx],esi
0000ACDE  5F                pop edi
0000ACDF  4D                dec ebp
0000ACE0  5F                pop edi
0000ACE1  61                popa
0000ACE2  6C                insb
0000ACE3  6C                insb
0000ACE4  6F                outsd
0000ACE5  636174            arpl [ecx+0x74],sp
0000ACE8  6545              gs inc ebp
0000ACEA  6A00              push byte +0x0
0000ACEC  5F                pop edi
0000ACED  5A                pop edx
0000ACEE  4E                dec esi
0000ACEF  4B                dec ebx
0000ACF0  395F5F            cmp [edi+0x5f],ebx
0000ACF3  676E              a16 outsb
0000ACF5  755F              jnz 0xad56
0000ACF7  637878            arpl [eax+0x78],di
0000ACFA  3137              xor [edi],esi
0000ACFC  5F                pop edi
0000ACFD  5F                pop edi
0000ACFE  6E                outsb
0000ACFF  6F                outsd
0000AD00  726D              jc 0xad6f
0000AD02  61                popa
0000AD03  6C                insb
0000AD04  5F                pop edi
0000AD05  6974657261746F72  imul esi,[ebp+0x72],dword 0x726f7461
0000AD0D  49                dec ecx
0000AD0E  50                push eax
0000AD0F  4B                dec ebx
0000AD10  69537436766563    imul edx,[ebx+0x74],dword 0x63657636
0000AD17  746F              jz 0xad88
0000AD19  7249              jc 0xad64
0000AD1B  69536149694545    imul edx,[ebx+0x61],dword 0x45456949
0000AD22  45                inc ebp
0000AD23  3462              xor al,0x62
0000AD25  61                popa
0000AD26  7365              jnc 0xad8d
0000AD28  45                inc ebp
0000AD29  7600              jna 0xad2b
0000AD2B  5F                pop edi
0000AD2C  5A                pop edx
0000AD2D  53                push ebx
0000AD2E  7431              jz 0xad61
0000AD30  315F5F            xor [edi+0x5f],ebx
0000AD33  61                popa
0000AD34  64647265          fs jc 0xad9d
0000AD38  7373              jnc 0xadad
0000AD3A  6F                outsd
0000AD3B  6649              dec cx
0000AD3D  53                push ebx
0000AD3E  7434              jz 0xad74
0000AD40  7061              jo 0xada3
0000AD42  6972496953305F    imul esi,[edx+0x49],dword 0x5f305369
0000AD49  49                dec ecx
0000AD4A  69694545455054    imul ebp,[ecx+0x45],dword 0x54504545
0000AD51  5F                pop edi
0000AD52  52                push edx
0000AD53  53                push ebx
0000AD54  335F00            xor ebx,[edi+0x0]
0000AD57  5F                pop edi
0000AD58  5F                pop edi
0000AD59  627373            bound esi,[ebx+0x73]
0000AD5C  5F                pop edi
0000AD5D  7374              jnc 0xadd3
0000AD5F  61                popa
0000AD60  7274              jc 0xadd6
0000AD62  005F5A            add [edi+0x5a],bl
0000AD65  53                push ebx
0000AD66  7433              jz 0xad9b
0000AD68  6D                insd
0000AD69  61                popa
0000AD6A  7849              js 0xadb5
0000AD6C  6A45              push byte +0x45
0000AD6E  52                push edx
0000AD6F  4B                dec ebx
0000AD70  54                push esp
0000AD71  5F                pop edi
0000AD72  53                push ebx
0000AD73  325F53            xor bl,[edi+0x53]
0000AD76  325F00            xor bl,[edi+0x0]
0000AD79  5F                pop edi
0000AD7A  5A                pop edx
0000AD7B  4E                dec esi
0000AD7C  53                push ebx
0000AD7D  7436              jz 0xadb5
0000AD7F  7665              jna 0xade6
0000AD81  63746F72          arpl [edi+ebp*2+0x72],si
0000AD85  49                dec ecx
0000AD86  53                push ebx
0000AD87  5F                pop edi
0000AD88  49                dec ecx
0000AD89  69536149694545    imul edx,[ebx+0x61],dword 0x45456949
0000AD90  53                push ebx
0000AD91  61                popa
0000AD92  49                dec ecx
0000AD93  53                push ebx
0000AD94  315F45            xor [edi+0x45],ebx
0000AD97  45                inc ebp
0000AD98  6978456A005F5A    imul edi,[eax+0x45],dword 0x5a5f006a
0000AD9F  4E                dec esi
0000ADA0  53                push ebx
0000ADA1  61                popa
0000ADA2  49                dec ecx
0000ADA3  6945433245524B    imul eax,[ebp+0x43],dword 0x4b524532
0000ADAA  53                push ebx
0000ADAB  5F                pop edi
0000ADAC  005F5A            add [edi+0x5a],bl
0000ADAF  4E                dec esi
0000ADB0  53                push ebx
0000ADB1  61                popa
0000ADB2  49                dec ecx
0000ADB3  53                push ebx
0000ADB4  7436              jz 0xadec
0000ADB6  7665              jna 0xae1d
0000ADB8  63746F72          arpl [edi+ebp*2+0x72],si
0000ADBC  49                dec ecx
0000ADBD  69536149694545    imul edx,[ebx+0x61],dword 0x45456949
0000ADC4  45                inc ebp
0000ADC5  43                inc ebx
0000ADC6  314552            xor [ebp+0x52],eax
0000ADC9  4B                dec ebx
0000ADCA  53                push ebx
0000ADCB  325F00            xor bl,[edi+0x0]
0000ADCE  5F                pop edi
0000ADCF  5A                pop edx
0000ADD0  53                push ebx
0000ADD1  7433              jz 0xae06
0000ADD3  6D                insd
0000ADD4  61                popa
0000ADD5  7849              js 0xae20
0000ADD7  6945524B545F53    imul eax,[ebp+0x52],dword 0x535f544b
0000ADDE  325F53            xor bl,[edi+0x53]
0000ADE1  325F00            xor bl,[edi+0x0]
0000ADE4  5F                pop edi
0000ADE5  5A                pop edx
0000ADE6  4E                dec esi
0000ADE7  53                push ebx
0000ADE8  7436              jz 0xae20
0000ADEA  7665              jna 0xae51
0000ADEC  63746F72          arpl [edi+ebp*2+0x72],si
0000ADF0  49                dec ecx
0000ADF1  53                push ebx
0000ADF2  7434              jz 0xae28
0000ADF4  7061              jo 0xae57
0000ADF6  6972496953305F    imul esi,[edx+0x49],dword 0x5f305369
0000ADFD  49                dec ecx
0000ADFE  69694545536149    imul ebp,[ecx+0x45],dword 0x49615345
0000AE05  53                push ebx
0000AE06  325F45            xor bl,[edi+0x45]
0000AE09  45                inc ebp
0000AE0A  33656E            xor esp,[ebp+0x6e]
0000AE0D  6445              fs inc ebp
0000AE0F  7600              jna 0xae11
0000AE11  5F                pop edi
0000AE12  5A                pop edx
0000AE13  4E                dec esi
0000AE14  395F5F            cmp [edi+0x5f],ebx
0000AE17  676E              a16 outsb
0000AE19  755F              jnz 0xae7a
0000AE1B  637878            arpl [eax+0x78],di
0000AE1E  3133              xor [ebx],esi
0000AE20  6E                outsb
0000AE21  65775F            gs ja 0xae83
0000AE24  61                popa
0000AE25  6C                insb
0000AE26  6C                insb
0000AE27  6F                outsd
0000AE28  636174            arpl [ecx+0x74],sp
0000AE2B  6F                outsd
0000AE2C  7249              jc 0xae77
0000AE2E  53                push ebx
0000AE2F  7434              jz 0xae65
0000AE31  7061              jo 0xae94
0000AE33  6972496953315F    imul esi,[edx+0x49],dword 0x5f315369
0000AE3A  49                dec ecx
0000AE3B  69694545453861    imul ebp,[ecx+0x45],dword 0x61384545
0000AE42  6C                insb
0000AE43  6C                insb
0000AE44  6F                outsd
0000AE45  636174            arpl [ecx+0x74],sp
0000AE48  6545              gs inc ebp
0000AE4A  6A50              push byte +0x50
0000AE4C  4B                dec ebx
0000AE4D  7600              jna 0xae4f
0000AE4F  5F                pop edi
0000AE50  5A                pop edx
0000AE51  4E                dec esi
0000AE52  4B                dec ebx
0000AE53  53                push ebx
0000AE54  7436              jz 0xae8c
0000AE56  7665              jna 0xaebd
0000AE58  63746F72          arpl [edi+ebp*2+0x72],si
0000AE5C  49                dec ecx
0000AE5D  53                push ebx
0000AE5E  7434              jz 0xae94
0000AE60  7061              jo 0xaec3
0000AE62  6972496953305F    imul esi,[edx+0x49],dword 0x5f305369
0000AE69  49                dec ecx
0000AE6A  69694545536149    imul ebp,[ecx+0x45],dword 0x49615345
0000AE71  53                push ebx
0000AE72  325F45            xor bl,[edi+0x45]
0000AE75  45                inc ebp
0000AE76  386D61            cmp [ebp+0x61],ch
0000AE79  785F              js 0xaeda
0000AE7B  7369              jnc 0xaee6
0000AE7D  7A65              jpe 0xaee4
0000AE7F  45                inc ebp
0000AE80  7600              jna 0xae82
0000AE82  5F                pop edi
0000AE83  5A                pop edx
0000AE84  53                push ebx
0000AE85  7432              jz 0xaeb9
0000AE87  325F5F            xor bl,[edi+0x5f]
0000AE8A  756E              jnz 0xaefa
0000AE8C  696E697469616C    imul ebp,[esi+0x69],dword 0x6c616974
0000AE93  697A65645F636F    imul edi,[edx+0x65],dword 0x6f635f64
0000AE9A  7079              jo 0xaf15
0000AE9C  5F                pop edi
0000AE9D  61                popa
0000AE9E  49                dec ecx
0000AE9F  4E                dec esi
0000AEA0  395F5F            cmp [edi+0x5f],ebx
0000AEA3  676E              a16 outsb
0000AEA5  755F              jnz 0xaf06
0000AEA7  637878            arpl [eax+0x78],di
0000AEAA  3137              xor [edi],esi
0000AEAC  5F                pop edi
0000AEAD  5F                pop edi
0000AEAE  6E                outsb
0000AEAF  6F                outsd
0000AEB0  726D              jc 0xaf1f
0000AEB2  61                popa
0000AEB3  6C                insb
0000AEB4  5F                pop edi
0000AEB5  6974657261746F72  imul esi,[ebp+0x72],dword 0x726f7461
0000AEBD  49                dec ecx
0000AEBE  50                push eax
0000AEBF  4B                dec ebx
0000AEC0  53                push ebx
0000AEC1  7434              jz 0xaef7
0000AEC3  7061              jo 0xaf26
0000AEC5  6972496953325F    imul esi,[edx+0x49],dword 0x5f325369
0000AECC  49                dec ecx
0000AECD  69694545537436    imul ebp,[ecx+0x45],dword 0x36745345
0000AED4  7665              jna 0xaf3b
0000AED6  63746F72          arpl [edi+ebp*2+0x72],si
0000AEDA  49                dec ecx
0000AEDB  53                push ebx
0000AEDC  345F              xor al,0x5f
0000AEDE  53                push ebx
0000AEDF  61                popa
0000AEE0  49                dec ecx
0000AEE1  53                push ebx
0000AEE2  345F              xor al,0x5f
0000AEE4  45                inc ebp
0000AEE5  45                inc ebp
0000AEE6  45                inc ebp
0000AEE7  45                inc ebp
0000AEE8  50                push eax
0000AEE9  53                push ebx
0000AEEA  345F              xor al,0x5f
0000AEEC  53                push ebx
0000AEED  345F              xor al,0x5f
0000AEEF  45                inc ebp
0000AEF0  54                push esp
0000AEF1  305F54            xor [edi+0x54],bl
0000AEF4  5F                pop edi
0000AEF5  53                push ebx
0000AEF6  44                inc esp
0000AEF7  5F                pop edi
0000AEF8  53                push ebx
0000AEF9  43                inc ebx
0000AEFA  5F                pop edi
0000AEFB  52                push edx
0000AEFC  53                push ebx
0000AEFD  61                popa
0000AEFE  49                dec ecx
0000AEFF  54                push esp
0000AF00  315F45            xor [edi+0x45],ebx
0000AF03  005F5A            add [edi+0x5a],bl
0000AF06  4E                dec esi
0000AF07  395F5F            cmp [edi+0x5f],ebx
0000AF0A  676E              a16 outsb
0000AF0C  755F              jnz 0xaf6d
0000AF0E  637878            arpl [eax+0x78],di
0000AF11  657149            gs jno 0xaf5d
0000AF14  50                push eax
0000AF15  4B                dec ebx
0000AF16  53                push ebx
0000AF17  7434              jz 0xaf4d
0000AF19  7061              jo 0xaf7c
0000AF1B  6972496953315F    imul esi,[edx+0x49],dword 0x5f315369
0000AF22  49                dec ecx
0000AF23  69694545537436    imul ebp,[ecx+0x45],dword 0x36745345
0000AF2A  7665              jna 0xaf91
0000AF2C  63746F72          arpl [edi+ebp*2+0x72],si
0000AF30  49                dec ecx
0000AF31  53                push ebx
0000AF32  335F53            xor ebx,[edi+0x53]
0000AF35  61                popa
0000AF36  49                dec ecx
0000AF37  53                push ebx
0000AF38  335F45            xor ebx,[edi+0x45]
0000AF3B  45                inc ebp
0000AF3C  45                inc ebp
0000AF3D  45                inc ebp
0000AF3E  62524B            bound edx,[edx+0x4b]
0000AF41  4E                dec esi
0000AF42  53                push ebx
0000AF43  5F                pop edi
0000AF44  3137              xor [edi],esi
0000AF46  5F                pop edi
0000AF47  5F                pop edi
0000AF48  6E                outsb
0000AF49  6F                outsd
0000AF4A  726D              jc 0xafb9
0000AF4C  61                popa
0000AF4D  6C                insb
0000AF4E  5F                pop edi
0000AF4F  6974657261746F72  imul esi,[ebp+0x72],dword 0x726f7461
0000AF57  49                dec ecx
0000AF58  54                push esp
0000AF59  5F                pop edi
0000AF5A  54                push esp
0000AF5B  305F45            xor [edi+0x45],bl
0000AF5E  45                inc ebp
0000AF5F  53                push ebx
0000AF60  45                inc ebp
0000AF61  5F                pop edi
0000AF62  005F5A            add [edi+0x5a],bl
0000AF65  4E                dec esi
0000AF66  53                push ebx
0000AF67  7431              jz 0xaf9a
0000AF69  325F56            xor bl,[edi+0x56]
0000AF6C  6563746F72        arpl [gs:edi+ebp*2+0x72],si
0000AF71  5F                pop edi
0000AF72  626173            bound esp,[ecx+0x73]
0000AF75  6549              gs dec ecx
0000AF77  53                push ebx
0000AF78  7436              jz 0xafb0
0000AF7A  7665              jna 0xafe1
0000AF7C  63746F72          arpl [edi+ebp*2+0x72],si
0000AF80  49                dec ecx
0000AF81  69536149694545    imul edx,[ebx+0x61],dword 0x45456949
0000AF88  53                push ebx
0000AF89  61                popa
0000AF8A  49                dec ecx
0000AF8B  53                push ebx
0000AF8C  325F45            xor bl,[edi+0x45]
0000AF8F  45                inc ebp
0000AF90  43                inc ebx
0000AF91  32456A            xor al,[ebp+0x6a]
0000AF94  52                push edx
0000AF95  4B                dec ebx
0000AF96  53                push ebx
0000AF97  335F00            xor ebx,[edi+0x0]
0000AF9A  5F                pop edi
0000AF9B  5A                pop edx
0000AF9C  4E                dec esi
0000AF9D  53                push ebx
0000AF9E  7436              jz 0xafd6
0000AFA0  7665              jna 0xb007
0000AFA2  63746F72          arpl [edi+ebp*2+0x72],si
0000AFA6  49                dec ecx
0000AFA7  53                push ebx
0000AFA8  5F                pop edi
0000AFA9  49                dec ecx
0000AFAA  69536149694545    imul edx,[ebx+0x61],dword 0x45456949
0000AFB1  53                push ebx
0000AFB2  61                popa
0000AFB3  49                dec ecx
0000AFB4  53                push ebx
0000AFB5  315F45            xor [edi+0x45],ebx
0000AFB8  45                inc ebp
0000AFB9  43                inc ebx
0000AFBA  31456A            xor [ebp+0x6a],eax
0000AFBD  52                push edx
0000AFBE  4B                dec ebx
0000AFBF  53                push ebx
0000AFC0  315F52            xor [edi+0x52],ebx
0000AFC3  4B                dec ebx
0000AFC4  53                push ebx
0000AFC5  325F00            xor bl,[edi+0x0]
0000AFC8  5F                pop edi
0000AFC9  5A                pop edx
0000AFCA  53                push ebx
0000AFCB  7438              jz 0xb005
0000AFCD  5F                pop edi
0000AFCE  44                inc esp
0000AFCF  657374            gs jnc 0xb046
0000AFD2  726F              jc 0xb043
0000AFD4  7949              jns 0xb01f
0000AFD6  50                push eax
0000AFD7  53                push ebx
0000AFD8  7434              jz 0xb00e
0000AFDA  7061              jo 0xb03d
0000AFDC  6972496953305F    imul esi,[edx+0x49],dword 0x5f305369
0000AFE3  49                dec ecx
0000AFE4  6969454553325F    imul ebp,[ecx+0x45],dword 0x5f325345
0000AFEB  45                inc ebp
0000AFEC  7654              jna 0xb042
0000AFEE  5F                pop edi
0000AFEF  53                push ebx
0000AFF0  345F              xor al,0x5f
0000AFF2  52                push edx
0000AFF3  53                push ebx
0000AFF4  61                popa
0000AFF5  49                dec ecx
0000AFF6  54                push esp
0000AFF7  305F45            xor [edi+0x45],bl
0000AFFA  005F5A            add [edi+0x5a],bl
0000AFFD  53                push ebx
0000AFFE  7432              jz 0xb032
0000B000  325F5F            xor bl,[edi+0x5f]
0000B003  756E              jnz 0xb073
0000B005  696E697469616C    imul ebp,[esi+0x69],dword 0x6c616974
0000B00C  697A65645F636F    imul edi,[edx+0x65],dword 0x6f635f64
0000B013  7079              jo 0xb08e
0000B015  5F                pop edi
0000B016  61                popa
0000B017  49                dec ecx
0000B018  50                push eax
0000B019  53                push ebx
0000B01A  7434              jz 0xb050
0000B01C  7061              jo 0xb07f
0000B01E  6972496953305F    imul esi,[edx+0x49],dword 0x5f305369
0000B025  49                dec ecx
0000B026  6969454553335F    imul ebp,[ecx+0x45],dword 0x5f335345
0000B02D  53                push ebx
0000B02E  325F45            xor bl,[edi+0x45]
0000B031  54                push esp
0000B032  305F54            xor [edi+0x54],bl
0000B035  5F                pop edi
0000B036  53                push ebx
0000B037  355F53345F        xor eax,0x5f34535f
0000B03C  52                push edx
0000B03D  53                push ebx
0000B03E  61                popa
0000B03F  49                dec ecx
0000B040  54                push esp
0000B041  315F45            xor [edi+0x45],ebx
0000B044  005F5A            add [edi+0x5a],bl
0000B047  4E                dec esi
0000B048  53                push ebx
0000B049  69727345526940    imul esi,[edx+0x73],dword 0x40695245
0000B050  40                inc eax
0000B051  47                inc edi
0000B052  4C                dec esp
0000B053  49                dec ecx
0000B054  42                inc edx
0000B055  43                inc ebx
0000B056  58                pop eax
0000B057  58                pop eax
0000B058  5F                pop edi
0000B059  332E              xor ebp,[esi]
0000B05B  3400              xor al,0x0
0000B05D  5F                pop edi
0000B05E  5A                pop edx
0000B05F  53                push ebx
0000B060  7433              jz 0xb095
0000B062  6D                insd
0000B063  696E496945524B    imul ebp,[esi+0x49],dword 0x4b524569
0000B06A  54                push esp
0000B06B  5F                pop edi
0000B06C  53                push ebx
0000B06D  325F53            xor bl,[edi+0x53]
0000B070  325F00            xor bl,[edi+0x0]
0000B073  5F                pop edi
0000B074  5A                pop edx
0000B075  4E                dec esi
0000B076  53                push ebx
0000B077  61                popa
0000B078  49                dec ecx
0000B079  53                push ebx
0000B07A  7436              jz 0xb0b2
0000B07C  7665              jna 0xb0e3
0000B07E  63746F72          arpl [edi+ebp*2+0x72],si
0000B082  49                dec ecx
0000B083  69536149694545    imul edx,[ebx+0x61],dword 0x45456949
0000B08A  45                inc ebp
0000B08B  43                inc ebx
0000B08C  324552            xor al,[ebp+0x52]
0000B08F  4B                dec ebx
0000B090  53                push ebx
0000B091  325F00            xor bl,[edi+0x0]
0000B094  5F                pop edi
0000B095  5A                pop edx
0000B096  4E                dec esi
0000B097  53                push ebx
0000B098  7431              jz 0xb0cb
0000B09A  325F56            xor bl,[edi+0x56]
0000B09D  6563746F72        arpl [gs:edi+ebp*2+0x72],si
0000B0A2  5F                pop edi
0000B0A3  626173            bound esp,[ecx+0x73]
0000B0A6  6549              gs dec ecx
0000B0A8  53                push ebx
0000B0A9  7436              jz 0xb0e1
0000B0AB  7665              jna 0xb112
0000B0AD  63746F72          arpl [edi+ebp*2+0x72],si
0000B0B1  49                dec ecx
0000B0B2  69536149694545    imul edx,[ebx+0x61],dword 0x45456949
0000B0B9  53                push ebx
0000B0BA  61                popa
0000B0BB  49                dec ecx
0000B0BC  53                push ebx
0000B0BD  325F45            xor bl,[edi+0x45]
0000B0C0  45                inc ebp
0000B0C1  3131              xor [ecx],esi
0000B0C3  5F                pop edi
0000B0C4  4D                dec ebp
0000B0C5  5F                pop edi
0000B0C6  61                popa
0000B0C7  6C                insb
0000B0C8  6C                insb
0000B0C9  6F                outsd
0000B0CA  636174            arpl [ecx+0x74],sp
0000B0CD  6545              gs inc ebp
0000B0CF  6A00              push byte +0x0
0000B0D1  5F                pop edi
0000B0D2  5A                pop edx
0000B0D3  4E                dec esi
0000B0D4  53                push ebx
0000B0D5  7431              jz 0xb108
0000B0D7  305F49            xor [edi+0x49],bl
0000B0DA  7465              jz 0xb141
0000B0DC  725F              jc 0xb13d
0000B0DE  626173            bound esp,[ecx+0x73]
0000B0E1  6549              gs dec ecx
0000B0E3  4E                dec esi
0000B0E4  395F5F            cmp [edi+0x5f],ebx
0000B0E7  676E              a16 outsb
0000B0E9  755F              jnz 0xb14a
0000B0EB  637878            arpl [eax+0x78],di
0000B0EE  3137              xor [edi],esi
0000B0F0  5F                pop edi
0000B0F1  5F                pop edi
0000B0F2  6E                outsb
0000B0F3  6F                outsd
0000B0F4  726D              jc 0xb163
0000B0F6  61                popa
0000B0F7  6C                insb
0000B0F8  5F                pop edi
0000B0F9  6974657261746F72  imul esi,[ebp+0x72],dword 0x726f7461
0000B101  49                dec ecx
0000B102  50                push eax
0000B103  4B                dec ebx
0000B104  69537436766563    imul edx,[ebx+0x74],dword 0x63657636
0000B10B  746F              jz 0xb17c
0000B10D  7249              jc 0xb158
0000B10F  69536149694545    imul edx,[ebx+0x61],dword 0x45456949
0000B116  45                inc ebp
0000B117  45                inc ebp
0000B118  4C                dec esp
0000B119  6231              bound esi,[ecx]
0000B11B  45                inc ebp
0000B11C  45                inc ebp
0000B11D  37                aaa
0000B11E  5F                pop edi
0000B11F  53                push ebx
0000B120  5F                pop edi
0000B121  626173            bound esp,[ecx+0x73]
0000B124  6545              gs inc ebp
0000B126  53                push ebx
0000B127  37                aaa
0000B128  5F                pop edi
0000B129  006D65            add [ebp+0x65],ch
0000B12C  6D                insd
0000B12D  6D                insd
0000B12E  6F                outsd
0000B12F  7665              jna 0xb196
0000B131  40                inc eax
0000B132  40                inc eax
0000B133  47                inc edi
0000B134  4C                dec esp
0000B135  49                dec ecx
0000B136  42                inc edx
0000B137  43                inc ebx
0000B138  5F                pop edi
0000B139  322E              xor ch,[esi]
0000B13B  3000              xor [eax],al
0000B13D  5F                pop edi
0000B13E  5A                pop edx
0000B13F  4E                dec esi
0000B140  395F5F            cmp [edi+0x5f],ebx
0000B143  676E              a16 outsb
0000B145  755F              jnz 0xb1a6
0000B147  637878            arpl [eax+0x78],di
0000B14A  3133              xor [ebx],esi
0000B14C  6E                outsb
0000B14D  65775F            gs ja 0xb1af
0000B150  61                popa
0000B151  6C                insb
0000B152  6C                insb
0000B153  6F                outsd
0000B154  636174            arpl [ecx+0x74],sp
0000B157  6F                outsd
0000B158  7249              jc 0xb1a3
0000B15A  694538616C6C6F    imul eax,[ebp+0x38],dword 0x6f6c6c61
0000B161  636174            arpl [ecx+0x74],sp
0000B164  6545              gs inc ebp
0000B166  6A50              push byte +0x50
0000B168  4B                dec ebx
0000B169  7600              jna 0xb16b
0000B16B  5F                pop edi
0000B16C  5A                pop edx
0000B16D  4E                dec esi
0000B16E  53                push ebx
0000B16F  7431              jz 0xb1a2
0000B171  325F56            xor bl,[edi+0x56]
0000B174  6563746F72        arpl [gs:edi+ebp*2+0x72],si
0000B179  5F                pop edi
0000B17A  626173            bound esp,[ecx+0x73]
0000B17D  6549              gs dec ecx
0000B17F  53                push ebx
0000B180  7434              jz 0xb1b6
0000B182  7061              jo 0xb1e5
0000B184  6972496953305F    imul esi,[edx+0x49],dword 0x5f305369
0000B18B  49                dec ecx
0000B18C  69694545536149    imul ebp,[ecx+0x45],dword 0x49615345
0000B193  53                push ebx
0000B194  325F45            xor bl,[edi+0x45]
0000B197  45                inc ebp
0000B198  3132              xor [edx],esi
0000B19A  5F                pop edi
0000B19B  56                push esi
0000B19C  6563746F72        arpl [gs:edi+ebp*2+0x72],si
0000B1A1  5F                pop edi
0000B1A2  696D706C433145    imul ebp,[ebp+0x70],dword 0x4531436c
0000B1A9  7600              jna 0xb1ab
0000B1AB  5F                pop edi
0000B1AC  5A                pop edx
0000B1AD  4E                dec esi
0000B1AE  53                push ebx
0000B1AF  7431              jz 0xb1e2
0000B1B1  3470              xor al,0x70
0000B1B3  7269              jc 0xb21e
0000B1B5  6F                outsd
0000B1B6  7269              jc 0xb221
0000B1B8  7479              jz 0xb233
0000B1BA  5F                pop edi
0000B1BB  7175              jno 0xb232
0000B1BD  657565            gs jnz 0xb225
0000B1C0  49                dec ecx
0000B1C1  53                push ebx
0000B1C2  7434              jz 0xb1f8
0000B1C4  7061              jo 0xb227
0000B1C6  6972496953305F    imul esi,[edx+0x49],dword 0x5f305369
0000B1CD  49                dec ecx
0000B1CE  69694545537436    imul ebp,[ecx+0x45],dword 0x36745345
0000B1D5  7665              jna 0xb23c
0000B1D7  63746F72          arpl [edi+ebp*2+0x72],si
0000B1DB  49                dec ecx
0000B1DC  53                push ebx
0000B1DD  325F53            xor bl,[edi+0x53]
0000B1E0  61                popa
0000B1E1  49                dec ecx
0000B1E2  53                push ebx
0000B1E3  325F45            xor bl,[edi+0x45]
0000B1E6  45                inc ebp
0000B1E7  53                push ebx
0000B1E8  7437              jz 0xb221
0000B1EA  677265            a16 jc 0xb252
0000B1ED  61                popa
0000B1EE  7465              jz 0xb255
0000B1F0  7249              jc 0xb23b
0000B1F2  53                push ebx
0000B1F3  325F45            xor bl,[edi+0x45]
0000B1F6  45                inc ebp
0000B1F7  43                inc ebx
0000B1F8  314552            xor [ebp+0x52],eax
0000B1FB  4B                dec ebx
0000B1FC  53                push ebx
0000B1FD  37                aaa
0000B1FE  5F                pop edi
0000B1FF  52                push edx
0000B200  4B                dec ebx
0000B201  53                push ebx
0000B202  355F005F5A        xor eax,0x5a5f005f
0000B207  4E                dec esi
0000B208  395F5F            cmp [edi+0x5f],ebx
0000B20B  676E              a16 outsb
0000B20D  755F              jnz 0xb26e
0000B20F  637878            arpl [eax+0x78],di
0000B212  3133              xor [ebx],esi
0000B214  6E                outsb
0000B215  65775F            gs ja 0xb277
0000B218  61                popa
0000B219  6C                insb
0000B21A  6C                insb
0000B21B  6F                outsd
0000B21C  636174            arpl [ecx+0x74],sp
0000B21F  6F                outsd
0000B220  7249              jc 0xb26b
0000B222  53                push ebx
0000B223  7436              jz 0xb25b
0000B225  7665              jna 0xb28c
0000B227  63746F72          arpl [edi+ebp*2+0x72],si
0000B22B  49                dec ecx
0000B22C  69536149694545    imul edx,[ebx+0x61],dword 0x45456949
0000B233  45                inc ebp
0000B234  43                inc ebx
0000B235  314552            xor [ebp+0x52],eax
0000B238  4B                dec ebx
0000B239  53                push ebx
0000B23A  345F              xor al,0x5f
0000B23C  005F5A            add [edi+0x5a],bl
0000B23F  4E                dec esi
0000B240  53                push ebx
0000B241  7434              jz 0xb277
0000B243  7061              jo 0xb2a6
0000B245  69724969535F49    imul esi,[edx+0x49],dword 0x495f5369
0000B24C  69694545433245    imul ebp,[ecx+0x45],dword 0x45324345
0000B253  52                push edx
0000B254  4B                dec ebx
0000B255  69524B53305F00    imul edx,[edx+0x4b],dword 0x5f3053
0000B25C  5F                pop edi
0000B25D  5A                pop edx
0000B25E  53                push ebx
0000B25F  7431              jz 0xb292
0000B261  305F43            xor [edi+0x43],bl
0000B264  6F                outsd
0000B265  6E                outsb
0000B266  7374              jnc 0xb2dc
0000B268  7275              jc 0xb2df
0000B26A  63744953          arpl [ecx+ecx*2+0x53],si
0000B26E  7436              jz 0xb2a6
0000B270  7665              jna 0xb2d7
0000B272  63746F72          arpl [edi+ebp*2+0x72],si
0000B276  49                dec ecx
0000B277  69536149694545    imul edx,[ebx+0x61],dword 0x45456949
0000B27E  53                push ebx
0000B27F  325F45            xor bl,[edi+0x45]
0000B282  7650              jna 0xb2d4
0000B284  54                push esp
0000B285  5F                pop edi
0000B286  52                push edx
0000B287  4B                dec ebx
0000B288  54                push esp
0000B289  305F00            xor [edi+0x0],bl
0000B28C  5F                pop edi
0000B28D  656E              gs outsb
0000B28F  64005F5A          add [fs:edi+0x5a],bl
0000B293  4E                dec esi
0000B294  53                push ebx
0000B295  6F                outsd
0000B296  6C                insb
0000B297  7345              jnc 0xb2de
0000B299  50                push eax
0000B29A  46                inc esi
0000B29B  52                push edx
0000B29C  53                push ebx
0000B29D  6F                outsd
0000B29E  53                push ebx
0000B29F  5F                pop edi
0000B2A0  45                inc ebp
0000B2A1  40                inc eax
0000B2A2  40                inc eax
0000B2A3  47                inc edi
0000B2A4  4C                dec esp
0000B2A5  49                dec ecx
0000B2A6  42                inc edx
0000B2A7  43                inc ebx
0000B2A8  58                pop eax
0000B2A9  58                pop eax
0000B2AA  5F                pop edi
0000B2AB  332E              xor ebp,[esi]
0000B2AD  3400              xor al,0x0
0000B2AF  5F                pop edi
0000B2B0  5A                pop edx
0000B2B1  4E                dec esi
0000B2B2  4B                dec ebx
0000B2B3  395F5F            cmp [edi+0x5f],ebx
0000B2B6  676E              a16 outsb
0000B2B8  755F              jnz 0xb319
0000B2BA  637878            arpl [eax+0x78],di
0000B2BD  3137              xor [edi],esi
0000B2BF  5F                pop edi
0000B2C0  5F                pop edi
0000B2C1  6E                outsb
0000B2C2  6F                outsd
0000B2C3  726D              jc 0xb332
0000B2C5  61                popa
0000B2C6  6C                insb
0000B2C7  5F                pop edi
0000B2C8  6974657261746F72  imul esi,[ebp+0x72],dword 0x726f7461
0000B2D0  49                dec ecx
0000B2D1  50                push eax
0000B2D2  53                push ebx
0000B2D3  7434              jz 0xb309
0000B2D5  7061              jo 0xb338
0000B2D7  6972496953315F    imul esi,[edx+0x49],dword 0x5f315369
0000B2DE  49                dec ecx
0000B2DF  69694545537436    imul ebp,[ecx+0x45],dword 0x36745345
0000B2E6  7665              jna 0xb34d
0000B2E8  63746F72          arpl [edi+ebp*2+0x72],si
0000B2EC  49                dec ecx
0000B2ED  53                push ebx
0000B2EE  335F53            xor ebx,[edi+0x53]
0000B2F1  61                popa
0000B2F2  49                dec ecx
0000B2F3  53                push ebx
0000B2F4  335F45            xor ebx,[edi+0x45]
0000B2F7  45                inc ebp
0000B2F8  45                inc ebp
0000B2F9  706C              jo 0xb367
0000B2FB  45                inc ebp
0000B2FC  52                push edx
0000B2FD  4B                dec ebx
0000B2FE  69005F5A4E39      imul eax,[eax],dword 0x394e5a5f
0000B304  5F                pop edi
0000B305  5F                pop edi
0000B306  676E              a16 outsb
0000B308  755F              jnz 0xb369
0000B30A  637878            arpl [eax+0x78],di
0000B30D  3133              xor [ebx],esi
0000B30F  6E                outsb
0000B310  65775F            gs ja 0xb372
0000B313  61                popa
0000B314  6C                insb
0000B315  6C                insb
0000B316  6F                outsd
0000B317  636174            arpl [ecx+0x74],sp
0000B31A  6F                outsd
0000B31B  7249              jc 0xb366
0000B31D  53                push ebx
0000B31E  7434              jz 0xb354
0000B320  7061              jo 0xb383
0000B322  6972496953315F    imul esi,[edx+0x49],dword 0x5f315369
0000B329  49                dec ecx
0000B32A  69694545454332    imul ebp,[ecx+0x45],dword 0x32434545
0000B331  45                inc ebp
0000B332  52                push edx
0000B333  4B                dec ebx
0000B334  53                push ebx
0000B335  345F              xor al,0x5f
0000B337  005F5A            add [edi+0x5a],bl
0000B33A  53                push ebx
0000B33B  7433              jz 0xb370
0000B33D  345F              xor al,0x5f
0000B33F  5F                pop edi
0000B340  756E              jnz 0xb3b0
0000B342  696E697469616C    imul ebp,[esi+0x69],dword 0x6c616974
0000B349  697A65645F6D6F    imul edi,[edx+0x65],dword 0x6f6d5f64
0000B350  7665              jna 0xb3b7
0000B352  5F                pop edi
0000B353  69665F6E6F6578    imul esp,[esi+0x5f],dword 0x78656f6e
0000B35A  636570            arpl [ebp+0x70],sp
0000B35D  745F              jz 0xb3be
0000B35F  61                popa
0000B360  49                dec ecx
0000B361  50                push eax
0000B362  53                push ebx
0000B363  7434              jz 0xb399
0000B365  7061              jo 0xb3c8
0000B367  6972496953305F    imul esi,[edx+0x49],dword 0x5f305369
0000B36E  49                dec ecx
0000B36F  6969454553335F    imul ebp,[ecx+0x45],dword 0x5f335345
0000B376  53                push ebx
0000B377  61                popa
0000B378  49                dec ecx
0000B379  53                push ebx
0000B37A  325F45            xor bl,[edi+0x45]
0000B37D  45                inc ebp
0000B37E  54                push esp
0000B37F  305F54            xor [edi+0x54],bl
0000B382  5F                pop edi
0000B383  53                push ebx
0000B384  365F              ss pop edi
0000B386  53                push ebx
0000B387  355F525431        xor eax,0x3154525f
0000B38C  5F                pop edi
0000B38D  005F5A            add [edi+0x5a],bl
0000B390  53                push ebx
0000B391  7439              jz 0xb3cc
0000B393  6D                insd
0000B394  61                popa
0000B395  6B655F68          imul esp,[ebp+0x5f],byte +0x68
0000B399  6561              gs popa
0000B39B  7049              jo 0xb3e6
0000B39D  4E                dec esi
0000B39E  395F5F            cmp [edi+0x5f],ebx
0000B3A1  676E              a16 outsb
0000B3A3  755F              jnz 0xb404
0000B3A5  637878            arpl [eax+0x78],di
0000B3A8  3137              xor [edi],esi
0000B3AA  5F                pop edi
0000B3AB  5F                pop edi
0000B3AC  6E                outsb
0000B3AD  6F                outsd
0000B3AE  726D              jc 0xb41d
0000B3B0  61                popa
0000B3B1  6C                insb
0000B3B2  5F                pop edi
0000B3B3  6974657261746F72  imul esi,[ebp+0x72],dword 0x726f7461
0000B3BB  49                dec ecx
0000B3BC  50                push eax
0000B3BD  53                push ebx
0000B3BE  7434              jz 0xb3f4
0000B3C0  7061              jo 0xb423
0000B3C2  6972496953325F    imul esi,[edx+0x49],dword 0x5f325369
0000B3C9  49                dec ecx
0000B3CA  69694545537436    imul ebp,[ecx+0x45],dword 0x36745345
0000B3D1  7665              jna 0xb438
0000B3D3  63746F72          arpl [edi+ebp*2+0x72],si
0000B3D7  49                dec ecx
0000B3D8  53                push ebx
0000B3D9  345F              xor al,0x5f
0000B3DB  53                push ebx
0000B3DC  61                popa
0000B3DD  49                dec ecx
0000B3DE  53                push ebx
0000B3DF  345F              xor al,0x5f
0000B3E1  45                inc ebp
0000B3E2  45                inc ebp
0000B3E3  45                inc ebp
0000B3E4  45                inc ebp
0000B3E5  53                push ebx
0000B3E6  7437              jz 0xb41f
0000B3E8  677265            a16 jc 0xb450
0000B3EB  61                popa
0000B3EC  7465              jz 0xb453
0000B3EE  7249              jc 0xb439
0000B3F0  53                push ebx
0000B3F1  345F              xor al,0x5f
0000B3F3  45                inc ebp
0000B3F4  45                inc ebp
0000B3F5  7654              jna 0xb44b
0000B3F7  5F                pop edi
0000B3F8  53                push ebx
0000B3F9  43                inc ebx
0000B3FA  5F                pop edi
0000B3FB  54                push esp
0000B3FC  305F00            xor [edi+0x0],bl
0000B3FF  5F                pop edi
0000B400  5A                pop edx
0000B401  4E                dec esi
0000B402  53                push ebx
0000B403  7432              jz 0xb437
0000B405  325F5F            xor bl,[edi+0x5f]
0000B408  756E              jnz 0xb478
0000B40A  696E697469616C    imul ebp,[esi+0x69],dword 0x6c616974
0000B411  697A65645F6669    imul edi,[edx+0x65],dword 0x69665f64
0000B418  6C                insb
0000B419  6C                insb
0000B41A  5F                pop edi
0000B41B  6E                outsb
0000B41C  49                dec ecx
0000B41D  4C                dec esp
0000B41E  6231              bound esi,[ecx]
0000B420  45                inc ebp
0000B421  45                inc ebp
0000B422  31355F5F756E      xor [0x6e755f5f],esi
0000B428  696E69745F6669    imul ebp,[esi+0x69],dword 0x69665f74
0000B42F  6C                insb
0000B430  6C                insb
0000B431  5F                pop edi
0000B432  6E                outsb
0000B433  49                dec ecx
0000B434  50                push eax
0000B435  696A6945457654    imul ebp,[edx+0x69],dword 0x54764545
0000B43C  5F                pop edi
0000B43D  54                push esp
0000B43E  305F52            xor [edi+0x52],bl
0000B441  4B                dec ebx
0000B442  54                push esp
0000B443  315F00            xor [edi+0x0],ebx
0000B446  5F                pop edi
0000B447  5A                pop edx
0000B448  53                push ebx
0000B449  7431              jz 0xb47c
0000B44B  305F43            xor [edi+0x43],bl
0000B44E  6F                outsd
0000B44F  6E                outsb
0000B450  7374              jnc 0xb4c6
0000B452  7275              jc 0xb4c9
0000B454  63744953          arpl [ecx+ecx*2+0x53],si
0000B458  7434              jz 0xb48e
0000B45A  7061              jo 0xb4bd
0000B45C  6972496953305F    imul esi,[edx+0x49],dword 0x5f305369
0000B463  49                dec ecx
0000B464  6969454553325F    imul ebp,[ecx+0x45],dword 0x5f325345
0000B46B  45                inc ebp
0000B46C  7650              jna 0xb4be
0000B46E  54                push esp
0000B46F  5F                pop edi
0000B470  52                push edx
0000B471  4B                dec ebx
0000B472  54                push esp
0000B473  305F00            xor [edi+0x0],bl
0000B476  5F                pop edi
0000B477  5A                pop edx
0000B478  53                push ebx
0000B479  7431              jz 0xb4ac
0000B47B  325F5F            xor bl,[edi+0x5f]
0000B47E  6E                outsb
0000B47F  697465725F626173  imul esi,[ebp+0x72],dword 0x7361625f
0000B487  6549              gs dec ecx
0000B489  50                push eax
0000B48A  53                push ebx
0000B48B  7434              jz 0xb4c1
0000B48D  7061              jo 0xb4f0
0000B48F  6972496953305F    imul esi,[edx+0x49],dword 0x5f305369
0000B496  49                dec ecx
0000B497  69694545454E53    imul ebp,[ecx+0x45],dword 0x534e4545
0000B49E  7431              jz 0xb4d1
0000B4A0  315F4E            xor [edi+0x4e],ebx
0000B4A3  697465725F626173  imul esi,[ebp+0x72],dword 0x7361625f
0000B4AB  6549              gs dec ecx
0000B4AD  54                push esp
0000B4AE  5F                pop edi
0000B4AF  45                inc ebp
0000B4B0  3133              xor [ebx],esi
0000B4B2  6974657261746F72  imul esi,[ebp+0x72],dword 0x726f7461
0000B4BA  5F                pop edi
0000B4BB  7479              jz 0xb536
0000B4BD  7065              jo 0xb524
0000B4BF  45                inc ebp
0000B4C0  53                push ebx
0000B4C1  355F005F5A        xor eax,0x5a5f005f
0000B4C6  4E                dec esi
0000B4C7  53                push ebx
0000B4C8  7431              jz 0xb4fb
0000B4CA  3470              xor al,0x70
0000B4CC  7269              jc 0xb537
0000B4CE  6F                outsd
0000B4CF  7269              jc 0xb53a
0000B4D1  7479              jz 0xb54c
0000B4D3  5F                pop edi
0000B4D4  7175              jno 0xb54b
0000B4D6  657565            gs jnz 0xb53e
0000B4D9  49                dec ecx
0000B4DA  53                push ebx
0000B4DB  7434              jz 0xb511
0000B4DD  7061              jo 0xb540
0000B4DF  6972496953305F    imul esi,[edx+0x49],dword 0x5f305369
0000B4E6  49                dec ecx
0000B4E7  69694545537436    imul ebp,[ecx+0x45],dword 0x36745345
0000B4EE  7665              jna 0xb555
0000B4F0  63746F72          arpl [edi+ebp*2+0x72],si
0000B4F4  49                dec ecx
0000B4F5  53                push ebx
0000B4F6  325F53            xor bl,[edi+0x53]
0000B4F9  61                popa
0000B4FA  49                dec ecx
0000B4FB  53                push ebx
0000B4FC  325F45            xor bl,[edi+0x45]
0000B4FF  45                inc ebp
0000B500  53                push ebx
0000B501  7437              jz 0xb53a
0000B503  677265            a16 jc 0xb56b
0000B506  61                popa
0000B507  7465              jz 0xb56e
0000B509  7249              jc 0xb554
0000B50B  53                push ebx
0000B50C  325F45            xor bl,[edi+0x45]
0000B50F  45                inc ebp
0000B510  3470              xor al,0x70
0000B512  7573              jnz 0xb587
0000B514  6845524B53        push dword 0x534b5245
0000B519  325F00            xor bl,[edi+0x0]
0000B51C  5F                pop edi
0000B51D  5F                pop edi
0000B51E  637861            arpl [eax+0x61],di
0000B521  5F                pop edi
0000B522  656E              gs outsb
0000B524  645F              fs pop edi
0000B526  636174            arpl [ecx+0x74],sp
0000B529  636840            arpl [eax+0x40],bp
0000B52C  40                inc eax
0000B52D  43                inc ebx
0000B52E  58                pop eax
0000B52F  58                pop eax
0000B530  41                inc ecx
0000B531  42                inc edx
0000B532  49                dec ecx
0000B533  5F                pop edi
0000B534  312E              xor [esi],ebp
0000B536  3300              xor eax,[eax]
0000B538  5F                pop edi
0000B539  5A                pop edx
0000B53A  53                push ebx
0000B53B  7431              jz 0xb56e
0000B53D  37                aaa
0000B53E  5F                pop edi
0000B53F  5F                pop edi
0000B540  7468              jz 0xb5aa
0000B542  726F              jc 0xb5b3
0000B544  775F              ja 0xb5a5
0000B546  626164            bound esp,[ecx+0x64]
0000B549  5F                pop edi
0000B54A  61                popa
0000B54B  6C                insb
0000B54C  6C                insb
0000B54D  6F                outsd
0000B54E  637640            arpl [esi+0x40],si
0000B551  40                inc eax
0000B552  47                inc edi
0000B553  4C                dec esp
0000B554  49                dec ecx
0000B555  42                inc edx
0000B556  43                inc ebx
0000B557  58                pop eax
0000B558  58                pop eax
0000B559  5F                pop edi
0000B55A  332E              xor ebp,[esi]
0000B55C  3400              xor al,0x0
0000B55E  5F                pop edi
0000B55F  5A                pop edx
0000B560  4E                dec esi
0000B561  53                push ebx
0000B562  7431              jz 0xb595
0000B564  325F56            xor bl,[edi+0x56]
0000B567  6563746F72        arpl [gs:edi+ebp*2+0x72],si
0000B56C  5F                pop edi
0000B56D  626173            bound esp,[ecx+0x73]
0000B570  6549              gs dec ecx
0000B572  53                push ebx
0000B573  7434              jz 0xb5a9
0000B575  7061              jo 0xb5d8
0000B577  6972496953305F    imul esi,[edx+0x49],dword 0x5f305369
0000B57E  49                dec ecx
0000B57F  69694545536149    imul ebp,[ecx+0x45],dword 0x49615345
0000B586  53                push ebx
0000B587  325F45            xor bl,[edi+0x45]
0000B58A  45                inc ebp
0000B58B  3132              xor [edx],esi
0000B58D  5F                pop edi
0000B58E  56                push esi
0000B58F  6563746F72        arpl [gs:edi+ebp*2+0x72],si
0000B594  5F                pop edi
0000B595  696D706C433145    imul ebp,[ebp+0x70],dword 0x4531436c
0000B59C  52                push edx
0000B59D  4B                dec ebx
0000B59E  53                push ebx
0000B59F  335F00            xor ebx,[edi+0x0]
0000B5A2  5F                pop edi
0000B5A3  5A                pop edx
0000B5A4  53                push ebx
0000B5A5  7431              jz 0xb5d8
0000B5A7  335F5F            xor ebx,[edi+0x5f]
0000B5AA  61                popa
0000B5AB  646A75            fs push byte +0x75
0000B5AE  7374              jnc 0xb624
0000B5B0  5F                pop edi
0000B5B1  6865617049        push dword 0x49706165
0000B5B6  4E                dec esi
0000B5B7  395F5F            cmp [edi+0x5f],ebx
0000B5BA  676E              a16 outsb
0000B5BC  755F              jnz 0xb61d
0000B5BE  637878            arpl [eax+0x78],di
0000B5C1  3137              xor [edi],esi
0000B5C3  5F                pop edi
0000B5C4  5F                pop edi
0000B5C5  6E                outsb
0000B5C6  6F                outsd
0000B5C7  726D              jc 0xb636
0000B5C9  61                popa
0000B5CA  6C                insb
0000B5CB  5F                pop edi
0000B5CC  6974657261746F72  imul esi,[ebp+0x72],dword 0x726f7461
0000B5D4  49                dec ecx
0000B5D5  50                push eax
0000B5D6  53                push ebx
0000B5D7  7434              jz 0xb60d
0000B5D9  7061              jo 0xb63c
0000B5DB  6972496953325F    imul esi,[edx+0x49],dword 0x5f325369
0000B5E2  49                dec ecx
0000B5E3  69694545537436    imul ebp,[ecx+0x45],dword 0x36745345
0000B5EA  7665              jna 0xb651
0000B5EC  63746F72          arpl [edi+ebp*2+0x72],si
0000B5F0  49                dec ecx
0000B5F1  53                push ebx
0000B5F2  345F              xor al,0x5f
0000B5F4  53                push ebx
0000B5F5  61                popa
0000B5F6  49                dec ecx
0000B5F7  53                push ebx
0000B5F8  345F              xor al,0x5f
0000B5FA  45                inc ebp
0000B5FB  45                inc ebp
0000B5FC  45                inc ebp
0000B5FD  45                inc ebp
0000B5FE  6953345F537437    imul edx,[ebx+0x34],dword 0x3774535f
0000B605  677265            a16 jc 0xb66d
0000B608  61                popa
0000B609  7465              jz 0xb670
0000B60B  7249              jc 0xb656
0000B60D  53                push ebx
0000B60E  345F              xor al,0x5f
0000B610  45                inc ebp
0000B611  45                inc ebp
0000B612  7654              jna 0xb668
0000B614  5F                pop edi
0000B615  54                push esp
0000B616  305F53            xor [edi+0x53],bl
0000B619  44                inc esp
0000B61A  5F                pop edi
0000B61B  54                push esp
0000B61C  315F54            xor [edi+0x54],ebx
0000B61F  325F00            xor bl,[edi+0x0]
0000B622  5F                pop edi
0000B623  5A                pop edx
0000B624  53                push ebx
0000B625  7431              jz 0xb658
0000B627  325F5F            xor bl,[edi+0x5f]
0000B62A  6D                insd
0000B62B  697465725F626173  imul esi,[ebp+0x72],dword 0x7361625f
0000B633  6549              gs dec ecx
0000B635  4E                dec esi
0000B636  395F5F            cmp [edi+0x5f],ebx
0000B639  676E              a16 outsb
0000B63B  755F              jnz 0xb69c
0000B63D  637878            arpl [eax+0x78],di
0000B640  3137              xor [edi],esi
0000B642  5F                pop edi
0000B643  5F                pop edi
0000B644  6E                outsb
0000B645  6F                outsd
0000B646  726D              jc 0xb6b5
0000B648  61                popa
0000B649  6C                insb
0000B64A  5F                pop edi
0000B64B  6974657261746F72  imul esi,[ebp+0x72],dword 0x726f7461
0000B653  49                dec ecx
0000B654  50                push eax
0000B655  4B                dec ebx
0000B656  69537436766563    imul edx,[ebx+0x74],dword 0x63657636
0000B65D  746F              jz 0xb6ce
0000B65F  7249              jc 0xb6aa
0000B661  69536149694545    imul edx,[ebx+0x61],dword 0x45456949
0000B668  45                inc ebp
0000B669  45                inc ebp
0000B66A  45                inc ebp
0000B66B  4E                dec esi
0000B66C  53                push ebx
0000B66D  7431              jz 0xb6a0
0000B66F  315F4D            xor [edi+0x4d],ebx
0000B672  697465725F626173  imul esi,[ebp+0x72],dword 0x7361625f
0000B67A  6549              gs dec ecx
0000B67C  54                push esp
0000B67D  5F                pop edi
0000B67E  45                inc ebp
0000B67F  3133              xor [ebx],esi
0000B681  6974657261746F72  imul esi,[ebp+0x72],dword 0x726f7461
0000B689  5F                pop edi
0000B68A  7479              jz 0xb705
0000B68C  7065              jo 0xb6f3
0000B68E  45                inc ebp
0000B68F  53                push ebx
0000B690  395F00            cmp [edi+0x0],ebx
0000B693  5F                pop edi
0000B694  5A                pop edx
0000B695  4E                dec esi
0000B696  53                push ebx
0000B697  7431              jz 0xb6ca
0000B699  325F44            xor bl,[edi+0x44]
0000B69C  657374            gs jnc 0xb713
0000B69F  726F              jc 0xb710
0000B6A1  795F              jns 0xb702
0000B6A3  61                popa
0000B6A4  7578              jnz 0xb71e
0000B6A6  49                dec ecx
0000B6A7  4C                dec esp
0000B6A8  6231              bound esi,[ecx]
0000B6AA  45                inc ebp
0000B6AB  45                inc ebp
0000B6AC  395F5F            cmp [edi+0x5f],ebx
0000B6AF  64657374          gs jnc 0xb727
0000B6B3  726F              jc 0xb724
0000B6B5  7949              jns 0xb700
0000B6B7  50                push eax
0000B6B8  53                push ebx
0000B6B9  7434              jz 0xb6ef
0000B6BB  7061              jo 0xb71e
0000B6BD  6972496953325F    imul esi,[edx+0x49],dword 0x5f325369
0000B6C4  49                dec ecx
0000B6C5  69694545454576    imul ebp,[ecx+0x45],dword 0x76454545
0000B6CC  54                push esp
0000B6CD  5F                pop edi
0000B6CE  53                push ebx
0000B6CF  365F              ss pop edi
0000B6D1  005F5A            add [edi+0x5a],bl
0000B6D4  4E                dec esi
0000B6D5  53                push ebx
0000B6D6  7431              jz 0xb709
0000B6D8  3470              xor al,0x70
0000B6DA  7269              jc 0xb745
0000B6DC  6F                outsd
0000B6DD  7269              jc 0xb748
0000B6DF  7479              jz 0xb75a
0000B6E1  5F                pop edi
0000B6E2  7175              jno 0xb759
0000B6E4  657565            gs jnz 0xb74c
0000B6E7  49                dec ecx
0000B6E8  53                push ebx
0000B6E9  7434              jz 0xb71f
0000B6EB  7061              jo 0xb74e
0000B6ED  6972496953305F    imul esi,[edx+0x49],dword 0x5f305369
0000B6F4  49                dec ecx
0000B6F5  69694545537436    imul ebp,[ecx+0x45],dword 0x36745345
0000B6FC  7665              jna 0xb763
0000B6FE  63746F72          arpl [edi+ebp*2+0x72],si
0000B702  49                dec ecx
0000B703  53                push ebx
0000B704  325F53            xor bl,[edi+0x53]
0000B707  61                popa
0000B708  49                dec ecx
0000B709  53                push ebx
0000B70A  325F45            xor bl,[edi+0x45]
0000B70D  45                inc ebp
0000B70E  53                push ebx
0000B70F  7437              jz 0xb748
0000B711  677265            a16 jc 0xb779
0000B714  61                popa
0000B715  7465              jz 0xb77c
0000B717  7249              jc 0xb762
0000B719  53                push ebx
0000B71A  325F45            xor bl,[edi+0x45]
0000B71D  45                inc ebp
0000B71E  44                inc esp
0000B71F  324576            xor al,[ebp+0x76]
0000B722  005F5A            add [edi+0x5a],bl
0000B725  4E                dec esi
0000B726  53                push ebx
0000B727  7436              jz 0xb75f
0000B729  7665              jna 0xb790
0000B72B  63746F72          arpl [edi+ebp*2+0x72],si
0000B72F  49                dec ecx
0000B730  69536149694545    imul edx,[ebx+0x61],dword 0x45456949
0000B737  43                inc ebx
0000B738  32456A            xor al,[ebp+0x6a]
0000B73B  52                push edx
0000B73C  4B                dec ebx
0000B73D  69524B53305F00    imul edx,[edx+0x4b],dword 0x5f3053
0000B744  5F                pop edi
0000B745  5A                pop edx
0000B746  4E                dec esi
0000B747  53                push ebx
0000B748  7431              jz 0xb77b
0000B74A  325F56            xor bl,[edi+0x56]
0000B74D  6563746F72        arpl [gs:edi+ebp*2+0x72],si
0000B752  5F                pop edi
0000B753  626173            bound esp,[ecx+0x73]
0000B756  6549              gs dec ecx
0000B758  53                push ebx
0000B759  7434              jz 0xb78f
0000B75B  7061              jo 0xb7be
0000B75D  6972496953305F    imul esi,[edx+0x49],dword 0x5f305369
0000B764  49                dec ecx
0000B765  69694545536149    imul ebp,[ecx+0x45],dword 0x49615345
0000B76C  53                push ebx
0000B76D  325F45            xor bl,[edi+0x45]
0000B770  45                inc ebp
0000B771  3132              xor [edx],esi
0000B773  5F                pop edi
0000B774  56                push esi
0000B775  6563746F72        arpl [gs:edi+ebp*2+0x72],si
0000B77A  5F                pop edi
0000B77B  696D706C433245    imul ebp,[ebp+0x70],dword 0x4532436c
0000B782  52                push edx
0000B783  4B                dec ebx
0000B784  53                push ebx
0000B785  335F00            xor ebx,[edi+0x0]
0000B788  5F                pop edi
0000B789  5A                pop edx
0000B78A  53                push ebx
0000B78B  7434              jz 0xb7c1
0000B78D  656E              gs outsb
0000B78F  646C              fs insb
0000B791  49                dec ecx
0000B792  635374            arpl [ebx+0x74],dx
0000B795  3131              xor [ecx],esi
0000B797  636861            arpl [eax+0x61],bp
0000B79A  725F              jc 0xb7fb
0000B79C  7472              jz 0xb810
0000B79E  61                popa
0000B79F  6974734963454552  imul esi,[ebx+esi*2+0x49],dword 0x52454563
0000B7A7  53                push ebx
0000B7A8  7431              jz 0xb7db
0000B7AA  336261            xor esp,[edx+0x61]
0000B7AD  7369              jnc 0xb818
0000B7AF  635F6F            arpl [edi+0x6f],bx
0000B7B2  7374              jnc 0xb828
0000B7B4  7265              jc 0xb81b
0000B7B6  61                popa
0000B7B7  6D                insd
0000B7B8  49                dec ecx
0000B7B9  54                push esp
0000B7BA  5F                pop edi
0000B7BB  54                push esp
0000B7BC  305F45            xor [edi+0x45],bl
0000B7BF  53                push ebx
0000B7C0  365F              ss pop edi
0000B7C2  40                inc eax
0000B7C3  40                inc eax
0000B7C4  47                inc edi
0000B7C5  4C                dec esp
0000B7C6  49                dec ecx
0000B7C7  42                inc edx
0000B7C8  43                inc ebx
0000B7C9  58                pop eax
0000B7CA  58                pop eax
0000B7CB  5F                pop edi
0000B7CC  332E              xor ebp,[esi]
0000B7CE  3400              xor al,0x0
0000B7D0  5F                pop edi
0000B7D1  5A                pop edx
0000B7D2  4E                dec esi
0000B7D3  53                push ebx
0000B7D4  7438              jz 0xb80e
0000B7D6  696F735F626173    imul ebp,[edi+0x73],dword 0x7361625f
0000B7DD  65397072          cmp [gs:eax+0x72],esi
0000B7E1  65636973          arpl [gs:ecx+0x73],bp
0000B7E5  696F6E4569005F    imul ebp,[edi+0x6e],dword 0x5f006945
0000B7EC  5F                pop edi
0000B7ED  637861            arpl [eax+0x61],di
0000B7F0  5F                pop edi
0000B7F1  626567            bound esp,[ebp+0x67]
0000B7F4  696E5F63617463    imul ebp,[esi+0x5f],dword 0x63746163
0000B7FB  6840404358        push dword 0x58434040
0000B800  58                pop eax
0000B801  41                inc ecx
0000B802  42                inc edx
0000B803  49                dec ecx
0000B804  5F                pop edi
0000B805  312E              xor [esi],ebp
0000B807  3300              xor eax,[eax]
0000B809  5F                pop edi
0000B80A  5A                pop edx
0000B80B  4E                dec esi
0000B80C  53                push ebx
0000B80D  7436              jz 0xb845
0000B80F  7665              jna 0xb876
0000B811  63746F72          arpl [edi+ebp*2+0x72],si
0000B815  49                dec ecx
0000B816  53                push ebx
0000B817  7434              jz 0xb84d
0000B819  7061              jo 0xb87c
0000B81B  6972496953305F    imul esi,[edx+0x49],dword 0x5f305369
0000B822  49                dec ecx
0000B823  69694545536149    imul ebp,[ecx+0x45],dword 0x49615345
0000B82A  53                push ebx
0000B82B  325F45            xor bl,[edi+0x45]
0000B82E  45                inc ebp
0000B82F  43                inc ebx
0000B830  314576            xor [ebp+0x76],eax
0000B833  005F5A            add [edi+0x5a],bl
0000B836  4E                dec esi
0000B837  4B                dec ebx
0000B838  395F5F            cmp [edi+0x5f],ebx
0000B83B  676E              a16 outsb
0000B83D  755F              jnz 0xb89e
0000B83F  637878            arpl [eax+0x78],di
0000B842  3137              xor [edi],esi
0000B844  5F                pop edi
0000B845  5F                pop edi
0000B846  6E                outsb
0000B847  6F                outsd
0000B848  726D              jc 0xb8b7
0000B84A  61                popa
0000B84B  6C                insb
0000B84C  5F                pop edi
0000B84D  6974657261746F72  imul esi,[ebp+0x72],dword 0x726f7461
0000B855  49                dec ecx
0000B856  50                push eax
0000B857  4B                dec ebx
0000B858  53                push ebx
0000B859  7434              jz 0xb88f
0000B85B  7061              jo 0xb8be
0000B85D  6972496953315F    imul esi,[edx+0x49],dword 0x5f315369
0000B864  49                dec ecx
0000B865  69694545537436    imul ebp,[ecx+0x45],dword 0x36745345
0000B86C  7665              jna 0xb8d3
0000B86E  63746F72          arpl [edi+ebp*2+0x72],si
0000B872  49                dec ecx
0000B873  53                push ebx
0000B874  335F53            xor ebx,[edi+0x53]
0000B877  61                popa
0000B878  49                dec ecx
0000B879  53                push ebx
0000B87A  335F45            xor ebx,[edi+0x45]
0000B87D  45                inc ebp
0000B87E  45                inc ebp
0000B87F  646545            gs inc ebp
0000B882  7600              jna 0xb884
0000B884  5F                pop edi
0000B885  5A                pop edx
0000B886  4E                dec esi
0000B887  4B                dec ebx
0000B888  53                push ebx
0000B889  7431              jz 0xb8bc
0000B88B  325F56            xor bl,[edi+0x56]
0000B88E  6563746F72        arpl [gs:edi+ebp*2+0x72],si
0000B893  5F                pop edi
0000B894  626173            bound esp,[ecx+0x73]
0000B897  6549              gs dec ecx
0000B899  69536149694545    imul edx,[ebx+0x61],dword 0x45456949
0000B8A0  3139              xor [ecx],edi
0000B8A2  5F                pop edi
0000B8A3  4D                dec ebp
0000B8A4  5F                pop edi
0000B8A5  6765745F          gs a16 jz 0xb908
0000B8A9  54                push esp
0000B8AA  705F              jo 0xb90b
0000B8AC  61                popa
0000B8AD  6C                insb
0000B8AE  6C                insb
0000B8AF  6F                outsd
0000B8B0  636174            arpl [ecx+0x74],sp
0000B8B3  6F                outsd
0000B8B4  7245              jc 0xb8fb
0000B8B6  7600              jna 0xb8b8
0000B8B8  5F                pop edi
0000B8B9  5A                pop edx
0000B8BA  4E                dec esi
0000B8BB  395F5F            cmp [edi+0x5f],ebx
0000B8BE  676E              a16 outsb
0000B8C0  755F              jnz 0xb921
0000B8C2  637878            arpl [eax+0x78],di
0000B8C5  3133              xor [ebx],esi
0000B8C7  6E                outsb
0000B8C8  65775F            gs ja 0xb92a
0000B8CB  61                popa
0000B8CC  6C                insb
0000B8CD  6C                insb
0000B8CE  6F                outsd
0000B8CF  636174            arpl [ecx+0x74],sp
0000B8D2  6F                outsd
0000B8D3  7249              jc 0xb91e
0000B8D5  53                push ebx
0000B8D6  7436              jz 0xb90e
0000B8D8  7665              jna 0xb93f
0000B8DA  63746F72          arpl [edi+ebp*2+0x72],si
0000B8DE  49                dec ecx
0000B8DF  69536149694545    imul edx,[ebx+0x61],dword 0x45456949
0000B8E6  45                inc ebp
0000B8E7  44                inc esp
0000B8E8  314576            xor [ebp+0x76],eax
0000B8EB  005F5A            add [edi+0x5a],bl
0000B8EE  4E                dec esi
0000B8EF  53                push ebx
0000B8F0  7432              jz 0xb924
0000B8F2  305F5F            xor [edi+0x5f],bl
0000B8F5  756E              jnz 0xb965
0000B8F7  696E697469616C    imul ebp,[esi+0x69],dword 0x6c616974
0000B8FE  697A65645F636F    imul edi,[edx+0x65],dword 0x6f635f64
0000B905  7079              jo 0xb980
0000B907  49                dec ecx
0000B908  4C                dec esp
0000B909  6230              bound esi,[eax]
0000B90B  45                inc ebp
0000B90C  45                inc ebp
0000B90D  3133              xor [ebx],esi
0000B90F  5F                pop edi
0000B910  5F                pop edi
0000B911  756E              jnz 0xb981
0000B913  696E69745F636F    imul ebp,[esi+0x69],dword 0x6f635f74
0000B91A  7079              jo 0xb995
0000B91C  49                dec ecx
0000B91D  4E                dec esi
0000B91E  395F5F            cmp [edi+0x5f],ebx
0000B921  676E              a16 outsb
0000B923  755F              jnz 0xb984
0000B925  637878            arpl [eax+0x78],di
0000B928  3137              xor [edi],esi
0000B92A  5F                pop edi
0000B92B  5F                pop edi
0000B92C  6E                outsb
0000B92D  6F                outsd
0000B92E  726D              jc 0xb99d
0000B930  61                popa
0000B931  6C                insb
0000B932  5F                pop edi
0000B933  6974657261746F72  imul esi,[ebp+0x72],dword 0x726f7461
0000B93B  49                dec ecx
0000B93C  50                push eax
0000B93D  4B                dec ebx
0000B93E  53                push ebx
0000B93F  7434              jz 0xb975
0000B941  7061              jo 0xb9a4
0000B943  6972496953345F    imul esi,[edx+0x49],dword 0x5f345369
0000B94A  49                dec ecx
0000B94B  69694545537436    imul ebp,[ecx+0x45],dword 0x36745345
0000B952  7665              jna 0xb9b9
0000B954  63746F72          arpl [edi+ebp*2+0x72],si
0000B958  49                dec ecx
0000B959  53                push ebx
0000B95A  365F              ss pop edi
0000B95C  53                push ebx
0000B95D  61                popa
0000B95E  49                dec ecx
0000B95F  53                push ebx
0000B960  365F              ss pop edi
0000B962  45                inc ebp
0000B963  45                inc ebp
0000B964  45                inc ebp
0000B965  45                inc ebp
0000B966  50                push eax
0000B967  53                push ebx
0000B968  365F              ss pop edi
0000B96A  45                inc ebp
0000B96B  45                inc ebp
0000B96C  54                push esp
0000B96D  305F54            xor [edi+0x54],bl
0000B970  5F                pop edi
0000B971  53                push ebx
0000B972  46                inc esi
0000B973  5F                pop edi
0000B974  53                push ebx
0000B975  45                inc ebp
0000B976  5F                pop edi
0000B977  005F5A            add [edi+0x5a],bl
0000B97A  4E                dec esi
0000B97B  4B                dec ebx
0000B97C  53                push ebx
0000B97D  7436              jz 0xb9b5
0000B97F  7665              jna 0xb9e6
0000B981  63746F72          arpl [edi+ebp*2+0x72],si
0000B985  49                dec ecx
0000B986  53                push ebx
0000B987  7434              jz 0xb9bd
0000B989  7061              jo 0xb9ec
0000B98B  6972496953305F    imul esi,[edx+0x49],dword 0x5f305369
0000B992  49                dec ecx
0000B993  69694545536149    imul ebp,[ecx+0x45],dword 0x49615345
0000B99A  53                push ebx
0000B99B  325F45            xor bl,[edi+0x45]
0000B99E  45                inc ebp
0000B99F  3562656769        xor eax,0x69676562
0000B9A4  6E                outsb
0000B9A5  45                inc ebp
0000B9A6  7600              jna 0xb9a8
0000B9A8  5F                pop edi
0000B9A9  5A                pop edx
0000B9AA  4E                dec esi
0000B9AB  53                push ebx
0000B9AC  7434              jz 0xb9e2
0000B9AE  7061              jo 0xba11
0000B9B0  69724969694543    imul esi,[edx+0x49],dword 0x43456969
0000B9B7  324552            xor al,[ebp+0x52]
0000B9BA  4B                dec ebx
0000B9BB  6953325F005F5A    imul edx,[ebx+0x32],dword 0x5a5f005f
0000B9C2  4E                dec esi
0000B9C3  53                push ebx
0000B9C4  7431              jz 0xb9f7
0000B9C6  325F56            xor bl,[edi+0x56]
0000B9C9  6563746F72        arpl [gs:edi+ebp*2+0x72],si
0000B9CE  5F                pop edi
0000B9CF  626173            bound esp,[ecx+0x73]
0000B9D2  6549              gs dec ecx
0000B9D4  69536149694545    imul edx,[ebx+0x61],dword 0x45456949
0000B9DB  3132              xor [edx],esi
0000B9DD  5F                pop edi
0000B9DE  56                push esi
0000B9DF  6563746F72        arpl [gs:edi+ebp*2+0x72],si
0000B9E4  5F                pop edi
0000B9E5  696D706C443145    imul ebp,[ebp+0x70],dword 0x4531446c
0000B9EC  7600              jna 0xb9ee
0000B9EE  5F                pop edi
0000B9EF  5A                pop edx
0000B9F0  53                push ebx
0000B9F1  7431              jz 0xba24
0000B9F3  38756E            cmp [ebp+0x6e],dh
0000B9F6  696E697469616C    imul ebp,[esi+0x69],dword 0x6c616974
0000B9FD  697A65645F636F    imul edi,[edx+0x65],dword 0x6f635f64
0000BA04  7079              jo 0xba7f
0000BA06  49                dec ecx
0000BA07  50                push eax
0000BA08  53                push ebx
0000BA09  7434              jz 0xba3f
0000BA0B  7061              jo 0xba6e
0000BA0D  6972496953305F    imul esi,[edx+0x49],dword 0x5f305369
0000BA14  49                dec ecx
0000BA15  6969454553335F    imul ebp,[ecx+0x45],dword 0x5f335345
0000BA1C  45                inc ebp
0000BA1D  54                push esp
0000BA1E  305F54            xor [edi+0x54],bl
0000BA21  5F                pop edi
0000BA22  53                push ebx
0000BA23  355F53345F        xor eax,0x5f34535f
0000BA28  005F5A            add [edi+0x5a],bl
0000BA2B  4E                dec esi
0000BA2C  53                push ebx
0000BA2D  61                popa
0000BA2E  49                dec ecx
0000BA2F  53                push ebx
0000BA30  7436              jz 0xba68
0000BA32  7665              jna 0xba99
0000BA34  63746F72          arpl [edi+ebp*2+0x72],si
0000BA38  49                dec ecx
0000BA39  69536149694545    imul edx,[ebx+0x61],dword 0x45456949
0000BA40  45                inc ebp
0000BA41  44                inc esp
0000BA42  314576            xor [ebp+0x76],eax
0000BA45  005F5A            add [edi+0x5a],bl
0000BA48  4E                dec esi
0000BA49  53                push ebx
0000BA4A  61                popa
0000BA4B  49                dec ecx
0000BA4C  53                push ebx
0000BA4D  7436              jz 0xba85
0000BA4F  7665              jna 0xbab6
0000BA51  63746F72          arpl [edi+ebp*2+0x72],si
0000BA55  49                dec ecx
0000BA56  69536149694545    imul edx,[ebx+0x61],dword 0x45456949
0000BA5D  45                inc ebp
0000BA5E  43                inc ebx
0000BA5F  324576            xor al,[ebp+0x76]
0000BA62  005F65            add [edi+0x65],bl
0000BA65  6461              fs popa
0000BA67  7461              jz 0xbaca
0000BA69  005F5A            add [edi+0x5a],bl
0000BA6C  646C              fs insb
0000BA6E  50                push eax
0000BA6F  7653              jna 0xbac4
0000BA71  5F                pop edi
0000BA72  005F5F            add [edi+0x5f],bl
0000BA75  677878            a16 js 0xbaf0
0000BA78  5F                pop edi
0000BA79  7065              jo 0xbae0
0000BA7B  7273              jc 0xbaf0
0000BA7D  6F                outsd
0000BA7E  6E                outsb
0000BA7F  61                popa
0000BA80  6C                insb
0000BA81  6974795F76304040  imul esi,[ecx+edi*2+0x5f],dword 0x40403076
0000BA89  43                inc ebx
0000BA8A  58                pop eax
0000BA8B  58                pop eax
0000BA8C  41                inc ecx
0000BA8D  42                inc edx
0000BA8E  49                dec ecx
0000BA8F  5F                pop edi
0000BA90  312E              xor [esi],ebp
0000BA92  3300              xor eax,[eax]
0000BA94  5F                pop edi
0000BA95  5A                pop edx
0000BA96  4E                dec esi
0000BA97  53                push ebx
0000BA98  61                popa
0000BA99  49                dec ecx
0000BA9A  69454431457600    imul eax,[ebp+0x44],dword 0x764531
0000BAA1  5F                pop edi
0000BAA2  5A                pop edx
0000BAA3  4E                dec esi
0000BAA4  4B                dec ebx
0000BAA5  395F5F            cmp [edi+0x5f],ebx
0000BAA8  676E              a16 outsb
0000BAAA  755F              jnz 0xbb0b
0000BAAC  637878            arpl [eax+0x78],di
0000BAAF  3133              xor [ebx],esi
0000BAB1  6E                outsb
0000BAB2  65775F            gs ja 0xbb14
0000BAB5  61                popa
0000BAB6  6C                insb
0000BAB7  6C                insb
0000BAB8  6F                outsd
0000BAB9  636174            arpl [ecx+0x74],sp
0000BABC  6F                outsd
0000BABD  7249              jc 0xbb08
0000BABF  6945386D61785F    imul eax,[ebp+0x38],dword 0x5f78616d
0000BAC6  7369              jnc 0xbb31
0000BAC8  7A65              jpe 0xbb2f
0000BACA  45                inc ebp
0000BACB  7600              jna 0xbacd
0000BACD  5F                pop edi
0000BACE  5A                pop edx
0000BACF  4E                dec esi
0000BAD0  4B                dec ebx
0000BAD1  53                push ebx
0000BAD2  7436              jz 0xbb0a
0000BAD4  7665              jna 0xbb3b
0000BAD6  63746F72          arpl [edi+ebp*2+0x72],si
0000BADA  49                dec ecx
0000BADB  69536149694545    imul edx,[ebx+0x61],dword 0x45456949
0000BAE2  3562656769        xor eax,0x69676562
0000BAE7  6E                outsb
0000BAE8  45                inc ebp
0000BAE9  7600              jna 0xbaeb
0000BAEB  5F                pop edi
0000BAEC  5A                pop edx
0000BAED  4E                dec esi
0000BAEE  395F5F            cmp [edi+0x5f],ebx
0000BAF1  676E              a16 outsb
0000BAF3  755F              jnz 0xbb54
0000BAF5  637878            arpl [eax+0x78],di
0000BAF8  3133              xor [ebx],esi
0000BAFA  6E                outsb
0000BAFB  65775F            gs ja 0xbb5d
0000BAFE  61                popa
0000BAFF  6C                insb
0000BB00  6C                insb
0000BB01  6F                outsd
0000BB02  636174            arpl [ecx+0x74],sp
0000BB05  6F                outsd
0000BB06  7249              jc 0xbb51
0000BB08  53                push ebx
0000BB09  7434              jz 0xbb3f
0000BB0B  7061              jo 0xbb6e
0000BB0D  6972496953315F    imul esi,[edx+0x49],dword 0x5f315369
0000BB14  49                dec ecx
0000BB15  69694545454331    imul ebp,[ecx+0x45],dword 0x31434545
0000BB1C  45                inc ebp
0000BB1D  7600              jna 0xbb1f
0000BB1F  5F                pop edi
0000BB20  5A                pop edx
0000BB21  4E                dec esi
0000BB22  53                push ebx
0000BB23  7431              jz 0xbb56
0000BB25  325F56            xor bl,[edi+0x56]
0000BB28  6563746F72        arpl [gs:edi+ebp*2+0x72],si
0000BB2D  5F                pop edi
0000BB2E  626173            bound esp,[ecx+0x73]
0000BB31  6549              gs dec ecx
0000BB33  53                push ebx
0000BB34  7436              jz 0xbb6c
0000BB36  7665              jna 0xbb9d
0000BB38  63746F72          arpl [edi+ebp*2+0x72],si
0000BB3C  49                dec ecx
0000BB3D  69536149694545    imul edx,[ebx+0x61],dword 0x45456949
0000BB44  53                push ebx
0000BB45  61                popa
0000BB46  49                dec ecx
0000BB47  53                push ebx
0000BB48  325F45            xor bl,[edi+0x45]
0000BB4B  45                inc ebp
0000BB4C  3132              xor [edx],esi
0000BB4E  5F                pop edi
0000BB4F  56                push esi
0000BB50  6563746F72        arpl [gs:edi+ebp*2+0x72],si
0000BB55  5F                pop edi
0000BB56  696D706C433245    imul ebp,[ebp+0x70],dword 0x4532436c
0000BB5D  52                push edx
0000BB5E  4B                dec ebx
0000BB5F  53                push ebx
0000BB60  335F00            xor ebx,[edi+0x0]
0000BB63  5F                pop edi
0000BB64  55                push ebp
0000BB65  6E                outsb
0000BB66  7769              ja 0xbbd1
0000BB68  6E                outsb
0000BB69  645F              fs pop edi
0000BB6B  52                push edx
0000BB6C  657375            gs jnc 0xbbe4
0000BB6F  6D                insd
0000BB70  6540              gs inc eax
0000BB72  40                inc eax
0000BB73  47                inc edi
0000BB74  43                inc ebx
0000BB75  43                inc ebx
0000BB76  5F                pop edi
0000BB77  332E              xor ebp,[esi]
0000BB79  3000              xor [eax],al
0000BB7B  5F                pop edi
0000BB7C  5A                pop edx
0000BB7D  4E                dec esi
0000BB7E  53                push ebx
0000BB7F  7431              jz 0xbbb2
0000BB81  325F56            xor bl,[edi+0x56]
0000BB84  6563746F72        arpl [gs:edi+ebp*2+0x72],si
0000BB89  5F                pop edi
0000BB8A  626173            bound esp,[ecx+0x73]
0000BB8D  6549              gs dec ecx
0000BB8F  69536149694545    imul edx,[ebx+0x61],dword 0x45456949
0000BB96  43                inc ebx
0000BB97  32456A            xor al,[ebp+0x6a]
0000BB9A  52                push edx
0000BB9B  4B                dec ebx
0000BB9C  53                push ebx
0000BB9D  305F00            xor [edi+0x0],bl
0000BBA0  5F                pop edi
0000BBA1  5A                pop edx
0000BBA2  4E                dec esi
0000BBA3  53                push ebx
0000BBA4  61                popa
0000BBA5  49                dec ecx
0000BBA6  53                push ebx
0000BBA7  7436              jz 0xbbdf
0000BBA9  7665              jna 0xbc10
0000BBAB  63746F72          arpl [edi+ebp*2+0x72],si
0000BBAF  49                dec ecx
0000BBB0  69536149694545    imul edx,[ebx+0x61],dword 0x45456949
0000BBB7  45                inc ebp
0000BBB8  44                inc esp
0000BBB9  324576            xor al,[ebp+0x76]
0000BBBC  005F5A            add [edi+0x5a],bl
0000BBBF  53                push ebx
0000BBC0  7434              jz 0xbbf6
0000BBC2  636F70            arpl [edi+0x70],bp
0000BBC5  7949              jns 0xbc10
0000BBC7  4E                dec esi
0000BBC8  395F5F            cmp [edi+0x5f],ebx
0000BBCB  676E              a16 outsb
0000BBCD  755F              jnz 0xbc2e
0000BBCF  637878            arpl [eax+0x78],di
0000BBD2  3137              xor [edi],esi
0000BBD4  5F                pop edi
0000BBD5  5F                pop edi
0000BBD6  6E                outsb
0000BBD7  6F                outsd
0000BBD8  726D              jc 0xbc47
0000BBDA  61                popa
0000BBDB  6C                insb
0000BBDC  5F                pop edi
0000BBDD  6974657261746F72  imul esi,[ebp+0x72],dword 0x726f7461
0000BBE5  49                dec ecx
0000BBE6  50                push eax
0000BBE7  4B                dec ebx
0000BBE8  69537436766563    imul edx,[ebx+0x74],dword 0x63657636
0000BBEF  746F              jz 0xbc60
0000BBF1  7249              jc 0xbc3c
0000BBF3  69536149694545    imul edx,[ebx+0x61],dword 0x45456949
0000BBFA  45                inc ebp
0000BBFB  45                inc ebp
0000BBFC  50                push eax
0000BBFD  694554305F545F    imul eax,[ebp+0x54],dword 0x5f545f30
0000BC04  53                push ebx
0000BC05  41                inc ecx
0000BC06  5F                pop edi
0000BC07  53                push ebx
0000BC08  395F00            cmp [edi+0x0],ebx
0000BC0B  5F                pop edi
0000BC0C  5A                pop edx
0000BC0D  4E                dec esi
0000BC0E  395F5F            cmp [edi+0x5f],ebx
0000BC11  676E              a16 outsb
0000BC13  755F              jnz 0xbc74
0000BC15  637878            arpl [eax+0x78],di
0000BC18  3133              xor [ebx],esi
0000BC1A  6E                outsb
0000BC1B  65775F            gs ja 0xbc7d
0000BC1E  61                popa
0000BC1F  6C                insb
0000BC20  6C                insb
0000BC21  6F                outsd
0000BC22  636174            arpl [ecx+0x74],sp
0000BC25  6F                outsd
0000BC26  7249              jc 0xbc71
0000BC28  53                push ebx
0000BC29  7434              jz 0xbc5f
0000BC2B  7061              jo 0xbc8e
0000BC2D  6972496953315F    imul esi,[edx+0x49],dword 0x5f315369
0000BC34  49                dec ecx
0000BC35  69694545453764    imul ebp,[ecx+0x45],dword 0x64374545
0000BC3C  657374            gs jnc 0xbcb3
0000BC3F  726F              jc 0xbcb0
0000BC41  7945              jns 0xbc88
0000BC43  50                push eax
0000BC44  53                push ebx
0000BC45  335F00            xor ebx,[edi+0x0]
0000BC48  5F                pop edi
0000BC49  5A                pop edx
0000BC4A  4E                dec esi
0000BC4B  53                push ebx
0000BC4C  7436              jz 0xbc84
0000BC4E  7665              jna 0xbcb5
0000BC50  63746F72          arpl [edi+ebp*2+0x72],si
0000BC54  49                dec ecx
0000BC55  53                push ebx
0000BC56  7434              jz 0xbc8c
0000BC58  7061              jo 0xbcbb
0000BC5A  6972496953305F    imul esi,[edx+0x49],dword 0x5f305369
0000BC61  49                dec ecx
0000BC62  69694545536149    imul ebp,[ecx+0x45],dword 0x49615345
0000BC69  53                push ebx
0000BC6A  325F45            xor bl,[edi+0x45]
0000BC6D  45                inc ebp
0000BC6E  43                inc ebx
0000BC6F  324576            xor al,[ebp+0x76]
0000BC72  005F5A            add [edi+0x5a],bl
0000BC75  4E                dec esi
0000BC76  53                push ebx
0000BC77  7431              jz 0xbcaa
0000BC79  325F56            xor bl,[edi+0x56]
0000BC7C  6563746F72        arpl [gs:edi+ebp*2+0x72],si
0000BC81  5F                pop edi
0000BC82  626173            bound esp,[ecx+0x73]
0000BC85  6549              gs dec ecx
0000BC87  53                push ebx
0000BC88  7436              jz 0xbcc0
0000BC8A  7665              jna 0xbcf1
0000BC8C  63746F72          arpl [edi+ebp*2+0x72],si
0000BC90  49                dec ecx
0000BC91  69536149694545    imul edx,[ebx+0x61],dword 0x45456949
0000BC98  53                push ebx
0000BC99  61                popa
0000BC9A  49                dec ecx
0000BC9B  53                push ebx
0000BC9C  325F45            xor bl,[edi+0x45]
0000BC9F  45                inc ebp
0000BCA0  3133              xor [ebx],esi
0000BCA2  5F                pop edi
0000BCA3  4D                dec ebp
0000BCA4  5F                pop edi
0000BCA5  646561            gs popa
0000BCA8  6C                insb
0000BCA9  6C                insb
0000BCAA  6F                outsd
0000BCAB  636174            arpl [ecx+0x74],sp
0000BCAE  6545              gs inc ebp
0000BCB0  50                push eax
0000BCB1  53                push ebx
0000BCB2  325F6A            xor bl,[edi+0x6a]
0000BCB5  005F5A            add [edi+0x5a],bl
0000BCB8  4E                dec esi
0000BCB9  53                push ebx
0000BCBA  7436              jz 0xbcf2
0000BCBC  7665              jna 0xbd23
0000BCBE  63746F72          arpl [edi+ebp*2+0x72],si
0000BCC2  49                dec ecx
0000BCC3  53                push ebx
0000BCC4  7434              jz 0xbcfa
0000BCC6  7061              jo 0xbd29
0000BCC8  6972496953305F    imul esi,[edx+0x49],dword 0x5f305369
0000BCCF  49                dec ecx
0000BCD0  69694545536149    imul ebp,[ecx+0x45],dword 0x49615345
0000BCD7  53                push ebx
0000BCD8  325F45            xor bl,[edi+0x45]
0000BCDB  45                inc ebp
0000BCDC  44                inc esp
0000BCDD  314576            xor [ebp+0x76],eax
0000BCE0  005F5F            add [edi+0x5f],bl
0000BCE3  693638362E67      imul esi,[esi],dword 0x672e3638
0000BCE9  65745F            gs jz 0xbd4b
0000BCEC  7063              jo 0xbd51
0000BCEE  5F                pop edi
0000BCEF  7468              jz 0xbd59
0000BCF1  756E              jnz 0xbd61
0000BCF3  6B2E62            imul ebp,[esi],byte +0x62
0000BCF6  7800              js 0xbcf8
0000BCF8  5F                pop edi
0000BCF9  5A                pop edx
0000BCFA  4E                dec esi
0000BCFB  53                push ebx
0000BCFC  7432              jz 0xbd30
0000BCFE  305F5F            xor [edi+0x5f],bl
0000BD01  756E              jnz 0xbd71
0000BD03  696E697469616C    imul ebp,[esi+0x69],dword 0x6c616974
0000BD0A  697A65645F636F    imul edi,[edx+0x65],dword 0x6f635f64
0000BD11  7079              jo 0xbd8c
0000BD13  49                dec ecx
0000BD14  4C                dec esp
0000BD15  6230              bound esi,[eax]
0000BD17  45                inc ebp
0000BD18  45                inc ebp
0000BD19  3133              xor [ebx],esi
0000BD1B  5F                pop edi
0000BD1C  5F                pop edi
0000BD1D  756E              jnz 0xbd8d
0000BD1F  696E69745F636F    imul ebp,[esi+0x69],dword 0x6f635f74
0000BD26  7079              jo 0xbda1
0000BD28  49                dec ecx
0000BD29  50                push eax
0000BD2A  53                push ebx
0000BD2B  7434              jz 0xbd61
0000BD2D  7061              jo 0xbd90
0000BD2F  6972496953325F    imul esi,[edx+0x49],dword 0x5f325369
0000BD36  49                dec ecx
0000BD37  6969454553355F    imul ebp,[ecx+0x45],dword 0x5f355345
0000BD3E  45                inc ebp
0000BD3F  45                inc ebp
0000BD40  54                push esp
0000BD41  305F54            xor [edi+0x54],bl
0000BD44  5F                pop edi
0000BD45  53                push ebx
0000BD46  37                aaa
0000BD47  5F                pop edi
0000BD48  53                push ebx
0000BD49  365F              ss pop edi
0000BD4B  005F5A            add [edi+0x5a],bl
0000BD4E  53                push ebx
0000BD4F  7431              jz 0xbd82
0000BD51  38756E            cmp [ebp+0x6e],dh
0000BD54  696E697469616C    imul ebp,[esi+0x69],dword 0x6c616974
0000BD5B  697A65645F636F    imul edi,[edx+0x65],dword 0x6f635f64
0000BD62  7079              jo 0xbddd
0000BD64  49                dec ecx
0000BD65  4E                dec esi
0000BD66  395F5F            cmp [edi+0x5f],ebx
0000BD69  676E              a16 outsb
0000BD6B  755F              jnz 0xbdcc
0000BD6D  637878            arpl [eax+0x78],di
0000BD70  3137              xor [edi],esi
0000BD72  5F                pop edi
0000BD73  5F                pop edi
0000BD74  6E                outsb
0000BD75  6F                outsd
0000BD76  726D              jc 0xbde5
0000BD78  61                popa
0000BD79  6C                insb
0000BD7A  5F                pop edi
0000BD7B  6974657261746F72  imul esi,[ebp+0x72],dword 0x726f7461
0000BD83  49                dec ecx
0000BD84  50                push eax
0000BD85  4B                dec ebx
0000BD86  53                push ebx
0000BD87  7434              jz 0xbdbd
0000BD89  7061              jo 0xbdec
0000BD8B  6972496953325F    imul esi,[edx+0x49],dword 0x5f325369
0000BD92  49                dec ecx
0000BD93  69694545537436    imul ebp,[ecx+0x45],dword 0x36745345
0000BD9A  7665              jna 0xbe01
0000BD9C  63746F72          arpl [edi+ebp*2+0x72],si
0000BDA0  49                dec ecx
0000BDA1  53                push ebx
0000BDA2  345F              xor al,0x5f
0000BDA4  53                push ebx
0000BDA5  61                popa
0000BDA6  49                dec ecx
0000BDA7  53                push ebx
0000BDA8  345F              xor al,0x5f
0000BDAA  45                inc ebp
0000BDAB  45                inc ebp
0000BDAC  45                inc ebp
0000BDAD  45                inc ebp
0000BDAE  50                push eax
0000BDAF  53                push ebx
0000BDB0  345F              xor al,0x5f
0000BDB2  45                inc ebp
0000BDB3  54                push esp
0000BDB4  305F54            xor [edi+0x54],bl
0000BDB7  5F                pop edi
0000BDB8  53                push ebx
0000BDB9  44                inc esp
0000BDBA  5F                pop edi
0000BDBB  53                push ebx
0000BDBC  43                inc ebx
0000BDBD  5F                pop edi
0000BDBE  005F5A            add [edi+0x5a],bl
0000BDC1  4E                dec esi
0000BDC2  395F5F            cmp [edi+0x5f],ebx
0000BDC5  676E              a16 outsb
0000BDC7  755F              jnz 0xbe28
0000BDC9  637878            arpl [eax+0x78],di
0000BDCC  3137              xor [edi],esi
0000BDCE  5F                pop edi
0000BDCF  5F                pop edi
0000BDD0  6E                outsb
0000BDD1  6F                outsd
0000BDD2  726D              jc 0xbe41
0000BDD4  61                popa
0000BDD5  6C                insb
0000BDD6  5F                pop edi
0000BDD7  6974657261746F72  imul esi,[ebp+0x72],dword 0x726f7461
0000BDDF  49                dec ecx
0000BDE0  50                push eax
0000BDE1  4B                dec ebx
0000BDE2  53                push ebx
0000BDE3  7434              jz 0xbe19
0000BDE5  7061              jo 0xbe48
0000BDE7  6972496953315F    imul esi,[edx+0x49],dword 0x5f315369
0000BDEE  49                dec ecx
0000BDEF  69694545537436    imul ebp,[ecx+0x45],dword 0x36745345
0000BDF6  7665              jna 0xbe5d
0000BDF8  63746F72          arpl [edi+ebp*2+0x72],si
0000BDFC  49                dec ecx
0000BDFD  53                push ebx
0000BDFE  335F53            xor ebx,[edi+0x53]
0000BE01  61                popa
0000BE02  49                dec ecx
0000BE03  53                push ebx
0000BE04  335F45            xor ebx,[edi+0x45]
0000BE07  45                inc ebp
0000BE08  45                inc ebp
0000BE09  7070              jo 0xbe7b
0000BE0B  45                inc ebp
0000BE0C  7600              jna 0xbe0e
0000BE0E  5F                pop edi
0000BE0F  5A                pop edx
0000BE10  53                push ebx
0000BE11  7431              jz 0xbe44
0000BE13  325F5F            xor bl,[edi+0x5f]
0000BE16  6E                outsb
0000BE17  697465725F626173  imul esi,[ebp+0x72],dword 0x7361625f
0000BE1F  6549              gs dec ecx
0000BE21  50                push eax
0000BE22  69454E53743131    imul eax,[ebp+0x4e],dword 0x31317453
0000BE29  5F                pop edi
0000BE2A  4E                dec esi
0000BE2B  697465725F626173  imul esi,[ebp+0x72],dword 0x7361625f
0000BE33  6549              gs dec ecx
0000BE35  54                push esp
0000BE36  5F                pop edi
0000BE37  45                inc ebp
0000BE38  3133              xor [ebx],esi
0000BE3A  6974657261746F72  imul esi,[ebp+0x72],dword 0x726f7461
0000BE42  5F                pop edi
0000BE43  7479              jz 0xbebe
0000BE45  7065              jo 0xbeac
0000BE47  45                inc ebp
0000BE48  53                push ebx
0000BE49  325F00            xor bl,[edi+0x0]
0000BE4C  5F                pop edi
0000BE4D  5A                pop edx
0000BE4E  53                push ebx
0000BE4F  7431              jz 0xbe82
0000BE51  325F5F            xor bl,[edi+0x5f]
0000BE54  6D                insd
0000BE55  697465725F626173  imul esi,[ebp+0x72],dword 0x7361625f
0000BE5D  6549              gs dec ecx
0000BE5F  50                push eax
0000BE60  53                push ebx
0000BE61  7434              jz 0xbe97
0000BE63  7061              jo 0xbec6
0000BE65  6972496953305F    imul esi,[edx+0x49],dword 0x5f305369
0000BE6C  49                dec ecx
0000BE6D  69694545454E53    imul ebp,[ecx+0x45],dword 0x534e4545
0000BE74  7431              jz 0xbea7
0000BE76  315F4D            xor [edi+0x4d],ebx
0000BE79  697465725F626173  imul esi,[ebp+0x72],dword 0x7361625f
0000BE81  6549              gs dec ecx
0000BE83  54                push esp
0000BE84  5F                pop edi
0000BE85  45                inc ebp
0000BE86  3133              xor [ebx],esi
0000BE88  6974657261746F72  imul esi,[ebp+0x72],dword 0x726f7461
0000BE90  5F                pop edi
0000BE91  7479              jz 0xbf0c
0000BE93  7065              jo 0xbefa
0000BE95  45                inc ebp
0000BE96  53                push ebx
0000BE97  355F006D61        xor eax,0x616d005f
0000BE9C  696E005F696E69    imul ebp,[esi+0x0],dword 0x696e695f
0000BEA3  7400              jz 0xbea5
0000BEA5  5F                pop edi
0000BEA6  5A                pop edx
0000BEA7  4E                dec esi
0000BEA8  395F5F            cmp [edi+0x5f],ebx
0000BEAB  676E              a16 outsb
0000BEAD  755F              jnz 0xbf0e
0000BEAF  637878            arpl [eax+0x78],di
0000BEB2  3137              xor [edi],esi
0000BEB4  5F                pop edi
0000BEB5  5F                pop edi
0000BEB6  6E                outsb
0000BEB7  6F                outsd
0000BEB8  726D              jc 0xbf27
0000BEBA  61                popa
0000BEBB  6C                insb
0000BEBC  5F                pop edi
0000BEBD  6974657261746F72  imul esi,[ebp+0x72],dword 0x726f7461
0000BEC5  49                dec ecx
0000BEC6  50                push eax
0000BEC7  53                push ebx
0000BEC8  7434              jz 0xbefe
0000BECA  7061              jo 0xbf2d
0000BECC  6972496953315F    imul esi,[edx+0x49],dword 0x5f315369
0000BED3  49                dec ecx
0000BED4  69694545537436    imul ebp,[ecx+0x45],dword 0x36745345
0000BEDB  7665              jna 0xbf42
0000BEDD  63746F72          arpl [edi+ebp*2+0x72],si
0000BEE1  49                dec ecx
0000BEE2  53                push ebx
0000BEE3  335F53            xor ebx,[edi+0x53]
0000BEE6  61                popa
0000BEE7  49                dec ecx
0000BEE8  53                push ebx
0000BEE9  335F45            xor ebx,[edi+0x45]
0000BEEC  45                inc ebp
0000BEED  45                inc ebp
0000BEEE  43                inc ebx
0000BEEF  314552            xor [ebp+0x52],eax
0000BEF2  4B                dec ebx
0000BEF3  53                push ebx
0000BEF4  345F              xor al,0x5f
0000BEF6  005F5A            add [edi+0x5a],bl
0000BEF9  4E                dec esi
0000BEFA  395F5F            cmp [edi+0x5f],ebx
0000BEFD  676E              a16 outsb
0000BEFF  755F              jnz 0xbf60
0000BF01  637878            arpl [eax+0x78],di
0000BF04  3133              xor [ebx],esi
0000BF06  6E                outsb
0000BF07  65775F            gs ja 0xbf69
0000BF0A  61                popa
0000BF0B  6C                insb
0000BF0C  6C                insb
0000BF0D  6F                outsd
0000BF0E  636174            arpl [ecx+0x74],sp
0000BF11  6F                outsd
0000BF12  7249              jc 0xbf5d
0000BF14  69454332457600    imul eax,[ebp+0x43],dword 0x764532
0000BF1B  5F                pop edi
0000BF1C  5A                pop edx
0000BF1D  4E                dec esi
0000BF1E  395F5F            cmp [edi+0x5f],ebx
0000BF21  676E              a16 outsb
0000BF23  755F              jnz 0xbf84
0000BF25  637878            arpl [eax+0x78],di
0000BF28  3133              xor [ebx],esi
0000BF2A  6E                outsb
0000BF2B  65775F            gs ja 0xbf8d
0000BF2E  61                popa
0000BF2F  6C                insb
0000BF30  6C                insb
0000BF31  6F                outsd
0000BF32  636174            arpl [ecx+0x74],sp
0000BF35  6F                outsd
0000BF36  7249              jc 0xbf81
0000BF38  53                push ebx
0000BF39  7434              jz 0xbf6f
0000BF3B  7061              jo 0xbf9e
0000BF3D  6972496953315F    imul esi,[edx+0x49],dword 0x5f315369
0000BF44  49                dec ecx
0000BF45  69694545454432    imul ebp,[ecx+0x45],dword 0x32444545
0000BF4C  45                inc ebp
0000BF4D  7600              jna 0xbf4f
0000BF4F  5F                pop edi
0000BF50  5A                pop edx
0000BF51  4E                dec esi
0000BF52  53                push ebx
0000BF53  7436              jz 0xbf8b
0000BF55  7665              jna 0xbfbc
0000BF57  63746F72          arpl [edi+ebp*2+0x72],si
0000BF5B  49                dec ecx
0000BF5C  69536149694545    imul edx,[ebx+0x61],dword 0x45456949
0000BF63  3138              xor [eax],edi
0000BF65  5F                pop edi
0000BF66  4D                dec ebp
0000BF67  5F                pop edi
0000BF68  66696C6C5F696E    imul bp,[esp+ebp*2+0x5f],word 0x6e69
0000BF6F  697469616C697A65  imul esi,[ecx+ebp*2+0x61],dword 0x657a696c
0000BF77  45                inc ebp
0000BF78  6A52              push byte +0x52
0000BF7A  4B                dec ebx
0000BF7B  69                db 0x69
0000BF7C  00                db 0x00
