00000000  7F45              jg 0x47
00000002  4C                dec esp
00000003  46                inc esi
00000004  0101              add [ecx],eax
00000006  0100              add [eax],eax
00000008  0000              add [eax],al
0000000A  0000              add [eax],al
0000000C  0000              add [eax],al
0000000E  0000              add [eax],al
00000010  0200              add al,[eax]
00000012  0300              add eax,[eax]
00000014  0100              add [eax],eax
00000016  0000              add [eax],al
00000018  208804083400      and [eax+0x340804],cl
0000001E  0000              add [eax],al
00000020  90                nop
00000021  3C00              cmp al,0x0
00000023  0000              add [eax],al
00000025  0000              add [eax],al
00000027  003400            add [eax+eax],dh
0000002A  2000              and [eax],al
0000002C  0800              or [eax],al
0000002E  2800              sub [eax],al
00000030  260023            add [es:ebx],ah
00000033  0006              add [esi],al
00000035  0000              add [eax],al
00000037  003400            add [eax+eax],dh
0000003A  0000              add [eax],al
0000003C  3480              xor al,0x80
0000003E  0408              add al,0x8
00000040  3480              xor al,0x80
00000042  0408              add al,0x8
00000044  0001              add [ecx],al
00000046  0000              add [eax],al
00000048  0001              add [ecx],al
0000004A  0000              add [eax],al
0000004C  0500000004        add eax,0x4000000
00000051  0000              add [eax],al
00000053  0003              add [ebx],al
00000055  0000              add [eax],al
00000057  003401            add [ecx+eax],dh
0000005A  0000              add [eax],al
0000005C  3481              xor al,0x81
0000005E  0408              add al,0x8
00000060  3481              xor al,0x81
00000062  0408              add al,0x8
00000064  1300              adc eax,[eax]
00000066  0000              add [eax],al
00000068  1300              adc eax,[eax]
0000006A  0000              add [eax],al
0000006C  0400              add al,0x0
0000006E  0000              add [eax],al
00000070  0100              add [eax],eax
00000072  0000              add [eax],al
00000074  0100              add [eax],eax
00000076  0000              add [eax],al
00000078  0000              add [eax],al
0000007A  0000              add [eax],al
0000007C  008004080080      add [eax+0x80000804],al
00000082  0408              add al,0x8
00000084  EF                out dx,eax
00000085  3200              xor al,[eax]
00000087  00EF              add bh,ch
00000089  3200              xor al,[eax]
0000008B  000500000000      add [0x0],al
00000091  1000              adc [eax],al
00000093  0001              add [ecx],al
00000095  0000              add [eax],al
00000097  00F0              add al,dh
00000099  3200              xor al,[eax]
0000009B  00F0              add al,dh
0000009D  C20408            ret 0x804
000000A0  F0C20408          lock ret 0x804
000000A4  4C                dec esp
000000A5  0100              add [eax],eax
000000A7  0028              add [eax],ch
000000A9  0300              add eax,[eax]
000000AB  0006              add [esi],al
000000AD  0000              add [eax],al
000000AF  0000              add [eax],al
000000B1  1000              adc [eax],al
000000B3  0002              add [edx],al
000000B5  0000              add [eax],al
000000B7  0008              add [eax],cl
000000B9  3300              xor eax,[eax]
000000BB  0008              add [eax],cl
000000BD  C3                ret
000000BE  0408              add al,0x8
000000C0  08C3              or bl,al
000000C2  0408              add al,0x8
000000C4  E000              loopne 0xc6
000000C6  0000              add [eax],al
000000C8  E000              loopne 0xca
000000CA  0000              add [eax],al
000000CC  06                push es
000000CD  0000              add [eax],al
000000CF  000400            add [eax+eax],al
000000D2  0000              add [eax],al
000000D4  0400              add al,0x0
000000D6  0000              add [eax],al
000000D8  48                dec eax
000000D9  0100              add [eax],eax
000000DB  004881            add [eax-0x7f],cl
000000DE  0408              add al,0x8
000000E0  48                dec eax
000000E1  81040820000000    add dword [eax+ecx],0x20
000000E8  2000              and [eax],al
000000EA  0000              add [eax],al
000000EC  0400              add al,0x0
000000EE  0000              add [eax],al
000000F0  0400              add al,0x0
000000F2  0000              add [eax],al
000000F4  50                push eax
000000F5  E574              in eax,0x74
000000F7  64882400          mov [fs:eax+eax],ah
000000FB  0088A4040888      add [eax+0x880804a4],cl
00000101  A4                movsb
00000102  0408              add al,0x8
00000104  8402              test [edx],al
00000106  0000              add [eax],al
00000108  8402              test [edx],al
0000010A  0000              add [eax],al
0000010C  0400              add al,0x0
0000010E  0000              add [eax],al
00000110  0400              add al,0x0
00000112  0000              add [eax],al
00000114  51                push ecx
00000115  E574              in eax,0x74
00000117  640000            add [fs:eax],al
0000011A  0000              add [eax],al
0000011C  0000              add [eax],al
0000011E  0000              add [eax],al
00000120  0000              add [eax],al
00000122  0000              add [eax],al
00000124  0000              add [eax],al
00000126  0000              add [eax],al
00000128  0000              add [eax],al
0000012A  0000              add [eax],al
0000012C  06                push es
0000012D  0000              add [eax],al
0000012F  000400            add [eax+eax],al
00000132  0000              add [eax],al
00000134  2F                das
00000135  6C                insb
00000136  69622F6C642D6C    imul esp,[edx+0x2f],dword 0x6c2d646c
0000013D  696E75782E736F    imul ebp,[esi+0x75],dword 0x6f732e78
00000144  2E3200            xor al,[cs:eax]
00000147  000400            add [eax+eax],al
0000014A  0000              add [eax],al
0000014C  1000              adc [eax],al
0000014E  0000              add [eax],al
00000150  0100              add [eax],eax
00000152  0000              add [eax],al
00000154  47                inc edi
00000155  4E                dec esi
00000156  55                push ebp
00000157  0000              add [eax],al
00000159  0000              add [eax],al
0000015B  0002              add [edx],al
0000015D  0000              add [eax],al
0000015F  0000              add [eax],al
00000161  0000              add [eax],al
00000163  0000              add [eax],al
00000165  0000              add [eax],al
00000167  0011              add [ecx],dl
00000169  0000              add [eax],al
0000016B  0017              add [edi],dl
0000016D  0000              add [eax],al
0000016F  0010              add [eax],dl
00000171  0000              add [eax],al
00000173  0000              add [eax],al
00000175  0000              add [eax],al
00000177  000C00            add [eax+eax],cl
0000017A  0000              add [eax],al
0000017C  1300              adc eax,[eax]
0000017E  0000              add [eax],al
00000180  1500000000        adc eax,0x0
00000185  0000              add [eax],al
00000187  0016              add [esi],dl
00000189  0000              add [eax],al
0000018B  0009              add [ecx],cl
0000018D  0000              add [eax],al
0000018F  0011              add [ecx],dl
00000191  0000              add [eax],al
00000193  0000              add [eax],al
00000195  0000              add [eax],al
00000197  0000              add [eax],al
00000199  0000              add [eax],al
0000019B  0000              add [eax],al
0000019D  0000              add [eax],al
0000019F  000B              add [ebx],cl
000001A1  0000              add [eax],al
000001A3  000D00000003      add [0x3000000],cl
000001A9  0000              add [eax],al
000001AB  000400            add [eax+eax],al
000001AE  0000              add [eax],al
000001B0  1400              adc al,0x0
000001B2  0000              add [eax],al
000001B4  0000              add [eax],al
000001B6  0000              add [eax],al
000001B8  0000              add [eax],al
000001BA  0000              add [eax],al
000001BC  0000              add [eax],al
000001BE  0000              add [eax],al
000001C0  0000              add [eax],al
000001C2  0000              add [eax],al
000001C4  0000              add [eax],al
000001C6  0000              add [eax],al
000001C8  0000              add [eax],al
000001CA  0000              add [eax],al
000001CC  0000              add [eax],al
000001CE  0000              add [eax],al
000001D0  0000              add [eax],al
000001D2  0000              add [eax],al
000001D4  0200              add al,[eax]
000001D6  0000              add [eax],al
000001D8  06                push es
000001D9  0000              add [eax],al
000001DB  0000              add [eax],al
000001DD  0000              add [eax],al
000001DF  0007              add [edi],al
000001E1  0000              add [eax],al
000001E3  0008              add [eax],cl
000001E5  0000              add [eax],al
000001E7  000A              add [edx],cl
000001E9  0000              add [eax],al
000001EB  000500000000      add [0x0],al
000001F1  0000              add [eax],al
000001F3  000F              add [edi],cl
000001F5  0000              add [eax],al
000001F7  0000              add [eax],al
000001F9  0000              add [eax],al
000001FB  0001              add [ecx],al
000001FD  0000              add [eax],al
000001FF  000E              add [esi],cl
00000201  0000              add [eax],al
00000203  0000              add [eax],al
00000205  0000              add [eax],al
00000207  0012              add [edx],dl
00000209  0000              add [eax],al
0000020B  0000              add [eax],al
0000020D  0000              add [eax],al
0000020F  0000              add [eax],al
00000211  0000              add [eax],al
00000213  0000              add [eax],al
00000215  0000              add [eax],al
00000217  0000              add [eax],al
00000219  0000              add [eax],al
0000021B  0000              add [eax],al
0000021D  0000              add [eax],al
0000021F  000D01000040      add [0x40000001],cl
00000225  C40408            les eax,[eax+ecx]
00000228  90                nop
00000229  0000              add [eax],al
0000022B  0011              add [ecx],dl
0000022D  0019              add [ecx],bl
0000022F  006701            add [edi+0x1],ah
00000232  0000              add [eax],al
00000234  0000              add [eax],al
00000236  0000              add [eax],al
00000238  0000              add [eax],al
0000023A  0000              add [eax],al
0000023C  1200              adc al,[eax]
0000023E  0000              add [eax],al
00000240  CA0100            retf 0x1
00000243  0000              add [eax],al
00000245  0000              add [eax],al
00000247  0000              add [eax],al
00000249  0000              add [eax],al
0000024B  0012              add [edx],dl
0000024D  0000              add [eax],al
0000024F  00DF              add bh,bl
00000251  0000              add [eax],al
00000253  0000              add [eax],al
00000255  0000              add [eax],al
00000257  0000              add [eax],al
00000259  0000              add [eax],al
0000025B  0020              add [eax],ah
0000025D  0000              add [eax],al
0000025F  002E              add [esi],ch
00000261  0100              add [eax],eax
00000263  0000              add [eax],al
00000265  0000              add [eax],al
00000267  0000              add [eax],al
00000269  0000              add [eax],al
0000026B  0020              add [eax],ah
0000026D  0000              add [eax],al
0000026F  005C0000          add [eax+eax+0x0],bl
00000273  0000              add [eax],al
00000275  0000              add [eax],al
00000277  0000              add [eax],al
00000279  0000              add [eax],al
0000027B  0012              add [edx],dl
0000027D  0000              add [eax],al
0000027F  0016              add [esi],dl
00000281  0100              add [eax],eax
00000283  0000              add [eax],al
00000285  0000              add [eax],al
00000287  0000              add [eax],al
00000289  0000              add [eax],al
0000028B  0012              add [edx],dl
0000028D  0000              add [eax],al
0000028F  00EE              add dh,ch
00000291  0000              add [eax],al
00000293  00E0              add al,ah
00000295  C40408            les eax,[eax+ecx]
00000298  8C00              mov [eax],es
0000029A  0000              add [eax],al
0000029C  1100              adc [eax],eax
0000029E  1900              sbb [eax],eax
000002A0  D7                xlatb
000002A1  0100              add [eax],eax
000002A3  0000              add [eax],al
000002A5  0000              add [eax],al
000002A7  0000              add [eax],al
000002A9  0000              add [eax],al
000002AB  0012              add [edx],dl
000002AD  0000              add [eax],al
000002AF  00C1              add cl,al
000002B1  0000              add [eax],al
000002B3  009087040800      add [eax+0x80487],dl
000002B9  0000              add [eax],al
000002BB  0012              add [edx],dl
000002BD  0000              add [eax],al
000002BF  006300            add [ebx+0x0],ah
000002C2  0000              add [eax],al
000002C4  0000              add [eax],al
000002C6  0000              add [eax],al
000002C8  0000              add [eax],al
000002CA  0000              add [eax],al
000002CC  2000              and [eax],al
000002CE  0000              add [eax],al
000002D0  8900              mov [eax],eax
000002D2  0000              add [eax],al
000002D4  0000              add [eax],al
000002D6  0000              add [eax],al
000002D8  0000              add [eax],al
000002DA  0000              add [eax],al
000002DC  1200              adc al,[eax]
000002DE  0000              add [eax],al
000002E0  BB01000058        mov ebx,0x58000001
000002E5  A4                movsb
000002E6  0408              add al,0x8
000002E8  0400              add al,0x0
000002EA  0000              add [eax],al
000002EC  1100              adc [eax],eax
000002EE  0E                push cs
000002EF  004D01            add [ebp+0x1],cl
000002F2  0000              add [eax],al
000002F4  0000              add [eax],al
000002F6  0000              add [eax],al
000002F8  0000              add [eax],al
000002FA  0000              add [eax],al
000002FC  2000              and [eax],al
000002FE  0000              add [eax],al
00000300  7F00              jg 0x302
00000302  0000              add [eax],al
00000304  80C504            add ch,0x4
00000307  088C0000001100    or [eax+eax+0x110000],cl
0000030E  1900              sbb [eax],eax
00000310  D900              fld dword [eax]
00000312  0000              add [eax],al
00000314  0000              add [eax],al
00000316  0000              add [eax],al
00000318  0000              add [eax],al
0000031A  0000              add [eax],al
0000031C  1200              adc al,[eax]
0000031E  0000              add [eax],al
00000320  42                inc edx
00000321  0100              add [eax],eax
00000323  0000              add [eax],al
00000325  0000              add [eax],al
00000327  0000              add [eax],al
00000329  0000              add [eax],al
0000032B  0012              add [edx],dl
0000032D  0000              add [eax],al
0000032F  0010              add [eax],dl
00000331  0000              add [eax],al
00000333  0000              add [eax],al
00000335  0000              add [eax],al
00000337  0000              add [eax],al
00000339  0000              add [eax],al
0000033B  0012              add [edx],dl
0000033D  0000              add [eax],al
0000033F  007101            add [ecx+0x1],dh
00000342  0000              add [eax],al
00000344  0000              add [eax],al
00000346  0000              add [eax],al
00000348  0000              add [eax],al
0000034A  0000              add [eax],al
0000034C  1200              adc al,[eax]
0000034E  0000              add [eax],al
00000350  2100              and [eax],eax
00000352  0000              add [eax],al
00000354  F0870408          lock xchg eax,[eax+ecx]
00000358  0000              add [eax],al
0000035A  0000              add [eax],al
0000035C  1200              adc al,[eax]
0000035E  0000              add [eax],al
00000360  F8                clc
00000361  0000              add [eax],al
00000363  0000              add [eax],al
00000365  880408            mov [eax+ecx],al
00000368  0000              add [eax],al
0000036A  0000              add [eax],al
0000036C  1200              adc al,[eax]
0000036E  0000              add [eax],al
00000370  A201000000        mov [0x1],al
00000375  0000              add [eax],al
00000377  0000              add [eax],al
00000379  0000              add [eax],al
0000037B  0012              add [edx],dl
0000037D  0000              add [eax],al
0000037F  0000              add [eax],al
00000381  6C                insb
00000382  6962737464632B    imul esp,[edx+0x73],dword 0x2b636474
00000389  2B2E              sub ebp,[esi]
0000038B  736F              jnc 0x3fc
0000038D  2E36005F5A        add [ss:edi+0x5a],bl
00000392  4E                dec esi
00000393  53                push ebx
00000394  6F                outsd
00000395  6C                insb
00000396  7345              jnc 0x3dd
00000398  50                push eax
00000399  46                inc esi
0000039A  52                push edx
0000039B  53                push ebx
0000039C  6F                outsd
0000039D  53                push ebx
0000039E  5F                pop edi
0000039F  45                inc ebp
000003A0  005F5A            add [edi+0x5a],bl
000003A3  53                push ebx
000003A4  7434              jz 0x3da
000003A6  656E              gs outsb
000003A8  646C              fs insb
000003AA  49                dec ecx
000003AB  635374            arpl [ebx+0x74],dx
000003AE  3131              xor [ecx],esi
000003B0  636861            arpl [eax+0x61],bp
000003B3  725F              jc 0x414
000003B5  7472              jz 0x429
000003B7  61                popa
000003B8  6974734963454552  imul esi,[ebx+esi*2+0x49],dword 0x52454563
000003C0  53                push ebx
000003C1  7431              jz 0x3f4
000003C3  336261            xor esp,[edx+0x61]
000003C6  7369              jnc 0x431
000003C8  635F6F            arpl [edi+0x6f],bx
000003CB  7374              jnc 0x441
000003CD  7265              jc 0x434
000003CF  61                popa
000003D0  6D                insd
000003D1  49                dec ecx
000003D2  54                push esp
000003D3  5F                pop edi
000003D4  54                push esp
000003D5  305F45            xor [edi+0x45],bl
000003D8  53                push ebx
000003D9  365F              ss pop edi
000003DB  005F5A            add [edi+0x5a],bl
000003DE  646C              fs insb
000003E0  50                push eax
000003E1  7600              jna 0x3e3
000003E3  5F                pop edi
000003E4  49                dec ecx
000003E5  54                push esp
000003E6  4D                dec ebp
000003E7  5F                pop edi
000003E8  64657265          gs jc 0x451
000003EC  676973746572544D  imul esi,[bp+di+0x74],dword 0x4d547265
000003F4  43                inc ebx
000003F5  6C                insb
000003F6  6F                outsd
000003F7  6E                outsb
000003F8  6554              gs push esp
000003FA  61                popa
000003FB  626C6500          bound ebp,[ebp+0x0]
000003FF  5F                pop edi
00000400  5A                pop edx
00000401  53                push ebx
00000402  7434              jz 0x438
00000404  636F75            arpl [edi+0x75],bp
00000407  7400              jz 0x409
00000409  5F                pop edi
0000040A  5A                pop edx
0000040B  53                push ebx
0000040C  746C              jz 0x47a
0000040E  7349              jnc 0x459
00000410  53                push ebx
00000411  7431              jz 0x444
00000413  316368            xor [ebx+0x68],esp
00000416  61                popa
00000417  725F              jc 0x478
00000419  7472              jz 0x48d
0000041B  61                popa
0000041C  6974734963454552  imul esi,[ebx+esi*2+0x49],dword 0x52454563
00000424  53                push ebx
00000425  7431              jz 0x458
00000427  336261            xor esp,[edx+0x61]
0000042A  7369              jnc 0x495
0000042C  635F6F            arpl [edi+0x6f],bx
0000042F  7374              jnc 0x4a5
00000431  7265              jc 0x498
00000433  61                popa
00000434  6D                insd
00000435  49                dec ecx
00000436  63545F45          arpl [edi+ebx*2+0x45],dx
0000043A  53                push ebx
0000043B  355F504B63        xor eax,0x634b505f
00000440  005F5A            add [edi+0x5a],bl
00000443  4E                dec esi
00000444  53                push ebx
00000445  7438              jz 0x47f
00000447  696F735F626173    imul ebp,[edi+0x73],dword 0x7361625f
0000044E  653449            gs xor al,0x49
00000451  6E                outsb
00000452  697444314576005F  imul esi,[esp+eax*2+0x31],dword 0x5f007645
0000045A  5A                pop edx
0000045B  6E                outsb
0000045C  776A              ja 0x4c8
0000045E  005F5F            add [edi+0x5f],bl
00000461  676D              a16 insd
00000463  6F                outsd
00000464  6E                outsb
00000465  5F                pop edi
00000466  7374              jnc 0x4dc
00000468  61                popa
00000469  7274              jc 0x4df
0000046B  5F                pop edi
0000046C  5F                pop edi
0000046D  005F5A            add [edi+0x5a],bl
00000470  53                push ebx
00000471  7434              jz 0x4a7
00000473  636572            arpl [ebp+0x72],sp
00000476  7200              jc 0x478
00000478  5F                pop edi
00000479  5F                pop edi
0000047A  677878            a16 js 0x4f5
0000047D  5F                pop edi
0000047E  7065              jo 0x4e5
00000480  7273              jc 0x4f5
00000482  6F                outsd
00000483  6E                outsb
00000484  61                popa
00000485  6C                insb
00000486  6974795F7630005F  imul esi,[ecx+edi*2+0x5f],dword 0x5f003076
0000048E  5A                pop edx
0000048F  53                push ebx
00000490  7433              jz 0x4c5
00000492  63696E            arpl [ecx+0x6e],bp
00000495  005F5A            add [edi+0x5a],bl
00000498  4E                dec esi
00000499  53                push ebx
0000049A  7438              jz 0x4d4
0000049C  696F735F626173    imul ebp,[edi+0x73],dword 0x7361625f
000004A3  653449            gs xor al,0x49
000004A6  6E                outsb
000004A7  697443314576005F  imul esi,[ebx+eax*2+0x31],dword 0x5f007645
000004AF  4A                dec edx
000004B0  765F              jna 0x511
000004B2  52                push edx
000004B3  6567697374657243  imul esi,[gs:bp+di+0x74],dword 0x6c437265
         -6C
000004BC  61                popa
000004BD  7373              jnc 0x532
000004BF  657300            gs jnc 0x4c2
000004C2  5F                pop edi
000004C3  5A                pop edx
000004C4  4E                dec esi
000004C5  53                push ebx
000004C6  69727345526900    imul esi,[edx+0x73],dword 0x695245
000004CD  5F                pop edi
000004CE  49                dec ecx
000004CF  54                push esp
000004D0  4D                dec ebp
000004D1  5F                pop edi
000004D2  7265              jc 0x539
000004D4  676973746572544D  imul esi,[bp+di+0x74],dword 0x4d547265
000004DC  43                inc ebx
000004DD  6C                insb
000004DE  6F                outsd
000004DF  6E                outsb
000004E0  6554              gs push esp
000004E2  61                popa
000004E3  626C6500          bound ebp,[ebp+0x0]
000004E7  5F                pop edi
000004E8  5A                pop edx
000004E9  4E                dec esi
000004EA  53                push ebx
000004EB  6F                outsd
000004EC  6C                insb
000004ED  7345              jnc 0x534
000004EF  69005F5A5374      imul eax,[eax],dword 0x74535a5f
000004F5  3137              xor [edi],esi
000004F7  5F                pop edi
000004F8  5F                pop edi
000004F9  7468              jz 0x563
000004FB  726F              jc 0x56c
000004FD  775F              ja 0x55e
000004FF  626164            bound esp,[ecx+0x64]
00000502  5F                pop edi
00000503  61                popa
00000504  6C                insb
00000505  6C                insb
00000506  6F                outsd
00000507  637600            arpl [esi+0x0],si
0000050A  6C                insb
0000050B  69626D2E736F2E    imul esp,[edx+0x6d],dword 0x2e6f732e
00000512  36006C6962        add [ss:ecx+ebp*2+0x62],ch
00000517  6763635F          arpl [bp+di+0x5f],sp
0000051B  732E              jnc 0x54b
0000051D  736F              jnc 0x58e
0000051F  2E3100            xor [cs:eax],eax
00000522  5F                pop edi
00000523  55                push ebp
00000524  6E                outsb
00000525  7769              ja 0x590
00000527  6E                outsb
00000528  645F              fs pop edi
0000052A  52                push edx
0000052B  657375            gs jnc 0x5a3
0000052E  6D                insd
0000052F  65006C6962        add [gs:ecx+ebp*2+0x62],ch
00000534  632E              arpl [esi],bp
00000536  736F              jnc 0x5a7
00000538  2E36005F49        add [ss:edi+0x49],bl
0000053D  4F                dec edi
0000053E  5F                pop edi
0000053F  7374              jnc 0x5b5
00000541  64696E5F75736564  imul ebp,[fs:esi+0x5f],dword 0x64657375
00000549  005F5F            add [edi+0x5f],bl
0000054C  637861            arpl [eax+0x61],di
0000054F  5F                pop edi
00000550  61                popa
00000551  7465              jz 0x5b8
00000553  7869              js 0x5be
00000555  7400              jz 0x557
00000557  5F                pop edi
00000558  5F                pop edi
00000559  6C                insb
0000055A  6962635F737461    imul esp,[edx+0x63],dword 0x6174735f
00000561  7274              jc 0x5d7
00000563  5F                pop edi
00000564  6D                insd
00000565  61                popa
00000566  696E004743435F    imul ebp,[esi+0x0],dword 0x5f434347
0000056D  332E              xor ebp,[esi]
0000056F  3000              xor [eax],al
00000571  47                inc edi
00000572  4C                dec esp
00000573  49                dec ecx
00000574  42                inc edx
00000575  43                inc ebx
00000576  5F                pop edi
00000577  322E              xor ch,[esi]
00000579  3000              xor [eax],al
0000057B  47                inc edi
0000057C  4C                dec esp
0000057D  49                dec ecx
0000057E  42                inc edx
0000057F  43                inc ebx
00000580  5F                pop edi
00000581  322E              xor ch,[esi]
00000583  312E              xor [esi],ebp
00000585  3300              xor eax,[eax]
00000587  43                inc ebx
00000588  58                pop eax
00000589  58                pop eax
0000058A  41                inc ecx
0000058B  42                inc edx
0000058C  49                dec ecx
0000058D  5F                pop edi
0000058E  312E              xor [esi],ebp
00000590  3300              xor eax,[eax]
00000592  47                inc edi
00000593  4C                dec esp
00000594  49                dec ecx
00000595  42                inc edx
00000596  43                inc ebx
00000597  58                pop eax
00000598  58                pop eax
00000599  5F                pop edi
0000059A  332E              xor ebp,[esi]
0000059C  3400              xor al,0x0
0000059E  0000              add [eax],al
000005A0  0200              add al,[eax]
000005A2  0200              add al,[eax]
000005A4  0300              add eax,[eax]
000005A6  0000              add [eax],al
000005A8  0000              add [eax],al
000005AA  0200              add al,[eax]
000005AC  0200              add al,[eax]
000005AE  0200              add al,[eax]
000005B0  0400              add al,0x0
000005B2  0200              add al,[eax]
000005B4  0000              add [eax],al
000005B6  0200              add al,[eax]
000005B8  0100              add [eax],eax
000005BA  0000              add [eax],al
000005BC  0200              add al,[eax]
000005BE  0200              add al,[eax]
000005C0  0200              add al,[eax]
000005C2  0200              add al,[eax]
000005C4  0200              add al,[eax]
000005C6  0200              add al,[eax]
000005C8  0500060001        add eax,0x1000600
000005CD  0001              add [ecx],al
000005CF  00940100001000    add [ecx+eax+0x100000],dl
000005D6  0000              add [eax],al
000005D8  2000              and [eax],al
000005DA  0000              add [eax],al
000005DC  50                push eax
000005DD  26790B            es jns 0x5eb
000005E0  0000              add [eax],al
000005E2  06                push es
000005E3  00E9              add cl,ch
000005E5  0100              add [eax],eax
000005E7  0000              add [eax],al
000005E9  0000              add [eax],al
000005EB  0001              add [ecx],al
000005ED  0002              add [edx],al
000005EF  00B101000010      add [ecx+0x10000001],dh
000005F5  0000              add [eax],al
000005F7  0030              add [eax],dh
000005F9  0000              add [eax],al
000005FB  0010              add [eax],dl
000005FD  69690D00000400    imul ebp,[ecx+0xd],dword 0x40000
00000604  F1                int1
00000605  0100              add [eax],eax
00000607  0010              add [eax],dl
00000609  0000              add [eax],al
0000060B  00731F            add [ebx+0x1f],dh
0000060E  690900000300      imul ecx,[ecx],dword 0x30000
00000614  FB                sti
00000615  0100              add [eax],eax
00000617  0000              add [eax],al
00000619  0000              add [eax],al
0000061B  0001              add [ecx],al
0000061D  0002              add [edx],al
0000061F  0001              add [ecx],al
00000621  0000              add [eax],al
00000623  0010              add [eax],dl
00000625  0000              add [eax],al
00000627  0000              add [eax],al
00000629  0000              add [eax],al
0000062B  00D3              add bl,dl
0000062D  AF                scasd
0000062E  6B050000050007    imul eax,[0x50000],byte +0x7
00000635  0200              add al,[eax]
00000637  0010              add [eax],dl
00000639  0000              add [eax],al
0000063B  00742992          add [ecx+ebp-0x6e],dh
0000063F  0800              or [eax],al
00000641  0002              add [edx],al
00000643  0012              add [edx],dl
00000645  0200              add al,[eax]
00000647  0000              add [eax],al
00000649  0000              add [eax],al
0000064B  00E8              add al,ch
0000064D  C3                ret
0000064E  0408              add al,0x8
00000650  06                push es
00000651  0400              add al,0x0
00000653  0040C4            add [eax-0x3c],al
00000656  0408              add al,0x8
00000658  05010000E0        add eax,0xe0000001
0000065D  C40408            les eax,[eax+ecx]
00000660  0508000080        add eax,0x80000008
00000665  C50408            lds eax,[eax+ecx]
00000668  050F0000F8        add eax,0xf800000f
0000066D  C3                ret
0000066E  0408              add al,0x8
00000670  07                pop es
00000671  0200              add al,[eax]
00000673  00FC              add ah,bh
00000675  C3                ret
00000676  0408              add al,0x8
00000678  07                pop es
00000679  0300              add eax,[eax]
0000067B  0000              add [eax],al
0000067D  C40408            les eax,[eax+ecx]
00000680  07                pop es
00000681  0400              add al,0x0
00000683  0004C4            add [esp+eax*8],al
00000686  0408              add al,0x8
00000688  07                pop es
00000689  06                push es
0000068A  0000              add [eax],al
0000068C  08C4              or ah,al
0000068E  0408              add al,0x8
00000690  07                pop es
00000691  07                pop es
00000692  0000              add [eax],al
00000694  0CC4              or al,0xc4
00000696  0408              add al,0x8
00000698  07                pop es
00000699  0900              or [eax],eax
0000069B  0010              add [eax],dl
0000069D  C40408            les eax,[eax+ecx]
000006A0  07                pop es
000006A1  0A00              or al,[eax]
000006A3  0014C4            add [esp+eax*8],dl
000006A6  0408              add al,0x8
000006A8  07                pop es
000006A9  0C00              or al,0x0
000006AB  0018              add [eax],bl
000006AD  C40408            les eax,[eax+ecx]
000006B0  07                pop es
000006B1  1000              adc [eax],al
000006B3  001CC4            add [esp+eax*8],bl
000006B6  0408              add al,0x8
000006B8  07                pop es
000006B9  1100              adc [eax],eax
000006BB  0020              add [eax],ah
000006BD  C40408            les eax,[eax+ecx]
000006C0  07                pop es
000006C1  1200              adc al,[eax]
000006C3  0024C4            add [esp+eax*8],ah
000006C6  0408              add al,0x8
000006C8  07                pop es
000006C9  1300              adc eax,[eax]
000006CB  0028              add [eax],ch
000006CD  C40408            les eax,[eax+ecx]
000006D0  07                pop es
000006D1  1400              adc al,0x0
000006D3  002CC4            add [esp+eax*8],ch
000006D6  0408              add al,0x8
000006D8  07                pop es
000006D9  15000030C4        adc eax,0xc4300000
000006DE  0408              add al,0x8
000006E0  07                pop es
000006E1  16                push ss
000006E2  0000              add [eax],al
000006E4  55                push ebp
000006E5  89E5              mov ebp,esp
000006E7  53                push ebx
000006E8  83EC04            sub esp,byte +0x4
000006EB  E800000000        call 0x6f0
000006F0  5B                pop ebx
000006F1  81C3FC3C0000      add ebx,0x3cfc
000006F7  8B93FCFFFFFF      mov edx,[ebx+0xfffffffc]
000006FD  85D2              test edx,edx
000006FF  7405              jz 0x706
00000701  E84A000000        call 0x750
00000706  E805020000        call 0x910
0000070B  E8001D0000        call 0x2410
00000710  58                pop eax
00000711  5B                pop ebx
00000712  C9                leave
00000713  C3                ret
00000714  0000              add [eax],al
00000716  0000              add [eax],al
00000718  0000              add [eax],al
0000071A  0000              add [eax],al
0000071C  0000              add [eax],al
0000071E  0000              add [eax],al
00000720  FF35F0C30408      push dword [0x804c3f0]
00000726  FF25F4C30408      jmp near [0x804c3f4]
0000072C  0000              add [eax],al
0000072E  0000              add [eax],al
00000730  FF25F8C30408      jmp near [0x804c3f8]
00000736  6800000000        push dword 0x0
0000073B  E9E0FFFFFF        jmp 0x100000720
00000740  FF25FCC30408      jmp near [0x804c3fc]
00000746  6808000000        push dword 0x8
0000074B  E9D0FFFFFF        jmp 0x100000720
00000750  FF2500C40408      jmp near [0x804c400]
00000756  6810000000        push dword 0x10
0000075B  E9C0FFFFFF        jmp 0x100000720
00000760  FF2504C40408      jmp near [0x804c404]
00000766  6818000000        push dword 0x18
0000076B  E9B0FFFFFF        jmp 0x100000720
00000770  FF2508C40408      jmp near [0x804c408]
00000776  6820000000        push dword 0x20
0000077B  E9A0FFFFFF        jmp 0x100000720
00000780  FF250CC40408      jmp near [0x804c40c]
00000786  6828000000        push dword 0x28
0000078B  E990FFFFFF        jmp 0x100000720
00000790  FF2510C40408      jmp near [0x804c410]
00000796  6830000000        push dword 0x30
0000079B  E980FFFFFF        jmp 0x100000720
000007A0  FF2514C40408      jmp near [0x804c414]
000007A6  6838000000        push dword 0x38
000007AB  E970FFFFFF        jmp 0x100000720
000007B0  FF2518C40408      jmp near [0x804c418]
000007B6  6840000000        push dword 0x40
000007BB  E960FFFFFF        jmp 0x100000720
000007C0  FF251CC40408      jmp near [0x804c41c]
000007C6  6848000000        push dword 0x48
000007CB  E950FFFFFF        jmp 0x100000720
000007D0  FF2520C40408      jmp near [0x804c420]
000007D6  6850000000        push dword 0x50
000007DB  E940FFFFFF        jmp 0x100000720
000007E0  FF2524C40408      jmp near [0x804c424]
000007E6  6858000000        push dword 0x58
000007EB  E930FFFFFF        jmp 0x100000720
000007F0  FF2528C40408      jmp near [0x804c428]
000007F6  6860000000        push dword 0x60
000007FB  E920FFFFFF        jmp 0x100000720
00000800  FF252CC40408      jmp near [0x804c42c]
00000806  6868000000        push dword 0x68
0000080B  E910FFFFFF        jmp 0x100000720
00000810  FF2530C40408      jmp near [0x804c430]
00000816  6870000000        push dword 0x70
0000081B  E900FFFFFF        jmp 0x100000720
00000820  31ED              xor ebp,ebp
00000822  5E                pop esi
00000823  89E1              mov ecx,esp
00000825  83E4F0            and esp,byte -0x10
00000828  50                push eax
00000829  54                push esp
0000082A  52                push edx
0000082B  68A0A30408        push dword 0x804a3a0
00000830  68B0A30408        push dword 0x804a3b0
00000835  51                push ecx
00000836  56                push esi
00000837  6840890408        push dword 0x8048940
0000083C  E83FFFFFFF        call 0x100000780
00000841  F4                hlt
00000842  90                nop
00000843  90                nop
00000844  6690              o16 nop
00000846  6690              o16 nop
00000848  6690              o16 nop
0000084A  6690              o16 nop
0000084C  6690              o16 nop
0000084E  6690              o16 nop
00000850  B83FC40408        mov eax,0x804c43f
00000855  2D3CC40408        sub eax,0x804c43c
0000085A  83F806            cmp eax,byte +0x6
0000085D  7701              ja 0x860
0000085F  C3                ret
00000860  B800000000        mov eax,0x0
00000865  85C0              test eax,eax
00000867  74F6              jz 0x85f
00000869  55                push ebp
0000086A  89E5              mov ebp,esp
0000086C  83EC18            sub esp,byte +0x18
0000086F  C704243CC40408    mov dword [esp],0x804c43c
00000876  FFD0              call eax
00000878  C9                leave
00000879  C3                ret
0000087A  8DB600000000      lea esi,[esi+0x0]
00000880  B83CC40408        mov eax,0x804c43c
00000885  2D3CC40408        sub eax,0x804c43c
0000088A  C1F802            sar eax,0x2
0000088D  89C2              mov edx,eax
0000088F  C1EA1F            shr edx,0x1f
00000892  01D0              add eax,edx
00000894  D1F8              sar eax,1
00000896  7501              jnz 0x899
00000898  C3                ret
00000899  BA00000000        mov edx,0x0
0000089E  85D2              test edx,edx
000008A0  74F6              jz 0x898
000008A2  55                push ebp
000008A3  89E5              mov ebp,esp
000008A5  83EC18            sub esp,byte +0x18
000008A8  89442404          mov [esp+0x4],eax
000008AC  C704243CC40408    mov dword [esp],0x804c43c
000008B3  FFD2              call edx
000008B5  C9                leave
000008B6  C3                ret
000008B7  89F6              mov esi,esi
000008B9  8DBC2700000000    lea edi,[edi+0x0]
000008C0  803D0CC6040800    cmp byte [0x804c60c],0x0
000008C7  7544              jnz 0x90d
000008C9  55                push ebp
000008CA  89E5              mov ebp,esp
000008CC  53                push ebx
000008CD  BB00C30408        mov ebx,0x804c300
000008D2  52                push edx
000008D3  81EBFCC20408      sub ebx,0x804c2fc
000008D9  A110C60408        mov eax,[0x804c610]
000008DE  C1FB02            sar ebx,0x2
000008E1  4B                dec ebx
000008E2  39D8              cmp eax,ebx
000008E4  7318              jnc 0x8fe
000008E6  6690              o16 nop
000008E8  40                inc eax
000008E9  A310C60408        mov [0x804c610],eax
000008EE  FF1485FCC20408    call near [eax*4+0x804c2fc]
000008F5  A110C60408        mov eax,[0x804c610]
000008FA  39D8              cmp eax,ebx
000008FC  72EA              jc 0x8e8
000008FE  E84DFFFFFF        call 0x100000850
00000903  C6050CC6040801    mov byte [0x804c60c],0x1
0000090A  58                pop eax
0000090B  5B                pop ebx
0000090C  5D                pop ebp
0000090D  C3                ret
0000090E  6690              o16 nop
00000910  8B0D04C30408      mov ecx,[0x804c304]
00000916  85C9              test ecx,ecx
00000918  741E              jz 0x938
0000091A  B800000000        mov eax,0x0
0000091F  85C0              test eax,eax
00000921  7415              jz 0x938
00000923  55                push ebp
00000924  89E5              mov ebp,esp
00000926  83EC18            sub esp,byte +0x18
00000929  C7042404C30408    mov dword [esp],0x804c304
00000930  FFD0              call eax
00000932  C9                leave
00000933  E948FFFFFF        jmp 0x100000880
00000938  E943FFFFFF        jmp 0x100000880
0000093D  6690              o16 nop
0000093F  90                nop
00000940  8D4C2404          lea ecx,[esp+0x4]
00000944  83E4F0            and esp,byte -0x10
00000947  FF71FC            push dword [ecx-0x4]
0000094A  55                push ebp
0000094B  89E5              mov ebp,esp
0000094D  56                push esi
0000094E  53                push ebx
0000094F  51                push ecx
00000950  81ECBC000000      sub esp,0xbc
00000956  8D4580            lea eax,[ebp-0x80]
00000959  89442404          mov [esp+0x4],eax
0000095D  C7042440C40408    mov dword [esp],0x804c440
00000964  E857FEFFFF        call 0x1000007c0
00000969  C745E401000000    mov dword [ebp-0x1c],0x1
00000970  E926050000        jmp 0xe9b
00000975  C74424045CA40408  mov dword [esp+0x4],0x804a45c
0000097D  C70424E0C40408    mov dword [esp],0x804c4e0
00000984  E817FEFFFF        call 0x1000007a0
00000989  8B55E4            mov edx,[ebp-0x1c]
0000098C  89542404          mov [esp+0x4],edx
00000990  890424            mov [esp],eax
00000993  E898FDFFFF        call 0x100000730
00000998  C7442404F0870408  mov dword [esp+0x4],0x80487f0
000009A0  890424            mov [esp],eax
000009A3  E828FEFFFF        call 0x1000007d0
000009A8  8D857CFFFFFF      lea eax,[ebp+0xffffff7c]
000009AE  89442404          mov [esp+0x4],eax
000009B2  C7042440C40408    mov dword [esp],0x804c440
000009B9  E802FEFFFF        call 0x1000007c0
000009BE  8D9578FFFFFF      lea edx,[ebp+0xffffff78]
000009C4  89542404          mov [esp+0x4],edx
000009C8  890424            mov [esp],eax
000009CB  E8F0FDFFFF        call 0x1000007c0
000009D0  8D9574FFFFFF      lea edx,[ebp+0xffffff74]
000009D6  89542404          mov [esp+0x4],edx
000009DA  890424            mov [esp],eax
000009DD  E8DEFDFFFF        call 0x1000007c0
000009E2  8D4587            lea eax,[ebp-0x79]
000009E5  890424            mov [esp],eax
000009E8  E8BD050000        call 0xfaa
000009ED  8D4588            lea eax,[ebp-0x78]
000009F0  890424            mov [esp],eax
000009F3  E89A050000        call 0xf92
000009F8  8B857CFFFFFF      mov eax,[ebp+0xffffff7c]
000009FE  8D5587            lea edx,[ebp-0x79]
00000A01  8954240C          mov [esp+0xc],edx
00000A05  8D5588            lea edx,[ebp-0x78]
00000A08  89542408          mov [esp+0x8],edx
00000A0C  89442404          mov [esp+0x4],eax
00000A10  8D8568FFFFFF      lea eax,[ebp+0xffffff68]
00000A16  890424            mov [esp],eax
00000A19  E8B4050000        call 0xfd2
00000A1E  8D4587            lea eax,[ebp-0x79]
00000A21  890424            mov [esp],eax
00000A24  E895050000        call 0xfbe
00000A29  C745E000000000    mov dword [ebp-0x20],0x0
00000A30  EB43              jmp short 0xa75
00000A32  8B45E0            mov eax,[ebp-0x20]
00000A35  89442404          mov [esp+0x4],eax
00000A39  8D8568FFFFFF      lea eax,[ebp+0xffffff68]
00000A3F  890424            mov [esp],eax
00000A42  E83B060000        call 0x1082
00000A47  89442404          mov [esp+0x4],eax
00000A4B  C7042440C40408    mov dword [esp],0x804c440
00000A52  E869FDFFFF        call 0x1000007c0
00000A57  8B45E0            mov eax,[ebp-0x20]
00000A5A  89442404          mov [esp+0x4],eax
00000A5E  8D8568FFFFFF      lea eax,[ebp+0xffffff68]
00000A64  890424            mov [esp],eax
00000A67  E816060000        call 0x1082
00000A6C  8B55E0            mov edx,[ebp-0x20]
00000A6F  895004            mov [eax+0x4],edx
00000A72  FF45E0            inc dword [ebp-0x20]
00000A75  8B857CFFFFFF      mov eax,[ebp+0xffffff7c]
00000A7B  3945E0            cmp [ebp-0x20],eax
00000A7E  7CB2              jl 0xa32
00000A80  8D4590            lea eax,[ebp-0x70]
00000A83  8D9568FFFFFF      lea edx,[ebp+0xffffff68]
00000A89  89542404          mov [esp+0x4],edx
00000A8D  890424            mov [esp],eax
00000A90  E81F060000        call 0x10b4
00000A95  83EC04            sub esp,byte +0x4
00000A98  8D4594            lea eax,[ebp-0x6c]
00000A9B  8D9568FFFFFF      lea edx,[ebp+0xffffff68]
00000AA1  89542404          mov [esp+0x4],edx
00000AA5  890424            mov [esp],eax
00000AA8  E8E7050000        call 0x1094
00000AAD  83EC04            sub esp,byte +0x4
00000AB0  8B4590            mov eax,[ebp-0x70]
00000AB3  89442404          mov [esp+0x4],eax
00000AB7  8B4594            mov eax,[ebp-0x6c]
00000ABA  890424            mov [esp],eax
00000ABD  E814060000        call 0x10d6
00000AC2  8D459B            lea eax,[ebp-0x65]
00000AC5  890424            mov [esp],eax
00000AC8  E8DD040000        call 0xfaa
00000ACD  8D459C            lea eax,[ebp-0x64]
00000AD0  890424            mov [esp],eax
00000AD3  E8BA040000        call 0xf92
00000AD8  8B857CFFFFFF      mov eax,[ebp+0xffffff7c]
00000ADE  8D559B            lea edx,[ebp-0x65]
00000AE1  8954240C          mov [esp+0xc],edx
00000AE5  8D559C            lea edx,[ebp-0x64]
00000AE8  89542408          mov [esp+0x8],edx
00000AEC  89442404          mov [esp+0x4],eax
00000AF0  8D855CFFFFFF      lea eax,[ebp+0xffffff5c]
00000AF6  890424            mov [esp],eax
00000AF9  E8D4040000        call 0xfd2
00000AFE  8D459B            lea eax,[ebp-0x65]
00000B01  890424            mov [esp],eax
00000B04  E8B5040000        call 0xfbe
00000B09  C745DC003665C4    mov dword [ebp-0x24],0xc4653600
00000B10  C78558FFFFFF0036  mov dword [ebp+0xffffff58],0xc4653600
         -65C4
00000B1A  C78554FFFFFF0036  mov dword [ebp+0xffffff54],0xc4653600
         -65C4
00000B24  8B857CFFFFFF      mov eax,[ebp+0xffffff7c]
00000B2A  48                dec eax
00000B2B  8945D8            mov [ebp-0x28],eax
00000B2E  E976020000        jmp 0xda9
00000B33  8B45D8            mov eax,[ebp-0x28]
00000B36  89442404          mov [esp+0x4],eax
00000B3A  8D8568FFFFFF      lea eax,[ebp+0xffffff68]
00000B40  890424            mov [esp],eax
00000B43  E83A050000        call 0x1082
00000B48  8B10              mov edx,[eax]
00000B4A  8B45DC            mov eax,[ebp-0x24]
00000B4D  01D0              add eax,edx
00000B4F  8945A4            mov [ebp-0x5c],eax
00000B52  C745A800000000    mov dword [ebp-0x58],0x0
00000B59  8D45A4            lea eax,[ebp-0x5c]
00000B5C  89442404          mov [esp+0x4],eax
00000B60  8D45A8            lea eax,[ebp-0x58]
00000B63  890424            mov [esp],eax
00000B66  E8CD050000        call 0x1138
00000B6B  8B00              mov eax,[eax]
00000B6D  898550FFFFFF      mov [ebp+0xffffff50],eax
00000B73  8B9550FFFFFF      mov edx,[ebp+0xffffff50]
00000B79  8B8574FFFFFF      mov eax,[ebp+0xffffff74]
00000B7F  39C2              cmp edx,eax
00000B81  7E24              jng 0xba7
00000B83  C744240462A40408  mov dword [esp+0x4],0x804a462
00000B8B  C70424E0C40408    mov dword [esp],0x804c4e0
00000B92  E809FCFFFF        call 0x1000007a0
00000B97  C7442404F0870408  mov dword [esp+0x4],0x80487f0
00000B9F  890424            mov [esp],eax
00000BA2  E829FCFFFF        call 0x1000007d0
00000BA7  8B45D8            mov eax,[ebp-0x28]
00000BAA  89442404          mov [esp+0x4],eax
00000BAE  8D8568FFFFFF      lea eax,[ebp+0xffffff68]
00000BB4  890424            mov [esp],eax
00000BB7  E8C6040000        call 0x1082
00000BBC  8B10              mov edx,[eax]
00000BBE  8B8558FFFFFF      mov eax,[ebp+0xffffff58]
00000BC4  01D0              add eax,edx
00000BC6  8945AC            mov [ebp-0x54],eax
00000BC9  C745B000000000    mov dword [ebp-0x50],0x0
00000BD0  8D45AC            lea eax,[ebp-0x54]
00000BD3  89442404          mov [esp+0x4],eax
00000BD7  8D45B0            lea eax,[ebp-0x50]
00000BDA  890424            mov [esp],eax
00000BDD  E856050000        call 0x1138
00000BE2  8B00              mov eax,[eax]
00000BE4  89854CFFFFFF      mov [ebp+0xffffff4c],eax
00000BEA  8B954CFFFFFF      mov edx,[ebp+0xffffff4c]
00000BF0  8B8578FFFFFF      mov eax,[ebp+0xffffff78]
00000BF6  39C2              cmp edx,eax
00000BF8  0F8ED4000000      jng near 0xcd2
00000BFE  8B8554FFFFFF      mov eax,[ebp+0xffffff54]
00000C04  8945DC            mov [ebp-0x24],eax
00000C07  C78554FFFFFF0036  mov dword [ebp+0xffffff54],0xc4653600
         -65C4
00000C11  C78558FFFFFF0036  mov dword [ebp+0xffffff58],0xc4653600
         -65C4
00000C1B  8B45D8            mov eax,[ebp-0x28]
00000C1E  89442404          mov [esp+0x4],eax
00000C22  8D8568FFFFFF      lea eax,[ebp+0xffffff68]
00000C28  890424            mov [esp],eax
00000C2B  E852040000        call 0x1082
00000C30  8B10              mov edx,[eax]
00000C32  8B45DC            mov eax,[ebp-0x24]
00000C35  01D0              add eax,edx
00000C37  8945B4            mov [ebp-0x4c],eax
00000C3A  C745B800000000    mov dword [ebp-0x48],0x0
00000C41  8D45B4            lea eax,[ebp-0x4c]
00000C44  89442404          mov [esp+0x4],eax
00000C48  8D45B8            lea eax,[ebp-0x48]
00000C4B  890424            mov [esp],eax
00000C4E  E8E5040000        call 0x1138
00000C53  8B00              mov eax,[eax]
00000C55  898550FFFFFF      mov [ebp+0xffffff50],eax
00000C5B  8B9550FFFFFF      mov edx,[ebp+0xffffff50]
00000C61  8B8574FFFFFF      mov eax,[ebp+0xffffff74]
00000C67  39C2              cmp edx,eax
00000C69  7E24              jng 0xc8f
00000C6B  C744240462A40408  mov dword [esp+0x4],0x804a462
00000C73  C70424E0C40408    mov dword [esp],0x804c4e0
00000C7A  E821FBFFFF        call 0x1000007a0
00000C7F  C7442404F0870408  mov dword [esp+0x4],0x80487f0
00000C87  890424            mov [esp],eax
00000C8A  E841FBFFFF        call 0x1000007d0
00000C8F  8B45D8            mov eax,[ebp-0x28]
00000C92  89442404          mov [esp+0x4],eax
00000C96  8D8568FFFFFF      lea eax,[ebp+0xffffff68]
00000C9C  890424            mov [esp],eax
00000C9F  E8DE030000        call 0x1082
00000CA4  8B10              mov edx,[eax]
00000CA6  8B8558FFFFFF      mov eax,[ebp+0xffffff58]
00000CAC  01D0              add eax,edx
00000CAE  8945BC            mov [ebp-0x44],eax
00000CB1  C745C000000000    mov dword [ebp-0x40],0x0
00000CB8  8D45BC            lea eax,[ebp-0x44]
00000CBB  89442404          mov [esp+0x4],eax
00000CBF  8D45C0            lea eax,[ebp-0x40]
00000CC2  890424            mov [esp],eax
00000CC5  E86E040000        call 0x1138
00000CCA  8B00              mov eax,[eax]
00000CCC  89854CFFFFFF      mov [ebp+0xffffff4c],eax
00000CD2  8B45D8            mov eax,[ebp-0x28]
00000CD5  89442404          mov [esp+0x4],eax
00000CD9  8D8568FFFFFF      lea eax,[ebp+0xffffff68]
00000CDF  890424            mov [esp],eax
00000CE2  E89B030000        call 0x1082
00000CE7  8B4004            mov eax,[eax+0x4]
00000CEA  89442404          mov [esp+0x4],eax
00000CEE  8D855CFFFFFF      lea eax,[ebp+0xffffff5c]
00000CF4  890424            mov [esp],eax
00000CF7  E886030000        call 0x1082
00000CFC  89C3              mov ebx,eax
00000CFE  8D8550FFFFFF      lea eax,[ebp+0xffffff50]
00000D04  89442408          mov [esp+0x8],eax
00000D08  8D854CFFFFFF      lea eax,[ebp+0xffffff4c]
00000D0E  89442404          mov [esp+0x4],eax
00000D12  8D45C4            lea eax,[ebp-0x3c]
00000D15  890424            mov [esp],eax
00000D18  E837040000        call 0x1154
00000D1D  8B45C4            mov eax,[ebp-0x3c]
00000D20  8B55C8            mov edx,[ebp-0x38]
00000D23  8903              mov [ebx],eax
00000D25  895304            mov [ebx+0x4],edx
00000D28  8B45D8            mov eax,[ebp-0x28]
00000D2B  89442404          mov [esp+0x4],eax
00000D2F  8D8568FFFFFF      lea eax,[ebp+0xffffff68]
00000D35  890424            mov [esp],eax
00000D38  E845030000        call 0x1082
00000D3D  8B10              mov edx,[eax]
00000D3F  8B8550FFFFFF      mov eax,[ebp+0xffffff50]
00000D45  01D0              add eax,edx
00000D47  8945CC            mov [ebp-0x34],eax
00000D4A  8D45CC            lea eax,[ebp-0x34]
00000D4D  89442404          mov [esp+0x4],eax
00000D51  8D8554FFFFFF      lea eax,[ebp+0xffffff54]
00000D57  890424            mov [esp],eax
00000D5A  E8D9030000        call 0x1138
00000D5F  8B00              mov eax,[eax]
00000D61  898554FFFFFF      mov [ebp+0xffffff54],eax
00000D67  8B45D8            mov eax,[ebp-0x28]
00000D6A  89442404          mov [esp+0x4],eax
00000D6E  8D8568FFFFFF      lea eax,[ebp+0xffffff68]
00000D74  890424            mov [esp],eax
00000D77  E806030000        call 0x1082
00000D7C  8B10              mov edx,[eax]
00000D7E  8B854CFFFFFF      mov eax,[ebp+0xffffff4c]
00000D84  01D0              add eax,edx
00000D86  8945D0            mov [ebp-0x30],eax
00000D89  8D45D0            lea eax,[ebp-0x30]
00000D8C  89442404          mov [esp+0x4],eax
00000D90  8D8558FFFFFF      lea eax,[ebp+0xffffff58]
00000D96  890424            mov [esp],eax
00000D99  E89A030000        call 0x1138
00000D9E  8B00              mov eax,[eax]
00000DA0  898558FFFFFF      mov [ebp+0xffffff58],eax
00000DA6  FF4DD8            dec dword [ebp-0x28]
00000DA9  837DD800          cmp dword [ebp-0x28],byte +0x0
00000DAD  0F8980FDFFFF      jns near 0x100000b33
00000DB3  C744240478A40408  mov dword [esp+0x4],0x804a478
00000DBB  C7042480C50408    mov dword [esp],0x804c580
00000DC2  E8D9F9FFFF        call 0x1000007a0
00000DC7  8B55E4            mov edx,[ebp-0x1c]
00000DCA  89542404          mov [esp+0x4],edx
00000DCE  890424            mov [esp],eax
00000DD1  E85AF9FFFF        call 0x100000730
00000DD6  C74424047FA40408  mov dword [esp+0x4],0x804a47f
00000DDE  890424            mov [esp],eax
00000DE1  E8BAF9FFFF        call 0x1000007a0
00000DE6  C745D400000000    mov dword [ebp-0x2c],0x0
00000DED  EB6E              jmp short 0xe5d
00000DEF  8B45D4            mov eax,[ebp-0x2c]
00000DF2  89442404          mov [esp+0x4],eax
00000DF6  8D855CFFFFFF      lea eax,[ebp+0xffffff5c]
00000DFC  890424            mov [esp],eax
00000DFF  E87E020000        call 0x1082
00000E04  8B5804            mov ebx,[eax+0x4]
00000E07  8B45D4            mov eax,[ebp-0x2c]
00000E0A  89442404          mov [esp+0x4],eax
00000E0E  8D855CFFFFFF      lea eax,[ebp+0xffffff5c]
00000E14  890424            mov [esp],eax
00000E17  E866020000        call 0x1082
00000E1C  8B30              mov esi,[eax]
00000E1E  C744240481A40408  mov dword [esp+0x4],0x804a481
00000E26  C7042480C50408    mov dword [esp],0x804c580
00000E2D  E86EF9FFFF        call 0x1000007a0
00000E32  89742404          mov [esp+0x4],esi
00000E36  890424            mov [esp],eax
00000E39  E8F2F8FFFF        call 0x100000730
00000E3E  C744240481A40408  mov dword [esp+0x4],0x804a481
00000E46  890424            mov [esp],eax
00000E49  E852F9FFFF        call 0x1000007a0
00000E4E  895C2404          mov [esp+0x4],ebx
00000E52  890424            mov [esp],eax
00000E55  E8D6F8FFFF        call 0x100000730
00000E5A  FF45D4            inc dword [ebp-0x2c]
00000E5D  8B857CFFFFFF      mov eax,[ebp+0xffffff7c]
00000E63  3945D4            cmp [ebp-0x2c],eax
00000E66  7C87              jl 0xdef
00000E68  C7442404F0870408  mov dword [esp+0x4],0x80487f0
00000E70  C7042480C50408    mov dword [esp],0x804c580
00000E77  E854F9FFFF        call 0x1000007d0
00000E7C  8D855CFFFFFF      lea eax,[ebp+0xffffff5c]
00000E82  890424            mov [esp],eax
00000E85  E8A0010000        call 0x102a
00000E8A  8D8568FFFFFF      lea eax,[ebp+0xffffff68]
00000E90  890424            mov [esp],eax
00000E93  E892010000        call 0x102a
00000E98  FF45E4            inc dword [ebp-0x1c]
00000E9B  8B4580            mov eax,[ebp-0x80]
00000E9E  8D50FF            lea edx,[eax-0x1]
00000EA1  895580            mov [ebp-0x80],edx
00000EA4  85C0              test eax,eax
00000EA6  0F95C0            setnz al
00000EA9  84C0              test al,al
00000EAB  0F85C4FAFFFF      jnz near 0x100000975
00000EB1  B800000000        mov eax,0x0
00000EB6  EB54              jmp short 0xf0c
00000EB8  89C3              mov ebx,eax
00000EBA  8D4587            lea eax,[ebp-0x79]
00000EBD  890424            mov [esp],eax
00000EC0  E8F9000000        call 0xfbe
00000EC5  89D8              mov eax,ebx
00000EC7  EB3B              jmp short 0xf04
00000EC9  89C3              mov ebx,eax
00000ECB  8D459B            lea eax,[ebp-0x65]
00000ECE  890424            mov [esp],eax
00000ED1  E8E8000000        call 0xfbe
00000ED6  EB18              jmp short 0xef0
00000ED8  89C3              mov ebx,eax
00000EDA  EB02              jmp short 0xede
00000EDC  89C3              mov ebx,eax
00000EDE  8D855CFFFFFF      lea eax,[ebp+0xffffff5c]
00000EE4  890424            mov [esp],eax
00000EE7  E83E010000        call 0x102a
00000EEC  EB02              jmp short 0xef0
00000EEE  89C3              mov ebx,eax
00000EF0  8D8568FFFFFF      lea eax,[ebp+0xffffff68]
00000EF6  890424            mov [esp],eax
00000EF9  E82C010000        call 0x102a
00000EFE  89D8              mov eax,ebx
00000F00  EB02              jmp short 0xf04
00000F02  EB00              jmp short 0xf04
00000F04  890424            mov [esp],eax
00000F07  E804F9FFFF        call 0x100000810
00000F0C  8D65F4            lea esp,[ebp-0xc]
00000F0F  59                pop ecx
00000F10  5B                pop ebx
00000F11  5E                pop esi
00000F12  5D                pop ebp
00000F13  8D61FC            lea esp,[ecx-0x4]
00000F16  C3                ret
00000F17  55                push ebp
00000F18  89E5              mov ebp,esp
00000F1A  83EC18            sub esp,byte +0x18
00000F1D  837D0801          cmp dword [ebp+0x8],byte +0x1
00000F21  7531              jnz 0xf54
00000F23  817D0CFFFF0000    cmp dword [ebp+0xc],0xffff
00000F2A  7528              jnz 0xf54
00000F2C  C7042414C60408    mov dword [esp],0x804c614
00000F33  E838F8FFFF        call 0x100000770
00000F38  C744240838C40408  mov dword [esp+0x8],0x804c438
00000F40  C744240414C60408  mov dword [esp+0x4],0x804c614
00000F48  C7042490870408    mov dword [esp],0x8048790
00000F4F  E8ECF7FFFF        call 0x100000740
00000F54  C9                leave
00000F55  C3                ret
00000F56  55                push ebp
00000F57  89E5              mov ebp,esp
00000F59  83EC18            sub esp,byte +0x18
00000F5C  C7442404FFFF0000  mov dword [esp+0x4],0xffff
00000F64  C7042401000000    mov dword [esp],0x1
00000F6B  E8A7FFFFFF        call 0x100000f17
00000F70  C9                leave
00000F71  C3                ret
00000F72  55                push ebp
00000F73  89E5              mov ebp,esp
00000F75  BA20000000        mov edx,0x20
00000F7A  8B4508            mov eax,[ebp+0x8]
00000F7D  0FBDC0            bsr eax,eax
00000F80  83F01F            xor eax,byte +0x1f
00000F83  29C2              sub edx,eax
00000F85  89D0              mov eax,edx
00000F87  48                dec eax
00000F88  5D                pop ebp
00000F89  C3                ret
00000F8A  55                push ebp
00000F8B  89E5              mov ebp,esp
00000F8D  8B450C            mov eax,[ebp+0xc]
00000F90  5D                pop ebp
00000F91  C3                ret
00000F92  55                push ebp
00000F93  89E5              mov ebp,esp
00000F95  8B4508            mov eax,[ebp+0x8]
00000F98  C70000000000      mov dword [eax],0x0
00000F9E  8B4508            mov eax,[ebp+0x8]
00000FA1  C7400400000000    mov dword [eax+0x4],0x0
00000FA8  5D                pop ebp
00000FA9  C3                ret
00000FAA  55                push ebp
00000FAB  89E5              mov ebp,esp
00000FAD  83EC18            sub esp,byte +0x18
00000FB0  8B4508            mov eax,[ebp+0x8]
00000FB3  890424            mov [esp],eax
00000FB6  E8B3010000        call 0x116e
00000FBB  C9                leave
00000FBC  C3                ret
00000FBD  90                nop
00000FBE  55                push ebp
00000FBF  89E5              mov ebp,esp
00000FC1  83EC18            sub esp,byte +0x18
00000FC4  8B4508            mov eax,[ebp+0x8]
00000FC7  890424            mov [esp],eax
00000FCA  E8A5010000        call 0x1174
00000FCF  C9                leave
00000FD0  C3                ret
00000FD1  90                nop
00000FD2  55                push ebp
00000FD3  89E5              mov ebp,esp
00000FD5  53                push ebx
00000FD6  83EC14            sub esp,byte +0x14
00000FD9  8B4508            mov eax,[ebp+0x8]
00000FDC  8B5514            mov edx,[ebp+0x14]
00000FDF  89542408          mov [esp+0x8],edx
00000FE3  8B550C            mov edx,[ebp+0xc]
00000FE6  89542404          mov [esp+0x4],edx
00000FEA  890424            mov [esp],eax
00000FED  E89C010000        call 0x118e
00000FF2  8B4510            mov eax,[ebp+0x10]
00000FF5  89442408          mov [esp+0x8],eax
00000FF9  8B450C            mov eax,[ebp+0xc]
00000FFC  89442404          mov [esp+0x4],eax
00001000  8B4508            mov eax,[ebp+0x8]
00001003  890424            mov [esp],eax
00001006  E82D020000        call 0x1238
0000100B  EB17              jmp short 0x1024
0000100D  89C3              mov ebx,eax
0000100F  8B4508            mov eax,[ebp+0x8]
00001012  890424            mov [esp],eax
00001015  E8BE010000        call 0x11d8
0000101A  89D8              mov eax,ebx
0000101C  890424            mov [esp],eax
0000101F  E8ECF7FFFF        call 0x100000810
00001024  83C414            add esp,byte +0x14
00001027  5B                pop ebx
00001028  5D                pop ebp
00001029  C3                ret
0000102A  55                push ebp
0000102B  89E5              mov ebp,esp
0000102D  53                push ebx
0000102E  83EC14            sub esp,byte +0x14
00001031  8B4508            mov eax,[ebp+0x8]
00001034  890424            mov [esp],eax
00001037  E83A020000        call 0x1276
0000103C  8B5508            mov edx,[ebp+0x8]
0000103F  8B4A04            mov ecx,[edx+0x4]
00001042  8B5508            mov edx,[ebp+0x8]
00001045  8B12              mov edx,[edx]
00001047  89442408          mov [esp+0x8],eax
0000104B  894C2404          mov [esp+0x4],ecx
0000104F  891424            mov [esp],edx
00001052  E827020000        call 0x127e
00001057  8B4508            mov eax,[ebp+0x8]
0000105A  890424            mov [esp],eax
0000105D  E876010000        call 0x11d8
00001062  EB17              jmp short 0x107b
00001064  89C3              mov ebx,eax
00001066  8B4508            mov eax,[ebp+0x8]
00001069  890424            mov [esp],eax
0000106C  E867010000        call 0x11d8
00001071  89D8              mov eax,ebx
00001073  890424            mov [esp],eax
00001076  E895F7FFFF        call 0x100000810
0000107B  83C414            add esp,byte +0x14
0000107E  5B                pop ebx
0000107F  5D                pop ebp
00001080  C3                ret
00001081  90                nop
00001082  55                push ebp
00001083  89E5              mov ebp,esp
00001085  8B4508            mov eax,[ebp+0x8]
00001088  8B00              mov eax,[eax]
0000108A  8B550C            mov edx,[ebp+0xc]
0000108D  C1E203            shl edx,0x3
00001090  01D0              add eax,edx
00001092  5D                pop ebp
00001093  C3                ret
00001094  55                push ebp
00001095  89E5              mov ebp,esp
00001097  83EC18            sub esp,byte +0x18
0000109A  8B450C            mov eax,[ebp+0xc]
0000109D  89442404          mov [esp+0x4],eax
000010A1  8B4508            mov eax,[ebp+0x8]
000010A4  890424            mov [esp],eax
000010A7  E8EC010000        call 0x1298
000010AC  8B4508            mov eax,[ebp+0x8]
000010AF  C9                leave
000010B0  C20400            ret 0x4
000010B3  90                nop
000010B4  55                push ebp
000010B5  89E5              mov ebp,esp
000010B7  83EC18            sub esp,byte +0x18
000010BA  8B450C            mov eax,[ebp+0xc]
000010BD  83C004            add eax,byte +0x4
000010C0  89442404          mov [esp+0x4],eax
000010C4  8B4508            mov eax,[ebp+0x8]
000010C7  890424            mov [esp],eax
000010CA  E8C9010000        call 0x1298
000010CF  8B4508            mov eax,[ebp+0x8]
000010D2  C9                leave
000010D3  C20400            ret 0x4
000010D6  55                push ebp
000010D7  89E5              mov ebp,esp
000010D9  83EC18            sub esp,byte +0x18
000010DC  8D450C            lea eax,[ebp+0xc]
000010DF  89442404          mov [esp+0x4],eax
000010E3  8D4508            lea eax,[ebp+0x8]
000010E6  890424            mov [esp],eax
000010E9  E8B9010000        call 0x12a7
000010EE  84C0              test al,al
000010F0  7444              jz 0x1136
000010F2  8D4508            lea eax,[ebp+0x8]
000010F5  89442404          mov [esp+0x4],eax
000010F9  8D450C            lea eax,[ebp+0xc]
000010FC  890424            mov [esp],eax
000010FF  E8CF010000        call 0x12d3
00001104  890424            mov [esp],eax
00001107  E866FEFFFF        call 0x100000f72
0000110C  01C0              add eax,eax
0000110E  89442408          mov [esp+0x8],eax
00001112  8B450C            mov eax,[ebp+0xc]
00001115  89442404          mov [esp+0x4],eax
00001119  8B4508            mov eax,[ebp+0x8]
0000111C  890424            mov [esp],eax
0000111F  E8DF010000        call 0x1303
00001124  8B450C            mov eax,[ebp+0xc]
00001127  89442404          mov [esp+0x4],eax
0000112B  8B4508            mov eax,[ebp+0x8]
0000112E  890424            mov [esp],eax
00001131  E85C020000        call 0x1392
00001136  C9                leave
00001137  C3                ret
00001138  55                push ebp
00001139  89E5              mov ebp,esp
0000113B  8B4508            mov eax,[ebp+0x8]
0000113E  8B10              mov edx,[eax]
00001140  8B450C            mov eax,[ebp+0xc]
00001143  8B00              mov eax,[eax]
00001145  39C2              cmp edx,eax
00001147  7D05              jnl 0x114e
00001149  8B450C            mov eax,[ebp+0xc]
0000114C  EB03              jmp short 0x1151
0000114E  8B4508            mov eax,[ebp+0x8]
00001151  5D                pop ebp
00001152  C3                ret
00001153  90                nop
00001154  55                push ebp
00001155  89E5              mov ebp,esp
00001157  8B450C            mov eax,[ebp+0xc]
0000115A  8B10              mov edx,[eax]
0000115C  8B4508            mov eax,[ebp+0x8]
0000115F  8910              mov [eax],edx
00001161  8B4510            mov eax,[ebp+0x10]
00001164  8B10              mov edx,[eax]
00001166  8B4508            mov eax,[ebp+0x8]
00001169  895004            mov [eax+0x4],edx
0000116C  5D                pop ebp
0000116D  C3                ret
0000116E  55                push ebp
0000116F  89E5              mov ebp,esp
00001171  5D                pop ebp
00001172  C3                ret
00001173  90                nop
00001174  55                push ebp
00001175  89E5              mov ebp,esp
00001177  5D                pop ebp
00001178  C3                ret
00001179  90                nop
0000117A  55                push ebp
0000117B  89E5              mov ebp,esp
0000117D  83EC18            sub esp,byte +0x18
00001180  8B4508            mov eax,[ebp+0x8]
00001183  890424            mov [esp],eax
00001186  E833FEFFFF        call 0x100000fbe
0000118B  C9                leave
0000118C  C3                ret
0000118D  90                nop
0000118E  55                push ebp
0000118F  89E5              mov ebp,esp
00001191  53                push ebx
00001192  83EC14            sub esp,byte +0x14
00001195  8B4508            mov eax,[ebp+0x8]
00001198  8B5510            mov edx,[ebp+0x10]
0000119B  89542404          mov [esp+0x4],edx
0000119F  890424            mov [esp],eax
000011A2  E8A3020000        call 0x144a
000011A7  8B450C            mov eax,[ebp+0xc]
000011AA  89442404          mov [esp+0x4],eax
000011AE  8B4508            mov eax,[ebp+0x8]
000011B1  890424            mov [esp],eax
000011B4  E8C9020000        call 0x1482
000011B9  EB17              jmp short 0x11d2
000011BB  89C3              mov ebx,eax
000011BD  8B4508            mov eax,[ebp+0x8]
000011C0  890424            mov [esp],eax
000011C3  E8B2FFFFFF        call 0x10000117a
000011C8  89D8              mov eax,ebx
000011CA  890424            mov [esp],eax
000011CD  E83EF6FFFF        call 0x100000810
000011D2  83C414            add esp,byte +0x14
000011D5  5B                pop ebx
000011D6  5D                pop ebp
000011D7  C3                ret
000011D8  55                push ebp
000011D9  89E5              mov ebp,esp
000011DB  53                push ebx
000011DC  83EC14            sub esp,byte +0x14
000011DF  8B4508            mov eax,[ebp+0x8]
000011E2  8B4008            mov eax,[eax+0x8]
000011E5  89C2              mov edx,eax
000011E7  8B4508            mov eax,[ebp+0x8]
000011EA  8B00              mov eax,[eax]
000011EC  29C2              sub edx,eax
000011EE  89D0              mov eax,edx
000011F0  C1F803            sar eax,0x3
000011F3  89C2              mov edx,eax
000011F5  8B4508            mov eax,[ebp+0x8]
000011F8  8B00              mov eax,[eax]
000011FA  89542408          mov [esp+0x8],edx
000011FE  89442404          mov [esp+0x4],eax
00001202  8B4508            mov eax,[ebp+0x8]
00001205  890424            mov [esp],eax
00001208  E8B3020000        call 0x14c0
0000120D  8B4508            mov eax,[ebp+0x8]
00001210  890424            mov [esp],eax
00001213  E862FFFFFF        call 0x10000117a
00001218  EB17              jmp short 0x1231
0000121A  89C3              mov ebx,eax
0000121C  8B4508            mov eax,[ebp+0x8]
0000121F  890424            mov [esp],eax
00001222  E853FFFFFF        call 0x10000117a
00001227  89D8              mov eax,ebx
00001229  890424            mov [esp],eax
0000122C  E8DFF5FFFF        call 0x100000810
00001231  83C414            add esp,byte +0x14
00001234  5B                pop ebx
00001235  5D                pop ebp
00001236  C3                ret
00001237  90                nop
00001238  55                push ebp
00001239  89E5              mov ebp,esp
0000123B  83EC18            sub esp,byte +0x18
0000123E  8B4508            mov eax,[ebp+0x8]
00001241  890424            mov [esp],eax
00001244  E82D000000        call 0x1276
00001249  8B5508            mov edx,[ebp+0x8]
0000124C  8B12              mov edx,[edx]
0000124E  8944240C          mov [esp+0xc],eax
00001252  8B4510            mov eax,[ebp+0x10]
00001255  89442408          mov [esp+0x8],eax
00001259  8B450C            mov eax,[ebp+0xc]
0000125C  89442404          mov [esp+0x4],eax
00001260  891424            mov [esp],edx
00001263  E87F020000        call 0x14e7
00001268  8B4508            mov eax,[ebp+0x8]
0000126B  8B5008            mov edx,[eax+0x8]
0000126E  8B4508            mov eax,[ebp+0x8]
00001271  895004            mov [eax+0x4],edx
00001274  C9                leave
00001275  C3                ret
00001276  55                push ebp
00001277  89E5              mov ebp,esp
00001279  8B4508            mov eax,[ebp+0x8]
0000127C  5D                pop ebp
0000127D  C3                ret
0000127E  55                push ebp
0000127F  89E5              mov ebp,esp
00001281  83EC18            sub esp,byte +0x18
00001284  8B450C            mov eax,[ebp+0xc]
00001287  89442404          mov [esp+0x4],eax
0000128B  8B4508            mov eax,[ebp+0x8]
0000128E  890424            mov [esp],eax
00001291  E872020000        call 0x1508
00001296  C9                leave
00001297  C3                ret
00001298  55                push ebp
00001299  89E5              mov ebp,esp
0000129B  8B450C            mov eax,[ebp+0xc]
0000129E  8B10              mov edx,[eax]
000012A0  8B4508            mov eax,[ebp+0x8]
000012A3  8910              mov [eax],edx
000012A5  5D                pop ebp
000012A6  C3                ret
000012A7  55                push ebp
000012A8  89E5              mov ebp,esp
000012AA  53                push ebx
000012AB  83EC14            sub esp,byte +0x14
000012AE  8B4508            mov eax,[ebp+0x8]
000012B1  890424            mov [esp],eax
000012B4  E869020000        call 0x1522
000012B9  8B18              mov ebx,[eax]
000012BB  8B450C            mov eax,[ebp+0xc]
000012BE  890424            mov [esp],eax
000012C1  E85C020000        call 0x1522
000012C6  8B00              mov eax,[eax]
000012C8  39C3              cmp ebx,eax
000012CA  0F95C0            setnz al
000012CD  83C414            add esp,byte +0x14
000012D0  5B                pop ebx
000012D1  5D                pop ebp
000012D2  C3                ret
000012D3  55                push ebp
000012D4  89E5              mov ebp,esp
000012D6  53                push ebx
000012D7  83EC14            sub esp,byte +0x14
000012DA  8B4508            mov eax,[ebp+0x8]
000012DD  890424            mov [esp],eax
000012E0  E83D020000        call 0x1522
000012E5  8B00              mov eax,[eax]
000012E7  89C3              mov ebx,eax
000012E9  8B450C            mov eax,[ebp+0xc]
000012EC  890424            mov [esp],eax
000012EF  E82E020000        call 0x1522
000012F4  8B00              mov eax,[eax]
000012F6  29C3              sub ebx,eax
000012F8  89D8              mov eax,ebx
000012FA  C1F803            sar eax,0x3
000012FD  83C414            add esp,byte +0x14
00001300  5B                pop ebx
00001301  5D                pop ebp
00001302  C3                ret
00001303  55                push ebp
00001304  89E5              mov ebp,esp
00001306  83EC28            sub esp,byte +0x28
00001309  EB5F              jmp short 0x136a
0000130B  837D1000          cmp dword [ebp+0x10],byte +0x0
0000130F  751B              jnz 0x132c
00001311  8B450C            mov eax,[ebp+0xc]
00001314  89442408          mov [esp+0x8],eax
00001318  8B450C            mov eax,[ebp+0xc]
0000131B  89442404          mov [esp+0x4],eax
0000131F  8B4508            mov eax,[ebp+0x8]
00001322  890424            mov [esp],eax
00001325  E800020000        call 0x152a
0000132A  EB64              jmp short 0x1390
0000132C  FF4D10            dec dword [ebp+0x10]
0000132F  8D45F4            lea eax,[ebp-0xc]
00001332  8B550C            mov edx,[ebp+0xc]
00001335  89542408          mov [esp+0x8],edx
00001339  8B5508            mov edx,[ebp+0x8]
0000133C  89542404          mov [esp+0x4],edx
00001340  890424            mov [esp],eax
00001343  E815020000        call 0x155d
00001348  83EC04            sub esp,byte +0x4
0000134B  8B4510            mov eax,[ebp+0x10]
0000134E  89442408          mov [esp+0x8],eax
00001352  8B450C            mov eax,[ebp+0xc]
00001355  89442404          mov [esp+0x4],eax
00001359  8B45F4            mov eax,[ebp-0xc]
0000135C  890424            mov [esp],eax
0000135F  E89FFFFFFF        call 0x100001303
00001364  8B45F4            mov eax,[ebp-0xc]
00001367  89450C            mov [ebp+0xc],eax
0000136A  8D4508            lea eax,[ebp+0x8]
0000136D  89442404          mov [esp+0x4],eax
00001371  8D450C            lea eax,[ebp+0xc]
00001374  890424            mov [esp],eax
00001377  E857FFFFFF        call 0x1000012d3
0000137C  83F810            cmp eax,byte +0x10
0000137F  0F9FC0            setg al
00001382  84C0              test al,al
00001384  7585              jnz 0x130b
00001386  EB08              jmp short 0x1390
00001388  890424            mov [esp],eax
0000138B  E880F4FFFF        call 0x100000810
00001390  C9                leave
00001391  C3                ret
00001392  55                push ebp
00001393  89E5              mov ebp,esp
00001395  53                push ebx
00001396  83EC24            sub esp,byte +0x24
00001399  8D4508            lea eax,[ebp+0x8]
0000139C  89442404          mov [esp+0x4],eax
000013A0  8D450C            lea eax,[ebp+0xc]
000013A3  890424            mov [esp],eax
000013A6  E828FFFFFF        call 0x1000012d3
000013AB  83F810            cmp eax,byte +0x10
000013AE  0F9FC0            setg al
000013B1  84C0              test al,al
000013B3  746C              jz 0x1421
000013B5  C745E810000000    mov dword [ebp-0x18],0x10
000013BC  8D45EC            lea eax,[ebp-0x14]
000013BF  8D55E8            lea edx,[ebp-0x18]
000013C2  89542408          mov [esp+0x8],edx
000013C6  8D4D08            lea ecx,[ebp+0x8]
000013C9  894C2404          mov [esp+0x4],ecx
000013CD  890424            mov [esp],eax
000013D0  E86B020000        call 0x1640
000013D5  83EC04            sub esp,byte +0x4
000013D8  8B45EC            mov eax,[ebp-0x14]
000013DB  89442404          mov [esp+0x4],eax
000013DF  8B4508            mov eax,[ebp+0x8]
000013E2  890424            mov [esp],eax
000013E5  E887020000        call 0x1671
000013EA  C745F010000000    mov dword [ebp-0x10],0x10
000013F1  8D45F4            lea eax,[ebp-0xc]
000013F4  8D55F0            lea edx,[ebp-0x10]
000013F7  89542408          mov [esp+0x8],edx
000013FB  8D5D08            lea ebx,[ebp+0x8]
000013FE  895C2404          mov [esp+0x4],ebx
00001402  890424            mov [esp],eax
00001405  E836020000        call 0x1640
0000140A  83EC04            sub esp,byte +0x4
0000140D  8B450C            mov eax,[ebp+0xc]
00001410  89442404          mov [esp+0x4],eax
00001414  8B45F4            mov eax,[ebp-0xc]
00001417  890424            mov [esp],eax
0000141A  E87E030000        call 0x179d
0000141F  EB24              jmp short 0x1445
00001421  8B450C            mov eax,[ebp+0xc]
00001424  89442404          mov [esp+0x4],eax
00001428  8B4508            mov eax,[ebp+0x8]
0000142B  890424            mov [esp],eax
0000142E  E83E020000        call 0x1671
00001433  EB10              jmp short 0x1445
00001435  890424            mov [esp],eax
00001438  E8D3F3FFFF        call 0x100000810
0000143D  890424            mov [esp],eax
00001440  E8CBF3FFFF        call 0x100000810
00001445  8B5DFC            mov ebx,[ebp-0x4]
00001448  C9                leave
00001449  C3                ret
0000144A  55                push ebp
0000144B  89E5              mov ebp,esp
0000144D  83EC18            sub esp,byte +0x18
00001450  8B450C            mov eax,[ebp+0xc]
00001453  89442404          mov [esp+0x4],eax
00001457  8B4508            mov eax,[ebp+0x8]
0000145A  890424            mov [esp],eax
0000145D  E882030000        call 0x17e4
00001462  8B4508            mov eax,[ebp+0x8]
00001465  C70000000000      mov dword [eax],0x0
0000146B  8B4508            mov eax,[ebp+0x8]
0000146E  C7400400000000    mov dword [eax+0x4],0x0
00001475  8B4508            mov eax,[ebp+0x8]
00001478  C7400800000000    mov dword [eax+0x8],0x0
0000147F  C9                leave
00001480  C3                ret
00001481  90                nop
00001482  55                push ebp
00001483  89E5              mov ebp,esp
00001485  83EC18            sub esp,byte +0x18
00001488  8B450C            mov eax,[ebp+0xc]
0000148B  89442404          mov [esp+0x4],eax
0000148F  8B4508            mov eax,[ebp+0x8]
00001492  890424            mov [esp],eax
00001495  E864030000        call 0x17fe
0000149A  8B5508            mov edx,[ebp+0x8]
0000149D  8902              mov [edx],eax
0000149F  8B4508            mov eax,[ebp+0x8]
000014A2  8B10              mov edx,[eax]
000014A4  8B4508            mov eax,[ebp+0x8]
000014A7  895004            mov [eax+0x4],edx
000014AA  8B4508            mov eax,[ebp+0x8]
000014AD  8B00              mov eax,[eax]
000014AF  8B550C            mov edx,[ebp+0xc]
000014B2  C1E203            shl edx,0x3
000014B5  01C2              add edx,eax
000014B7  8B4508            mov eax,[ebp+0x8]
000014BA  895008            mov [eax+0x8],edx
000014BD  C9                leave
000014BE  C3                ret
000014BF  90                nop
000014C0  55                push ebp
000014C1  89E5              mov ebp,esp
000014C3  83EC18            sub esp,byte +0x18
000014C6  837D0C00          cmp dword [ebp+0xc],byte +0x0
000014CA  7419              jz 0x14e5
000014CC  8B4508            mov eax,[ebp+0x8]
000014CF  8B5510            mov edx,[ebp+0x10]
000014D2  89542408          mov [esp+0x8],edx
000014D6  8B550C            mov edx,[ebp+0xc]
000014D9  89542404          mov [esp+0x4],edx
000014DD  890424            mov [esp],eax
000014E0  E849030000        call 0x182e
000014E5  C9                leave
000014E6  C3                ret
000014E7  55                push ebp
000014E8  89E5              mov ebp,esp
000014EA  83EC18            sub esp,byte +0x18
000014ED  8B4510            mov eax,[ebp+0x10]
000014F0  89442408          mov [esp+0x8],eax
000014F4  8B450C            mov eax,[ebp+0xc]
000014F7  89442404          mov [esp+0x4],eax
000014FB  8B4508            mov eax,[ebp+0x8]
000014FE  890424            mov [esp],eax
00001501  E83B030000        call 0x1841
00001506  C9                leave
00001507  C3                ret
00001508  55                push ebp
00001509  89E5              mov ebp,esp
0000150B  83EC18            sub esp,byte +0x18
0000150E  8B450C            mov eax,[ebp+0xc]
00001511  89442404          mov [esp+0x4],eax
00001515  8B4508            mov eax,[ebp+0x8]
00001518  890424            mov [esp],eax
0000151B  E842030000        call 0x1862
00001520  C9                leave
00001521  C3                ret
00001522  55                push ebp
00001523  89E5              mov ebp,esp
00001525  8B4508            mov eax,[ebp+0x8]
00001528  5D                pop ebp
00001529  C3                ret
0000152A  55                push ebp
0000152B  89E5              mov ebp,esp
0000152D  83EC18            sub esp,byte +0x18
00001530  8B4510            mov eax,[ebp+0x10]
00001533  89442408          mov [esp+0x8],eax
00001537  8B450C            mov eax,[ebp+0xc]
0000153A  89442404          mov [esp+0x4],eax
0000153E  8B4508            mov eax,[ebp+0x8]
00001541  890424            mov [esp],eax
00001544  E81E030000        call 0x1867
00001549  8B450C            mov eax,[ebp+0xc]
0000154C  89442404          mov [esp+0x4],eax
00001550  8B4508            mov eax,[ebp+0x8]
00001553  890424            mov [esp],eax
00001556  E89F030000        call 0x18fa
0000155B  C9                leave
0000155C  C3                ret
0000155D  55                push ebp
0000155E  89E5              mov ebp,esp
00001560  53                push ebx
00001561  83EC34            sub esp,byte +0x34
00001564  8D450C            lea eax,[ebp+0xc]
00001567  89442404          mov [esp+0x4],eax
0000156B  8D4510            lea eax,[ebp+0x10]
0000156E  890424            mov [esp],eax
00001571  E85DFDFFFF        call 0x1000012d3
00001576  89C2              mov edx,eax
00001578  C1EA1F            shr edx,0x1f
0000157B  01D0              add eax,edx
0000157D  D1F8              sar eax,1
0000157F  8945E4            mov [ebp-0x1c],eax
00001582  8D45E0            lea eax,[ebp-0x20]
00001585  8D55E4            lea edx,[ebp-0x1c]
00001588  89542408          mov [esp+0x8],edx
0000158C  8D550C            lea edx,[ebp+0xc]
0000158F  89542404          mov [esp+0x4],edx
00001593  890424            mov [esp],eax
00001596  E8A5000000        call 0x1640
0000159B  83EC04            sub esp,byte +0x4
0000159E  C745E801000000    mov dword [ebp-0x18],0x1
000015A5  8D45EC            lea eax,[ebp-0x14]
000015A8  8D55E8            lea edx,[ebp-0x18]
000015AB  89542408          mov [esp+0x8],edx
000015AF  8D5510            lea edx,[ebp+0x10]
000015B2  89542404          mov [esp+0x4],edx
000015B6  890424            mov [esp],eax
000015B9  E886030000        call 0x1944
000015BE  83EC04            sub esp,byte +0x4
000015C1  8B45EC            mov eax,[ebp-0x14]
000015C4  89442408          mov [esp+0x8],eax
000015C8  8B45E0            mov eax,[ebp-0x20]
000015CB  89442404          mov [esp+0x4],eax
000015CF  8B450C            mov eax,[ebp+0xc]
000015D2  890424            mov [esp],eax
000015D5  E89D030000        call 0x1977
000015DA  8D450C            lea eax,[ebp+0xc]
000015DD  890424            mov [esp],eax
000015E0  E8BF040000        call 0x1aa4
000015E5  89C3              mov ebx,eax
000015E7  C745F001000000    mov dword [ebp-0x10],0x1
000015EE  8D45F4            lea eax,[ebp-0xc]
000015F1  8D55F0            lea edx,[ebp-0x10]
000015F4  89542408          mov [esp+0x8],edx
000015F8  8D550C            lea edx,[ebp+0xc]
000015FB  89542404          mov [esp+0x4],edx
000015FF  890424            mov [esp],eax
00001602  E839000000        call 0x1640
00001607  83EC04            sub esp,byte +0x4
0000160A  8B4508            mov eax,[ebp+0x8]
0000160D  895C240C          mov [esp+0xc],ebx
00001611  8B5510            mov edx,[ebp+0x10]
00001614  89542408          mov [esp+0x8],edx
00001618  8B55F4            mov edx,[ebp-0xc]
0000161B  89542404          mov [esp+0x4],edx
0000161F  890424            mov [esp],eax
00001622  E887040000        call 0x1aae
00001627  83EC04            sub esp,byte +0x4
0000162A  EB0A              jmp short 0x1636
0000162C  EB00              jmp short 0x162e
0000162E  890424            mov [esp],eax
00001631  E8DAF1FFFF        call 0x100000810
00001636  8B4508            mov eax,[ebp+0x8]
00001639  8B5DFC            mov ebx,[ebp-0x4]
0000163C  C9                leave
0000163D  C20400            ret 0x4
00001640  55                push ebp
00001641  89E5              mov ebp,esp
00001643  83EC28            sub esp,byte +0x28
00001646  8B450C            mov eax,[ebp+0xc]
00001649  8B10              mov edx,[eax]
0000164B  8B4510            mov eax,[ebp+0x10]
0000164E  8B00              mov eax,[eax]
00001650  C1E003            shl eax,0x3
00001653  01D0              add eax,edx
00001655  8945F4            mov [ebp-0xc],eax
00001658  8D45F4            lea eax,[ebp-0xc]
0000165B  89442404          mov [esp+0x4],eax
0000165F  8B4508            mov eax,[ebp+0x8]
00001662  890424            mov [esp],eax
00001665  E82EFCFFFF        call 0x100001298
0000166A  8B4508            mov eax,[ebp+0x8]
0000166D  C9                leave
0000166E  C20400            ret 0x4
00001671  55                push ebp
00001672  89E5              mov ebp,esp
00001674  56                push esi
00001675  53                push ebx
00001676  83EC30            sub esp,byte +0x30
00001679  8D450C            lea eax,[ebp+0xc]
0000167C  89442404          mov [esp+0x4],eax
00001680  8D4508            lea eax,[ebp+0x8]
00001683  890424            mov [esp],eax
00001686  E8D7040000        call 0x1b62
0000168B  84C0              test al,al
0000168D  7405              jz 0x1694
0000168F  E902010000        jmp 0x1796
00001694  C745E801000000    mov dword [ebp-0x18],0x1
0000169B  8D45E4            lea eax,[ebp-0x1c]
0000169E  8D55E8            lea edx,[ebp-0x18]
000016A1  89542408          mov [esp+0x8],edx
000016A5  8D7508            lea esi,[ebp+0x8]
000016A8  89742404          mov [esp+0x4],esi
000016AC  890424            mov [esp],eax
000016AF  E88CFFFFFF        call 0x100001640
000016B4  83EC04            sub esp,byte +0x4
000016B7  E9B4000000        jmp 0x1770
000016BC  8D4508            lea eax,[ebp+0x8]
000016BF  890424            mov [esp],eax
000016C2  E8DD030000        call 0x1aa4
000016C7  89C3              mov ebx,eax
000016C9  8D45E4            lea eax,[ebp-0x1c]
000016CC  890424            mov [esp],eax
000016CF  E8D0030000        call 0x1aa4
000016D4  895C2404          mov [esp+0x4],ebx
000016D8  890424            mov [esp],eax
000016DB  E8C3040000        call 0x1ba3
000016E0  84C0              test al,al
000016E2  7476              jz 0x175a
000016E4  8D45E4            lea eax,[ebp-0x1c]
000016E7  890424            mov [esp],eax
000016EA  E8B5030000        call 0x1aa4
000016EF  8B5004            mov edx,[eax+0x4]
000016F2  8B00              mov eax,[eax]
000016F4  8945DC            mov [ebp-0x24],eax
000016F7  8955E0            mov [ebp-0x20],edx
000016FA  C745F001000000    mov dword [ebp-0x10],0x1
00001701  8D45F4            lea eax,[ebp-0xc]
00001704  8D55F0            lea edx,[ebp-0x10]
00001707  89542408          mov [esp+0x8],edx
0000170B  8D55E4            lea edx,[ebp-0x1c]
0000170E  89542404          mov [esp+0x4],edx
00001712  890424            mov [esp],eax
00001715  E826FFFFFF        call 0x100001640
0000171A  83EC04            sub esp,byte +0x4
0000171D  8D45EC            lea eax,[ebp-0x14]
00001720  8B55F4            mov edx,[ebp-0xc]
00001723  8954240C          mov [esp+0xc],edx
00001727  8B55E4            mov edx,[ebp-0x1c]
0000172A  89542408          mov [esp+0x8],edx
0000172E  8B5508            mov edx,[ebp+0x8]
00001731  89542404          mov [esp+0x4],edx
00001735  890424            mov [esp],eax
00001738  E89D040000        call 0x1bda
0000173D  83EC04            sub esp,byte +0x4
00001740  8D4508            lea eax,[ebp+0x8]
00001743  890424            mov [esp],eax
00001746  E859030000        call 0x1aa4
0000174B  89C1              mov ecx,eax
0000174D  8B45DC            mov eax,[ebp-0x24]
00001750  8B55E0            mov edx,[ebp-0x20]
00001753  8901              mov [ecx],eax
00001755  895104            mov [ecx+0x4],edx
00001758  EB0B              jmp short 0x1765
0000175A  8B45E4            mov eax,[ebp-0x1c]
0000175D  890424            mov [esp],eax
00001760  E8CF040000        call 0x1c34
00001765  8D45E4            lea eax,[ebp-0x1c]
00001768  890424            mov [esp],eax
0000176B  E81E040000        call 0x1b8e
00001770  8D450C            lea eax,[ebp+0xc]
00001773  89442404          mov [esp+0x4],eax
00001777  8D45E4            lea eax,[ebp-0x1c]
0000177A  890424            mov [esp],eax
0000177D  E825FBFFFF        call 0x1000012a7
00001782  84C0              test al,al
00001784  0F8532FFFFFF      jnz near 0x1000016bc
0000178A  EB0A              jmp short 0x1796
0000178C  EB00              jmp short 0x178e
0000178E  890424            mov [esp],eax
00001791  E87AF0FFFF        call 0x100000810
00001796  8D65F8            lea esp,[ebp-0x8]
00001799  5B                pop ebx
0000179A  5E                pop esi
0000179B  5D                pop ebp
0000179C  C3                ret
0000179D  55                push ebp
0000179E  89E5              mov ebp,esp
000017A0  83EC28            sub esp,byte +0x28
000017A3  8B4508            mov eax,[ebp+0x8]
000017A6  8945F4            mov [ebp-0xc],eax
000017A9  EB16              jmp short 0x17c1
000017AB  8B45F4            mov eax,[ebp-0xc]
000017AE  890424            mov [esp],eax
000017B1  E87E040000        call 0x1c34
000017B6  8D45F4            lea eax,[ebp-0xc]
000017B9  890424            mov [esp],eax
000017BC  E8CD030000        call 0x1b8e
000017C1  8D450C            lea eax,[ebp+0xc]
000017C4  89442404          mov [esp+0x4],eax
000017C8  8D45F4            lea eax,[ebp-0xc]
000017CB  890424            mov [esp],eax
000017CE  E8D4FAFFFF        call 0x1000012a7
000017D3  84C0              test al,al
000017D5  75D4              jnz 0x17ab
000017D7  EB08              jmp short 0x17e1
000017D9  890424            mov [esp],eax
000017DC  E82FF0FFFF        call 0x100000810
000017E1  C9                leave
000017E2  C3                ret
000017E3  90                nop
000017E4  55                push ebp
000017E5  89E5              mov ebp,esp
000017E7  83EC18            sub esp,byte +0x18
000017EA  8B450C            mov eax,[ebp+0xc]
000017ED  89442404          mov [esp+0x4],eax
000017F1  8B4508            mov eax,[ebp+0x8]
000017F4  890424            mov [esp],eax
000017F7  E8D8040000        call 0x1cd4
000017FC  C9                leave
000017FD  C3                ret
000017FE  55                push ebp
000017FF  89E5              mov ebp,esp
00001801  83EC18            sub esp,byte +0x18
00001804  837D0C00          cmp dword [ebp+0xc],byte +0x0
00001808  741C              jz 0x1826
0000180A  8B4508            mov eax,[ebp+0x8]
0000180D  C744240800000000  mov dword [esp+0x8],0x0
00001815  8B550C            mov edx,[ebp+0xc]
00001818  89542404          mov [esp+0x4],edx
0000181C  890424            mov [esp],eax
0000181F  E8B6040000        call 0x1cda
00001824  EB05              jmp short 0x182b
00001826  B800000000        mov eax,0x0
0000182B  C9                leave
0000182C  C3                ret
0000182D  90                nop
0000182E  55                push ebp
0000182F  89E5              mov ebp,esp
00001831  83EC18            sub esp,byte +0x18
00001834  8B450C            mov eax,[ebp+0xc]
00001837  890424            mov [esp],eax
0000183A  E821EFFFFF        call 0x100000760
0000183F  C9                leave
00001840  C3                ret
00001841  55                push ebp
00001842  89E5              mov ebp,esp
00001844  83EC18            sub esp,byte +0x18
00001847  8B4510            mov eax,[ebp+0x10]
0000184A  89442408          mov [esp+0x8],eax
0000184E  8B450C            mov eax,[ebp+0xc]
00001851  89442404          mov [esp+0x4],eax
00001855  8B4508            mov eax,[ebp+0x8]
00001858  890424            mov [esp],eax
0000185B  E8AA040000        call 0x1d0a
00001860  C9                leave
00001861  C3                ret
00001862  55                push ebp
00001863  89E5              mov ebp,esp
00001865  5D                pop ebp
00001866  C3                ret
00001867  55                push ebp
00001868  89E5              mov ebp,esp
0000186A  53                push ebx
0000186B  83EC24            sub esp,byte +0x24
0000186E  8B450C            mov eax,[ebp+0xc]
00001871  89442404          mov [esp+0x4],eax
00001875  8B4508            mov eax,[ebp+0x8]
00001878  890424            mov [esp],eax
0000187B  E8C1040000        call 0x1d41
00001880  8B450C            mov eax,[ebp+0xc]
00001883  8945F4            mov [ebp-0xc],eax
00001886  EB4C              jmp short 0x18d4
00001888  8D4508            lea eax,[ebp+0x8]
0000188B  890424            mov [esp],eax
0000188E  E811020000        call 0x1aa4
00001893  89C3              mov ebx,eax
00001895  8D45F4            lea eax,[ebp-0xc]
00001898  890424            mov [esp],eax
0000189B  E804020000        call 0x1aa4
000018A0  895C2404          mov [esp+0x4],ebx
000018A4  890424            mov [esp],eax
000018A7  E8F7020000        call 0x1ba3
000018AC  84C0              test al,al
000018AE  7419              jz 0x18c9
000018B0  8B45F4            mov eax,[ebp-0xc]
000018B3  89442408          mov [esp+0x8],eax
000018B7  8B450C            mov eax,[ebp+0xc]
000018BA  89442404          mov [esp+0x4],eax
000018BE  8B4508            mov eax,[ebp+0x8]
000018C1  890424            mov [esp],eax
000018C4  E869050000        call 0x1e32
000018C9  8D45F4            lea eax,[ebp-0xc]
000018CC  890424            mov [esp],eax
000018CF  E8BA020000        call 0x1b8e
000018D4  8D4510            lea eax,[ebp+0x10]
000018D7  89442404          mov [esp+0x4],eax
000018DB  8D45F4            lea eax,[ebp-0xc]
000018DE  890424            mov [esp],eax
000018E1  E820050000        call 0x1e06
000018E6  84C0              test al,al
000018E8  759E              jnz 0x1888
000018EA  EB08              jmp short 0x18f4
000018EC  890424            mov [esp],eax
000018EF  E81CEFFFFF        call 0x100000810
000018F4  83C424            add esp,byte +0x24
000018F7  5B                pop ebx
000018F8  5D                pop ebp
000018F9  C3                ret
000018FA  55                push ebp
000018FB  89E5              mov ebp,esp
000018FD  83EC18            sub esp,byte +0x18
00001900  EB24              jmp short 0x1926
00001902  8D450C            lea eax,[ebp+0xc]
00001905  890424            mov [esp],eax
00001908  E8AD050000        call 0x1eba
0000190D  8B450C            mov eax,[ebp+0xc]
00001910  89442408          mov [esp+0x8],eax
00001914  8B450C            mov eax,[ebp+0xc]
00001917  89442404          mov [esp+0x4],eax
0000191B  8B4508            mov eax,[ebp+0x8]
0000191E  890424            mov [esp],eax
00001921  E80C050000        call 0x1e32
00001926  8D4508            lea eax,[ebp+0x8]
00001929  89442404          mov [esp+0x4],eax
0000192D  8D450C            lea eax,[ebp+0xc]
00001930  890424            mov [esp],eax
00001933  E89BF9FFFF        call 0x1000012d3
00001938  83F801            cmp eax,byte +0x1
0000193B  0F9FC0            setg al
0000193E  84C0              test al,al
00001940  75C0              jnz 0x1902
00001942  C9                leave
00001943  C3                ret
00001944  55                push ebp
00001945  89E5              mov ebp,esp
00001947  83EC28            sub esp,byte +0x28
0000194A  8B450C            mov eax,[ebp+0xc]
0000194D  8B10              mov edx,[eax]
0000194F  8B4510            mov eax,[ebp+0x10]
00001952  8B00              mov eax,[eax]
00001954  C1E003            shl eax,0x3
00001957  F7D8              neg eax
00001959  01D0              add eax,edx
0000195B  8945F4            mov [ebp-0xc],eax
0000195E  8D45F4            lea eax,[ebp-0xc]
00001961  89442404          mov [esp+0x4],eax
00001965  8B4508            mov eax,[ebp+0x8]
00001968  890424            mov [esp],eax
0000196B  E828F9FFFF        call 0x100001298
00001970  8B4508            mov eax,[ebp+0x8]
00001973  C9                leave
00001974  C20400            ret 0x4
00001977  55                push ebp
00001978  89E5              mov ebp,esp
0000197A  53                push ebx
0000197B  83EC14            sub esp,byte +0x14
0000197E  8D450C            lea eax,[ebp+0xc]
00001981  890424            mov [esp],eax
00001984  E81B010000        call 0x1aa4
00001989  89C3              mov ebx,eax
0000198B  8D4508            lea eax,[ebp+0x8]
0000198E  890424            mov [esp],eax
00001991  E80E010000        call 0x1aa4
00001996  895C2404          mov [esp+0x4],ebx
0000199A  890424            mov [esp],eax
0000199D  E801020000        call 0x1ba3
000019A2  84C0              test al,al
000019A4  747F              jz 0x1a25
000019A6  8D4510            lea eax,[ebp+0x10]
000019A9  890424            mov [esp],eax
000019AC  E8F3000000        call 0x1aa4
000019B1  89C3              mov ebx,eax
000019B3  8D450C            lea eax,[ebp+0xc]
000019B6  890424            mov [esp],eax
000019B9  E8E6000000        call 0x1aa4
000019BE  895C2404          mov [esp+0x4],ebx
000019C2  890424            mov [esp],eax
000019C5  E8D9010000        call 0x1ba3
000019CA  84C0              test al,al
000019CC  7417              jz 0x19e5
000019CE  8B450C            mov eax,[ebp+0xc]
000019D1  89442404          mov [esp+0x4],eax
000019D5  8B4508            mov eax,[ebp+0x8]
000019D8  890424            mov [esp],eax
000019DB  E8EF040000        call 0x1ecf
000019E0  E9B8000000        jmp 0x1a9d
000019E5  8D4510            lea eax,[ebp+0x10]
000019E8  890424            mov [esp],eax
000019EB  E8B4000000        call 0x1aa4
000019F0  89C3              mov ebx,eax
000019F2  8D4508            lea eax,[ebp+0x8]
000019F5  890424            mov [esp],eax
000019F8  E8A7000000        call 0x1aa4
000019FD  895C2404          mov [esp+0x4],ebx
00001A01  890424            mov [esp],eax
00001A04  E89A010000        call 0x1ba3
00001A09  84C0              test al,al
00001A0B  0F848C000000      jz near 0x1a9d
00001A11  8B4510            mov eax,[ebp+0x10]
00001A14  89442404          mov [esp+0x4],eax
00001A18  8B4508            mov eax,[ebp+0x8]
00001A1B  890424            mov [esp],eax
00001A1E  E8AC040000        call 0x1ecf
00001A23  EB78              jmp short 0x1a9d
00001A25  8D4510            lea eax,[ebp+0x10]
00001A28  890424            mov [esp],eax
00001A2B  E874000000        call 0x1aa4
00001A30  89C3              mov ebx,eax
00001A32  8D4508            lea eax,[ebp+0x8]
00001A35  890424            mov [esp],eax
00001A38  E867000000        call 0x1aa4
00001A3D  895C2404          mov [esp+0x4],ebx
00001A41  890424            mov [esp],eax
00001A44  E85A010000        call 0x1ba3
00001A49  84C0              test al,al
00001A4B  7402              jz 0x1a4f
00001A4D  EB4E              jmp short 0x1a9d
00001A4F  8D4510            lea eax,[ebp+0x10]
00001A52  890424            mov [esp],eax
00001A55  E84A000000        call 0x1aa4
00001A5A  89C3              mov ebx,eax
00001A5C  8D450C            lea eax,[ebp+0xc]
00001A5F  890424            mov [esp],eax
00001A62  E83D000000        call 0x1aa4
00001A67  895C2404          mov [esp+0x4],ebx
00001A6B  890424            mov [esp],eax
00001A6E  E830010000        call 0x1ba3
00001A73  84C0              test al,al
00001A75  7414              jz 0x1a8b
00001A77  8B4510            mov eax,[ebp+0x10]
00001A7A  89442404          mov [esp+0x4],eax
00001A7E  8B4508            mov eax,[ebp+0x8]
00001A81  890424            mov [esp],eax
00001A84  E846040000        call 0x1ecf
00001A89  EB12              jmp short 0x1a9d
00001A8B  8B450C            mov eax,[ebp+0xc]
00001A8E  89442404          mov [esp+0x4],eax
00001A92  8B4508            mov eax,[ebp+0x8]
00001A95  890424            mov [esp],eax
00001A98  E832040000        call 0x1ecf
00001A9D  83C414            add esp,byte +0x14
00001AA0  5B                pop ebx
00001AA1  5D                pop ebp
00001AA2  C3                ret
00001AA3  90                nop
00001AA4  55                push ebp
00001AA5  89E5              mov ebp,esp
00001AA7  8B4508            mov eax,[ebp+0x8]
00001AAA  8B00              mov eax,[eax]
00001AAC  5D                pop ebp
00001AAD  C3                ret
00001AAE  55                push ebp
00001AAF  89E5              mov ebp,esp
00001AB1  83EC18            sub esp,byte +0x18
00001AB4  EB0B              jmp short 0x1ac1
00001AB6  8D450C            lea eax,[ebp+0xc]
00001AB9  890424            mov [esp],eax
00001ABC  E8CD000000        call 0x1b8e
00001AC1  8D450C            lea eax,[ebp+0xc]
00001AC4  890424            mov [esp],eax
00001AC7  E8D8FFFFFF        call 0x100001aa4
00001ACC  8B5514            mov edx,[ebp+0x14]
00001ACF  89542404          mov [esp+0x4],edx
00001AD3  890424            mov [esp],eax
00001AD6  E8C8000000        call 0x1ba3
00001ADB  84C0              test al,al
00001ADD  75D7              jnz 0x1ab6
00001ADF  8D4510            lea eax,[ebp+0x10]
00001AE2  890424            mov [esp],eax
00001AE5  E8D0030000        call 0x1eba
00001AEA  EB0B              jmp short 0x1af7
00001AEC  8D4510            lea eax,[ebp+0x10]
00001AEF  890424            mov [esp],eax
00001AF2  E8C3030000        call 0x1eba
00001AF7  8D4510            lea eax,[ebp+0x10]
00001AFA  890424            mov [esp],eax
00001AFD  E8A2FFFFFF        call 0x100001aa4
00001B02  89442404          mov [esp+0x4],eax
00001B06  8B4514            mov eax,[ebp+0x14]
00001B09  890424            mov [esp],eax
00001B0C  E892000000        call 0x1ba3
00001B11  84C0              test al,al
00001B13  75D7              jnz 0x1aec
00001B15  8D4510            lea eax,[ebp+0x10]
00001B18  89442404          mov [esp+0x4],eax
00001B1C  8D450C            lea eax,[ebp+0xc]
00001B1F  890424            mov [esp],eax
00001B22  E8DF020000        call 0x1e06
00001B27  83F001            xor eax,byte +0x1
00001B2A  84C0              test al,al
00001B2C  740A              jz 0x1b38
00001B2E  8B4508            mov eax,[ebp+0x8]
00001B31  8B550C            mov edx,[ebp+0xc]
00001B34  8910              mov [eax],edx
00001B36  EB23              jmp short 0x1b5b
00001B38  8B4510            mov eax,[ebp+0x10]
00001B3B  89442404          mov [esp+0x4],eax
00001B3F  8B450C            mov eax,[ebp+0xc]
00001B42  890424            mov [esp],eax
00001B45  E885030000        call 0x1ecf
00001B4A  8D450C            lea eax,[ebp+0xc]
00001B4D  890424            mov [esp],eax
00001B50  E839000000        call 0x1b8e
00001B55  90                nop
00001B56  E966FFFFFF        jmp 0x100001ac1
00001B5B  8B4508            mov eax,[ebp+0x8]
00001B5E  C9                leave
00001B5F  C20400            ret 0x4
00001B62  55                push ebp
00001B63  89E5              mov ebp,esp
00001B65  53                push ebx
00001B66  83EC14            sub esp,byte +0x14
00001B69  8B4508            mov eax,[ebp+0x8]
00001B6C  890424            mov [esp],eax
00001B6F  E8AEF9FFFF        call 0x100001522
00001B74  8B18              mov ebx,[eax]
00001B76  8B450C            mov eax,[ebp+0xc]
00001B79  890424            mov [esp],eax
00001B7C  E8A1F9FFFF        call 0x100001522
00001B81  8B00              mov eax,[eax]
00001B83  39C3              cmp ebx,eax
00001B85  0F94C0            setz al
00001B88  83C414            add esp,byte +0x14
00001B8B  5B                pop ebx
00001B8C  5D                pop ebp
00001B8D  C3                ret
00001B8E  55                push ebp
00001B8F  89E5              mov ebp,esp
00001B91  8B4508            mov eax,[ebp+0x8]
00001B94  8B00              mov eax,[eax]
00001B96  8D5008            lea edx,[eax+0x8]
00001B99  8B4508            mov eax,[ebp+0x8]
00001B9C  8910              mov [eax],edx
00001B9E  8B4508            mov eax,[ebp+0x8]
00001BA1  5D                pop ebp
00001BA2  C3                ret
00001BA3  55                push ebp
00001BA4  89E5              mov ebp,esp
00001BA6  8B4508            mov eax,[ebp+0x8]
00001BA9  8B10              mov edx,[eax]
00001BAB  8B450C            mov eax,[ebp+0xc]
00001BAE  8B00              mov eax,[eax]
00001BB0  39C2              cmp edx,eax
00001BB2  7C1E              jl 0x1bd2
00001BB4  8B450C            mov eax,[ebp+0xc]
00001BB7  8B10              mov edx,[eax]
00001BB9  8B4508            mov eax,[ebp+0x8]
00001BBC  8B00              mov eax,[eax]
00001BBE  39C2              cmp edx,eax
00001BC0  7C14              jl 0x1bd6
00001BC2  8B4508            mov eax,[ebp+0x8]
00001BC5  8B5004            mov edx,[eax+0x4]
00001BC8  8B450C            mov eax,[ebp+0xc]
00001BCB  8B4004            mov eax,[eax+0x4]
00001BCE  39C2              cmp edx,eax
00001BD0  7D04              jnl 0x1bd6
00001BD2  B001              mov al,0x1
00001BD4  EB02              jmp short 0x1bd8
00001BD6  B000              mov al,0x0
00001BD8  5D                pop ebp
00001BD9  C3                ret
00001BDA  55                push ebp
00001BDB  89E5              mov ebp,esp
00001BDD  83EC28            sub esp,byte +0x28
00001BE0  8D45F0            lea eax,[ebp-0x10]
00001BE3  8B5510            mov edx,[ebp+0x10]
00001BE6  89542404          mov [esp+0x4],edx
00001BEA  890424            mov [esp],eax
00001BED  E8F7020000        call 0x1ee9
00001BF2  83EC04            sub esp,byte +0x4
00001BF5  8D45F4            lea eax,[ebp-0xc]
00001BF8  8B550C            mov edx,[ebp+0xc]
00001BFB  89542404          mov [esp+0x4],edx
00001BFF  890424            mov [esp],eax
00001C02  E8E2020000        call 0x1ee9
00001C07  83EC04            sub esp,byte +0x4
00001C0A  8B4508            mov eax,[ebp+0x8]
00001C0D  8B5514            mov edx,[ebp+0x14]
00001C10  8954240C          mov [esp+0xc],edx
00001C14  8B55F0            mov edx,[ebp-0x10]
00001C17  89542408          mov [esp+0x8],edx
00001C1B  8B55F4            mov edx,[ebp-0xc]
00001C1E  89542404          mov [esp+0x4],edx
00001C22  890424            mov [esp],eax
00001C25  E8E1020000        call 0x1f0b
00001C2A  83EC04            sub esp,byte +0x4
00001C2D  8B4508            mov eax,[ebp+0x8]
00001C30  C9                leave
00001C31  C20400            ret 0x4
00001C34  55                push ebp
00001C35  89E5              mov ebp,esp
00001C37  53                push ebx
00001C38  83EC24            sub esp,byte +0x24
00001C3B  8D4508            lea eax,[ebp+0x8]
00001C3E  890424            mov [esp],eax
00001C41  E85EFEFFFF        call 0x100001aa4
00001C46  8B5004            mov edx,[eax+0x4]
00001C49  8B00              mov eax,[eax]
00001C4B  8945F0            mov [ebp-0x10],eax
00001C4E  8955F4            mov [ebp-0xc],edx
00001C51  8B4508            mov eax,[ebp+0x8]
00001C54  8945EC            mov [ebp-0x14],eax
00001C57  8D45EC            lea eax,[ebp-0x14]
00001C5A  890424            mov [esp],eax
00001C5D  E858020000        call 0x1eba
00001C62  EB33              jmp short 0x1c97
00001C64  8D4508            lea eax,[ebp+0x8]
00001C67  890424            mov [esp],eax
00001C6A  E835FEFFFF        call 0x100001aa4
00001C6F  89C3              mov ebx,eax
00001C71  8D45EC            lea eax,[ebp-0x14]
00001C74  890424            mov [esp],eax
00001C77  E828FEFFFF        call 0x100001aa4
00001C7C  8B5004            mov edx,[eax+0x4]
00001C7F  8B00              mov eax,[eax]
00001C81  8903              mov [ebx],eax
00001C83  895304            mov [ebx+0x4],edx
00001C86  8B45EC            mov eax,[ebp-0x14]
00001C89  894508            mov [ebp+0x8],eax
00001C8C  8D45EC            lea eax,[ebp-0x14]
00001C8F  890424            mov [esp],eax
00001C92  E823020000        call 0x1eba
00001C97  8D45EC            lea eax,[ebp-0x14]
00001C9A  890424            mov [esp],eax
00001C9D  E802FEFFFF        call 0x100001aa4
00001CA2  89442404          mov [esp+0x4],eax
00001CA6  8D45F0            lea eax,[ebp-0x10]
00001CA9  890424            mov [esp],eax
00001CAC  E8F2FEFFFF        call 0x100001ba3
00001CB1  84C0              test al,al
00001CB3  75AF              jnz 0x1c64
00001CB5  8D4508            lea eax,[ebp+0x8]
00001CB8  890424            mov [esp],eax
00001CBB  E8E4FDFFFF        call 0x100001aa4
00001CC0  89C1              mov ecx,eax
00001CC2  8B45F0            mov eax,[ebp-0x10]
00001CC5  8B55F4            mov edx,[ebp-0xc]
00001CC8  8901              mov [ecx],eax
00001CCA  895104            mov [ecx+0x4],edx
00001CCD  83C424            add esp,byte +0x24
00001CD0  5B                pop ebx
00001CD1  5D                pop ebp
00001CD2  C3                ret
00001CD3  90                nop
00001CD4  55                push ebp
00001CD5  89E5              mov ebp,esp
00001CD7  5D                pop ebp
00001CD8  C3                ret
00001CD9  90                nop
00001CDA  55                push ebp
00001CDB  89E5              mov ebp,esp
00001CDD  83EC18            sub esp,byte +0x18
00001CE0  8B4508            mov eax,[ebp+0x8]
00001CE3  890424            mov [esp],eax
00001CE6  E87F020000        call 0x1f6a
00001CEB  3B450C            cmp eax,[ebp+0xc]
00001CEE  0F92C0            setc al
00001CF1  84C0              test al,al
00001CF3  7405              jz 0x1cfa
00001CF5  E8E6EAFFFF        call 0x1000007e0
00001CFA  8B450C            mov eax,[ebp+0xc]
00001CFD  C1E003            shl eax,0x3
00001D00  890424            mov [esp],eax
00001D03  E8A8EAFFFF        call 0x1000007b0
00001D08  C9                leave
00001D09  C3                ret
00001D0A  55                push ebp
00001D0B  89E5              mov ebp,esp
00001D0D  83EC28            sub esp,byte +0x28
00001D10  8B4508            mov eax,[ebp+0x8]
00001D13  8945F4            mov [ebp-0xc],eax
00001D16  EB21              jmp short 0x1d39
00001D18  8B45F4            mov eax,[ebp-0xc]
00001D1B  890424            mov [esp],eax
00001D1E  E851020000        call 0x1f74
00001D23  8B5510            mov edx,[ebp+0x10]
00001D26  89542404          mov [esp+0x4],edx
00001D2A  890424            mov [esp],eax
00001D2D  E84A020000        call 0x1f7c
00001D32  FF4D0C            dec dword [ebp+0xc]
00001D35  8345F408          add dword [ebp-0xc],byte +0x8
00001D39  837D0C00          cmp dword [ebp+0xc],byte +0x0
00001D3D  75D9              jnz 0x1d18
00001D3F  C9                leave
00001D40  C3                ret
00001D41  55                push ebp
00001D42  89E5              mov ebp,esp
00001D44  53                push ebx
00001D45  83EC44            sub esp,byte +0x44
00001D48  8D4508            lea eax,[ebp+0x8]
00001D4B  89442404          mov [esp+0x4],eax
00001D4F  8D450C            lea eax,[ebp+0xc]
00001D52  890424            mov [esp],eax
00001D55  E879F5FFFF        call 0x1000012d3
00001D5A  83F801            cmp eax,byte +0x1
00001D5D  0F9EC0            setng al
00001D60  84C0              test al,al
00001D62  7405              jz 0x1d69
00001D64  E998000000        jmp 0x1e01
00001D69  8D4508            lea eax,[ebp+0x8]
00001D6C  89442404          mov [esp+0x4],eax
00001D70  8D450C            lea eax,[ebp+0xc]
00001D73  890424            mov [esp],eax
00001D76  E858F5FFFF        call 0x1000012d3
00001D7B  8945F4            mov [ebp-0xc],eax
00001D7E  8B45F4            mov eax,[ebp-0xc]
00001D81  83E802            sub eax,byte +0x2
00001D84  89C2              mov edx,eax
00001D86  C1EA1F            shr edx,0x1f
00001D89  01D0              add eax,edx
00001D8B  D1F8              sar eax,1
00001D8D  8945EC            mov [ebp-0x14],eax
00001D90  8D45F0            lea eax,[ebp-0x10]
00001D93  8D55EC            lea edx,[ebp-0x14]
00001D96  89542408          mov [esp+0x8],edx
00001D9A  8D5D08            lea ebx,[ebp+0x8]
00001D9D  895C2404          mov [esp+0x4],ebx
00001DA1  890424            mov [esp],eax
00001DA4  E897F8FFFF        call 0x100001640
00001DA9  83EC04            sub esp,byte +0x4
00001DAC  8D45F0            lea eax,[ebp-0x10]
00001DAF  890424            mov [esp],eax
00001DB2  E8EDFCFFFF        call 0x100001aa4
00001DB7  8B5004            mov edx,[eax+0x4]
00001DBA  8B00              mov eax,[eax]
00001DBC  8945E4            mov [ebp-0x1c],eax
00001DBF  8955E8            mov [ebp-0x18],edx
00001DC2  8B4DEC            mov ecx,[ebp-0x14]
00001DC5  8B45E4            mov eax,[ebp-0x1c]
00001DC8  8B55E8            mov edx,[ebp-0x18]
00001DCB  8944240C          mov [esp+0xc],eax
00001DCF  89542410          mov [esp+0x10],edx
00001DD3  8B45F4            mov eax,[ebp-0xc]
00001DD6  89442408          mov [esp+0x8],eax
00001DDA  894C2404          mov [esp+0x4],ecx
00001DDE  8B4508            mov eax,[ebp+0x8]
00001DE1  890424            mov [esp],eax
00001DE4  E8C1010000        call 0x1faa
00001DE9  8B45EC            mov eax,[ebp-0x14]
00001DEC  85C0              test eax,eax
00001DEE  7411              jz 0x1e01
00001DF0  8B45EC            mov eax,[ebp-0x14]
00001DF3  48                dec eax
00001DF4  8945EC            mov [ebp-0x14],eax
00001DF7  EB97              jmp short 0x1d90
00001DF9  890424            mov [esp],eax
00001DFC  E80FEAFFFF        call 0x100000810
00001E01  8B5DFC            mov ebx,[ebp-0x4]
00001E04  C9                leave
00001E05  C3                ret
00001E06  55                push ebp
00001E07  89E5              mov ebp,esp
00001E09  53                push ebx
00001E0A  83EC14            sub esp,byte +0x14
00001E0D  8B4508            mov eax,[ebp+0x8]
00001E10  890424            mov [esp],eax
00001E13  E80AF7FFFF        call 0x100001522
00001E18  8B18              mov ebx,[eax]
00001E1A  8B450C            mov eax,[ebp+0xc]
00001E1D  890424            mov [esp],eax
00001E20  E8FDF6FFFF        call 0x100001522
00001E25  8B00              mov eax,[eax]
00001E27  39C3              cmp ebx,eax
00001E29  0F92C0            setc al
00001E2C  83C414            add esp,byte +0x14
00001E2F  5B                pop ebx
00001E30  5D                pop ebp
00001E31  C3                ret
00001E32  55                push ebp
00001E33  89E5              mov ebp,esp
00001E35  53                push ebx
00001E36  83EC34            sub esp,byte +0x34
00001E39  8D4510            lea eax,[ebp+0x10]
00001E3C  890424            mov [esp],eax
00001E3F  E860FCFFFF        call 0x100001aa4
00001E44  8B5004            mov edx,[eax+0x4]
00001E47  8B00              mov eax,[eax]
00001E49  8945F0            mov [ebp-0x10],eax
00001E4C  8955F4            mov [ebp-0xc],edx
00001E4F  8D4510            lea eax,[ebp+0x10]
00001E52  890424            mov [esp],eax
00001E55  E84AFCFFFF        call 0x100001aa4
00001E5A  89C3              mov ebx,eax
00001E5C  8D4508            lea eax,[ebp+0x8]
00001E5F  890424            mov [esp],eax
00001E62  E83DFCFFFF        call 0x100001aa4
00001E67  8B5004            mov edx,[eax+0x4]
00001E6A  8B00              mov eax,[eax]
00001E6C  8903              mov [ebx],eax
00001E6E  895304            mov [ebx+0x4],edx
00001E71  8D4508            lea eax,[ebp+0x8]
00001E74  89442404          mov [esp+0x4],eax
00001E78  8D450C            lea eax,[ebp+0xc]
00001E7B  890424            mov [esp],eax
00001E7E  E850F4FFFF        call 0x1000012d3
00001E83  89C1              mov ecx,eax
00001E85  8B45F0            mov eax,[ebp-0x10]
00001E88  8B55F4            mov edx,[ebp-0xc]
00001E8B  8944240C          mov [esp+0xc],eax
00001E8F  89542410          mov [esp+0x10],edx
00001E93  894C2408          mov [esp+0x8],ecx
00001E97  C744240400000000  mov dword [esp+0x4],0x0
00001E9F  8B4508            mov eax,[ebp+0x8]
00001EA2  890424            mov [esp],eax
00001EA5  E800010000        call 0x1faa
00001EAA  EB08              jmp short 0x1eb4
00001EAC  890424            mov [esp],eax
00001EAF  E85CE9FFFF        call 0x100000810
00001EB4  83C434            add esp,byte +0x34
00001EB7  5B                pop ebx
00001EB8  5D                pop ebp
00001EB9  C3                ret
00001EBA  55                push ebp
00001EBB  89E5              mov ebp,esp
00001EBD  8B4508            mov eax,[ebp+0x8]
00001EC0  8B00              mov eax,[eax]
00001EC2  8D50F8            lea edx,[eax-0x8]
00001EC5  8B4508            mov eax,[ebp+0x8]
00001EC8  8910              mov [eax],edx
00001ECA  8B4508            mov eax,[ebp+0x8]
00001ECD  5D                pop ebp
00001ECE  C3                ret
00001ECF  55                push ebp
00001ED0  89E5              mov ebp,esp
00001ED2  83EC18            sub esp,byte +0x18
00001ED5  8B450C            mov eax,[ebp+0xc]
00001ED8  89442404          mov [esp+0x4],eax
00001EDC  8B4508            mov eax,[ebp+0x8]
00001EDF  890424            mov [esp],eax
00001EE2  E894020000        call 0x217b
00001EE7  C9                leave
00001EE8  C3                ret
00001EE9  55                push ebp
00001EEA  89E5              mov ebp,esp
00001EEC  83EC18            sub esp,byte +0x18
00001EEF  8B4508            mov eax,[ebp+0x8]
00001EF2  8B550C            mov edx,[ebp+0xc]
00001EF5  89542404          mov [esp+0x4],edx
00001EF9  890424            mov [esp],eax
00001EFC  E8AB020000        call 0x21ac
00001F01  83EC04            sub esp,byte +0x4
00001F04  8B4508            mov eax,[ebp+0x8]
00001F07  C9                leave
00001F08  C20400            ret 0x4
00001F0B  55                push ebp
00001F0C  89E5              mov ebp,esp
00001F0E  56                push esi
00001F0F  53                push ebx
00001F10  83EC20            sub esp,byte +0x20
00001F13  8B4514            mov eax,[ebp+0x14]
00001F16  890424            mov [esp],eax
00001F19  E8A0020000        call 0x21be
00001F1E  89C6              mov esi,eax
00001F20  8B4510            mov eax,[ebp+0x10]
00001F23  890424            mov [esp],eax
00001F26  E893020000        call 0x21be
00001F2B  89C3              mov ebx,eax
00001F2D  8B450C            mov eax,[ebp+0xc]
00001F30  890424            mov [esp],eax
00001F33  E886020000        call 0x21be
00001F38  89742408          mov [esp+0x8],esi
00001F3C  895C2404          mov [esp+0x4],ebx
00001F40  890424            mov [esp],eax
00001F43  E889020000        call 0x21d1
00001F48  8945F4            mov [ebp-0xc],eax
00001F4B  8D45F4            lea eax,[ebp-0xc]
00001F4E  89442404          mov [esp+0x4],eax
00001F52  8B4508            mov eax,[ebp+0x8]
00001F55  890424            mov [esp],eax
00001F58  E83BF3FFFF        call 0x100001298
00001F5D  8B4508            mov eax,[ebp+0x8]
00001F60  83C420            add esp,byte +0x20
00001F63  5B                pop ebx
00001F64  5E                pop esi
00001F65  5D                pop ebp
00001F66  C20400            ret 0x4
00001F69  90                nop
00001F6A  55                push ebp
00001F6B  89E5              mov ebp,esp
00001F6D  B8FFFFFF1F        mov eax,0x1fffffff
00001F72  5D                pop ebp
00001F73  C3                ret
00001F74  55                push ebp
00001F75  89E5              mov ebp,esp
00001F77  8B4508            mov eax,[ebp+0x8]
00001F7A  5D                pop ebp
00001F7B  C3                ret
00001F7C  55                push ebp
00001F7D  89E5              mov ebp,esp
00001F7F  83EC18            sub esp,byte +0x18
00001F82  8B4508            mov eax,[ebp+0x8]
00001F85  89442404          mov [esp+0x4],eax
00001F89  C7042408000000    mov dword [esp],0x8
00001F90  E8F5EFFFFF        call 0x100000f8a
00001F95  89C1              mov ecx,eax
00001F97  85C9              test ecx,ecx
00001F99  740D              jz 0x1fa8
00001F9B  8B450C            mov eax,[ebp+0xc]
00001F9E  8B5004            mov edx,[eax+0x4]
00001FA1  8B00              mov eax,[eax]
00001FA3  8901              mov [ecx],eax
00001FA5  895104            mov [ecx+0x4],edx
00001FA8  C9                leave
00001FA9  C3                ret
00001FAA  55                push ebp
00001FAB  89E5              mov ebp,esp
00001FAD  57                push edi
00001FAE  56                push esi
00001FAF  53                push ebx
00001FB0  83EC5C            sub esp,byte +0x5c
00001FB3  8B450C            mov eax,[ebp+0xc]
00001FB6  8945E4            mov [ebp-0x1c],eax
00001FB9  8B450C            mov eax,[ebp+0xc]
00001FBC  8945C0            mov [ebp-0x40],eax
00001FBF  E9D7000000        jmp 0x209b
00001FC4  8B45C0            mov eax,[ebp-0x40]
00001FC7  40                inc eax
00001FC8  01C0              add eax,eax
00001FCA  8945C0            mov [ebp-0x40],eax
00001FCD  8B45C0            mov eax,[ebp-0x40]
00001FD0  48                dec eax
00001FD1  8945C8            mov [ebp-0x38],eax
00001FD4  8D45C4            lea eax,[ebp-0x3c]
00001FD7  8D55C8            lea edx,[ebp-0x38]
00001FDA  89542408          mov [esp+0x8],edx
00001FDE  8D7508            lea esi,[ebp+0x8]
00001FE1  89742404          mov [esp+0x4],esi
00001FE5  890424            mov [esp],eax
00001FE8  E853F6FFFF        call 0x100001640
00001FED  83EC04            sub esp,byte +0x4
00001FF0  8D45C4            lea eax,[ebp-0x3c]
00001FF3  890424            mov [esp],eax
00001FF6  E8A9FAFFFF        call 0x100001aa4
00001FFB  89C3              mov ebx,eax
00001FFD  8D45CC            lea eax,[ebp-0x34]
00002000  8D55C0            lea edx,[ebp-0x40]
00002003  89542408          mov [esp+0x8],edx
00002007  8D7D08            lea edi,[ebp+0x8]
0000200A  897C2404          mov [esp+0x4],edi
0000200E  890424            mov [esp],eax
00002011  E82AF6FFFF        call 0x100001640
00002016  83EC04            sub esp,byte +0x4
00002019  8D45CC            lea eax,[ebp-0x34]
0000201C  890424            mov [esp],eax
0000201F  E880FAFFFF        call 0x100001aa4
00002024  895C2404          mov [esp+0x4],ebx
00002028  890424            mov [esp],eax
0000202B  E873FBFFFF        call 0x100001ba3
00002030  84C0              test al,al
00002032  7407              jz 0x203b
00002034  8B45C0            mov eax,[ebp-0x40]
00002037  48                dec eax
00002038  8945C0            mov [ebp-0x40],eax
0000203B  8D45D0            lea eax,[ebp-0x30]
0000203E  8D550C            lea edx,[ebp+0xc]
00002041  89542408          mov [esp+0x8],edx
00002045  8D4D08            lea ecx,[ebp+0x8]
00002048  894C2404          mov [esp+0x4],ecx
0000204C  890424            mov [esp],eax
0000204F  E8ECF5FFFF        call 0x100001640
00002054  83EC04            sub esp,byte +0x4
00002057  8D45D0            lea eax,[ebp-0x30]
0000205A  890424            mov [esp],eax
0000205D  E842FAFFFF        call 0x100001aa4
00002062  89C3              mov ebx,eax
00002064  8D45D4            lea eax,[ebp-0x2c]
00002067  8D55C0            lea edx,[ebp-0x40]
0000206A  89542408          mov [esp+0x8],edx
0000206E  8D7508            lea esi,[ebp+0x8]
00002071  89742404          mov [esp+0x4],esi
00002075  890424            mov [esp],eax
00002078  E8C3F5FFFF        call 0x100001640
0000207D  83EC04            sub esp,byte +0x4
00002080  8D45D4            lea eax,[ebp-0x2c]
00002083  890424            mov [esp],eax
00002086  E819FAFFFF        call 0x100001aa4
0000208B  8B5004            mov edx,[eax+0x4]
0000208E  8B00              mov eax,[eax]
00002090  8903              mov [ebx],eax
00002092  895304            mov [ebx+0x4],edx
00002095  8B45C0            mov eax,[ebp-0x40]
00002098  89450C            mov [ebp+0xc],eax
0000209B  8B4510            mov eax,[ebp+0x10]
0000209E  48                dec eax
0000209F  89C2              mov edx,eax
000020A1  C1EA1F            shr edx,0x1f
000020A4  01D0              add eax,edx
000020A6  D1F8              sar eax,1
000020A8  89C2              mov edx,eax
000020AA  8B45C0            mov eax,[ebp-0x40]
000020AD  39C2              cmp edx,eax
000020AF  0F8F0FFFFFFF      jg near 0x100001fc4
000020B5  8B4510            mov eax,[ebp+0x10]
000020B8  83E001            and eax,byte +0x1
000020BB  85C0              test eax,eax
000020BD  0F8589000000      jnz near 0x214c
000020C3  8B4510            mov eax,[ebp+0x10]
000020C6  83E802            sub eax,byte +0x2
000020C9  89C2              mov edx,eax
000020CB  C1EA1F            shr edx,0x1f
000020CE  01D0              add eax,edx
000020D0  D1F8              sar eax,1
000020D2  89C2              mov edx,eax
000020D4  8B45C0            mov eax,[ebp-0x40]
000020D7  39C2              cmp edx,eax
000020D9  7571              jnz 0x214c
000020DB  8B45C0            mov eax,[ebp-0x40]
000020DE  40                inc eax
000020DF  01C0              add eax,eax
000020E1  8945C0            mov [ebp-0x40],eax
000020E4  8D45D8            lea eax,[ebp-0x28]
000020E7  8D550C            lea edx,[ebp+0xc]
000020EA  89542408          mov [esp+0x8],edx
000020EE  8D7D08            lea edi,[ebp+0x8]
000020F1  897C2404          mov [esp+0x4],edi
000020F5  890424            mov [esp],eax
000020F8  E843F5FFFF        call 0x100001640
000020FD  83EC04            sub esp,byte +0x4
00002100  8D45D8            lea eax,[ebp-0x28]
00002103  890424            mov [esp],eax
00002106  E899F9FFFF        call 0x100001aa4
0000210B  89C3              mov ebx,eax
0000210D  8B45C0            mov eax,[ebp-0x40]
00002110  48                dec eax
00002111  8945E0            mov [ebp-0x20],eax
00002114  8D45DC            lea eax,[ebp-0x24]
00002117  8D55E0            lea edx,[ebp-0x20]
0000211A  89542408          mov [esp+0x8],edx
0000211E  8D4D08            lea ecx,[ebp+0x8]
00002121  894C2404          mov [esp+0x4],ecx
00002125  890424            mov [esp],eax
00002128  E813F5FFFF        call 0x100001640
0000212D  83EC04            sub esp,byte +0x4
00002130  8D45DC            lea eax,[ebp-0x24]
00002133  890424            mov [esp],eax
00002136  E869F9FFFF        call 0x100001aa4
0000213B  8B5004            mov edx,[eax+0x4]
0000213E  8B00              mov eax,[eax]
00002140  8903              mov [ebx],eax
00002142  895304            mov [ebx+0x4],edx
00002145  8B45C0            mov eax,[ebp-0x40]
00002148  48                dec eax
00002149  89450C            mov [ebp+0xc],eax
0000214C  8B4D0C            mov ecx,[ebp+0xc]
0000214F  8B4514            mov eax,[ebp+0x14]
00002152  8B5518            mov edx,[ebp+0x18]
00002155  8944240C          mov [esp+0xc],eax
00002159  89542410          mov [esp+0x10],edx
0000215D  8B45E4            mov eax,[ebp-0x1c]
00002160  89442408          mov [esp+0x8],eax
00002164  894C2404          mov [esp+0x4],ecx
00002168  8B4508            mov eax,[ebp+0x8]
0000216B  890424            mov [esp],eax
0000216E  E883000000        call 0x21f6
00002173  8D65F4            lea esp,[ebp-0xc]
00002176  5B                pop ebx
00002177  5E                pop esi
00002178  5F                pop edi
00002179  5D                pop ebp
0000217A  C3                ret
0000217B  55                push ebp
0000217C  89E5              mov ebp,esp
0000217E  53                push ebx
0000217F  83EC14            sub esp,byte +0x14
00002182  8D450C            lea eax,[ebp+0xc]
00002185  890424            mov [esp],eax
00002188  E817F9FFFF        call 0x100001aa4
0000218D  89C3              mov ebx,eax
0000218F  8D4508            lea eax,[ebp+0x8]
00002192  890424            mov [esp],eax
00002195  E80AF9FFFF        call 0x100001aa4
0000219A  895C2404          mov [esp+0x4],ebx
0000219E  890424            mov [esp],eax
000021A1  E86D010000        call 0x2313
000021A6  83C414            add esp,byte +0x14
000021A9  5B                pop ebx
000021AA  5D                pop ebp
000021AB  C3                ret
000021AC  55                push ebp
000021AD  89E5              mov ebp,esp
000021AF  8B4508            mov eax,[ebp+0x8]
000021B2  8B550C            mov edx,[ebp+0xc]
000021B5  8910              mov [eax],edx
000021B7  8B4508            mov eax,[ebp+0x8]
000021BA  5D                pop ebp
000021BB  C20400            ret 0x4
000021BE  55                push ebp
000021BF  89E5              mov ebp,esp
000021C1  83EC18            sub esp,byte +0x18
000021C4  8B4508            mov eax,[ebp+0x8]
000021C7  890424            mov [esp],eax
000021CA  E878010000        call 0x2347
000021CF  C9                leave
000021D0  C3                ret
000021D1  55                push ebp
000021D2  89E5              mov ebp,esp
000021D4  83EC28            sub esp,byte +0x28
000021D7  C645F700          mov byte [ebp-0x9],0x0
000021DB  8B4510            mov eax,[ebp+0x10]
000021DE  89442408          mov [esp+0x8],eax
000021E2  8B450C            mov eax,[ebp+0xc]
000021E5  89442404          mov [esp+0x4],eax
000021E9  8B4508            mov eax,[ebp+0x8]
000021EC  890424            mov [esp],eax
000021EF  E868010000        call 0x235c
000021F4  C9                leave
000021F5  C3                ret
000021F6  55                push ebp
000021F7  89E5              mov ebp,esp
000021F9  57                push edi
000021FA  56                push esi
000021FB  53                push ebx
000021FC  83EC3C            sub esp,byte +0x3c
000021FF  8B450C            mov eax,[ebp+0xc]
00002202  48                dec eax
00002203  89C2              mov edx,eax
00002205  C1EA1F            shr edx,0x1f
00002208  01D0              add eax,edx
0000220A  D1F8              sar eax,1
0000220C  8945D4            mov [ebp-0x2c],eax
0000220F  EB70              jmp short 0x2281
00002211  8D45D8            lea eax,[ebp-0x28]
00002214  8D550C            lea edx,[ebp+0xc]
00002217  89542408          mov [esp+0x8],edx
0000221B  8D7508            lea esi,[ebp+0x8]
0000221E  89742404          mov [esp+0x4],esi
00002222  890424            mov [esp],eax
00002225  E816F4FFFF        call 0x100001640
0000222A  83EC04            sub esp,byte +0x4
0000222D  8D45D8            lea eax,[ebp-0x28]
00002230  890424            mov [esp],eax
00002233  E86CF8FFFF        call 0x100001aa4
00002238  89C3              mov ebx,eax
0000223A  8D45DC            lea eax,[ebp-0x24]
0000223D  8D55D4            lea edx,[ebp-0x2c]
00002240  89542408          mov [esp+0x8],edx
00002244  8D7D08            lea edi,[ebp+0x8]
00002247  897C2404          mov [esp+0x4],edi
0000224B  890424            mov [esp],eax
0000224E  E8EDF3FFFF        call 0x100001640
00002253  83EC04            sub esp,byte +0x4
00002256  8D45DC            lea eax,[ebp-0x24]
00002259  890424            mov [esp],eax
0000225C  E843F8FFFF        call 0x100001aa4
00002261  8B5004            mov edx,[eax+0x4]
00002264  8B00              mov eax,[eax]
00002266  8903              mov [ebx],eax
00002268  895304            mov [ebx+0x4],edx
0000226B  8B45D4            mov eax,[ebp-0x2c]
0000226E  89450C            mov [ebp+0xc],eax
00002271  8B450C            mov eax,[ebp+0xc]
00002274  48                dec eax
00002275  89C2              mov edx,eax
00002277  C1EA1F            shr edx,0x1f
0000227A  01D0              add eax,edx
0000227C  D1F8              sar eax,1
0000227E  8945D4            mov [ebp-0x2c],eax
00002281  B300              mov bl,0x0
00002283  8B450C            mov eax,[ebp+0xc]
00002286  3B4510            cmp eax,[ebp+0x10]
00002289  7E40              jng 0x22cb
0000228B  8D45E0            lea eax,[ebp-0x20]
0000228E  8D55D4            lea edx,[ebp-0x2c]
00002291  89542408          mov [esp+0x8],edx
00002295  8D4D08            lea ecx,[ebp+0x8]
00002298  894C2404          mov [esp+0x4],ecx
0000229C  890424            mov [esp],eax
0000229F  E89CF3FFFF        call 0x100001640
000022A4  83EC04            sub esp,byte +0x4
000022A7  B301              mov bl,0x1
000022A9  8D45E0            lea eax,[ebp-0x20]
000022AC  890424            mov [esp],eax
000022AF  E8F0F7FFFF        call 0x100001aa4
000022B4  8D5514            lea edx,[ebp+0x14]
000022B7  89542404          mov [esp+0x4],edx
000022BB  890424            mov [esp],eax
000022BE  E8E0F8FFFF        call 0x100001ba3
000022C3  84C0              test al,al
000022C5  7404              jz 0x22cb
000022C7  B001              mov al,0x1
000022C9  EB02              jmp short 0x22cd
000022CB  B000              mov al,0x0
000022CD  84DB              test bl,bl
000022CF  84C0              test al,al
000022D1  0F853AFFFFFF      jnz near 0x100002211
000022D7  8D45E4            lea eax,[ebp-0x1c]
000022DA  8D550C            lea edx,[ebp+0xc]
000022DD  89542408          mov [esp+0x8],edx
000022E1  8D7508            lea esi,[ebp+0x8]
000022E4  89742404          mov [esp+0x4],esi
000022E8  890424            mov [esp],eax
000022EB  E850F3FFFF        call 0x100001640
000022F0  83EC04            sub esp,byte +0x4
000022F3  8D45E4            lea eax,[ebp-0x1c]
000022F6  890424            mov [esp],eax
000022F9  E8A6F7FFFF        call 0x100001aa4
000022FE  89C1              mov ecx,eax
00002300  8B4514            mov eax,[ebp+0x14]
00002303  8B5518            mov edx,[ebp+0x18]
00002306  8901              mov [ecx],eax
00002308  895104            mov [ecx+0x4],edx
0000230B  8D65F4            lea esp,[ebp-0xc]
0000230E  5B                pop ebx
0000230F  5E                pop esi
00002310  5F                pop edi
00002311  5D                pop ebp
00002312  C3                ret
00002313  55                push ebp
00002314  89E5              mov ebp,esp
00002316  83EC10            sub esp,byte +0x10
00002319  8B4508            mov eax,[ebp+0x8]
0000231C  8B5004            mov edx,[eax+0x4]
0000231F  8B00              mov eax,[eax]
00002321  8945F8            mov [ebp-0x8],eax
00002324  8955FC            mov [ebp-0x4],edx
00002327  8B4D08            mov ecx,[ebp+0x8]
0000232A  8B450C            mov eax,[ebp+0xc]
0000232D  8B5004            mov edx,[eax+0x4]
00002330  8B00              mov eax,[eax]
00002332  8901              mov [ecx],eax
00002334  895104            mov [ecx+0x4],edx
00002337  8B4D0C            mov ecx,[ebp+0xc]
0000233A  8B45F8            mov eax,[ebp-0x8]
0000233D  8B55FC            mov edx,[ebp-0x4]
00002340  8901              mov [ecx],eax
00002342  895104            mov [ecx+0x4],edx
00002345  C9                leave
00002346  C3                ret
00002347  55                push ebp
00002348  89E5              mov ebp,esp
0000234A  83EC18            sub esp,byte +0x18
0000234D  8D4508            lea eax,[ebp+0x8]
00002350  890424            mov [esp],eax
00002353  E8CAF1FFFF        call 0x100001522
00002358  8B00              mov eax,[eax]
0000235A  C9                leave
0000235B  C3                ret
0000235C  55                push ebp
0000235D  89E5              mov ebp,esp
0000235F  83EC10            sub esp,byte +0x10
00002362  8B550C            mov edx,[ebp+0xc]
00002365  8B4508            mov eax,[ebp+0x8]
00002368  29C2              sub edx,eax
0000236A  89D0              mov eax,edx
0000236C  C1F803            sar eax,0x3
0000236F  8945FC            mov [ebp-0x4],eax
00002372  EB1B              jmp short 0x238f
00002374  836D1008          sub dword [ebp+0x10],byte +0x8
00002378  8B4D10            mov ecx,[ebp+0x10]
0000237B  836D0C08          sub dword [ebp+0xc],byte +0x8
0000237F  8B450C            mov eax,[ebp+0xc]
00002382  8B5004            mov edx,[eax+0x4]
00002385  8B00              mov eax,[eax]
00002387  8901              mov [ecx],eax
00002389  895104            mov [ecx+0x4],edx
0000238C  FF4DFC            dec dword [ebp-0x4]
0000238F  837DFC00          cmp dword [ebp-0x4],byte +0x0
00002393  7FDF              jg 0x2374
00002395  8B4510            mov eax,[ebp+0x10]
00002398  C9                leave
00002399  C3                ret
0000239A  6690              o16 nop
0000239C  6690              o16 nop
0000239E  6690              o16 nop
000023A0  55                push ebp
000023A1  89E5              mov ebp,esp
000023A3  5D                pop ebp
000023A4  C3                ret
000023A5  66                db 0x66
000023A6  66                db 0x66
000023A7  2E                db 0x2E
000023A8  0F                db 0x0F
000023A9  1F                pop ds
000023AA  8400              test [eax],al
000023AC  0000              add [eax],al
000023AE  0000              add [eax],al
000023B0  55                push ebp
000023B1  89E5              mov ebp,esp
000023B3  57                push edi
000023B4  56                push esi
000023B5  53                push ebx
000023B6  E84F000000        call 0x240a
000023BB  81C331200000      add ebx,0x2031
000023C1  83EC1C            sub esp,byte +0x1c
000023C4  E81BE3FFFF        call 0x1000006e4
000023C9  8DBB03FFFFFF      lea edi,[ebx+0xffffff03]
000023CF  8D8303FFFFFF      lea eax,[ebx+0xffffff03]
000023D5  29C7              sub edi,eax
000023D7  C1FF02            sar edi,0x2
000023DA  85FF              test edi,edi
000023DC  7424              jz 0x2402
000023DE  31F6              xor esi,esi
000023E0  8B4510            mov eax,[ebp+0x10]
000023E3  89442408          mov [esp+0x8],eax
000023E7  8B450C            mov eax,[ebp+0xc]
000023EA  89442404          mov [esp+0x4],eax
000023EE  8B4508            mov eax,[ebp+0x8]
000023F1  890424            mov [esp],eax
000023F4  FF94B303FFFFFF    call near [ebx+esi*4+0xffffff03]
000023FB  83C601            add esi,byte +0x1
000023FE  39FE              cmp esi,edi
00002400  72DE              jc 0x23e0
00002402  83C41C            add esp,byte +0x1c
00002405  5B                pop ebx
00002406  5E                pop esi
00002407  5F                pop edi
00002408  5D                pop ebp
00002409  C3                ret
0000240A  8B1C24            mov ebx,[esp]
0000240D  C3                ret
0000240E  6690              o16 nop
00002410  55                push ebp
00002411  89E5              mov ebp,esp
00002413  53                push ebx
00002414  52                push edx
00002415  BBF4C20408        mov ebx,0x804c2f4
0000241A  A1F4C20408        mov eax,[0x804c2f4]
0000241F  83F8FF            cmp eax,byte -0x1
00002422  7410              jz 0x2434
00002424  8D742600          lea esi,[esi+0x0]
00002428  83EB04            sub ebx,byte +0x4
0000242B  FFD0              call eax
0000242D  8B03              mov eax,[ebx]
0000242F  83F8FF            cmp eax,byte -0x1
00002432  75F4              jnz 0x2428
00002434  58                pop eax
00002435  5B                pop ebx
00002436  5D                pop ebp
00002437  C3                ret
00002438  55                push ebp
00002439  89E5              mov ebp,esp
0000243B  53                push ebx
0000243C  83EC04            sub esp,byte +0x4
0000243F  E800000000        call 0x2444
00002444  5B                pop ebx
00002445  81C3A81F0000      add ebx,0x1fa8
0000244B  E870E4FFFF        call 0x1000008c0
00002450  59                pop ecx
00002451  5B                pop ebx
00002452  C9                leave
00002453  C3                ret
00002454  0300              add eax,[eax]
00002456  0000              add [eax],al
00002458  0100              add [eax],eax
0000245A  0200              add al,[eax]
0000245C  636120            arpl [ecx+0x20],sp
0000245F  3D20004552        cmp eax,0x52450020
00002464  52                push edx
00002465  4F                dec edi
00002466  52                push edx
00002467  3A20              cmp ah,[eax]
00002469  7920              jns 0x248b
0000246B  6F                outsd
0000246C  7574              jnz 0x24e2
0000246E  206F66            and [edi+0x66],ch
00002471  207261            and [edx+0x61],dh
00002474  6E                outsb
00002475  6765004361        add [gs:bp+di+0x61],al
0000247A  7365              jnc 0x24e1
0000247C  2023              and [ebx],ah
0000247E  003A              add [edx],bh
00002480  0020              add [eax],ah
00002482  0000              add [eax],al
00002484  00CA              add dl,cl
00002486  9A3B011B033B80    call 0x803b:0x31b013b
0000248D  0200              add al,[eax]
0000248F  004F00            add [edi+0x0],cl
00002492  0000              add [eax],al
00002494  98                cwde
00002495  E2FF              loop 0x2496
00002497  FF9C020000B8E4    call far [edx+eax+0xe4b80000]
0000249E  FF                db 0xFF
0000249F  FF20              jmp near [eax]
000024A1  0300              add eax,[eax]
000024A3  008FEAFFFF28      add [edi+0x28ffffea],cl
000024A9  0D0000CEEA        or eax,0xeace0000
000024AE  FF                db 0xFF
000024AF  FF480D            dec dword [eax+0xd]
000024B2  0000              add [eax],al
000024B4  EAEAFFFFC00200    jmp 0x2:0xc0ffffea
000024BB  0002              add [edx],al
000024BD  EBFF              jmp short 0x24be
000024BF  FFE0              jmp eax
000024C1  0200              add al,[eax]
000024C3  000A              add [edx],cl
000024C5  EBFF              jmp short 0x24c6
000024C7  FF6003            jmp near [eax+0x3]
000024CA  0000              add [eax],al
000024CC  22EB              and ch,bl
000024CE  FF                db 0xFF
000024CF  FF8003000036      inc dword [eax+0x36000003]
000024D5  EBFF              jmp short 0x24d6
000024D7  FFA00300004A      jmp near [eax+0x4a000003]
000024DD  EBFF              jmp short 0x24de
000024DF  FFC0              inc eax
000024E1  0300              add eax,[eax]
000024E3  00A2EBFFFFE8      add [edx+0xe8ffffeb],ah
000024E9  0300              add eax,[eax]
000024EB  00FA              add dl,bh
000024ED  EBFF              jmp short 0x24ee
000024EF  FF10              call near [eax]
000024F1  0400              add al,0x0
000024F3  000CEC            add [esp+ebp*8],cl
000024F6  FF                db 0xFF
000024F7  FF30              push dword [eax]
000024F9  0400              add al,0x0
000024FB  002CEC            add [esp+ebp*8],ch
000024FE  FF                db 0xFF
000024FF  FF5004            call near [eax+0x4]
00002502  0000              add [eax],al
00002504  4E                dec esi
00002505  EC                in al,dx
00002506  FF                db 0xFF
00002507  FF7004            push dword [eax+0x4]
0000250A  0000              add [eax],al
0000250C  B0EC              mov al,0xec
0000250E  FF                db 0xFF
0000250F  FF90040000CC      call near [eax+0xcc000004]
00002515  EC                in al,dx
00002516  FF                db 0xFF
00002517  FFB0040000E6      push dword [eax+0xe6000004]
0000251D  EC                in al,dx
0000251E  FF                db 0xFF
0000251F  FFD0              call eax
00002521  0400              add al,0x0
00002523  00EC              add ah,ch
00002525  EC                in al,dx
00002526  FF                db 0xFF
00002527  FFF0              push eax
00002529  0400              add al,0x0
0000252B  00F2              add dl,dh
0000252D  EC                in al,dx
0000252E  FF                db 0xFF
0000252F  FF10              call near [eax]
00002531  05000006ED        add eax,0xed060000
00002536  FF                db 0xFF
00002537  FF30              push dword [eax]
00002539  05000050ED        add eax,0xed500000
0000253E  FF                db 0xFF
0000253F  FF5805            call far [eax+0x5]
00002542  0000              add [eax],al
00002544  B0ED              mov al,0xed
00002546  FF                db 0xFF
00002547  FF80050000EE      inc dword [eax+0xee000005]
0000254D  ED                in eax,dx
0000254E  FF                db 0xFF
0000254F  FFA0050000F6      jmp near [eax+0xf6000005]
00002555  ED                in eax,dx
00002556  FF                db 0xFF
00002557  FFC0              inc eax
00002559  05000010EE        add eax,0xee100000
0000255E  FF                db 0xFF
0000255F  FFE0              jmp eax
00002561  0500001FEE        add eax,0xee1f0000
00002566  FF                db 0xFF
00002567  FF00              inc dword [eax]
00002569  06                push es
0000256A  0000              add [eax],al
0000256C  4B                dec ebx
0000256D  EE                out dx,al
0000256E  FF                db 0xFF
0000256F  FF2406            jmp near [esi+eax]
00002572  0000              add [eax],al
00002574  7BEE              jpo 0x2564
00002576  FF                db 0xFF
00002577  FF4806            dec dword [eax+0x6]
0000257A  0000              add [eax],al
0000257C  0AEF              or ch,bh
0000257E  FF                db 0xFF
0000257F  FF6C0600          jmp far [esi+eax+0x0]
00002583  00C2              add dl,al
00002585  EF                out dx,eax
00002586  FF                db 0xFF
00002587  FF94060000FAEF    call near [esi+eax+0xeffa0000]
0000258E  FF                db 0xFF
0000258F  FFB406000038F0    push dword [esi+eax+0xf0380000]
00002596  FF                db 0xFF
00002597  FFD4              call esp
00002599  06                push es
0000259A  0000              add [eax],al
0000259C  5F                pop edi
0000259D  F0                db 0xF0
0000259E  FF                db 0xFF
0000259F  FFF4              push esp
000025A1  06                push es
000025A2  0000              add [eax],al
000025A4  80F0FF            xor al,0xff
000025A7  FF1407            call near [edi+eax]
000025AA  0000              add [eax],al
000025AC  9AF0FFFF340700    call 0x7:0x34fffff0
000025B3  00A2F0FFFF54      add [edx+0x54fffff0],ah
000025B9  07                pop es
000025BA  0000              add [eax],al
000025BC  D5F0              aad 0xf0
000025BE  FF                db 0xFF
000025BF  FF740700          push dword [edi+eax+0x0]
000025C3  00B8F1FFFF9C      add [eax+0x9cfffff1],bh
000025C9  07                pop es
000025CA  0000              add [eax],al
000025CC  E9F1FFFFBC        jmp 0xbd0025c2
000025D1  07                pop es
000025D2  0000              add [eax],al
000025D4  15F3FFFFEC        adc eax,0xecfffff3
000025D9  07                pop es
000025DA  0000              add [eax],al
000025DC  5C                pop esp
000025DD  F3                db 0xF3
000025DE  FF                db 0xFF
000025DF  FF10              call near [eax]
000025E1  0800              or [eax],al
000025E3  0076F3            add [esi-0xd],dh
000025E6  FF                db 0xFF
000025E7  FF30              push dword [eax]
000025E9  0800              or [eax],al
000025EB  00A6F3FFFF50      add [esi+0x50fffff3],ah
000025F1  0800              or [eax],al
000025F3  00B9F3FFFF70      add [ecx+0x70fffff3],bh
000025F9  0800              or [eax],al
000025FB  00DA              add dl,bl
000025FD  F3                db 0xF3
000025FE  FF                db 0xFF
000025FF  FF90080000DF      call near [eax+0xdf000008]
00002605  F3                db 0xF3
00002606  FF                db 0xFF
00002607  FFB008000072      push dword [eax+0x72000008]
0000260D  F4                hlt
0000260E  FF                db 0xFF
0000260F  FF                db 0xFF
00002610  D808              fmul dword [eax]
00002612  0000              add [eax],al
00002614  BCF4FFFFF8        mov esp,0xf8fffff4
00002619  0800              or [eax],al
0000261B  00EF              add bh,ch
0000261D  F4                hlt
0000261E  FF                db 0xFF
0000261F  FF18              call far [eax]
00002621  0900              or [eax],eax
00002623  001CF6            add [esi+esi*8],bl
00002626  FF                db 0xFF
00002627  FF4009            inc dword [eax+0x9]
0000262A  0000              add [eax],al
0000262C  26F6FF            es idiv bh
0000262F  FF6009            jmp near [eax+0x9]
00002632  0000              add [eax],al
00002634  DA                db 0xDA
00002635  F6FF              idiv bh
00002637  FF8009000006      inc dword [eax+0x6000009]
0000263D  F7FF              idiv edi
0000263F  FFA40900001BF7    jmp near [ecx+ecx+0xf71b0000]
00002646  FF                db 0xFF
00002647  FFC4              inc esp
00002649  0900              or [eax],eax
0000264B  0052F7            add [edx-0x9],dl
0000264E  FF                db 0xFF
0000264F  FFE4              jmp esp
00002651  0900              or [eax],eax
00002653  00ACF7FFFF040A    add [edi+esi*8+0xa04ffff],ch
0000265A  0000              add [eax],al
0000265C  4C                dec esp
0000265D  F8                clc
0000265E  FF                db 0xFF
0000265F  FF28              jmp far [eax]
00002661  0A00              or al,[eax]
00002663  0052F8            add [edx-0x8],dl
00002666  FF                db 0xFF
00002667  FF480A            dec dword [eax+0xa]
0000266A  0000              add [eax],al
0000266C  82                db 0x82
0000266D  F8                clc
0000266E  FF                db 0xFF
0000266F  FF680A            jmp far [eax+0xa]
00002672  0000              add [eax],al
00002674  B9F8FFFF88        mov ecx,0x88fffff8
00002679  0A00              or al,[eax]
0000267B  007EF9            add [esi-0x7],bh
0000267E  FF                db 0xFF
0000267F  FFB00A0000AA      push dword [eax+0xaa00000a]
00002685  F9                stc
00002686  FF                db 0xFF
00002687  FFD4              call esp
00002689  0A00              or al,[eax]
0000268B  0032              add [edx],dh
0000268D  FA                cli
0000268E  FF                db 0xFF
0000268F  FF                db 0xFF
00002690  FC                cld
00002691  0A00              or al,[eax]
00002693  0047FA            add [edi-0x6],al
00002696  FF                db 0xFF
00002697  FF1C0B            call far [ebx+ecx]
0000269A  0000              add [eax],al
0000269C  61                popa
0000269D  FA                cli
0000269E  FF                db 0xFF
0000269F  FF                db 0xFF
000026A0  3C0B              cmp al,0xb
000026A2  0000              add [eax],al
000026A4  83FAFF            cmp edx,byte -0x1
000026A7  FF5C0B00          call far [ebx+ecx+0x0]
000026AB  00E2              add dl,ah
000026AD  FA                cli
000026AE  FF                db 0xFF
000026AF  FF840B0000ECFA    inc dword [ebx+ecx+0xfaec0000]
000026B6  FF                db 0xFF
000026B7  FFA40B0000F4FA    jmp near [ebx+ecx+0xfaf40000]
000026BE  FF                db 0xFF
000026BF  FFC4              inc esp
000026C1  0B00              or eax,[eax]
000026C3  0022              add [edx],ah
000026C5  FB                sti
000026C6  FF                db 0xFF
000026C7  FFE4              jmp esp
000026C9  0B00              or eax,[eax]
000026CB  00F3              add bl,dh
000026CD  FC                cld
000026CE  FF                db 0xFF
000026CF  FF140C            call near [esp+ecx]
000026D2  0000              add [eax],al
000026D4  24FD              and al,0xfd
000026D6  FF                db 0xFF
000026D7  FF                db 0xFF
000026D8  380C00            cmp [eax+eax],cl
000026DB  0036              add [esi],dh
000026DD  FD                std
000026DE  FF                db 0xFF
000026DF  FF580C            call far [eax+0xc]
000026E2  0000              add [eax],al
000026E4  49                dec ecx
000026E5  FD                std
000026E6  FF                db 0xFF
000026E7  FF                db 0xFF
000026E8  780C              js 0x26f6
000026EA  0000              add [eax],al
000026EC  6E                outsb
000026ED  FD                std
000026EE  FF                db 0xFF
000026EF  FF980C00008B      call far [eax+0x8b00000c]
000026F5  FE                db 0xFE
000026F6  FF                db 0xFF
000026F7  FFC8              dec eax
000026F9  0C00              or al,0x0
000026FB  00BFFEFFFFE8      add [edi+0xe8fffffe],bh
00002701  0C00              or al,0x0
00002703  00D4              add ah,dl
00002705  FE                db 0xFE
00002706  FF                db 0xFF
00002707  FF08              dec dword [eax]
00002709  0D00001400        or eax,0x140000
0000270E  0000              add [eax],al
00002710  0000              add [eax],al
00002712  0000              add [eax],al
00002714  017A52            add [edx+0x52],edi
00002717  0001              add [ecx],al
00002719  7C08              jl 0x2723
0000271B  011B              add [ebx],ebx
0000271D  0C04              or al,0x4
0000271F  0488              add al,0x88
00002721  0100              add [eax],eax
00002723  0020              add [eax],ah
00002725  0000              add [eax],al
00002727  001C00            add [eax+eax],bl
0000272A  0000              add [eax],al
0000272C  F4                hlt
0000272D  DF                db 0xDF
0000272E  FF                db 0xFF
0000272F  FF00              inc dword [eax]
00002731  0100              add [eax],eax
00002733  0000              add [eax],al
00002735  0E                push cs
00002736  08460E            or [esi+0xe],al
00002739  0C4A              or al,0x4a
0000273B  0F0B              ud2
0000273D  7404              jz 0x2743
0000273F  7800              js 0x2741
00002741  3F                aas
00002742  1A3B              sbb bh,[ebx]
00002744  2A32              sub dh,[edx]
00002746  2422              and al,0x22
00002748  1C00              sbb al,0x0
0000274A  0000              add [eax],al
0000274C  40                inc eax
0000274D  0000              add [eax],al
0000274F  0022              add [edx],ah
00002751  E8FFFF1800        call 0x192755
00002756  0000              add [eax],al
00002758  00410E            add [ecx+0xe],al
0000275B  088502420D05      or [ebp+0x50d4202],al
00002761  54                push esp
00002762  C50C04            lds ecx,[esp+eax]
00002765  0400              add al,0x0
00002767  001C00            add [eax+eax],bl
0000276A  0000              add [eax],al
0000276C  60                pusha
0000276D  0000              add [eax],al
0000276F  001A              add [edx],bl
00002771  E8FFFF0800        call 0x92775
00002776  0000              add [eax],al
00002778  00410E            add [ecx+0xe],al
0000277B  088502420D05      or [ebp+0x50d4202],al
00002781  44                inc esp
00002782  C50C04            lds ecx,[esp+eax]
00002785  0400              add al,0x0
00002787  001C00            add [eax+eax],bl
0000278A  0000              add [eax],al
0000278C  0000              add [eax],al
0000278E  0000              add [eax],al
00002790  017A50            add [edx+0x50],edi
00002793  4C                dec esp
00002794  52                push edx
00002795  0001              add [ecx],al
00002797  7C08              jl 0x27a1
00002799  07                pop es
0000279A  0000              add [eax],al
0000279C  880408            mov [eax+ecx],al
0000279F  001B              add [ebx],bl
000027A1  0C04              or al,0x4
000027A3  0488              add al,0x88
000027A5  0100              add [eax],eax
000027A7  003C00            add [eax+eax],bh
000027AA  0000              add [eax],al
000027AC  2400              and al,0x0
000027AE  0000              add [eax],al
000027B0  90                nop
000027B1  E1FF              loope 0x27b2
000027B3  FFD7              call edi
000027B5  05000004F4        add eax,0xf4040000
000027BA  B104              mov cl,0x4
000027BC  08440C01          or [esp+ecx+0x1],al
000027C0  004710            add [edi+0x10],al
000027C3  0502750045        add eax,0x45007502
000027C8  0F037574          lsl esi,[ebp+0x74]
000027CC  06                push es
000027CD  1006              adc [esi],al
000027CF  02757C            add dh,[ebp+0x7c]
000027D2  1003              adc [ebx],al
000027D4  027578            add dh,[ebp+0x78]
000027D7  03C0              add eax,eax
000027D9  05C10C0100        add eax,0x10cc1
000027DE  41                inc ecx
000027DF  C3                ret
000027E0  41                inc ecx
000027E1  C641C543          mov byte [ecx-0x3b],0x43
000027E5  0C04              or al,0x4
000027E7  041C              add al,0x1c
000027E9  0000              add [eax],al
000027EB  00E0              add al,ah
000027ED  0000              add [eax],al
000027EF  00A2E7FFFF18      add [edx+0x18ffffe7],ah
000027F5  0000              add [eax],al
000027F7  0000              add [eax],al
000027F9  41                inc ecx
000027FA  0E                push cs
000027FB  088502420D05      or [ebp+0x50d4202],al
00002801  54                push esp
00002802  C50C04            lds ecx,[esp+eax]
00002805  0400              add al,0x0
00002807  001C00            add [eax+eax],bl
0000280A  0000              add [eax],al
0000280C  0001              add [ecx],al
0000280E  0000              add [eax],al
00002810  9AE7FFFF130000    call 0x0:0x13ffffe7
00002817  0000              add [eax],al
00002819  41                inc ecx
0000281A  0E                push cs
0000281B  088502420D05      or [ebp+0x50d4202],al
00002821  4F                dec edi
00002822  C50C04            lds ecx,[esp+eax]
00002825  0400              add al,0x0
00002827  001C00            add [eax+eax],bl
0000282A  0000              add [eax],al
0000282C  2001              and [ecx],al
0000282E  0000              add [eax],al
00002830  8EE7              mov fs,di
00002832  FF                db 0xFF
00002833  FF13              call near [ebx]
00002835  0000              add [eax],al
00002837  0000              add [eax],al
00002839  41                inc ecx
0000283A  0E                push cs
0000283B  088502420D05      or [ebp+0x50d4202],al
00002841  4F                dec edi
00002842  C50C04            lds ecx,[esp+eax]
00002845  0400              add al,0x0
00002847  002400            add [eax+eax],ah
0000284A  0000              add [eax],al
0000284C  C400              les eax,[eax]
0000284E  0000              add [eax],al
00002850  82                db 0x82
00002851  E7FF              out 0xff,eax
00002853  FF5800            call far [eax+0x0]
00002856  0000              add [eax],al
00002858  0433              add al,0x33
0000285A  B204              mov dl,0x4
0000285C  08410E            or [ecx+0xe],al
0000285F  088502420D05      or [ebp+0x50d4202],al
00002865  44                inc esp
00002866  830302            add dword [ebx],byte +0x2
00002869  4F                dec edi
0000286A  C3                ret
0000286B  41                inc ecx
0000286C  C50C04            lds ecx,[esp+eax]
0000286F  0424              add al,0x24
00002871  0000              add [eax],al
00002873  00EC              add ah,ch
00002875  0000              add [eax],al
00002877  00B2E7FFFF57      add [edx+0x57ffffe7],dh
0000287D  0000              add [eax],al
0000287F  000443            add [ebx+eax*2],al
00002882  B204              mov dl,0x4
00002884  08410E            or [ecx+0xe],al
00002887  088502420D05      or [ebp+0x50d4202],al
0000288D  44                inc esp
0000288E  830302            add dword [ebx],byte +0x2
00002891  4E                dec esi
00002892  C3                ret
00002893  41                inc ecx
00002894  C50C04            lds ecx,[esp+eax]
00002897  041C              add al,0x1c
00002899  0000              add [eax],al
0000289B  0090010000E2      add [eax+0xe2000001],dl
000028A1  E7FF              out 0xff,eax
000028A3  FF12              call near [edx]
000028A5  0000              add [eax],al
000028A7  0000              add [eax],al
000028A9  41                inc ecx
000028AA  0E                push cs
000028AB  088502420D05      or [ebp+0x50d4202],al
000028B1  4E                dec esi
000028B2  C50C04            lds ecx,[esp+eax]
000028B5  0400              add al,0x0
000028B7  001C00            add [eax+eax],bl
000028BA  0000              add [eax],al
000028BC  B001              mov al,0x1
000028BE  0000              add [eax],al
000028C0  D4E7              aam 0xe7
000028C2  FF                db 0xFF
000028C3  FF1F              call far [edi]
000028C5  0000              add [eax],al
000028C7  0000              add [eax],al
000028C9  41                inc ecx
000028CA  0E                push cs
000028CB  088502420D05      or [ebp+0x50d4202],al
000028D1  59                pop ecx
000028D2  C50C04            lds ecx,[esp+eax]
000028D5  0400              add al,0x0
000028D7  001C00            add [eax+eax],bl
000028DA  0000              add [eax],al
000028DC  D001              rol byte [ecx],1
000028DE  0000              add [eax],al
000028E0  D4E7              aam 0xe7
000028E2  FF                db 0xFF
000028E3  FF22              jmp near [edx]
000028E5  0000              add [eax],al
000028E7  0000              add [eax],al
000028E9  41                inc ecx
000028EA  0E                push cs
000028EB  088502420D05      or [ebp+0x50d4202],al
000028F1  5C                pop esp
000028F2  C50C04            lds ecx,[esp+eax]
000028F5  0400              add al,0x0
000028F7  001C00            add [eax+eax],bl
000028FA  0000              add [eax],al
000028FC  F00100            lock add [eax],eax
000028FF  00D6              add dh,dl
00002901  E7FF              out 0xff,eax
00002903  FF6200            jmp near [edx+0x0]
00002906  0000              add [eax],al
00002908  00410E            add [ecx+0xe],al
0000290B  088502420D05      or [ebp+0x50d4202],al
00002911  025EC5            add bl,[esi-0x3b]
00002914  0C04              or al,0x4
00002916  0400              add al,0x0
00002918  1C00              sbb al,0x0
0000291A  0000              add [eax],al
0000291C  1002              adc [edx],al
0000291E  0000              add [eax],al
00002920  18E8              sbb al,ch
00002922  FF                db 0xFF
00002923  FF1B              call far [ebx]
00002925  0000              add [eax],al
00002927  0000              add [eax],al
00002929  41                inc ecx
0000292A  0E                push cs
0000292B  088502420D05      or [ebp+0x50d4202],al
00002931  57                push edi
00002932  C50C04            lds ecx,[esp+eax]
00002935  0400              add al,0x0
00002937  001C00            add [eax+eax],bl
0000293A  0000              add [eax],al
0000293C  3002              xor [edx],al
0000293E  0000              add [eax],al
00002940  14E8              adc al,0xe8
00002942  FF                db 0xFF
00002943  FF1A              call far [edx]
00002945  0000              add [eax],al
00002947  0000              add [eax],al
00002949  41                inc ecx
0000294A  0E                push cs
0000294B  088502420D05      or [ebp+0x50d4202],al
00002951  56                push esi
00002952  C50C04            lds ecx,[esp+eax]
00002955  0400              add al,0x0
00002957  001C00            add [eax+eax],bl
0000295A  0000              add [eax],al
0000295C  50                push eax
0000295D  0200              add al,[eax]
0000295F  000E              add [esi],cl
00002961  E8FFFF0500        call 0x62965
00002966  0000              add [eax],al
00002968  00410E            add [ecx+0xe],al
0000296B  088502420D05      or [ebp+0x50d4202],al
00002971  41                inc ecx
00002972  C50C04            lds ecx,[esp+eax]
00002975  0400              add al,0x0
00002977  001C00            add [eax+eax],bl
0000297A  0000              add [eax],al
0000297C  7002              jo 0x2980
0000297E  0000              add [eax],al
00002980  F4                hlt
00002981  E7FF              out 0xff,eax
00002983  FF0500000000      inc dword [0x0]
00002989  41                inc ecx
0000298A  0E                push cs
0000298B  088502420D05      or [ebp+0x50d4202],al
00002991  41                inc ecx
00002992  C50C04            lds ecx,[esp+eax]
00002995  0400              add al,0x0
00002997  001C00            add [eax+eax],bl
0000299A  0000              add [eax],al
0000299C  90                nop
0000299D  0200              add al,[eax]
0000299F  00DA              add dl,bl
000029A1  E7FF              out 0xff,eax
000029A3  FF13              call near [ebx]
000029A5  0000              add [eax],al
000029A7  0000              add [eax],al
000029A9  41                inc ecx
000029AA  0E                push cs
000029AB  088502420D05      or [ebp+0x50d4202],al
000029B1  4F                dec edi
000029B2  C50C04            lds ecx,[esp+eax]
000029B5  0400              add al,0x0
000029B7  002400            add [eax+eax],ah
000029BA  0000              add [eax],al
000029BC  3402              xor al,0x2
000029BE  0000              add [eax],al
000029C0  CE                into
000029C1  E7FF              out 0xff,eax
000029C3  FF4A00            dec dword [edx+0x0]
000029C6  0000              add [eax],al
000029C8  0453              add al,0x53
000029CA  B204              mov dl,0x4
000029CC  08410E            or [ecx+0xe],al
000029CF  088502420D05      or [ebp+0x50d4202],al
000029D5  44                inc esp
000029D6  830302            add dword [ebx],byte +0x2
000029D9  41                inc ecx
000029DA  C3                ret
000029DB  41                inc ecx
000029DC  C50C04            lds ecx,[esp+eax]
000029DF  0424              add al,0x24
000029E1  0000              add [eax],al
000029E3  005C0200          add [edx+eax+0x0],bl
000029E7  00F0              add al,dh
000029E9  E7FF              out 0xff,eax
000029EB  FF5F00            call far [edi+0x0]
000029EE  0000              add [eax],al
000029F0  045F              add al,0x5f
000029F2  B204              mov dl,0x4
000029F4  08410E            or [ecx+0xe],al
000029F7  088502420D05      or [ebp+0x50d4202],al
000029FD  44                inc esp
000029FE  830302            add dword [ebx],byte +0x2
00002A01  56                push esi
00002A02  C3                ret
00002A03  41                inc ecx
00002A04  C50C04            lds ecx,[esp+eax]
00002A07  041C              add al,0x1c
00002A09  0000              add [eax],al
00002A0B  0000              add [eax],al
00002A0D  0300              add eax,[eax]
00002A0F  0028              add [eax],ch
00002A11  E8FFFF3E00        call 0x3f2a15
00002A16  0000              add [eax],al
00002A18  00410E            add [ecx+0xe],al
00002A1B  088502420D05      or [ebp+0x50d4202],al
00002A21  7AC5              jpe 0x29e8
00002A23  0C04              or al,0x4
00002A25  0400              add al,0x0
00002A27  001C00            add [eax+eax],bl
00002A2A  0000              add [eax],al
00002A2C  2003              and [ebx],al
00002A2E  0000              add [eax],al
00002A30  46                inc esi
00002A31  E8FFFF0800        call 0x92a35
00002A36  0000              add [eax],al
00002A38  00410E            add [ecx+0xe],al
00002A3B  088502420D05      or [ebp+0x50d4202],al
00002A41  44                inc esp
00002A42  C50C04            lds ecx,[esp+eax]
00002A45  0400              add al,0x0
00002A47  001C00            add [eax+eax],bl
00002A4A  0000              add [eax],al
00002A4C  40                inc eax
00002A4D  0300              add eax,[eax]
00002A4F  002E              add [esi],ch
00002A51  E8FFFF1A00        call 0x1b2a55
00002A56  0000              add [eax],al
00002A58  00410E            add [ecx+0xe],al
00002A5B  088502420D05      or [ebp+0x50d4202],al
00002A61  56                push esi
00002A62  C50C04            lds ecx,[esp+eax]
00002A65  0400              add al,0x0
00002A67  001C00            add [eax+eax],bl
00002A6A  0000              add [eax],al
00002A6C  60                pusha
00002A6D  0300              add eax,[eax]
00002A6F  0028              add [eax],ch
00002A71  E8FFFF0F00        call 0x102a75
00002A76  0000              add [eax],al
00002A78  00410E            add [ecx+0xe],al
00002A7B  088502420D05      or [ebp+0x50d4202],al
00002A81  4B                dec ebx
00002A82  C50C04            lds ecx,[esp+eax]
00002A85  0400              add al,0x0
00002A87  0020              add [eax],ah
00002A89  0000              add [eax],al
00002A8B  008003000017      add [eax+0x17000003],al
00002A91  E8FFFF2C00        call 0x2d2a95
00002A96  0000              add [eax],al
00002A98  00410E            add [ecx+0xe],al
00002A9B  088502420D05      or [ebp+0x50d4202],al
00002AA1  44                inc esp
00002AA2  830363            add dword [ebx],byte +0x63
00002AA5  C3                ret
00002AA6  41                inc ecx
00002AA7  C50C04            lds ecx,[esp+eax]
00002AAA  0400              add al,0x0
00002AAC  2000              and [eax],al
00002AAE  0000              add [eax],al
00002AB0  A4                movsb
00002AB1  0300              add eax,[eax]
00002AB3  001F              add [edi],bl
00002AB5  E8FFFF3000        call 0x312ab9
00002ABA  0000              add [eax],al
00002ABC  00410E            add [ecx+0xe],al
00002ABF  088502420D05      or [ebp+0x50d4202],al
00002AC5  44                inc esp
00002AC6  830367            add dword [ebx],byte +0x67
00002AC9  C3                ret
00002ACA  41                inc ecx
00002ACB  C50C04            lds ecx,[esp+eax]
00002ACE  0400              add al,0x0
00002AD0  2000              and [eax],al
00002AD2  0000              add [eax],al
00002AD4  4C                dec esp
00002AD5  0300              add eax,[eax]
00002AD7  002B              add [ebx],ch
00002AD9  E8FFFF8F00        call 0x902add
00002ADE  0000              add [eax],al
00002AE0  046B              add al,0x6b
00002AE2  B204              mov dl,0x4
00002AE4  08410E            or [ecx+0xe],al
00002AE7  088502420D05      or [ebp+0x50d4202],al
00002AED  028BC50C0404      add cl,[ebx+0x4040cc5]
00002AF3  002400            add [eax+eax],ah
00002AF6  0000              add [eax],al
00002AF8  7003              jo 0x2afd
00002AFA  0000              add [eax],al
00002AFC  96                xchg eax,esi
00002AFD  E8FFFFB800        call 0xb92b01
00002B02  0000              add [eax],al
00002B04  0479              add al,0x79
00002B06  B204              mov dl,0x4
00002B08  08410E            or [ecx+0xe],al
00002B0B  088502420D05      or [ebp+0x50d4202],al
00002B11  44                inc esp
00002B12  830302            add dword [ebx],byte +0x2
00002B15  B0C5              mov al,0xc5
00002B17  C3                ret
00002B18  0C04              or al,0x4
00002B1A  0400              add al,0x0
00002B1C  1C00              sbb al,0x0
00002B1E  0000              add [eax],al
00002B20  1404              adc al,0x4
00002B22  0000              add [eax],al
00002B24  26E9FFFF3700      es jmp 0x382b29
00002B2A  0000              add [eax],al
00002B2C  00410E            add [ecx+0xe],al
00002B2F  088502420D05      or [ebp+0x50d4202],al
00002B35  73C5              jnc 0x2afc
00002B37  0C04              or al,0x4
00002B39  0400              add al,0x0
00002B3B  001C00            add [eax+eax],bl
00002B3E  0000              add [eax],al
00002B40  3404              xor al,0x4
00002B42  0000              add [eax],al
00002B44  3EE9FFFF3D00      ds jmp 0x3e2b49
00002B4A  0000              add [eax],al
00002B4C  00410E            add [ecx+0xe],al
00002B4F  088502420D05      or [ebp+0x50d4202],al
00002B55  79C5              jns 0x2b1c
00002B57  0C04              or al,0x4
00002B59  0400              add al,0x0
00002B5B  001C00            add [eax+eax],bl
00002B5E  0000              add [eax],al
00002B60  54                push esp
00002B61  0400              add al,0x0
00002B63  005CE9FF          add [ecx+ebp*8-0x1],bl
00002B67  FF27              jmp near [edi]
00002B69  0000              add [eax],al
00002B6B  0000              add [eax],al
00002B6D  41                inc ecx
00002B6E  0E                push cs
00002B6F  088502420D05      or [ebp+0x50d4202],al
00002B75  63C5              arpl bp,ax
00002B77  0C04              or al,0x4
00002B79  0400              add al,0x0
00002B7B  001C00            add [eax+eax],bl
00002B7E  0000              add [eax],al
00002B80  7404              jz 0x2b86
00002B82  0000              add [eax],al
00002B84  63E9              arpl cx,bp
00002B86  FF                db 0xFF
00002B87  FF21              jmp near [ecx]
00002B89  0000              add [eax],al
00002B8B  0000              add [eax],al
00002B8D  41                inc ecx
00002B8E  0E                push cs
00002B8F  088502420D05      or [ebp+0x50d4202],al
00002B95  5D                pop ebp
00002B96  C50C04            lds ecx,[esp+eax]
00002B99  0400              add al,0x0
00002B9B  001C00            add [eax+eax],bl
00002B9E  0000              add [eax],al
00002BA0  94                xchg eax,esp
00002BA1  0400              add al,0x0
00002BA3  0064E9FF          add [ecx+ebp*8-0x1],ah
00002BA7  FF1A              call far [edx]
00002BA9  0000              add [eax],al
00002BAB  0000              add [eax],al
00002BAD  41                inc ecx
00002BAE  0E                push cs
00002BAF  088502420D05      or [ebp+0x50d4202],al
00002BB5  56                push esi
00002BB6  C50C04            lds ecx,[esp+eax]
00002BB9  0400              add al,0x0
00002BBB  001C00            add [eax+eax],bl
00002BBE  0000              add [eax],al
00002BC0  B404              mov ah,0x4
00002BC2  0000              add [eax],al
00002BC4  5E                pop esi
00002BC5  E9FFFF0800        jmp 0x92bc9
00002BCA  0000              add [eax],al
00002BCC  00410E            add [ecx+0xe],al
00002BCF  088502420D05      or [ebp+0x50d4202],al
00002BD5  44                inc esp
00002BD6  C50C04            lds ecx,[esp+eax]
00002BD9  0400              add al,0x0
00002BDB  001C00            add [eax+eax],bl
00002BDE  0000              add [eax],al
00002BE0  D404              aam 0x4
00002BE2  0000              add [eax],al
00002BE4  46                inc esi
00002BE5  E9FFFF3300        jmp 0x342be9
00002BEA  0000              add [eax],al
00002BEC  00410E            add [ecx+0xe],al
00002BEF  088502420D05      or [ebp+0x50d4202],al
00002BF5  6F                outsd
00002BF6  C50C04            lds ecx,[esp+eax]
00002BF9  0400              add al,0x0
00002BFB  002400            add [eax+eax],ah
00002BFE  0000              add [eax],al
00002C00  7804              js 0x2c06
00002C02  0000              add [eax],al
00002C04  59                pop ecx
00002C05  E9FFFFE300        jmp 0xe42c09
00002C0A  0000              add [eax],al
00002C0C  048D              add al,0x8d
00002C0E  B204              mov dl,0x4
00002C10  08410E            or [ecx+0xe],al
00002C13  088502420D05      or [ebp+0x50d4202],al
00002C19  44                inc esp
00002C1A  830302            add dword [ebx],byte +0x2
00002C1D  D9C5              fld st5
00002C1F  C3                ret
00002C20  0C04              or al,0x4
00002C22  0400              add al,0x0
00002C24  1C00              sbb al,0x0
00002C26  0000              add [eax],al
00002C28  1C05              sbb al,0x5
00002C2A  0000              add [eax],al
00002C2C  14EA              adc al,0xea
00002C2E  FF                db 0xFF
00002C2F  FF31              push dword [ecx]
00002C31  0000              add [eax],al
00002C33  0000              add [eax],al
00002C35  41                inc ecx
00002C36  0E                push cs
00002C37  088502420D05      or [ebp+0x50d4202],al
00002C3D  6BC50C            imul eax,ebp,byte +0xc
00002C40  0404              add al,0x4
00002C42  0000              add [eax],al
00002C44  2C00              sub al,0x0
00002C46  0000              add [eax],al
00002C48  C0040000          rol byte [eax+eax],0x0
00002C4C  25EAFFFF2C        and eax,0x2cffffea
00002C51  0100              add [eax],eax
00002C53  0004A1            add [ecx],al
00002C56  B204              mov dl,0x4
00002C58  08410E            or [ecx+0xe],al
00002C5B  088502420D05      or [ebp+0x50d4202],al
00002C61  45                inc ebp
00002C62  8603              xchg al,[ebx]
00002C64  83040321          add dword [ebx+eax],byte +0x21
00002C68  01C3              add ebx,eax
00002C6A  41                inc ecx
00002C6B  C641C50C          mov byte [ecx-0x3b],0xc
00002C6F  0404              add al,0x4
00002C71  0000              add [eax],al
00002C73  0020              add [eax],ah
00002C75  0000              add [eax],al
00002C77  00F0              add al,dh
00002C79  0400              add al,0x0
00002C7B  0021              add [ecx],ah
00002C7D  EBFF              jmp short 0x2c7e
00002C7F  FF4600            inc dword [esi+0x0]
00002C82  0000              add [eax],al
00002C84  04B6              add al,0xb6
00002C86  B204              mov dl,0x4
00002C88  08410E            or [ecx+0xe],al
00002C8B  088502420D05      or [ebp+0x50d4202],al
00002C91  0242C5            add al,[edx-0x3b]
00002C94  0C04              or al,0x4
00002C96  0400              add al,0x0
00002C98  1C00              sbb al,0x0
00002C9A  0000              add [eax],al
00002C9C  90                nop
00002C9D  05000044EB        add eax,0xeb440000
00002CA2  FF                db 0xFF
00002CA3  FF1A              call far [edx]
00002CA5  0000              add [eax],al
00002CA7  0000              add [eax],al
00002CA9  41                inc ecx
00002CAA  0E                push cs
00002CAB  088502420D05      or [ebp+0x50d4202],al
00002CB1  56                push esi
00002CB2  C50C04            lds ecx,[esp+eax]
00002CB5  0400              add al,0x0
00002CB7  001C00            add [eax+eax],bl
00002CBA  0000              add [eax],al
00002CBC  B005              mov al,0x5
00002CBE  0000              add [eax],al
00002CC0  3EEBFF            ds jmp short 0x2cc2
00002CC3  FF2F              jmp far [edi]
00002CC5  0000              add [eax],al
00002CC7  0000              add [eax],al
00002CC9  41                inc ecx
00002CCA  0E                push cs
00002CCB  088502420D05      or [ebp+0x50d4202],al
00002CD1  6BC50C            imul eax,ebp,byte +0xc
00002CD4  0404              add al,0x4
00002CD6  0000              add [eax],al
00002CD8  1C00              sbb al,0x0
00002CDA  0000              add [eax],al
00002CDC  D00500004EEB      rol byte [0xeb4e0000],1
00002CE2  FF                db 0xFF
00002CE3  FF13              call near [ebx]
00002CE5  0000              add [eax],al
00002CE7  0000              add [eax],al
00002CE9  41                inc ecx
00002CEA  0E                push cs
00002CEB  088502420D05      or [ebp+0x50d4202],al
00002CF1  4F                dec edi
00002CF2  C50C04            lds ecx,[esp+eax]
00002CF5  0400              add al,0x0
00002CF7  001C00            add [eax+eax],bl
00002CFA  0000              add [eax],al
00002CFC  F005000041EB      lock add eax,0xeb410000
00002D02  FF                db 0xFF
00002D03  FF21              jmp near [ecx]
00002D05  0000              add [eax],al
00002D07  0000              add [eax],al
00002D09  41                inc ecx
00002D0A  0E                push cs
00002D0B  088502420D05      or [ebp+0x50d4202],al
00002D11  5D                pop ebp
00002D12  C50C04            lds ecx,[esp+eax]
00002D15  0400              add al,0x0
00002D17  001C00            add [eax+eax],bl
00002D1A  0000              add [eax],al
00002D1C  1006              adc [esi],al
00002D1E  0000              add [eax],al
00002D20  42                inc edx
00002D21  EBFF              jmp short 0x2d22
00002D23  FF0500000000      inc dword [0x0]
00002D29  41                inc ecx
00002D2A  0E                push cs
00002D2B  088502420D05      or [ebp+0x50d4202],al
00002D31  41                inc ecx
00002D32  C50C04            lds ecx,[esp+eax]
00002D35  0400              add al,0x0
00002D37  002400            add [eax+eax],ah
00002D3A  0000              add [eax],al
00002D3C  B405              mov ah,0x5
00002D3E  0000              add [eax],al
00002D40  27                daa
00002D41  EBFF              jmp short 0x2d42
00002D43  FF9300000004      call near [ebx+0x4000000]
00002D49  C2B204            ret 0x4b2
00002D4C  08410E            or [ecx+0xe],al
00002D4F  088502420D05      or [ebp+0x50d4202],al
00002D55  44                inc esp
00002D56  830302            add dword [ebx],byte +0x2
00002D59  8AC3              mov al,bl
00002D5B  41                inc ecx
00002D5C  C50C04            lds ecx,[esp+eax]
00002D5F  041C              add al,0x1c
00002D61  0000              add [eax],al
00002D63  005806            add [eax+0x6],bl
00002D66  0000              add [eax],al
00002D68  92                xchg eax,edx
00002D69  EBFF              jmp short 0x2d6a
00002D6B  FF4A00            dec dword [edx+0x0]
00002D6E  0000              add [eax],al
00002D70  00410E            add [ecx+0xe],al
00002D73  088502420D05      or [ebp+0x50d4202],al
00002D79  0246C5            add al,[esi-0x3b]
00002D7C  0C04              or al,0x4
00002D7E  0400              add al,0x0
00002D80  1C00              sbb al,0x0
00002D82  0000              add [eax],al
00002D84  7806              js 0x2d8c
00002D86  0000              add [eax],al
00002D88  BCEBFFFF33        mov esp,0x33ffffeb
00002D8D  0000              add [eax],al
00002D8F  0000              add [eax],al
00002D91  41                inc ecx
00002D92  0E                push cs
00002D93  088502420D05      or [ebp+0x50d4202],al
00002D99  6D                insd
00002D9A  C50C04            lds ecx,[esp+eax]
00002D9D  0400              add al,0x0
00002D9F  002400            add [eax+eax],ah
00002DA2  0000              add [eax],al
00002DA4  98                cwde
00002DA5  06                push es
00002DA6  0000              add [eax],al
00002DA8  CF                iret
00002DA9  EBFF              jmp short 0x2daa
00002DAB  FF2C01            jmp far [ecx+eax]
00002DAE  0000              add [eax],al
00002DB0  00410E            add [ecx+0xe],al
00002DB3  088502420D05      or [ebp+0x50d4202],al
00002DB9  44                inc esp
00002DBA  830303            add dword [ebx],byte +0x3
00002DBD  2301              and eax,[ecx]
00002DBF  C3                ret
00002DC0  41                inc ecx
00002DC1  C50C04            lds ecx,[esp+eax]
00002DC4  0400              add al,0x0
00002DC6  0000              add [eax],al
00002DC8  1C00              sbb al,0x0
00002DCA  0000              add [eax],al
00002DCC  C00600            rol byte [esi],0x0
00002DCF  00D4              add ah,dl
00002DD1  EC                in al,dx
00002DD2  FF                db 0xFF
00002DD3  FF0A              dec dword [edx]
00002DD5  0000              add [eax],al
00002DD7  0000              add [eax],al
00002DD9  41                inc ecx
00002DDA  0E                push cs
00002DDB  088502420D05      or [ebp+0x50d4202],al
00002DE1  46                inc esi
00002DE2  C50C04            lds ecx,[esp+eax]
00002DE5  0400              add al,0x0
00002DE7  001C00            add [eax+eax],bl
00002DEA  0000              add [eax],al
00002DEC  E006              loopne 0x2df4
00002DEE  0000              add [eax],al
00002DF0  BEECFFFFB4        mov esi,0xb4ffffec
00002DF5  0000              add [eax],al
00002DF7  0000              add [eax],al
00002DF9  41                inc ecx
00002DFA  0E                push cs
00002DFB  088502420D05      or [ebp+0x50d4202],al
00002E01  02AEC50C0404      add ch,[esi+0x4040cc5]
00002E07  0020              add [eax],ah
00002E09  0000              add [eax],al
00002E0B  0000              add [eax],al
00002E0D  07                pop es
00002E0E  0000              add [eax],al
00002E10  52                push edx
00002E11  ED                in eax,dx
00002E12  FF                db 0xFF
00002E13  FF2C00            jmp far [eax+eax]
00002E16  0000              add [eax],al
00002E18  00410E            add [ecx+0xe],al
00002E1B  088502420D05      or [ebp+0x50d4202],al
00002E21  44                inc esp
00002E22  830363            add dword [ebx],byte +0x63
00002E25  C3                ret
00002E26  41                inc ecx
00002E27  C50C04            lds ecx,[esp+eax]
00002E2A  0400              add al,0x0
00002E2C  1C00              sbb al,0x0
00002E2E  0000              add [eax],al
00002E30  2407              and al,0x7
00002E32  0000              add [eax],al
00002E34  5A                pop edx
00002E35  ED                in eax,dx
00002E36  FF                db 0xFF
00002E37  FF1500000000      call near [0x0]
00002E3D  41                inc ecx
00002E3E  0E                push cs
00002E3F  088502420D05      or [ebp+0x50d4202],al
00002E45  51                push ecx
00002E46  C50C04            lds ecx,[esp+eax]
00002E49  0400              add al,0x0
00002E4B  001C00            add [eax+eax],bl
00002E4E  0000              add [eax],al
00002E50  44                inc esp
00002E51  07                pop es
00002E52  0000              add [eax],al
00002E54  4F                dec edi
00002E55  ED                in eax,dx
00002E56  FF                db 0xFF
00002E57  FF37              push dword [edi]
00002E59  0000              add [eax],al
00002E5B  0000              add [eax],al
00002E5D  41                inc ecx
00002E5E  0E                push cs
00002E5F  088502420D05      or [ebp+0x50d4202],al
00002E65  73C5              jnc 0x2e2c
00002E67  0C04              or al,0x4
00002E69  0400              add al,0x0
00002E6B  001C00            add [eax+eax],bl
00002E6E  0000              add [eax],al
00002E70  6407              fs pop es
00002E72  0000              add [eax],al
00002E74  66ED              in ax,dx
00002E76  FF                db 0xFF
00002E77  FF5A00            call far [edx+0x0]
00002E7A  0000              add [eax],al
00002E7C  00410E            add [ecx+0xe],al
00002E7F  088502420D05      or [ebp+0x50d4202],al
00002E85  0254C50C          add dl,[ebp+eax*8+0xc]
00002E89  0404              add al,0x4
00002E8B  0020              add [eax],ah
00002E8D  0000              add [eax],al
00002E8F  0084070000A0ED    add [edi+eax+0xeda00000],al
00002E96  FF                db 0xFF
00002E97  FF9F00000000      call far [edi+0x0]
00002E9D  41                inc ecx
00002E9E  0E                push cs
00002E9F  088502420D05      or [ebp+0x50d4202],al
00002EA5  44                inc esp
00002EA6  830302            add dword [ebx],byte +0x2
00002EA9  96                xchg eax,esi
00002EAA  C3                ret
00002EAB  41                inc ecx
00002EAC  C50C04            lds ecx,[esp+eax]
00002EAF  041C              add al,0x1c
00002EB1  0000              add [eax],al
00002EB3  00A80700001C      add [eax+0x1c000007],ch
00002EB9  EE                out dx,al
00002EBA  FF                db 0xFF
00002EBB  FF0500000000      inc dword [0x0]
00002EC1  41                inc ecx
00002EC2  0E                push cs
00002EC3  088502420D05      or [ebp+0x50d4202],al
00002EC9  41                inc ecx
00002ECA  C50C04            lds ecx,[esp+eax]
00002ECD  0400              add al,0x0
00002ECF  001C00            add [eax+eax],bl
00002ED2  0000              add [eax],al
00002ED4  C8070000          enter 0x7,0x0
00002ED8  02EE              add ch,dh
00002EDA  FF                db 0xFF
00002EDB  FF30              push dword [eax]
00002EDD  0000              add [eax],al
00002EDF  0000              add [eax],al
00002EE1  41                inc ecx
00002EE2  0E                push cs
00002EE3  088502420D05      or [ebp+0x50d4202],al
00002EE9  6C                insb
00002EEA  C50C04            lds ecx,[esp+eax]
00002EED  0400              add al,0x0
00002EEF  001C00            add [eax+eax],bl
00002EF2  0000              add [eax],al
00002EF4  E807000012        call 0x12002f00
00002EF9  EE                out dx,al
00002EFA  FF                db 0xFF
00002EFB  FF37              push dword [edi]
00002EFD  0000              add [eax],al
00002EFF  0000              add [eax],al
00002F01  41                inc ecx
00002F02  0E                push cs
00002F03  088502420D05      or [ebp+0x50d4202],al
00002F09  73C5              jnc 0x2ed0
00002F0B  0C04              or al,0x4
00002F0D  0400              add al,0x0
00002F0F  002400            add [eax+eax],ah
00002F12  0000              add [eax],al
00002F14  8C07              mov [edi],es
00002F16  0000              add [eax],al
00002F18  29EE              sub esi,ebp
00002F1A  FF                db 0xFF
00002F1B  FFC5              inc ebp
00002F1D  0000              add [eax],al
00002F1F  0004D4            add [esp+edx*8],al
00002F22  B204              mov dl,0x4
00002F24  08410E            or [ecx+0xe],al
00002F27  088502420D05      or [ebp+0x50d4202],al
00002F2D  44                inc esp
00002F2E  830302            add dword [ebx],byte +0x2
00002F31  BDC5C30C04        mov ebp,0x40cc3c5
00002F36  0400              add al,0x0
00002F38  2000              and [eax],al
00002F3A  0000              add [eax],al
00002F3C  3008              xor [eax],cl
00002F3E  0000              add [eax],al
00002F40  C6                db 0xC6
00002F41  EE                out dx,al
00002F42  FF                db 0xFF
00002F43  FF2C00            jmp far [eax+eax]
00002F46  0000              add [eax],al
00002F48  00410E            add [ecx+0xe],al
00002F4B  088502420D05      or [ebp+0x50d4202],al
00002F51  44                inc esp
00002F52  830363            add dword [ebx],byte +0x63
00002F55  C3                ret
00002F56  41                inc ecx
00002F57  C50C04            lds ecx,[esp+eax]
00002F5A  0400              add al,0x0
00002F5C  2400              and al,0x0
00002F5E  0000              add [eax],al
00002F60  D807              fadd dword [edi]
00002F62  0000              add [eax],al
00002F64  CE                into
00002F65  EE                out dx,al
00002F66  FF                db 0xFF
00002F67  FF8800000004      dec dword [eax+0x4000000]
00002F6D  E3B2              jecxz 0x2f21
00002F6F  0408              add al,0x8
00002F71  41                inc ecx
00002F72  0E                push cs
00002F73  088502420D05      or [ebp+0x50d4202],al
00002F79  44                inc esp
00002F7A  830302            add dword [ebx],byte +0x2
00002F7D  7FC3              jg 0x2f42
00002F7F  41                inc ecx
00002F80  C50C04            lds ecx,[esp+eax]
00002F83  041C              add al,0x1c
00002F85  0000              add [eax],al
00002F87  007C0800          add [eax+ecx+0x0],bh
00002F8B  002E              add [esi],ch
00002F8D  EF                out dx,eax
00002F8E  FF                db 0xFF
00002F8F  FF1500000000      call near [0x0]
00002F95  41                inc ecx
00002F96  0E                push cs
00002F97  088502420D05      or [ebp+0x50d4202],al
00002F9D  51                push ecx
00002F9E  C50C04            lds ecx,[esp+eax]
00002FA1  0400              add al,0x0
00002FA3  001C00            add [eax+eax],bl
00002FA6  0000              add [eax],al
00002FA8  9C                pushf
00002FA9  0800              or [eax],al
00002FAB  0023              add [ebx],ah
00002FAD  EF                out dx,eax
00002FAE  FF                db 0xFF
00002FAF  FF1A              call far [edx]
00002FB1  0000              add [eax],al
00002FB3  0000              add [eax],al
00002FB5  41                inc ecx
00002FB6  0E                push cs
00002FB7  088502420D05      or [ebp+0x50d4202],al
00002FBD  56                push esi
00002FBE  C50C04            lds ecx,[esp+eax]
00002FC1  0400              add al,0x0
00002FC3  001C00            add [eax+eax],bl
00002FC6  0000              add [eax],al
00002FC8  BC0800001D        mov esp,0x1d000008
00002FCD  EF                out dx,eax
00002FCE  FF                db 0xFF
00002FCF  FF22              jmp near [edx]
00002FD1  0000              add [eax],al
00002FD3  0000              add [eax],al
00002FD5  41                inc ecx
00002FD6  0E                push cs
00002FD7  088502420D05      or [ebp+0x50d4202],al
00002FDD  5C                pop esp
00002FDE  C50C04            lds ecx,[esp+eax]
00002FE1  0400              add al,0x0
00002FE3  002400            add [eax+eax],ah
00002FE6  0000              add [eax],al
00002FE8  DC08              fmul qword [eax]
00002FEA  0000              add [eax],al
00002FEC  1F                pop ds
00002FED  EF                out dx,eax
00002FEE  FF                db 0xFF
00002FEF  FF5E00            call far [esi+0x0]
00002FF2  0000              add [eax],al
00002FF4  00410E            add [ecx+0xe],al
00002FF7  088502420D05      or [ebp+0x50d4202],al
00002FFD  45                inc ebp
00002FFE  8603              xchg al,[ebx]
00003000  83040251          add dword [edx+eax],byte +0x51
00003004  C3                ret
00003005  41                inc ecx
00003006  C641C50C          mov byte [ecx-0x3b],0xc
0000300A  0404              add al,0x4
0000300C  1C00              sbb al,0x0
0000300E  0000              add [eax],al
00003010  0409              add al,0x9
00003012  0000              add [eax],al
00003014  56                push esi
00003015  EF                out dx,eax
00003016  FF                db 0xFF
00003017  FF0A              dec dword [edx]
00003019  0000              add [eax],al
0000301B  0000              add [eax],al
0000301D  41                inc ecx
0000301E  0E                push cs
0000301F  088502420D05      or [ebp+0x50d4202],al
00003025  46                inc esi
00003026  C50C04            lds ecx,[esp+eax]
00003029  0400              add al,0x0
0000302B  001C00            add [eax+eax],bl
0000302E  0000              add [eax],al
00003030  2409              and al,0x9
00003032  0000              add [eax],al
00003034  40                inc eax
00003035  EF                out dx,eax
00003036  FF                db 0xFF
00003037  FF08              dec dword [eax]
00003039  0000              add [eax],al
0000303B  0000              add [eax],al
0000303D  41                inc ecx
0000303E  0E                push cs
0000303F  088502420D05      or [ebp+0x50d4202],al
00003045  44                inc esp
00003046  C50C04            lds ecx,[esp+eax]
00003049  0400              add al,0x0
0000304B  001C00            add [eax+eax],bl
0000304E  0000              add [eax],al
00003050  44                inc esp
00003051  0900              or [eax],eax
00003053  0028              add [eax],ch
00003055  EF                out dx,eax
00003056  FF                db 0xFF
00003057  FF2E              jmp far [esi]
00003059  0000              add [eax],al
0000305B  0000              add [eax],al
0000305D  41                inc ecx
0000305E  0E                push cs
0000305F  088502420D05      or [ebp+0x50d4202],al
00003065  6AC5              push byte -0x3b
00003067  0C04              or al,0x4
00003069  0400              add al,0x0
0000306B  002C00            add [eax+eax],ch
0000306E  0000              add [eax],al
00003070  640900            or [fs:eax],eax
00003073  0036              add [esi],dh
00003075  EF                out dx,eax
00003076  FF                db 0xFF
00003077  FFD1              call ecx
00003079  0100              add [eax],eax
0000307B  0000              add [eax],al
0000307D  41                inc ecx
0000307E  0E                push cs
0000307F  088502420D05      or [ebp+0x50d4202],al
00003085  46                inc esi
00003086  8703              xchg eax,[ebx]
00003088  860483            xchg al,[ebx+eax*4]
0000308B  0503C401C3        add eax,0xc301c403
00003090  41                inc ecx
00003091  C641C741          mov byte [ecx-0x39],0x41
00003095  C50C04            lds ecx,[esp+eax]
00003098  0400              add al,0x0
0000309A  0000              add [eax],al
0000309C  2000              and [eax],al
0000309E  0000              add [eax],al
000030A0  94                xchg eax,esp
000030A1  0900              or [eax],eax
000030A3  00D7              add bh,dl
000030A5  F0                db 0xF0
000030A6  FF                db 0xFF
000030A7  FF31              push dword [ecx]
000030A9  0000              add [eax],al
000030AB  0000              add [eax],al
000030AD  41                inc ecx
000030AE  0E                push cs
000030AF  088502420D05      or [ebp+0x50d4202],al
000030B5  44                inc esp
000030B6  830368            add dword [ebx],byte +0x68
000030B9  C3                ret
000030BA  41                inc ecx
000030BB  C50C04            lds ecx,[esp+eax]
000030BE  0400              add al,0x0
000030C0  1C00              sbb al,0x0
000030C2  0000              add [eax],al
000030C4  B8090000E4        mov eax,0xe4000009
000030C9  F0                db 0xF0
000030CA  FF                db 0xFF
000030CB  FF12              call near [edx]
000030CD  0000              add [eax],al
000030CF  0000              add [eax],al
000030D1  41                inc ecx
000030D2  0E                push cs
000030D3  088502420D05      or [ebp+0x50d4202],al
000030D9  4C                dec esp
000030DA  C50C04            lds ecx,[esp+eax]
000030DD  0400              add al,0x0
000030DF  001C00            add [eax+eax],bl
000030E2  0000              add [eax],al
000030E4  D809              fmul dword [ecx]
000030E6  0000              add [eax],al
000030E8  D6                salc
000030E9  F0                db 0xF0
000030EA  FF                db 0xFF
000030EB  FF13              call near [ebx]
000030ED  0000              add [eax],al
000030EF  0000              add [eax],al
000030F1  41                inc ecx
000030F2  0E                push cs
000030F3  088502420D05      or [ebp+0x50d4202],al
000030F9  4F                dec edi
000030FA  C50C04            lds ecx,[esp+eax]
000030FD  0400              add al,0x0
000030FF  001C00            add [eax+eax],bl
00003102  0000              add [eax],al
00003104  F8                clc
00003105  0900              or [eax],eax
00003107  00C9              add cl,cl
00003109  F0                db 0xF0
0000310A  FF                db 0xFF
0000310B  FF2500000000      jmp near [0x0]
00003111  41                inc ecx
00003112  0E                push cs
00003113  088502420D05      or [ebp+0x50d4202],al
00003119  61                popa
0000311A  C50C04            lds ecx,[esp+eax]
0000311D  0400              add al,0x0
0000311F  002C00            add [eax+eax],ch
00003122  0000              add [eax],al
00003124  180A              sbb [edx],cl
00003126  0000              add [eax],al
00003128  CE                into
00003129  F0                db 0xF0
0000312A  FF                db 0xFF
0000312B  FF1D01000000      call far [0x1]
00003131  41                inc ecx
00003132  0E                push cs
00003133  088502420D05      or [ebp+0x50d4202],al
00003139  46                inc esi
0000313A  8703              xchg eax,[ebx]
0000313C  860483            xchg al,[ebx+eax*4]
0000313F  05031001C3        add eax,0xc3011003
00003144  41                inc ecx
00003145  C641C741          mov byte [ecx-0x39],0x41
00003149  C50C04            lds ecx,[esp+eax]
0000314C  0400              add al,0x0
0000314E  0000              add [eax],al
00003150  1C00              sbb al,0x0
00003152  0000              add [eax],al
00003154  48                dec eax
00003155  0A00              or al,[eax]
00003157  00BBF1FFFF34      add [ebx+0x34fffff1],bh
0000315D  0000              add [eax],al
0000315F  0000              add [eax],al
00003161  41                inc ecx
00003162  0E                push cs
00003163  088502420D05      or [ebp+0x50d4202],al
00003169  70C5              jo 0x3130
0000316B  0C04              or al,0x4
0000316D  0400              add al,0x0
0000316F  001C00            add [eax+eax],bl
00003172  0000              add [eax],al
00003174  680A0000CF        push dword 0xcf00000a
00003179  F1                int1
0000317A  FF                db 0xFF
0000317B  FF1500000000      call near [0x0]
00003181  41                inc ecx
00003182  0E                push cs
00003183  088502420D05      or [ebp+0x50d4202],al
00003189  51                push ecx
0000318A  C50C04            lds ecx,[esp+eax]
0000318D  0400              add al,0x0
0000318F  001C00            add [eax+eax],bl
00003192  0000              add [eax],al
00003194  880A              mov [edx],cl
00003196  0000              add [eax],al
00003198  C4                db 0xC4
00003199  F1                int1
0000319A  FF                db 0xFF
0000319B  FF                db 0xFF
0000319C  3E0000            add [ds:eax],al
0000319F  0000              add [eax],al
000031A1  41                inc ecx
000031A2  0E                push cs
000031A3  088502420D05      or [ebp+0x50d4202],al
000031A9  7AC5              jpe 0x3170
000031AB  0C04              or al,0x4
000031AD  0400              add al,0x0
000031AF  001C00            add [eax+eax],bl
000031B2  0000              add [eax],al
000031B4  A80A              test al,0xa
000031B6  0000              add [eax],al
000031B8  5F                pop edi
000031B9  DD                db 0xDD
000031BA  FF                db 0xFF
000031BB  FF                db 0xFF
000031BC  3F                aas
000031BD  0000              add [eax],al
000031BF  0000              add [eax],al
000031C1  41                inc ecx
000031C2  0E                push cs
000031C3  088502420D05      or [ebp+0x50d4202],al
000031C9  7BC5              jpo 0x3190
000031CB  0C04              or al,0x4
000031CD  0400              add al,0x0
000031CF  001C00            add [eax+eax],bl
000031D2  0000              add [eax],al
000031D4  C80A0000          enter 0xa,0x0
000031D8  7EDD              jng 0x31b7
000031DA  FF                db 0xFF
000031DB  FF1C00            call far [eax+eax]
000031DE  0000              add [eax],al
000031E0  00410E            add [ecx+0xe],al
000031E3  088502420D05      or [ebp+0x50d4202],al
000031E9  58                pop eax
000031EA  C50C04            lds ecx,[esp+eax]
000031ED  0400              add al,0x0
000031EF  0000              add [eax],al
000031F1  0000              add [eax],al
000031F3  00FF              add bh,bh
000031F5  FF01              inc dword [ecx]
000031F7  3B2405C40B0044    cmp esp,[eax+0x44000bc4]
000031FE  5E                pop esi
000031FF  C20B00            ret 0xb
00003202  D901              fld dword [ecx]
00003204  05F80A0092        add eax,0x92000af8
00003209  0270AE            add dh,[eax-0x52]
0000320C  0B00              or eax,[eax]
0000320E  B90305890B        mov ecx,0xb890503
00003213  00D2              add dl,dl
00003215  04FD              add al,0xfd
00003217  01980B008209      add [eax+0x982000b],ebx
0000321D  BA019C0B00        mov edx,0xb9c01
00003222  C50A              lds ecx,[edx]
00003224  05AE0B00D3        add eax,0xd3000bae
00003229  0A05C20B00C7      or al,[0xc7000bc2]
0000322F  0B050000FFFF      or eax,[0xffff0000]
00003235  010C1B            add [ebx+ebx],ecx
00003238  0500003405        add eax,0x5340000
0000323D  3B00              cmp eax,[eax]
0000323F  4D                dec ebp
00003240  050000FFFF        add eax,0xffff0000
00003245  010C28            add [eax+ebp],ecx
00003248  053A003305        add eax,0x533003a
0000324D  0000              add [eax],al
0000324F  4C                dec esp
00003250  050000FFFF        add eax,0xffff0000
00003255  0108              add [eax],ecx
00003257  26052D003F05      es add eax,0x53f002d
0000325D  0000              add [eax],al
0000325F  FF                db 0xFF
00003260  FF01              inc dword [ecx]
00003262  0830              or [eax],dh
00003264  0542005405        add eax,0x5540042
00003269  0000              add [eax],al
0000326B  FF                db 0xFF
0000326C  FF01              inc dword [ecx]
0000326E  0A22              or ah,[edx]
00003270  3F                aas
00003271  8501              test [ecx],eax
00003273  008801050000      add [eax+0x501],cl
00003279  FF                db 0xFF
0000327A  FF01              inc dword [ecx]
0000327C  105305            adc [ebx+0x5],dl
0000327F  A301008801        mov [0x1880001],eax
00003284  05AB01009C        add eax,0x9c0001ab
00003289  0117              add [edi],edx
0000328B  0000              add [eax],al
0000328D  FF                db 0xFF
0000328E  FF01              inc dword [ecx]
00003290  107805            adc [eax+0x5],bh
00003293  CF                iret
00003294  0100              add [eax],eax
00003296  C501              lds eax,[ecx]
00003298  05D10100D4        add eax,0xd40001d1
0000329D  01050000FFFF      add [0xffff0000],eax
000032A3  0111              add [ecx],edx
000032A5  C701059B0200      mov dword [ecx],0x29b05
000032AB  EF                out dx,eax
000032AC  01059D0200A0      add [0xa000029d],eax
000032B2  02050000FFFF      add al,[0xffff0000]
000032B8  0108              add [eax],ecx
000032BA  1405              adc al,0x5
000032BC  3C00              cmp al,0x0
000032BE  3F                aas
000032BF  050000FFFF        add eax,0xffff0000
000032C4  010E              add [esi],ecx
000032C6  1405              adc al,0x5
000032C8  0000              add [eax],al
000032CA  5D                pop ebp
000032CB  0585010088        add eax,0x88000185
000032D0  01050000FFFF      add [0xffff0000],eax
000032D6  010B              add [ebx],ecx
000032D8  A30105B801        mov [0x1b80501],eax
000032DD  00BB01050000      add [ebx+0x501],bh
000032E3  FF                db 0xFF
000032E4  FF01              inc dword [ecx]
000032E6  087305            or [ebx+0x5],dh
000032E9  7A00              jpe 0x32eb
000032EB  7D05              jnl 0x32f2
000032ED  0000              add [eax],al
000032EF  00FF              add bh,bh
000032F1  FF                db 0xFF
000032F2  FF                db 0xFF
000032F3  FF568F            call near [esi-0x71]
000032F6  0408              add al,0x8
000032F8  0000              add [eax],al
000032FA  0000              add [eax],al
000032FC  FF                db 0xFF
000032FD  FF                db 0xFF
000032FE  FF                db 0xFF
000032FF  FF00              inc dword [eax]
00003301  0000              add [eax],al
00003303  0000              add [eax],al
00003305  0000              add [eax],al
00003307  0001              add [ecx],al
00003309  0000              add [eax],al
0000330B  0001              add [ecx],al
0000330D  0000              add [eax],al
0000330F  0001              add [ecx],al
00003311  0000              add [eax],al
00003313  008A01000001      add [edx+0x1000001],cl
00003319  0000              add [eax],al
0000331B  00940100000100    add [ecx+eax+0x10000],dl
00003322  0000              add [eax],al
00003324  B101              mov cl,0x1
00003326  0000              add [eax],al
00003328  0C00              or al,0x0
0000332A  0000              add [eax],al
0000332C  E486              in al,0x86
0000332E  0408              add al,0x8
00003330  0D00000038        or eax,0x38000000
00003335  A4                movsb
00003336  0408              add al,0x8
00003338  0400              add al,0x0
0000333A  0000              add [eax],al
0000333C  6881040805        push dword 0x5080481
00003341  0000              add [eax],al
00003343  008083040806      add [eax+0x6080483],al
00003349  0000              add [eax],al
0000334B  0010              add [eax],dl
0000334D  82                db 0x82
0000334E  0408              add al,0x8
00003350  0A00              or al,[eax]
00003352  0000              add [eax],al
00003354  1E                push ds
00003355  0200              add al,[eax]
00003357  000B              add [ebx],cl
00003359  0000              add [eax],al
0000335B  0010              add [eax],dl
0000335D  0000              add [eax],al
0000335F  001500000000      add [0x0],dl
00003365  0000              add [eax],al
00003367  0003              add [ebx],al
00003369  0000              add [eax],al
0000336B  00EC              add ah,ch
0000336D  C3                ret
0000336E  0408              add al,0x8
00003370  0200              add al,[eax]
00003372  0000              add [eax],al
00003374  7800              js 0x3376
00003376  0000              add [eax],al
00003378  1400              adc al,0x0
0000337A  0000              add [eax],al
0000337C  1100              adc [eax],eax
0000337E  0000              add [eax],al
00003380  17                pop ss
00003381  0000              add [eax],al
00003383  006C8604          add [esi+eax*4+0x4],ch
00003387  0811              or [ecx],dl
00003389  0000              add [eax],al
0000338B  004C8604          add [esi+eax*4+0x4],cl
0000338F  0812              or [edx],dl
00003391  0000              add [eax],al
00003393  0020              add [eax],ah
00003395  0000              add [eax],al
00003397  0013              add [ebx],dl
00003399  0000              add [eax],al
0000339B  0008              add [eax],cl
0000339D  0000              add [eax],al
0000339F  00FE              add dh,bh
000033A1  FF                db 0xFF
000033A2  FF6FCC            jmp far [edi-0x34]
000033A5  850408            test [eax+ecx],eax
000033A8  FF                db 0xFF
000033A9  FF                db 0xFF
000033AA  FF6F03            jmp far [edi+0x3]
000033AD  0000              add [eax],al
000033AF  00F0              add al,dh
000033B1  FF                db 0xFF
000033B2  FF6F9E            jmp far [edi-0x62]
000033B5  850408            test [eax+ecx],eax
000033B8  0000              add [eax],al
000033BA  0000              add [eax],al
000033BC  0000              add [eax],al
000033BE  0000              add [eax],al
000033C0  0000              add [eax],al
000033C2  0000              add [eax],al
000033C4  0000              add [eax],al
000033C6  0000              add [eax],al
000033C8  0000              add [eax],al
000033CA  0000              add [eax],al
000033CC  0000              add [eax],al
000033CE  0000              add [eax],al
000033D0  0000              add [eax],al
000033D2  0000              add [eax],al
000033D4  0000              add [eax],al
000033D6  0000              add [eax],al
000033D8  0000              add [eax],al
000033DA  0000              add [eax],al
000033DC  0000              add [eax],al
000033DE  0000              add [eax],al
000033E0  0000              add [eax],al
000033E2  0000              add [eax],al
000033E4  0000              add [eax],al
000033E6  0000              add [eax],al
000033E8  0000              add [eax],al
000033EA  0000              add [eax],al
000033EC  08C3              or bl,al
000033EE  0408              add al,0x8
000033F0  0000              add [eax],al
000033F2  0000              add [eax],al
000033F4  0000              add [eax],al
000033F6  0000              add [eax],al
000033F8  36870408          xchg eax,[ss:eax+ecx]
000033FC  46                inc esi
000033FD  870408            xchg eax,[eax+ecx]
00003400  56                push esi
00003401  870408            xchg eax,[eax+ecx]
00003404  66870408          xchg ax,[eax+ecx]
00003408  7687              jna 0x3391
0000340A  0408              add al,0x8
0000340C  868704089687      xchg al,[edi+0x87960804]
00003412  0408              add al,0x8
00003414  A6                cmpsb
00003415  870408            xchg eax,[eax+ecx]
00003418  B687              mov dh,0x87
0000341A  0408              add al,0x8
0000341C  C6870408D68704    mov byte [edi+0x87d60804],0x4
00003423  08E6              or dh,ah
00003425  870408            xchg eax,[eax+ecx]
00003428  F6870408068804    test byte [edi+0x88060804],0x4
0000342F  0816              or [esi],dl
00003431  880408            mov [eax+ecx],al
00003434  0000              add [eax],al
00003436  0000              add [eax],al
00003438  0000              add [eax],al
0000343A  0000              add [eax],al
0000343C  47                inc edi
0000343D  43                inc ebx
0000343E  43                inc ebx
0000343F  3A20              cmp ah,[eax]
00003441  285562            sub [ebp+0x62],dl
00003444  756E              jnz 0x34b4
00003446  7475              jz 0x34bd
00003448  20342E            and [esi+ebp],dh
0000344B  342E              xor al,0x2e
0000344D  332D34756275      xor ebp,[0x75627534]
00003453  6E                outsb
00003454  7475              jz 0x34cb
00003456  352920342E        xor eax,0x2e342029
0000345B  342E              xor al,0x2e
0000345D  3300              xor eax,[eax]
0000345F  47                inc edi
00003460  43                inc ebx
00003461  43                inc ebx
00003462  3A20              cmp ah,[eax]
00003464  28474E            sub [edi+0x4e],al
00003467  55                push ebp
00003468  2920              sub [eax],esp
0000346A  342E              xor al,0x2e
0000346C  382E              cmp [esi],ch
0000346E  3100              xor [eax],eax
00003470  1C00              sbb al,0x0
00003472  0000              add [eax],al
00003474  0200              add al,[eax]
00003476  0000              add [eax],al
00003478  0000              add [eax],al
0000347A  0400              add al,0x0
0000347C  0000              add [eax],al
0000347E  0000              add [eax],al
00003480  208804082200      and [eax+0x220804],cl
00003486  0000              add [eax],al
00003488  0000              add [eax],al
0000348A  0000              add [eax],al
0000348C  0000              add [eax],al
0000348E  0000              add [eax],al
00003490  1C00              sbb al,0x0
00003492  0000              add [eax],al
00003494  0200              add al,[eax]
00003496  0E                push cs
00003497  0100              add [eax],eax
00003499  000400            add [eax+eax],al
0000349C  0000              add [eax],al
0000349E  0000              add [eax],al
000034A0  A0A304086A        mov al,[0x6a0804a3]
000034A5  0000              add [eax],al
000034A7  0000              add [eax],al
000034A9  0000              add [eax],al
000034AB  0000              add [eax],al
000034AD  0000              add [eax],al
000034AF  0021              add [ecx],ah
000034B1  0000              add [eax],al
000034B3  0002              add [edx],al
000034B5  00810000008D      add [ecx+0x8d000000],al
000034BB  0000              add [eax],al
000034BD  007500            add [ebp+0x0],dh
000034C0  0000              add [eax],al
000034C2  5F                pop edi
000034C3  49                dec ecx
000034C4  4F                dec edi
000034C5  5F                pop edi
000034C6  7374              jnc 0x353c
000034C8  64696E5F75736564  imul ebp,[fs:esi+0x5f],dword 0x64657375
000034D0  0000              add [eax],al
000034D2  0000              add [eax],al
000034D4  0036              add [esi],dh
000034D6  0000              add [eax],al
000034D8  0002              add [edx],al
000034DA  000E              add [esi],cl
000034DC  0100              add [eax],eax
000034DE  0013              add [ebx],dl
000034E0  0100              add [eax],eax
000034E2  003E              add [esi],bh
000034E4  0000              add [eax],al
000034E6  005F5F            add [edi+0x5f],bl
000034E9  6C                insb
000034EA  6962635F637375    imul esp,[edx+0x63],dword 0x7573635f
000034F1  5F                pop edi
000034F2  66696E690053      imul bp,[esi+0x69],word 0x5300
000034F8  0000              add [eax],al
000034FA  005F5F            add [edi+0x5f],bl
000034FD  6C                insb
000034FE  6962635F637375    imul esp,[edx+0x63],dword 0x7573635f
00003505  5F                pop edi
00003506  696E6974000000    imul ebp,[esi+0x69],dword 0x74
0000350D  0000              add [eax],al
0000350F  7D00              jnl 0x3511
00003511  0000              add [eax],al
00003513  0200              add al,[eax]
00003515  0000              add [eax],al
00003517  0000              add [eax],al
00003519  0401              add al,0x1
0000351B  0000              add [eax],al
0000351D  0000              add [eax],al
0000351F  208804084288      and [eax+0x88420804],cl
00003525  0408              add al,0x8
00003527  2E2E2F            cs das
0000352A  7379              jnc 0x35a5
0000352C  7364              jnc 0x3592
0000352E  657073            gs jo 0x35a4
00003531  2F                das
00003532  693338362F65      imul esi,[ebx],dword 0x652f3638
00003538  6C                insb
00003539  662F              o16 das
0000353B  7374              jnc 0x35b1
0000353D  61                popa
0000353E  7274              jc 0x35b4
00003540  2E53              cs push ebx
00003542  002F              add [edi],ch
00003544  686F6D652F        push dword 0x2f656d6f
00003549  7069              jo 0x35b4
0000354B  657272            gs jc 0x35c0
0000354E  652F              gs das
00003550  42                inc edx
00003551  7572              jnz 0x35c5
00003553  6561              gs popa
00003555  752F              jnz 0x3586
00003557  6865616465        push dword 0x65646165
0000355C  7273              jc 0x35d1
0000355E  2D676C6962        sub eax,0x62696c67
00003563  632D666F722D      arpl [0x2d726f66],bp
00003569  6C                insb
0000356A  696E75782F676C    imul ebp,[esi+0x75],dword 0x6c672f78
00003571  6962632D322E31    imul esp,[edx+0x63],dword 0x312e322d
00003578  322E              xor ch,[esi]
0000357A  322F              xor ch,[edi]
0000357C  637375            arpl [ebx+0x75],si
0000357F  00474E            add [edi+0x4e],al
00003582  55                push ebp
00003583  204153            and [ecx+0x53],al
00003586  2032              and [edx],dh
00003588  2E3230            xor dh,[cs:eax]
0000358B  2E3100            xor [cs:eax],eax
0000358E  018089000000      add [eax+0x89],eax
00003594  0200              add al,[eax]
00003596  1400              adc al,0x0
00003598  0000              add [eax],al
0000359A  0401              add al,0x1
0000359C  8E00              mov es,[eax]
0000359E  0000              add [eax],al
000035A0  01CD              add ebp,ecx
000035A2  0000              add [eax],al
000035A4  004300            add [ebx+0x0],al
000035A7  0000              add [eax],al
000035A9  44                inc esp
000035AA  880408            mov [eax+ecx],al
000035AD  44                inc esp
000035AE  880408            mov [eax+ecx],al
000035B1  5B                pop ebx
000035B2  0000              add [eax],al
000035B4  0002              add [edx],al
000035B6  0108              add [eax],ecx
000035B8  800000            add byte [eax],0x0
000035BB  0002              add [edx],al
000035BD  0207              add al,[edi]
000035BF  0000              add [eax],al
000035C1  0000              add [eax],al
000035C3  020407            add al,[edi+eax]
000035C6  360000            add [ss:eax],al
000035C9  0002              add [edx],al
000035CB  0407              add al,0x7
000035CD  3100              xor [eax],eax
000035CF  0000              add [eax],al
000035D1  0201              add al,[ecx]
000035D3  06                push es
000035D4  82                db 0x82
000035D5  0000              add [eax],al
000035D7  0002              add [edx],al
000035D9  020513000000      add al,[0x13]
000035DF  030405696E7400    add eax,[eax+0x746e69]
000035E6  0208              add cl,[eax]
000035E8  059A000000        add eax,0x9a
000035ED  0208              add cl,[eax]
000035EF  07                pop es
000035F0  2C00              sub al,0x0
000035F2  0000              add [eax],al
000035F4  0204059F000000    add al,[eax+0x9f]
000035FB  0404              add al,0x4
000035FD  07                pop es
000035FE  0201              add al,[ecx]
00003600  06                push es
00003601  8900              mov [eax],eax
00003603  0000              add [eax],al
00003605  051D000000        add eax,0x1d
0000360A  0119              add [ecx],ebx
0000360C  8700              xchg eax,[eax]
0000360E  0000              add [eax],al
00003610  01050358A404      add [0x4a45803],eax
00003616  0806              or [esi],al
00003618  4F                dec edi
00003619  0000              add [eax],al
0000361B  0000              add [eax],al
0000361D  0F0100            sgdt [eax]
00003620  0002              add [edx],al
00003622  005F00            add [edi+0x0],bl
00003625  0000              add [eax],al
00003627  0401              add al,0x1
00003629  8E00              mov es,[eax]
0000362B  0000              add [eax],al
0000362D  01C9              add ecx,ecx
0000362F  0000              add [eax],al
00003631  004300            add [ebx+0x0],al
00003634  0000              add [eax],al
00003636  A0A304080A        mov al,[0xa0804a3]
0000363B  A4                movsb
0000363C  0408              add al,0x8
0000363E  82                db 0x82
0000363F  0000              add [eax],al
00003641  0002              add [edx],al
00003643  0405              add al,0x5
00003645  696E740003AD00    imul ebp,[esi+0x74],dword 0xad0300
0000364C  0000              add [eax],al
0000364E  02D3              add dl,bl
00003650  37                aaa
00003651  0000              add [eax],al
00003653  000404            add [esp+eax],al
00003656  07                pop es
00003657  360000            add [ss:eax],al
0000365A  000501FD0000      add [0xfd01],al
00003660  0001              add [ecx],al
00003662  8301A0            add dword [ecx],byte -0x60
00003665  A30408A5A3        mov [0xa3a50804],eax
0000366A  0408              add al,0x8
0000366C  0000              add [eax],al
0000366E  0000              add [eax],al
00003670  06                push es
00003671  01B900000001      add [ecx+0x1000000],edi
00003677  6901B0A30408      imul eax,[ecx],dword 0x804a3b0
0000367D  0AA404082C0000    or ah,[esp+eax+0x2c08]
00003684  00B900000007      add [ecx+0x7000000],bh
0000368A  B400              mov ah,0x0
0000368C  0000              add [eax],al
0000368E  016925            add [ecx+0x25],ebp
00003691  0000              add [eax],al
00003693  0002              add [edx],al
00003695  91                xchg eax,ecx
00003696  0007              add [edi],al
00003698  0D01000001        or eax,0x1000001
0000369D  69B9000000029104  imul edi,[ecx+0x2000000],dword 0xa8070491
         -07A8
000036A7  0000              add [eax],al
000036A9  0001              add [ecx],al
000036AB  69B9000000029108  imul edi,[ecx+0x2000000],dword 0xe7080891
         -08E7
000036B5  0000              add [eax],al
000036B7  0001              add [ecx],al
000036B9  7ACC              jpe 0x3687
000036BB  0000              add [eax],al
000036BD  0009              add [ecx],cl
000036BF  C9                leave
000036C0  A3040802A4        mov [0xa4020804],eax
000036C5  0408              add al,0x8
000036C7  0A6900            or ch,[ecx+0x0]
000036CA  017B2C            add [ebx+0x2c],edi
000036CD  0000              add [eax],al
000036CF  005800            add [eax+0x0],bl
000036D2  0000              add [eax],al
000036D4  0000              add [eax],al
000036D6  0B04BF            or eax,[edi+edi*4]
000036D9  0000              add [eax],al
000036DB  000B              add [ebx],cl
000036DD  04C5              add al,0xc5
000036DF  0000              add [eax],al
000036E1  000401            add [ecx+eax],al
000036E4  06                push es
000036E5  8900              mov [eax],eax
000036E7  0000              add [eax],al
000036E9  0C2C              or al,0x2c
000036EB  0000              add [eax],al
000036ED  000DF2000000      add [0xf2],cl
000036F3  DC00              fadd qword [eax]
000036F5  0000              add [eax],al
000036F7  0E                push cs
000036F8  000F              add [edi],cl
000036FA  01F2              add edx,esi
000036FC  0000              add [eax],al
000036FE  0010              add [eax],dl
00003700  2500000010        and eax,0x10000000
00003705  B900000010        mov ecx,0x10000000
0000370A  B900000000        mov ecx,0x0
0000370F  0B04DC            or eax,[esp+ebx*8]
00003712  0000              add [eax],al
00003714  0011              add [ecx],dl
00003716  D400              aam 0x0
00003718  0000              add [eax],al
0000371A  013B              add [ebx],edi
0000371C  D100              rol dword [eax],1
0000371E  0000              add [eax],al
00003720  0101              add [ecx],eax
00003722  11EC              adc esp,ebp
00003724  0000              add [eax],al
00003726  0001              add [ecx],al
00003728  3DD1000000        cmp eax,0xd1
0000372D  0101              add [ecx],eax
0000372F  0001              add [ecx],al
00003731  1100              adc [eax],eax
00003733  1006              adc [esi],al
00003735  1101              adc [ecx],eax
00003737  1201              adc al,[ecx]
00003739  0308              add ecx,[eax]
0000373B  1B08              sbb ecx,[eax]
0000373D  2508130500        and eax,0x51308
00003742  0000              add [eax],al
00003744  0111              add [ecx],edx
00003746  01250E130B03      add [0x30b130e],esp
0000374C  0E                push cs
0000374D  1B0E              sbb ecx,[esi]
0000374F  1101              adc [ecx],eax
00003751  1201              adc al,[ecx]
00003753  1006              adc [esi],al
00003755  0000              add [eax],al
00003757  022400            add ah,[eax+eax]
0000375A  0B0B              or ecx,[ebx]
0000375C  3E0B03            or eax,[ds:ebx]
0000375F  0E                push cs
00003760  0000              add [eax],al
00003762  032400            add esp,[eax+eax]
00003765  0B0B              or ecx,[ebx]
00003767  3E0B03            or eax,[ds:ebx]
0000376A  0800              or [eax],al
0000376C  000424            add [esp],al
0000376F  000B              add [ebx],cl
00003771  0B3E              or edi,[esi]
00003773  0B00              or eax,[eax]
00003775  00053400030E      add [0xe030034],al
0000377B  3A0B              cmp cl,[ebx]
0000377D  3B0B              cmp ecx,[ebx]
0000377F  49                dec ecx
00003780  133F              adc edi,[edi]
00003782  0C02              or al,0x2
00003784  0A00              or al,[eax]
00003786  0006              add [esi],al
00003788  26004913          add [es:ecx+0x13],cl
0000378C  0000              add [eax],al
0000378E  0001              add [ecx],al
00003790  1101              adc [ecx],eax
00003792  250E130B03        and eax,0x30b130e
00003797  0E                push cs
00003798  1B0E              sbb ecx,[esi]
0000379A  1101              adc [ecx],eax
0000379C  1201              adc al,[ecx]
0000379E  1006              adc [esi],al
000037A0  0000              add [eax],al
000037A2  022400            add ah,[eax+eax]
000037A5  0B0B              or ecx,[ebx]
000037A7  3E0B03            or eax,[ds:ebx]
000037AA  0800              or [eax],al
000037AC  0003              add [ebx],al
000037AE  16                push ss
000037AF  0003              add [ebx],al
000037B1  0E                push cs
000037B2  3A0B              cmp cl,[ebx]
000037B4  3B0B              cmp ecx,[ebx]
000037B6  49                dec ecx
000037B7  1300              adc eax,[eax]
000037B9  000424            add [esp],al
000037BC  000B              add [ebx],cl
000037BE  0B3E              or edi,[esi]
000037C0  0B03              or eax,[ebx]
000037C2  0E                push cs
000037C3  0000              add [eax],al
000037C5  052E003F0C        add eax,0xc3f002e
000037CA  030E              add ecx,[esi]
000037CC  3A0B              cmp cl,[ebx]
000037CE  3B0B              cmp ecx,[ebx]
000037D0  27                daa
000037D1  0C11              or al,0x11
000037D3  0112              add [edx],edx
000037D5  014006            add [eax+0x6],eax
000037D8  0000              add [eax],al
000037DA  06                push es
000037DB  2E013F            add [cs:edi],edi
000037DE  0C03              or al,0x3
000037E0  0E                push cs
000037E1  3A0B              cmp cl,[ebx]
000037E3  3B0B              cmp ecx,[ebx]
000037E5  27                daa
000037E6  0C11              or al,0x11
000037E8  0112              add [edx],edx
000037EA  014006            add [eax+0x6],eax
000037ED  0113              add [ebx],edx
000037EF  0000              add [eax],al
000037F1  07                pop es
000037F2  0500030E3A        add eax,0x3a0e0300
000037F7  0B3B              or edi,[ebx]
000037F9  0B4913            or ecx,[ecx+0x13]
000037FC  020A              add cl,[edx]
000037FE  0000              add [eax],al
00003800  083400            or [eax+eax],dh
00003803  030E              add ecx,[esi]
00003805  3A0B              cmp cl,[ebx]
00003807  3B0B              cmp ecx,[ebx]
00003809  49                dec ecx
0000380A  1300              adc eax,[eax]
0000380C  0009              add [ecx],cl
0000380E  0B01              or eax,[ecx]
00003810  1101              adc [ecx],eax
00003812  1201              adc al,[ecx]
00003814  0000              add [eax],al
00003816  0A3400            or dh,[eax+eax]
00003819  0308              add ecx,[eax]
0000381B  3A0B              cmp cl,[ebx]
0000381D  3B0B              cmp ecx,[ebx]
0000381F  49                dec ecx
00003820  1302              adc eax,[edx]
00003822  06                push es
00003823  0000              add [eax],al
00003825  0B0F              or ecx,[edi]
00003827  000B              add [ebx],cl
00003829  0B4913            or ecx,[ecx+0x13]
0000382C  0000              add [eax],al
0000382E  0C26              or al,0x26
00003830  004913            add [ecx+0x13],cl
00003833  0000              add [eax],al
00003835  0D01014913        or eax,0x13490101
0000383A  0113              add [ebx],edx
0000383C  0000              add [eax],al
0000383E  0E                push cs
0000383F  2100              and [eax],eax
00003841  0000              add [eax],al
00003843  0F1501            unpckhps xmm0,[ecx]
00003846  27                daa
00003847  0C01              or al,0x1
00003849  1300              adc eax,[eax]
0000384B  0010              add [eax],dl
0000384D  0500491300        add eax,0x134900
00003852  0011              add [ecx],dl
00003854  3400              xor al,0x0
00003856  030E              add ecx,[esi]
00003858  3A0B              cmp cl,[ebx]
0000385A  3B0B              cmp ecx,[ebx]
0000385C  49                dec ecx
0000385D  133F              adc edi,[edi]
0000385F  0C3C              or al,0x3c
00003861  0C00              or al,0x0
00003863  0000              add [eax],al
00003865  57                push edi
00003866  0000              add [eax],al
00003868  0002              add [edx],al
0000386A  0032              add [edx],dh
0000386C  0000              add [eax],al
0000386E  0001              add [ecx],al
00003870  01FB              add ebx,edi
00003872  0E                push cs
00003873  0D00010101        or eax,0x1010100
00003878  0100              add [eax],eax
0000387A  0000              add [eax],al
0000387C  0100              add [eax],eax
0000387E  0001              add [ecx],al
00003880  2E2E2F            cs das
00003883  7379              jnc 0x38fe
00003885  7364              jnc 0x38eb
00003887  657073            gs jo 0x38fd
0000388A  2F                das
0000388B  693338362F65      imul esi,[ebx],dword 0x652f3638
00003891  6C                insb
00003892  660000            o16 add [eax],al
00003895  7374              jnc 0x390b
00003897  61                popa
00003898  7274              jc 0x390e
0000389A  2E53              cs push ebx
0000389C  0001              add [ecx],al
0000389E  0000              add [eax],al
000038A0  0000              add [eax],al
000038A2  0502208804        add eax,0x4882002
000038A7  0803              or [ebx],al
000038A9  C00001            rol byte [eax],0x1
000038AC  3321              xor esp,[ecx]
000038AE  343D              xor al,0x3d
000038B0  2522031820        and eax,0x20180322
000038B5  59                pop ecx
000038B6  5A                pop edx
000038B7  2122              and [edx],esp
000038B9  5C                pop esp
000038BA  5B                pop ebx
000038BB  0201              add al,[ecx]
000038BD  0001              add [ecx],al
000038BF  0123              add [ebx],esp
000038C1  0000              add [eax],al
000038C3  0002              add [edx],al
000038C5  001D00000001      add [0x1000000],bl
000038CB  01FB              add ebx,edi
000038CD  0E                push cs
000038CE  0D00010101        or eax,0x1010100
000038D3  0100              add [eax],eax
000038D5  0000              add [eax],al
000038D7  0100              add [eax],eax
000038D9  0001              add [ecx],al
000038DB  00696E            add [ecx+0x6e],ch
000038DE  69742E6300000000  imul esi,[esi+ebp+0x63],dword 0x0
000038E6  007B00            add [ebx+0x0],bh
000038E9  0000              add [eax],al
000038EB  0200              add al,[eax]
000038ED  57                push edi
000038EE  0000              add [eax],al
000038F0  0001              add [ecx],al
000038F2  01FB              add ebx,edi
000038F4  0E                push cs
000038F5  0D00010101        or eax,0x1010100
000038FA  0100              add [eax],eax
000038FC  0000              add [eax],al
000038FE  0100              add [eax],eax
00003900  0001              add [ecx],al
00003902  2F                das
00003903  7573              jnz 0x3978
00003905  722F              jc 0x3936
00003907  6C                insb
00003908  69622F6763632F    imul esp,[edx+0x2f],dword 0x2f636367
0000390F  693438362D6C69    imul esi,[eax+edi],dword 0x696c2d36
00003916  6E                outsb
00003917  7578              jnz 0x3991
00003919  2D676E752F        sub eax,0x2f756e67
0000391E  342E              xor al,0x2e
00003920  342E              xor al,0x2e
00003922  332F              xor ebp,[edi]
00003924  696E636C756465    imul ebp,[esi+0x63],dword 0x6564756c
0000392B  0000              add [eax],al
0000392D  656C              gs insb
0000392F  662D696E          sub ax,0x6e69
00003933  69742E6300000000  imul esi,[esi+ebp+0x63],dword 0x0
0000393B  7374              jnc 0x39b1
0000393D  646465662E680001  cs push word 0x100
00003945  0000              add [eax],al
00003947  0000              add [eax],al
00003949  0502A0A304        add eax,0x4a3a002
0000394E  0803              or [ebx],al
00003950  830101            add dword [ecx],byte +0x1
00003953  44                inc esp
00003954  035EC8            add ebx,[esi-0x38]
00003957  030E              add ecx,[esi]
00003959  083C5B            or [ebx+ebx*2],bh
0000395C  086708            or [edi+0x8],ah
0000395F  9D                popf
00003960  7602              jna 0x3964
00003962  0800              or [eax],al
00003964  0101              add [ecx],eax
00003966  0000              add [eax],al
00003968  1000              adc [eax],al
0000396A  0000              add [eax],al
0000396C  FF                db 0xFF
0000396D  FF                db 0xFF
0000396E  FF                db 0xFF
0000396F  FF01              inc dword [ecx]
00003971  0001              add [ecx],al
00003973  7C08              jl 0x397d
00003975  0C04              or al,0x4
00003977  0488              add al,0x88
00003979  0100              add [eax],eax
0000397B  001400            add [eax+eax],dl
0000397E  0000              add [eax],al
00003980  0000              add [eax],al
00003982  0000              add [eax],al
00003984  A0A3040805        mov al,[0x50804a3]
00003989  0000              add [eax],al
0000398B  00410E            add [ecx+0xe],al
0000398E  084285            or [edx-0x7b],al
00003991  020D051C0000      add cl,[0x1c05]
00003997  0000              add [eax],al
00003999  0000              add [eax],al
0000399B  00B0A304085A      add [eax+0x5a0804a3],dh
000039A1  0000              add [eax],al
000039A3  00410E            add [ecx+0xe],al
000039A6  084285            or [edx-0x7b],al
000039A9  020D054E8305      add cl,[0x5834e05]
000039AF  860487            xchg al,[edi+eax*4]
000039B2  0300              add eax,[eax]
000039B4  7368              jnc 0x3a1e
000039B6  6F                outsd
000039B7  7274              jc 0x3a2d
000039B9  20756E            and [ebp+0x6e],dh
000039BC  7369              jnc 0x3a27
000039BE  676E              a16 outsb
000039C0  656420696E        and [fs:ecx+0x6e],ch
000039C5  7400              jz 0x39c7
000039C7  7368              jnc 0x3a31
000039C9  6F                outsd
000039CA  7274              jc 0x3a40
000039CC  20696E            and [ecx+0x6e],ch
000039CF  7400              jz 0x39d1
000039D1  5F                pop edi
000039D2  49                dec ecx
000039D3  4F                dec edi
000039D4  5F                pop edi
000039D5  7374              jnc 0x3a4b
000039D7  64696E5F75736564  imul ebp,[fs:esi+0x5f],dword 0x64657375
000039DF  006C6F6E          add [edi+ebp*2+0x6e],ch
000039E3  67206C6F          and [si+0x6f],ch
000039E7  6E                outsb
000039E8  6720756E          and [di+0x6e],dh
000039EC  7369              jnc 0x3a57
000039EE  676E              a16 outsb
000039F0  656420696E        and [fs:ecx+0x6e],ch
000039F5  7400              jz 0x39f7
000039F7  2F                das
000039F8  686F6D652F        push dword 0x2f656d6f
000039FD  7069              jo 0x3a68
000039FF  657272            gs jc 0x3a74
00003A02  652F              gs das
00003A04  42                inc edx
00003A05  7572              jnz 0x3a79
00003A07  6561              gs popa
00003A09  752F              jnz 0x3a3a
00003A0B  6865616465        push dword 0x65646165
00003A10  7273              jc 0x3a85
00003A12  2D676C6962        sub eax,0x62696c67
00003A17  632D666F722D      arpl [0x2d726f66],bp
00003A1D  6C                insb
00003A1E  696E75782F676C    imul ebp,[esi+0x75],dword 0x6c672f78
00003A25  6962632D322E31    imul esp,[edx+0x63],dword 0x312e322d
00003A2C  322E              xor ch,[esi]
00003A2E  322F              xor ch,[edi]
00003A30  637375            arpl [ebx+0x75],si
00003A33  00756E            add [ebp+0x6e],dh
00003A36  7369              jnc 0x3aa1
00003A38  676E              a16 outsb
00003A3A  6564206368        and [fs:ebx+0x68],ah
00003A3F  61                popa
00003A40  7200              jc 0x3a42
00003A42  47                inc edi
00003A43  4E                dec esi
00003A44  55                push ebp
00003A45  204320            and [ebx+0x20],al
00003A48  342E              xor al,0x2e
00003A4A  342E              xor al,0x2e
00003A4C  3300              xor eax,[eax]
00003A4E  6C                insb
00003A4F  6F                outsd
00003A50  6E                outsb
00003A51  67206C6F          and [si+0x6f],ch
00003A55  6E                outsb
00003A56  6720696E          and [bx+di+0x6e],ch
00003A5A  7400              jz 0x3a5c
00003A5C  656E              gs outsb
00003A5E  7670              jna 0x3ad0
00003A60  007369            add [ebx+0x69],dh
00003A63  7A65              jpe 0x3aca
00003A65  5F                pop edi
00003A66  7400              jz 0x3a68
00003A68  61                popa
00003A69  7267              jc 0x3ad2
00003A6B  6300              arpl [eax],ax
00003A6D  5F                pop edi
00003A6E  5F                pop edi
00003A6F  6C                insb
00003A70  6962635F637375    imul esp,[edx+0x63],dword 0x7573635f
00003A77  5F                pop edi
00003A78  696E697400656C    imul ebp,[esi+0x69],dword 0x6c650074
00003A7F  662D696E          sub ax,0x6e69
00003A83  69742E63005F5F69  imul esi,[esi+ebp+0x63],dword 0x695f5f00
00003A8B  6E                outsb
00003A8C  69745F6172726179  imul esi,[edi+ebx*2+0x61],dword 0x79617272
00003A94  5F                pop edi
00003A95  7374              jnc 0x3b0b
00003A97  61                popa
00003A98  7274              jc 0x3b0e
00003A9A  007369            add [ebx+0x69],dh
00003A9D  7A65              jpe 0x3b04
00003A9F  005F5F            add [edi+0x5f],bl
00003AA2  696E69745F6172    imul ebp,[esi+0x69],dword 0x72615f74
00003AA9  7261              jc 0x3b0c
00003AAB  795F              jns 0x3b0c
00003AAD  656E              gs outsb
00003AAF  64005F5F          add [fs:edi+0x5f],bl
00003AB3  6C                insb
00003AB4  6962635F637375    imul esp,[edx+0x63],dword 0x7573635f
00003ABB  5F                pop edi
00003ABC  66696E690061      imul bp,[esi+0x69],word 0x6100
00003AC2  7267              jc 0x3b2b
00003AC4  7600              jna 0x3ac6
00003AC6  0000              add [eax],al
00003AC8  0000              add [eax],al
00003ACA  0100              add [eax],eax
00003ACC  0000              add [eax],al
00003ACE  0200              add al,[eax]
00003AD0  7404              jz 0x3ad6
00003AD2  0100              add [eax],eax
00003AD4  0000              add [eax],al
00003AD6  0300              add eax,[eax]
00003AD8  0000              add [eax],al
00003ADA  0200              add al,[eax]
00003ADC  7408              jz 0x3ae6
00003ADE  0300              add eax,[eax]
00003AE0  0000              add [eax],al
00003AE2  0500000002        add eax,0x2000000
00003AE7  007508            add [ebp+0x8],dh
00003AEA  0000              add [eax],al
00003AEC  0000              add [eax],al
00003AEE  0000              add [eax],al
00003AF0  0000              add [eax],al
00003AF2  1000              adc [eax],al
00003AF4  0000              add [eax],al
00003AF6  1100              adc [eax],eax
00003AF8  0000              add [eax],al
00003AFA  0200              add al,[eax]
00003AFC  7404              jz 0x3b02
00003AFE  1100              adc [eax],eax
00003B00  0000              add [eax],al
00003B02  1300              adc eax,[eax]
00003B04  0000              add [eax],al
00003B06  0200              add al,[eax]
00003B08  7408              jz 0x3b12
00003B0A  1300              adc eax,[eax]
00003B0C  0000              add [eax],al
00003B0E  6A00              push byte +0x0
00003B10  0000              add [eax],al
00003B12  0200              add al,[eax]
00003B14  7508              jnz 0x3b1e
00003B16  0000              add [eax],al
00003B18  0000              add [eax],al
00003B1A  0000              add [eax],al
00003B1C  0000              add [eax],al
00003B1E  40                inc eax
00003B1F  0000              add [eax],al
00003B21  006700            add [edi+0x0],ah
00003B24  0000              add [eax],al
00003B26  0100              add [eax],eax
00003B28  56                push esi
00003B29  0000              add [eax],al
00003B2B  0000              add [eax],al
00003B2D  0000              add [eax],al
00003B2F  0000              add [eax],al
00003B31  002E              add [esi],ch
00003B33  7379              jnc 0x3bae
00003B35  6D                insd
00003B36  7461              jz 0x3b99
00003B38  6200              bound eax,[eax]
00003B3A  2E7374            cs jnc 0x3bb1
00003B3D  7274              jc 0x3bb3
00003B3F  61                popa
00003B40  6200              bound eax,[eax]
00003B42  2E7368            cs jnc 0x3bad
00003B45  7374              jnc 0x3bbb
00003B47  7274              jc 0x3bbd
00003B49  61                popa
00003B4A  6200              bound eax,[eax]
00003B4C  2E696E7465727000  imul ebp,[cs:esi+0x74],dword 0x707265
00003B54  2E6E              cs outsb
00003B56  6F                outsd
00003B57  7465              jz 0x3bbe
00003B59  2E41              cs inc ecx
00003B5B  42                inc edx
00003B5C  49                dec ecx
00003B5D  2D74616700        sub eax,0x676174
00003B62  2E6861736800      cs push dword 0x687361
00003B68  2E64796E          fs jns 0x3bda
00003B6C  7379              jnc 0x3be7
00003B6E  6D                insd
00003B6F  002E              add [esi],ch
00003B71  64796E            fs jns 0x3be2
00003B74  7374              jnc 0x3bea
00003B76  7200              jc 0x3b78
00003B78  2E676E            cs a16 outsb
00003B7B  752E              jnz 0x3bab
00003B7D  7665              jna 0x3be4
00003B7F  7273              jc 0x3bf4
00003B81  696F6E002E676E    imul ebp,[edi+0x6e],dword 0x6e672e00
00003B88  752E              jnz 0x3bb8
00003B8A  7665              jna 0x3bf1
00003B8C  7273              jc 0x3c01
00003B8E  696F6E5F72002E    imul ebp,[edi+0x6e],dword 0x2e00725f
00003B95  7265              jc 0x3bfc
00003B97  6C                insb
00003B98  2E64796E          fs jns 0x3c0a
00003B9C  002E              add [esi],ch
00003B9E  7265              jc 0x3c05
00003BA0  6C                insb
00003BA1  2E706C            cs jo 0x3c10
00003BA4  7400              jz 0x3ba6
00003BA6  2E696E6974002E74  imul ebp,[cs:esi+0x69],dword 0x742e0074
00003BAE  657874            gs js 0x3c25
00003BB1  002E              add [esi],ch
00003BB3  66696E69002E      imul bp,[esi+0x69],word 0x2e00
00003BB9  726F              jc 0x3c2a
00003BBB  6461              fs popa
00003BBD  7461              jz 0x3c20
00003BBF  002E              add [esi],ch
00003BC1  65685F667261      gs push dword 0x6172665f
00003BC7  6D                insd
00003BC8  655F              gs pop edi
00003BCA  686472002E        push dword 0x2e007264
00003BCF  65685F667261      gs push dword 0x6172665f
00003BD5  6D                insd
00003BD6  65002E            add [gs:esi],ch
00003BD9  6763635F          arpl [bp+di+0x5f],sp
00003BDD  657863            gs js 0x3c43
00003BE0  657074            gs jo 0x3c57
00003BE3  5F                pop edi
00003BE4  7461              jz 0x3c47
00003BE6  626C6500          bound ebp,[ebp+0x0]
00003BEA  2E63746F72        arpl [cs:edi+ebp*2+0x72],si
00003BEF  7300              jnc 0x3bf1
00003BF1  2E64746F          fs jz 0x3c64
00003BF5  7273              jc 0x3c6a
00003BF7  002E              add [esi],ch
00003BF9  6A63              push byte +0x63
00003BFB  7200              jc 0x3bfd
00003BFD  2E64796E          fs jns 0x3c6f
00003C01  61                popa
00003C02  6D                insd
00003C03  6963002E676F74    imul esp,[ebx+0x0],dword 0x746f672e
00003C0A  002E              add [esi],ch
00003C0C  676F              a16 outsd
00003C0E  742E              jz 0x3c3e
00003C10  706C              jo 0x3c7e
00003C12  7400              jz 0x3c14
00003C14  2E6461            fs popa
00003C17  7461              jz 0x3c7a
00003C19  002E              add [esi],ch
00003C1B  627373            bound esi,[ebx+0x73]
00003C1E  002E              add [esi],ch
00003C20  636F6D            arpl [edi+0x6d],bp
00003C23  6D                insd
00003C24  656E              gs outsb
00003C26  7400              jz 0x3c28
00003C28  2E6465627567      bound esi,[gs:ebp+0x67]
00003C2E  5F                pop edi
00003C2F  61                popa
00003C30  7261              jc 0x3c93
00003C32  6E                outsb
00003C33  67657300          gs a16 jnc 0x3c37
00003C37  2E6465627567      bound esi,[gs:ebp+0x67]
00003C3D  5F                pop edi
00003C3E  7075              jo 0x3cb5
00003C40  626E61            bound ebp,[esi+0x61]
00003C43  6D                insd
00003C44  657300            gs jnc 0x3c47
00003C47  2E6465627567      bound esi,[gs:ebp+0x67]
00003C4D  5F                pop edi
00003C4E  696E666F002E64    imul ebp,[esi+0x66],dword 0x642e006f
00003C55  65627567          bound esi,[gs:ebp+0x67]
00003C59  5F                pop edi
00003C5A  61                popa
00003C5B  626272            bound esp,[edx+0x72]
00003C5E  657600            gs jna 0x3c61
00003C61  2E6465627567      bound esi,[gs:ebp+0x67]
00003C67  5F                pop edi
00003C68  6C                insb
00003C69  696E65002E6465    imul ebp,[esi+0x65],dword 0x65642e00
00003C70  627567            bound esi,[ebp+0x67]
00003C73  5F                pop edi
00003C74  667261            o16 jc 0x3cd8
00003C77  6D                insd
00003C78  65002E            add [gs:esi],ch
00003C7B  6465627567        bound esi,[gs:ebp+0x67]
00003C80  5F                pop edi
00003C81  7374              jnc 0x3cf7
00003C83  7200              jc 0x3c85
00003C85  2E6465627567      bound esi,[gs:ebp+0x67]
00003C8B  5F                pop edi
00003C8C  6C                insb
00003C8D  6F                outsd
00003C8E  6300              arpl [eax],ax
00003C90  0000              add [eax],al
00003C92  0000              add [eax],al
00003C94  0000              add [eax],al
00003C96  0000              add [eax],al
00003C98  0000              add [eax],al
00003C9A  0000              add [eax],al
00003C9C  0000              add [eax],al
00003C9E  0000              add [eax],al
00003CA0  0000              add [eax],al
00003CA2  0000              add [eax],al
00003CA4  0000              add [eax],al
00003CA6  0000              add [eax],al
00003CA8  0000              add [eax],al
00003CAA  0000              add [eax],al
00003CAC  0000              add [eax],al
00003CAE  0000              add [eax],al
00003CB0  0000              add [eax],al
00003CB2  0000              add [eax],al
00003CB4  0000              add [eax],al
00003CB6  0000              add [eax],al
00003CB8  1B00              sbb eax,[eax]
00003CBA  0000              add [eax],al
00003CBC  0100              add [eax],eax
00003CBE  0000              add [eax],al
00003CC0  0200              add al,[eax]
00003CC2  0000              add [eax],al
00003CC4  3481              xor al,0x81
00003CC6  0408              add al,0x8
00003CC8  3401              xor al,0x1
00003CCA  0000              add [eax],al
00003CCC  1300              adc eax,[eax]
00003CCE  0000              add [eax],al
00003CD0  0000              add [eax],al
00003CD2  0000              add [eax],al
00003CD4  0000              add [eax],al
00003CD6  0000              add [eax],al
00003CD8  0100              add [eax],eax
00003CDA  0000              add [eax],al
00003CDC  0000              add [eax],al
00003CDE  0000              add [eax],al
00003CE0  2300              and eax,[eax]
00003CE2  0000              add [eax],al
00003CE4  07                pop es
00003CE5  0000              add [eax],al
00003CE7  0002              add [edx],al
00003CE9  0000              add [eax],al
00003CEB  004881            add [eax-0x7f],cl
00003CEE  0408              add al,0x8
00003CF0  48                dec eax
00003CF1  0100              add [eax],eax
00003CF3  0020              add [eax],ah
00003CF5  0000              add [eax],al
00003CF7  0000              add [eax],al
00003CF9  0000              add [eax],al
00003CFB  0000              add [eax],al
00003CFD  0000              add [eax],al
00003CFF  000400            add [eax+eax],al
00003D02  0000              add [eax],al
00003D04  0000              add [eax],al
00003D06  0000              add [eax],al
00003D08  3100              xor [eax],eax
00003D0A  0000              add [eax],al
00003D0C  0500000002        add eax,0x2000000
00003D11  0000              add [eax],al
00003D13  006881            add [eax-0x7f],ch
00003D16  0408              add al,0x8
00003D18  68010000A8        push dword 0xa8000001
00003D1D  0000              add [eax],al
00003D1F  000400            add [eax+eax],al
00003D22  0000              add [eax],al
00003D24  0000              add [eax],al
00003D26  0000              add [eax],al
00003D28  0400              add al,0x0
00003D2A  0000              add [eax],al
00003D2C  0400              add al,0x0
00003D2E  0000              add [eax],al
00003D30  37                aaa
00003D31  0000              add [eax],al
00003D33  000B              add [ebx],cl
00003D35  0000              add [eax],al
00003D37  0002              add [edx],al
00003D39  0000              add [eax],al
00003D3B  0010              add [eax],dl
00003D3D  82                db 0x82
00003D3E  0408              add al,0x8
00003D40  1002              adc [edx],al
00003D42  0000              add [eax],al
00003D44  7001              jo 0x3d47
00003D46  0000              add [eax],al
00003D48  0500000001        add eax,0x1000000
00003D4D  0000              add [eax],al
00003D4F  000400            add [eax+eax],al
00003D52  0000              add [eax],al
00003D54  1000              adc [eax],al
00003D56  0000              add [eax],al
00003D58  3F                aas
00003D59  0000              add [eax],al
00003D5B  0003              add [ebx],al
00003D5D  0000              add [eax],al
00003D5F  0002              add [edx],al
00003D61  0000              add [eax],al
00003D63  008083040880      add [eax+0x80080483],al
00003D69  0300              add eax,[eax]
00003D6B  001E              add [esi],bl
00003D6D  0200              add al,[eax]
00003D6F  0000              add [eax],al
00003D71  0000              add [eax],al
00003D73  0000              add [eax],al
00003D75  0000              add [eax],al
00003D77  0001              add [ecx],al
00003D79  0000              add [eax],al
00003D7B  0000              add [eax],al
00003D7D  0000              add [eax],al
00003D7F  004700            add [edi+0x0],al
00003D82  0000              add [eax],al
00003D84  FF                db 0xFF
00003D85  FF                db 0xFF
00003D86  FF6F02            jmp far [edi+0x2]
00003D89  0000              add [eax],al
00003D8B  009E8504089E      add [esi+0x9e080485],bl
00003D91  0500002E00        add eax,0x2e0000
00003D96  0000              add [eax],al
00003D98  0400              add al,0x0
00003D9A  0000              add [eax],al
00003D9C  0000              add [eax],al
00003D9E  0000              add [eax],al
00003DA0  0200              add al,[eax]
00003DA2  0000              add [eax],al
00003DA4  0200              add al,[eax]
00003DA6  0000              add [eax],al
00003DA8  54                push esp
00003DA9  0000              add [eax],al
00003DAB  00FE              add dh,bh
00003DAD  FF                db 0xFF
00003DAE  FF6F02            jmp far [edi+0x2]
00003DB1  0000              add [eax],al
00003DB3  00CC              add ah,cl
00003DB5  850408            test [eax+ecx],eax
00003DB8  CC                int3
00003DB9  0500008000        add eax,0x800000
00003DBE  0000              add [eax],al
00003DC0  0500000003        add eax,0x3000000
00003DC5  0000              add [eax],al
00003DC7  000400            add [eax+eax],al
00003DCA  0000              add [eax],al
00003DCC  0000              add [eax],al
00003DCE  0000              add [eax],al
00003DD0  6300              arpl [eax],ax
00003DD2  0000              add [eax],al
00003DD4  0900              or [eax],eax
00003DD6  0000              add [eax],al
00003DD8  0200              add al,[eax]
00003DDA  0000              add [eax],al
00003DDC  4C                dec esp
00003DDD  860408            xchg al,[eax+ecx]
00003DE0  4C                dec esp
00003DE1  06                push es
00003DE2  0000              add [eax],al
00003DE4  2000              and [eax],al
00003DE6  0000              add [eax],al
00003DE8  0400              add al,0x0
00003DEA  0000              add [eax],al
00003DEC  0000              add [eax],al
00003DEE  0000              add [eax],al
00003DF0  0400              add al,0x0
00003DF2  0000              add [eax],al
00003DF4  0800              or [eax],al
00003DF6  0000              add [eax],al
00003DF8  6C                insb
00003DF9  0000              add [eax],al
00003DFB  0009              add [ecx],cl
00003DFD  0000              add [eax],al
00003DFF  0002              add [edx],al
00003E01  0000              add [eax],al
00003E03  006C8604          add [esi+eax*4+0x4],ch
00003E07  086C0600          or [esi+eax+0x0],ch
00003E0B  007800            add [eax+0x0],bh
00003E0E  0000              add [eax],al
00003E10  0400              add al,0x0
00003E12  0000              add [eax],al
00003E14  0B00              or eax,[eax]
00003E16  0000              add [eax],al
00003E18  0400              add al,0x0
00003E1A  0000              add [eax],al
00003E1C  0800              or [eax],al
00003E1E  0000              add [eax],al
00003E20  7500              jnz 0x3e22
00003E22  0000              add [eax],al
00003E24  0100              add [eax],eax
00003E26  0000              add [eax],al
00003E28  06                push es
00003E29  0000              add [eax],al
00003E2B  00E4              add ah,ah
00003E2D  860408            xchg al,[eax+ecx]
00003E30  E406              in al,0x6
00003E32  0000              add [eax],al
00003E34  3000              xor [eax],al
00003E36  0000              add [eax],al
00003E38  0000              add [eax],al
00003E3A  0000              add [eax],al
00003E3C  0000              add [eax],al
00003E3E  0000              add [eax],al
00003E40  0400              add al,0x0
00003E42  0000              add [eax],al
00003E44  0000              add [eax],al
00003E46  0000              add [eax],al
00003E48  7000              jo 0x3e4a
00003E4A  0000              add [eax],al
00003E4C  0100              add [eax],eax
00003E4E  0000              add [eax],al
00003E50  06                push es
00003E51  0000              add [eax],al
00003E53  0020              add [eax],ah
00003E55  870408            xchg eax,[eax+ecx]
00003E58  2007              and [edi],al
00003E5A  0000              add [eax],al
00003E5C  0001              add [ecx],al
00003E5E  0000              add [eax],al
00003E60  0000              add [eax],al
00003E62  0000              add [eax],al
00003E64  0000              add [eax],al
00003E66  0000              add [eax],al
00003E68  1000              adc [eax],al
00003E6A  0000              add [eax],al
00003E6C  0400              add al,0x0
00003E6E  0000              add [eax],al
00003E70  7B00              jpo 0x3e72
00003E72  0000              add [eax],al
00003E74  0100              add [eax],eax
00003E76  0000              add [eax],al
00003E78  06                push es
00003E79  0000              add [eax],al
00003E7B  0020              add [eax],ah
00003E7D  880408            mov [eax+ecx],al
00003E80  2008              and [eax],cl
00003E82  0000              add [eax],al
00003E84  181C00            sbb [eax+eax],bl
00003E87  0000              add [eax],al
00003E89  0000              add [eax],al
00003E8B  0000              add [eax],al
00003E8D  0000              add [eax],al
00003E8F  0010              add [eax],dl
00003E91  0000              add [eax],al
00003E93  0000              add [eax],al
00003E95  0000              add [eax],al
00003E97  008100000001      add [ecx+0x1000000],al
00003E9D  0000              add [eax],al
00003E9F  0006              add [esi],al
00003EA1  0000              add [eax],al
00003EA3  0038              add [eax],bh
00003EA5  A4                movsb
00003EA6  0408              add al,0x8
00003EA8  382400            cmp [eax+eax],ah
00003EAB  001C00            add [eax+eax],bl
00003EAE  0000              add [eax],al
00003EB0  0000              add [eax],al
00003EB2  0000              add [eax],al
00003EB4  0000              add [eax],al
00003EB6  0000              add [eax],al
00003EB8  0400              add al,0x0
00003EBA  0000              add [eax],al
00003EBC  0000              add [eax],al
00003EBE  0000              add [eax],al
00003EC0  8700              xchg eax,[eax]
00003EC2  0000              add [eax],al
00003EC4  0100              add [eax],eax
00003EC6  0000              add [eax],al
00003EC8  0200              add al,[eax]
00003ECA  0000              add [eax],al
00003ECC  54                push esp
00003ECD  A4                movsb
00003ECE  0408              add al,0x8
00003ED0  54                push esp
00003ED1  2400              and al,0x0
00003ED3  003400            add [eax+eax],dh
00003ED6  0000              add [eax],al
00003ED8  0000              add [eax],al
00003EDA  0000              add [eax],al
00003EDC  0000              add [eax],al
00003EDE  0000              add [eax],al
00003EE0  0400              add al,0x0
00003EE2  0000              add [eax],al
00003EE4  0000              add [eax],al
00003EE6  0000              add [eax],al
00003EE8  8F00              pop dword [eax]
00003EEA  0000              add [eax],al
00003EEC  0100              add [eax],eax
00003EEE  0000              add [eax],al
00003EF0  0200              add al,[eax]
00003EF2  0000              add [eax],al
00003EF4  88A40408882400    mov [esp+eax+0x248808],ah
00003EFB  00840200000000    add [edx+eax+0x0],al
00003F02  0000              add [eax],al
00003F04  0000              add [eax],al
00003F06  0000              add [eax],al
00003F08  0400              add al,0x0
00003F0A  0000              add [eax],al
00003F0C  0000              add [eax],al
00003F0E  0000              add [eax],al
00003F10  9D                popf
00003F11  0000              add [eax],al
00003F13  0001              add [ecx],al
00003F15  0000              add [eax],al
00003F17  0002              add [edx],al
00003F19  0000              add [eax],al
00003F1B  000CA7            add [edi],cl
00003F1E  0408              add al,0x8
00003F20  0C27              or al,0x27
00003F22  0000              add [eax],al
00003F24  E80A000000        call 0x3f33
00003F29  0000              add [eax],al
00003F2B  0000              add [eax],al
00003F2D  0000              add [eax],al
00003F2F  000400            add [eax+eax],al
00003F32  0000              add [eax],al
00003F34  0000              add [eax],al
00003F36  0000              add [eax],al
00003F38  A7                cmpsd
00003F39  0000              add [eax],al
00003F3B  0001              add [ecx],al
00003F3D  0000              add [eax],al
00003F3F  0002              add [edx],al
00003F41  0000              add [eax],al
00003F43  00F4              add ah,dh
00003F45  B104              mov cl,0x4
00003F47  08F4              or ah,dh
00003F49  3100              xor [eax],eax
00003F4B  00FB              add bl,bh
00003F4D  0000              add [eax],al
00003F4F  0000              add [eax],al
00003F51  0000              add [eax],al
00003F53  0000              add [eax],al
00003F55  0000              add [eax],al
00003F57  0001              add [ecx],al
00003F59  0000              add [eax],al
00003F5B  0000              add [eax],al
00003F5D  0000              add [eax],al
00003F5F  00B900000001      add [ecx+0x1000000],bh
00003F65  0000              add [eax],al
00003F67  0003              add [ebx],al
00003F69  0000              add [eax],al
00003F6B  00F0              add al,dh
00003F6D  C20408            ret 0x804
00003F70  F03200            lock xor al,[eax]
00003F73  000C00            add [eax+eax],cl
00003F76  0000              add [eax],al
00003F78  0000              add [eax],al
00003F7A  0000              add [eax],al
00003F7C  0000              add [eax],al
00003F7E  0000              add [eax],al
00003F80  0400              add al,0x0
00003F82  0000              add [eax],al
00003F84  0000              add [eax],al
00003F86  0000              add [eax],al
00003F88  C00000            rol byte [eax],0x0
00003F8B  0001              add [ecx],al
00003F8D  0000              add [eax],al
00003F8F  0003              add [ebx],al
00003F91  0000              add [eax],al
00003F93  00FC              add ah,bh
00003F95  C20408            ret 0x804
00003F98  FC                cld
00003F99  3200              xor al,[eax]
00003F9B  0008              add [eax],cl
00003F9D  0000              add [eax],al
00003F9F  0000              add [eax],al
00003FA1  0000              add [eax],al
00003FA3  0000              add [eax],al
00003FA5  0000              add [eax],al
00003FA7  000400            add [eax+eax],al
00003FAA  0000              add [eax],al
00003FAC  0000              add [eax],al
00003FAE  0000              add [eax],al
00003FB0  C70000000100      mov dword [eax],0x10000
00003FB6  0000              add [eax],al
00003FB8  0300              add eax,[eax]
00003FBA  0000              add [eax],al
00003FBC  04C3              add al,0xc3
00003FBE  0408              add al,0x8
00003FC0  0433              add al,0x33
00003FC2  0000              add [eax],al
00003FC4  0400              add al,0x0
00003FC6  0000              add [eax],al
00003FC8  0000              add [eax],al
00003FCA  0000              add [eax],al
00003FCC  0000              add [eax],al
00003FCE  0000              add [eax],al
00003FD0  0400              add al,0x0
00003FD2  0000              add [eax],al
00003FD4  0000              add [eax],al
00003FD6  0000              add [eax],al
00003FD8  CC                int3
00003FD9  0000              add [eax],al
00003FDB  0006              add [esi],al
00003FDD  0000              add [eax],al
00003FDF  0003              add [ebx],al
00003FE1  0000              add [eax],al
00003FE3  0008              add [eax],cl
00003FE5  C3                ret
00003FE6  0408              add al,0x8
00003FE8  0833              or [ebx],dh
00003FEA  0000              add [eax],al
00003FEC  E000              loopne 0x3fee
00003FEE  0000              add [eax],al
00003FF0  0500000000        add eax,0x0
00003FF5  0000              add [eax],al
00003FF7  000400            add [eax+eax],al
00003FFA  0000              add [eax],al
00003FFC  0800              or [eax],al
00003FFE  0000              add [eax],al
00004000  D500              aad 0x0
00004002  0000              add [eax],al
00004004  0100              add [eax],eax
00004006  0000              add [eax],al
00004008  0300              add eax,[eax]
0000400A  0000              add [eax],al
0000400C  E8C30408E8        call 0xe80844d4
00004011  3300              xor eax,[eax]
00004013  000400            add [eax+eax],al
00004016  0000              add [eax],al
00004018  0000              add [eax],al
0000401A  0000              add [eax],al
0000401C  0000              add [eax],al
0000401E  0000              add [eax],al
00004020  0400              add al,0x0
00004022  0000              add [eax],al
00004024  0400              add al,0x0
00004026  0000              add [eax],al
00004028  DA00              fiadd dword [eax]
0000402A  0000              add [eax],al
0000402C  0100              add [eax],eax
0000402E  0000              add [eax],al
00004030  0300              add eax,[eax]
00004032  0000              add [eax],al
00004034  EC                in al,dx
00004035  C3                ret
00004036  0408              add al,0x8
00004038  EC                in al,dx
00004039  3300              xor eax,[eax]
0000403B  004800            add [eax+0x0],cl
0000403E  0000              add [eax],al
00004040  0000              add [eax],al
00004042  0000              add [eax],al
00004044  0000              add [eax],al
00004046  0000              add [eax],al
00004048  0400              add al,0x0
0000404A  0000              add [eax],al
0000404C  0400              add al,0x0
0000404E  0000              add [eax],al
00004050  E300              jecxz 0x4052
00004052  0000              add [eax],al
00004054  0100              add [eax],eax
00004056  0000              add [eax],al
00004058  0300              add eax,[eax]
0000405A  0000              add [eax],al
0000405C  34C4              xor al,0xc4
0000405E  0408              add al,0x8
00004060  3434              xor al,0x34
00004062  0000              add [eax],al
00004064  0800              or [eax],al
00004066  0000              add [eax],al
00004068  0000              add [eax],al
0000406A  0000              add [eax],al
0000406C  0000              add [eax],al
0000406E  0000              add [eax],al
00004070  0400              add al,0x0
00004072  0000              add [eax],al
00004074  0000              add [eax],al
00004076  0000              add [eax],al
00004078  E900000008        jmp 0x800407d
0000407D  0000              add [eax],al
0000407F  0003              add [ebx],al
00004081  0000              add [eax],al
00004083  0040C4            add [eax-0x3c],al
00004086  0408              add al,0x8
00004088  3C34              cmp al,0x34
0000408A  0000              add [eax],al
0000408C  D801              fadd dword [ecx]
0000408E  0000              add [eax],al
00004090  0000              add [eax],al
00004092  0000              add [eax],al
00004094  0000              add [eax],al
00004096  0000              add [eax],al
00004098  2000              and [eax],al
0000409A  0000              add [eax],al
0000409C  0000              add [eax],al
0000409E  0000              add [eax],al
000040A0  EE                out dx,al
000040A1  0000              add [eax],al
000040A3  0001              add [ecx],al
000040A5  0000              add [eax],al
000040A7  0030              add [eax],dh
000040A9  0000              add [eax],al
000040AB  0000              add [eax],al
000040AD  0000              add [eax],al
000040AF  003C34            add [esp+esi],bh
000040B2  0000              add [eax],al
000040B4  3400              xor al,0x0
000040B6  0000              add [eax],al
000040B8  0000              add [eax],al
000040BA  0000              add [eax],al
000040BC  0000              add [eax],al
000040BE  0000              add [eax],al
000040C0  0100              add [eax],eax
000040C2  0000              add [eax],al
000040C4  0100              add [eax],eax
000040C6  0000              add [eax],al
000040C8  F70000000100      test dword [eax],0x10000
000040CE  0000              add [eax],al
000040D0  0000              add [eax],al
000040D2  0000              add [eax],al
000040D4  0000              add [eax],al
000040D6  0000              add [eax],al
000040D8  7034              jo 0x410e
000040DA  0000              add [eax],al
000040DC  40                inc eax
000040DD  0000              add [eax],al
000040DF  0000              add [eax],al
000040E1  0000              add [eax],al
000040E3  0000              add [eax],al
000040E5  0000              add [eax],al
000040E7  0008              add [eax],cl
000040E9  0000              add [eax],al
000040EB  0000              add [eax],al
000040ED  0000              add [eax],al
000040EF  0006              add [esi],al
000040F1  0100              add [eax],eax
000040F3  0001              add [ecx],al
000040F5  0000              add [eax],al
000040F7  0000              add [eax],al
000040F9  0000              add [eax],al
000040FB  0000              add [eax],al
000040FD  0000              add [eax],al
000040FF  00B03400005F      add [eax+0x5f000034],dh
00004105  0000              add [eax],al
00004107  0000              add [eax],al
00004109  0000              add [eax],al
0000410B  0000              add [eax],al
0000410D  0000              add [eax],al
0000410F  0001              add [ecx],al
00004111  0000              add [eax],al
00004113  0000              add [eax],al
00004115  0000              add [eax],al
00004117  0016              add [esi],dl
00004119  0100              add [eax],eax
0000411B  0001              add [ecx],al
0000411D  0000              add [eax],al
0000411F  0000              add [eax],al
00004121  0000              add [eax],al
00004123  0000              add [eax],al
00004125  0000              add [eax],al
00004127  000F              add [edi],cl
00004129  3500002102        xor eax,0x2210000
0000412E  0000              add [eax],al
00004130  0000              add [eax],al
00004132  0000              add [eax],al
00004134  0000              add [eax],al
00004136  0000              add [eax],al
00004138  0100              add [eax],eax
0000413A  0000              add [eax],al
0000413C  0000              add [eax],al
0000413E  0000              add [eax],al
00004140  2201              and al,[ecx]
00004142  0000              add [eax],al
00004144  0100              add [eax],eax
00004146  0000              add [eax],al
00004148  0000              add [eax],al
0000414A  0000              add [eax],al
0000414C  0000              add [eax],al
0000414E  0000              add [eax],al
00004150  3037              xor [edi],dh
00004152  0000              add [eax],al
00004154  3501000000        xor eax,0x1
00004159  0000              add [eax],al
0000415B  0000              add [eax],al
0000415D  0000              add [eax],al
0000415F  0001              add [ecx],al
00004161  0000              add [eax],al
00004163  0000              add [eax],al
00004165  0000              add [eax],al
00004167  0030              add [eax],dh
00004169  0100              add [eax],eax
0000416B  0001              add [ecx],al
0000416D  0000              add [eax],al
0000416F  0000              add [eax],al
00004171  0000              add [eax],al
00004173  0000              add [eax],al
00004175  0000              add [eax],al
00004177  006538            add [ebp+0x38],ah
0000417A  0000              add [eax],al
0000417C  0101              add [ecx],eax
0000417E  0000              add [eax],al
00004180  0000              add [eax],al
00004182  0000              add [eax],al
00004184  0000              add [eax],al
00004186  0000              add [eax],al
00004188  0100              add [eax],eax
0000418A  0000              add [eax],al
0000418C  0000              add [eax],al
0000418E  0000              add [eax],al
00004190  3C01              cmp al,0x1
00004192  0000              add [eax],al
00004194  0100              add [eax],eax
00004196  0000              add [eax],al
00004198  0000              add [eax],al
0000419A  0000              add [eax],al
0000419C  0000              add [eax],al
0000419E  0000              add [eax],al
000041A0  683900004C        push dword 0x4c000039
000041A5  0000              add [eax],al
000041A7  0000              add [eax],al
000041A9  0000              add [eax],al
000041AB  0000              add [eax],al
000041AD  0000              add [eax],al
000041AF  000400            add [eax+eax],al
000041B2  0000              add [eax],al
000041B4  0000              add [eax],al
000041B6  0000              add [eax],al
000041B8  49                dec ecx
000041B9  0100              add [eax],eax
000041BB  0001              add [ecx],al
000041BD  0000              add [eax],al
000041BF  0030              add [eax],dh
000041C1  0000              add [eax],al
000041C3  0000              add [eax],al
000041C5  0000              add [eax],al
000041C7  00B43900001201    add [ecx+edi+0x1120000],dh
000041CE  0000              add [eax],al
000041D0  0000              add [eax],al
000041D2  0000              add [eax],al
000041D4  0000              add [eax],al
000041D6  0000              add [eax],al
000041D8  0100              add [eax],eax
000041DA  0000              add [eax],al
000041DC  0100              add [eax],eax
000041DE  0000              add [eax],al
000041E0  54                push esp
000041E1  0100              add [eax],eax
000041E3  0001              add [ecx],al
000041E5  0000              add [eax],al
000041E7  0000              add [eax],al
000041E9  0000              add [eax],al
000041EB  0000              add [eax],al
000041ED  0000              add [eax],al
000041EF  00C6              add dh,al
000041F1  3A00              cmp al,[eax]
000041F3  006B00            add [ebx+0x0],ch
000041F6  0000              add [eax],al
000041F8  0000              add [eax],al
000041FA  0000              add [eax],al
000041FC  0000              add [eax],al
000041FE  0000              add [eax],al
00004200  0100              add [eax],eax
00004202  0000              add [eax],al
00004204  0000              add [eax],al
00004206  0000              add [eax],al
00004208  1100              adc [eax],eax
0000420A  0000              add [eax],al
0000420C  0300              add eax,[eax]
0000420E  0000              add [eax],al
00004210  0000              add [eax],al
00004212  0000              add [eax],al
00004214  0000              add [eax],al
00004216  0000              add [eax],al
00004218  313B              xor [ebx],edi
0000421A  0000              add [eax],al
0000421C  5F                pop edi
0000421D  0100              add [eax],eax
0000421F  0000              add [eax],al
00004221  0000              add [eax],al
00004223  0000              add [eax],al
00004225  0000              add [eax],al
00004227  0001              add [ecx],al
00004229  0000              add [eax],al
0000422B  0000              add [eax],al
0000422D  0000              add [eax],al
0000422F  0001              add [ecx],al
00004231  0000              add [eax],al
00004233  0002              add [edx],al
00004235  0000              add [eax],al
00004237  0000              add [eax],al
00004239  0000              add [eax],al
0000423B  0000              add [eax],al
0000423D  0000              add [eax],al
0000423F  008042000000      add [eax+0x42],al
00004245  0C00              or al,0x0
00004247  002500000040      add [0x40000000],ah
0000424D  0000              add [eax],al
0000424F  000400            add [eax+eax],al
00004252  0000              add [eax],al
00004254  1000              adc [eax],al
00004256  0000              add [eax],al
00004258  0900              or [eax],eax
0000425A  0000              add [eax],al
0000425C  0300              add eax,[eax]
0000425E  0000              add [eax],al
00004260  0000              add [eax],al
00004262  0000              add [eax],al
00004264  0000              add [eax],al
00004266  0000              add [eax],al
00004268  804E0000          or byte [esi+0x0],0x0
0000426C  B31B              mov bl,0x1b
0000426E  0000              add [eax],al
00004270  0000              add [eax],al
00004272  0000              add [eax],al
00004274  0000              add [eax],al
00004276  0000              add [eax],al
00004278  0100              add [eax],eax
0000427A  0000              add [eax],al
0000427C  0000              add [eax],al
0000427E  0000              add [eax],al
00004280  0000              add [eax],al
00004282  0000              add [eax],al
00004284  0000              add [eax],al
00004286  0000              add [eax],al
00004288  0000              add [eax],al
0000428A  0000              add [eax],al
0000428C  0000              add [eax],al
0000428E  0000              add [eax],al
00004290  0000              add [eax],al
00004292  0000              add [eax],al
00004294  3481              xor al,0x81
00004296  0408              add al,0x8
00004298  0000              add [eax],al
0000429A  0000              add [eax],al
0000429C  0300              add eax,[eax]
0000429E  0100              add [eax],eax
000042A0  0000              add [eax],al
000042A2  0000              add [eax],al
000042A4  48                dec eax
000042A5  81040800000000    add dword [eax+ecx],0x0
000042AC  0300              add eax,[eax]
000042AE  0200              add al,[eax]
000042B0  0000              add [eax],al
000042B2  0000              add [eax],al
000042B4  6881040800        push dword 0x80481
000042B9  0000              add [eax],al
000042BB  0003              add [ebx],al
000042BD  0003              add [ebx],al
000042BF  0000              add [eax],al
000042C1  0000              add [eax],al
000042C3  0010              add [eax],dl
000042C5  82                db 0x82
000042C6  0408              add al,0x8
000042C8  0000              add [eax],al
000042CA  0000              add [eax],al
000042CC  0300              add eax,[eax]
000042CE  0400              add al,0x0
000042D0  0000              add [eax],al
000042D2  0000              add [eax],al
000042D4  80830408000000    add byte [ebx+0x804],0x0
000042DB  0003              add [ebx],al
000042DD  000500000000      add [0x0],al
000042E3  009E85040800      add [esi+0x80485],bl
000042E9  0000              add [eax],al
000042EB  0003              add [ebx],al
000042ED  0006              add [esi],al
000042EF  0000              add [eax],al
000042F1  0000              add [eax],al
000042F3  00CC              add ah,cl
000042F5  850408            test [eax+ecx],eax
000042F8  0000              add [eax],al
000042FA  0000              add [eax],al
000042FC  0300              add eax,[eax]
000042FE  07                pop es
000042FF  0000              add [eax],al
00004301  0000              add [eax],al
00004303  004C8604          add [esi+eax*4+0x4],cl
00004307  0800              or [eax],al
00004309  0000              add [eax],al
0000430B  0003              add [ebx],al
0000430D  0008              add [eax],cl
0000430F  0000              add [eax],al
00004311  0000              add [eax],al
00004313  006C8604          add [esi+eax*4+0x4],ch
00004317  0800              or [eax],al
00004319  0000              add [eax],al
0000431B  0003              add [ebx],al
0000431D  0009              add [ecx],cl
0000431F  0000              add [eax],al
00004321  0000              add [eax],al
00004323  00E4              add ah,ah
00004325  860408            xchg al,[eax+ecx]
00004328  0000              add [eax],al
0000432A  0000              add [eax],al
0000432C  0300              add eax,[eax]
0000432E  0A00              or al,[eax]
00004330  0000              add [eax],al
00004332  0000              add [eax],al
00004334  208704080000      and [edi+0x804],al
0000433A  0000              add [eax],al
0000433C  0300              add eax,[eax]
0000433E  0B00              or eax,[eax]
00004340  0000              add [eax],al
00004342  0000              add [eax],al
00004344  208804080000      and [eax+0x804],cl
0000434A  0000              add [eax],al
0000434C  0300              add eax,[eax]
0000434E  0C00              or al,0x0
00004350  0000              add [eax],al
00004352  0000              add [eax],al
00004354  38A40408000000    cmp [esp+eax+0x8],ah
0000435B  0003              add [ebx],al
0000435D  000D00000000      add [0x0],cl
00004363  0054A404          add [esp+0x4],dl
00004367  0800              or [eax],al
00004369  0000              add [eax],al
0000436B  0003              add [ebx],al
0000436D  000E              add [esi],cl
0000436F  0000              add [eax],al
00004371  0000              add [eax],al
00004373  0088A4040800      add [eax+0x804a4],cl
00004379  0000              add [eax],al
0000437B  0003              add [ebx],al
0000437D  000F              add [edi],cl
0000437F  0000              add [eax],al
00004381  0000              add [eax],al
00004383  000CA7            add [edi],cl
00004386  0408              add al,0x8
00004388  0000              add [eax],al
0000438A  0000              add [eax],al
0000438C  0300              add eax,[eax]
0000438E  1000              adc [eax],al
00004390  0000              add [eax],al
00004392  0000              add [eax],al
00004394  F4                hlt
00004395  B104              mov cl,0x4
00004397  0800              or [eax],al
00004399  0000              add [eax],al
0000439B  0003              add [ebx],al
0000439D  0011              add [ecx],dl
0000439F  0000              add [eax],al
000043A1  0000              add [eax],al
000043A3  00F0              add al,dh
000043A5  C20408            ret 0x804
000043A8  0000              add [eax],al
000043AA  0000              add [eax],al
000043AC  0300              add eax,[eax]
000043AE  1200              adc al,[eax]
000043B0  0000              add [eax],al
000043B2  0000              add [eax],al
000043B4  FC                cld
000043B5  C20408            ret 0x804
000043B8  0000              add [eax],al
000043BA  0000              add [eax],al
000043BC  0300              add eax,[eax]
000043BE  1300              adc eax,[eax]
000043C0  0000              add [eax],al
000043C2  0000              add [eax],al
000043C4  04C3              add al,0xc3
000043C6  0408              add al,0x8
000043C8  0000              add [eax],al
000043CA  0000              add [eax],al
000043CC  0300              add eax,[eax]
000043CE  1400              adc al,0x0
000043D0  0000              add [eax],al
000043D2  0000              add [eax],al
000043D4  08C3              or bl,al
000043D6  0408              add al,0x8
000043D8  0000              add [eax],al
000043DA  0000              add [eax],al
000043DC  0300              add eax,[eax]
000043DE  1500000000        adc eax,0x0
000043E3  00E8              add al,ch
000043E5  C3                ret
000043E6  0408              add al,0x8
000043E8  0000              add [eax],al
000043EA  0000              add [eax],al
000043EC  0300              add eax,[eax]
000043EE  16                push ss
000043EF  0000              add [eax],al
000043F1  0000              add [eax],al
000043F3  00EC              add ah,ch
000043F5  C3                ret
000043F6  0408              add al,0x8
000043F8  0000              add [eax],al
000043FA  0000              add [eax],al
000043FC  0300              add eax,[eax]
000043FE  17                pop ss
000043FF  0000              add [eax],al
00004401  0000              add [eax],al
00004403  0034C4            add [esp+eax*8],dh
00004406  0408              add al,0x8
00004408  0000              add [eax],al
0000440A  0000              add [eax],al
0000440C  0300              add eax,[eax]
0000440E  1800              sbb [eax],al
00004410  0000              add [eax],al
00004412  0000              add [eax],al
00004414  40                inc eax
00004415  C40408            les eax,[eax+ecx]
00004418  0000              add [eax],al
0000441A  0000              add [eax],al
0000441C  0300              add eax,[eax]
0000441E  1900              sbb [eax],eax
00004420  0000              add [eax],al
00004422  0000              add [eax],al
00004424  0000              add [eax],al
00004426  0000              add [eax],al
00004428  0000              add [eax],al
0000442A  0000              add [eax],al
0000442C  0300              add eax,[eax]
0000442E  1A00              sbb al,[eax]
00004430  0000              add [eax],al
00004432  0000              add [eax],al
00004434  0000              add [eax],al
00004436  0000              add [eax],al
00004438  0000              add [eax],al
0000443A  0000              add [eax],al
0000443C  0300              add eax,[eax]
0000443E  1B00              sbb eax,[eax]
00004440  0000              add [eax],al
00004442  0000              add [eax],al
00004444  0000              add [eax],al
00004446  0000              add [eax],al
00004448  0000              add [eax],al
0000444A  0000              add [eax],al
0000444C  0300              add eax,[eax]
0000444E  1C00              sbb al,0x0
00004450  0000              add [eax],al
00004452  0000              add [eax],al
00004454  0000              add [eax],al
00004456  0000              add [eax],al
00004458  0000              add [eax],al
0000445A  0000              add [eax],al
0000445C  0300              add eax,[eax]
0000445E  1D00000000        sbb eax,0x0
00004463  0000              add [eax],al
00004465  0000              add [eax],al
00004467  0000              add [eax],al
00004469  0000              add [eax],al
0000446B  0003              add [ebx],al
0000446D  001E              add [esi],bl
0000446F  0000              add [eax],al
00004471  0000              add [eax],al
00004473  0000              add [eax],al
00004475  0000              add [eax],al
00004477  0000              add [eax],al
00004479  0000              add [eax],al
0000447B  0003              add [ebx],al
0000447D  001F              add [edi],bl
0000447F  0000              add [eax],al
00004481  0000              add [eax],al
00004483  0000              add [eax],al
00004485  0000              add [eax],al
00004487  0000              add [eax],al
00004489  0000              add [eax],al
0000448B  0003              add [ebx],al
0000448D  0020              add [eax],ah
0000448F  0000              add [eax],al
00004491  0000              add [eax],al
00004493  0000              add [eax],al
00004495  0000              add [eax],al
00004497  0000              add [eax],al
00004499  0000              add [eax],al
0000449B  0003              add [ebx],al
0000449D  0021              add [ecx],ah
0000449F  0000              add [eax],al
000044A1  0000              add [eax],al
000044A3  0000              add [eax],al
000044A5  0000              add [eax],al
000044A7  0000              add [eax],al
000044A9  0000              add [eax],al
000044AB  0003              add [ebx],al
000044AD  0022              add [edx],ah
000044AF  0001              add [ecx],al
000044B1  0000              add [eax],al
000044B3  0000              add [eax],al
000044B5  0000              add [eax],al
000044B7  0000              add [eax],al
000044B9  0000              add [eax],al
000044BB  000400            add [eax+eax],al
000044BE  F1                int1
000044BF  FF08              dec dword [eax]
000044C1  0000              add [eax],al
000044C3  0000              add [eax],al
000044C5  0000              add [eax],al
000044C7  0000              add [eax],al
000044C9  0000              add [eax],al
000044CB  000400            add [eax+eax],al
000044CE  F1                int1
000044CF  FF13              call near [ebx]
000044D1  0000              add [eax],al
000044D3  0000              add [eax],al
000044D5  0000              add [eax],al
000044D7  0000              add [eax],al
000044D9  0000              add [eax],al
000044DB  000400            add [eax+eax],al
000044DE  F1                int1
000044DF  FF1E              call far [esi]
000044E1  0000              add [eax],al
000044E3  00F0              add al,dh
000044E5  C20408            ret 0x804
000044E8  0000              add [eax],al
000044EA  0000              add [eax],al
000044EC  0100              add [eax],eax
000044EE  1200              adc al,[eax]
000044F0  2C00              sub al,0x0
000044F2  0000              add [eax],al
000044F4  FC                cld
000044F5  C20408            ret 0x804
000044F8  0000              add [eax],al
000044FA  0000              add [eax],al
000044FC  0100              add [eax],eax
000044FE  1300              adc eax,[eax]
00004500  3A00              cmp al,[eax]
00004502  0000              add [eax],al
00004504  04C3              add al,0xc3
00004506  0408              add al,0x8
00004508  0000              add [eax],al
0000450A  0000              add [eax],al
0000450C  0100              add [eax],eax
0000450E  1400              adc al,0x0
00004510  47                inc edi
00004511  0000              add [eax],al
00004513  005088            add [eax-0x78],dl
00004516  0408              add al,0x8
00004518  0000              add [eax],al
0000451A  0000              add [eax],al
0000451C  0200              add al,[eax]
0000451E  0C00              or al,0x0
00004520  5C                pop esp
00004521  0000              add [eax],al
00004523  008088040800      add [eax+0x80488],al
00004529  0000              add [eax],al
0000452B  0002              add [edx],al
0000452D  000C00            add [eax+eax],cl
00004530  6F                outsd
00004531  0000              add [eax],al
00004533  00C0              add al,al
00004535  880408            mov [eax+ecx],al
00004538  0000              add [eax],al
0000453A  0000              add [eax],al
0000453C  0200              add al,[eax]
0000453E  0C00              or al,0x0
00004540  8500              test [eax],eax
00004542  0000              add [eax],al
00004544  0CC6              or al,0xc6
00004546  0408              add al,0x8
00004548  0100              add [eax],eax
0000454A  0000              add [eax],al
0000454C  0100              add [eax],eax
0000454E  1900              sbb [eax],eax
00004550  94                xchg eax,esp
00004551  0000              add [eax],al
00004553  0010              add [eax],dl
00004555  C6040804          mov byte [eax+ecx],0x4
00004559  0000              add [eax],al
0000455B  0001              add [ecx],al
0000455D  0019              add [ecx],bl
0000455F  00A200000010      add [edx+0x10000000],ah
00004565  890408            mov [eax+ecx],eax
00004568  0000              add [eax],al
0000456A  0000              add [eax],al
0000456C  0200              add al,[eax]
0000456E  0C00              or al,0x0
00004570  1300              adc eax,[eax]
00004572  0000              add [eax],al
00004574  0000              add [eax],al
00004576  0000              add [eax],al
00004578  0000              add [eax],al
0000457A  0000              add [eax],al
0000457C  0400              add al,0x0
0000457E  F1                int1
0000457F  FFAE000000F8      jmp far [esi+0xf8000000]
00004585  C20408            ret 0x804
00004588  0000              add [eax],al
0000458A  0000              add [eax],al
0000458C  0100              add [eax],eax
0000458E  1200              adc al,[eax]
00004590  BB000000F0        mov ebx,0xf0000000
00004595  B104              mov cl,0x4
00004597  0800              or [eax],al
00004599  0000              add [eax],al
0000459B  0001              add [ecx],al
0000459D  0010              add [eax],dl
0000459F  00C9              add cl,cl
000045A1  0000              add [eax],al
000045A3  0004C3            add [ebx+eax*8],al
000045A6  0408              add al,0x8
000045A8  0000              add [eax],al
000045AA  0000              add [eax],al
000045AC  0100              add [eax],eax
000045AE  1400              adc al,0x0
000045B0  D500              aad 0x0
000045B2  0000              add [eax],al
000045B4  10A40408000000    adc [esp+eax+0x8],ah
000045BB  0002              add [edx],al
000045BD  000C00            add [eax+eax],cl
000045C0  0800              or [eax],al
000045C2  0000              add [eax],al
000045C4  0000              add [eax],al
000045C6  0000              add [eax],al
000045C8  0000              add [eax],al
000045CA  0000              add [eax],al
000045CC  0400              add al,0x0
000045CE  F1                int1
000045CF  FF                db 0xFF
000045D0  EB00              jmp short 0x45d2
000045D2  0000              add [eax],al
000045D4  0000              add [eax],al
000045D6  0000              add [eax],al
000045D8  0000              add [eax],al
000045DA  0000              add [eax],al
000045DC  0400              add al,0x0
000045DE  F1                int1
000045DF  FF0501000014      inc dword [0x14000001]
000045E5  C6040801          mov byte [eax+ecx],0x1
000045E9  0000              add [eax],al
000045EB  0001              add [ecx],al
000045ED  0019              add [ecx],bl
000045EF  001401            add [ecx+eax],dl
000045F2  0000              add [eax],al
000045F4  17                pop ss
000045F5  8F0408            pop dword [eax+ecx]
000045F8  3F                aas
000045F9  0000              add [eax],al
000045FB  0002              add [edx],al
000045FD  000C00            add [eax+eax],cl
00004600  44                inc esp
00004601  0100              add [eax],eax
00004603  0084A404080400    add [esp+0x40804],al
0000460A  0000              add [eax],al
0000460C  0100              add [eax],eax
0000460E  0E                push cs
0000460F  004C0100          add [ecx+eax+0x0],cl
00004613  00568F            add [esi-0x71],dl
00004616  0408              add al,0x8
00004618  1C00              sbb al,0x0
0000461A  0000              add [eax],al
0000461C  0200              add al,[eax]
0000461E  0C00              or al,0x0
00004620  60                pusha
00004621  0100              add [eax],eax
00004623  0000              add [eax],al
00004625  0000              add [eax],al
00004627  0000              add [eax],al
00004629  0000              add [eax],al
0000462B  000400            add [eax+eax],al
0000462E  F1                int1
0000462F  FF00              inc dword [eax]
00004631  0000              add [eax],al
00004633  0000              add [eax],al
00004635  0000              add [eax],al
00004637  0000              add [eax],al
00004639  0000              add [eax],al
0000463B  000400            add [eax+eax],al
0000463E  F1                int1
0000463F  FF6B01            jmp far [ebx+0x1]
00004642  0000              add [eax],al
00004644  EC                in al,dx
00004645  C3                ret
00004646  0408              add al,0x8
00004648  0000              add [eax],al
0000464A  0000              add [eax],al
0000464C  0100              add [eax],eax
0000464E  17                pop ss
0000464F  0081010000EF      add [ecx+0xef000001],al
00004655  C20408            ret 0x804
00004658  0000              add [eax],al
0000465A  0000              add [eax],al
0000465C  0000              add [eax],al
0000465E  1200              adc al,[eax]
00004660  92                xchg eax,edx
00004661  0100              add [eax],eax
00004663  00EF              add bh,ch
00004665  C20408            ret 0x804
00004668  0000              add [eax],al
0000466A  0000              add [eax],al
0000466C  0000              add [eax],al
0000466E  1200              adc al,[eax]
00004670  A5                movsd
00004671  0100              add [eax],eax
00004673  0008              add [eax],cl
00004675  C3                ret
00004676  0408              add al,0x8
00004678  0000              add [eax],al
0000467A  0000              add [eax],al
0000467C  0100              add [eax],eax
0000467E  1500AE0100        adc eax,0x1ae00
00004683  0034C4            add [esp+eax*8],dh
00004686  0408              add al,0x8
00004688  0000              add [eax],al
0000468A  0000              add [eax],al
0000468C  2000              and [eax],al
0000468E  1800              sbb [eax],al
00004690  B901000040        mov ecx,0x40000001
00004695  C40408            les eax,[eax+ecx]
00004698  90                nop
00004699  0000              add [eax],al
0000469B  0011              add [ecx],dl
0000469D  0019              add [ecx],bl
0000469F  00CF              add bh,cl
000046A1  0100              add [eax],eax
000046A3  00B49004082200    add [eax+edx*4+0x220804],dh
000046AA  0000              add [eax],al
000046AC  2200              and al,[eax]
000046AE  0C00              or al,0x0
000046B0  F60100            test byte [ecx],0x0
000046B3  00449904          add [ecx+ebx*4+0x4],al
000046B7  0833              or [ebx],dh
000046B9  0000              add [eax],al
000046BB  0022              add [edx],ah
000046BD  000C00            add [eax+eax],cl
000046C0  41                inc ecx
000046C1  0200              add al,[eax]
000046C3  0013              add [ebx],dl
000046C5  A304083400        mov [0x340804],eax
000046CA  0000              add [eax],al
000046CC  2200              and al,[eax]
000046CE  0C00              or al,0x0
000046D0  5F                pop edi
000046D1  0200              add al,[eax]
000046D3  0000              add [eax],al
000046D5  0000              add [eax],al
000046D7  0000              add [eax],al
000046D9  0000              add [eax],al
000046DB  0012              add [edx],dl
000046DD  0000              add [eax],al
000046DF  007602            add [esi+0x2],dh
000046E2  0000              add [eax],al
000046E4  0000              add [eax],al
000046E6  0000              add [eax],al
000046E8  0000              add [eax],al
000046EA  0000              add [eax],al
000046EC  1200              adc al,[eax]
000046EE  0000              add [eax],al
000046F0  90                nop
000046F1  0200              add al,[eax]
000046F3  00A0A3040805      add [eax+0x50804a3],ah
000046F9  0000              add [eax],al
000046FB  0012              add [edx],dl
000046FD  000C00            add [eax+eax],cl
00004700  A002000098        mov al,[0x98000002]
00004705  92                xchg eax,edx
00004706  0408              add al,0x8
00004708  0F0000            sldt [eax]
0000470B  0022              add [edx],ah
0000470D  000C00            add [eax+eax],cl
00004710  EC                in al,dx
00004711  0200              add al,[eax]
00004713  00DA              add dl,bl
00004715  9C                pushf
00004716  0408              add al,0x8
00004718  3000              xor [eax],al
0000471A  0000              add [eax],al
0000471C  2200              and al,[eax]
0000471E  0C00              or al,0x0
00004720  2403              and al,0x3
00004722  0000              add [eax],al
00004724  208804080000      and [eax+0x804],cl
0000472A  0000              add [eax],al
0000472C  1200              adc al,[eax]
0000472E  0C00              or al,0x0
00004730  2B03              sub eax,[ebx]
00004732  0000              add [eax],al
00004734  BA9E040815        mov edx,0x1508049e
00004739  0000              add [eax],al
0000473B  0022              add [edx],ah
0000473D  000C00            add [eax+eax],cl
00004740  7303              jnc 0x4745
00004742  0000              add [eax],al
00004744  A39B040837        mov [0x3708049b],eax
00004749  0000              add [eax],al
0000474B  0022              add [edx],ah
0000474D  000C00            add [eax+eax],cl
00004750  92                xchg eax,edx
00004751  0300              add eax,[eax]
00004753  00728F            add [edx-0x71],dh
00004756  0408              add al,0x8
00004758  1800              sbb [eax],al
0000475A  0000              add [eax],al
0000475C  2200              and al,[eax]
0000475E  0C00              or al,0x0
00004760  9D                popf
00004761  0300              add eax,[eax]
00004763  00D2              add dl,dl
00004765  8F0408            pop dword [eax+ecx]
00004768  58                pop eax
00004769  0000              add [eax],al
0000476B  0022              add [edx],ah
0000476D  000C00            add [eax+eax],cl
00004770  CC                int3
00004771  0300              add eax,[eax]
00004773  00A49A04080A00    add [edx+ebx*4+0xa0804],ah
0000477A  0000              add [eax],al
0000477C  2200              and al,[eax]
0000477E  0C00              or al,0x0
00004780  15040000E9        adc eax,0xe9000004
00004785  9E                sahf
00004786  0408              add al,0x8
00004788  2200              and al,[eax]
0000478A  0000              add [eax],al
0000478C  2200              and al,[eax]
0000478E  0C00              or al,0x0
00004790  93                xchg eax,ebx
00004791  0400              add al,0x0
00004793  00749F04          add [edi+ebx*4+0x4],dh
00004797  0808              or [eax],cl
00004799  0000              add [eax],al
0000479B  0022              add [edx],ah
0000479D  000C00            add [eax+eax],cl
000047A0  B904000000        mov ecx,0x4
000047A5  0000              add [eax],al
000047A7  0000              add [eax],al
000047A9  0000              add [eax],al
000047AB  0020              add [eax],ah
000047AD  0000              add [eax],al
000047AF  00C8              add al,cl
000047B1  0400              add al,0x0
000047B3  0000              add [eax],al
000047B5  0000              add [eax],al
000047B7  0000              add [eax],al
000047B9  0000              add [eax],al
000047BB  0020              add [eax],ah
000047BD  0000              add [eax],al
000047BF  00DC              add ah,bl
000047C1  0400              add al,0x0
000047C3  0054A404          add [esp+0x4],dl
000047C7  080400            or [eax+eax],al
000047CA  0000              add [eax],al
000047CC  1100              adc [eax],eax
000047CE  0E                push cs
000047CF  00E3              add bl,ah
000047D1  0400              add al,0x0
000047D3  0047A3            add [edi-0x5d],al
000047D6  0408              add al,0x8
000047D8  1500000022        adc eax,0x22000000
000047DD  000C00            add [eax+eax],cl
000047E0  49                dec ecx
000047E1  050000D392        add eax,0x92d30000
000047E6  0408              add al,0x8
000047E8  3000              xor [eax],al
000047EA  0000              add [eax],al
000047EC  2200              and al,[eax]
000047EE  0C00              or al,0x0
000047F0  B405              mov ah,0x5
000047F2  0000              add [eax],al
000047F4  0000              add [eax],al
000047F6  0000              add [eax],al
000047F8  0000              add [eax],al
000047FA  0000              add [eax],al
000047FC  1200              adc al,[eax]
000047FE  0000              add [eax],al
00004800  C8050000          enter 0x5,0x0
00004804  82                db 0x82
00004805  94                xchg eax,esp
00004806  0408              add al,0x8
00004808  3D00000022        cmp eax,0x22000000
0000480D  000C00            add [eax+eax],cl
00004810  0506000038        add eax,0x38000006
00004815  A4                movsb
00004816  0408              add al,0x8
00004818  0000              add [eax],al
0000481A  0000              add [eax],al
0000481C  1200              adc al,[eax]
0000481E  0D000B0600        or eax,0x60b00
00004823  0000              add [eax],al
00004825  0000              add [eax],al
00004827  0000              add [eax],al
00004829  0000              add [eax],al
0000482B  0012              add [edx],dl
0000482D  0000              add [eax],al
0000482F  0030              add [eax],dh
00004831  06                push es
00004832  0000              add [eax],al
00004834  F6A104081D01      mul byte [ecx+0x11d0804]
0000483A  0000              add [eax],al
0000483C  2200              and al,[eax]
0000483E  0C00              or al,0x0
00004840  96                xchg eax,esi
00004841  06                push es
00004842  0000              add [eax],al
00004844  41                inc ecx
00004845  98                cwde
00004846  0408              add al,0x8
00004848  2100              and [eax],eax
0000484A  0000              add [eax],al
0000484C  2200              and al,[eax]
0000484E  0C00              or al,0x0
00004850  CE                into
00004851  06                push es
00004852  0000              add [eax],al
00004854  E0C4              loopne 0x481a
00004856  0408              add al,0x8
00004858  8C00              mov [eax],es
0000485A  0000              add [eax],al
0000485C  1100              adc [eax],eax
0000485E  1900              sbb [eax],eax
00004860  E506              in eax,0x6
00004862  0000              add [eax],al
00004864  5D                pop ebp
00004865  95                xchg eax,ebp
00004866  0408              add al,0x8
00004868  E300              jecxz 0x486a
0000486A  0000              add [eax],al
0000486C  2200              and al,[eax]
0000486E  0C00              or al,0x0
00004870  53                push ebx
00004871  07                pop es
00004872  0000              add [eax],al
00004874  CF                iret
00004875  9E                sahf
00004876  0408              add al,0x8
00004878  1A00              sbb al,[eax]
0000487A  0000              add [eax],al
0000487C  2200              and al,[eax]
0000487E  0C00              or al,0x0
00004880  AF                scasd
00004881  07                pop es
00004882  0000              add [eax],al
00004884  629B04082C00      bound ebx,[ebx+0x2c0804]
0000488A  0000              add [eax],al
0000488C  2200              and al,[eax]
0000488E  0C00              or al,0x0
00004890  07                pop es
00004891  0800              or [eax],al
00004893  0000              add [eax],al
00004895  0000              add [eax],al
00004897  0000              add [eax],al
00004899  0000              add [eax],al
0000489B  0012              add [edx],dl
0000489D  0000              add [eax],al
0000489F  002408            add [eax+ecx],ah
000048A2  0000              add [eax],al
000048A4  98                cwde
000048A5  92                xchg eax,edx
000048A6  0408              add al,0x8
000048A8  0F0000            sldt [eax]
000048AB  0022              add [edx],ah
000048AD  000C00            add [eax+eax],cl
000048B0  7008              jo 0x48ba
000048B2  0000              add [eax],al
000048B4  4A                dec edx
000048B5  94                xchg eax,esp
000048B6  0408              add al,0x8
000048B8  37                aaa
000048B9  0000              add [eax],al
000048BB  0022              add [edx],ah
000048BD  000C00            add [eax+eax],cl
000048C0  AE                scasb
000048C1  0800              or [eax],al
000048C3  00349C            add [esp+ebx*4],dh
000048C6  0408              add al,0x8
000048C8  9F                lahf
000048C9  0000              add [eax],al
000048CB  0022              add [edx],ah
000048CD  000C00            add [eax+eax],cl
000048D0  150900004A        adc eax,0x4a000009
000048D5  94                xchg eax,esp
000048D6  0408              add al,0x8
000048D8  37                aaa
000048D9  0000              add [eax],al
000048DB  0022              add [edx],ah
000048DD  000C00            add [eax+eax],cl
000048E0  53                push ebx
000048E1  0900              or [eax],eax
000048E3  00D6              add dh,dl
000048E5  90                nop
000048E6  0408              add al,0x8
000048E8  6200              bound eax,[eax]
000048EA  0000              add [eax],al
000048EC  2200              and al,[eax]
000048EE  0C00              or al,0x0
000048F0  A7                cmpsd
000048F1  0900              or [eax],eax
000048F3  008E9104084A      add [esi+0x4a080491],cl
000048F9  0000              add [eax],al
000048FB  0022              add [edx],ah
000048FD  000C00            add [eax+eax],cl
00004900  D809              fmul dword [ecx]
00004902  0000              add [eax],al
00004904  7491              jz 0x4897
00004906  0408              add al,0x8
00004908  0500000022        add eax,0x22000000
0000490D  000C00            add [eax+eax],cl
00004910  06                push es
00004911  0A00              or al,[eax]
00004913  007692            add [esi-0x6e],dh
00004916  0408              add al,0x8
00004918  0800              or [eax],al
0000491A  0000              add [eax],al
0000491C  2200              and al,[eax]
0000491E  0C00              or al,0x0
00004920  45                inc ebp
00004921  0A00              or al,[eax]
00004923  00ACA104081200    add [ecx+0x120804],ch
0000492A  0000              add [eax],al
0000492C  2200              and al,[eax]
0000492E  0C00              or al,0x0
00004930  AB                stosd
00004931  0A00              or al,[eax]
00004933  0003              add [ebx],al
00004935  93                xchg eax,ebx
00004936  0408              add al,0x8
00004938  8F00              pop dword [eax]
0000493A  0000              add [eax],al
0000493C  2200              and al,[eax]
0000493E  0C00              or al,0x0
00004940  100B              adc [ebx],cl
00004942  0000              add [eax],al
00004944  BE8F040813        mov esi,0x1308048f
00004949  0000              add [eax],al
0000494B  0022              add [edx],ah
0000494D  000C00            add [eax+eax],cl
00004950  27                daa
00004951  0B00              or eax,[eax]
00004953  009087040800      add [eax+0x80487],dl
00004959  0000              add [eax],al
0000495B  0012              add [edx],dl
0000495D  0000              add [eax],al
0000495F  004C0B00          add [ebx+ecx+0x0],cl
00004963  0000              add [eax],al
00004965  0000              add [eax],al
00004967  0000              add [eax],al
00004969  0000              add [eax],al
0000496B  0020              add [eax],ah
0000496D  0000              add [eax],al
0000496F  00680B            add [eax+0xb],ch
00004972  0000              add [eax],al
00004974  0000              add [eax],al
00004976  0000              add [eax],al
00004978  0000              add [eax],al
0000497A  0000              add [eax],al
0000497C  1200              adc al,[eax]
0000497E  0000              add [eax],al
00004980  AD                lodsd
00004981  0B00              or eax,[eax]
00004983  00E4              add ah,ah
00004985  97                xchg eax,edi
00004986  0408              add al,0x8
00004988  1A00              sbb al,[eax]
0000498A  0000              add [eax],al
0000498C  2200              and al,[eax]
0000498E  0C00              or al,0x0
00004990  C80B0000          enter 0xb,0x0
00004994  389204083E00      cmp [edx+0x3e0804],dl
0000499A  0000              add [eax],al
0000499C  2200              and al,[eax]
0000499E  0C00              or al,0x0
000049A0  040C              add al,0xc
000049A2  0000              add [eax],al
000049A4  58                pop eax
000049A5  A4                movsb
000049A6  0408              add al,0x8
000049A8  0400              add al,0x0
000049AA  0000              add [eax],al
000049AC  1100              adc [eax],eax
000049AE  0E                push cs
000049AF  0013              add [ebx],dl
000049B1  0C00              or al,0x0
000049B3  00928F040818      add [edx+0x1808048f],dl
000049B9  0000              add [eax],al
000049BB  0022              add [edx],ah
000049BD  000C00            add [eax+eax],cl
000049C0  260C00            es or al,0x0
000049C3  008A8F040808      add [edx+0x808048f],cl
000049C9  0000              add [eax],al
000049CB  0022              add [edx],ah
000049CD  000C00            add [eax+eax],cl
000049D0  2E0C00            cs or al,0x0
000049D3  006E91            add [esi-0x6f],ch
000049D6  0408              add al,0x8
000049D8  0500000022        add eax,0x22000000
000049DD  000C00            add [eax+eax],cl
000049E0  5C                pop esp
000049E1  0C00              or al,0x0
000049E3  00C0              add al,al
000049E5  94                xchg eax,esp
000049E6  0408              add al,0x8
000049E8  27                daa
000049E9  0000              add [eax],al
000049EB  0022              add [edx],ah
000049ED  000C00            add [eax+eax],cl
000049F0  99                cdq
000049F1  0C00              or al,0x0
000049F3  0000              add [eax],al
000049F5  0000              add [eax],al
000049F7  0000              add [eax],al
000049F9  0000              add [eax],al
000049FB  0020              add [eax],ah
000049FD  0000              add [eax],al
000049FF  00B30C000034      add [ebx+0x3400000c],dh
00004A05  C40408            les eax,[eax+ecx]
00004A08  0000              add [eax],al
00004A0A  0000              add [eax],al
00004A0C  1000              adc [eax],al
00004A0E  1800              sbb [eax],al
00004A10  C00C0000          ror byte [eax+eax],0x0
00004A14  2A9004085700      sub dl,[eax+0x570804]
00004A1A  0000              add [eax],al
00004A1C  2200              and al,[eax]
00004A1E  0C00              or al,0x0
00004A20  E50C              in eax,0xc
00004A22  0000              add [eax],al
00004A24  0B9F04085E00      or ebx,[edi+0x5e0804]
00004A2A  0000              add [eax],al
00004A2C  2200              and al,[eax]
00004A2E  0C00              or al,0x0
00004A30  5A                pop edx
00004A31  0D00000A9D        or eax,0x9d0a0000
00004A36  0408              add al,0x8
00004A38  37                aaa
00004A39  0000              add [eax],al
00004A3B  0022              add [edx],ah
00004A3D  000C00            add [eax+eax],cl
00004A40  AD                lodsd
00004A41  0D00007A91        or eax,0x917a0000
00004A46  0408              add al,0x8
00004A48  1300              adc eax,[eax]
00004A4A  0000              add [eax],al
00004A4C  2200              and al,[eax]
00004A4E  0C00              or al,0x0
00004A50  E70D              out 0xd,eax
00004A52  0000              add [eax],al
00004A54  E794              out 0x94,eax
00004A56  0408              add al,0x8
00004A58  2100              and [eax],eax
00004A5A  0000              add [eax],al
00004A5C  2200              and al,[eax]
00004A5E  0C00              or al,0x0
00004A60  2E0E              cs push cs
00004A62  0000              add [eax],al
00004A64  6A9F              push byte -0x61
00004A66  0408              add al,0x8
00004A68  0A00              or al,[eax]
00004A6A  0000              add [eax],al
00004A6C  2200              and al,[eax]
00004A6E  0C00              or al,0x0
00004A70  640E              fs push cs
00004A72  0000              add [eax],al
00004A74  E497              in al,0x97
00004A76  0408              add al,0x8
00004A78  1A00              sbb al,[eax]
00004A7A  0000              add [eax],al
00004A7C  2200              and al,[eax]
00004A7E  0C00              or al,0x0
00004A80  7F0E              jg 0x4a90
00004A82  0000              add [eax],al
00004A84  9D                popf
00004A85  97                xchg eax,edi
00004A86  0408              add al,0x8
00004A88  46                inc esi
00004A89  0000              add [eax],al
00004A8B  0022              add [edx],ah
00004A8D  000C00            add [eax+eax],cl
00004A90  EA0E00003CC404    jmp 0x4c4:0x3c00000e
00004A97  0800              or [eax],al
00004A99  0000              add [eax],al
00004A9B  0011              add [ecx],dl
00004A9D  0218              add bl,[eax]
00004A9F  00F6              add dh,dh
00004AA1  0E                push cs
00004AA2  0000              add [eax],al
00004AA4  7C9F              jl 0x4a45
00004AA6  0408              add al,0x8
00004AA8  2E0000            add [cs:eax],al
00004AAB  0022              add [edx],ah
00004AAD  000C00            add [eax+eax],cl
00004AB0  200F              and [edi],cl
00004AB2  0000              add [eax],al
00004AB4  80C504            add ch,0x4
00004AB7  088C0000001100    or [eax+eax+0x110000],cl
00004ABE  1900              sbb [eax],eax
00004AC0  37                aaa
00004AC1  0F0000            sldt [eax]
00004AC4  06                push es
00004AC5  9E                sahf
00004AC6  0408              add al,0x8
00004AC8  2C00              sub al,0x0
00004ACA  0000              add [eax],al
00004ACC  2200              and al,[eax]
00004ACE  0C00              or al,0x0
00004AD0  8F                db 0x8F
00004AD1  0F0000            sldt [eax]
00004AD4  38C4              cmp ah,al
00004AD6  0408              add al,0x8
00004AD8  0000              add [eax],al
00004ADA  0000              add [eax],al
00004ADC  1102              adc [edx],eax
00004ADE  1800              sbb [eax],al
00004AE0  9C                pushf
00004AE1  0F0000            sldt [eax]
00004AE4  00C3              add bl,al
00004AE6  0408              add al,0x8
00004AE8  0000              add [eax],al
00004AEA  0000              add [eax],al
00004AEC  1102              adc [edx],eax
00004AEE  1300              adc eax,[eax]
00004AF0  A90F0000B0        test eax,0xb000000f
00004AF5  A304085A00        mov [0x5a0804],eax
00004AFA  0000              add [eax],al
00004AFC  1200              adc al,[eax]
00004AFE  0C00              or al,0x0
00004B00  B90F000067        mov ecx,0x6700000f
00004B05  98                cwde
00004B06  0408              add al,0x8
00004B08  93                xchg eax,ebx
00004B09  0000              add [eax],al
00004B0B  0022              add [edx],ah
00004B0D  000C00            add [eax+eax],cl
00004B10  1A10              sbb dl,[eax]
00004B12  0000              add [eax],al
00004B14  54                push esp
00004B15  91                xchg eax,ecx
00004B16  0408              add al,0x8
00004B18  1A00              sbb al,[eax]
00004B1A  0000              add [eax],al
00004B1C  2200              and al,[eax]
00004B1E  0C00              or al,0x0
00004B20  3210              xor dl,[eax]
00004B22  0000              add [eax],al
00004B24  5C                pop esp
00004B25  A304083E00        mov [0x3e0804],eax
00004B2A  0000              add [eax],al
00004B2C  2200              and al,[eax]
00004B2E  0C00              or al,0x0
00004B30  A2100000D4        mov [0xd4000010],al
00004B35  9C                pushf
00004B36  0408              add al,0x8
00004B38  0500000022        add eax,0x22000000
00004B3D  000C00            add [eax+eax],cl
00004B40  D410              aam 0x10
00004B42  0000              add [eax],al
00004B44  329E04088800      xor bl,[esi+0x880804]
00004B4A  0000              add [eax],al
00004B4C  2200              and al,[eax]
00004B4E  0C00              or al,0x0
00004B50  3211              xor dl,[ecx]
00004B52  0000              add [eax],al
00004B54  0000              add [eax],al
00004B56  0000              add [eax],al
00004B58  0000              add [eax],al
00004B5A  0000              add [eax],al
00004B5C  1200              adc al,[eax]
00004B5E  0000              add [eax],al
00004B60  45                inc ebp
00004B61  1100              adc [eax],eax
00004B63  00A79204082C      add [edi+0x2c080492],ah
00004B69  0000              add [eax],al
00004B6B  0022              add [edx],ah
00004B6D  000C00            add [eax+eax],cl
00004B70  9D                popf
00004B71  1100              adc [eax],eax
00004B73  0092930408B8      add [edx+0xb8080493],dl
00004B79  0000              add [eax],al
00004B7B  0022              add [edx],ah
00004B7D  000C00            add [eax+eax],cl
00004B80  0412              add al,0x12
00004B82  0000              add [eax],al
00004B84  40                inc eax
00004B85  96                xchg eax,esi
00004B86  0408              add al,0x8
00004B88  3100              xor [eax],eax
00004B8A  0000              add [eax],al
00004B8C  2200              and al,[eax]
00004B8E  0C00              or al,0x0
00004B90  4F                dec edi
00004B91  1200              adc al,[eax]
00004B93  008E9B040815      add [esi+0x1508049b],cl
00004B99  0000              add [eax],al
00004B9B  0022              add [edx],ah
00004B9D  000C00            add [eax+eax],cl
00004BA0  97                xchg eax,edi
00004BA1  1200              adc al,[eax]
00004BA3  00949004081F00    add [eax+edx*4+0x1f0804],dl
00004BAA  0000              add [eax],al
00004BAC  2200              and al,[eax]
00004BAE  0C00              or al,0x0
00004BB0  C01200            rcl byte [edx],0x0
00004BB3  003CC4            add [esp+eax*8],bh
00004BB6  0408              add al,0x8
00004BB8  0000              add [eax],al
00004BBA  0000              add [eax],al
00004BBC  1000              adc [eax],al
00004BBE  1900              sbb [eax],eax
00004BC0  CC                int3
00004BC1  1200              adc al,[eax]
00004BC3  00D2              add dl,dl
00004BC5  8F0408            pop dword [eax+ecx]
00004BC8  58                pop eax
00004BC9  0000              add [eax],al
00004BCB  0022              add [edx],ah
00004BCD  000C00            add [eax+eax],cl
00004BD0  FB                sti
00004BD1  1200              adc al,[eax]
00004BD3  00FE              add dh,bh
00004BD5  97                xchg eax,edi
00004BD6  0408              add al,0x8
00004BD8  2F                das
00004BD9  0000              add [eax],al
00004BDB  0022              add [edx],ah
00004BDD  000C00            add [eax+eax],cl
00004BE0  3213              xor dl,[ebx]
00004BE2  0000              add [eax],al
00004BE4  389104081B00      cmp [ecx+0x1b0804],dl
00004BEA  0000              add [eax],al
00004BEC  2200              and al,[eax]
00004BEE  0C00              or al,0x0
00004BF0  48                dec eax
00004BF1  1300              adc eax,[eax]
00004BF3  008E9104084A      add [esi+0x4a080491],cl
00004BF9  0000              add [eax],al
00004BFB  0022              add [edx],ah
00004BFD  000C00            add [eax+eax],cl
00004C00  7913              jns 0x4c15
00004C02  0000              add [eax],al
00004C04  089504081A00      or [ebp+0x1a0804],dl
00004C0A  0000              add [eax],al
00004C0C  2200              and al,[eax]
00004C0E  0C00              or al,0x0
00004C10  9B                wait
00004C11  1300              adc eax,[eax]
00004C13  00419D            add [ecx-0x63],al
00004C16  0408              add al,0x8
00004C18  C500              lds eax,[eax]
00004C1A  0000              add [eax],al
00004C1C  2200              and al,[eax]
00004C1E  0C00              or al,0x0
00004C20  F4                hlt
00004C21  1300              adc eax,[eax]
00004C23  00DA              add dl,bl
00004C25  9B                wait
00004C26  0408              add al,0x8
00004C28  5A                pop edx
00004C29  0000              add [eax],al
00004C2B  0022              add [edx],ah
00004C2D  000C00            add [eax+eax],cl
00004C30  5A                pop edx
00004C31  1400              adc al,0x0
00004C33  00AA9F0408D1      add [edx+0xd108049f],ch
00004C39  0100              add [eax],eax
00004C3B  0022              add [edx],ah
00004C3D  000C00            add [eax+eax],cl
00004C40  C21400            ret 0x14
00004C43  00FA              add dl,bh
00004C45  98                cwde
00004C46  0408              add al,0x8
00004C48  4A                dec edx
00004C49  0000              add [eax],al
00004C4B  0022              add [edx],ah
00004C4D  000C00            add [eax+eax],cl
00004C50  1B1500007E92      sbb edx,[0x927e0000]
00004C56  0408              add al,0x8
00004C58  1A00              sbb al,[eax]
00004C5A  0000              add [eax],al
00004C5C  2200              and al,[eax]
00004C5E  0C00              or al,0x0
00004C60  48                dec eax
00004C61  1500002A95        adc eax,0x952a0000
00004C66  0408              add al,0x8
00004C68  3300              xor eax,[eax]
00004C6A  0000              add [eax],al
00004C6C  2200              and al,[eax]
00004C6E  0C00              or al,0x0
00004C70  A815              test al,0x15
00004C72  0000              add [eax],al
00004C74  2A9004085700      sub dl,[eax+0x570804]
00004C7A  0000              add [eax],al
00004C7C  2200              and al,[eax]
00004C7E  0C00              or al,0x0
00004C80  CD15              int 0x15
00004C82  0000              add [eax],al
00004C84  0000              add [eax],al
00004C86  0000              add [eax],al
00004C88  0000              add [eax],al
00004C8A  0000              add [eax],al
00004C8C  1200              adc al,[eax]
00004C8E  0000              add [eax],al
00004C90  E515              in eax,0x15
00004C92  0000              add [eax],al
00004C94  92                xchg eax,edx
00004C95  8F0408            pop dword [eax+ecx]
00004C98  1800              sbb [eax],al
00004C9A  0000              add [eax],al
00004C9C  2200              and al,[eax]
00004C9E  0C00              or al,0x0
00004CA0  F8                clc
00004CA1  150000AE9A        adc eax,0x9aae0000
00004CA6  0408              add al,0x8
00004CA8  B400              mov ah,0x0
00004CAA  0000              add [eax],al
00004CAC  2200              and al,[eax]
00004CAE  0C00              or al,0x0
00004CB0  6816000062        push dword 0x62000016
00004CB5  98                cwde
00004CB6  0408              add al,0x8
00004CB8  0500000022        add eax,0x22000000
00004CBD  000C00            add [eax+eax],cl
00004CC0  A116000022        mov eax,[0x22000016]
00004CC5  95                xchg eax,ebp
00004CC6  0408              add al,0x8
00004CC8  0800              or [eax],al
00004CCA  0000              add [eax],al
00004CCC  2200              and al,[eax]
00004CCE  0C00              or al,0x0
00004CD0  ED                in eax,dx
00004CD1  16                push ss
00004CD2  0000              add [eax],al
00004CD4  2E98              cs cwde
00004CD6  0408              add al,0x8
00004CD8  1300              adc eax,[eax]
00004CDA  0000              add [eax],al
00004CDC  2200              and al,[eax]
00004CDE  0C00              or al,0x0
00004CE0  2917              sub [edi],edx
00004CE2  0000              add [eax],al
00004CE4  7799              ja 0x4c7f
00004CE6  0408              add al,0x8
00004CE8  2C01              sub al,0x1
00004CEA  0000              add [eax],al
00004CEC  2200              and al,[eax]
00004CEE  0C00              or al,0x0
00004CF0  90                nop
00004CF1  17                pop ss
00004CF2  0000              add [eax],al
00004CF4  7196              jno 0x4c8c
00004CF6  0408              add al,0x8
00004CF8  2C01              sub al,0x1
00004CFA  0000              add [eax],al
00004CFC  2200              and al,[eax]
00004CFE  0C00              or al,0x0
00004D00  F1                int1
00004D01  17                pop ss
00004D02  0000              add [eax],al
00004D04  18C6              sbb dh,al
00004D06  0408              add al,0x8
00004D08  0000              add [eax],al
00004D0A  0000              add [eax],al
00004D0C  1000              adc [eax],al
00004D0E  1900              sbb [eax],eax
00004D10  F617              not byte [edi]
00004D12  0000              add [eax],al
00004D14  0000              add [eax],al
00004D16  0000              add [eax],al
00004D18  0000              add [eax],al
00004D1A  0000              add [eax],al
00004D1C  1200              adc al,[eax]
00004D1E  0000              add [eax],al
00004D20  1418              adc al,0x18
00004D22  0000              add [eax],al
00004D24  D89104085F00      fcom dword [ecx+0x5f0804]
00004D2A  0000              add [eax],al
00004D2C  2200              and al,[eax]
00004D2E  0C00              or al,0x0
00004D30  40                inc eax
00004D31  1800              sbb [eax],al
00004D33  00BE8F040813      add [esi+0x1308048f],bh
00004D39  0000              add [eax],al
00004D3B  0022              add [edx],ah
00004D3D  000C00            add [eax+eax],cl
00004D40  57                push edi
00004D41  1800              sbb [eax],al
00004D43  00AA8F040813      add [edx+0x1308048f],ch
00004D49  0000              add [eax],al
00004D4B  0022              add [edx],ah
00004D4D  000C00            add [eax+eax],cl
00004D50  6E                outsb
00004D51  1800              sbb [eax],al
00004D53  007A91            add [edx-0x6f],bh
00004D56  0408              add al,0x8
00004D58  1300              adc eax,[eax]
00004D5A  0000              add [eax],al
00004D5C  2200              and al,[eax]
00004D5E  0C00              or al,0x0
00004D60  A818              test al,0x18
00004D62  0000              add [eax],al
00004D64  0000              add [eax],al
00004D66  0000              add [eax],al
00004D68  0000              add [eax],al
00004D6A  0000              add [eax],al
00004D6C  1200              adc al,[eax]
00004D6E  0000              add [eax],al
00004D70  CE                into
00004D71  1800              sbb [eax],al
00004D73  00D4              add ah,dl
00004D75  9C                pushf
00004D76  0408              add al,0x8
00004D78  0500000022        add eax,0x22000000
00004D7D  000C00            add [eax+eax],cl
00004D80  0019              add [ecx],bl
00004D82  0000              add [eax],al
00004D84  D89104085F00      fcom dword [ecx+0x5f0804]
00004D8A  0000              add [eax],al
00004D8C  2200              and al,[eax]
00004D8E  0C00              or al,0x0
00004D90  2C19              sub al,0x19
00004D92  0000              add [eax],al
00004D94  7BA1              jpo 0x4d37
00004D96  0408              add al,0x8
00004D98  3100              xor [eax],eax
00004D9A  0000              add [eax],al
00004D9C  2200              and al,[eax]
00004D9E  0C00              or al,0x0
00004DA0  9D                popf
00004DA1  1900              sbb [eax],eax
00004DA3  00F0              add al,dh
00004DA5  870408            xchg eax,[eax+ecx]
00004DA8  0000              add [eax],al
00004DAA  0000              add [eax],al
00004DAC  1200              adc al,[eax]
00004DAE  0000              add [eax],al
00004DB0  E519              in eax,0x19
00004DB2  0000              add [eax],al
00004DB4  54                push esp
00004DB5  91                xchg eax,ecx
00004DB6  0408              add al,0x8
00004DB8  1A00              sbb al,[eax]
00004DBA  0000              add [eax],al
00004DBC  2200              and al,[eax]
00004DBE  0C00              or al,0x0
00004DC0  FD                std
00004DC1  1900              sbb [eax],eax
00004DC3  00BEA1040813      add [esi+0x130804a1],bh
00004DC9  0000              add [eax],al
00004DCB  0022              add [edx],ah
00004DCD  000C00            add [eax+eax],cl
00004DD0  7B1A              jpo 0x4dec
00004DD2  0000              add [eax],al
00004DD4  82                db 0x82
00004DD5  90                nop
00004DD6  0408              add al,0x8
00004DD8  1200              adc al,[eax]
00004DDA  0000              add [eax],al
00004DDC  2200              and al,[eax]
00004DDE  0C00              or al,0x0
00004DE0  A01A00003C        mov al,[0x3c00001a]
00004DE5  C40408            les eax,[eax+ecx]
00004DE8  0000              add [eax],al
00004DEA  0000              add [eax],al
00004DEC  1000              adc [eax],al
00004DEE  1800              sbb [eax],al
00004DF0  A7                cmpsd
00004DF1  1A00              sbb al,[eax]
00004DF3  00D1              add cl,dl
00004DF5  A104082500        mov eax,[0x250804]
00004DFA  0000              add [eax],al
00004DFC  2200              and al,[eax]
00004DFE  0C00              or al,0x0
00004E00  E51A              in eax,0x1a
00004E02  0000              add [eax],al
00004E04  008804080000      add [eax+0x804],cl
00004E0A  0000              add [eax],al
00004E0C  1200              adc al,[eax]
00004E0E  0000              add [eax],al
00004E10  06                push es
00004E11  1B00              sbb eax,[eax]
00004E13  00749104          add [ecx+edx*4+0x4],dh
00004E17  080500000022      or [0x22000000],al
00004E1D  000C00            add [eax+eax],cl
00004E20  341B              xor al,0x1b
00004E22  0000              add [eax],al
00004E24  0000              add [eax],al
00004E26  0000              add [eax],al
00004E28  0000              add [eax],al
00004E2A  0000              add [eax],al
00004E2C  1200              adc al,[eax]
00004E2E  0000              add [eax],al
00004E30  4C                dec esp
00004E31  1B00              sbb eax,[eax]
00004E33  006E91            add [esi-0x6f],ch
00004E36  0408              add al,0x8
00004E38  0500000022        add eax,0x22000000
00004E3D  000C00            add [eax+eax],cl
00004E40  7A1B              jpe 0x4e5d
00004E42  0000              add [eax],al
00004E44  0AA40408000000    or ah,[esp+eax+0x8]
00004E4B  0012              add [edx],dl
00004E4D  020C00            add cl,[eax+eax]
00004E50  91                xchg eax,ecx
00004E51  1B00              sbb eax,[eax]
00004E53  00AA8F040813      add [edx+0x1308048f],ch
00004E59  0000              add [eax],al
00004E5B  0022              add [edx],ah
00004E5D  000C00            add [eax+eax],cl
00004E60  A81B              test al,0x1b
00004E62  0000              add [eax],al
00004E64  40                inc eax
00004E65  890408            mov [eax+ecx],eax
00004E68  D7                xlatb
00004E69  0500001200        add eax,0x120000
00004E6E  0C00              or al,0x0
00004E70  AD                lodsd
00004E71  1B00              sbb eax,[eax]
00004E73  00E4              add ah,ah
00004E75  860408            xchg al,[eax+ecx]
00004E78  0000              add [eax],al
00004E7A  0000              add [eax],al
00004E7C  1200              adc al,[eax]
00004E7E  0A00              or al,[eax]
00004E80  00696E            add [ecx+0x6e],ch
00004E83  69742E6300696E69  imul esi,[esi+ebp+0x63],dword 0x696e6900
00004E8B  7466              jz 0x4ef3
00004E8D  696E692E630063    imul ebp,[esi+0x69],dword 0x6300632e
00004E94  7274              jc 0x4f0a
00004E96  7374              jnc 0x4f0c
00004E98  7566              jnz 0x4f00
00004E9A  662E6300          o16 arpl [cs:eax],ax
00004E9E  5F                pop edi
00004E9F  5F                pop edi
00004EA0  43                inc ebx
00004EA1  54                push esp
00004EA2  4F                dec edi
00004EA3  52                push edx
00004EA4  5F                pop edi
00004EA5  4C                dec esp
00004EA6  49                dec ecx
00004EA7  53                push ebx
00004EA8  54                push esp
00004EA9  5F                pop edi
00004EAA  5F                pop edi
00004EAB  005F5F            add [edi+0x5f],bl
00004EAE  44                inc esp
00004EAF  54                push esp
00004EB0  4F                dec edi
00004EB1  52                push edx
00004EB2  5F                pop edi
00004EB3  4C                dec esp
00004EB4  49                dec ecx
00004EB5  53                push ebx
00004EB6  54                push esp
00004EB7  5F                pop edi
00004EB8  5F                pop edi
00004EB9  005F5F            add [edi+0x5f],bl
00004EBC  4A                dec edx
00004EBD  43                inc ebx
00004EBE  52                push edx
00004EBF  5F                pop edi
00004EC0  4C                dec esp
00004EC1  49                dec ecx
00004EC2  53                push ebx
00004EC3  54                push esp
00004EC4  5F                pop edi
00004EC5  5F                pop edi
00004EC6  00646572          add [ebp+0x72],ah
00004ECA  656769737465725F  imul esi,[gs:bp+di+0x74],dword 0x745f7265
         -74
00004ED3  6D                insd
00004ED4  5F                pop edi
00004ED5  636C6F6E          arpl [edi+ebp*2+0x6e],bp
00004ED9  657300            gs jnc 0x4edc
00004EDC  7265              jc 0x4f43
00004EDE  6769737465725F74  imul esi,[bp+di+0x74],dword 0x745f7265
00004EE6  6D                insd
00004EE7  5F                pop edi
00004EE8  636C6F6E          arpl [edi+ebp*2+0x6e],bp
00004EEC  657300            gs jnc 0x4eef
00004EEF  5F                pop edi
00004EF0  5F                pop edi
00004EF1  646F              fs outsd
00004EF3  5F                pop edi
00004EF4  676C              a16 insb
00004EF6  6F                outsd
00004EF7  62616C            bound esp,[ecx+0x6c]
00004EFA  5F                pop edi
00004EFB  64746F            fs jz 0x4f6d
00004EFE  7273              jc 0x4f73
00004F00  5F                pop edi
00004F01  61                popa
00004F02  7578              jnz 0x4f7c
00004F04  00636F            add [ebx+0x6f],ah
00004F07  6D                insd
00004F08  706C              jo 0x4f76
00004F0A  657465            gs jz 0x4f72
00004F0D  642E3333          xor esi,[cs:ebx]
00004F11  3238              xor bh,[eax]
00004F13  0064746F          add [esp+esi*2+0x6f],ah
00004F17  725F              jc 0x4f78
00004F19  6964782E33333330  imul esp,[eax+edi*2+0x2e],dword 0x30333333
00004F21  006672            add [esi+0x72],ah
00004F24  61                popa
00004F25  6D                insd
00004F26  655F              gs pop edi
00004F28  64756D            fs jnz 0x4f98
00004F2B  6D                insd
00004F2C  7900              jns 0x4f2e
00004F2E  5F                pop edi
00004F2F  5F                pop edi
00004F30  43                inc ebx
00004F31  54                push esp
00004F32  4F                dec edi
00004F33  52                push edx
00004F34  5F                pop edi
00004F35  45                inc ebp
00004F36  4E                dec esi
00004F37  44                inc esp
00004F38  5F                pop edi
00004F39  5F                pop edi
00004F3A  005F5F            add [edi+0x5f],bl
00004F3D  46                inc esi
00004F3E  52                push edx
00004F3F  41                inc ecx
00004F40  4D                dec ebp
00004F41  45                inc ebp
00004F42  5F                pop edi
00004F43  45                inc ebp
00004F44  4E                dec esi
00004F45  44                inc esp
00004F46  5F                pop edi
00004F47  5F                pop edi
00004F48  005F5F            add [edi+0x5f],bl
00004F4B  4A                dec edx
00004F4C  43                inc ebx
00004F4D  52                push edx
00004F4E  5F                pop edi
00004F4F  45                inc ebp
00004F50  4E                dec esi
00004F51  44                inc esp
00004F52  5F                pop edi
00004F53  5F                pop edi
00004F54  005F5F            add [edi+0x5f],bl
00004F57  646F              fs outsd
00004F59  5F                pop edi
00004F5A  676C              a16 insb
00004F5C  6F                outsd
00004F5D  62616C            bound esp,[ecx+0x6c]
00004F60  5F                pop edi
00004F61  63746F72          arpl [edi+ebp*2+0x72],si
00004F65  735F              jnc 0x4fc6
00004F67  61                popa
00004F68  7578              jnz 0x4fe2
00004F6A  0031              add [ecx],dh
00004F6C  383432            cmp [edx+esi],dh
00004F6F  3438              xor al,0x38
00004F71  355F313438        xor eax,0x3834315f
00004F76  3434              xor al,0x34
00004F78  39355F46656C      cmp [0x6c65465f],esi
00004F7E  69782E63707000    imul edi,[eax+0x2e],dword 0x707063
00004F85  5F                pop edi
00004F86  5A                pop edx
00004F87  53                push ebx
00004F88  744C              jz 0x4fd6
00004F8A  385F5F            cmp [edi+0x5f],bl
00004F8D  696F696E697400    imul ebp,[edi+0x69],dword 0x74696e
00004F94  5F                pop edi
00004F95  5A                pop edx
00004F96  3431              xor al,0x31
00004F98  5F                pop edi
00004F99  5F                pop edi
00004F9A  7374              jnc 0x5010
00004F9C  61                popa
00004F9D  7469              jz 0x5008
00004F9F  635F69            arpl [edi+0x69],bx
00004FA2  6E                outsb
00004FA3  697469616C697A61  imul esi,[ecx+ebp*2+0x61],dword 0x617a696c
00004FAB  7469              jz 0x5016
00004FAD  6F                outsd
00004FAE  6E                outsb
00004FAF  5F                pop edi
00004FB0  61                popa
00004FB1  6E                outsb
00004FB2  645F              fs pop edi
00004FB4  64657374          gs jnc 0x502c
00004FB8  7275              jc 0x502f
00004FBA  6374696F          arpl [ecx+ebp*2+0x6f],si
00004FBE  6E                outsb
00004FBF  5F                pop edi
00004FC0  306969            xor [ecx+0x69],ch
00004FC3  005F5A            add [edi+0x5a],bl
00004FC6  4C                dec esp
00004FC7  33494E            xor ecx,[ecx+0x4e]
00004FCA  46                inc esi
00004FCB  005F47            add [edi+0x47],bl
00004FCE  4C                dec esp
00004FCF  4F                dec edi
00004FD0  42                inc edx
00004FD1  41                inc ecx
00004FD2  4C                dec esp
00004FD3  5F                pop edi
00004FD4  5F                pop edi
00004FD5  7375              jnc 0x504c
00004FD7  625F49            bound ebx,[edi+0x49]
00004FDA  5F                pop edi
00004FDB  6D                insd
00004FDC  61                popa
00004FDD  696E00656C662D    imul ebp,[esi+0x0],dword 0x2d666c65
00004FE4  696E69742E6300    imul ebp,[esi+0x69],dword 0x632e74
00004FEB  5F                pop edi
00004FEC  47                inc edi
00004FED  4C                dec esp
00004FEE  4F                dec edi
00004FEF  42                inc edx
00004FF0  41                inc ecx
00004FF1  4C                dec esp
00004FF2  5F                pop edi
00004FF3  4F                dec edi
00004FF4  46                inc esi
00004FF5  46                inc esi
00004FF6  53                push ebx
00004FF7  45                inc ebp
00004FF8  54                push esp
00004FF9  5F                pop edi
00004FFA  54                push esp
00004FFB  41                inc ecx
00004FFC  42                inc edx
00004FFD  4C                dec esp
00004FFE  45                inc ebp
00004FFF  5F                pop edi
00005000  005F5F            add [edi+0x5f],bl
00005003  696E69745F6172    imul ebp,[esi+0x69],dword 0x72615f74
0000500A  7261              jc 0x506d
0000500C  795F              jns 0x506d
0000500E  656E              gs outsb
00005010  64005F5F          add [fs:edi+0x5f],bl
00005014  696E69745F6172    imul ebp,[esi+0x69],dword 0x72615f74
0000501B  7261              jc 0x507e
0000501D  795F              jns 0x507e
0000501F  7374              jnc 0x5095
00005021  61                popa
00005022  7274              jc 0x5098
00005024  005F44            add [edi+0x44],bl
00005027  59                pop ecx
00005028  4E                dec esi
00005029  41                inc ecx
0000502A  4D                dec ebp
0000502B  49                dec ecx
0000502C  43                inc ebx
0000502D  00646174          add [ecx+0x74],ah
00005031  61                popa
00005032  5F                pop edi
00005033  7374              jnc 0x50a9
00005035  61                popa
00005036  7274              jc 0x50ac
00005038  005F5A            add [edi+0x5a],bl
0000503B  53                push ebx
0000503C  7433              jz 0x5071
0000503E  63696E            arpl [ecx+0x6e],bp
00005041  40                inc eax
00005042  40                inc eax
00005043  47                inc edi
00005044  4C                dec esp
00005045  49                dec ecx
00005046  42                inc edx
00005047  43                inc ebx
00005048  58                pop eax
00005049  58                pop eax
0000504A  5F                pop edi
0000504B  332E              xor ebp,[esi]
0000504D  3400              xor al,0x0
0000504F  5F                pop edi
00005050  5A                pop edx
00005051  4E                dec esi
00005052  53                push ebx
00005053  7436              jz 0x508b
00005055  7665              jna 0x50bc
00005057  63746F72          arpl [edi+ebp*2+0x72],si
0000505B  49                dec ecx
0000505C  53                push ebx
0000505D  7434              jz 0x5093
0000505F  7061              jo 0x50c2
00005061  69724969694553    imul esi,[edx+0x49],dword 0x53456969
00005068  61                popa
00005069  49                dec ecx
0000506A  53                push ebx
0000506B  315F45            xor [edi+0x45],ebx
0000506E  45                inc ebp
0000506F  33656E            xor esp,[ebp+0x6e]
00005072  6445              fs inc ebp
00005074  7600              jna 0x5076
00005076  5F                pop edi
00005077  5A                pop edx
00005078  4E                dec esi
00005079  4B                dec ebx
0000507A  395F5F            cmp [edi+0x5f],ebx
0000507D  676E              a16 outsb
0000507F  755F              jnz 0x50e0
00005081  637878            arpl [eax+0x78],di
00005084  3137              xor [edi],esi
00005086  5F                pop edi
00005087  5F                pop edi
00005088  6E                outsb
00005089  6F                outsd
0000508A  726D              jc 0x50f9
0000508C  61                popa
0000508D  6C                insb
0000508E  5F                pop edi
0000508F  6974657261746F72  imul esi,[ebp+0x72],dword 0x726f7461
00005097  49                dec ecx
00005098  50                push eax
00005099  53                push ebx
0000509A  7434              jz 0x50d0
0000509C  7061              jo 0x50ff
0000509E  69724969694553    imul esi,[edx+0x49],dword 0x53456969
000050A5  7436              jz 0x50dd
000050A7  7665              jna 0x510e
000050A9  63746F72          arpl [edi+ebp*2+0x72],si
000050AD  49                dec ecx
000050AE  53                push ebx
000050AF  325F53            xor bl,[edi+0x53]
000050B2  61                popa
000050B3  49                dec ecx
000050B4  53                push ebx
000050B5  325F45            xor bl,[edi+0x45]
000050B8  45                inc ebp
000050B9  45                inc ebp
000050BA  6D                insd
000050BB  6945524B69005F    imul eax,[ebp+0x52],dword 0x5f00694b
000050C2  5A                pop edx
000050C3  53                push ebx
000050C4  7434              jz 0x50fa
000050C6  7377              jnc 0x513f
000050C8  61                popa
000050C9  7049              jo 0x5114
000050CB  53                push ebx
000050CC  7434              jz 0x5102
000050CE  7061              jo 0x5131
000050D0  69724969694545    imul esi,[edx+0x49],dword 0x45456969
000050D7  7652              jna 0x512b
000050D9  54                push esp
000050DA  5F                pop edi
000050DB  53                push ebx
000050DC  335F00            xor ebx,[edi+0x0]
000050DF  5F                pop edi
000050E0  5A                pop edx
000050E1  4E                dec esi
000050E2  53                push ebx
000050E3  6F                outsd
000050E4  6C                insb
000050E5  7345              jnc 0x512c
000050E7  694040474C4942    imul eax,[eax+0x40],dword 0x42494c47
000050EE  43                inc ebx
000050EF  58                pop eax
000050F0  58                pop eax
000050F1  5F                pop edi
000050F2  332E              xor ebp,[esi]
000050F4  3400              xor al,0x0
000050F6  5F                pop edi
000050F7  5F                pop edi
000050F8  637861            arpl [eax+0x61],di
000050FB  5F                pop edi
000050FC  61                popa
000050FD  7465              jz 0x5164
000050FF  7869              js 0x516a
00005101  7440              jz 0x5143
00005103  40                inc eax
00005104  47                inc edi
00005105  4C                dec esp
00005106  49                dec ecx
00005107  42                inc edx
00005108  43                inc ebx
00005109  5F                pop edi
0000510A  322E              xor ch,[esi]
0000510C  312E              xor [esi],ebp
0000510E  3300              xor eax,[eax]
00005110  5F                pop edi
00005111  5F                pop edi
00005112  6C                insb
00005113  6962635F637375    imul esp,[edx+0x63],dword 0x7573635f
0000511A  5F                pop edi
0000511B  66696E69005F      imul bp,[esi+0x69],word 0x5f00
00005121  5A                pop edx
00005122  4E                dec esi
00005123  395F5F            cmp [edi+0x5f],ebx
00005126  676E              a16 outsb
00005128  755F              jnz 0x5189
0000512A  637878            arpl [eax+0x78],di
0000512D  3137              xor [edi],esi
0000512F  5F                pop edi
00005130  5F                pop edi
00005131  6E                outsb
00005132  6F                outsd
00005133  726D              jc 0x51a2
00005135  61                popa
00005136  6C                insb
00005137  5F                pop edi
00005138  6974657261746F72  imul esi,[ebp+0x72],dword 0x726f7461
00005140  49                dec ecx
00005141  50                push eax
00005142  53                push ebx
00005143  7434              jz 0x5179
00005145  7061              jo 0x51a8
00005147  69724969694553    imul esi,[edx+0x49],dword 0x53456969
0000514E  7436              jz 0x5186
00005150  7665              jna 0x51b7
00005152  63746F72          arpl [edi+ebp*2+0x72],si
00005156  49                dec ecx
00005157  53                push ebx
00005158  325F53            xor bl,[edi+0x53]
0000515B  61                popa
0000515C  49                dec ecx
0000515D  53                push ebx
0000515E  325F45            xor bl,[edi+0x45]
00005161  45                inc ebp
00005162  45                inc ebp
00005163  43                inc ebx
00005164  324552            xor al,[ebp+0x52]
00005167  4B                dec ebx
00005168  53                push ebx
00005169  335F00            xor ebx,[edi+0x0]
0000516C  5F                pop edi
0000516D  5A                pop edx
0000516E  4E                dec esi
0000516F  395F5F            cmp [edi+0x5f],ebx
00005172  676E              a16 outsb
00005174  755F              jnz 0x51d5
00005176  637878            arpl [eax+0x78],di
00005179  3133              xor [ebx],esi
0000517B  6E                outsb
0000517C  65775F            gs ja 0x51de
0000517F  61                popa
00005180  6C                insb
00005181  6C                insb
00005182  6F                outsd
00005183  636174            arpl [ecx+0x74],sp
00005186  6F                outsd
00005187  7249              jc 0x51d2
00005189  53                push ebx
0000518A  7434              jz 0x51c0
0000518C  7061              jo 0x51ef
0000518E  69724969694545    imul esi,[edx+0x49],dword 0x45456969
00005195  38616C            cmp [ecx+0x6c],ah
00005198  6C                insb
00005199  6F                outsd
0000519A  636174            arpl [ecx+0x74],sp
0000519D  6545              gs inc ebp
0000519F  6A50              push byte +0x50
000051A1  4B                dec ebx
000051A2  7600              jna 0x51a4
000051A4  5F                pop edi
000051A5  7374              jnc 0x521b
000051A7  61                popa
000051A8  7274              jc 0x521e
000051AA  005F5A            add [edi+0x5a],bl
000051AD  4E                dec esi
000051AE  395F5F            cmp [edi+0x5f],ebx
000051B1  676E              a16 outsb
000051B3  755F              jnz 0x5214
000051B5  637878            arpl [eax+0x78],di
000051B8  3137              xor [edi],esi
000051BA  5F                pop edi
000051BB  5F                pop edi
000051BC  6E                outsb
000051BD  6F                outsd
000051BE  726D              jc 0x522d
000051C0  61                popa
000051C1  6C                insb
000051C2  5F                pop edi
000051C3  6974657261746F72  imul esi,[ebp+0x72],dword 0x726f7461
000051CB  49                dec ecx
000051CC  50                push eax
000051CD  53                push ebx
000051CE  7434              jz 0x5204
000051D0  7061              jo 0x5233
000051D2  69724969694553    imul esi,[edx+0x49],dword 0x53456969
000051D9  7436              jz 0x5211
000051DB  7665              jna 0x5242
000051DD  63746F72          arpl [edi+ebp*2+0x72],si
000051E1  49                dec ecx
000051E2  53                push ebx
000051E3  325F53            xor bl,[edi+0x53]
000051E6  61                popa
000051E7  49                dec ecx
000051E8  53                push ebx
000051E9  325F45            xor bl,[edi+0x45]
000051EC  45                inc ebp
000051ED  45                inc ebp
000051EE  6D                insd
000051EF  6D                insd
000051F0  45                inc ebp
000051F1  7600              jna 0x51f3
000051F3  5F                pop edi
000051F4  5A                pop edx
000051F5  53                push ebx
000051F6  746C              jz 0x5264
000051F8  7449              jz 0x5243
000051FA  69694562524B53    imul ebp,[ecx+0x45],dword 0x534b5262
00005201  7434              jz 0x5237
00005203  7061              jo 0x5266
00005205  697249545F5430    imul esi,[edx+0x49],dword 0x30545f54
0000520C  5F                pop edi
0000520D  45                inc ebp
0000520E  53                push ebx
0000520F  355F005F5A        xor eax,0x5a5f005f
00005214  53                push ebx
00005215  7434              jz 0x524b
00005217  5F                pop edi
00005218  5F                pop edi
00005219  6C                insb
0000521A  6769005F5A4E53    imul eax,[bx+si],dword 0x534e5a5f
00005221  7436              jz 0x5259
00005223  7665              jna 0x528a
00005225  63746F72          arpl [edi+ebp*2+0x72],si
00005229  49                dec ecx
0000522A  53                push ebx
0000522B  7434              jz 0x5261
0000522D  7061              jo 0x5290
0000522F  69724969694553    imul esi,[edx+0x49],dword 0x53456969
00005236  61                popa
00005237  49                dec ecx
00005238  53                push ebx
00005239  315F45            xor [edi+0x45],ebx
0000523C  45                inc ebp
0000523D  43                inc ebx
0000523E  31456A            xor [ebp+0x6a],eax
00005241  52                push edx
00005242  4B                dec ebx
00005243  53                push ebx
00005244  315F52            xor [edi+0x52],ebx
00005247  4B                dec ebx
00005248  53                push ebx
00005249  325F00            xor bl,[edi+0x0]
0000524C  5F                pop edi
0000524D  5A                pop edx
0000524E  4E                dec esi
0000524F  4B                dec ebx
00005250  395F5F            cmp [edi+0x5f],ebx
00005253  676E              a16 outsb
00005255  755F              jnz 0x52b6
00005257  637878            arpl [eax+0x78],di
0000525A  3137              xor [edi],esi
0000525C  5F                pop edi
0000525D  5F                pop edi
0000525E  6E                outsb
0000525F  6F                outsd
00005260  726D              jc 0x52cf
00005262  61                popa
00005263  6C                insb
00005264  5F                pop edi
00005265  6974657261746F72  imul esi,[ebp+0x72],dword 0x726f7461
0000526D  49                dec ecx
0000526E  50                push eax
0000526F  53                push ebx
00005270  7434              jz 0x52a6
00005272  7061              jo 0x52d5
00005274  69724969694553    imul esi,[edx+0x49],dword 0x53456969
0000527B  7436              jz 0x52b3
0000527D  7665              jna 0x52e4
0000527F  63746F72          arpl [edi+ebp*2+0x72],si
00005283  49                dec ecx
00005284  53                push ebx
00005285  325F53            xor bl,[edi+0x53]
00005288  61                popa
00005289  49                dec ecx
0000528A  53                push ebx
0000528B  325F45            xor bl,[edi+0x45]
0000528E  45                inc ebp
0000528F  45                inc ebp
00005290  646545            gs inc ebp
00005293  7600              jna 0x5295
00005295  5F                pop edi
00005296  5A                pop edx
00005297  53                push ebx
00005298  7431              jz 0x52cb
0000529A  325F5F            xor bl,[edi+0x5f]
0000529D  6D                insd
0000529E  697465725F626173  imul esi,[ebp+0x72],dword 0x7361625f
000052A6  6549              gs dec ecx
000052A8  4E                dec esi
000052A9  395F5F            cmp [edi+0x5f],ebx
000052AC  676E              a16 outsb
000052AE  755F              jnz 0x530f
000052B0  637878            arpl [eax+0x78],di
000052B3  3137              xor [edi],esi
000052B5  5F                pop edi
000052B6  5F                pop edi
000052B7  6E                outsb
000052B8  6F                outsd
000052B9  726D              jc 0x5328
000052BB  61                popa
000052BC  6C                insb
000052BD  5F                pop edi
000052BE  6974657261746F72  imul esi,[ebp+0x72],dword 0x726f7461
000052C6  49                dec ecx
000052C7  50                push eax
000052C8  53                push ebx
000052C9  7434              jz 0x52ff
000052CB  7061              jo 0x532e
000052CD  69724969694553    imul esi,[edx+0x49],dword 0x53456969
000052D4  7436              jz 0x530c
000052D6  7665              jna 0x533d
000052D8  63746F72          arpl [edi+ebp*2+0x72],si
000052DC  49                dec ecx
000052DD  53                push ebx
000052DE  335F53            xor ebx,[edi+0x53]
000052E1  61                popa
000052E2  49                dec ecx
000052E3  53                push ebx
000052E4  335F45            xor ebx,[edi+0x45]
000052E7  45                inc ebp
000052E8  45                inc ebp
000052E9  45                inc ebp
000052EA  45                inc ebp
000052EB  4E                dec esi
000052EC  53                push ebx
000052ED  7431              jz 0x5320
000052EF  315F4D            xor [edi+0x4d],ebx
000052F2  697465725F626173  imul esi,[ebp+0x72],dword 0x7361625f
000052FA  6549              gs dec ecx
000052FC  54                push esp
000052FD  5F                pop edi
000052FE  45                inc ebp
000052FF  3133              xor [ebx],esi
00005301  6974657261746F72  imul esi,[ebp+0x72],dword 0x726f7461
00005309  5F                pop edi
0000530A  7479              jz 0x5385
0000530C  7065              jo 0x5373
0000530E  45                inc ebp
0000530F  53                push ebx
00005310  41                inc ecx
00005311  5F                pop edi
00005312  005F5A            add [edi+0x5a],bl
00005315  53                push ebx
00005316  7431              jz 0x5349
00005318  315F5F            xor [edi+0x5f],ebx
0000531B  61                popa
0000531C  64647265          fs jc 0x5385
00005320  7373              jnc 0x5395
00005322  6F                outsd
00005323  6649              dec cx
00005325  53                push ebx
00005326  7434              jz 0x535c
00005328  7061              jo 0x538b
0000532A  69724969694545    imul esi,[edx+0x49],dword 0x45456969
00005331  50                push eax
00005332  54                push esp
00005333  5F                pop edi
00005334  52                push edx
00005335  53                push ebx
00005336  325F00            xor bl,[edi+0x0]
00005339  5F                pop edi
0000533A  5F                pop edi
0000533B  676D              a16 insd
0000533D  6F                outsd
0000533E  6E                outsb
0000533F  5F                pop edi
00005340  7374              jnc 0x53b6
00005342  61                popa
00005343  7274              jc 0x53b9
00005345  5F                pop edi
00005346  5F                pop edi
00005347  005F4A            add [edi+0x4a],bl
0000534A  765F              jna 0x53ab
0000534C  52                push edx
0000534D  6567697374657243  imul esi,[gs:bp+di+0x74],dword 0x6c437265
         -6C
00005356  61                popa
00005357  7373              jnc 0x53cc
00005359  657300            gs jnc 0x535c
0000535C  5F                pop edi
0000535D  66705F            o16 jo 0x53bf
00005360  6877005F5A        push dword 0x5a5f0077
00005365  4E                dec esi
00005366  53                push ebx
00005367  7431              jz 0x539a
00005369  305F49            xor [edi+0x49],bl
0000536C  7465              jz 0x53d3
0000536E  725F              jc 0x53cf
00005370  626173            bound esp,[ecx+0x73]
00005373  6549              gs dec ecx
00005375  4E                dec esi
00005376  395F5F            cmp [edi+0x5f],ebx
00005379  676E              a16 outsb
0000537B  755F              jnz 0x53dc
0000537D  637878            arpl [eax+0x78],di
00005380  3137              xor [edi],esi
00005382  5F                pop edi
00005383  5F                pop edi
00005384  6E                outsb
00005385  6F                outsd
00005386  726D              jc 0x53f5
00005388  61                popa
00005389  6C                insb
0000538A  5F                pop edi
0000538B  6974657261746F72  imul esi,[ebp+0x72],dword 0x726f7461
00005393  49                dec ecx
00005394  50                push eax
00005395  53                push ebx
00005396  7434              jz 0x53cc
00005398  7061              jo 0x53fb
0000539A  69724969694553    imul esi,[edx+0x49],dword 0x53456969
000053A1  7436              jz 0x53d9
000053A3  7665              jna 0x540a
000053A5  63746F72          arpl [edi+ebp*2+0x72],si
000053A9  49                dec ecx
000053AA  53                push ebx
000053AB  335F53            xor ebx,[edi+0x53]
000053AE  61                popa
000053AF  49                dec ecx
000053B0  53                push ebx
000053B1  335F45            xor ebx,[edi+0x45]
000053B4  45                inc ebp
000053B5  45                inc ebp
000053B6  45                inc ebp
000053B7  4C                dec esp
000053B8  6231              bound esi,[ecx]
000053BA  45                inc ebp
000053BB  45                inc ebp
000053BC  37                aaa
000053BD  5F                pop edi
000053BE  53                push ebx
000053BF  5F                pop edi
000053C0  626173            bound esp,[ecx+0x73]
000053C3  6545              gs inc ebp
000053C5  53                push ebx
000053C6  385F00            cmp [edi+0x0],bl
000053C9  5F                pop edi
000053CA  5A                pop edx
000053CB  4E                dec esi
000053CC  395F5F            cmp [edi+0x5f],ebx
000053CF  676E              a16 outsb
000053D1  755F              jnz 0x5432
000053D3  637878            arpl [eax+0x78],di
000053D6  6D                insd
000053D7  69495053743470    imul ecx,[ecx+0x50],dword 0x70347453
000053DE  61                popa
000053DF  69724969694553    imul esi,[edx+0x49],dword 0x53456969
000053E6  7436              jz 0x541e
000053E8  7665              jna 0x544f
000053EA  63746F72          arpl [edi+ebp*2+0x72],si
000053EE  49                dec ecx
000053EF  53                push ebx
000053F0  325F53            xor bl,[edi+0x53]
000053F3  61                popa
000053F4  49                dec ecx
000053F5  53                push ebx
000053F6  325F45            xor bl,[edi+0x45]
000053F9  45                inc ebp
000053FA  45                inc ebp
000053FB  45                inc ebp
000053FC  4E                dec esi
000053FD  53                push ebx
000053FE  5F                pop edi
000053FF  3137              xor [edi],esi
00005401  5F                pop edi
00005402  5F                pop edi
00005403  6E                outsb
00005404  6F                outsd
00005405  726D              jc 0x5474
00005407  61                popa
00005408  6C                insb
00005409  5F                pop edi
0000540A  6974657261746F72  imul esi,[ebp+0x72],dword 0x726f7461
00005412  49                dec ecx
00005413  54                push esp
00005414  5F                pop edi
00005415  54                push esp
00005416  305F45            xor [edi+0x45],bl
00005419  313564696666      xor [0x66666964],esi
0000541F  657265            gs jc 0x5487
00005422  6E                outsb
00005423  63655F            arpl [ebp+0x5f],sp
00005426  7479              jz 0x54a1
00005428  7065              jo 0x548f
0000542A  45                inc ebp
0000542B  52                push edx
0000542C  4B                dec ebx
0000542D  53                push ebx
0000542E  41                inc ecx
0000542F  5F                pop edi
00005430  53                push ebx
00005431  44                inc esp
00005432  5F                pop edi
00005433  005F5A            add [edi+0x5a],bl
00005436  646C              fs insb
00005438  50                push eax
00005439  7640              jna 0x547b
0000543B  40                inc eax
0000543C  47                inc edi
0000543D  4C                dec esp
0000543E  49                dec ecx
0000543F  42                inc edx
00005440  43                inc ebx
00005441  58                pop eax
00005442  58                pop eax
00005443  5F                pop edi
00005444  332E              xor ebp,[esi]
00005446  3400              xor al,0x0
00005448  5F                pop edi
00005449  5A                pop edx
0000544A  4E                dec esi
0000544B  53                push ebx
0000544C  7431              jz 0x547f
0000544E  325F56            xor bl,[edi+0x56]
00005451  6563746F72        arpl [gs:edi+ebp*2+0x72],si
00005456  5F                pop edi
00005457  626173            bound esp,[ecx+0x73]
0000545A  6549              gs dec ecx
0000545C  53                push ebx
0000545D  7434              jz 0x5493
0000545F  7061              jo 0x54c2
00005461  69724969694553    imul esi,[edx+0x49],dword 0x53456969
00005468  61                popa
00005469  49                dec ecx
0000546A  53                push ebx
0000546B  315F45            xor [edi+0x45],ebx
0000546E  45                inc ebp
0000546F  3137              xor [edi],esi
00005471  5F                pop edi
00005472  4D                dec ebp
00005473  5F                pop edi
00005474  637265            arpl [edx+0x65],si
00005477  61                popa
00005478  7465              jz 0x54df
0000547A  5F                pop edi
0000547B  7374              jnc 0x54f1
0000547D  6F                outsd
0000547E  7261              jc 0x54e1
00005480  676545            gs a16 inc ebp
00005483  6A00              push byte +0x0
00005485  5F                pop edi
00005486  66696E69005F      imul bp,[esi+0x69],word 0x5f00
0000548C  5A                pop edx
0000548D  4E                dec esi
0000548E  53                push ebx
0000548F  7438              jz 0x54c9
00005491  696F735F626173    imul ebp,[edi+0x73],dword 0x7361625f
00005498  653449            gs xor al,0x49
0000549B  6E                outsb
0000549C  6974433145764040  imul esi,[ebx+eax*2+0x31],dword 0x40407645
000054A4  47                inc edi
000054A5  4C                dec esp
000054A6  49                dec ecx
000054A7  42                inc edx
000054A8  43                inc ebx
000054A9  58                pop eax
000054AA  58                pop eax
000054AB  5F                pop edi
000054AC  332E              xor ebp,[esi]
000054AE  3400              xor al,0x0
000054B0  5F                pop edi
000054B1  5A                pop edx
000054B2  53                push ebx
000054B3  7431              jz 0x54e6
000054B5  315F5F            xor [edi+0x5f],ebx
000054B8  7075              jo 0x552f
000054BA  7368              jnc 0x5524
000054BC  5F                pop edi
000054BD  6865617049        push dword 0x49706165
000054C2  4E                dec esi
000054C3  395F5F            cmp [edi+0x5f],ebx
000054C6  676E              a16 outsb
000054C8  755F              jnz 0x5529
000054CA  637878            arpl [eax+0x78],di
000054CD  3137              xor [edi],esi
000054CF  5F                pop edi
000054D0  5F                pop edi
000054D1  6E                outsb
000054D2  6F                outsd
000054D3  726D              jc 0x5542
000054D5  61                popa
000054D6  6C                insb
000054D7  5F                pop edi
000054D8  6974657261746F72  imul esi,[ebp+0x72],dword 0x726f7461
000054E0  49                dec ecx
000054E1  50                push eax
000054E2  53                push ebx
000054E3  7434              jz 0x5519
000054E5  7061              jo 0x5548
000054E7  69724969694553    imul esi,[edx+0x49],dword 0x53456969
000054EE  7436              jz 0x5526
000054F0  7665              jna 0x5557
000054F2  63746F72          arpl [edi+ebp*2+0x72],si
000054F6  49                dec ecx
000054F7  53                push ebx
000054F8  335F53            xor ebx,[edi+0x53]
000054FB  61                popa
000054FC  49                dec ecx
000054FD  53                push ebx
000054FE  335F45            xor ebx,[edi+0x45]
00005501  45                inc ebp
00005502  45                inc ebp
00005503  45                inc ebp
00005504  6953335F457654    imul edx,[ebx+0x33],dword 0x5476455f
0000550B  5F                pop edi
0000550C  54                push esp
0000550D  305F53            xor [edi+0x53],bl
00005510  41                inc ecx
00005511  5F                pop edi
00005512  54                push esp
00005513  315F00            xor [edi+0x0],ebx
00005516  5F                pop edi
00005517  5A                pop edx
00005518  53                push ebx
00005519  7432              jz 0x554d
0000551B  30756E            xor [ebp+0x6e],dh
0000551E  696E697469616C    imul ebp,[esi+0x69],dword 0x6c616974
00005525  697A65645F6669    imul edi,[edx+0x65],dword 0x69665f64
0000552C  6C                insb
0000552D  6C                insb
0000552E  5F                pop edi
0000552F  6E                outsb
00005530  49                dec ecx
00005531  50                push eax
00005532  53                push ebx
00005533  7434              jz 0x5569
00005535  7061              jo 0x5598
00005537  6972496969456A    imul esi,[edx+0x49],dword 0x6a456969
0000553E  53                push ebx
0000553F  315F45            xor [edi+0x45],ebx
00005542  7654              jna 0x5598
00005544  5F                pop edi
00005545  54                push esp
00005546  305F52            xor [edi+0x52],bl
00005549  4B                dec ebx
0000554A  54                push esp
0000554B  315F00            xor [edi+0x0],ebx
0000554E  5F                pop edi
0000554F  5A                pop edx
00005550  53                push ebx
00005551  7434              jz 0x5587
00005553  636572            arpl [ebp+0x72],sp
00005556  7240              jc 0x5598
00005558  40                inc eax
00005559  47                inc edi
0000555A  4C                dec esp
0000555B  49                dec ecx
0000555C  42                inc edx
0000555D  43                inc ebx
0000555E  58                pop eax
0000555F  58                pop eax
00005560  5F                pop edi
00005561  332E              xor ebp,[esi]
00005563  3400              xor al,0x0
00005565  5F                pop edi
00005566  5A                pop edx
00005567  53                push ebx
00005568  7432              jz 0x559c
0000556A  37                aaa
0000556B  5F                pop edi
0000556C  5F                pop edi
0000556D  756E              jnz 0x55dd
0000556F  677561            a16 jnz 0x55d3
00005572  7264              jc 0x55d8
00005574  65645F            fs pop edi
00005577  7061              jo 0x55da
00005579  7274              jc 0x55ef
0000557B  6974696F6E5F7069  imul esi,[ecx+ebp*2+0x6f],dword 0x69705f6e
00005583  766F              jna 0x55f4
00005585  7449              jz 0x55d0
00005587  4E                dec esi
00005588  395F5F            cmp [edi+0x5f],ebx
0000558B  676E              a16 outsb
0000558D  755F              jnz 0x55ee
0000558F  637878            arpl [eax+0x78],di
00005592  3137              xor [edi],esi
00005594  5F                pop edi
00005595  5F                pop edi
00005596  6E                outsb
00005597  6F                outsd
00005598  726D              jc 0x5607
0000559A  61                popa
0000559B  6C                insb
0000559C  5F                pop edi
0000559D  6974657261746F72  imul esi,[ebp+0x72],dword 0x726f7461
000055A5  49                dec ecx
000055A6  50                push eax
000055A7  53                push ebx
000055A8  7434              jz 0x55de
000055AA  7061              jo 0x560d
000055AC  69724969694553    imul esi,[edx+0x49],dword 0x53456969
000055B3  7436              jz 0x55eb
000055B5  7665              jna 0x561c
000055B7  63746F72          arpl [edi+ebp*2+0x72],si
000055BB  49                dec ecx
000055BC  53                push ebx
000055BD  335F53            xor ebx,[edi+0x53]
000055C0  61                popa
000055C1  49                dec ecx
000055C2  53                push ebx
000055C3  335F45            xor ebx,[edi+0x45]
000055C6  45                inc ebp
000055C7  45                inc ebp
000055C8  45                inc ebp
000055C9  45                inc ebp
000055CA  54                push esp
000055CB  5F                pop edi
000055CC  53                push ebx
000055CD  395F53            cmp [edi+0x53],ebx
000055D0  395F00            cmp [edi+0x0],ebx
000055D3  5F                pop edi
000055D4  5A                pop edx
000055D5  53                push ebx
000055D6  7439              jz 0x5611
000055D8  697465725F737761  imul esi,[ebp+0x72],dword 0x6177735f
000055E0  7049              jo 0x562b
000055E2  4E                dec esi
000055E3  395F5F            cmp [edi+0x5f],ebx
000055E6  676E              a16 outsb
000055E8  755F              jnz 0x5649
000055EA  637878            arpl [eax+0x78],di
000055ED  3137              xor [edi],esi
000055EF  5F                pop edi
000055F0  5F                pop edi
000055F1  6E                outsb
000055F2  6F                outsd
000055F3  726D              jc 0x5662
000055F5  61                popa
000055F6  6C                insb
000055F7  5F                pop edi
000055F8  6974657261746F72  imul esi,[ebp+0x72],dword 0x726f7461
00005600  49                dec ecx
00005601  50                push eax
00005602  53                push ebx
00005603  7434              jz 0x5639
00005605  7061              jo 0x5668
00005607  69724969694553    imul esi,[edx+0x49],dword 0x53456969
0000560E  7436              jz 0x5646
00005610  7665              jna 0x5677
00005612  63746F72          arpl [edi+ebp*2+0x72],si
00005616  49                dec ecx
00005617  53                push ebx
00005618  335F53            xor ebx,[edi+0x53]
0000561B  61                popa
0000561C  49                dec ecx
0000561D  53                push ebx
0000561E  335F45            xor ebx,[edi+0x45]
00005621  45                inc ebp
00005622  45                inc ebp
00005623  45                inc ebp
00005624  53                push ebx
00005625  385F45            cmp [edi+0x45],bl
00005628  7654              jna 0x567e
0000562A  5F                pop edi
0000562B  54                push esp
0000562C  305F00            xor [edi+0x0],bl
0000562F  5F                pop edi
00005630  5A                pop edx
00005631  4E                dec esi
00005632  395F5F            cmp [edi+0x5f],ebx
00005635  676E              a16 outsb
00005637  755F              jnz 0x5698
00005639  637878            arpl [eax+0x78],di
0000563C  657149            gs jno 0x5688
0000563F  50                push eax
00005640  53                push ebx
00005641  7434              jz 0x5677
00005643  7061              jo 0x56a6
00005645  69724969694553    imul esi,[edx+0x49],dword 0x53456969
0000564C  7436              jz 0x5684
0000564E  7665              jna 0x56b5
00005650  63746F72          arpl [edi+ebp*2+0x72],si
00005654  49                dec ecx
00005655  53                push ebx
00005656  325F53            xor bl,[edi+0x53]
00005659  61                popa
0000565A  49                dec ecx
0000565B  53                push ebx
0000565C  325F45            xor bl,[edi+0x45]
0000565F  45                inc ebp
00005660  45                inc ebp
00005661  45                inc ebp
00005662  62524B            bound edx,[edx+0x4b]
00005665  4E                dec esi
00005666  53                push ebx
00005667  5F                pop edi
00005668  3137              xor [edi],esi
0000566A  5F                pop edi
0000566B  5F                pop edi
0000566C  6E                outsb
0000566D  6F                outsd
0000566E  726D              jc 0x56dd
00005670  61                popa
00005671  6C                insb
00005672  5F                pop edi
00005673  6974657261746F72  imul esi,[ebp+0x72],dword 0x726f7461
0000567B  49                dec ecx
0000567C  54                push esp
0000567D  5F                pop edi
0000567E  54                push esp
0000567F  305F45            xor [edi+0x45],bl
00005682  45                inc ebp
00005683  53                push ebx
00005684  43                inc ebx
00005685  5F                pop edi
00005686  005F5F            add [edi+0x5f],bl
00005689  6C                insb
0000568A  6962635F737461    imul esp,[edx+0x63],dword 0x6174735f
00005691  7274              jc 0x5707
00005693  5F                pop edi
00005694  6D                insd
00005695  61                popa
00005696  696E4040474C49    imul ebp,[esi+0x40],dword 0x494c4740
0000569D  42                inc edx
0000569E  43                inc ebx
0000569F  5F                pop edi
000056A0  322E              xor ch,[esi]
000056A2  3000              xor [eax],al
000056A4  5F                pop edi
000056A5  5A                pop edx
000056A6  4E                dec esi
000056A7  395F5F            cmp [edi+0x5f],ebx
000056AA  676E              a16 outsb
000056AC  755F              jnz 0x570d
000056AE  637878            arpl [eax+0x78],di
000056B1  3137              xor [edi],esi
000056B3  5F                pop edi
000056B4  5F                pop edi
000056B5  6E                outsb
000056B6  6F                outsd
000056B7  726D              jc 0x5726
000056B9  61                popa
000056BA  6C                insb
000056BB  5F                pop edi
000056BC  6974657261746F72  imul esi,[ebp+0x72],dword 0x726f7461
000056C4  49                dec ecx
000056C5  50                push eax
000056C6  53                push ebx
000056C7  7434              jz 0x56fd
000056C9  7061              jo 0x572c
000056CB  69724969694553    imul esi,[edx+0x49],dword 0x53456969
000056D2  7436              jz 0x570a
000056D4  7665              jna 0x573b
000056D6  63746F72          arpl [edi+ebp*2+0x72],si
000056DA  49                dec ecx
000056DB  53                push ebx
000056DC  325F53            xor bl,[edi+0x53]
000056DF  61                popa
000056E0  49                dec ecx
000056E1  53                push ebx
000056E2  325F45            xor bl,[edi+0x45]
000056E5  45                inc ebp
000056E6  45                inc ebp
000056E7  43                inc ebx
000056E8  314552            xor [ebp+0x52],eax
000056EB  4B                dec ebx
000056EC  53                push ebx
000056ED  335F00            xor ebx,[edi+0x0]
000056F0  5F                pop edi
000056F1  5A                pop edx
000056F2  4E                dec esi
000056F3  53                push ebx
000056F4  7431              jz 0x5727
000056F6  325F56            xor bl,[edi+0x56]
000056F9  6563746F72        arpl [gs:edi+ebp*2+0x72],si
000056FE  5F                pop edi
000056FF  626173            bound esp,[ecx+0x73]
00005702  6549              gs dec ecx
00005704  53                push ebx
00005705  7434              jz 0x573b
00005707  7061              jo 0x576a
00005709  69724969694553    imul esi,[edx+0x49],dword 0x53456969
00005710  61                popa
00005711  49                dec ecx
00005712  53                push ebx
00005713  315F45            xor [edi+0x45],ebx
00005716  45                inc ebp
00005717  3132              xor [edx],esi
00005719  5F                pop edi
0000571A  56                push esi
0000571B  6563746F72        arpl [gs:edi+ebp*2+0x72],si
00005720  5F                pop edi
00005721  696D706C433245    imul ebp,[ebp+0x70],dword 0x4532436c
00005728  52                push edx
00005729  4B                dec ebx
0000572A  53                push ebx
0000572B  325F00            xor bl,[edi+0x0]
0000572E  5F                pop edi
0000572F  5A                pop edx
00005730  53                push ebx
00005731  7432              jz 0x5765
00005733  355F5F756E        xor eax,0x6e755f5f
00005738  677561            a16 jnz 0x579c
0000573B  7264              jc 0x57a1
0000573D  65645F            fs pop edi
00005740  6C                insb
00005741  696E6561725F69    imul ebp,[esi+0x65],dword 0x695f7261
00005748  6E                outsb
00005749  7365              jnc 0x57b0
0000574B  7274              jc 0x57c1
0000574D  49                dec ecx
0000574E  4E                dec esi
0000574F  395F5F            cmp [edi+0x5f],ebx
00005752  676E              a16 outsb
00005754  755F              jnz 0x57b5
00005756  637878            arpl [eax+0x78],di
00005759  3137              xor [edi],esi
0000575B  5F                pop edi
0000575C  5F                pop edi
0000575D  6E                outsb
0000575E  6F                outsd
0000575F  726D              jc 0x57ce
00005761  61                popa
00005762  6C                insb
00005763  5F                pop edi
00005764  6974657261746F72  imul esi,[ebp+0x72],dword 0x726f7461
0000576C  49                dec ecx
0000576D  50                push eax
0000576E  53                push ebx
0000576F  7434              jz 0x57a5
00005771  7061              jo 0x57d4
00005773  69724969694553    imul esi,[edx+0x49],dword 0x53456969
0000577A  7436              jz 0x57b2
0000577C  7665              jna 0x57e3
0000577E  63746F72          arpl [edi+ebp*2+0x72],si
00005782  49                dec ecx
00005783  53                push ebx
00005784  335F53            xor ebx,[edi+0x53]
00005787  61                popa
00005788  49                dec ecx
00005789  53                push ebx
0000578A  335F45            xor ebx,[edi+0x45]
0000578D  45                inc ebp
0000578E  45                inc ebp
0000578F  45                inc ebp
00005790  45                inc ebp
00005791  7654              jna 0x57e7
00005793  5F                pop edi
00005794  005F5A            add [edi+0x5a],bl
00005797  4E                dec esi
00005798  53                push ebx
00005799  7431              jz 0x57cc
0000579B  325F56            xor bl,[edi+0x56]
0000579E  6563746F72        arpl [gs:edi+ebp*2+0x72],si
000057A3  5F                pop edi
000057A4  626173            bound esp,[ecx+0x73]
000057A7  6549              gs dec ecx
000057A9  53                push ebx
000057AA  7434              jz 0x57e0
000057AC  7061              jo 0x580f
000057AE  69724969694553    imul esi,[edx+0x49],dword 0x53456969
000057B5  61                popa
000057B6  49                dec ecx
000057B7  53                push ebx
000057B8  315F45            xor [edi+0x45],ebx
000057BB  45                inc ebp
000057BC  3132              xor [edx],esi
000057BE  5F                pop edi
000057BF  56                push esi
000057C0  6563746F72        arpl [gs:edi+ebp*2+0x72],si
000057C5  5F                pop edi
000057C6  696D706C433145    imul ebp,[ebp+0x70],dword 0x4531436c
000057CD  52                push edx
000057CE  4B                dec ebx
000057CF  53                push ebx
000057D0  325F00            xor bl,[edi+0x0]
000057D3  5F                pop edi
000057D4  5A                pop edx
000057D5  53                push ebx
000057D6  7434              jz 0x580c
000057D8  736F              jnc 0x5849
000057DA  7274              jc 0x5850
000057DC  49                dec ecx
000057DD  4E                dec esi
000057DE  395F5F            cmp [edi+0x5f],ebx
000057E1  676E              a16 outsb
000057E3  755F              jnz 0x5844
000057E5  637878            arpl [eax+0x78],di
000057E8  3137              xor [edi],esi
000057EA  5F                pop edi
000057EB  5F                pop edi
000057EC  6E                outsb
000057ED  6F                outsd
000057EE  726D              jc 0x585d
000057F0  61                popa
000057F1  6C                insb
000057F2  5F                pop edi
000057F3  6974657261746F72  imul esi,[ebp+0x72],dword 0x726f7461
000057FB  49                dec ecx
000057FC  50                push eax
000057FD  53                push ebx
000057FE  7434              jz 0x5834
00005800  7061              jo 0x5863
00005802  69724969694553    imul esi,[edx+0x49],dword 0x53456969
00005809  7436              jz 0x5841
0000580B  7665              jna 0x5872
0000580D  63746F72          arpl [edi+ebp*2+0x72],si
00005811  49                dec ecx
00005812  53                push ebx
00005813  335F53            xor ebx,[edi+0x53]
00005816  61                popa
00005817  49                dec ecx
00005818  53                push ebx
00005819  335F45            xor ebx,[edi+0x45]
0000581C  45                inc ebp
0000581D  45                inc ebp
0000581E  45                inc ebp
0000581F  45                inc ebp
00005820  7654              jna 0x5876
00005822  5F                pop edi
00005823  53                push ebx
00005824  395F00            cmp [edi+0x0],ebx
00005827  5F                pop edi
00005828  5A                pop edx
00005829  4E                dec esi
0000582A  53                push ebx
0000582B  7431              jz 0x585e
0000582D  325F56            xor bl,[edi+0x56]
00005830  6563746F72        arpl [gs:edi+ebp*2+0x72],si
00005835  5F                pop edi
00005836  626173            bound esp,[ecx+0x73]
00005839  6549              gs dec ecx
0000583B  53                push ebx
0000583C  7434              jz 0x5872
0000583E  7061              jo 0x58a1
00005840  69724969694553    imul esi,[edx+0x49],dword 0x53456969
00005847  61                popa
00005848  49                dec ecx
00005849  53                push ebx
0000584A  315F45            xor [edi+0x45],ebx
0000584D  45                inc ebp
0000584E  43                inc ebx
0000584F  31456A            xor [ebp+0x6a],eax
00005852  52                push edx
00005853  4B                dec ebx
00005854  53                push ebx
00005855  325F00            xor bl,[edi+0x0]
00005858  5F                pop edi
00005859  5A                pop edx
0000585A  4E                dec esi
0000585B  395F5F            cmp [edi+0x5f],ebx
0000585E  676E              a16 outsb
00005860  755F              jnz 0x58c1
00005862  637878            arpl [eax+0x78],di
00005865  3133              xor [ebx],esi
00005867  6E                outsb
00005868  65775F            gs ja 0x58ca
0000586B  61                popa
0000586C  6C                insb
0000586D  6C                insb
0000586E  6F                outsd
0000586F  636174            arpl [ecx+0x74],sp
00005872  6F                outsd
00005873  7249              jc 0x58be
00005875  53                push ebx
00005876  7434              jz 0x58ac
00005878  7061              jo 0x58db
0000587A  69724969694545    imul esi,[edx+0x49],dword 0x45456969
00005881  44                inc esp
00005882  314576            xor [ebp+0x76],eax
00005885  005F5A            add [edi+0x5a],bl
00005888  4E                dec esi
00005889  53                push ebx
0000588A  7431              jz 0x58bd
0000588C  325F56            xor bl,[edi+0x56]
0000588F  6563746F72        arpl [gs:edi+ebp*2+0x72],si
00005894  5F                pop edi
00005895  626173            bound esp,[ecx+0x73]
00005898  6549              gs dec ecx
0000589A  53                push ebx
0000589B  7434              jz 0x58d1
0000589D  7061              jo 0x5900
0000589F  69724969694553    imul esi,[edx+0x49],dword 0x53456969
000058A6  61                popa
000058A7  49                dec ecx
000058A8  53                push ebx
000058A9  315F45            xor [edi+0x45],ebx
000058AC  45                inc ebp
000058AD  3139              xor [ecx],edi
000058AF  5F                pop edi
000058B0  4D                dec ebp
000058B1  5F                pop edi
000058B2  6765745F          gs a16 jz 0x5915
000058B6  54                push esp
000058B7  705F              jo 0x5918
000058B9  61                popa
000058BA  6C                insb
000058BB  6C                insb
000058BC  6F                outsd
000058BD  636174            arpl [ecx+0x74],sp
000058C0  6F                outsd
000058C1  7245              jc 0x5908
000058C3  7600              jna 0x58c5
000058C5  5F                pop edi
000058C6  5A                pop edx
000058C7  4E                dec esi
000058C8  53                push ebx
000058C9  7431              jz 0x58fc
000058CB  305F49            xor [edi+0x49],bl
000058CE  7465              jz 0x5935
000058D0  725F              jc 0x5931
000058D2  626173            bound esp,[ecx+0x73]
000058D5  6549              gs dec ecx
000058D7  4E                dec esi
000058D8  395F5F            cmp [edi+0x5f],ebx
000058DB  676E              a16 outsb
000058DD  755F              jnz 0x593e
000058DF  637878            arpl [eax+0x78],di
000058E2  3137              xor [edi],esi
000058E4  5F                pop edi
000058E5  5F                pop edi
000058E6  6E                outsb
000058E7  6F                outsd
000058E8  726D              jc 0x5957
000058EA  61                popa
000058EB  6C                insb
000058EC  5F                pop edi
000058ED  6974657261746F72  imul esi,[ebp+0x72],dword 0x726f7461
000058F5  49                dec ecx
000058F6  50                push eax
000058F7  53                push ebx
000058F8  7434              jz 0x592e
000058FA  7061              jo 0x595d
000058FC  69724969694553    imul esi,[edx+0x49],dword 0x53456969
00005903  7436              jz 0x593b
00005905  7665              jna 0x596c
00005907  63746F72          arpl [edi+ebp*2+0x72],si
0000590B  49                dec ecx
0000590C  53                push ebx
0000590D  335F53            xor ebx,[edi+0x53]
00005910  61                popa
00005911  49                dec ecx
00005912  53                push ebx
00005913  335F45            xor ebx,[edi+0x45]
00005916  45                inc ebp
00005917  45                inc ebp
00005918  45                inc ebp
00005919  4C                dec esp
0000591A  6230              bound esi,[eax]
0000591C  45                inc ebp
0000591D  45                inc ebp
0000591E  37                aaa
0000591F  5F                pop edi
00005920  53                push ebx
00005921  5F                pop edi
00005922  626173            bound esp,[ecx+0x73]
00005925  6545              gs inc ebp
00005927  53                push ebx
00005928  385F00            cmp [edi+0x0],bl
0000592B  5F                pop edi
0000592C  5A                pop edx
0000592D  53                push ebx
0000592E  7431              jz 0x5961
00005930  365F              ss pop edi
00005932  5F                pop edi
00005933  696E74726F736F    imul ebp,[esi+0x74],dword 0x6f736f72
0000593A  7274              jc 0x59b0
0000593C  5F                pop edi
0000593D  6C                insb
0000593E  6F                outsd
0000593F  6F                outsd
00005940  7049              jo 0x598b
00005942  4E                dec esi
00005943  395F5F            cmp [edi+0x5f],ebx
00005946  676E              a16 outsb
00005948  755F              jnz 0x59a9
0000594A  637878            arpl [eax+0x78],di
0000594D  3137              xor [edi],esi
0000594F  5F                pop edi
00005950  5F                pop edi
00005951  6E                outsb
00005952  6F                outsd
00005953  726D              jc 0x59c2
00005955  61                popa
00005956  6C                insb
00005957  5F                pop edi
00005958  6974657261746F72  imul esi,[ebp+0x72],dword 0x726f7461
00005960  49                dec ecx
00005961  50                push eax
00005962  53                push ebx
00005963  7434              jz 0x5999
00005965  7061              jo 0x59c8
00005967  69724969694553    imul esi,[edx+0x49],dword 0x53456969
0000596E  7436              jz 0x59a6
00005970  7665              jna 0x59d7
00005972  63746F72          arpl [edi+ebp*2+0x72],si
00005976  49                dec ecx
00005977  53                push ebx
00005978  335F53            xor ebx,[edi+0x53]
0000597B  61                popa
0000597C  49                dec ecx
0000597D  53                push ebx
0000597E  335F45            xor ebx,[edi+0x45]
00005981  45                inc ebp
00005982  45                inc ebp
00005983  45                inc ebp
00005984  694576545F5339    imul eax,[ebp+0x76],dword 0x39535f54
0000598B  5F                pop edi
0000598C  54                push esp
0000598D  305F00            xor [edi+0x0],bl
00005990  5F                pop edi
00005991  5A                pop edx
00005992  4E                dec esi
00005993  53                push ebx
00005994  61                popa
00005995  49                dec ecx
00005996  53                push ebx
00005997  7434              jz 0x59cd
00005999  7061              jo 0x59fc
0000599B  69724969694545    imul esi,[edx+0x49],dword 0x45456969
000059A2  44                inc esp
000059A3  314576            xor [ebp+0x76],eax
000059A6  005F5A            add [edi+0x5a],bl
000059A9  4E                dec esi
000059AA  53                push ebx
000059AB  7438              jz 0x59e5
000059AD  696F735F626173    imul ebp,[edi+0x73],dword 0x7361625f
000059B4  653449            gs xor al,0x49
000059B7  6E                outsb
000059B8  6974443145764040  imul esi,[esp+eax*2+0x31],dword 0x40407645
000059C0  47                inc edi
000059C1  4C                dec esp
000059C2  49                dec ecx
000059C3  42                inc edx
000059C4  43                inc ebx
000059C5  58                pop eax
000059C6  58                pop eax
000059C7  5F                pop edi
000059C8  332E              xor ebp,[esi]
000059CA  3400              xor al,0x0
000059CC  5F                pop edi
000059CD  49                dec ecx
000059CE  54                push esp
000059CF  4D                dec ebp
000059D0  5F                pop edi
000059D1  64657265          gs jc 0x5a3a
000059D5  676973746572544D  imul esi,[bp+di+0x74],dword 0x4d547265
000059DD  43                inc ebx
000059DE  6C                insb
000059DF  6F                outsd
000059E0  6E                outsb
000059E1  6554              gs push esp
000059E3  61                popa
000059E4  626C6500          bound ebp,[ebp+0x0]
000059E8  5F                pop edi
000059E9  5A                pop edx
000059EA  53                push ebx
000059EB  746C              jz 0x5a59
000059ED  7349              jnc 0x5a38
000059EF  53                push ebx
000059F0  7431              jz 0x5a23
000059F2  316368            xor [ebx+0x68],esp
000059F5  61                popa
000059F6  725F              jc 0x5a57
000059F8  7472              jz 0x5a6c
000059FA  61                popa
000059FB  6974734963454552  imul esi,[ebx+esi*2+0x49],dword 0x52454563
00005A03  53                push ebx
00005A04  7431              jz 0x5a37
00005A06  336261            xor esp,[edx+0x61]
00005A09  7369              jnc 0x5a74
00005A0B  635F6F            arpl [edi+0x6f],bx
00005A0E  7374              jnc 0x5a84
00005A10  7265              jc 0x5a77
00005A12  61                popa
00005A13  6D                insd
00005A14  49                dec ecx
00005A15  63545F45          arpl [edi+ebx*2+0x45],dx
00005A19  53                push ebx
00005A1A  355F504B63        xor eax,0x634b505f
00005A1F  40                inc eax
00005A20  40                inc eax
00005A21  47                inc edi
00005A22  4C                dec esp
00005A23  49                dec ecx
00005A24  42                inc edx
00005A25  43                inc ebx
00005A26  58                pop eax
00005A27  58                pop eax
00005A28  5F                pop edi
00005A29  332E              xor ebp,[esi]
00005A2B  3400              xor al,0x0
00005A2D  5F                pop edi
00005A2E  5A                pop edx
00005A2F  4E                dec esi
00005A30  53                push ebx
00005A31  61                popa
00005A32  49                dec ecx
00005A33  53                push ebx
00005A34  7434              jz 0x5a6a
00005A36  7061              jo 0x5a99
00005A38  69724969694545    imul esi,[edx+0x49],dword 0x45456969
00005A3F  43                inc ebx
00005A40  314552            xor [ebp+0x52],eax
00005A43  4B                dec ebx
00005A44  53                push ebx
00005A45  315F00            xor [edi+0x0],ebx
00005A48  5F                pop edi
00005A49  5A                pop edx
00005A4A  4E                dec esi
00005A4B  53                push ebx
00005A4C  7436              jz 0x5a84
00005A4E  7665              jna 0x5ab5
00005A50  63746F72          arpl [edi+ebp*2+0x72],si
00005A54  49                dec ecx
00005A55  53                push ebx
00005A56  7434              jz 0x5a8c
00005A58  7061              jo 0x5abb
00005A5A  69724969694553    imul esi,[edx+0x49],dword 0x53456969
00005A61  61                popa
00005A62  49                dec ecx
00005A63  53                push ebx
00005A64  315F45            xor [edi+0x45],ebx
00005A67  45                inc ebp
00005A68  3138              xor [eax],edi
00005A6A  5F                pop edi
00005A6B  4D                dec ebp
00005A6C  5F                pop edi
00005A6D  66696C6C5F696E    imul bp,[esp+ebp*2+0x5f],word 0x6e69
00005A74  697469616C697A65  imul esi,[ecx+ebp*2+0x61],dword 0x657a696c
00005A7C  45                inc ebp
00005A7D  6A52              push byte +0x52
00005A7F  4B                dec ebx
00005A80  53                push ebx
00005A81  315F00            xor [edi+0x0],ebx
00005A84  5F                pop edi
00005A85  49                dec ecx
00005A86  4F                dec edi
00005A87  5F                pop edi
00005A88  7374              jnc 0x5afe
00005A8A  64696E5F75736564  imul ebp,[fs:esi+0x5f],dword 0x64657375
00005A92  005F5A            add [edi+0x5a],bl
00005A95  4E                dec esi
00005A96  53                push ebx
00005A97  7434              jz 0x5acd
00005A99  7061              jo 0x5afc
00005A9B  69724969694543    imul esi,[edx+0x49],dword 0x43456969
00005AA2  324576            xor al,[ebp+0x76]
00005AA5  005F5A            add [edi+0x5a],bl
00005AA8  6E                outsb
00005AA9  776A              ja 0x5b15
00005AAB  50                push eax
00005AAC  7600              jna 0x5aae
00005AAE  5F                pop edi
00005AAF  5A                pop edx
00005AB0  4E                dec esi
00005AB1  395F5F            cmp [edi+0x5f],ebx
00005AB4  676E              a16 outsb
00005AB6  755F              jnz 0x5b17
00005AB8  637878            arpl [eax+0x78],di
00005ABB  3133              xor [ebx],esi
00005ABD  6E                outsb
00005ABE  65775F            gs ja 0x5b20
00005AC1  61                popa
00005AC2  6C                insb
00005AC3  6C                insb
00005AC4  6F                outsd
00005AC5  636174            arpl [ecx+0x74],sp
00005AC8  6F                outsd
00005AC9  7249              jc 0x5b14
00005ACB  53                push ebx
00005ACC  7434              jz 0x5b02
00005ACE  7061              jo 0x5b31
00005AD0  69724969694545    imul esi,[edx+0x49],dword 0x45456969
00005AD7  43                inc ebx
00005AD8  324576            xor al,[ebp+0x76]
00005ADB  005F5A            add [edi+0x5a],bl
00005ADE  4E                dec esi
00005ADF  53                push ebx
00005AE0  7431              jz 0x5b13
00005AE2  325F56            xor bl,[edi+0x56]
00005AE5  6563746F72        arpl [gs:edi+ebp*2+0x72],si
00005AEA  5F                pop edi
00005AEB  626173            bound esp,[ecx+0x73]
00005AEE  6549              gs dec ecx
00005AF0  53                push ebx
00005AF1  7434              jz 0x5b27
00005AF3  7061              jo 0x5b56
00005AF5  69724969694553    imul esi,[edx+0x49],dword 0x53456969
00005AFC  61                popa
00005AFD  49                dec ecx
00005AFE  53                push ebx
00005AFF  315F45            xor [edi+0x45],ebx
00005B02  45                inc ebp
00005B03  3133              xor [ebx],esi
00005B05  5F                pop edi
00005B06  4D                dec ebp
00005B07  5F                pop edi
00005B08  646561            gs popa
00005B0B  6C                insb
00005B0C  6C                insb
00005B0D  6F                outsd
00005B0E  636174            arpl [ecx+0x74],sp
00005B11  6545              gs inc ebp
00005B13  50                push eax
00005B14  53                push ebx
00005B15  315F6A            xor [edi+0x6a],ebx
00005B18  005F49            add [edi+0x49],bl
00005B1B  54                push esp
00005B1C  4D                dec ebp
00005B1D  5F                pop edi
00005B1E  7265              jc 0x5b85
00005B20  676973746572544D  imul esi,[bp+di+0x74],dword 0x4d547265
00005B28  43                inc ebx
00005B29  6C                insb
00005B2A  6F                outsd
00005B2B  6E                outsb
00005B2C  6554              gs push esp
00005B2E  61                popa
00005B2F  626C6500          bound ebp,[ebp+0x0]
00005B33  5F                pop edi
00005B34  5F                pop edi
00005B35  6461              fs popa
00005B37  7461              jz 0x5b9a
00005B39  5F                pop edi
00005B3A  7374              jnc 0x5bb0
00005B3C  61                popa
00005B3D  7274              jc 0x5bb3
00005B3F  005F5A            add [edi+0x5a],bl
00005B42  4E                dec esi
00005B43  53                push ebx
00005B44  7436              jz 0x5b7c
00005B46  7665              jna 0x5bad
00005B48  63746F72          arpl [edi+ebp*2+0x72],si
00005B4C  49                dec ecx
00005B4D  53                push ebx
00005B4E  7434              jz 0x5b84
00005B50  7061              jo 0x5bb3
00005B52  69724969694553    imul esi,[edx+0x49],dword 0x53456969
00005B59  61                popa
00005B5A  49                dec ecx
00005B5B  53                push ebx
00005B5C  315F45            xor [edi+0x45],ebx
00005B5F  45                inc ebp
00005B60  44                inc esp
00005B61  314576            xor [ebp+0x76],eax
00005B64  005F5A            add [edi+0x5a],bl
00005B67  53                push ebx
00005B68  7432              jz 0x5b9c
00005B6A  335F5F            xor ebx,[edi+0x5f]
00005B6D  636F70            arpl [edi+0x70],bp
00005B70  795F              jns 0x5bd1
00005B72  6D                insd
00005B73  6F                outsd
00005B74  7665              jna 0x5bdb
00005B76  5F                pop edi
00005B77  626163            bound esp,[ecx+0x63]
00005B7A  6B776172          imul esi,[edi+0x61],byte +0x72
00005B7E  645F              fs pop edi
00005B80  61                popa
00005B81  32494C            xor cl,[ecx+0x4c]
00005B84  6230              bound esi,[eax]
00005B86  45                inc ebp
00005B87  4E                dec esi
00005B88  395F5F            cmp [edi+0x5f],ebx
00005B8B  676E              a16 outsb
00005B8D  755F              jnz 0x5bee
00005B8F  637878            arpl [eax+0x78],di
00005B92  3137              xor [edi],esi
00005B94  5F                pop edi
00005B95  5F                pop edi
00005B96  6E                outsb
00005B97  6F                outsd
00005B98  726D              jc 0x5c07
00005B9A  61                popa
00005B9B  6C                insb
00005B9C  5F                pop edi
00005B9D  6974657261746F72  imul esi,[ebp+0x72],dword 0x726f7461
00005BA5  49                dec ecx
00005BA6  50                push eax
00005BA7  53                push ebx
00005BA8  7434              jz 0x5bde
00005BAA  7061              jo 0x5c0d
00005BAC  69724969694553    imul esi,[edx+0x49],dword 0x53456969
00005BB3  7436              jz 0x5beb
00005BB5  7665              jna 0x5c1c
00005BB7  63746F72          arpl [edi+ebp*2+0x72],si
00005BBB  49                dec ecx
00005BBC  53                push ebx
00005BBD  335F53            xor ebx,[edi+0x53]
00005BC0  61                popa
00005BC1  49                dec ecx
00005BC2  53                push ebx
00005BC3  335F45            xor ebx,[edi+0x45]
00005BC6  45                inc ebp
00005BC7  45                inc ebp
00005BC8  45                inc ebp
00005BC9  53                push ebx
00005BCA  385F45            cmp [edi+0x45],bl
00005BCD  54                push esp
00005BCE  315F54            xor [edi+0x54],ebx
00005BD1  305F53            xor [edi+0x53],bl
00005BD4  41                inc ecx
00005BD5  5F                pop edi
00005BD6  53                push ebx
00005BD7  395F00            cmp [edi+0x0],ebx
00005BDA  5F                pop edi
00005BDB  5A                pop edx
00005BDC  4E                dec esi
00005BDD  53                push ebx
00005BDE  7432              jz 0x5c12
00005BE0  325F5F            xor bl,[edi+0x5f]
00005BE3  756E              jnz 0x5c53
00005BE5  696E697469616C    imul ebp,[esi+0x69],dword 0x6c616974
00005BEC  697A65645F6669    imul edi,[edx+0x65],dword 0x69665f64
00005BF3  6C                insb
00005BF4  6C                insb
00005BF5  5F                pop edi
00005BF6  6E                outsb
00005BF7  49                dec ecx
00005BF8  4C                dec esp
00005BF9  6230              bound esi,[eax]
00005BFB  45                inc ebp
00005BFC  45                inc ebp
00005BFD  31355F5F756E      xor [0x6e755f5f],esi
00005C03  696E69745F6669    imul ebp,[esi+0x69],dword 0x69665f74
00005C0A  6C                insb
00005C0B  6C                insb
00005C0C  5F                pop edi
00005C0D  6E                outsb
00005C0E  49                dec ecx
00005C0F  50                push eax
00005C10  53                push ebx
00005C11  7434              jz 0x5c47
00005C13  7061              jo 0x5c76
00005C15  6972496969456A    imul esi,[edx+0x49],dword 0x6a456969
00005C1C  53                push ebx
00005C1D  335F45            xor ebx,[edi+0x45]
00005C20  45                inc ebp
00005C21  7654              jna 0x5c77
00005C23  5F                pop edi
00005C24  54                push esp
00005C25  305F52            xor [edi+0x52],bl
00005C28  4B                dec ebx
00005C29  54                push esp
00005C2A  315F00            xor [edi+0x0],ebx
00005C2D  5F                pop edi
00005C2E  5A                pop edx
00005C2F  4E                dec esi
00005C30  53                push ebx
00005C31  7431              jz 0x5c64
00005C33  325F56            xor bl,[edi+0x56]
00005C36  6563746F72        arpl [gs:edi+ebp*2+0x72],si
00005C3B  5F                pop edi
00005C3C  626173            bound esp,[ecx+0x73]
00005C3F  6549              gs dec ecx
00005C41  53                push ebx
00005C42  7434              jz 0x5c78
00005C44  7061              jo 0x5ca7
00005C46  69724969694553    imul esi,[edx+0x49],dword 0x53456969
00005C4D  61                popa
00005C4E  49                dec ecx
00005C4F  53                push ebx
00005C50  315F45            xor [edi+0x45],ebx
00005C53  45                inc ebp
00005C54  3132              xor [edx],esi
00005C56  5F                pop edi
00005C57  56                push esi
00005C58  6563746F72        arpl [gs:edi+ebp*2+0x72],si
00005C5D  5F                pop edi
00005C5E  696D706C443245    imul ebp,[ebp+0x70],dword 0x4532446c
00005C65  7600              jna 0x5c67
00005C67  5F                pop edi
00005C68  5A                pop edx
00005C69  53                push ebx
00005C6A  7432              jz 0x5c9e
00005C6C  345F              xor al,0x5f
00005C6E  5F                pop edi
00005C6F  756E              jnz 0x5cdf
00005C71  696E697469616C    imul ebp,[esi+0x69],dword 0x6c616974
00005C78  697A65645F6669    imul edi,[edx+0x65],dword 0x69665f64
00005C7F  6C                insb
00005C80  6C                insb
00005C81  5F                pop edi
00005C82  6E                outsb
00005C83  5F                pop edi
00005C84  61                popa
00005C85  49                dec ecx
00005C86  50                push eax
00005C87  53                push ebx
00005C88  7434              jz 0x5cbe
00005C8A  7061              jo 0x5ced
00005C8C  6972496969456A    imul esi,[edx+0x49],dword 0x6a456969
00005C93  53                push ebx
00005C94  315F53            xor [edi+0x53],ebx
00005C97  315F45            xor [edi+0x45],ebx
00005C9A  7654              jna 0x5cf0
00005C9C  5F                pop edi
00005C9D  54                push esp
00005C9E  305F52            xor [edi+0x52],bl
00005CA1  4B                dec ebx
00005CA2  54                push esp
00005CA3  315F52            xor [edi+0x52],ebx
00005CA6  53                push ebx
00005CA7  61                popa
00005CA8  49                dec ecx
00005CA9  54                push esp
00005CAA  325F45            xor bl,[edi+0x45]
00005CAD  005F5A            add [edi+0x5a],bl
00005CB0  4E                dec esi
00005CB1  4B                dec ebx
00005CB2  395F5F            cmp [edi+0x5f],ebx
00005CB5  676E              a16 outsb
00005CB7  755F              jnz 0x5d18
00005CB9  637878            arpl [eax+0x78],di
00005CBC  3133              xor [ebx],esi
00005CBE  6E                outsb
00005CBF  65775F            gs ja 0x5d21
00005CC2  61                popa
00005CC3  6C                insb
00005CC4  6C                insb
00005CC5  6F                outsd
00005CC6  636174            arpl [ecx+0x74],sp
00005CC9  6F                outsd
00005CCA  7249              jc 0x5d15
00005CCC  53                push ebx
00005CCD  7434              jz 0x5d03
00005CCF  7061              jo 0x5d32
00005CD1  69724969694545    imul esi,[edx+0x49],dword 0x45456969
00005CD8  386D61            cmp [ebp+0x61],ch
00005CDB  785F              js 0x5d3c
00005CDD  7369              jnc 0x5d48
00005CDF  7A65              jpe 0x5d46
00005CE1  45                inc ebp
00005CE2  7600              jna 0x5ce4
00005CE4  5F                pop edi
00005CE5  5A                pop edx
00005CE6  4E                dec esi
00005CE7  53                push ebx
00005CE8  61                popa
00005CE9  49                dec ecx
00005CEA  53                push ebx
00005CEB  7434              jz 0x5d21
00005CED  7061              jo 0x5d50
00005CEF  69724969694545    imul esi,[edx+0x49],dword 0x45456969
00005CF6  43                inc ebx
00005CF7  324552            xor al,[ebp+0x52]
00005CFA  4B                dec ebx
00005CFB  53                push ebx
00005CFC  315F00            xor [edi+0x0],ebx
00005CFF  5F                pop edi
00005D00  5A                pop edx
00005D01  53                push ebx
00005D02  7432              jz 0x5d36
00005D04  365F              ss pop edi
00005D06  5F                pop edi
00005D07  756E              jnz 0x5d77
00005D09  677561            a16 jnz 0x5d6d
00005D0C  7264              jc 0x5d72
00005D0E  65645F            fs pop edi
00005D11  696E7365727469    imul ebp,[esi+0x73],dword 0x69747265
00005D18  6F                outsd
00005D19  6E                outsb
00005D1A  5F                pop edi
00005D1B  736F              jnc 0x5d8c
00005D1D  7274              jc 0x5d93
00005D1F  49                dec ecx
00005D20  4E                dec esi
00005D21  395F5F            cmp [edi+0x5f],ebx
00005D24  676E              a16 outsb
00005D26  755F              jnz 0x5d87
00005D28  637878            arpl [eax+0x78],di
00005D2B  3137              xor [edi],esi
00005D2D  5F                pop edi
00005D2E  5F                pop edi
00005D2F  6E                outsb
00005D30  6F                outsd
00005D31  726D              jc 0x5da0
00005D33  61                popa
00005D34  6C                insb
00005D35  5F                pop edi
00005D36  6974657261746F72  imul esi,[ebp+0x72],dword 0x726f7461
00005D3E  49                dec ecx
00005D3F  50                push eax
00005D40  53                push ebx
00005D41  7434              jz 0x5d77
00005D43  7061              jo 0x5da6
00005D45  69724969694553    imul esi,[edx+0x49],dword 0x53456969
00005D4C  7436              jz 0x5d84
00005D4E  7665              jna 0x5db5
00005D50  63746F72          arpl [edi+ebp*2+0x72],si
00005D54  49                dec ecx
00005D55  53                push ebx
00005D56  335F53            xor ebx,[edi+0x53]
00005D59  61                popa
00005D5A  49                dec ecx
00005D5B  53                push ebx
00005D5C  335F45            xor ebx,[edi+0x45]
00005D5F  45                inc ebp
00005D60  45                inc ebp
00005D61  45                inc ebp
00005D62  45                inc ebp
00005D63  7654              jna 0x5db9
00005D65  5F                pop edi
00005D66  53                push ebx
00005D67  395F00            cmp [edi+0x0],ebx
00005D6A  5F                pop edi
00005D6B  5F                pop edi
00005D6C  54                push esp
00005D6D  4D                dec ebp
00005D6E  43                inc ebx
00005D6F  5F                pop edi
00005D70  45                inc ebp
00005D71  4E                dec esi
00005D72  44                inc esp
00005D73  5F                pop edi
00005D74  5F                pop edi
00005D75  005F5A            add [edi+0x5a],bl
00005D78  53                push ebx
00005D79  7431              jz 0x5dac
00005D7B  305F43            xor [edi+0x43],bl
00005D7E  6F                outsd
00005D7F  6E                outsb
00005D80  7374              jnc 0x5df6
00005D82  7275              jc 0x5df9
00005D84  63744953          arpl [ecx+ecx*2+0x53],si
00005D88  7434              jz 0x5dbe
00005D8A  7061              jo 0x5ded
00005D8C  69724969694553    imul esi,[edx+0x49],dword 0x53456969
00005D93  315F45            xor [edi+0x45],ebx
00005D96  7650              jna 0x5de8
00005D98  54                push esp
00005D99  5F                pop edi
00005D9A  52                push edx
00005D9B  4B                dec ebx
00005D9C  54                push esp
00005D9D  305F00            xor [edi+0x0],bl
00005DA0  5F                pop edi
00005DA1  5A                pop edx
00005DA2  53                push ebx
00005DA3  7434              jz 0x5dd9
00005DA5  636F75            arpl [edi+0x75],bp
00005DA8  7440              jz 0x5dea
00005DAA  40                inc eax
00005DAB  47                inc edi
00005DAC  4C                dec esp
00005DAD  49                dec ecx
00005DAE  42                inc edx
00005DAF  43                inc ebx
00005DB0  58                pop eax
00005DB1  58                pop eax
00005DB2  5F                pop edi
00005DB3  332E              xor ebp,[esi]
00005DB5  3400              xor al,0x0
00005DB7  5F                pop edi
00005DB8  5A                pop edx
00005DB9  4E                dec esi
00005DBA  395F5F            cmp [edi+0x5f],ebx
00005DBD  676E              a16 outsb
00005DBF  755F              jnz 0x5e20
00005DC1  637878            arpl [eax+0x78],di
00005DC4  6C                insb
00005DC5  7449              jz 0x5e10
00005DC7  50                push eax
00005DC8  53                push ebx
00005DC9  7434              jz 0x5dff
00005DCB  7061              jo 0x5e2e
00005DCD  69724969694553    imul esi,[edx+0x49],dword 0x53456969
00005DD4  7436              jz 0x5e0c
00005DD6  7665              jna 0x5e3d
00005DD8  63746F72          arpl [edi+ebp*2+0x72],si
00005DDC  49                dec ecx
00005DDD  53                push ebx
00005DDE  325F53            xor bl,[edi+0x53]
00005DE1  61                popa
00005DE2  49                dec ecx
00005DE3  53                push ebx
00005DE4  325F45            xor bl,[edi+0x45]
00005DE7  45                inc ebp
00005DE8  45                inc ebp
00005DE9  45                inc ebp
00005DEA  62524B            bound edx,[edx+0x4b]
00005DED  4E                dec esi
00005DEE  53                push ebx
00005DEF  5F                pop edi
00005DF0  3137              xor [edi],esi
00005DF2  5F                pop edi
00005DF3  5F                pop edi
00005DF4  6E                outsb
00005DF5  6F                outsd
00005DF6  726D              jc 0x5e65
00005DF8  61                popa
00005DF9  6C                insb
00005DFA  5F                pop edi
00005DFB  6974657261746F72  imul esi,[ebp+0x72],dword 0x726f7461
00005E03  49                dec ecx
00005E04  54                push esp
00005E05  5F                pop edi
00005E06  54                push esp
00005E07  305F45            xor [edi+0x45],bl
00005E0A  45                inc ebp
00005E0B  53                push ebx
00005E0C  43                inc ebx
00005E0D  5F                pop edi
00005E0E  005F5F            add [edi+0x5f],bl
00005E11  64736F            fs jnc 0x5e83
00005E14  5F                pop edi
00005E15  68616E646C        push dword 0x6c646e61
00005E1A  65005F5F          add [gs:edi+0x5f],bl
00005E1E  44                inc esp
00005E1F  54                push esp
00005E20  4F                dec edi
00005E21  52                push edx
00005E22  5F                pop edi
00005E23  45                inc ebp
00005E24  4E                dec esi
00005E25  44                inc esp
00005E26  5F                pop edi
00005E27  5F                pop edi
00005E28  005F5F            add [edi+0x5f],bl
00005E2B  6C                insb
00005E2C  6962635F637375    imul esp,[edx+0x63],dword 0x7573635f
00005E33  5F                pop edi
00005E34  696E6974005F5A    imul ebp,[esi+0x69],dword 0x5a5f0074
00005E3B  53                push ebx
00005E3C  7431              jz 0x5e6f
00005E3E  335F5F            xor ebx,[edi+0x5f]
00005E41  686561705F        push dword 0x5f706165
00005E46  7365              jnc 0x5ead
00005E48  6C                insb
00005E49  656374494E        arpl [gs:ecx+ecx*2+0x4e],si
00005E4E  395F5F            cmp [edi+0x5f],ebx
00005E51  676E              a16 outsb
00005E53  755F              jnz 0x5eb4
00005E55  637878            arpl [eax+0x78],di
00005E58  3137              xor [edi],esi
00005E5A  5F                pop edi
00005E5B  5F                pop edi
00005E5C  6E                outsb
00005E5D  6F                outsd
00005E5E  726D              jc 0x5ecd
00005E60  61                popa
00005E61  6C                insb
00005E62  5F                pop edi
00005E63  6974657261746F72  imul esi,[ebp+0x72],dword 0x726f7461
00005E6B  49                dec ecx
00005E6C  50                push eax
00005E6D  53                push ebx
00005E6E  7434              jz 0x5ea4
00005E70  7061              jo 0x5ed3
00005E72  69724969694553    imul esi,[edx+0x49],dword 0x53456969
00005E79  7436              jz 0x5eb1
00005E7B  7665              jna 0x5ee2
00005E7D  63746F72          arpl [edi+ebp*2+0x72],si
00005E81  49                dec ecx
00005E82  53                push ebx
00005E83  335F53            xor ebx,[edi+0x53]
00005E86  61                popa
00005E87  49                dec ecx
00005E88  53                push ebx
00005E89  335F45            xor ebx,[edi+0x45]
00005E8C  45                inc ebp
00005E8D  45                inc ebp
00005E8E  45                inc ebp
00005E8F  45                inc ebp
00005E90  7654              jna 0x5ee6
00005E92  5F                pop edi
00005E93  53                push ebx
00005E94  395F53            cmp [edi+0x53],ebx
00005E97  395F00            cmp [edi+0x0],ebx
00005E9A  5F                pop edi
00005E9B  5A                pop edx
00005E9C  4E                dec esi
00005E9D  53                push ebx
00005E9E  7434              jz 0x5ed4
00005EA0  7061              jo 0x5f03
00005EA2  69724969694543    imul esi,[edx+0x49],dword 0x43456969
00005EA9  314552            xor [ebp+0x52],eax
00005EAC  4B                dec ebx
00005EAD  6953325F005F5A    imul edx,[ebx+0x32],dword 0x5a5f005f
00005EB4  4E                dec esi
00005EB5  53                push ebx
00005EB6  7432              jz 0x5eea
00005EB8  305F5F            xor [edi+0x5f],bl
00005EBB  636F70            arpl [edi+0x70],bp
00005EBE  795F              jns 0x5f1f
00005EC0  6D                insd
00005EC1  6F                outsd
00005EC2  7665              jna 0x5f29
00005EC4  5F                pop edi
00005EC5  626163            bound esp,[ecx+0x63]
00005EC8  6B776172          imul esi,[edi+0x61],byte +0x72
00005ECC  6449              fs dec ecx
00005ECE  4C                dec esp
00005ECF  6230              bound esi,[eax]
00005ED1  45                inc ebp
00005ED2  4C                dec esp
00005ED3  6230              bound esi,[eax]
00005ED5  45                inc ebp
00005ED6  53                push ebx
00005ED7  7432              jz 0x5f0b
00005ED9  367261            ss jc 0x5f3d
00005EDC  6E                outsb
00005EDD  646F              fs outsd
00005EDF  6D                insd
00005EE0  5F                pop edi
00005EE1  61                popa
00005EE2  636365            arpl [ebx+0x65],sp
00005EE5  7373              jnc 0x5f5a
00005EE7  5F                pop edi
00005EE8  6974657261746F72  imul esi,[ebp+0x72],dword 0x726f7461
00005EF0  5F                pop edi
00005EF1  7461              jz 0x5f54
00005EF3  6745              a16 inc ebp
00005EF5  3133              xor [ebx],esi
00005EF7  5F                pop edi
00005EF8  5F                pop edi
00005EF9  636F70            arpl [edi+0x70],bp
00005EFC  795F              jns 0x5f5d
00005EFE  6D                insd
00005EFF  6F                outsd
00005F00  7665              jna 0x5f67
00005F02  5F                pop edi
00005F03  624950            bound ecx,[ecx+0x50]
00005F06  53                push ebx
00005F07  7434              jz 0x5f3d
00005F09  7061              jo 0x5f6c
00005F0B  69724969694553    imul esi,[edx+0x49],dword 0x53456969
00005F12  355F454554        xor eax,0x5445455f
00005F17  305F54            xor [edi+0x54],bl
00005F1A  5F                pop edi
00005F1B  53                push ebx
00005F1C  37                aaa
00005F1D  5F                pop edi
00005F1E  53                push ebx
00005F1F  365F              ss pop edi
00005F21  005F5A            add [edi+0x5a],bl
00005F24  4E                dec esi
00005F25  395F5F            cmp [edi+0x5f],ebx
00005F28  676E              a16 outsb
00005F2A  755F              jnz 0x5f8b
00005F2C  637878            arpl [eax+0x78],di
00005F2F  3133              xor [ebx],esi
00005F31  6E                outsb
00005F32  65775F            gs ja 0x5f94
00005F35  61                popa
00005F36  6C                insb
00005F37  6C                insb
00005F38  6F                outsd
00005F39  636174            arpl [ecx+0x74],sp
00005F3C  6F                outsd
00005F3D  7249              jc 0x5f88
00005F3F  53                push ebx
00005F40  7434              jz 0x5f76
00005F42  7061              jo 0x5fa5
00005F44  69724969694545    imul esi,[edx+0x49],dword 0x45456969
00005F4B  43                inc ebx
00005F4C  314552            xor [ebp+0x52],eax
00005F4F  4B                dec ebx
00005F50  53                push ebx
00005F51  335F00            xor ebx,[edi+0x0]
00005F54  5F                pop edi
00005F55  5A                pop edx
00005F56  53                push ebx
00005F57  7431              jz 0x5f8a
00005F59  305F5F            xor [edi+0x5f],bl
00005F5C  706F              jo 0x5fcd
00005F5E  705F              jo 0x5fbf
00005F60  6865617049        push dword 0x49706165
00005F65  4E                dec esi
00005F66  395F5F            cmp [edi+0x5f],ebx
00005F69  676E              a16 outsb
00005F6B  755F              jnz 0x5fcc
00005F6D  637878            arpl [eax+0x78],di
00005F70  3137              xor [edi],esi
00005F72  5F                pop edi
00005F73  5F                pop edi
00005F74  6E                outsb
00005F75  6F                outsd
00005F76  726D              jc 0x5fe5
00005F78  61                popa
00005F79  6C                insb
00005F7A  5F                pop edi
00005F7B  6974657261746F72  imul esi,[ebp+0x72],dword 0x726f7461
00005F83  49                dec ecx
00005F84  50                push eax
00005F85  53                push ebx
00005F86  7434              jz 0x5fbc
00005F88  7061              jo 0x5feb
00005F8A  69724969694553    imul esi,[edx+0x49],dword 0x53456969
00005F91  7436              jz 0x5fc9
00005F93  7665              jna 0x5ffa
00005F95  63746F72          arpl [edi+ebp*2+0x72],si
00005F99  49                dec ecx
00005F9A  53                push ebx
00005F9B  335F53            xor ebx,[edi+0x53]
00005F9E  61                popa
00005F9F  49                dec ecx
00005FA0  53                push ebx
00005FA1  335F45            xor ebx,[edi+0x45]
00005FA4  45                inc ebp
00005FA5  45                inc ebp
00005FA6  45                inc ebp
00005FA7  45                inc ebp
00005FA8  7654              jna 0x5ffe
00005FAA  5F                pop edi
00005FAB  53                push ebx
00005FAC  395F53            cmp [edi+0x53],ebx
00005FAF  395F00            cmp [edi+0x0],ebx
00005FB2  5F                pop edi
00005FB3  5A                pop edx
00005FB4  6E                outsb
00005FB5  776A              ja 0x6021
00005FB7  40                inc eax
00005FB8  40                inc eax
00005FB9  47                inc edi
00005FBA  4C                dec esp
00005FBB  49                dec ecx
00005FBC  42                inc edx
00005FBD  43                inc ebx
00005FBE  58                pop eax
00005FBF  58                pop eax
00005FC0  5F                pop edi
00005FC1  332E              xor ebp,[esi]
00005FC3  3400              xor al,0x0
00005FC5  5F                pop edi
00005FC6  5A                pop edx
00005FC7  4E                dec esi
00005FC8  395F5F            cmp [edi+0x5f],ebx
00005FCB  676E              a16 outsb
00005FCD  755F              jnz 0x602e
00005FCF  637878            arpl [eax+0x78],di
00005FD2  6E                outsb
00005FD3  6549              gs dec ecx
00005FD5  50                push eax
00005FD6  53                push ebx
00005FD7  7434              jz 0x600d
00005FD9  7061              jo 0x603c
00005FDB  69724969694553    imul esi,[edx+0x49],dword 0x53456969
00005FE2  7436              jz 0x601a
00005FE4  7665              jna 0x604b
00005FE6  63746F72          arpl [edi+ebp*2+0x72],si
00005FEA  49                dec ecx
00005FEB  53                push ebx
00005FEC  325F53            xor bl,[edi+0x53]
00005FEF  61                popa
00005FF0  49                dec ecx
00005FF1  53                push ebx
00005FF2  325F45            xor bl,[edi+0x45]
00005FF5  45                inc ebp
00005FF6  45                inc ebp
00005FF7  45                inc ebp
00005FF8  62524B            bound edx,[edx+0x4b]
00005FFB  4E                dec esi
00005FFC  53                push ebx
00005FFD  5F                pop edi
00005FFE  3137              xor [edi],esi
00006000  5F                pop edi
00006001  5F                pop edi
00006002  6E                outsb
00006003  6F                outsd
00006004  726D              jc 0x6073
00006006  61                popa
00006007  6C                insb
00006008  5F                pop edi
00006009  6974657261746F72  imul esi,[ebp+0x72],dword 0x726f7461
00006011  49                dec ecx
00006012  54                push esp
00006013  5F                pop edi
00006014  54                push esp
00006015  305F45            xor [edi+0x45],bl
00006018  45                inc ebp
00006019  53                push ebx
0000601A  43                inc ebx
0000601B  5F                pop edi
0000601C  005F5A            add [edi+0x5a],bl
0000601F  53                push ebx
00006020  7432              jz 0x6054
00006022  325F5F            xor bl,[edi+0x5f]
00006025  66696E616C5F      imul bp,[esi+0x61],word 0x5f6c
0000602B  696E7365727469    imul ebp,[esi+0x73],dword 0x69747265
00006032  6F                outsd
00006033  6E                outsb
00006034  5F                pop edi
00006035  736F              jnc 0x60a6
00006037  7274              jc 0x60ad
00006039  49                dec ecx
0000603A  4E                dec esi
0000603B  395F5F            cmp [edi+0x5f],ebx
0000603E  676E              a16 outsb
00006040  755F              jnz 0x60a1
00006042  637878            arpl [eax+0x78],di
00006045  3137              xor [edi],esi
00006047  5F                pop edi
00006048  5F                pop edi
00006049  6E                outsb
0000604A  6F                outsd
0000604B  726D              jc 0x60ba
0000604D  61                popa
0000604E  6C                insb
0000604F  5F                pop edi
00006050  6974657261746F72  imul esi,[ebp+0x72],dword 0x726f7461
00006058  49                dec ecx
00006059  50                push eax
0000605A  53                push ebx
0000605B  7434              jz 0x6091
0000605D  7061              jo 0x60c0
0000605F  69724969694553    imul esi,[edx+0x49],dword 0x53456969
00006066  7436              jz 0x609e
00006068  7665              jna 0x60cf
0000606A  63746F72          arpl [edi+ebp*2+0x72],si
0000606E  49                dec ecx
0000606F  53                push ebx
00006070  335F53            xor ebx,[edi+0x53]
00006073  61                popa
00006074  49                dec ecx
00006075  53                push ebx
00006076  335F45            xor ebx,[edi+0x45]
00006079  45                inc ebp
0000607A  45                inc ebp
0000607B  45                inc ebp
0000607C  45                inc ebp
0000607D  7654              jna 0x60d3
0000607F  5F                pop edi
00006080  53                push ebx
00006081  395F00            cmp [edi+0x0],ebx
00006084  5F                pop edi
00006085  5A                pop edx
00006086  4E                dec esi
00006087  4B                dec ebx
00006088  395F5F            cmp [edi+0x5f],ebx
0000608B  676E              a16 outsb
0000608D  755F              jnz 0x60ee
0000608F  637878            arpl [eax+0x78],di
00006092  3137              xor [edi],esi
00006094  5F                pop edi
00006095  5F                pop edi
00006096  6E                outsb
00006097  6F                outsd
00006098  726D              jc 0x6107
0000609A  61                popa
0000609B  6C                insb
0000609C  5F                pop edi
0000609D  6974657261746F72  imul esi,[ebp+0x72],dword 0x726f7461
000060A5  49                dec ecx
000060A6  50                push eax
000060A7  53                push ebx
000060A8  7434              jz 0x60de
000060AA  7061              jo 0x610d
000060AC  69724969694553    imul esi,[edx+0x49],dword 0x53456969
000060B3  7436              jz 0x60eb
000060B5  7665              jna 0x611c
000060B7  63746F72          arpl [edi+ebp*2+0x72],si
000060BB  49                dec ecx
000060BC  53                push ebx
000060BD  325F53            xor bl,[edi+0x53]
000060C0  61                popa
000060C1  49                dec ecx
000060C2  53                push ebx
000060C3  325F45            xor bl,[edi+0x45]
000060C6  45                inc ebp
000060C7  45                inc ebp
000060C8  706C              jo 0x6136
000060CA  45                inc ebp
000060CB  52                push edx
000060CC  4B                dec ebx
000060CD  69005F5A4E39      imul eax,[eax],dword 0x394e5a5f
000060D3  5F                pop edi
000060D4  5F                pop edi
000060D5  676E              a16 outsb
000060D7  755F              jnz 0x6138
000060D9  637878            arpl [eax+0x78],di
000060DC  3137              xor [edi],esi
000060DE  5F                pop edi
000060DF  5F                pop edi
000060E0  6E                outsb
000060E1  6F                outsd
000060E2  726D              jc 0x6151
000060E4  61                popa
000060E5  6C                insb
000060E6  5F                pop edi
000060E7  6974657261746F72  imul esi,[ebp+0x72],dword 0x726f7461
000060EF  49                dec ecx
000060F0  50                push eax
000060F1  53                push ebx
000060F2  7434              jz 0x6128
000060F4  7061              jo 0x6157
000060F6  69724969694553    imul esi,[edx+0x49],dword 0x53456969
000060FD  7436              jz 0x6135
000060FF  7665              jna 0x6166
00006101  63746F72          arpl [edi+ebp*2+0x72],si
00006105  49                dec ecx
00006106  53                push ebx
00006107  325F53            xor bl,[edi+0x53]
0000610A  61                popa
0000610B  49                dec ecx
0000610C  53                push ebx
0000610D  325F45            xor bl,[edi+0x45]
00006110  45                inc ebp
00006111  45                inc ebp
00006112  7070              jo 0x6184
00006114  45                inc ebp
00006115  7600              jna 0x6117
00006117  5F                pop edi
00006118  5A                pop edx
00006119  4E                dec esi
0000611A  53                push ebx
0000611B  7436              jz 0x6153
0000611D  7665              jna 0x6184
0000611F  63746F72          arpl [edi+ebp*2+0x72],si
00006123  49                dec ecx
00006124  53                push ebx
00006125  7434              jz 0x615b
00006127  7061              jo 0x618a
00006129  69724969694553    imul esi,[edx+0x49],dword 0x53456969
00006130  61                popa
00006131  49                dec ecx
00006132  53                push ebx
00006133  315F45            xor [edi+0x45],ebx
00006136  45                inc ebp
00006137  3562656769        xor eax,0x69676562
0000613C  6E                outsb
0000613D  45                inc ebp
0000613E  7600              jna 0x6140
00006140  5F                pop edi
00006141  5F                pop edi
00006142  627373            bound esi,[ebx+0x73]
00006145  5F                pop edi
00006146  7374              jnc 0x61bc
00006148  61                popa
00006149  7274              jc 0x61bf
0000614B  005F5A            add [edi+0x5a],bl
0000614E  4E                dec esi
0000614F  53                push ebx
00006150  7436              jz 0x6188
00006152  7665              jna 0x61b9
00006154  63746F72          arpl [edi+ebp*2+0x72],si
00006158  49                dec ecx
00006159  53                push ebx
0000615A  7434              jz 0x6190
0000615C  7061              jo 0x61bf
0000615E  69724969694553    imul esi,[edx+0x49],dword 0x53456969
00006165  61                popa
00006166  49                dec ecx
00006167  53                push ebx
00006168  315F45            xor [edi+0x45],ebx
0000616B  45                inc ebp
0000616C  43                inc ebx
0000616D  32456A            xor al,[ebp+0x6a]
00006170  52                push edx
00006171  4B                dec ebx
00006172  53                push ebx
00006173  315F52            xor [edi+0x52],ebx
00006176  4B                dec ebx
00006177  53                push ebx
00006178  325F00            xor bl,[edi+0x0]
0000617B  5F                pop edi
0000617C  5A                pop edx
0000617D  4E                dec esi
0000617E  53                push ebx
0000617F  7431              jz 0x61b2
00006181  325F56            xor bl,[edi+0x56]
00006184  6563746F72        arpl [gs:edi+ebp*2+0x72],si
00006189  5F                pop edi
0000618A  626173            bound esp,[ecx+0x73]
0000618D  6549              gs dec ecx
0000618F  53                push ebx
00006190  7434              jz 0x61c6
00006192  7061              jo 0x61f5
00006194  69724969694553    imul esi,[edx+0x49],dword 0x53456969
0000619B  61                popa
0000619C  49                dec ecx
0000619D  53                push ebx
0000619E  315F45            xor [edi+0x45],ebx
000061A1  45                inc ebp
000061A2  3131              xor [ecx],esi
000061A4  5F                pop edi
000061A5  4D                dec ebp
000061A6  5F                pop edi
000061A7  61                popa
000061A8  6C                insb
000061A9  6C                insb
000061AA  6F                outsd
000061AB  636174            arpl [ecx+0x74],sp
000061AE  6545              gs inc ebp
000061B0  6A00              push byte +0x0
000061B2  5F                pop edi
000061B3  5A                pop edx
000061B4  53                push ebx
000061B5  7433              jz 0x61ea
000061B7  6D                insd
000061B8  61                popa
000061B9  7849              js 0x6204
000061BB  6945524B545F53    imul eax,[ebp+0x52],dword 0x535f544b
000061C2  325F53            xor bl,[edi+0x53]
000061C5  325F00            xor bl,[edi+0x0]
000061C8  5F                pop edi
000061C9  5A                pop edx
000061CA  4E                dec esi
000061CB  53                push ebx
000061CC  7431              jz 0x61ff
000061CE  325F56            xor bl,[edi+0x56]
000061D1  6563746F72        arpl [gs:edi+ebp*2+0x72],si
000061D6  5F                pop edi
000061D7  626173            bound esp,[ecx+0x73]
000061DA  6549              gs dec ecx
000061DC  53                push ebx
000061DD  7434              jz 0x6213
000061DF  7061              jo 0x6242
000061E1  69724969694553    imul esi,[edx+0x49],dword 0x53456969
000061E8  61                popa
000061E9  49                dec ecx
000061EA  53                push ebx
000061EB  315F45            xor [edi+0x45],ebx
000061EE  45                inc ebp
000061EF  43                inc ebx
000061F0  32456A            xor al,[ebp+0x6a]
000061F3  52                push edx
000061F4  4B                dec ebx
000061F5  53                push ebx
000061F6  325F00            xor bl,[edi+0x0]
000061F9  5F                pop edi
000061FA  5A                pop edx
000061FB  53                push ebx
000061FC  7438              jz 0x6236
000061FE  5F                pop edi
000061FF  44                inc esp
00006200  657374            gs jnc 0x6277
00006203  726F              jc 0x6274
00006205  7949              jns 0x6250
00006207  50                push eax
00006208  53                push ebx
00006209  7434              jz 0x623f
0000620B  7061              jo 0x626e
0000620D  69724969694545    imul esi,[edx+0x49],dword 0x45456969
00006214  7654              jna 0x626a
00006216  5F                pop edi
00006217  53                push ebx
00006218  335F00            xor ebx,[edi+0x0]
0000621B  5F                pop edi
0000621C  5A                pop edx
0000621D  53                push ebx
0000621E  7439              jz 0x6259
00006220  6D                insd
00006221  61                popa
00006222  6B655F68          imul esp,[ebp+0x5f],byte +0x68
00006226  6561              gs popa
00006228  7049              jo 0x6273
0000622A  4E                dec esi
0000622B  395F5F            cmp [edi+0x5f],ebx
0000622E  676E              a16 outsb
00006230  755F              jnz 0x6291
00006232  637878            arpl [eax+0x78],di
00006235  3137              xor [edi],esi
00006237  5F                pop edi
00006238  5F                pop edi
00006239  6E                outsb
0000623A  6F                outsd
0000623B  726D              jc 0x62aa
0000623D  61                popa
0000623E  6C                insb
0000623F  5F                pop edi
00006240  6974657261746F72  imul esi,[ebp+0x72],dword 0x726f7461
00006248  49                dec ecx
00006249  50                push eax
0000624A  53                push ebx
0000624B  7434              jz 0x6281
0000624D  7061              jo 0x62b0
0000624F  69724969694553    imul esi,[edx+0x49],dword 0x53456969
00006256  7436              jz 0x628e
00006258  7665              jna 0x62bf
0000625A  63746F72          arpl [edi+ebp*2+0x72],si
0000625E  49                dec ecx
0000625F  53                push ebx
00006260  335F53            xor ebx,[edi+0x53]
00006263  61                popa
00006264  49                dec ecx
00006265  53                push ebx
00006266  335F45            xor ebx,[edi+0x45]
00006269  45                inc ebp
0000626A  45                inc ebp
0000626B  45                inc ebp
0000626C  45                inc ebp
0000626D  7654              jna 0x62c3
0000626F  5F                pop edi
00006270  53                push ebx
00006271  395F00            cmp [edi+0x0],ebx
00006274  5F                pop edi
00006275  5A                pop edx
00006276  53                push ebx
00006277  7431              jz 0x62aa
00006279  33636F            xor esp,[ebx+0x6f]
0000627C  7079              jo 0x62f7
0000627E  5F                pop edi
0000627F  626163            bound esp,[ecx+0x63]
00006282  6B776172          imul esi,[edi+0x61],byte +0x72
00006286  6449              fs dec ecx
00006288  4E                dec esi
00006289  395F5F            cmp [edi+0x5f],ebx
0000628C  676E              a16 outsb
0000628E  755F              jnz 0x62ef
00006290  637878            arpl [eax+0x78],di
00006293  3137              xor [edi],esi
00006295  5F                pop edi
00006296  5F                pop edi
00006297  6E                outsb
00006298  6F                outsd
00006299  726D              jc 0x6308
0000629B  61                popa
0000629C  6C                insb
0000629D  5F                pop edi
0000629E  6974657261746F72  imul esi,[ebp+0x72],dword 0x726f7461
000062A6  49                dec ecx
000062A7  50                push eax
000062A8  53                push ebx
000062A9  7434              jz 0x62df
000062AB  7061              jo 0x630e
000062AD  69724969694553    imul esi,[edx+0x49],dword 0x53456969
000062B4  7436              jz 0x62ec
000062B6  7665              jna 0x631d
000062B8  63746F72          arpl [edi+ebp*2+0x72],si
000062BC  49                dec ecx
000062BD  53                push ebx
000062BE  335F53            xor ebx,[edi+0x53]
000062C1  61                popa
000062C2  49                dec ecx
000062C3  53                push ebx
000062C4  335F45            xor ebx,[edi+0x45]
000062C7  45                inc ebp
000062C8  45                inc ebp
000062C9  45                inc ebp
000062CA  53                push ebx
000062CB  385F45            cmp [edi+0x45],bl
000062CE  54                push esp
000062CF  305F54            xor [edi+0x54],bl
000062D2  5F                pop edi
000062D3  53                push ebx
000062D4  41                inc ecx
000062D5  5F                pop edi
000062D6  53                push ebx
000062D7  395F00            cmp [edi+0x0],ebx
000062DA  5F                pop edi
000062DB  5A                pop edx
000062DC  53                push ebx
000062DD  7431              jz 0x6310
000062DF  335F5F            xor ebx,[edi+0x5f]
000062E2  61                popa
000062E3  646A75            fs push byte +0x75
000062E6  7374              jnc 0x635c
000062E8  5F                pop edi
000062E9  6865617049        push dword 0x49706165
000062EE  4E                dec esi
000062EF  395F5F            cmp [edi+0x5f],ebx
000062F2  676E              a16 outsb
000062F4  755F              jnz 0x6355
000062F6  637878            arpl [eax+0x78],di
000062F9  3137              xor [edi],esi
000062FB  5F                pop edi
000062FC  5F                pop edi
000062FD  6E                outsb
000062FE  6F                outsd
000062FF  726D              jc 0x636e
00006301  61                popa
00006302  6C                insb
00006303  5F                pop edi
00006304  6974657261746F72  imul esi,[ebp+0x72],dword 0x726f7461
0000630C  49                dec ecx
0000630D  50                push eax
0000630E  53                push ebx
0000630F  7434              jz 0x6345
00006311  7061              jo 0x6374
00006313  69724969694553    imul esi,[edx+0x49],dword 0x53456969
0000631A  7436              jz 0x6352
0000631C  7665              jna 0x6383
0000631E  63746F72          arpl [edi+ebp*2+0x72],si
00006322  49                dec ecx
00006323  53                push ebx
00006324  335F53            xor ebx,[edi+0x53]
00006327  61                popa
00006328  49                dec ecx
00006329  53                push ebx
0000632A  335F45            xor ebx,[edi+0x45]
0000632D  45                inc ebp
0000632E  45                inc ebp
0000632F  45                inc ebp
00006330  6953335F457654    imul edx,[ebx+0x33],dword 0x5476455f
00006337  5F                pop edi
00006338  54                push esp
00006339  305F53            xor [edi+0x53],bl
0000633C  41                inc ecx
0000633D  5F                pop edi
0000633E  54                push esp
0000633F  315F00            xor [edi+0x0],ebx
00006342  5F                pop edi
00006343  5A                pop edx
00006344  53                push ebx
00006345  7439              jz 0x6380
00006347  736F              jnc 0x63b8
00006349  7274              jc 0x63bf
0000634B  5F                pop edi
0000634C  6865617049        push dword 0x49706165
00006351  4E                dec esi
00006352  395F5F            cmp [edi+0x5f],ebx
00006355  676E              a16 outsb
00006357  755F              jnz 0x63b8
00006359  637878            arpl [eax+0x78],di
0000635C  3137              xor [edi],esi
0000635E  5F                pop edi
0000635F  5F                pop edi
00006360  6E                outsb
00006361  6F                outsd
00006362  726D              jc 0x63d1
00006364  61                popa
00006365  6C                insb
00006366  5F                pop edi
00006367  6974657261746F72  imul esi,[ebp+0x72],dword 0x726f7461
0000636F  49                dec ecx
00006370  50                push eax
00006371  53                push ebx
00006372  7434              jz 0x63a8
00006374  7061              jo 0x63d7
00006376  69724969694553    imul esi,[edx+0x49],dword 0x53456969
0000637D  7436              jz 0x63b5
0000637F  7665              jna 0x63e6
00006381  63746F72          arpl [edi+ebp*2+0x72],si
00006385  49                dec ecx
00006386  53                push ebx
00006387  335F53            xor ebx,[edi+0x53]
0000638A  61                popa
0000638B  49                dec ecx
0000638C  53                push ebx
0000638D  335F45            xor ebx,[edi+0x45]
00006390  45                inc ebp
00006391  45                inc ebp
00006392  45                inc ebp
00006393  45                inc ebp
00006394  7654              jna 0x63ea
00006396  5F                pop edi
00006397  53                push ebx
00006398  395F00            cmp [edi+0x0],ebx
0000639B  5F                pop edi
0000639C  5A                pop edx
0000639D  53                push ebx
0000639E  7438              jz 0x63d8
000063A0  5F                pop edi
000063A1  44                inc esp
000063A2  657374            gs jnc 0x6419
000063A5  726F              jc 0x6416
000063A7  7949              jns 0x63f2
000063A9  50                push eax
000063AA  53                push ebx
000063AB  7434              jz 0x63e1
000063AD  7061              jo 0x6410
000063AF  69724969694553    imul esi,[edx+0x49],dword 0x53456969
000063B6  315F45            xor [edi+0x45],ebx
000063B9  7654              jna 0x640f
000063BB  5F                pop edi
000063BC  53                push ebx
000063BD  335F52            xor ebx,[edi+0x52]
000063C0  53                push ebx
000063C1  61                popa
000063C2  49                dec ecx
000063C3  54                push esp
000063C4  305F45            xor [edi+0x45],bl
000063C7  005F5A            add [edi+0x5a],bl
000063CA  53                push ebx
000063CB  7431              jz 0x63fe
000063CD  327061            xor dh,[eax+0x61]
000063D0  7274              jc 0x6446
000063D2  69616C5F736F72    imul esp,[ecx+0x6c],dword 0x726f735f
000063D9  7449              jz 0x6424
000063DB  4E                dec esi
000063DC  395F5F            cmp [edi+0x5f],ebx
000063DF  676E              a16 outsb
000063E1  755F              jnz 0x6442
000063E3  637878            arpl [eax+0x78],di
000063E6  3137              xor [edi],esi
000063E8  5F                pop edi
000063E9  5F                pop edi
000063EA  6E                outsb
000063EB  6F                outsd
000063EC  726D              jc 0x645b
000063EE  61                popa
000063EF  6C                insb
000063F0  5F                pop edi
000063F1  6974657261746F72  imul esi,[ebp+0x72],dword 0x726f7461
000063F9  49                dec ecx
000063FA  50                push eax
000063FB  53                push ebx
000063FC  7434              jz 0x6432
000063FE  7061              jo 0x6461
00006400  69724969694553    imul esi,[edx+0x49],dword 0x53456969
00006407  7436              jz 0x643f
00006409  7665              jna 0x6470
0000640B  63746F72          arpl [edi+ebp*2+0x72],si
0000640F  49                dec ecx
00006410  53                push ebx
00006411  335F53            xor ebx,[edi+0x53]
00006414  61                popa
00006415  49                dec ecx
00006416  53                push ebx
00006417  335F45            xor ebx,[edi+0x45]
0000641A  45                inc ebp
0000641B  45                inc ebp
0000641C  45                inc ebp
0000641D  45                inc ebp
0000641E  7654              jna 0x6474
00006420  5F                pop edi
00006421  53                push ebx
00006422  395F53            cmp [edi+0x53],ebx
00006425  395F00            cmp [edi+0x0],ebx
00006428  5F                pop edi
00006429  5A                pop edx
0000642A  4E                dec esi
0000642B  53                push ebx
0000642C  7436              jz 0x6464
0000642E  7665              jna 0x6495
00006430  63746F72          arpl [edi+ebp*2+0x72],si
00006434  49                dec ecx
00006435  53                push ebx
00006436  7434              jz 0x646c
00006438  7061              jo 0x649b
0000643A  69724969694553    imul esi,[edx+0x49],dword 0x53456969
00006441  61                popa
00006442  49                dec ecx
00006443  53                push ebx
00006444  315F45            xor [edi+0x45],ebx
00006447  45                inc ebp
00006448  44                inc esp
00006449  324576            xor al,[ebp+0x76]
0000644C  005F5A            add [edi+0x5a],bl
0000644F  4E                dec esi
00006450  53                push ebx
00006451  69727345526940    imul esi,[edx+0x73],dword 0x40695245
00006458  40                inc eax
00006459  47                inc edi
0000645A  4C                dec esp
0000645B  49                dec ecx
0000645C  42                inc edx
0000645D  43                inc ebx
0000645E  58                pop eax
0000645F  58                pop eax
00006460  5F                pop edi
00006461  332E              xor ebp,[esi]
00006463  3400              xor al,0x0
00006465  5F                pop edi
00006466  5A                pop edx
00006467  4E                dec esi
00006468  53                push ebx
00006469  7434              jz 0x649f
0000646B  7061              jo 0x64ce
0000646D  69724969694543    imul esi,[edx+0x49],dword 0x43456969
00006474  314576            xor [ebp+0x76],eax
00006477  005F5A            add [edi+0x5a],bl
0000647A  53                push ebx
0000647B  7432              jz 0x64af
0000647D  315F5F            xor [edi+0x5f],ebx
00006480  756E              jnz 0x64f0
00006482  677561            a16 jnz 0x64e6
00006485  7264              jc 0x64eb
00006487  65645F            fs pop edi
0000648A  7061              jo 0x64ed
0000648C  7274              jc 0x6502
0000648E  6974696F6E494E39  imul esi,[ecx+ebp*2+0x6f],dword 0x394e496e
00006496  5F                pop edi
00006497  5F                pop edi
00006498  676E              a16 outsb
0000649A  755F              jnz 0x64fb
0000649C  637878            arpl [eax+0x78],di
0000649F  3137              xor [edi],esi
000064A1  5F                pop edi
000064A2  5F                pop edi
000064A3  6E                outsb
000064A4  6F                outsd
000064A5  726D              jc 0x6514
000064A7  61                popa
000064A8  6C                insb
000064A9  5F                pop edi
000064AA  6974657261746F72  imul esi,[ebp+0x72],dword 0x726f7461
000064B2  49                dec ecx
000064B3  50                push eax
000064B4  53                push ebx
000064B5  7434              jz 0x64eb
000064B7  7061              jo 0x651a
000064B9  69724969694553    imul esi,[edx+0x49],dword 0x53456969
000064C0  7436              jz 0x64f8
000064C2  7665              jna 0x6529
000064C4  63746F72          arpl [edi+ebp*2+0x72],si
000064C8  49                dec ecx
000064C9  53                push ebx
000064CA  335F53            xor ebx,[edi+0x53]
000064CD  61                popa
000064CE  49                dec ecx
000064CF  53                push ebx
000064D0  335F45            xor ebx,[edi+0x45]
000064D3  45                inc ebp
000064D4  45                inc ebp
000064D5  45                inc ebp
000064D6  53                push ebx
000064D7  335F45            xor ebx,[edi+0x45]
000064DA  54                push esp
000064DB  5F                pop edi
000064DC  53                push ebx
000064DD  395F53            cmp [edi+0x53],ebx
000064E0  395F52            cmp [edi+0x52],ebx
000064E3  4B                dec ebx
000064E4  54                push esp
000064E5  305F00            xor [edi+0x0],bl
000064E8  5F                pop edi
000064E9  5A                pop edx
000064EA  4E                dec esi
000064EB  53                push ebx
000064EC  7431              jz 0x651f
000064EE  325F44            xor bl,[edi+0x44]
000064F1  657374            gs jnc 0x6568
000064F4  726F              jc 0x6565
000064F6  795F              jns 0x6557
000064F8  61                popa
000064F9  7578              jnz 0x6573
000064FB  49                dec ecx
000064FC  4C                dec esp
000064FD  6231              bound esi,[ecx]
000064FF  45                inc ebp
00006500  45                inc ebp
00006501  395F5F            cmp [edi+0x5f],ebx
00006504  64657374          gs jnc 0x657c
00006508  726F              jc 0x6579
0000650A  7949              jns 0x6555
0000650C  50                push eax
0000650D  53                push ebx
0000650E  7434              jz 0x6544
00006510  7061              jo 0x6573
00006512  69724969694545    imul esi,[edx+0x49],dword 0x45456969
00006519  45                inc ebp
0000651A  7654              jna 0x6570
0000651C  5F                pop edi
0000651D  53                push ebx
0000651E  355F005F5A        xor eax,0x5a5f005f
00006523  4E                dec esi
00006524  4B                dec ebx
00006525  395F5F            cmp [edi+0x5f],ebx
00006528  676E              a16 outsb
0000652A  755F              jnz 0x658b
0000652C  637878            arpl [eax+0x78],di
0000652F  3137              xor [edi],esi
00006531  5F                pop edi
00006532  5F                pop edi
00006533  6E                outsb
00006534  6F                outsd
00006535  726D              jc 0x65a4
00006537  61                popa
00006538  6C                insb
00006539  5F                pop edi
0000653A  6974657261746F72  imul esi,[ebp+0x72],dword 0x726f7461
00006542  49                dec ecx
00006543  50                push eax
00006544  53                push ebx
00006545  7434              jz 0x657b
00006547  7061              jo 0x65aa
00006549  69724969694553    imul esi,[edx+0x49],dword 0x53456969
00006550  7436              jz 0x6588
00006552  7665              jna 0x65b9
00006554  63746F72          arpl [edi+ebp*2+0x72],si
00006558  49                dec ecx
00006559  53                push ebx
0000655A  325F53            xor bl,[edi+0x53]
0000655D  61                popa
0000655E  49                dec ecx
0000655F  53                push ebx
00006560  325F45            xor bl,[edi+0x45]
00006563  45                inc ebp
00006564  45                inc ebp
00006565  3462              xor al,0x62
00006567  61                popa
00006568  7365              jnc 0x65cf
0000656A  45                inc ebp
0000656B  7600              jna 0x656d
0000656D  5F                pop edi
0000656E  5A                pop edx
0000656F  4E                dec esi
00006570  395F5F            cmp [edi+0x5f],ebx
00006573  676E              a16 outsb
00006575  755F              jnz 0x65d6
00006577  637878            arpl [eax+0x78],di
0000657A  3133              xor [ebx],esi
0000657C  6E                outsb
0000657D  65775F            gs ja 0x65df
00006580  61                popa
00006581  6C                insb
00006582  6C                insb
00006583  6F                outsd
00006584  636174            arpl [ecx+0x74],sp
00006587  6F                outsd
00006588  7249              jc 0x65d3
0000658A  53                push ebx
0000658B  7434              jz 0x65c1
0000658D  7061              jo 0x65f0
0000658F  69724969694545    imul esi,[edx+0x49],dword 0x45456969
00006596  3130              xor [eax],esi
00006598  646561            gs popa
0000659B  6C                insb
0000659C  6C                insb
0000659D  6F                outsd
0000659E  636174            arpl [ecx+0x74],sp
000065A1  6545              gs inc ebp
000065A3  50                push eax
000065A4  53                push ebx
000065A5  325F6A            xor bl,[edi+0x6a]
000065A8  005F5A            add [edi+0x5a],bl
000065AB  53                push ebx
000065AC  7431              jz 0x65df
000065AE  395F5F            cmp [edi+0x5f],ebx
000065B1  6D                insd
000065B2  6F                outsd
000065B3  7665              jna 0x661a
000065B5  5F                pop edi
000065B6  6D                insd
000065B7  656469616E5F6669  imul esp,[fs:ecx+0x6e],dword 0x7269665f
         -72
000065C0  7374              jnc 0x6636
000065C2  49                dec ecx
000065C3  4E                dec esi
000065C4  395F5F            cmp [edi+0x5f],ebx
000065C7  676E              a16 outsb
000065C9  755F              jnz 0x662a
000065CB  637878            arpl [eax+0x78],di
000065CE  3137              xor [edi],esi
000065D0  5F                pop edi
000065D1  5F                pop edi
000065D2  6E                outsb
000065D3  6F                outsd
000065D4  726D              jc 0x6643
000065D6  61                popa
000065D7  6C                insb
000065D8  5F                pop edi
000065D9  6974657261746F72  imul esi,[ebp+0x72],dword 0x726f7461
000065E1  49                dec ecx
000065E2  50                push eax
000065E3  53                push ebx
000065E4  7434              jz 0x661a
000065E6  7061              jo 0x6649
000065E8  69724969694553    imul esi,[edx+0x49],dword 0x53456969
000065EF  7436              jz 0x6627
000065F1  7665              jna 0x6658
000065F3  63746F72          arpl [edi+ebp*2+0x72],si
000065F7  49                dec ecx
000065F8  53                push ebx
000065F9  335F53            xor ebx,[edi+0x53]
000065FC  61                popa
000065FD  49                dec ecx
000065FE  53                push ebx
000065FF  335F45            xor ebx,[edi+0x45]
00006602  45                inc ebp
00006603  45                inc ebp
00006604  45                inc ebp
00006605  45                inc ebp
00006606  7654              jna 0x665c
00006608  5F                pop edi
00006609  53                push ebx
0000660A  395F53            cmp [edi+0x53],ebx
0000660D  395F00            cmp [edi+0x0],ebx
00006610  5F                pop edi
00006611  5A                pop edx
00006612  53                push ebx
00006613  7431              jz 0x6646
00006615  365F              ss pop edi
00006617  5F                pop edi
00006618  696E7365727469    imul ebp,[esi+0x73],dword 0x69747265
0000661F  6F                outsd
00006620  6E                outsb
00006621  5F                pop edi
00006622  736F              jnc 0x6693
00006624  7274              jc 0x669a
00006626  49                dec ecx
00006627  4E                dec esi
00006628  395F5F            cmp [edi+0x5f],ebx
0000662B  676E              a16 outsb
0000662D  755F              jnz 0x668e
0000662F  637878            arpl [eax+0x78],di
00006632  3137              xor [edi],esi
00006634  5F                pop edi
00006635  5F                pop edi
00006636  6E                outsb
00006637  6F                outsd
00006638  726D              jc 0x66a7
0000663A  61                popa
0000663B  6C                insb
0000663C  5F                pop edi
0000663D  6974657261746F72  imul esi,[ebp+0x72],dword 0x726f7461
00006645  49                dec ecx
00006646  50                push eax
00006647  53                push ebx
00006648  7434              jz 0x667e
0000664A  7061              jo 0x66ad
0000664C  69724969694553    imul esi,[edx+0x49],dword 0x53456969
00006653  7436              jz 0x668b
00006655  7665              jna 0x66bc
00006657  63746F72          arpl [edi+ebp*2+0x72],si
0000665B  49                dec ecx
0000665C  53                push ebx
0000665D  335F53            xor ebx,[edi+0x53]
00006660  61                popa
00006661  49                dec ecx
00006662  53                push ebx
00006663  335F45            xor ebx,[edi+0x45]
00006666  45                inc ebp
00006667  45                inc ebp
00006668  45                inc ebp
00006669  45                inc ebp
0000666A  7654              jna 0x66c0
0000666C  5F                pop edi
0000666D  53                push ebx
0000666E  395F00            cmp [edi+0x0],ebx
00006671  5F                pop edi
00006672  656E              gs outsb
00006674  64005F5A          add [fs:edi+0x5a],bl
00006678  4E                dec esi
00006679  53                push ebx
0000667A  6F                outsd
0000667B  6C                insb
0000667C  7345              jnc 0x66c3
0000667E  50                push eax
0000667F  46                inc esi
00006680  52                push edx
00006681  53                push ebx
00006682  6F                outsd
00006683  53                push ebx
00006684  5F                pop edi
00006685  45                inc ebp
00006686  40                inc eax
00006687  40                inc eax
00006688  47                inc edi
00006689  4C                dec esp
0000668A  49                dec ecx
0000668B  42                inc edx
0000668C  43                inc ebx
0000668D  58                pop eax
0000668E  58                pop eax
0000668F  5F                pop edi
00006690  332E              xor ebp,[esi]
00006692  3400              xor al,0x0
00006694  5F                pop edi
00006695  5A                pop edx
00006696  4E                dec esi
00006697  53                push ebx
00006698  7431              jz 0x66cb
0000669A  325F56            xor bl,[edi+0x56]
0000669D  6563746F72        arpl [gs:edi+ebp*2+0x72],si
000066A2  5F                pop edi
000066A3  626173            bound esp,[ecx+0x73]
000066A6  6549              gs dec ecx
000066A8  53                push ebx
000066A9  7434              jz 0x66df
000066AB  7061              jo 0x670e
000066AD  69724969694553    imul esi,[edx+0x49],dword 0x53456969
000066B4  61                popa
000066B5  49                dec ecx
000066B6  53                push ebx
000066B7  315F45            xor [edi+0x45],ebx
000066BA  45                inc ebp
000066BB  44                inc esp
000066BC  324576            xor al,[ebp+0x76]
000066BF  005F5A            add [edi+0x5a],bl
000066C2  4E                dec esi
000066C3  53                push ebx
000066C4  61                popa
000066C5  49                dec ecx
000066C6  53                push ebx
000066C7  7434              jz 0x66fd
000066C9  7061              jo 0x672c
000066CB  69724969694545    imul esi,[edx+0x49],dword 0x45456969
000066D2  44                inc esp
000066D3  324576            xor al,[ebp+0x76]
000066D6  005F5A            add [edi+0x5a],bl
000066D9  4E                dec esi
000066DA  53                push ebx
000066DB  61                popa
000066DC  49                dec ecx
000066DD  53                push ebx
000066DE  7434              jz 0x6714
000066E0  7061              jo 0x6743
000066E2  69724969694545    imul esi,[edx+0x49],dword 0x45456969
000066E9  43                inc ebx
000066EA  314576            xor [ebp+0x76],eax
000066ED  005F5A            add [edi+0x5a],bl
000066F0  4E                dec esi
000066F1  53                push ebx
000066F2  7431              jz 0x6725
000066F4  325F56            xor bl,[edi+0x56]
000066F7  6563746F72        arpl [gs:edi+ebp*2+0x72],si
000066FC  5F                pop edi
000066FD  626173            bound esp,[ecx+0x73]
00006700  6549              gs dec ecx
00006702  53                push ebx
00006703  7434              jz 0x6739
00006705  7061              jo 0x6768
00006707  69724969694553    imul esi,[edx+0x49],dword 0x53456969
0000670E  61                popa
0000670F  49                dec ecx
00006710  53                push ebx
00006711  315F45            xor [edi+0x45],ebx
00006714  45                inc ebp
00006715  3132              xor [edx],esi
00006717  5F                pop edi
00006718  56                push esi
00006719  6563746F72        arpl [gs:edi+ebp*2+0x72],si
0000671E  5F                pop edi
0000671F  696D706C443145    imul ebp,[ebp+0x70],dword 0x4531446c
00006726  7600              jna 0x6728
00006728  5F                pop edi
00006729  5A                pop edx
0000672A  53                push ebx
0000672B  7431              jz 0x675e
0000672D  37                aaa
0000672E  5F                pop edi
0000672F  5F                pop edi
00006730  7468              jz 0x679a
00006732  726F              jc 0x67a3
00006734  775F              ja 0x6795
00006736  626164            bound esp,[ecx+0x64]
00006739  5F                pop edi
0000673A  61                popa
0000673B  6C                insb
0000673C  6C                insb
0000673D  6F                outsd
0000673E  637640            arpl [esi+0x40],si
00006741  40                inc eax
00006742  47                inc edi
00006743  4C                dec esp
00006744  49                dec ecx
00006745  42                inc edx
00006746  43                inc ebx
00006747  58                pop eax
00006748  58                pop eax
00006749  5F                pop edi
0000674A  332E              xor ebp,[esi]
0000674C  3400              xor al,0x0
0000674E  5F                pop edi
0000674F  5A                pop edx
00006750  4E                dec esi
00006751  395F5F            cmp [edi+0x5f],ebx
00006754  676E              a16 outsb
00006756  755F              jnz 0x67b7
00006758  637878            arpl [eax+0x78],di
0000675B  3133              xor [ebx],esi
0000675D  6E                outsb
0000675E  65775F            gs ja 0x67c0
00006761  61                popa
00006762  6C                insb
00006763  6C                insb
00006764  6F                outsd
00006765  636174            arpl [ecx+0x74],sp
00006768  6F                outsd
00006769  7249              jc 0x67b4
0000676B  53                push ebx
0000676C  7434              jz 0x67a2
0000676E  7061              jo 0x67d1
00006770  69724969694545    imul esi,[edx+0x49],dword 0x45456969
00006777  43                inc ebx
00006778  324552            xor al,[ebp+0x52]
0000677B  4B                dec ebx
0000677C  53                push ebx
0000677D  335F00            xor ebx,[edi+0x0]
00006780  5F                pop edi
00006781  5A                pop edx
00006782  4E                dec esi
00006783  53                push ebx
00006784  7431              jz 0x67b7
00006786  325F56            xor bl,[edi+0x56]
00006789  6563746F72        arpl [gs:edi+ebp*2+0x72],si
0000678E  5F                pop edi
0000678F  626173            bound esp,[ecx+0x73]
00006792  6549              gs dec ecx
00006794  53                push ebx
00006795  7434              jz 0x67cb
00006797  7061              jo 0x67fa
00006799  69724969694553    imul esi,[edx+0x49],dword 0x53456969
000067A0  61                popa
000067A1  49                dec ecx
000067A2  53                push ebx
000067A3  315F45            xor [edi+0x45],ebx
000067A6  45                inc ebp
000067A7  44                inc esp
000067A8  314576            xor [ebp+0x76],eax
000067AB  005F5A            add [edi+0x5a],bl
000067AE  4E                dec esi
000067AF  53                push ebx
000067B0  7431              jz 0x67e3
000067B2  315F5F            xor [edi+0x5f],ebx
000067B5  697465725F737761  imul esi,[ebp+0x72],dword 0x6177735f
000067BD  7049              jo 0x6808
000067BF  4C                dec esp
000067C0  6231              bound esi,[ecx]
000067C2  45                inc ebp
000067C3  45                inc ebp
000067C4  396974            cmp [ecx+0x74],ebp
000067C7  65725F            gs jc 0x6829
000067CA  7377              jnc 0x6843
000067CC  61                popa
000067CD  7049              jo 0x6818
000067CF  4E                dec esi
000067D0  395F5F            cmp [edi+0x5f],ebx
000067D3  676E              a16 outsb
000067D5  755F              jnz 0x6836
000067D7  637878            arpl [eax+0x78],di
000067DA  3137              xor [edi],esi
000067DC  5F                pop edi
000067DD  5F                pop edi
000067DE  6E                outsb
000067DF  6F                outsd
000067E0  726D              jc 0x684f
000067E2  61                popa
000067E3  6C                insb
000067E4  5F                pop edi
000067E5  6974657261746F72  imul esi,[ebp+0x72],dword 0x726f7461
000067ED  49                dec ecx
000067EE  50                push eax
000067EF  53                push ebx
000067F0  7434              jz 0x6826
000067F2  7061              jo 0x6855
000067F4  69724969694553    imul esi,[edx+0x49],dword 0x53456969
000067FB  7436              jz 0x6833
000067FD  7665              jna 0x6864
000067FF  63746F72          arpl [edi+ebp*2+0x72],si
00006803  49                dec ecx
00006804  53                push ebx
00006805  355F536149        xor eax,0x4961535f
0000680A  53                push ebx
0000680B  355F454545        xor eax,0x4545455f
00006810  45                inc ebp
00006811  53                push ebx
00006812  41                inc ecx
00006813  5F                pop edi
00006814  45                inc ebp
00006815  45                inc ebp
00006816  7654              jna 0x686c
00006818  5F                pop edi
00006819  54                push esp
0000681A  305F00            xor [edi+0x0],bl
0000681D  5F                pop edi
0000681E  5A                pop edx
0000681F  53                push ebx
00006820  7434              jz 0x6856
00006822  656E              gs outsb
00006824  646C              fs insb
00006826  49                dec ecx
00006827  635374            arpl [ebx+0x74],dx
0000682A  3131              xor [ecx],esi
0000682C  636861            arpl [eax+0x61],bp
0000682F  725F              jc 0x6890
00006831  7472              jz 0x68a5
00006833  61                popa
00006834  6974734963454552  imul esi,[ebx+esi*2+0x49],dword 0x52454563
0000683C  53                push ebx
0000683D  7431              jz 0x6870
0000683F  336261            xor esp,[edx+0x61]
00006842  7369              jnc 0x68ad
00006844  635F6F            arpl [edi+0x6f],bx
00006847  7374              jnc 0x68bd
00006849  7265              jc 0x68b0
0000684B  61                popa
0000684C  6D                insd
0000684D  49                dec ecx
0000684E  54                push esp
0000684F  5F                pop edi
00006850  54                push esp
00006851  305F45            xor [edi+0x45],bl
00006854  53                push ebx
00006855  365F              ss pop edi
00006857  40                inc eax
00006858  40                inc eax
00006859  47                inc edi
0000685A  4C                dec esp
0000685B  49                dec ecx
0000685C  42                inc edx
0000685D  43                inc ebx
0000685E  58                pop eax
0000685F  58                pop eax
00006860  5F                pop edi
00006861  332E              xor ebp,[esi]
00006863  3400              xor al,0x0
00006865  5F                pop edi
00006866  5A                pop edx
00006867  4E                dec esi
00006868  53                push ebx
00006869  7434              jz 0x689f
0000686B  7061              jo 0x68ce
0000686D  69724969694543    imul esi,[edx+0x49],dword 0x43456969
00006874  324552            xor al,[ebp+0x52]
00006877  4B                dec ebx
00006878  6953325F005F5A    imul edx,[ebx+0x32],dword 0x5a5f005f
0000687F  53                push ebx
00006880  7431              jz 0x68b3
00006882  325F5F            xor bl,[edi+0x5f]
00006885  6E                outsb
00006886  697465725F626173  imul esi,[ebp+0x72],dword 0x7361625f
0000688E  6549              gs dec ecx
00006890  4E                dec esi
00006891  395F5F            cmp [edi+0x5f],ebx
00006894  676E              a16 outsb
00006896  755F              jnz 0x68f7
00006898  637878            arpl [eax+0x78],di
0000689B  3137              xor [edi],esi
0000689D  5F                pop edi
0000689E  5F                pop edi
0000689F  6E                outsb
000068A0  6F                outsd
000068A1  726D              jc 0x6910
000068A3  61                popa
000068A4  6C                insb
000068A5  5F                pop edi
000068A6  6974657261746F72  imul esi,[ebp+0x72],dword 0x726f7461
000068AE  49                dec ecx
000068AF  50                push eax
000068B0  53                push ebx
000068B1  7434              jz 0x68e7
000068B3  7061              jo 0x6916
000068B5  69724969694553    imul esi,[edx+0x49],dword 0x53456969
000068BC  7436              jz 0x68f4
000068BE  7665              jna 0x6925
000068C0  63746F72          arpl [edi+ebp*2+0x72],si
000068C4  49                dec ecx
000068C5  53                push ebx
000068C6  335F53            xor ebx,[edi+0x53]
000068C9  61                popa
000068CA  49                dec ecx
000068CB  53                push ebx
000068CC  335F45            xor ebx,[edi+0x45]
000068CF  45                inc ebp
000068D0  45                inc ebp
000068D1  45                inc ebp
000068D2  45                inc ebp
000068D3  4E                dec esi
000068D4  53                push ebx
000068D5  7431              jz 0x6908
000068D7  315F4E            xor [edi+0x4e],ebx
000068DA  697465725F626173  imul esi,[ebp+0x72],dword 0x7361625f
000068E2  6549              gs dec ecx
000068E4  54                push esp
000068E5  5F                pop edi
000068E6  45                inc ebp
000068E7  3133              xor [ebx],esi
000068E9  6974657261746F72  imul esi,[ebp+0x72],dword 0x726f7461
000068F1  5F                pop edi
000068F2  7479              jz 0x696d
000068F4  7065              jo 0x695b
000068F6  45                inc ebp
000068F7  53                push ebx
000068F8  41                inc ecx
000068F9  5F                pop edi
000068FA  005F5A            add [edi+0x5a],bl
000068FD  4E                dec esi
000068FE  53                push ebx
000068FF  7436              jz 0x6937
00006901  7665              jna 0x6968
00006903  63746F72          arpl [edi+ebp*2+0x72],si
00006907  49                dec ecx
00006908  53                push ebx
00006909  7434              jz 0x693f
0000690B  7061              jo 0x696e
0000690D  69724969694553    imul esi,[edx+0x49],dword 0x53456969
00006914  61                popa
00006915  49                dec ecx
00006916  53                push ebx
00006917  315F45            xor [edi+0x45],ebx
0000691A  45                inc ebp
0000691B  6978456A005F65    imul edi,[eax+0x45],dword 0x655f006a
00006922  6461              fs popa
00006924  7461              jz 0x6987
00006926  005F5A            add [edi+0x5a],bl
00006929  53                push ebx
0000692A  7432              jz 0x695e
0000692C  325F5F            xor bl,[edi+0x5f]
0000692F  636F70            arpl [edi+0x70],bp
00006932  795F              jns 0x6993
00006934  6D                insd
00006935  6F                outsd
00006936  7665              jna 0x699d
00006938  5F                pop edi
00006939  626163            bound esp,[ecx+0x63]
0000693C  6B776172          imul esi,[edi+0x61],byte +0x72
00006940  645F              fs pop edi
00006942  61                popa
00006943  49                dec ecx
00006944  4C                dec esp
00006945  6230              bound esi,[eax]
00006947  45                inc ebp
00006948  50                push eax
00006949  53                push ebx
0000694A  7434              jz 0x6980
0000694C  7061              jo 0x69af
0000694E  69724969694553    imul esi,[edx+0x49],dword 0x53456969
00006955  325F45            xor bl,[edi+0x45]
00006958  54                push esp
00006959  315F54            xor [edi+0x54],ebx
0000695C  305F53            xor [edi+0x53],bl
0000695F  345F              xor al,0x5f
00006961  53                push ebx
00006962  335F00            xor ebx,[edi+0x0]
00006965  5F                pop edi
00006966  5F                pop edi
00006967  677878            a16 js 0x69e2
0000696A  5F                pop edi
0000696B  7065              jo 0x69d2
0000696D  7273              jc 0x69e2
0000696F  6F                outsd
00006970  6E                outsb
00006971  61                popa
00006972  6C                insb
00006973  6974795F76304040  imul esi,[ecx+edi*2+0x5f],dword 0x40403076
0000697B  43                inc ebx
0000697C  58                pop eax
0000697D  58                pop eax
0000697E  41                inc ecx
0000697F  42                inc edx
00006980  49                dec ecx
00006981  5F                pop edi
00006982  312E              xor [esi],ebp
00006984  3300              xor eax,[eax]
00006986  5F                pop edi
00006987  5A                pop edx
00006988  4E                dec esi
00006989  395F5F            cmp [edi+0x5f],ebx
0000698C  676E              a16 outsb
0000698E  755F              jnz 0x69ef
00006990  637878            arpl [eax+0x78],di
00006993  3133              xor [ebx],esi
00006995  6E                outsb
00006996  65775F            gs ja 0x69f8
00006999  61                popa
0000699A  6C                insb
0000699B  6C                insb
0000699C  6F                outsd
0000699D  636174            arpl [ecx+0x74],sp
000069A0  6F                outsd
000069A1  7249              jc 0x69ec
000069A3  53                push ebx
000069A4  7434              jz 0x69da
000069A6  7061              jo 0x6a09
000069A8  69724969694545    imul esi,[edx+0x49],dword 0x45456969
000069AF  44                inc esp
000069B0  324576            xor al,[ebp+0x76]
000069B3  005F55            add [edi+0x55],bl
000069B6  6E                outsb
000069B7  7769              ja 0x6a22
000069B9  6E                outsb
000069BA  645F              fs pop edi
000069BC  52                push edx
000069BD  657375            gs jnc 0x6a35
000069C0  6D                insd
000069C1  6540              gs inc eax
000069C3  40                inc eax
000069C4  47                inc edi
000069C5  43                inc ebx
000069C6  43                inc ebx
000069C7  5F                pop edi
000069C8  332E              xor ebp,[esi]
000069CA  3000              xor [eax],al
000069CC  5F                pop edi
000069CD  5A                pop edx
000069CE  4E                dec esi
000069CF  395F5F            cmp [edi+0x5f],ebx
000069D2  676E              a16 outsb
000069D4  755F              jnz 0x6a35
000069D6  637878            arpl [eax+0x78],di
000069D9  3133              xor [ebx],esi
000069DB  6E                outsb
000069DC  65775F            gs ja 0x6a3e
000069DF  61                popa
000069E0  6C                insb
000069E1  6C                insb
000069E2  6F                outsd
000069E3  636174            arpl [ecx+0x74],sp
000069E6  6F                outsd
000069E7  7249              jc 0x6a32
000069E9  53                push ebx
000069EA  7434              jz 0x6a20
000069EC  7061              jo 0x6a4f
000069EE  69724969694545    imul esi,[edx+0x49],dword 0x45456969
000069F5  43                inc ebx
000069F6  314576            xor [ebp+0x76],eax
000069F9  005F5F            add [edi+0x5f],bl
000069FC  693638362E67      imul esi,[esi],dword 0x672e3638
00006A02  65745F            gs jz 0x6a64
00006A05  7063              jo 0x6a6a
00006A07  5F                pop edi
00006A08  7468              jz 0x6a72
00006A0A  756E              jnz 0x6a7a
00006A0C  6B2E62            imul ebp,[esi],byte +0x62
00006A0F  7800              js 0x6a11
00006A11  5F                pop edi
00006A12  5A                pop edx
00006A13  4E                dec esi
00006A14  53                push ebx
00006A15  61                popa
00006A16  49                dec ecx
00006A17  53                push ebx
00006A18  7434              jz 0x6a4e
00006A1A  7061              jo 0x6a7d
00006A1C  69724969694545    imul esi,[edx+0x49],dword 0x45456969
00006A23  43                inc ebx
00006A24  324576            xor al,[ebp+0x76]
00006A27  006D61            add [ebp+0x61],ch
00006A2A  696E005F696E69    imul ebp,[esi+0x0],dword 0x696e695f
00006A31  7400              jz 0x6a33
