00000000  7F45              jg 0x47
00000002  4C                dec esp
00000003  46                inc esi
00000004  0101              add [ecx],eax
00000006  0100              add [eax],eax
00000008  0000              add [eax],al
0000000A  0000              add [eax],al
0000000C  0000              add [eax],al
0000000E  0000              add [eax],al
00000010  0200              add al,[eax]
00000012  0300              add eax,[eax]
00000014  0100              add [eax],eax
00000016  0000              add [eax],al
00000018  008904083400      add [ecx+0x340804],cl
0000001E  0000              add [eax],al
00000020  B039              mov al,0x39
00000022  0000              add [eax],al
00000024  0000              add [eax],al
00000026  0000              add [eax],al
00000028  3400              xor al,0x0
0000002A  2000              and [eax],al
0000002C  0800              or [eax],al
0000002E  2800              sub [eax],al
00000030  260023            add [es:ebx],ah
00000033  0006              add [esi],al
00000035  0000              add [eax],al
00000037  003400            add [eax+eax],dh
0000003A  0000              add [eax],al
0000003C  3480              xor al,0x80
0000003E  0408              add al,0x8
00000040  3480              xor al,0x80
00000042  0408              add al,0x8
00000044  0001              add [ecx],al
00000046  0000              add [eax],al
00000048  0001              add [ecx],al
0000004A  0000              add [eax],al
0000004C  0500000004        add eax,0x4000000
00000051  0000              add [eax],al
00000053  0003              add [ebx],al
00000055  0000              add [eax],al
00000057  003401            add [ecx+eax],dh
0000005A  0000              add [eax],al
0000005C  3481              xor al,0x81
0000005E  0408              add al,0x8
00000060  3481              xor al,0x81
00000062  0408              add al,0x8
00000064  1300              adc eax,[eax]
00000066  0000              add [eax],al
00000068  1300              adc eax,[eax]
0000006A  0000              add [eax],al
0000006C  0400              add al,0x0
0000006E  0000              add [eax],al
00000070  0100              add [eax],eax
00000072  0000              add [eax],al
00000074  0100              add [eax],eax
00000076  0000              add [eax],al
00000078  0000              add [eax],al
0000007A  0000              add [eax],al
0000007C  008004080080      add [eax+0x80000804],al
00000082  0408              add al,0x8
00000084  F4                hlt
00000085  2F                das
00000086  0000              add [eax],al
00000088  F4                hlt
00000089  2F                das
0000008A  0000              add [eax],al
0000008C  0500000000        add eax,0x0
00000091  1000              adc [eax],al
00000093  0001              add [ecx],al
00000095  0000              add [eax],al
00000097  0000              add [eax],al
00000099  3000              xor [eax],al
0000009B  0000              add [eax],al
0000009D  B004              mov al,0x4
0000009F  0800              or [eax],al
000000A1  B004              mov al,0x4
000000A3  085C0100          or [ecx+eax+0x0],bl
000000A7  009802000006      add [eax+0x6000002],bl
000000AD  0000              add [eax],al
000000AF  0000              add [eax],al
000000B1  1000              adc [eax],al
000000B3  0002              add [edx],al
000000B5  0000              add [eax],al
000000B7  0018              add [eax],bl
000000B9  3000              xor [eax],al
000000BB  0018              add [eax],bl
000000BD  B004              mov al,0x4
000000BF  0818              or [eax],bl
000000C1  B004              mov al,0x4
000000C3  08E0              or al,ah
000000C5  0000              add [eax],al
000000C7  00E0              add al,ah
000000C9  0000              add [eax],al
000000CB  0006              add [esi],al
000000CD  0000              add [eax],al
000000CF  000400            add [eax+eax],al
000000D2  0000              add [eax],al
000000D4  0400              add al,0x0
000000D6  0000              add [eax],al
000000D8  48                dec eax
000000D9  0100              add [eax],eax
000000DB  004881            add [eax-0x7f],cl
000000DE  0408              add al,0x8
000000E0  48                dec eax
000000E1  81040820000000    add dword [eax+ecx],0x20
000000E8  2000              and [eax],al
000000EA  0000              add [eax],al
000000EC  0400              add al,0x0
000000EE  0000              add [eax],al
000000F0  0400              add al,0x0
000000F2  0000              add [eax],al
000000F4  50                push eax
000000F5  E574              in eax,0x74
000000F7  64181F            sbb [fs:edi],bl
000000FA  0000              add [eax],al
000000FC  189F0408189F      sbb [edi+0x9f180804],bl
00000102  0408              add al,0x8
00000104  1C03              sbb al,0x3
00000106  0000              add [eax],al
00000108  1C03              sbb al,0x3
0000010A  0000              add [eax],al
0000010C  0400              add al,0x0
0000010E  0000              add [eax],al
00000110  0400              add al,0x0
00000112  0000              add [eax],al
00000114  51                push ecx
00000115  E574              in eax,0x74
00000117  640000            add [fs:eax],al
0000011A  0000              add [eax],al
0000011C  0000              add [eax],al
0000011E  0000              add [eax],al
00000120  0000              add [eax],al
00000122  0000              add [eax],al
00000124  0000              add [eax],al
00000126  0000              add [eax],al
00000128  0000              add [eax],al
0000012A  0000              add [eax],al
0000012C  06                push es
0000012D  0000              add [eax],al
0000012F  000400            add [eax+eax],al
00000132  0000              add [eax],al
00000134  2F                das
00000135  6C                insb
00000136  69622F6C642D6C    imul esp,[edx+0x2f],dword 0x6c2d646c
0000013D  696E75782E736F    imul ebp,[esi+0x75],dword 0x6f732e78
00000144  2E3200            xor al,[cs:eax]
00000147  000400            add [eax+eax],al
0000014A  0000              add [eax],al
0000014C  1000              adc [eax],al
0000014E  0000              add [eax],al
00000150  0100              add [eax],eax
00000152  0000              add [eax],al
00000154  47                inc edi
00000155  4E                dec esi
00000156  55                push ebp
00000157  0000              add [eax],al
00000159  0000              add [eax],al
0000015B  0002              add [edx],al
0000015D  0000              add [eax],al
0000015F  0000              add [eax],al
00000161  0000              add [eax],al
00000163  0000              add [eax],al
00000165  0000              add [eax],al
00000167  0011              add [ecx],dl
00000169  0000              add [eax],al
0000016B  001A              add [edx],bl
0000016D  0000              add [eax],al
0000016F  0011              add [ecx],dl
00000171  0000              add [eax],al
00000173  001400            add [eax+eax],dl
00000176  0000              add [eax],al
00000178  0D00000015        or eax,0x15000000
0000017D  0000              add [eax],al
0000017F  0018              add [eax],bl
00000181  0000              add [eax],al
00000183  0000              add [eax],al
00000185  0000              add [eax],al
00000187  0019              add [ecx],bl
00000189  0000              add [eax],al
0000018B  0017              add [edi],dl
0000018D  0000              add [eax],al
0000018F  0012              add [edx],dl
00000191  0000              add [eax],al
00000193  0002              add [edx],al
00000195  0000              add [eax],al
00000197  0000              add [eax],al
00000199  0000              add [eax],al
0000019B  0000              add [eax],al
0000019D  0000              add [eax],al
0000019F  000C00            add [eax+eax],cl
000001A2  0000              add [eax],al
000001A4  0E                push cs
000001A5  0000              add [eax],al
000001A7  000400            add [eax+eax],al
000001AA  0000              add [eax],al
000001AC  0500000016        add eax,0x16000000
000001B1  0000              add [eax],al
000001B3  0000              add [eax],al
000001B5  0000              add [eax],al
000001B7  0000              add [eax],al
000001B9  0000              add [eax],al
000001BB  0000              add [eax],al
000001BD  0000              add [eax],al
000001BF  0000              add [eax],al
000001C1  0000              add [eax],al
000001C3  0000              add [eax],al
000001C5  0000              add [eax],al
000001C7  0000              add [eax],al
000001C9  0000              add [eax],al
000001CB  0000              add [eax],al
000001CD  0000              add [eax],al
000001CF  0000              add [eax],al
000001D1  0000              add [eax],al
000001D3  0006              add [esi],al
000001D5  0000              add [eax],al
000001D7  0000              add [eax],al
000001D9  0000              add [eax],al
000001DB  0007              add [edi],al
000001DD  0000              add [eax],al
000001DF  0000              add [eax],al
000001E1  0000              add [eax],al
000001E3  0009              add [ecx],cl
000001E5  0000              add [eax],al
000001E7  0003              add [ebx],al
000001E9  0000              add [eax],al
000001EB  000B              add [ebx],cl
000001ED  0000              add [eax],al
000001EF  0008              add [eax],cl
000001F1  0000              add [eax],al
000001F3  0000              add [eax],al
000001F5  0000              add [eax],al
000001F7  0010              add [eax],dl
000001F9  0000              add [eax],al
000001FB  0000              add [eax],al
000001FD  0000              add [eax],al
000001FF  0001              add [ecx],al
00000201  0000              add [eax],al
00000203  0000              add [eax],al
00000205  0000              add [eax],al
00000207  000F              add [edi],cl
00000209  0000              add [eax],al
0000020B  0000              add [eax],al
0000020D  0000              add [eax],al
0000020F  000A              add [edx],cl
00000211  0000              add [eax],al
00000213  0013              add [ebx],dl
00000215  0000              add [eax],al
00000217  0000              add [eax],al
00000219  0000              add [eax],al
0000021B  0000              add [eax],al
0000021D  0000              add [eax],al
0000021F  0000              add [eax],al
00000221  0000              add [eax],al
00000223  0000              add [eax],al
00000225  0000              add [eax],al
00000227  0000              add [eax],al
00000229  0000              add [eax],al
0000022B  0033              add [ebx],dh
0000022D  0100              add [eax],eax
0000022F  0060B1            add [eax-0x4f],ah
00000232  0408              add al,0x8
00000234  90                nop
00000235  0000              add [eax],al
00000237  0011              add [ecx],dl
00000239  0019              add [ecx],bl
0000023B  008D01000000      add [ebp+0x1],cl
00000241  0000              add [eax],al
00000243  0000              add [eax],al
00000245  0000              add [eax],al
00000247  0012              add [edx],dl
00000249  0000              add [eax],al
0000024B  00AB01000000      add [ebx+0x1],ch
00000251  0000              add [eax],al
00000253  0000              add [eax],al
00000255  0000              add [eax],al
00000257  0012              add [edx],dl
00000259  0000              add [eax],al
0000025B  000E              add [esi],cl
0000025D  0200              add al,[eax]
0000025F  0000              add [eax],al
00000261  0000              add [eax],al
00000263  0000              add [eax],al
00000265  0000              add [eax],al
00000267  0012              add [edx],dl
00000269  0000              add [eax],al
0000026B  00EF              add bh,ch
0000026D  0000              add [eax],al
0000026F  0000              add [eax],al
00000271  0000              add [eax],al
00000273  0000              add [eax],al
00000275  0000              add [eax],al
00000277  0020              add [eax],ah
00000279  0000              add [eax],al
0000027B  00540100          add [ecx+eax+0x0],dl
0000027F  0000              add [eax],al
00000281  0000              add [eax],al
00000283  0000              add [eax],al
00000285  0000              add [eax],al
00000287  0020              add [eax],ah
00000289  0000              add [eax],al
0000028B  005C0000          add [eax+eax+0x0],bl
0000028F  0000              add [eax],al
00000291  0000              add [eax],al
00000293  0000              add [eax],al
00000295  0000              add [eax],al
00000297  0012              add [edx],dl
00000299  0000              add [eax],al
0000029B  002501000000      add [0x1],ah
000002A1  0000              add [eax],al
000002A3  0000              add [eax],al
000002A5  0000              add [eax],al
000002A7  0012              add [edx],dl
000002A9  0000              add [eax],al
000002AB  003C01            add [ecx+eax],bh
000002AE  0000              add [eax],al
000002B0  0000              add [eax],al
000002B2  0000              add [eax],al
000002B4  0000              add [eax],al
000002B6  0000              add [eax],al
000002B8  1200              adc al,[eax]
000002BA  0000              add [eax],al
000002BC  1B02              sbb eax,[edx]
000002BE  0000              add [eax],al
000002C0  0000              add [eax],al
000002C2  0000              add [eax],al
000002C4  0000              add [eax],al
000002C6  0000              add [eax],al
000002C8  1200              adc al,[eax]
000002CA  0000              add [eax],al
000002CC  D100              rol dword [eax],1
000002CE  0000              add [eax],al
000002D0  50                push eax
000002D1  880408            mov [eax+ecx],al
000002D4  0000              add [eax],al
000002D6  0000              add [eax],al
000002D8  1200              adc al,[eax]
000002DA  0000              add [eax],al
000002DC  6300              arpl [eax],ax
000002DE  0000              add [eax],al
000002E0  0000              add [eax],al
000002E2  0000              add [eax],al
000002E4  0000              add [eax],al
000002E6  0000              add [eax],al
000002E8  2000              and [eax],al
000002EA  0000              add [eax],al
000002EC  99                cdq
000002ED  0000              add [eax],al
000002EF  0000              add [eax],al
000002F1  0000              add [eax],al
000002F3  0000              add [eax],al
000002F5  0000              add [eax],al
000002F7  0012              add [edx],dl
000002F9  0000              add [eax],al
000002FB  00FF              add bh,bh
000002FD  0100              add [eax],eax
000002FF  00E8              add al,ch
00000301  9E                sahf
00000302  0408              add al,0x8
00000304  0400              add al,0x0
00000306  0000              add [eax],al
00000308  1100              adc [eax],eax
0000030A  0E                push cs
0000030B  007301            add [ebx+0x1],dh
0000030E  0000              add [eax],al
00000310  0000              add [eax],al
00000312  0000              add [eax],al
00000314  0000              add [eax],al
00000316  0000              add [eax],al
00000318  2000              and [eax],al
0000031A  0000              add [eax],al
0000031C  8F00              pop dword [eax]
0000031E  0000              add [eax],al
00000320  00B204088C00      add [edx+0x8c0804],dh
00000326  0000              add [eax],al
00000328  1100              adc [eax],eax
0000032A  1900              sbb [eax],eax
0000032C  E900000000        jmp 0x331
00000331  0000              add [eax],al
00000333  0000              add [eax],al
00000335  0000              add [eax],al
00000337  0012              add [edx],dl
00000339  0000              add [eax],al
0000033B  006801            add [eax+0x1],ch
0000033E  0000              add [eax],al
00000340  0000              add [eax],al
00000342  0000              add [eax],al
00000344  0000              add [eax],al
00000346  0000              add [eax],al
00000348  1200              adc al,[eax]
0000034A  0000              add [eax],al
0000034C  1000              adc [eax],al
0000034E  0000              add [eax],al
00000350  0000              add [eax],al
00000352  0000              add [eax],al
00000354  0000              add [eax],al
00000356  0000              add [eax],al
00000358  1200              adc al,[eax]
0000035A  0000              add [eax],al
0000035C  7F00              jg 0x35e
0000035E  0000              add [eax],al
00000360  0000              add [eax],al
00000362  0000              add [eax],al
00000364  0000              add [eax],al
00000366  0000              add [eax],al
00000368  1200              adc al,[eax]
0000036A  0000              add [eax],al
0000036C  B501              mov ch,0x1
0000036E  0000              add [eax],al
00000370  0000              add [eax],al
00000372  0000              add [eax],al
00000374  0000              add [eax],al
00000376  0000              add [eax],al
00000378  1200              adc al,[eax]
0000037A  0000              add [eax],al
0000037C  2100              and [eax],eax
0000037E  0000              add [eax],al
00000380  C0880408000000    ror byte [eax+0x804],0x0
00000387  0012              add [edx],dl
00000389  0000              add [eax],al
0000038B  0013              add [ebx],dl
0000038D  0100              add [eax],eax
0000038F  0000              add [eax],al
00000391  0000              add [eax],al
00000393  0000              add [eax],al
00000395  0000              add [eax],al
00000397  0012              add [edx],dl
00000399  0000              add [eax],al
0000039B  00FE              add dh,bh
0000039D  0000              add [eax],al
0000039F  00E0              add al,ah
000003A1  880408            mov [eax+ecx],al
000003A4  0000              add [eax],al
000003A6  0000              add [eax],al
000003A8  1200              adc al,[eax]
000003AA  0000              add [eax],al
000003AC  E601              out 0x1,al
000003AE  0000              add [eax],al
000003B0  0000              add [eax],al
000003B2  0000              add [eax],al
000003B4  0000              add [eax],al
000003B6  0000              add [eax],al
000003B8  1200              adc al,[eax]
000003BA  0000              add [eax],al
000003BC  006C6962          add [ecx+ebp*2+0x62],ch
000003C0  7374              jnc 0x436
000003C2  64632B            arpl [fs:ebx],bp
000003C5  2B2E              sub ebp,[esi]
000003C7  736F              jnc 0x438
000003C9  2E36005F5A        add [ss:edi+0x5a],bl
000003CE  4E                dec esi
000003CF  53                push ebx
000003D0  6F                outsd
000003D1  6C                insb
000003D2  7345              jnc 0x419
000003D4  50                push eax
000003D5  46                inc esi
000003D6  52                push edx
000003D7  53                push ebx
000003D8  6F                outsd
000003D9  53                push ebx
000003DA  5F                pop edi
000003DB  45                inc ebp
000003DC  005F5A            add [edi+0x5a],bl
000003DF  53                push ebx
000003E0  7434              jz 0x416
000003E2  656E              gs outsb
000003E4  646C              fs insb
000003E6  49                dec ecx
000003E7  635374            arpl [ebx+0x74],dx
000003EA  3131              xor [ecx],esi
000003EC  636861            arpl [eax+0x61],bp
000003EF  725F              jc 0x450
000003F1  7472              jz 0x465
000003F3  61                popa
000003F4  6974734963454552  imul esi,[ebx+esi*2+0x49],dword 0x52454563
000003FC  53                push ebx
000003FD  7431              jz 0x430
000003FF  336261            xor esp,[edx+0x61]
00000402  7369              jnc 0x46d
00000404  635F6F            arpl [edi+0x6f],bx
00000407  7374              jnc 0x47d
00000409  7265              jc 0x470
0000040B  61                popa
0000040C  6D                insd
0000040D  49                dec ecx
0000040E  54                push esp
0000040F  5F                pop edi
00000410  54                push esp
00000411  305F45            xor [edi+0x45],bl
00000414  53                push ebx
00000415  365F              ss pop edi
00000417  005F5A            add [edi+0x5a],bl
0000041A  646C              fs insb
0000041C  50                push eax
0000041D  7600              jna 0x41f
0000041F  5F                pop edi
00000420  49                dec ecx
00000421  54                push esp
00000422  4D                dec ebp
00000423  5F                pop edi
00000424  64657265          gs jc 0x48d
00000428  676973746572544D  imul esi,[bp+di+0x74],dword 0x4d547265
00000430  43                inc ebx
00000431  6C                insb
00000432  6F                outsd
00000433  6E                outsb
00000434  6554              gs push esp
00000436  61                popa
00000437  626C6500          bound ebp,[ebp+0x0]
0000043B  5F                pop edi
0000043C  5F                pop edi
0000043D  637861            arpl [eax+0x61],di
00000440  5F                pop edi
00000441  656E              gs outsb
00000443  645F              fs pop edi
00000445  636174            arpl [ecx+0x74],sp
00000448  636800            arpl [eax+0x0],bp
0000044B  5F                pop edi
0000044C  5A                pop edx
0000044D  53                push ebx
0000044E  7434              jz 0x484
00000450  636F75            arpl [edi+0x75],bp
00000453  7400              jz 0x455
00000455  5F                pop edi
00000456  5A                pop edx
00000457  53                push ebx
00000458  746C              jz 0x4c6
0000045A  7349              jnc 0x4a5
0000045C  53                push ebx
0000045D  7431              jz 0x490
0000045F  316368            xor [ebx+0x68],esp
00000462  61                popa
00000463  725F              jc 0x4c4
00000465  7472              jz 0x4d9
00000467  61                popa
00000468  6974734963454552  imul esi,[ebx+esi*2+0x49],dword 0x52454563
00000470  53                push ebx
00000471  7431              jz 0x4a4
00000473  336261            xor esp,[edx+0x61]
00000476  7369              jnc 0x4e1
00000478  635F6F            arpl [edi+0x6f],bx
0000047B  7374              jnc 0x4f1
0000047D  7265              jc 0x4e4
0000047F  61                popa
00000480  6D                insd
00000481  49                dec ecx
00000482  63545F45          arpl [edi+ebx*2+0x45],dx
00000486  53                push ebx
00000487  355F504B63        xor eax,0x634b505f
0000048C  005F5A            add [edi+0x5a],bl
0000048F  4E                dec esi
00000490  53                push ebx
00000491  7438              jz 0x4cb
00000493  696F735F626173    imul ebp,[edi+0x73],dword 0x7361625f
0000049A  653449            gs xor al,0x49
0000049D  6E                outsb
0000049E  697444314576005F  imul esi,[esp+eax*2+0x31],dword 0x5f007645
000004A6  5A                pop edx
000004A7  6E                outsb
000004A8  776A              ja 0x514
000004AA  005F5F            add [edi+0x5f],bl
000004AD  676D              a16 insd
000004AF  6F                outsd
000004B0  6E                outsb
000004B1  5F                pop edi
000004B2  7374              jnc 0x528
000004B4  61                popa
000004B5  7274              jc 0x52b
000004B7  5F                pop edi
000004B8  5F                pop edi
000004B9  005F5F            add [edi+0x5f],bl
000004BC  677878            a16 js 0x537
000004BF  5F                pop edi
000004C0  7065              jo 0x527
000004C2  7273              jc 0x537
000004C4  6F                outsd
000004C5  6E                outsb
000004C6  61                popa
000004C7  6C                insb
000004C8  6974795F7630005F  imul esi,[ecx+edi*2+0x5f],dword 0x5f003076
000004D0  5F                pop edi
000004D1  637861            arpl [eax+0x61],di
000004D4  5F                pop edi
000004D5  626567            bound esp,[ebp+0x67]
000004D8  696E5F63617463    imul ebp,[esi+0x5f],dword 0x63746163
000004DF  68005F5F63        push dword 0x635f5f00
000004E4  7861              js 0x547
000004E6  5F                pop edi
000004E7  7265              jc 0x54e
000004E9  7468              jz 0x553
000004EB  726F              jc 0x55c
000004ED  7700              ja 0x4ef
000004EF  5F                pop edi
000004F0  5A                pop edx
000004F1  53                push ebx
000004F2  7433              jz 0x527
000004F4  63696E            arpl [ecx+0x6e],bp
000004F7  005F5A            add [edi+0x5a],bl
000004FA  4E                dec esi
000004FB  53                push ebx
000004FC  7438              jz 0x536
000004FE  696F735F626173    imul ebp,[edi+0x73],dword 0x7361625f
00000505  653449            gs xor al,0x49
00000508  6E                outsb
00000509  697443314576005F  imul esi,[ebx+eax*2+0x31],dword 0x5f007645
00000511  4A                dec edx
00000512  765F              jna 0x573
00000514  52                push edx
00000515  6567697374657243  imul esi,[gs:bp+di+0x74],dword 0x6c437265
         -6C
0000051E  61                popa
0000051F  7373              jnc 0x594
00000521  657300            gs jnc 0x524
00000524  5F                pop edi
00000525  5A                pop edx
00000526  4E                dec esi
00000527  53                push ebx
00000528  69727345526900    imul esi,[edx+0x73],dword 0x695245
0000052F  5F                pop edi
00000530  49                dec ecx
00000531  54                push esp
00000532  4D                dec ebp
00000533  5F                pop edi
00000534  7265              jc 0x59b
00000536  676973746572544D  imul esi,[bp+di+0x74],dword 0x4d547265
0000053E  43                inc ebx
0000053F  6C                insb
00000540  6F                outsd
00000541  6E                outsb
00000542  6554              gs push esp
00000544  61                popa
00000545  626C6500          bound ebp,[ebp+0x0]
00000549  5F                pop edi
0000054A  5A                pop edx
0000054B  53                push ebx
0000054C  7432              jz 0x580
0000054E  305F5F            xor [edi+0x5f],bl
00000551  7468              jz 0x5bb
00000553  726F              jc 0x5c4
00000555  775F              ja 0x5b6
00000557  6C                insb
00000558  656E              gs outsb
0000055A  677468            a16 jz 0x5c5
0000055D  5F                pop edi
0000055E  657272            gs jc 0x5d3
00000561  6F                outsd
00000562  7250              jc 0x5b4
00000564  4B                dec ebx
00000565  6300              arpl [eax],ax
00000567  5F                pop edi
00000568  5A                pop edx
00000569  4E                dec esi
0000056A  53                push ebx
0000056B  6F                outsd
0000056C  6C                insb
0000056D  7345              jnc 0x5b4
0000056F  69005F5A5374      imul eax,[eax],dword 0x74535a5f
00000575  3137              xor [edi],esi
00000577  5F                pop edi
00000578  5F                pop edi
00000579  7468              jz 0x5e3
0000057B  726F              jc 0x5ec
0000057D  775F              ja 0x5de
0000057F  626164            bound esp,[ecx+0x64]
00000582  5F                pop edi
00000583  61                popa
00000584  6C                insb
00000585  6C                insb
00000586  6F                outsd
00000587  637600            arpl [esi+0x0],si
0000058A  6C                insb
0000058B  69626D2E736F2E    imul esp,[edx+0x6d],dword 0x2e6f732e
00000592  36006C6962        add [ss:ecx+ebp*2+0x62],ch
00000597  6763635F          arpl [bp+di+0x5f],sp
0000059B  732E              jnc 0x5cb
0000059D  736F              jnc 0x60e
0000059F  2E3100            xor [cs:eax],eax
000005A2  5F                pop edi
000005A3  55                push ebp
000005A4  6E                outsb
000005A5  7769              ja 0x610
000005A7  6E                outsb
000005A8  645F              fs pop edi
000005AA  52                push edx
000005AB  657375            gs jnc 0x623
000005AE  6D                insd
000005AF  65006C6962        add [gs:ecx+ebp*2+0x62],ch
000005B4  632E              arpl [esi],bp
000005B6  736F              jnc 0x627
000005B8  2E36005F49        add [ss:edi+0x49],bl
000005BD  4F                dec edi
000005BE  5F                pop edi
000005BF  7374              jnc 0x635
000005C1  64696E5F75736564  imul ebp,[fs:esi+0x5f],dword 0x64657375
000005C9  005F5F            add [edi+0x5f],bl
000005CC  637861            arpl [eax+0x61],di
000005CF  5F                pop edi
000005D0  61                popa
000005D1  7465              jz 0x638
000005D3  7869              js 0x63e
000005D5  7400              jz 0x5d7
000005D7  5F                pop edi
000005D8  5F                pop edi
000005D9  6C                insb
000005DA  6962635F737461    imul esp,[edx+0x63],dword 0x6174735f
000005E1  7274              jc 0x657
000005E3  5F                pop edi
000005E4  6D                insd
000005E5  61                popa
000005E6  696E004743435F    imul ebp,[esi+0x0],dword 0x5f434347
000005ED  332E              xor ebp,[esi]
000005EF  3000              xor [eax],al
000005F1  47                inc edi
000005F2  4C                dec esp
000005F3  49                dec ecx
000005F4  42                inc edx
000005F5  43                inc ebx
000005F6  5F                pop edi
000005F7  322E              xor ch,[esi]
000005F9  3000              xor [eax],al
000005FB  47                inc edi
000005FC  4C                dec esp
000005FD  49                dec ecx
000005FE  42                inc edx
000005FF  43                inc ebx
00000600  5F                pop edi
00000601  322E              xor ch,[esi]
00000603  312E              xor [esi],ebp
00000605  3300              xor eax,[eax]
00000607  43                inc ebx
00000608  58                pop eax
00000609  58                pop eax
0000060A  41                inc ecx
0000060B  42                inc edx
0000060C  49                dec ecx
0000060D  5F                pop edi
0000060E  312E              xor [esi],ebp
00000610  3300              xor eax,[eax]
00000612  47                inc edi
00000613  4C                dec esp
00000614  49                dec ecx
00000615  42                inc edx
00000616  43                inc ebx
00000617  58                pop eax
00000618  58                pop eax
00000619  5F                pop edi
0000061A  332E              xor ebp,[esi]
0000061C  3400              xor al,0x0
0000061E  0000              add [eax],al
00000620  0200              add al,[eax]
00000622  0200              add al,[eax]
00000624  0200              add al,[eax]
00000626  0300              add eax,[eax]
00000628  0000              add [eax],al
0000062A  0000              add [eax],al
0000062C  0200              add al,[eax]
0000062E  0400              add al,0x0
00000630  0200              add al,[eax]
00000632  0500020000        add eax,0x200
00000637  0002              add [edx],al
00000639  0001              add [ecx],al
0000063B  0000              add [eax],al
0000063D  0002              add [edx],al
0000063F  0002              add [edx],al
00000641  0002              add [edx],al
00000643  0002              add [edx],al
00000645  000400            add [eax+eax],al
00000648  0200              add al,[eax]
0000064A  0200              add al,[eax]
0000064C  0400              add al,0x0
0000064E  0400              add al,0x0
00000650  06                push es
00000651  0000              add [eax],al
00000653  0001              add [ecx],al
00000655  0001              add [ecx],al
00000657  00D8              add al,bl
00000659  0100              add [eax],eax
0000065B  0010              add [eax],dl
0000065D  0000              add [eax],al
0000065F  0020              add [eax],ah
00000661  0000              add [eax],al
00000663  005026            add [eax+0x26],dl
00000666  790B              jns 0x673
00000668  0000              add [eax],al
0000066A  06                push es
0000066B  002D02000000      add [0x2],ch
00000671  0000              add [eax],al
00000673  0001              add [ecx],al
00000675  0002              add [edx],al
00000677  00F5              add ch,dh
00000679  0100              add [eax],eax
0000067B  0010              add [eax],dl
0000067D  0000              add [eax],al
0000067F  0030              add [eax],dh
00000681  0000              add [eax],al
00000683  0010              add [eax],dl
00000685  69690D00000500    imul ebp,[ecx+0xd],dword 0x50000
0000068C  3502000010        xor eax,0x10000002
00000691  0000              add [eax],al
00000693  00731F            add [ebx+0x1f],dh
00000696  690900000300      imul ecx,[ecx],dword 0x30000
0000069C  3F                aas
0000069D  0200              add al,[eax]
0000069F  0000              add [eax],al
000006A1  0000              add [eax],al
000006A3  0001              add [ecx],al
000006A5  0002              add [edx],al
000006A7  0001              add [ecx],al
000006A9  0000              add [eax],al
000006AB  0010              add [eax],dl
000006AD  0000              add [eax],al
000006AF  0000              add [eax],al
000006B1  0000              add [eax],al
000006B3  00D3              add bl,dl
000006B5  AF                scasd
000006B6  6B05000004004B    imul eax,[0x40000],byte +0x4b
000006BD  0200              add al,[eax]
000006BF  0010              add [eax],dl
000006C1  0000              add [eax],al
000006C3  00742992          add [ecx+ebp-0x6e],dh
000006C7  0800              or [eax],al
000006C9  0002              add [edx],al
000006CB  005602            add [esi+0x2],dl
000006CE  0000              add [eax],al
000006D0  0000              add [eax],al
000006D2  0000              add [eax],al
000006D4  F8                clc
000006D5  B004              mov al,0x4
000006D7  0806              or [esi],al
000006D9  05000060B1        add eax,0xb1600000
000006DE  0408              add al,0x8
000006E0  0501000000        add eax,0x1
000006E5  B204              mov dl,0x4
000006E7  080510000008      or [0x8000010],al
000006ED  B104              mov cl,0x4
000006EF  0807              or [edi],al
000006F1  0200              add al,[eax]
000006F3  000CB1            add [ecx+esi*4],cl
000006F6  0408              add al,0x8
000006F8  07                pop es
000006F9  0300              add eax,[eax]
000006FB  0010              add [eax],dl
000006FD  B104              mov cl,0x4
000006FF  0807              or [edi],al
00000701  0400              add al,0x0
00000703  0014B1            add [ecx+esi*4],dl
00000706  0408              add al,0x8
00000708  07                pop es
00000709  05000018B1        add eax,0xb1180000
0000070E  0408              add al,0x8
00000710  07                pop es
00000711  07                pop es
00000712  0000              add [eax],al
00000714  1CB1              sbb al,0xb1
00000716  0408              add al,0x8
00000718  07                pop es
00000719  0800              or [eax],al
0000071B  0020              add [eax],ah
0000071D  B104              mov cl,0x4
0000071F  0807              or [edi],al
00000721  0900              or [eax],eax
00000723  0024B1            add [ecx+esi*4],ah
00000726  0408              add al,0x8
00000728  07                pop es
00000729  0A00              or al,[eax]
0000072B  0028              add [eax],ch
0000072D  B104              mov cl,0x4
0000072F  0807              or [edi],al
00000731  0B00              or eax,[eax]
00000733  002CB1            add [ecx+esi*4],ch
00000736  0408              add al,0x8
00000738  07                pop es
00000739  0D000030B1        or eax,0xb1300000
0000073E  0408              add al,0x8
00000740  07                pop es
00000741  1100              adc [eax],eax
00000743  0034B1            add [ecx+esi*4],dh
00000746  0408              add al,0x8
00000748  07                pop es
00000749  1200              adc al,[eax]
0000074B  0038              add [eax],bh
0000074D  B104              mov cl,0x4
0000074F  0807              or [edi],al
00000751  1300              adc eax,[eax]
00000753  003CB1            add [ecx+esi*4],bh
00000756  0408              add al,0x8
00000758  07                pop es
00000759  1400              adc al,0x0
0000075B  0040B1            add [eax-0x4f],al
0000075E  0408              add al,0x8
00000760  07                pop es
00000761  15000044B1        adc eax,0xb1440000
00000766  0408              add al,0x8
00000768  07                pop es
00000769  16                push ss
0000076A  0000              add [eax],al
0000076C  48                dec eax
0000076D  B104              mov cl,0x4
0000076F  0807              or [edi],al
00000771  17                pop ss
00000772  0000              add [eax],al
00000774  4C                dec esp
00000775  B104              mov cl,0x4
00000777  0807              or [edi],al
00000779  1800              sbb [eax],al
0000077B  0050B1            add [eax-0x4f],dl
0000077E  0408              add al,0x8
00000780  07                pop es
00000781  1900              sbb [eax],eax
00000783  005589            add [ebp-0x77],dl
00000786  E553              in eax,0x53
00000788  83EC04            sub esp,byte +0x4
0000078B  E800000000        call 0x790
00000790  5B                pop ebx
00000791  81C36C290000      add ebx,0x296c
00000797  8B93FCFFFFFF      mov edx,[ebx+0xfffffffc]
0000079D  85D2              test edx,edx
0000079F  7405              jz 0x7a6
000007A1  E85A000000        call 0x800
000007A6  E845020000        call 0x9f0
000007AB  E8F0160000        call 0x1ea0
000007B0  58                pop eax
000007B1  5B                pop ebx
000007B2  C9                leave
000007B3  C3                ret
000007B4  0000              add [eax],al
000007B6  0000              add [eax],al
000007B8  0000              add [eax],al
000007BA  0000              add [eax],al
000007BC  0000              add [eax],al
000007BE  0000              add [eax],al
000007C0  FF3500B10408      push dword [0x804b100]
000007C6  FF2504B10408      jmp near [0x804b104]
000007CC  0000              add [eax],al
000007CE  0000              add [eax],al
000007D0  FF2508B10408      jmp near [0x804b108]
000007D6  6800000000        push dword 0x0
000007DB  E9E0FFFFFF        jmp 0x1000007c0
000007E0  FF250CB10408      jmp near [0x804b10c]
000007E6  6808000000        push dword 0x8
000007EB  E9D0FFFFFF        jmp 0x1000007c0
000007F0  FF2510B10408      jmp near [0x804b110]
000007F6  6810000000        push dword 0x10
000007FB  E9C0FFFFFF        jmp 0x1000007c0
00000800  FF2514B10408      jmp near [0x804b114]
00000806  6818000000        push dword 0x18
0000080B  E9B0FFFFFF        jmp 0x1000007c0
00000810  FF2518B10408      jmp near [0x804b118]
00000816  6820000000        push dword 0x20
0000081B  E9A0FFFFFF        jmp 0x1000007c0
00000820  FF251CB10408      jmp near [0x804b11c]
00000826  6828000000        push dword 0x28
0000082B  E990FFFFFF        jmp 0x1000007c0
00000830  FF2520B10408      jmp near [0x804b120]
00000836  6830000000        push dword 0x30
0000083B  E980FFFFFF        jmp 0x1000007c0
00000840  FF2524B10408      jmp near [0x804b124]
00000846  6838000000        push dword 0x38
0000084B  E970FFFFFF        jmp 0x1000007c0
00000850  FF2528B10408      jmp near [0x804b128]
00000856  6840000000        push dword 0x40
0000085B  E960FFFFFF        jmp 0x1000007c0
00000860  FF252CB10408      jmp near [0x804b12c]
00000866  6848000000        push dword 0x48
0000086B  E950FFFFFF        jmp 0x1000007c0
00000870  FF2530B10408      jmp near [0x804b130]
00000876  6850000000        push dword 0x50
0000087B  E940FFFFFF        jmp 0x1000007c0
00000880  FF2534B10408      jmp near [0x804b134]
00000886  6858000000        push dword 0x58
0000088B  E930FFFFFF        jmp 0x1000007c0
00000890  FF2538B10408      jmp near [0x804b138]
00000896  6860000000        push dword 0x60
0000089B  E920FFFFFF        jmp 0x1000007c0
000008A0  FF253CB10408      jmp near [0x804b13c]
000008A6  6868000000        push dword 0x68
000008AB  E910FFFFFF        jmp 0x1000007c0
000008B0  FF2540B10408      jmp near [0x804b140]
000008B6  6870000000        push dword 0x70
000008BB  E900FFFFFF        jmp 0x1000007c0
000008C0  FF2544B10408      jmp near [0x804b144]
000008C6  6878000000        push dword 0x78
000008CB  E9F0FEFFFF        jmp 0x1000007c0
000008D0  FF2548B10408      jmp near [0x804b148]
000008D6  6880000000        push dword 0x80
000008DB  E9E0FEFFFF        jmp 0x1000007c0
000008E0  FF254CB10408      jmp near [0x804b14c]
000008E6  6888000000        push dword 0x88
000008EB  E9D0FEFFFF        jmp 0x1000007c0
000008F0  FF2550B10408      jmp near [0x804b150]
000008F6  6890000000        push dword 0x90
000008FB  E9C0FEFFFF        jmp 0x1000007c0
00000900  31ED              xor ebp,ebp
00000902  5E                pop esi
00000903  89E1              mov ecx,esp
00000905  83E4F0            and esp,byte -0x10
00000908  50                push eax
00000909  54                push esp
0000090A  52                push edx
0000090B  68309E0408        push dword 0x8049e30
00000910  68409E0408        push dword 0x8049e40
00000915  51                push ecx
00000916  56                push esi
00000917  68208A0408        push dword 0x8048a20
0000091C  E81FFFFFFF        call 0x100000840
00000921  F4                hlt
00000922  90                nop
00000923  90                nop
00000924  6690              o16 nop
00000926  6690              o16 nop
00000928  6690              o16 nop
0000092A  6690              o16 nop
0000092C  6690              o16 nop
0000092E  6690              o16 nop
00000930  B85FB10408        mov eax,0x804b15f
00000935  2D5CB10408        sub eax,0x804b15c
0000093A  83F806            cmp eax,byte +0x6
0000093D  7701              ja 0x940
0000093F  C3                ret
00000940  B800000000        mov eax,0x0
00000945  85C0              test eax,eax
00000947  74F6              jz 0x93f
00000949  55                push ebp
0000094A  89E5              mov ebp,esp
0000094C  83EC18            sub esp,byte +0x18
0000094F  C704245CB10408    mov dword [esp],0x804b15c
00000956  FFD0              call eax
00000958  C9                leave
00000959  C3                ret
0000095A  8DB600000000      lea esi,[esi+0x0]
00000960  B85CB10408        mov eax,0x804b15c
00000965  2D5CB10408        sub eax,0x804b15c
0000096A  C1F802            sar eax,0x2
0000096D  89C2              mov edx,eax
0000096F  C1EA1F            shr edx,0x1f
00000972  01D0              add eax,edx
00000974  D1F8              sar eax,1
00000976  7501              jnz 0x979
00000978  C3                ret
00000979  BA00000000        mov edx,0x0
0000097E  85D2              test edx,edx
00000980  74F6              jz 0x978
00000982  55                push ebp
00000983  89E5              mov ebp,esp
00000985  83EC18            sub esp,byte +0x18
00000988  89442404          mov [esp+0x4],eax
0000098C  C704245CB10408    mov dword [esp],0x804b15c
00000993  FFD2              call edx
00000995  C9                leave
00000996  C3                ret
00000997  89F6              mov esi,esi
00000999  8DBC2700000000    lea edi,[edi+0x0]
000009A0  803D8CB2040800    cmp byte [0x804b28c],0x0
000009A7  7544              jnz 0x9ed
000009A9  55                push ebp
000009AA  89E5              mov ebp,esp
000009AC  53                push ebx
000009AD  BB10B00408        mov ebx,0x804b010
000009B2  52                push edx
000009B3  81EB0CB00408      sub ebx,0x804b00c
000009B9  A190B20408        mov eax,[0x804b290]
000009BE  C1FB02            sar ebx,0x2
000009C1  4B                dec ebx
000009C2  39D8              cmp eax,ebx
000009C4  7318              jnc 0x9de
000009C6  6690              o16 nop
000009C8  40                inc eax
000009C9  A390B20408        mov [0x804b290],eax
000009CE  FF14850CB00408    call near [eax*4+0x804b00c]
000009D5  A190B20408        mov eax,[0x804b290]
000009DA  39D8              cmp eax,ebx
000009DC  72EA              jc 0x9c8
000009DE  E84DFFFFFF        call 0x100000930
000009E3  C6058CB2040801    mov byte [0x804b28c],0x1
000009EA  58                pop eax
000009EB  5B                pop ebx
000009EC  5D                pop ebp
000009ED  C3                ret
000009EE  6690              o16 nop
000009F0  8B0D14B00408      mov ecx,[0x804b014]
000009F6  85C9              test ecx,ecx
000009F8  741E              jz 0xa18
000009FA  B800000000        mov eax,0x0
000009FF  85C0              test eax,eax
00000A01  7415              jz 0xa18
00000A03  55                push ebp
00000A04  89E5              mov ebp,esp
00000A06  83EC18            sub esp,byte +0x18
00000A09  C7042414B00408    mov dword [esp],0x804b014
00000A10  FFD0              call eax
00000A12  C9                leave
00000A13  E948FFFFFF        jmp 0x100000960
00000A18  E943FFFFFF        jmp 0x100000960
00000A1D  6690              o16 nop
00000A1F  90                nop
00000A20  55                push ebp
00000A21  89E5              mov ebp,esp
00000A23  57                push edi
00000A24  56                push esi
00000A25  53                push ebx
00000A26  83E4F0            and esp,byte -0x10
00000A29  83EC70            sub esp,byte +0x70
00000A2C  8D44243C          lea eax,[esp+0x3c]
00000A30  89442404          mov [esp+0x4],eax
00000A34  C7042460B10408    mov dword [esp],0x804b160
00000A3B  E840FEFFFF        call 0x100000880
00000A40  C744246C01000000  mov dword [esp+0x6c],0x1
00000A48  E95A030000        jmp 0xda7
00000A4D  8D442438          lea eax,[esp+0x38]
00000A51  89442404          mov [esp+0x4],eax
00000A55  C7042460B10408    mov dword [esp],0x804b160
00000A5C  E81FFEFFFF        call 0x100000880
00000A61  8D442443          lea eax,[esp+0x43]
00000A65  890424            mov [esp],eax
00000A68  E82F040000        call 0xe9c
00000A6D  8D442444          lea eax,[esp+0x44]
00000A71  890424            mov [esp],eax
00000A74  E80B040000        call 0xe84
00000A79  8B442438          mov eax,[esp+0x38]
00000A7D  8D542443          lea edx,[esp+0x43]
00000A81  8954240C          mov [esp+0xc],edx
00000A85  8D542444          lea edx,[esp+0x44]
00000A89  89542408          mov [esp+0x8],edx
00000A8D  89442404          mov [esp+0x4],eax
00000A91  8D44242C          lea eax,[esp+0x2c]
00000A95  890424            mov [esp],eax
00000A98  E827040000        call 0xec4
00000A9D  8D442443          lea eax,[esp+0x43]
00000AA1  890424            mov [esp],eax
00000AA4  E807040000        call 0xeb0
00000AA9  C744246800000000  mov dword [esp+0x68],0x0
00000AB1  EB4B              jmp short 0xafe
00000AB3  8B442468          mov eax,[esp+0x68]
00000AB7  89442404          mov [esp+0x4],eax
00000ABB  8D44242C          lea eax,[esp+0x2c]
00000ABF  890424            mov [esp],eax
00000AC2  E8AD040000        call 0xf74
00000AC7  8D5804            lea ebx,[eax+0x4]
00000ACA  8B442468          mov eax,[esp+0x68]
00000ACE  89442404          mov [esp+0x4],eax
00000AD2  8D44242C          lea eax,[esp+0x2c]
00000AD6  890424            mov [esp],eax
00000AD9  E896040000        call 0xf74
00000ADE  89442404          mov [esp+0x4],eax
00000AE2  C7042460B10408    mov dword [esp],0x804b160
00000AE9  E892FDFFFF        call 0x100000880
00000AEE  895C2404          mov [esp+0x4],ebx
00000AF2  890424            mov [esp],eax
00000AF5  E886FDFFFF        call 0x100000880
00000AFA  FF442468          inc dword [esp+0x68]
00000AFE  8B442438          mov eax,[esp+0x38]
00000B02  39442468          cmp [esp+0x68],eax
00000B06  7CAB              jl 0xab3
00000B08  8D442428          lea eax,[esp+0x28]
00000B0C  89442404          mov [esp+0x4],eax
00000B10  C7042460B10408    mov dword [esp],0x804b160
00000B17  E864FDFFFF        call 0x100000880
00000B1C  C744245400000000  mov dword [esp+0x54],0x0
00000B24  8D442454          lea eax,[esp+0x54]
00000B28  89442408          mov [esp+0x8],eax
00000B2C  8D442428          lea eax,[esp+0x28]
00000B30  89442404          mov [esp+0x4],eax
00000B34  8D44244C          lea eax,[esp+0x4c]
00000B38  890424            mov [esp],eax
00000B3B  E846040000        call 0xf86
00000B40  8D44244C          lea eax,[esp+0x4c]
00000B44  89442404          mov [esp+0x4],eax
00000B48  8D44242C          lea eax,[esp+0x2c]
00000B4C  890424            mov [esp],eax
00000B4F  E84C040000        call 0xfa0
00000B54  8B442438          mov eax,[esp+0x38]
00000B58  40                inc eax
00000B59  89442438          mov [esp+0x38],eax
00000B5D  8D44245B          lea eax,[esp+0x5b]
00000B61  890424            mov [esp],eax
00000B64  E8AB040000        call 0x1014
00000B69  8B442438          mov eax,[esp+0x38]
00000B6D  8D54245B          lea edx,[esp+0x5b]
00000B71  8954240C          mov [esp+0xc],edx
00000B75  C7442408FFFFFFFF  mov dword [esp+0x8],0xffffffff
00000B7D  89442404          mov [esp+0x4],eax
00000B81  8D44241C          lea eax,[esp+0x1c]
00000B85  890424            mov [esp],eax
00000B88  E8AF040000        call 0x103c
00000B8D  8D44245B          lea eax,[esp+0x5b]
00000B91  890424            mov [esp],eax
00000B94  E88F040000        call 0x1028
00000B99  C744240400000000  mov dword [esp+0x4],0x0
00000BA1  8D44241C          lea eax,[esp+0x1c]
00000BA5  890424            mov [esp],eax
00000BA8  E83D050000        call 0x10ea
00000BAD  89C3              mov ebx,eax
00000BAF  C744240400000000  mov dword [esp+0x4],0x0
00000BB7  8D44242C          lea eax,[esp+0x2c]
00000BBB  890424            mov [esp],eax
00000BBE  E8B1030000        call 0xf74
00000BC3  8B00              mov eax,[eax]
00000BC5  8903              mov [ebx],eax
00000BC7  C744246400000000  mov dword [esp+0x64],0x0
00000BCF  E90D010000        jmp 0xce1
00000BD4  8B442464          mov eax,[esp+0x64]
00000BD8  40                inc eax
00000BD9  89442460          mov [esp+0x60],eax
00000BDD  E99B000000        jmp 0xc7d
00000BE2  8B442460          mov eax,[esp+0x60]
00000BE6  89442404          mov [esp+0x4],eax
00000BEA  8D44241C          lea eax,[esp+0x1c]
00000BEE  890424            mov [esp],eax
00000BF1  E8F4040000        call 0x10ea
00000BF6  89C3              mov ebx,eax
00000BF8  8B442460          mov eax,[esp+0x60]
00000BFC  89442404          mov [esp+0x4],eax
00000C00  8D44242C          lea eax,[esp+0x2c]
00000C04  890424            mov [esp],eax
00000C07  E868030000        call 0xf74
00000C0C  8D7004            lea esi,[eax+0x4]
00000C0F  8B442460          mov eax,[esp+0x60]
00000C13  89442404          mov [esp+0x4],eax
00000C17  8D44242C          lea eax,[esp+0x2c]
00000C1B  890424            mov [esp],eax
00000C1E  E851030000        call 0xf74
00000C23  8B38              mov edi,[eax]
00000C25  8B442464          mov eax,[esp+0x64]
00000C29  89442404          mov [esp+0x4],eax
00000C2D  8D44242C          lea eax,[esp+0x2c]
00000C31  890424            mov [esp],eax
00000C34  E83B030000        call 0xf74
00000C39  8B00              mov eax,[eax]
00000C3B  29C7              sub edi,eax
00000C3D  89F8              mov eax,edi
00000C3F  8944245C          mov [esp+0x5c],eax
00000C43  89742404          mov [esp+0x4],esi
00000C47  8D44245C          lea eax,[esp+0x5c]
00000C4B  890424            mov [esp],eax
00000C4E  E8A9040000        call 0x10fc
00000C53  89C6              mov esi,eax
00000C55  8B442460          mov eax,[esp+0x60]
00000C59  89442404          mov [esp+0x4],eax
00000C5D  8D44241C          lea eax,[esp+0x1c]
00000C61  890424            mov [esp],eax
00000C64  E881040000        call 0x10ea
00000C69  89742404          mov [esp+0x4],esi
00000C6D  890424            mov [esp],eax
00000C70  E8A2040000        call 0x1117
00000C75  8B00              mov eax,[eax]
00000C77  8903              mov [ebx],eax
00000C79  FF442460          inc dword [esp+0x60]
00000C7D  8B442438          mov eax,[esp+0x38]
00000C81  39442460          cmp [esp+0x60],eax
00000C85  7D4C              jnl 0xcd3
00000C87  8B442460          mov eax,[esp+0x60]
00000C8B  89442404          mov [esp+0x4],eax
00000C8F  8D44242C          lea eax,[esp+0x2c]
00000C93  890424            mov [esp],eax
00000C96  E8D9020000        call 0xf74
00000C9B  8B18              mov ebx,[eax]
00000C9D  8B442464          mov eax,[esp+0x64]
00000CA1  89442404          mov [esp+0x4],eax
00000CA5  8D44242C          lea eax,[esp+0x2c]
00000CA9  890424            mov [esp],eax
00000CAC  E8C3020000        call 0xf74
00000CB1  8B30              mov esi,[eax]
00000CB3  8B442464          mov eax,[esp+0x64]
00000CB7  89442404          mov [esp+0x4],eax
00000CBB  8D44241C          lea eax,[esp+0x1c]
00000CBF  890424            mov [esp],eax
00000CC2  E823040000        call 0x10ea
00000CC7  8B00              mov eax,[eax]
00000CC9  01F0              add eax,esi
00000CCB  39C3              cmp ebx,eax
00000CCD  7F04              jg 0xcd3
00000CCF  B001              mov al,0x1
00000CD1  EB02              jmp short 0xcd5
00000CD3  B000              mov al,0x0
00000CD5  84C0              test al,al
00000CD7  0F8505FFFFFF      jnz near 0x100000be2
00000CDD  FF442464          inc dword [esp+0x64]
00000CE1  8B442438          mov eax,[esp+0x38]
00000CE5  39442464          cmp [esp+0x64],eax
00000CE9  0F8CE5FEFFFF      jl near 0x100000bd4
00000CEF  C7442404EC9E0408  mov dword [esp+0x4],0x8049eec
00000CF7  C7042400B20408    mov dword [esp],0x804b200
00000CFE  E85DFBFFFF        call 0x100000860
00000D03  8B54246C          mov edx,[esp+0x6c]
00000D07  89542404          mov [esp+0x4],edx
00000D0B  890424            mov [esp],eax
00000D0E  E8CDFAFFFF        call 0x1000007e0
00000D13  C7442404F39E0408  mov dword [esp+0x4],0x8049ef3
00000D1B  890424            mov [esp],eax
00000D1E  E83DFBFFFF        call 0x100000860
00000D23  8B442438          mov eax,[esp+0x38]
00000D27  48                dec eax
00000D28  89442404          mov [esp+0x4],eax
00000D2C  8D44241C          lea eax,[esp+0x1c]
00000D30  890424            mov [esp],eax
00000D33  E8B2030000        call 0x10ea
00000D38  8B00              mov eax,[eax]
00000D3A  C1E81F            shr eax,0x1f
00000D3D  84C0              test al,al
00000D3F  7426              jz 0xd67
00000D41  C7442404F69E0408  mov dword [esp+0x4],0x8049ef6
00000D49  C7042400B20408    mov dword [esp],0x804b200
00000D50  E80BFBFFFF        call 0x100000860
00000D55  C7442404C0880408  mov dword [esp+0x4],0x80488c0
00000D5D  890424            mov [esp],eax
00000D60  E82BFBFFFF        call 0x100000890
00000D65  EB24              jmp short 0xd8b
00000D67  C7442404F99E0408  mov dword [esp+0x4],0x8049ef9
00000D6F  C7042400B20408    mov dword [esp],0x804b200
00000D76  E8E5FAFFFF        call 0x100000860
00000D7B  C7442404C0880408  mov dword [esp+0x4],0x80488c0
00000D83  890424            mov [esp],eax
00000D86  E805FBFFFF        call 0x100000890
00000D8B  8D44241C          lea eax,[esp+0x1c]
00000D8F  890424            mov [esp],eax
00000D92  E8FB020000        call 0x1092
00000D97  8D44242C          lea eax,[esp+0x2c]
00000D9B  890424            mov [esp],eax
00000D9E  E879010000        call 0xf1c
00000DA3  FF44246C          inc dword [esp+0x6c]
00000DA7  8B44243C          mov eax,[esp+0x3c]
00000DAB  8D50FF            lea edx,[eax-0x1]
00000DAE  8954243C          mov [esp+0x3c],edx
00000DB2  85C0              test eax,eax
00000DB4  0F95C0            setnz al
00000DB7  84C0              test al,al
00000DB9  0F858EFCFFFF      jnz near 0x100000a4d
00000DBF  B800000000        mov eax,0x0
00000DC4  EB52              jmp short 0xe18
00000DC6  89C3              mov ebx,eax
00000DC8  8D442443          lea eax,[esp+0x43]
00000DCC  890424            mov [esp],eax
00000DCF  E8DC000000        call 0xeb0
00000DD4  89D8              mov eax,ebx
00000DD6  EB38              jmp short 0xe10
00000DD8  89C3              mov ebx,eax
00000DDA  EB22              jmp short 0xdfe
00000DDC  89C3              mov ebx,eax
00000DDE  8D44245B          lea eax,[esp+0x5b]
00000DE2  890424            mov [esp],eax
00000DE5  E83E020000        call 0x1028
00000DEA  EB12              jmp short 0xdfe
00000DEC  89C3              mov ebx,eax
00000DEE  8D44241C          lea eax,[esp+0x1c]
00000DF2  890424            mov [esp],eax
00000DF5  E898020000        call 0x1092
00000DFA  EB02              jmp short 0xdfe
00000DFC  89C3              mov ebx,eax
00000DFE  8D44242C          lea eax,[esp+0x2c]
00000E02  890424            mov [esp],eax
00000E05  E812010000        call 0xf1c
00000E0A  89D8              mov eax,ebx
00000E0C  EB02              jmp short 0xe10
00000E0E  EB00              jmp short 0xe10
00000E10  890424            mov [esp],eax
00000E13  E8D8FAFFFF        call 0x1000008f0
00000E18  8D65F4            lea esp,[ebp-0xc]
00000E1B  5B                pop ebx
00000E1C  5E                pop esi
00000E1D  5F                pop edi
00000E1E  5D                pop ebp
00000E1F  C3                ret
00000E20  55                push ebp
00000E21  89E5              mov ebp,esp
00000E23  83EC18            sub esp,byte +0x18
00000E26  837D0801          cmp dword [ebp+0x8],byte +0x1
00000E2A  7531              jnz 0xe5d
00000E2C  817D0CFFFF0000    cmp dword [ebp+0xc],0xffff
00000E33  7528              jnz 0xe5d
00000E35  C7042494B20408    mov dword [esp],0x804b294
00000E3C  E8EFF9FFFF        call 0x100000830
00000E41  C744240858B10408  mov dword [esp+0x8],0x804b158
00000E49  C744240494B20408  mov dword [esp+0x4],0x804b294
00000E51  C7042450880408    mov dword [esp],0x8048850
00000E58  E893F9FFFF        call 0x1000007f0
00000E5D  C9                leave
00000E5E  C3                ret
00000E5F  55                push ebp
00000E60  89E5              mov ebp,esp
00000E62  83EC18            sub esp,byte +0x18
00000E65  C7442404FFFF0000  mov dword [esp+0x4],0xffff
00000E6D  C7042401000000    mov dword [esp],0x1
00000E74  E8A7FFFFFF        call 0x100000e20
00000E79  C9                leave
00000E7A  C3                ret
00000E7B  55                push ebp
00000E7C  89E5              mov ebp,esp
00000E7E  8B450C            mov eax,[ebp+0xc]
00000E81  5D                pop ebp
00000E82  C3                ret
00000E83  90                nop
00000E84  55                push ebp
00000E85  89E5              mov ebp,esp
00000E87  8B4508            mov eax,[ebp+0x8]
00000E8A  C70000000000      mov dword [eax],0x0
00000E90  8B4508            mov eax,[ebp+0x8]
00000E93  C7400400000000    mov dword [eax+0x4],0x0
00000E9A  5D                pop ebp
00000E9B  C3                ret
00000E9C  55                push ebp
00000E9D  89E5              mov ebp,esp
00000E9F  83EC18            sub esp,byte +0x18
00000EA2  8B4508            mov eax,[ebp+0x8]
00000EA5  890424            mov [esp],eax
00000EA8  E885020000        call 0x1132
00000EAD  C9                leave
00000EAE  C3                ret
00000EAF  90                nop
00000EB0  55                push ebp
00000EB1  89E5              mov ebp,esp
00000EB3  83EC18            sub esp,byte +0x18
00000EB6  8B4508            mov eax,[ebp+0x8]
00000EB9  890424            mov [esp],eax
00000EBC  E877020000        call 0x1138
00000EC1  C9                leave
00000EC2  C3                ret
00000EC3  90                nop
00000EC4  55                push ebp
00000EC5  89E5              mov ebp,esp
00000EC7  53                push ebx
00000EC8  83EC14            sub esp,byte +0x14
00000ECB  8B4508            mov eax,[ebp+0x8]
00000ECE  8B5514            mov edx,[ebp+0x14]
00000ED1  89542408          mov [esp+0x8],edx
00000ED5  8B550C            mov edx,[ebp+0xc]
00000ED8  89542404          mov [esp+0x4],edx
00000EDC  890424            mov [esp],eax
00000EDF  E86E020000        call 0x1152
00000EE4  8B4510            mov eax,[ebp+0x10]
00000EE7  89442408          mov [esp+0x8],eax
00000EEB  8B450C            mov eax,[ebp+0xc]
00000EEE  89442404          mov [esp+0x4],eax
00000EF2  8B4508            mov eax,[ebp+0x8]
00000EF5  890424            mov [esp],eax
00000EF8  E8FF020000        call 0x11fc
00000EFD  EB17              jmp short 0xf16
00000EFF  89C3              mov ebx,eax
00000F01  8B4508            mov eax,[ebp+0x8]
00000F04  890424            mov [esp],eax
00000F07  E890020000        call 0x119c
00000F0C  89D8              mov eax,ebx
00000F0E  890424            mov [esp],eax
00000F11  E8DAF9FFFF        call 0x1000008f0
00000F16  83C414            add esp,byte +0x14
00000F19  5B                pop ebx
00000F1A  5D                pop ebp
00000F1B  C3                ret
00000F1C  55                push ebp
00000F1D  89E5              mov ebp,esp
00000F1F  53                push ebx
00000F20  83EC14            sub esp,byte +0x14
00000F23  8B4508            mov eax,[ebp+0x8]
00000F26  890424            mov [esp],eax
00000F29  E80C030000        call 0x123a
00000F2E  8B5508            mov edx,[ebp+0x8]
00000F31  8B4A04            mov ecx,[edx+0x4]
00000F34  8B5508            mov edx,[ebp+0x8]
00000F37  8B12              mov edx,[edx]
00000F39  89442408          mov [esp+0x8],eax
00000F3D  894C2404          mov [esp+0x4],ecx
00000F41  891424            mov [esp],edx
00000F44  E8F9020000        call 0x1242
00000F49  8B4508            mov eax,[ebp+0x8]
00000F4C  890424            mov [esp],eax
00000F4F  E848020000        call 0x119c
00000F54  EB17              jmp short 0xf6d
00000F56  89C3              mov ebx,eax
00000F58  8B4508            mov eax,[ebp+0x8]
00000F5B  890424            mov [esp],eax
00000F5E  E839020000        call 0x119c
00000F63  89D8              mov eax,ebx
00000F65  890424            mov [esp],eax
00000F68  E883F9FFFF        call 0x1000008f0
00000F6D  83C414            add esp,byte +0x14
00000F70  5B                pop ebx
00000F71  5D                pop ebp
00000F72  C3                ret
00000F73  90                nop
00000F74  55                push ebp
00000F75  89E5              mov ebp,esp
00000F77  8B4508            mov eax,[ebp+0x8]
00000F7A  8B00              mov eax,[eax]
00000F7C  8B550C            mov edx,[ebp+0xc]
00000F7F  C1E203            shl edx,0x3
00000F82  01D0              add eax,edx
00000F84  5D                pop ebp
00000F85  C3                ret
00000F86  55                push ebp
00000F87  89E5              mov ebp,esp
00000F89  8B450C            mov eax,[ebp+0xc]
00000F8C  8B10              mov edx,[eax]
00000F8E  8B4508            mov eax,[ebp+0x8]
00000F91  8910              mov [eax],edx
00000F93  8B4510            mov eax,[ebp+0x10]
00000F96  8B10              mov edx,[eax]
00000F98  8B4508            mov eax,[ebp+0x8]
00000F9B  895004            mov [eax+0x4],edx
00000F9E  5D                pop ebp
00000F9F  C3                ret
00000FA0  55                push ebp
00000FA1  89E5              mov ebp,esp
00000FA3  83EC28            sub esp,byte +0x28
00000FA6  8B4508            mov eax,[ebp+0x8]
00000FA9  8B5004            mov edx,[eax+0x4]
00000FAC  8B4508            mov eax,[ebp+0x8]
00000FAF  8B4008            mov eax,[eax+0x8]
00000FB2  39C2              cmp edx,eax
00000FB4  742D              jz 0xfe3
00000FB6  8B4508            mov eax,[ebp+0x8]
00000FB9  8B5004            mov edx,[eax+0x4]
00000FBC  8B4508            mov eax,[ebp+0x8]
00000FBF  8B4D0C            mov ecx,[ebp+0xc]
00000FC2  894C2408          mov [esp+0x8],ecx
00000FC6  89542404          mov [esp+0x4],edx
00000FCA  890424            mov [esp],eax
00000FCD  E88A020000        call 0x125c
00000FD2  8B4508            mov eax,[ebp+0x8]
00000FD5  8B4004            mov eax,[eax+0x4]
00000FD8  8D5008            lea edx,[eax+0x8]
00000FDB  8B4508            mov eax,[ebp+0x8]
00000FDE  895004            mov [eax+0x4],edx
00000FE1  EB2E              jmp short 0x1011
00000FE3  8D45F4            lea eax,[ebp-0xc]
00000FE6  8B5508            mov edx,[ebp+0x8]
00000FE9  89542404          mov [esp+0x4],edx
00000FED  890424            mov [esp],eax
00000FF0  E843050000        call 0x1538
00000FF5  83EC04            sub esp,byte +0x4
00000FF8  8B450C            mov eax,[ebp+0xc]
00000FFB  89442408          mov [esp+0x8],eax
00000FFF  8B45F4            mov eax,[ebp-0xc]
00001002  89442404          mov [esp+0x4],eax
00001006  8B4508            mov eax,[ebp+0x8]
00001009  890424            mov [esp],eax
0000100C  E86D020000        call 0x127e
00001011  C9                leave
00001012  C3                ret
00001013  90                nop
00001014  55                push ebp
00001015  89E5              mov ebp,esp
00001017  83EC18            sub esp,byte +0x18
0000101A  8B4508            mov eax,[ebp+0x8]
0000101D  890424            mov [esp],eax
00001020  E835050000        call 0x155a
00001025  C9                leave
00001026  C3                ret
00001027  90                nop
00001028  55                push ebp
00001029  89E5              mov ebp,esp
0000102B  83EC18            sub esp,byte +0x18
0000102E  8B4508            mov eax,[ebp+0x8]
00001031  890424            mov [esp],eax
00001034  E827050000        call 0x1560
00001039  C9                leave
0000103A  C3                ret
0000103B  90                nop
0000103C  55                push ebp
0000103D  89E5              mov ebp,esp
0000103F  53                push ebx
00001040  83EC24            sub esp,byte +0x24
00001043  8B4508            mov eax,[ebp+0x8]
00001046  8B5514            mov edx,[ebp+0x14]
00001049  89542404          mov [esp+0x4],edx
0000104D  890424            mov [esp],eax
00001050  E825050000        call 0x157a
00001055  885C240C          mov [esp+0xc],bl
00001059  8B4510            mov eax,[ebp+0x10]
0000105C  89442408          mov [esp+0x8],eax
00001060  8B450C            mov eax,[ebp+0xc]
00001063  89442404          mov [esp+0x4],eax
00001067  8B4508            mov eax,[ebp+0x8]
0000106A  890424            mov [esp],eax
0000106D  E882050000        call 0x15f4
00001072  EB17              jmp short 0x108b
00001074  89C3              mov ebx,eax
00001076  8B4508            mov eax,[ebp+0x8]
00001079  890424            mov [esp],eax
0000107C  E813050000        call 0x1594
00001081  89D8              mov eax,ebx
00001083  890424            mov [esp],eax
00001086  E865F8FFFF        call 0x1000008f0
0000108B  83C424            add esp,byte +0x24
0000108E  5B                pop ebx
0000108F  5D                pop ebp
00001090  C3                ret
00001091  90                nop
00001092  55                push ebp
00001093  89E5              mov ebp,esp
00001095  53                push ebx
00001096  83EC14            sub esp,byte +0x14
00001099  8B4508            mov eax,[ebp+0x8]
0000109C  890424            mov [esp],eax
0000109F  E89C050000        call 0x1640
000010A4  8B5508            mov edx,[ebp+0x8]
000010A7  8B4A04            mov ecx,[edx+0x4]
000010AA  8B5508            mov edx,[ebp+0x8]
000010AD  8B12              mov edx,[edx]
000010AF  89442408          mov [esp+0x8],eax
000010B3  894C2404          mov [esp+0x4],ecx
000010B7  891424            mov [esp],edx
000010BA  E889050000        call 0x1648
000010BF  8B4508            mov eax,[ebp+0x8]
000010C2  890424            mov [esp],eax
000010C5  E8CA040000        call 0x1594
000010CA  EB17              jmp short 0x10e3
000010CC  89C3              mov ebx,eax
000010CE  8B4508            mov eax,[ebp+0x8]
000010D1  890424            mov [esp],eax
000010D4  E8BB040000        call 0x1594
000010D9  89D8              mov eax,ebx
000010DB  890424            mov [esp],eax
000010DE  E80DF8FFFF        call 0x1000008f0
000010E3  83C414            add esp,byte +0x14
000010E6  5B                pop ebx
000010E7  5D                pop ebp
000010E8  C3                ret
000010E9  90                nop
000010EA  55                push ebp
000010EB  89E5              mov ebp,esp
000010ED  8B4508            mov eax,[ebp+0x8]
000010F0  8B00              mov eax,[eax]
000010F2  8B550C            mov edx,[ebp+0xc]
000010F5  C1E202            shl edx,0x2
000010F8  01D0              add eax,edx
000010FA  5D                pop ebp
000010FB  C3                ret
000010FC  55                push ebp
000010FD  89E5              mov ebp,esp
000010FF  8B450C            mov eax,[ebp+0xc]
00001102  8B10              mov edx,[eax]
00001104  8B4508            mov eax,[ebp+0x8]
00001107  8B00              mov eax,[eax]
00001109  39C2              cmp edx,eax
0000110B  7D05              jnl 0x1112
0000110D  8B450C            mov eax,[ebp+0xc]
00001110  EB03              jmp short 0x1115
00001112  8B4508            mov eax,[ebp+0x8]
00001115  5D                pop ebp
00001116  C3                ret
00001117  55                push ebp
00001118  89E5              mov ebp,esp
0000111A  8B4508            mov eax,[ebp+0x8]
0000111D  8B10              mov edx,[eax]
0000111F  8B450C            mov eax,[ebp+0xc]
00001122  8B00              mov eax,[eax]
00001124  39C2              cmp edx,eax
00001126  7D05              jnl 0x112d
00001128  8B450C            mov eax,[ebp+0xc]
0000112B  EB03              jmp short 0x1130
0000112D  8B4508            mov eax,[ebp+0x8]
00001130  5D                pop ebp
00001131  C3                ret
00001132  55                push ebp
00001133  89E5              mov ebp,esp
00001135  5D                pop ebp
00001136  C3                ret
00001137  90                nop
00001138  55                push ebp
00001139  89E5              mov ebp,esp
0000113B  5D                pop ebp
0000113C  C3                ret
0000113D  90                nop
0000113E  55                push ebp
0000113F  89E5              mov ebp,esp
00001141  83EC18            sub esp,byte +0x18
00001144  8B4508            mov eax,[ebp+0x8]
00001147  890424            mov [esp],eax
0000114A  E861FDFFFF        call 0x100000eb0
0000114F  C9                leave
00001150  C3                ret
00001151  90                nop
00001152  55                push ebp
00001153  89E5              mov ebp,esp
00001155  53                push ebx
00001156  83EC14            sub esp,byte +0x14
00001159  8B4508            mov eax,[ebp+0x8]
0000115C  8B5510            mov edx,[ebp+0x10]
0000115F  89542404          mov [esp+0x4],edx
00001163  890424            mov [esp],eax
00001166  E8F7040000        call 0x1662
0000116B  8B450C            mov eax,[ebp+0xc]
0000116E  89442404          mov [esp+0x4],eax
00001172  8B4508            mov eax,[ebp+0x8]
00001175  890424            mov [esp],eax
00001178  E81D050000        call 0x169a
0000117D  EB17              jmp short 0x1196
0000117F  89C3              mov ebx,eax
00001181  8B4508            mov eax,[ebp+0x8]
00001184  890424            mov [esp],eax
00001187  E8B2FFFFFF        call 0x10000113e
0000118C  89D8              mov eax,ebx
0000118E  890424            mov [esp],eax
00001191  E85AF7FFFF        call 0x1000008f0
00001196  83C414            add esp,byte +0x14
00001199  5B                pop ebx
0000119A  5D                pop ebp
0000119B  C3                ret
0000119C  55                push ebp
0000119D  89E5              mov ebp,esp
0000119F  53                push ebx
000011A0  83EC14            sub esp,byte +0x14
000011A3  8B4508            mov eax,[ebp+0x8]
000011A6  8B4008            mov eax,[eax+0x8]
000011A9  89C2              mov edx,eax
000011AB  8B4508            mov eax,[ebp+0x8]
000011AE  8B00              mov eax,[eax]
000011B0  29C2              sub edx,eax
000011B2  89D0              mov eax,edx
000011B4  C1F803            sar eax,0x3
000011B7  89C2              mov edx,eax
000011B9  8B4508            mov eax,[ebp+0x8]
000011BC  8B00              mov eax,[eax]
000011BE  89542408          mov [esp+0x8],edx
000011C2  89442404          mov [esp+0x4],eax
000011C6  8B4508            mov eax,[ebp+0x8]
000011C9  890424            mov [esp],eax
000011CC  E807050000        call 0x16d8
000011D1  8B4508            mov eax,[ebp+0x8]
000011D4  890424            mov [esp],eax
000011D7  E862FFFFFF        call 0x10000113e
000011DC  EB17              jmp short 0x11f5
000011DE  89C3              mov ebx,eax
000011E0  8B4508            mov eax,[ebp+0x8]
000011E3  890424            mov [esp],eax
000011E6  E853FFFFFF        call 0x10000113e
000011EB  89D8              mov eax,ebx
000011ED  890424            mov [esp],eax
000011F0  E8FBF6FFFF        call 0x1000008f0
000011F5  83C414            add esp,byte +0x14
000011F8  5B                pop ebx
000011F9  5D                pop ebp
000011FA  C3                ret
000011FB  90                nop
000011FC  55                push ebp
000011FD  89E5              mov ebp,esp
000011FF  83EC18            sub esp,byte +0x18
00001202  8B4508            mov eax,[ebp+0x8]
00001205  890424            mov [esp],eax
00001208  E82D000000        call 0x123a
0000120D  8B5508            mov edx,[ebp+0x8]
00001210  8B12              mov edx,[edx]
00001212  8944240C          mov [esp+0xc],eax
00001216  8B4510            mov eax,[ebp+0x10]
00001219  89442408          mov [esp+0x8],eax
0000121D  8B450C            mov eax,[ebp+0xc]
00001220  89442404          mov [esp+0x4],eax
00001224  891424            mov [esp],edx
00001227  E8D3040000        call 0x16ff
0000122C  8B4508            mov eax,[ebp+0x8]
0000122F  8B5008            mov edx,[eax+0x8]
00001232  8B4508            mov eax,[ebp+0x8]
00001235  895004            mov [eax+0x4],edx
00001238  C9                leave
00001239  C3                ret
0000123A  55                push ebp
0000123B  89E5              mov ebp,esp
0000123D  8B4508            mov eax,[ebp+0x8]
00001240  5D                pop ebp
00001241  C3                ret
00001242  55                push ebp
00001243  89E5              mov ebp,esp
00001245  83EC18            sub esp,byte +0x18
00001248  8B450C            mov eax,[ebp+0xc]
0000124B  89442404          mov [esp+0x4],eax
0000124F  8B4508            mov eax,[ebp+0x8]
00001252  890424            mov [esp],eax
00001255  E8C6040000        call 0x1720
0000125A  C9                leave
0000125B  C3                ret
0000125C  55                push ebp
0000125D  89E5              mov ebp,esp
0000125F  83EC18            sub esp,byte +0x18
00001262  8B4510            mov eax,[ebp+0x10]
00001265  89442408          mov [esp+0x8],eax
00001269  8B450C            mov eax,[ebp+0xc]
0000126C  89442404          mov [esp+0x4],eax
00001270  8B4508            mov eax,[ebp+0x8]
00001273  890424            mov [esp],eax
00001276  E8BF040000        call 0x173a
0000127B  C9                leave
0000127C  C3                ret
0000127D  90                nop
0000127E  55                push ebp
0000127F  89E5              mov ebp,esp
00001281  56                push esi
00001282  53                push ebx
00001283  83EC30            sub esp,byte +0x30
00001286  8B4508            mov eax,[ebp+0x8]
00001289  8B5004            mov edx,[eax+0x4]
0000128C  8B4508            mov eax,[ebp+0x8]
0000128F  8B4008            mov eax,[eax+0x8]
00001292  39C2              cmp edx,eax
00001294  0F848B000000      jz near 0x1325
0000129A  8B4508            mov eax,[ebp+0x8]
0000129D  8B4004            mov eax,[eax+0x4]
000012A0  8D48F8            lea ecx,[eax-0x8]
000012A3  8B4508            mov eax,[ebp+0x8]
000012A6  8B5004            mov edx,[eax+0x4]
000012A9  8B4508            mov eax,[ebp+0x8]
000012AC  894C2408          mov [esp+0x8],ecx
000012B0  89542404          mov [esp+0x4],edx
000012B4  890424            mov [esp],eax
000012B7  E8A0FFFFFF        call 0x10000125c
000012BC  8B4508            mov eax,[ebp+0x8]
000012BF  8B4004            mov eax,[eax+0x4]
000012C2  8D5008            lea edx,[eax+0x8]
000012C5  8B4508            mov eax,[ebp+0x8]
000012C8  895004            mov [eax+0x4],edx
000012CB  8B4510            mov eax,[ebp+0x10]
000012CE  8B5004            mov edx,[eax+0x4]
000012D1  8B00              mov eax,[eax]
000012D3  8945DC            mov [ebp-0x24],eax
000012D6  8955E0            mov [ebp-0x20],edx
000012D9  8B4508            mov eax,[ebp+0x8]
000012DC  8B4004            mov eax,[eax+0x4]
000012DF  8D70F8            lea esi,[eax-0x8]
000012E2  8B4508            mov eax,[ebp+0x8]
000012E5  8B4004            mov eax,[eax+0x4]
000012E8  8D58F0            lea ebx,[eax-0x10]
000012EB  8D450C            lea eax,[ebp+0xc]
000012EE  890424            mov [esp],eax
000012F1  E872040000        call 0x1768
000012F6  8B00              mov eax,[eax]
000012F8  89742408          mov [esp+0x8],esi
000012FC  895C2404          mov [esp+0x4],ebx
00001300  890424            mov [esp],eax
00001303  E868040000        call 0x1770
00001308  8D450C            lea eax,[ebp+0xc]
0000130B  890424            mov [esp],eax
0000130E  E895040000        call 0x17a8
00001313  89C1              mov ecx,eax
00001315  8B45DC            mov eax,[ebp-0x24]
00001318  8B55E0            mov edx,[ebp-0x20]
0000131B  8901              mov [ecx],eax
0000131D  895104            mov [ecx+0x4],edx
00001320  E90C020000        jmp 0x1531
00001325  C7442408FD9E0408  mov dword [esp+0x8],0x8049efd
0000132D  C744240401000000  mov dword [esp+0x4],0x1
00001335  8B4508            mov eax,[ebp+0x8]
00001338  890424            mov [esp],eax
0000133B  E872040000        call 0x17b2
00001340  8945F0            mov [ebp-0x10],eax
00001343  8D45E4            lea eax,[ebp-0x1c]
00001346  8B5508            mov edx,[ebp+0x8]
00001349  89542404          mov [esp+0x4],edx
0000134D  890424            mov [esp],eax
00001350  E801050000        call 0x1856
00001355  83EC04            sub esp,byte +0x4
00001358  8D45E4            lea eax,[ebp-0x1c]
0000135B  89442404          mov [esp+0x4],eax
0000135F  8D450C            lea eax,[ebp+0xc]
00001362  890424            mov [esp],eax
00001365  E80B050000        call 0x1875
0000136A  8945EC            mov [ebp-0x14],eax
0000136D  8B4508            mov eax,[ebp+0x8]
00001370  8B55F0            mov edx,[ebp-0x10]
00001373  89542404          mov [esp+0x4],edx
00001377  890424            mov [esp],eax
0000137A  E827050000        call 0x18a6
0000137F  8945E8            mov [ebp-0x18],eax
00001382  8B45E8            mov eax,[ebp-0x18]
00001385  8945F4            mov [ebp-0xc],eax
00001388  8B45EC            mov eax,[ebp-0x14]
0000138B  8D14C500000000    lea edx,[eax*8+0x0]
00001392  8B45E8            mov eax,[ebp-0x18]
00001395  8D0C02            lea ecx,[edx+eax]
00001398  8B4508            mov eax,[ebp+0x8]
0000139B  8B5510            mov edx,[ebp+0x10]
0000139E  89542408          mov [esp+0x8],edx
000013A2  894C2404          mov [esp+0x4],ecx
000013A6  890424            mov [esp],eax
000013A9  E8AEFEFFFF        call 0x10000125c
000013AE  C745F400000000    mov dword [ebp-0xc],0x0
000013B5  8B4508            mov eax,[ebp+0x8]
000013B8  890424            mov [esp],eax
000013BB  E87AFEFFFF        call 0x10000123a
000013C0  89C3              mov ebx,eax
000013C2  8D450C            lea eax,[ebp+0xc]
000013C5  890424            mov [esp],eax
000013C8  E89B030000        call 0x1768
000013CD  8B10              mov edx,[eax]
000013CF  8B4508            mov eax,[ebp+0x8]
000013D2  8B00              mov eax,[eax]
000013D4  895C240C          mov [esp+0xc],ebx
000013D8  8B4DE8            mov ecx,[ebp-0x18]
000013DB  894C2408          mov [esp+0x8],ecx
000013DF  89542404          mov [esp+0x4],edx
000013E3  890424            mov [esp],eax
000013E6  E8EA040000        call 0x18d5
000013EB  8945F4            mov [ebp-0xc],eax
000013EE  8345F408          add dword [ebp-0xc],byte +0x8
000013F2  8B4508            mov eax,[ebp+0x8]
000013F5  890424            mov [esp],eax
000013F8  E83DFEFFFF        call 0x10000123a
000013FD  89C3              mov ebx,eax
000013FF  8B4508            mov eax,[ebp+0x8]
00001402  8B7004            mov esi,[eax+0x4]
00001405  8D450C            lea eax,[ebp+0xc]
00001408  890424            mov [esp],eax
0000140B  E858030000        call 0x1768
00001410  8B00              mov eax,[eax]
00001412  895C240C          mov [esp+0xc],ebx
00001416  8B55F4            mov edx,[ebp-0xc]
00001419  89542408          mov [esp+0x8],edx
0000141D  89742404          mov [esp+0x4],esi
00001421  890424            mov [esp],eax
00001424  E8AC040000        call 0x18d5
00001429  8945F4            mov [ebp-0xc],eax
0000142C  8B4508            mov eax,[ebp+0x8]
0000142F  890424            mov [esp],eax
00001432  E803FEFFFF        call 0x10000123a
00001437  8B5508            mov edx,[ebp+0x8]
0000143A  8B4A04            mov ecx,[edx+0x4]
0000143D  8B5508            mov edx,[ebp+0x8]
00001440  8B12              mov edx,[edx]
00001442  89442408          mov [esp+0x8],eax
00001446  894C2404          mov [esp+0x4],ecx
0000144A  891424            mov [esp],edx
0000144D  E8F0FDFFFF        call 0x100001242
00001452  8B4508            mov eax,[ebp+0x8]
00001455  8B4008            mov eax,[eax+0x8]
00001458  89C2              mov edx,eax
0000145A  8B4508            mov eax,[ebp+0x8]
0000145D  8B00              mov eax,[eax]
0000145F  29C2              sub edx,eax
00001461  89D0              mov eax,edx
00001463  C1F803            sar eax,0x3
00001466  89C1              mov ecx,eax
00001468  8B4508            mov eax,[ebp+0x8]
0000146B  8B10              mov edx,[eax]
0000146D  8B4508            mov eax,[ebp+0x8]
00001470  894C2408          mov [esp+0x8],ecx
00001474  89542404          mov [esp+0x4],edx
00001478  890424            mov [esp],eax
0000147B  E858020000        call 0x16d8
00001480  8B4508            mov eax,[ebp+0x8]
00001483  8B55E8            mov edx,[ebp-0x18]
00001486  8910              mov [eax],edx
00001488  8B4508            mov eax,[ebp+0x8]
0000148B  8B55F4            mov edx,[ebp-0xc]
0000148E  895004            mov [eax+0x4],edx
00001491  8B45F0            mov eax,[ebp-0x10]
00001494  8D14C500000000    lea edx,[eax*8+0x0]
0000149B  8B45E8            mov eax,[ebp-0x18]
0000149E  01C2              add edx,eax
000014A0  8B4508            mov eax,[ebp+0x8]
000014A3  895008            mov [eax+0x8],edx
000014A6  E986000000        jmp 0x1531
000014AB  890424            mov [esp],eax
000014AE  E83DF4FFFF        call 0x1000008f0
000014B3  89C3              mov ebx,eax
000014B5  E8E6F3FFFF        call 0x1000008a0
000014BA  89D8              mov eax,ebx
000014BC  890424            mov [esp],eax
000014BF  E82CF4FFFF        call 0x1000008f0
000014C4  890424            mov [esp],eax
000014C7  E804F4FFFF        call 0x1000008d0
000014CC  837DF400          cmp dword [ebp-0xc],byte +0x0
000014D0  7520              jnz 0x14f2
000014D2  8B45EC            mov eax,[ebp-0x14]
000014D5  8D14C500000000    lea edx,[eax*8+0x0]
000014DC  8B45E8            mov eax,[ebp-0x18]
000014DF  01C2              add edx,eax
000014E1  8B4508            mov eax,[ebp+0x8]
000014E4  89542404          mov [esp+0x4],edx
000014E8  890424            mov [esp],eax
000014EB  E80D040000        call 0x18fd
000014F0  EB21              jmp short 0x1513
000014F2  8B4508            mov eax,[ebp+0x8]
000014F5  890424            mov [esp],eax
000014F8  E83DFDFFFF        call 0x10000123a
000014FD  89442408          mov [esp+0x8],eax
00001501  8B45F4            mov eax,[ebp-0xc]
00001504  89442404          mov [esp+0x4],eax
00001508  8B45E8            mov eax,[ebp-0x18]
0000150B  890424            mov [esp],eax
0000150E  E82FFDFFFF        call 0x100001242
00001513  8B4508            mov eax,[ebp+0x8]
00001516  8B55F0            mov edx,[ebp-0x10]
00001519  89542408          mov [esp+0x8],edx
0000151D  8B55E8            mov edx,[ebp-0x18]
00001520  89542404          mov [esp+0x4],edx
00001524  890424            mov [esp],eax
00001527  E8AC010000        call 0x16d8
0000152C  E8EFF2FFFF        call 0x100000820
00001531  8D65F8            lea esp,[ebp-0x8]
00001534  5B                pop ebx
00001535  5E                pop esi
00001536  5D                pop ebp
00001537  C3                ret
00001538  55                push ebp
00001539  89E5              mov ebp,esp
0000153B  83EC18            sub esp,byte +0x18
0000153E  8B450C            mov eax,[ebp+0xc]
00001541  83C004            add eax,byte +0x4
00001544  89442404          mov [esp+0x4],eax
00001548  8B4508            mov eax,[ebp+0x8]
0000154B  890424            mov [esp],eax
0000154E  E8C5030000        call 0x1918
00001553  8B4508            mov eax,[ebp+0x8]
00001556  C9                leave
00001557  C20400            ret 0x4
0000155A  55                push ebp
0000155B  89E5              mov ebp,esp
0000155D  5D                pop ebp
0000155E  C3                ret
0000155F  90                nop
00001560  55                push ebp
00001561  89E5              mov ebp,esp
00001563  5D                pop ebp
00001564  C3                ret
00001565  90                nop
00001566  55                push ebp
00001567  89E5              mov ebp,esp
00001569  83EC18            sub esp,byte +0x18
0000156C  8B4508            mov eax,[ebp+0x8]
0000156F  890424            mov [esp],eax
00001572  E8B1FAFFFF        call 0x100001028
00001577  C9                leave
00001578  C3                ret
00001579  90                nop
0000157A  55                push ebp
0000157B  89E5              mov ebp,esp
0000157D  83EC18            sub esp,byte +0x18
00001580  8B4508            mov eax,[ebp+0x8]
00001583  8B550C            mov edx,[ebp+0xc]
00001586  89542404          mov [esp+0x4],edx
0000158A  890424            mov [esp],eax
0000158D  E896030000        call 0x1928
00001592  C9                leave
00001593  C3                ret
00001594  55                push ebp
00001595  89E5              mov ebp,esp
00001597  53                push ebx
00001598  83EC14            sub esp,byte +0x14
0000159B  8B4508            mov eax,[ebp+0x8]
0000159E  8B4008            mov eax,[eax+0x8]
000015A1  89C2              mov edx,eax
000015A3  8B4508            mov eax,[ebp+0x8]
000015A6  8B00              mov eax,[eax]
000015A8  29C2              sub edx,eax
000015AA  89D0              mov eax,edx
000015AC  C1F802            sar eax,0x2
000015AF  89C2              mov edx,eax
000015B1  8B4508            mov eax,[ebp+0x8]
000015B4  8B00              mov eax,[eax]
000015B6  89542408          mov [esp+0x8],edx
000015BA  89442404          mov [esp+0x4],eax
000015BE  8B4508            mov eax,[ebp+0x8]
000015C1  890424            mov [esp],eax
000015C4  E897030000        call 0x1960
000015C9  8B4508            mov eax,[ebp+0x8]
000015CC  890424            mov [esp],eax
000015CF  E892FFFFFF        call 0x100001566
000015D4  EB17              jmp short 0x15ed
000015D6  89C3              mov ebx,eax
000015D8  8B4508            mov eax,[ebp+0x8]
000015DB  890424            mov [esp],eax
000015DE  E883FFFFFF        call 0x100001566
000015E3  89D8              mov eax,ebx
000015E5  890424            mov [esp],eax
000015E8  E803F3FFFF        call 0x1000008f0
000015ED  83C414            add esp,byte +0x14
000015F0  5B                pop ebx
000015F1  5D                pop ebp
000015F2  C3                ret
000015F3  90                nop
000015F4  55                push ebp
000015F5  89E5              mov ebp,esp
000015F7  83EC18            sub esp,byte +0x18
000015FA  8B550C            mov edx,[ebp+0xc]
000015FD  8B4508            mov eax,[ebp+0x8]
00001600  89542404          mov [esp+0x4],edx
00001604  890424            mov [esp],eax
00001607  E87C030000        call 0x1988
0000160C  8B5508            mov edx,[ebp+0x8]
0000160F  8902              mov [edx],eax
00001611  8B4508            mov eax,[ebp+0x8]
00001614  8B00              mov eax,[eax]
00001616  8B550C            mov edx,[ebp+0xc]
00001619  C1E202            shl edx,0x2
0000161C  01C2              add edx,eax
0000161E  8B4508            mov eax,[ebp+0x8]
00001621  895008            mov [eax+0x8],edx
00001624  8B450C            mov eax,[ebp+0xc]
00001627  8D5510            lea edx,[ebp+0x10]
0000162A  89542408          mov [esp+0x8],edx
0000162E  89442404          mov [esp+0x4],eax
00001632  8B4508            mov eax,[ebp+0x8]
00001635  890424            mov [esp],eax
00001638  E87B030000        call 0x19b8
0000163D  C9                leave
0000163E  C3                ret
0000163F  90                nop
00001640  55                push ebp
00001641  89E5              mov ebp,esp
00001643  8B4508            mov eax,[ebp+0x8]
00001646  5D                pop ebp
00001647  C3                ret
00001648  55                push ebp
00001649  89E5              mov ebp,esp
0000164B  83EC18            sub esp,byte +0x18
0000164E  8B450C            mov eax,[ebp+0xc]
00001651  89442404          mov [esp+0x4],eax
00001655  8B4508            mov eax,[ebp+0x8]
00001658  890424            mov [esp],eax
0000165B  E896030000        call 0x19f6
00001660  C9                leave
00001661  C3                ret
00001662  55                push ebp
00001663  89E5              mov ebp,esp
00001665  83EC18            sub esp,byte +0x18
00001668  8B450C            mov eax,[ebp+0xc]
0000166B  89442404          mov [esp+0x4],eax
0000166F  8B4508            mov eax,[ebp+0x8]
00001672  890424            mov [esp],eax
00001675  E896030000        call 0x1a10
0000167A  8B4508            mov eax,[ebp+0x8]
0000167D  C70000000000      mov dword [eax],0x0
00001683  8B4508            mov eax,[ebp+0x8]
00001686  C7400400000000    mov dword [eax+0x4],0x0
0000168D  8B4508            mov eax,[ebp+0x8]
00001690  C7400800000000    mov dword [eax+0x8],0x0
00001697  C9                leave
00001698  C3                ret
00001699  90                nop
0000169A  55                push ebp
0000169B  89E5              mov ebp,esp
0000169D  83EC18            sub esp,byte +0x18
000016A0  8B450C            mov eax,[ebp+0xc]
000016A3  89442404          mov [esp+0x4],eax
000016A7  8B4508            mov eax,[ebp+0x8]
000016AA  890424            mov [esp],eax
000016AD  E8F4010000        call 0x18a6
000016B2  8B5508            mov edx,[ebp+0x8]
000016B5  8902              mov [edx],eax
000016B7  8B4508            mov eax,[ebp+0x8]
000016BA  8B10              mov edx,[eax]
000016BC  8B4508            mov eax,[ebp+0x8]
000016BF  895004            mov [eax+0x4],edx
000016C2  8B4508            mov eax,[ebp+0x8]
000016C5  8B00              mov eax,[eax]
000016C7  8B550C            mov edx,[ebp+0xc]
000016CA  C1E203            shl edx,0x3
000016CD  01C2              add edx,eax
000016CF  8B4508            mov eax,[ebp+0x8]
000016D2  895008            mov [eax+0x8],edx
000016D5  C9                leave
000016D6  C3                ret
000016D7  90                nop
000016D8  55                push ebp
000016D9  89E5              mov ebp,esp
000016DB  83EC18            sub esp,byte +0x18
000016DE  837D0C00          cmp dword [ebp+0xc],byte +0x0
000016E2  7419              jz 0x16fd
000016E4  8B4508            mov eax,[ebp+0x8]
000016E7  8B5510            mov edx,[ebp+0x10]
000016EA  89542408          mov [esp+0x8],edx
000016EE  8B550C            mov edx,[ebp+0xc]
000016F1  89542404          mov [esp+0x4],edx
000016F5  890424            mov [esp],eax
000016F8  E82D030000        call 0x1a2a
000016FD  C9                leave
000016FE  C3                ret
000016FF  55                push ebp
00001700  89E5              mov ebp,esp
00001702  83EC18            sub esp,byte +0x18
00001705  8B4510            mov eax,[ebp+0x10]
00001708  89442408          mov [esp+0x8],eax
0000170C  8B450C            mov eax,[ebp+0xc]
0000170F  89442404          mov [esp+0x4],eax
00001713  8B4508            mov eax,[ebp+0x8]
00001716  890424            mov [esp],eax
00001719  E81F030000        call 0x1a3d
0000171E  C9                leave
0000171F  C3                ret
00001720  55                push ebp
00001721  89E5              mov ebp,esp
00001723  83EC18            sub esp,byte +0x18
00001726  8B450C            mov eax,[ebp+0xc]
00001729  89442404          mov [esp+0x4],eax
0000172D  8B4508            mov eax,[ebp+0x8]
00001730  890424            mov [esp],eax
00001733  E826030000        call 0x1a5e
00001738  C9                leave
00001739  C3                ret
0000173A  55                push ebp
0000173B  89E5              mov ebp,esp
0000173D  83EC18            sub esp,byte +0x18
00001740  8B450C            mov eax,[ebp+0xc]
00001743  89442404          mov [esp+0x4],eax
00001747  C7042408000000    mov dword [esp],0x8
0000174E  E828F7FFFF        call 0x100000e7b
00001753  89C1              mov ecx,eax
00001755  85C9              test ecx,ecx
00001757  740D              jz 0x1766
00001759  8B4510            mov eax,[ebp+0x10]
0000175C  8B5004            mov edx,[eax+0x4]
0000175F  8B00              mov eax,[eax]
00001761  8901              mov [ecx],eax
00001763  895104            mov [ecx+0x4],edx
00001766  C9                leave
00001767  C3                ret
00001768  55                push ebp
00001769  89E5              mov ebp,esp
0000176B  8B4508            mov eax,[ebp+0x8]
0000176E  5D                pop ebp
0000176F  C3                ret
00001770  55                push ebp
00001771  89E5              mov ebp,esp
00001773  53                push ebx
00001774  83EC14            sub esp,byte +0x14
00001777  8B450C            mov eax,[ebp+0xc]
0000177A  890424            mov [esp],eax
0000177D  E8E1020000        call 0x1a63
00001782  89C3              mov ebx,eax
00001784  8B4508            mov eax,[ebp+0x8]
00001787  890424            mov [esp],eax
0000178A  E8D4020000        call 0x1a63
0000178F  8B5510            mov edx,[ebp+0x10]
00001792  89542408          mov [esp+0x8],edx
00001796  895C2404          mov [esp+0x4],ebx
0000179A  890424            mov [esp],eax
0000179D  E8D4020000        call 0x1a76
000017A2  83C414            add esp,byte +0x14
000017A5  5B                pop ebx
000017A6  5D                pop ebp
000017A7  C3                ret
000017A8  55                push ebp
000017A9  89E5              mov ebp,esp
000017AB  8B4508            mov eax,[ebp+0x8]
000017AE  8B00              mov eax,[eax]
000017B0  5D                pop ebp
000017B1  C3                ret
000017B2  55                push ebp
000017B3  89E5              mov ebp,esp
000017B5  53                push ebx
000017B6  83EC24            sub esp,byte +0x24
000017B9  8B4508            mov eax,[ebp+0x8]
000017BC  890424            mov [esp],eax
000017BF  E810030000        call 0x1ad4
000017C4  89C3              mov ebx,eax
000017C6  8B4508            mov eax,[ebp+0x8]
000017C9  890424            mov [esp],eax
000017CC  E8E9020000        call 0x1aba
000017D1  89DA              mov edx,ebx
000017D3  29C2              sub edx,eax
000017D5  8B450C            mov eax,[ebp+0xc]
000017D8  39C2              cmp edx,eax
000017DA  0F92C0            setc al
000017DD  84C0              test al,al
000017DF  740B              jz 0x17ec
000017E1  8B4510            mov eax,[ebp+0x10]
000017E4  890424            mov [esp],eax
000017E7  E8E4EFFFFF        call 0x1000007d0
000017EC  8B4508            mov eax,[ebp+0x8]
000017EF  890424            mov [esp],eax
000017F2  E8C3020000        call 0x1aba
000017F7  89C3              mov ebx,eax
000017F9  8B4508            mov eax,[ebp+0x8]
000017FC  890424            mov [esp],eax
000017FF  E8B6020000        call 0x1aba
00001804  8945F0            mov [ebp-0x10],eax
00001807  8D450C            lea eax,[ebp+0xc]
0000180A  89442404          mov [esp+0x4],eax
0000180E  8D45F0            lea eax,[ebp-0x10]
00001811  890424            mov [esp],eax
00001814  E8D6020000        call 0x1aef
00001819  8B00              mov eax,[eax]
0000181B  01D8              add eax,ebx
0000181D  8945F4            mov [ebp-0xc],eax
00001820  8B4508            mov eax,[ebp+0x8]
00001823  890424            mov [esp],eax
00001826  E88F020000        call 0x1aba
0000182B  3B45F4            cmp eax,[ebp-0xc]
0000182E  7710              ja 0x1840
00001830  8B4508            mov eax,[ebp+0x8]
00001833  890424            mov [esp],eax
00001836  E899020000        call 0x1ad4
0000183B  3B45F4            cmp eax,[ebp-0xc]
0000183E  730D              jnc 0x184d
00001840  8B4508            mov eax,[ebp+0x8]
00001843  890424            mov [esp],eax
00001846  E889020000        call 0x1ad4
0000184B  EB03              jmp short 0x1850
0000184D  8B45F4            mov eax,[ebp-0xc]
00001850  83C424            add esp,byte +0x24
00001853  5B                pop ebx
00001854  5D                pop ebp
00001855  C3                ret
00001856  55                push ebp
00001857  89E5              mov ebp,esp
00001859  83EC18            sub esp,byte +0x18
0000185C  8B450C            mov eax,[ebp+0xc]
0000185F  89442404          mov [esp+0x4],eax
00001863  8B4508            mov eax,[ebp+0x8]
00001866  890424            mov [esp],eax
00001869  E8AA000000        call 0x1918
0000186E  8B4508            mov eax,[ebp+0x8]
00001871  C9                leave
00001872  C20400            ret 0x4
00001875  55                push ebp
00001876  89E5              mov ebp,esp
00001878  53                push ebx
00001879  83EC14            sub esp,byte +0x14
0000187C  8B4508            mov eax,[ebp+0x8]
0000187F  890424            mov [esp],eax
00001882  E8E1FEFFFF        call 0x100001768
00001887  8B00              mov eax,[eax]
00001889  89C3              mov ebx,eax
0000188B  8B450C            mov eax,[ebp+0xc]
0000188E  890424            mov [esp],eax
00001891  E8D2FEFFFF        call 0x100001768
00001896  8B00              mov eax,[eax]
00001898  29C3              sub ebx,eax
0000189A  89D8              mov eax,ebx
0000189C  C1F803            sar eax,0x3
0000189F  83C414            add esp,byte +0x14
000018A2  5B                pop ebx
000018A3  5D                pop ebp
000018A4  C3                ret
000018A5  90                nop
000018A6  55                push ebp
000018A7  89E5              mov ebp,esp
000018A9  83EC18            sub esp,byte +0x18
000018AC  837D0C00          cmp dword [ebp+0xc],byte +0x0
000018B0  741C              jz 0x18ce
000018B2  8B4508            mov eax,[ebp+0x8]
000018B5  C744240800000000  mov dword [esp+0x8],0x0
000018BD  8B550C            mov edx,[ebp+0xc]
000018C0  89542404          mov [esp+0x4],edx
000018C4  890424            mov [esp],eax
000018C7  E83E020000        call 0x1b0a
000018CC  EB05              jmp short 0x18d3
000018CE  B800000000        mov eax,0x0
000018D3  C9                leave
000018D4  C3                ret
000018D5  55                push ebp
000018D6  89E5              mov ebp,esp
000018D8  83EC18            sub esp,byte +0x18
000018DB  8B4514            mov eax,[ebp+0x14]
000018DE  8944240C          mov [esp+0xc],eax
000018E2  8B4510            mov eax,[ebp+0x10]
000018E5  89442408          mov [esp+0x8],eax
000018E9  8B450C            mov eax,[ebp+0xc]
000018EC  89442404          mov [esp+0x4],eax
000018F0  8B4508            mov eax,[ebp+0x8]
000018F3  890424            mov [esp],eax
000018F6  E83F020000        call 0x1b3a
000018FB  C9                leave
000018FC  C3                ret
000018FD  55                push ebp
000018FE  89E5              mov ebp,esp
00001900  83EC18            sub esp,byte +0x18
00001903  8B450C            mov eax,[ebp+0xc]
00001906  89442404          mov [esp+0x4],eax
0000190A  8B4508            mov eax,[ebp+0x8]
0000190D  890424            mov [esp],eax
00001910  E847020000        call 0x1b5c
00001915  C9                leave
00001916  C3                ret
00001917  90                nop
00001918  55                push ebp
00001919  89E5              mov ebp,esp
0000191B  8B450C            mov eax,[ebp+0xc]
0000191E  8B10              mov edx,[eax]
00001920  8B4508            mov eax,[ebp+0x8]
00001923  8910              mov [eax],edx
00001925  5D                pop ebp
00001926  C3                ret
00001927  90                nop
00001928  55                push ebp
00001929  89E5              mov ebp,esp
0000192B  83EC18            sub esp,byte +0x18
0000192E  8B450C            mov eax,[ebp+0xc]
00001931  89442404          mov [esp+0x4],eax
00001935  8B4508            mov eax,[ebp+0x8]
00001938  890424            mov [esp],eax
0000193B  E822020000        call 0x1b62
00001940  8B4508            mov eax,[ebp+0x8]
00001943  C70000000000      mov dword [eax],0x0
00001949  8B4508            mov eax,[ebp+0x8]
0000194C  C7400400000000    mov dword [eax+0x4],0x0
00001953  8B4508            mov eax,[ebp+0x8]
00001956  C7400800000000    mov dword [eax+0x8],0x0
0000195D  C9                leave
0000195E  C3                ret
0000195F  90                nop
00001960  55                push ebp
00001961  89E5              mov ebp,esp
00001963  83EC18            sub esp,byte +0x18
00001966  837D0C00          cmp dword [ebp+0xc],byte +0x0
0000196A  7419              jz 0x1985
0000196C  8B4508            mov eax,[ebp+0x8]
0000196F  8B5510            mov edx,[ebp+0x10]
00001972  89542408          mov [esp+0x8],edx
00001976  8B550C            mov edx,[ebp+0xc]
00001979  89542404          mov [esp+0x4],edx
0000197D  890424            mov [esp],eax
00001980  E8F7010000        call 0x1b7c
00001985  C9                leave
00001986  C3                ret
00001987  90                nop
00001988  55                push ebp
00001989  89E5              mov ebp,esp
0000198B  83EC18            sub esp,byte +0x18
0000198E  837D0C00          cmp dword [ebp+0xc],byte +0x0
00001992  741C              jz 0x19b0
00001994  8B4508            mov eax,[ebp+0x8]
00001997  C744240800000000  mov dword [esp+0x8],0x0
0000199F  8B550C            mov edx,[ebp+0xc]
000019A2  89542404          mov [esp+0x4],edx
000019A6  890424            mov [esp],eax
000019A9  E8E2010000        call 0x1b90
000019AE  EB05              jmp short 0x19b5
000019B0  B800000000        mov eax,0x0
000019B5  C9                leave
000019B6  C3                ret
000019B7  90                nop
000019B8  55                push ebp
000019B9  89E5              mov ebp,esp
000019BB  83EC18            sub esp,byte +0x18
000019BE  8B4508            mov eax,[ebp+0x8]
000019C1  890424            mov [esp],eax
000019C4  E877FCFFFF        call 0x100001640
000019C9  8B5508            mov edx,[ebp+0x8]
000019CC  8B12              mov edx,[edx]
000019CE  8944240C          mov [esp+0xc],eax
000019D2  8B4510            mov eax,[ebp+0x10]
000019D5  89442408          mov [esp+0x8],eax
000019D9  8B450C            mov eax,[ebp+0xc]
000019DC  89442404          mov [esp+0x4],eax
000019E0  891424            mov [esp],edx
000019E3  E8D8010000        call 0x1bc0
000019E8  8B4508            mov eax,[ebp+0x8]
000019EB  8B5008            mov edx,[eax+0x8]
000019EE  8B4508            mov eax,[ebp+0x8]
000019F1  895004            mov [eax+0x4],edx
000019F4  C9                leave
000019F5  C3                ret
000019F6  55                push ebp
000019F7  89E5              mov ebp,esp
000019F9  83EC18            sub esp,byte +0x18
000019FC  8B450C            mov eax,[ebp+0xc]
000019FF  89442404          mov [esp+0x4],eax
00001A03  8B4508            mov eax,[ebp+0x8]
00001A06  890424            mov [esp],eax
00001A09  E8D3010000        call 0x1be1
00001A0E  C9                leave
00001A0F  C3                ret
00001A10  55                push ebp
00001A11  89E5              mov ebp,esp
00001A13  83EC18            sub esp,byte +0x18
00001A16  8B450C            mov eax,[ebp+0xc]
00001A19  89442404          mov [esp+0x4],eax
00001A1D  8B4508            mov eax,[ebp+0x8]
00001A20  890424            mov [esp],eax
00001A23  E8BE010000        call 0x1be6
00001A28  C9                leave
00001A29  C3                ret
00001A2A  55                push ebp
00001A2B  89E5              mov ebp,esp
00001A2D  83EC18            sub esp,byte +0x18
00001A30  8B450C            mov eax,[ebp+0xc]
00001A33  890424            mov [esp],eax
00001A36  E8D5EDFFFF        call 0x100000810
00001A3B  C9                leave
00001A3C  C3                ret
00001A3D  55                push ebp
00001A3E  89E5              mov ebp,esp
00001A40  83EC18            sub esp,byte +0x18
00001A43  8B4510            mov eax,[ebp+0x10]
00001A46  89442408          mov [esp+0x8],eax
00001A4A  8B450C            mov eax,[ebp+0xc]
00001A4D  89442404          mov [esp+0x4],eax
00001A51  8B4508            mov eax,[ebp+0x8]
00001A54  890424            mov [esp],eax
00001A57  E88F010000        call 0x1beb
00001A5C  C9                leave
00001A5D  C3                ret
00001A5E  55                push ebp
00001A5F  89E5              mov ebp,esp
00001A61  5D                pop ebp
00001A62  C3                ret
00001A63  55                push ebp
00001A64  89E5              mov ebp,esp
00001A66  83EC18            sub esp,byte +0x18
00001A69  8B4508            mov eax,[ebp+0x8]
00001A6C  890424            mov [esp],eax
00001A6F  E8AE010000        call 0x1c22
00001A74  C9                leave
00001A75  C3                ret
00001A76  55                push ebp
00001A77  89E5              mov ebp,esp
00001A79  56                push esi
00001A7A  53                push ebx
00001A7B  83EC10            sub esp,byte +0x10
00001A7E  8B4510            mov eax,[ebp+0x10]
00001A81  890424            mov [esp],eax
00001A84  E8A1010000        call 0x1c2a
00001A89  89C6              mov esi,eax
00001A8B  8B450C            mov eax,[ebp+0xc]
00001A8E  890424            mov [esp],eax
00001A91  E894010000        call 0x1c2a
00001A96  89C3              mov ebx,eax
00001A98  8B4508            mov eax,[ebp+0x8]
00001A9B  890424            mov [esp],eax
00001A9E  E887010000        call 0x1c2a
00001AA3  89742408          mov [esp+0x8],esi
00001AA7  895C2404          mov [esp+0x4],ebx
00001AAB  890424            mov [esp],eax
00001AAE  E88A010000        call 0x1c3d
00001AB3  83C410            add esp,byte +0x10
00001AB6  5B                pop ebx
00001AB7  5E                pop esi
00001AB8  5D                pop ebp
00001AB9  C3                ret
00001ABA  55                push ebp
00001ABB  89E5              mov ebp,esp
00001ABD  8B4508            mov eax,[ebp+0x8]
00001AC0  8B4004            mov eax,[eax+0x4]
00001AC3  89C2              mov edx,eax
00001AC5  8B4508            mov eax,[ebp+0x8]
00001AC8  8B00              mov eax,[eax]
00001ACA  29C2              sub edx,eax
00001ACC  89D0              mov eax,edx
00001ACE  C1F803            sar eax,0x3
00001AD1  5D                pop ebp
00001AD2  C3                ret
00001AD3  90                nop
00001AD4  55                push ebp
00001AD5  89E5              mov ebp,esp
00001AD7  83EC18            sub esp,byte +0x18
00001ADA  8B4508            mov eax,[ebp+0x8]
00001ADD  890424            mov [esp],eax
00001AE0  E891010000        call 0x1c76
00001AE5  890424            mov [esp],eax
00001AE8  E875010000        call 0x1c62
00001AED  C9                leave
00001AEE  C3                ret
00001AEF  55                push ebp
00001AF0  89E5              mov ebp,esp
00001AF2  8B4508            mov eax,[ebp+0x8]
00001AF5  8B10              mov edx,[eax]
00001AF7  8B450C            mov eax,[ebp+0xc]
00001AFA  8B00              mov eax,[eax]
00001AFC  39C2              cmp edx,eax
00001AFE  7305              jnc 0x1b05
00001B00  8B450C            mov eax,[ebp+0xc]
00001B03  EB03              jmp short 0x1b08
00001B05  8B4508            mov eax,[ebp+0x8]
00001B08  5D                pop ebp
00001B09  C3                ret
00001B0A  55                push ebp
00001B0B  89E5              mov ebp,esp
00001B0D  83EC18            sub esp,byte +0x18
00001B10  8B4508            mov eax,[ebp+0x8]
00001B13  890424            mov [esp],eax
00001B16  E863010000        call 0x1c7e
00001B1B  3B450C            cmp eax,[ebp+0xc]
00001B1E  0F92C0            setc al
00001B21  84C0              test al,al
00001B23  7405              jz 0x1b2a
00001B25  E886EDFFFF        call 0x1000008b0
00001B2A  8B450C            mov eax,[ebp+0xc]
00001B2D  C1E003            shl eax,0x3
00001B30  890424            mov [esp],eax
00001B33  E838EDFFFF        call 0x100000870
00001B38  C9                leave
00001B39  C3                ret
00001B3A  55                push ebp
00001B3B  89E5              mov ebp,esp
00001B3D  83EC18            sub esp,byte +0x18
00001B40  8B4510            mov eax,[ebp+0x10]
00001B43  89442408          mov [esp+0x8],eax
00001B47  8B450C            mov eax,[ebp+0xc]
00001B4A  89442404          mov [esp+0x4],eax
00001B4E  8B4508            mov eax,[ebp+0x8]
00001B51  890424            mov [esp],eax
00001B54  E82F010000        call 0x1c88
00001B59  C9                leave
00001B5A  C3                ret
00001B5B  90                nop
00001B5C  55                push ebp
00001B5D  89E5              mov ebp,esp
00001B5F  5D                pop ebp
00001B60  C3                ret
00001B61  90                nop
00001B62  55                push ebp
00001B63  89E5              mov ebp,esp
00001B65  83EC18            sub esp,byte +0x18
00001B68  8B450C            mov eax,[ebp+0xc]
00001B6B  89442404          mov [esp+0x4],eax
00001B6F  8B4508            mov eax,[ebp+0x8]
00001B72  890424            mov [esp],eax
00001B75  E830010000        call 0x1caa
00001B7A  C9                leave
00001B7B  C3                ret
00001B7C  55                push ebp
00001B7D  89E5              mov ebp,esp
00001B7F  83EC18            sub esp,byte +0x18
00001B82  8B450C            mov eax,[ebp+0xc]
00001B85  890424            mov [esp],eax
00001B88  E883ECFFFF        call 0x100000810
00001B8D  C9                leave
00001B8E  C3                ret
00001B8F  90                nop
00001B90  55                push ebp
00001B91  89E5              mov ebp,esp
00001B93  83EC18            sub esp,byte +0x18
00001B96  8B4508            mov eax,[ebp+0x8]
00001B99  890424            mov [esp],eax
00001B9C  E80F010000        call 0x1cb0
00001BA1  3B450C            cmp eax,[ebp+0xc]
00001BA4  0F92C0            setc al
00001BA7  84C0              test al,al
00001BA9  7405              jz 0x1bb0
00001BAB  E800EDFFFF        call 0x1000008b0
00001BB0  8B450C            mov eax,[ebp+0xc]
00001BB3  C1E002            shl eax,0x2
00001BB6  890424            mov [esp],eax
00001BB9  E8B2ECFFFF        call 0x100000870
00001BBE  C9                leave
00001BBF  C3                ret
00001BC0  55                push ebp
00001BC1  89E5              mov ebp,esp
00001BC3  83EC18            sub esp,byte +0x18
00001BC6  8B4510            mov eax,[ebp+0x10]
00001BC9  89442408          mov [esp+0x8],eax
00001BCD  8B450C            mov eax,[ebp+0xc]
00001BD0  89442404          mov [esp+0x4],eax
00001BD4  8B4508            mov eax,[ebp+0x8]
00001BD7  890424            mov [esp],eax
00001BDA  E8DB000000        call 0x1cba
00001BDF  C9                leave
00001BE0  C3                ret
00001BE1  55                push ebp
00001BE2  89E5              mov ebp,esp
00001BE4  5D                pop ebp
00001BE5  C3                ret
00001BE6  55                push ebp
00001BE7  89E5              mov ebp,esp
00001BE9  5D                pop ebp
00001BEA  C3                ret
00001BEB  55                push ebp
00001BEC  89E5              mov ebp,esp
00001BEE  83EC28            sub esp,byte +0x28
00001BF1  8B4508            mov eax,[ebp+0x8]
00001BF4  8945F4            mov [ebp-0xc],eax
00001BF7  EB21              jmp short 0x1c1a
00001BF9  8B45F4            mov eax,[ebp-0xc]
00001BFC  890424            mov [esp],eax
00001BFF  E8D7000000        call 0x1cdb
00001C04  8B5510            mov edx,[ebp+0x10]
00001C07  89542404          mov [esp+0x4],edx
00001C0B  890424            mov [esp],eax
00001C0E  E8D0000000        call 0x1ce3
00001C13  FF4D0C            dec dword [ebp+0xc]
00001C16  8345F408          add dword [ebp-0xc],byte +0x8
00001C1A  837D0C00          cmp dword [ebp+0xc],byte +0x0
00001C1E  75D9              jnz 0x1bf9
00001C20  C9                leave
00001C21  C3                ret
00001C22  55                push ebp
00001C23  89E5              mov ebp,esp
00001C25  8B4508            mov eax,[ebp+0x8]
00001C28  5D                pop ebp
00001C29  C3                ret
00001C2A  55                push ebp
00001C2B  89E5              mov ebp,esp
00001C2D  83EC18            sub esp,byte +0x18
00001C30  8B4508            mov eax,[ebp+0x8]
00001C33  890424            mov [esp],eax
00001C36  E8E7FFFFFF        call 0x100001c22
00001C3B  C9                leave
00001C3C  C3                ret
00001C3D  55                push ebp
00001C3E  89E5              mov ebp,esp
00001C40  83EC28            sub esp,byte +0x28
00001C43  C645F700          mov byte [ebp-0x9],0x0
00001C47  8B4510            mov eax,[ebp+0x10]
00001C4A  89442408          mov [esp+0x8],eax
00001C4E  8B450C            mov eax,[ebp+0xc]
00001C51  89442404          mov [esp+0x4],eax
00001C55  8B4508            mov eax,[ebp+0x8]
00001C58  890424            mov [esp],eax
00001C5B  E8B1000000        call 0x1d11
00001C60  C9                leave
00001C61  C3                ret
00001C62  55                push ebp
00001C63  89E5              mov ebp,esp
00001C65  83EC18            sub esp,byte +0x18
00001C68  8B4508            mov eax,[ebp+0x8]
00001C6B  890424            mov [esp],eax
00001C6E  E80B000000        call 0x1c7e
00001C73  C9                leave
00001C74  C3                ret
00001C75  90                nop
00001C76  55                push ebp
00001C77  89E5              mov ebp,esp
00001C79  8B4508            mov eax,[ebp+0x8]
00001C7C  5D                pop ebp
00001C7D  C3                ret
00001C7E  55                push ebp
00001C7F  89E5              mov ebp,esp
00001C81  B8FFFFFF1F        mov eax,0x1fffffff
00001C86  5D                pop ebp
00001C87  C3                ret
00001C88  55                push ebp
00001C89  89E5              mov ebp,esp
00001C8B  83EC18            sub esp,byte +0x18
00001C8E  8B4510            mov eax,[ebp+0x10]
00001C91  89442408          mov [esp+0x8],eax
00001C95  8B450C            mov eax,[ebp+0xc]
00001C98  89442404          mov [esp+0x4],eax
00001C9C  8B4508            mov eax,[ebp+0x8]
00001C9F  890424            mov [esp],eax
00001CA2  E8A8000000        call 0x1d4f
00001CA7  C9                leave
00001CA8  C3                ret
00001CA9  90                nop
00001CAA  55                push ebp
00001CAB  89E5              mov ebp,esp
00001CAD  5D                pop ebp
00001CAE  C3                ret
00001CAF  90                nop
00001CB0  55                push ebp
00001CB1  89E5              mov ebp,esp
00001CB3  B8FFFFFF3F        mov eax,0x3fffffff
00001CB8  5D                pop ebp
00001CB9  C3                ret
00001CBA  55                push ebp
00001CBB  89E5              mov ebp,esp
00001CBD  83EC18            sub esp,byte +0x18
00001CC0  8B4510            mov eax,[ebp+0x10]
00001CC3  89442408          mov [esp+0x8],eax
00001CC7  8B450C            mov eax,[ebp+0xc]
00001CCA  89442404          mov [esp+0x4],eax
00001CCE  8B4508            mov eax,[ebp+0x8]
00001CD1  890424            mov [esp],eax
00001CD4  E8B3000000        call 0x1d8c
00001CD9  C9                leave
00001CDA  C3                ret
00001CDB  55                push ebp
00001CDC  89E5              mov ebp,esp
00001CDE  8B4508            mov eax,[ebp+0x8]
00001CE1  5D                pop ebp
00001CE2  C3                ret
00001CE3  55                push ebp
00001CE4  89E5              mov ebp,esp
00001CE6  83EC18            sub esp,byte +0x18
00001CE9  8B4508            mov eax,[ebp+0x8]
00001CEC  89442404          mov [esp+0x4],eax
00001CF0  C7042408000000    mov dword [esp],0x8
00001CF7  E87FF1FFFF        call 0x100000e7b
00001CFC  89C1              mov ecx,eax
00001CFE  85C9              test ecx,ecx
00001D00  740D              jz 0x1d0f
00001D02  8B450C            mov eax,[ebp+0xc]
00001D05  8B5004            mov edx,[eax+0x4]
00001D08  8B00              mov eax,[eax]
00001D0A  8901              mov [ecx],eax
00001D0C  895104            mov [ecx+0x4],edx
00001D0F  C9                leave
00001D10  C3                ret
00001D11  55                push ebp
00001D12  89E5              mov ebp,esp
00001D14  83EC10            sub esp,byte +0x10
00001D17  8B550C            mov edx,[ebp+0xc]
00001D1A  8B4508            mov eax,[ebp+0x8]
00001D1D  29C2              sub edx,eax
00001D1F  89D0              mov eax,edx
00001D21  C1F803            sar eax,0x3
00001D24  8945FC            mov [ebp-0x4],eax
00001D27  EB1B              jmp short 0x1d44
00001D29  836D1008          sub dword [ebp+0x10],byte +0x8
00001D2D  8B4D10            mov ecx,[ebp+0x10]
00001D30  836D0C08          sub dword [ebp+0xc],byte +0x8
00001D34  8B450C            mov eax,[ebp+0xc]
00001D37  8B5004            mov edx,[eax+0x4]
00001D3A  8B00              mov eax,[eax]
00001D3C  8901              mov [ecx],eax
00001D3E  895104            mov [ecx+0x4],edx
00001D41  FF4DFC            dec dword [ebp-0x4]
00001D44  837DFC00          cmp dword [ebp-0x4],byte +0x0
00001D48  7FDF              jg 0x1d29
00001D4A  8B4510            mov eax,[ebp+0x10]
00001D4D  C9                leave
00001D4E  C3                ret
00001D4F  55                push ebp
00001D50  89E5              mov ebp,esp
00001D52  83EC28            sub esp,byte +0x28
00001D55  8B4510            mov eax,[ebp+0x10]
00001D58  8945F4            mov [ebp-0xc],eax
00001D5B  EB22              jmp short 0x1d7f
00001D5D  8B45F4            mov eax,[ebp-0xc]
00001D60  890424            mov [esp],eax
00001D63  E873FFFFFF        call 0x100001cdb
00001D68  8B5508            mov edx,[ebp+0x8]
00001D6B  89542404          mov [esp+0x4],edx
00001D6F  890424            mov [esp],eax
00001D72  E86CFFFFFF        call 0x100001ce3
00001D77  83450808          add dword [ebp+0x8],byte +0x8
00001D7B  8345F408          add dword [ebp-0xc],byte +0x8
00001D7F  8B4508            mov eax,[ebp+0x8]
00001D82  3B450C            cmp eax,[ebp+0xc]
00001D85  75D6              jnz 0x1d5d
00001D87  8B45F4            mov eax,[ebp-0xc]
00001D8A  C9                leave
00001D8B  C3                ret
00001D8C  55                push ebp
00001D8D  89E5              mov ebp,esp
00001D8F  83EC18            sub esp,byte +0x18
00001D92  8B4510            mov eax,[ebp+0x10]
00001D95  89442408          mov [esp+0x8],eax
00001D99  8B450C            mov eax,[ebp+0xc]
00001D9C  89442404          mov [esp+0x4],eax
00001DA0  8B4508            mov eax,[ebp+0x8]
00001DA3  890424            mov [esp],eax
00001DA6  E802000000        call 0x1dad
00001DAB  C9                leave
00001DAC  C3                ret
00001DAD  55                push ebp
00001DAE  89E5              mov ebp,esp
00001DB0  83EC18            sub esp,byte +0x18
00001DB3  8B4508            mov eax,[ebp+0x8]
00001DB6  890424            mov [esp],eax
00001DB9  E818000000        call 0x1dd6
00001DBE  8B5510            mov edx,[ebp+0x10]
00001DC1  89542408          mov [esp+0x8],edx
00001DC5  8B550C            mov edx,[ebp+0xc]
00001DC8  89542404          mov [esp+0x4],edx
00001DCC  890424            mov [esp],eax
00001DCF  E815000000        call 0x1de9
00001DD4  C9                leave
00001DD5  C3                ret
00001DD6  55                push ebp
00001DD7  89E5              mov ebp,esp
00001DD9  83EC18            sub esp,byte +0x18
00001DDC  8B4508            mov eax,[ebp+0x8]
00001DDF  890424            mov [esp],eax
00001DE2  E832000000        call 0x1e19
00001DE7  C9                leave
00001DE8  C3                ret
00001DE9  55                push ebp
00001DEA  89E5              mov ebp,esp
00001DEC  83EC10            sub esp,byte +0x10
00001DEF  8B4510            mov eax,[ebp+0x10]
00001DF2  8B00              mov eax,[eax]
00001DF4  8945F8            mov [ebp-0x8],eax
00001DF7  8B450C            mov eax,[ebp+0xc]
00001DFA  8945FC            mov [ebp-0x4],eax
00001DFD  EB0F              jmp short 0x1e0e
00001DFF  8B4508            mov eax,[ebp+0x8]
00001E02  8B55F8            mov edx,[ebp-0x8]
00001E05  8910              mov [eax],edx
00001E07  FF4DFC            dec dword [ebp-0x4]
00001E0A  83450804          add dword [ebp+0x8],byte +0x4
00001E0E  837DFC00          cmp dword [ebp-0x4],byte +0x0
00001E12  75EB              jnz 0x1dff
00001E14  8B4508            mov eax,[ebp+0x8]
00001E17  C9                leave
00001E18  C3                ret
00001E19  55                push ebp
00001E1A  89E5              mov ebp,esp
00001E1C  8B4508            mov eax,[ebp+0x8]
00001E1F  5D                pop ebp
00001E20  C3                ret
00001E21  6690              o16 nop
00001E23  6690              o16 nop
00001E25  6690              o16 nop
00001E27  6690              o16 nop
00001E29  6690              o16 nop
00001E2B  6690              o16 nop
00001E2D  6690              o16 nop
00001E2F  90                nop
00001E30  55                push ebp
00001E31  89E5              mov ebp,esp
00001E33  5D                pop ebp
00001E34  C3                ret
00001E35  66                db 0x66
00001E36  66                db 0x66
00001E37  2E                db 0x2E
00001E38  0F                db 0x0F
00001E39  1F                pop ds
00001E3A  8400              test [eax],al
00001E3C  0000              add [eax],al
00001E3E  0000              add [eax],al
00001E40  55                push ebp
00001E41  89E5              mov ebp,esp
00001E43  57                push edi
00001E44  56                push esi
00001E45  53                push ebx
00001E46  E84F000000        call 0x1e9a
00001E4B  81C3B1120000      add ebx,0x12b1
00001E51  83EC1C            sub esp,byte +0x1c
00001E54  E82BE9FFFF        call 0x100000784
00001E59  8DBB04FFFFFF      lea edi,[ebx+0xffffff04]
00001E5F  8D8304FFFFFF      lea eax,[ebx+0xffffff04]
00001E65  29C7              sub edi,eax
00001E67  C1FF02            sar edi,0x2
00001E6A  85FF              test edi,edi
00001E6C  7424              jz 0x1e92
00001E6E  31F6              xor esi,esi
00001E70  8B4510            mov eax,[ebp+0x10]
00001E73  89442408          mov [esp+0x8],eax
00001E77  8B450C            mov eax,[ebp+0xc]
00001E7A  89442404          mov [esp+0x4],eax
00001E7E  8B4508            mov eax,[ebp+0x8]
00001E81  890424            mov [esp],eax
00001E84  FF94B304FFFFFF    call near [ebx+esi*4+0xffffff04]
00001E8B  83C601            add esi,byte +0x1
00001E8E  39FE              cmp esi,edi
00001E90  72DE              jc 0x1e70
00001E92  83C41C            add esp,byte +0x1c
00001E95  5B                pop ebx
00001E96  5E                pop esi
00001E97  5F                pop edi
00001E98  5D                pop ebp
00001E99  C3                ret
00001E9A  8B1C24            mov ebx,[esp]
00001E9D  C3                ret
00001E9E  6690              o16 nop
00001EA0  55                push ebp
00001EA1  89E5              mov ebp,esp
00001EA3  53                push ebx
00001EA4  52                push edx
00001EA5  BB04B00408        mov ebx,0x804b004
00001EAA  A104B00408        mov eax,[0x804b004]
00001EAF  83F8FF            cmp eax,byte -0x1
00001EB2  7410              jz 0x1ec4
00001EB4  8D742600          lea esi,[esi+0x0]
00001EB8  83EB04            sub ebx,byte +0x4
00001EBB  FFD0              call eax
00001EBD  8B03              mov eax,[ebx]
00001EBF  83F8FF            cmp eax,byte -0x1
00001EC2  75F4              jnz 0x1eb8
00001EC4  58                pop eax
00001EC5  5B                pop ebx
00001EC6  5D                pop ebp
00001EC7  C3                ret
00001EC8  55                push ebp
00001EC9  89E5              mov ebp,esp
00001ECB  53                push ebx
00001ECC  83EC04            sub esp,byte +0x4
00001ECF  E800000000        call 0x1ed4
00001ED4  5B                pop ebx
00001ED5  81C328120000      add ebx,0x1228
00001EDB  E8C0EAFFFF        call 0x1000009a0
00001EE0  59                pop ecx
00001EE1  5B                pop ebx
00001EE2  C9                leave
00001EE3  C3                ret
00001EE4  0300              add eax,[eax]
00001EE6  0000              add [eax],al
00001EE8  0100              add [eax],eax
00001EEA  0200              add al,[eax]
00001EEC  43                inc ebx
00001EED  61                popa
00001EEE  7365              jnc 0x1f55
00001EF0  2023              and [ebx],ah
00001EF2  003A              add [edx],bh
00001EF4  2000              and [eax],al
00001EF6  4E                dec esi
00001EF7  4F                dec edi
00001EF8  005945            add [ecx+0x45],bl
00001EFB  53                push ebx
00001EFC  007665            add [esi+0x65],dh
00001EFF  63746F72          arpl [edi+ebp*2+0x72],si
00001F03  3A3A              cmp bh,[edx]
00001F05  5F                pop edi
00001F06  4D                dec ebp
00001F07  5F                pop edi
00001F08  696E736572745F    imul ebp,[esi+0x73],dword 0x5f747265
00001F0F  61                popa
00001F10  7578              jnz 0x1f8a
00001F12  0000              add [eax],al
00001F14  00CA              add dl,cl
00001F16  9A3B011B033B18    call 0x183b:0x31b013b
00001F1D  0300              add eax,[eax]
00001F1F  006200            add [edx+0x0],ah
00001F22  0000              add [eax],al
00001F24  A8E8              test al,0xe8
00001F26  FF                db 0xFF
00001F27  FF3403            push dword [ebx+eax]
00001F2A  0000              add [eax],al
00001F2C  08EB              or bl,ch
00001F2E  FF                db 0xFF
00001F2F  FF9803000008      call far [eax+0x8000003]
00001F35  EF                out dx,eax
00001F36  FF                db 0xFF
00001F37  FFC8              dec eax
00001F39  0F0000            sldt [eax]
00001F3C  47                inc edi
00001F3D  EF                out dx,eax
00001F3E  FF                db 0xFF
00001F3F  FF                db 0xFF
00001F40  E80F000063        call 0x63001f54
00001F45  EF                out dx,eax
00001F46  FF                db 0xFF
00001F47  FF5803            call far [eax+0x3]
00001F4A  0000              add [eax],al
00001F4C  6C                insb
00001F4D  EF                out dx,eax
00001F4E  FF                db 0xFF
00001F4F  FFCC              dec esp
00001F51  0300              add eax,[eax]
00001F53  0084EFFFFFEC03    add [edi+ebp*8+0x3ecffff],al
00001F5A  0000              add [eax],al
00001F5C  98                cwde
00001F5D  EF                out dx,eax
00001F5E  FF                db 0xFF
00001F5F  FF0C04            dec dword [esp+eax]
00001F62  0000              add [eax],al
00001F64  AC                lodsb
00001F65  EF                out dx,eax
00001F66  FF                db 0xFF
00001F67  FF2C04            jmp far [esp+eax]
00001F6A  0000              add [eax],al
00001F6C  04F0              add al,0xf0
00001F6E  FF                db 0xFF
00001F6F  FF540400          call near [esp+eax+0x0]
00001F73  005CF0FF          add [eax+esi*8-0x1],bl
00001F77  FF                db 0xFF
00001F78  7C04              jl 0x1f7e
00001F7A  0000              add [eax],al
00001F7C  6E                outsb
00001F7D  F0                db 0xF0
00001F7E  FF                db 0xFF
00001F7F  FF9C04000088F0    call far [esp+eax+0xf0880000]
00001F86  FF                db 0xFF
00001F87  FF                db 0xFF
00001F88  BC040000FC        mov esp,0xfc000004
00001F8D  F0                db 0xF0
00001F8E  FF                db 0xFF
00001F8F  FF                db 0xFF
00001F90  DC0400            fadd qword [eax+eax]
00001F93  0010              add [eax],dl
00001F95  F1                int1
00001F96  FF                db 0xFF
00001F97  FF                db 0xFF
00001F98  FC                cld
00001F99  0400              add al,0x0
00001F9B  0024F1            add [ecx+esi*8],ah
00001F9E  FF                db 0xFF
00001F9F  FF1C0500007AF1    call far [eax+0xf17a0000]
00001FA6  FF                db 0xFF
00001FA7  FF440500          inc dword [ebp+eax+0x0]
00001FAB  00D2              add dl,dl
00001FAD  F1                int1
00001FAE  FF                db 0xFF
00001FAF  FF6C0500          jmp far [ebp+eax+0x0]
00001FB3  00E4              add ah,ah
00001FB5  F1                int1
00001FB6  FF                db 0xFF
00001FB7  FF8C050000FFF1    dec dword [ebp+eax+0xf1ff0000]
00001FBE  FF                db 0xFF
00001FBF  FFAC0500001AF2    jmp far [ebp+eax+0xf21a0000]
00001FC6  FF                db 0xFF
00001FC7  FFCC              dec esp
00001FC9  05000020F2        add eax,0xf2200000
00001FCE  FF                db 0xFF
00001FCF  FF                db 0xFF
00001FD0  EC                in al,dx
00001FD1  05000026F2        add eax,0xf2260000
00001FD6  FF                db 0xFF
00001FD7  FF0C06            dec dword [esi+eax]
00001FDA  0000              add [eax],al
00001FDC  3AF2              cmp dh,dl
00001FDE  FF                db 0xFF
00001FDF  FF2C06            jmp far [esi+eax]
00001FE2  0000              add [eax],al
00001FE4  84F2              test dl,dh
00001FE6  FF                db 0xFF
00001FE7  FF540600          call near [esi+eax+0x0]
00001FEB  00E4              add ah,ah
00001FED  F2                db 0xF2
00001FEE  FF                db 0xFF
00001FEF  FF                db 0xFF
00001FF0  7C06              jl 0x1ff8
00001FF2  0000              add [eax],al
00001FF4  22F3              and dh,bl
00001FF6  FF                db 0xFF
00001FF7  FF9C0600002AF3    call far [esi+eax+0xf32a0000]
00001FFE  FF                db 0xFF
00001FFF  FF                db 0xFF
00002000  BC06000044        mov esp,0x44000006
00002005  F3                db 0xF3
00002006  FF                db 0xFF
00002007  FF                db 0xFF
00002008  DC06              fadd qword [esi]
0000200A  0000              add [eax],al
0000200C  66                db 0x66
0000200D  F3                db 0xF3
0000200E  FF                db 0xFF
0000200F  FF                db 0xFF
00002010  FC                cld
00002011  06                push es
00002012  0000              add [eax],al
00002014  20F6              and dh,dh
00002016  FF                db 0xFF
00002017  FF2C07            jmp far [edi+eax]
0000201A  0000              add [eax],al
0000201C  42                inc edx
0000201D  F6FF              idiv bh
0000201F  FF4C0700          dec dword [edi+eax+0x0]
00002023  0048F6            add [eax-0xa],cl
00002026  FF                db 0xFF
00002027  FF6C0700          jmp far [edi+eax+0x0]
0000202B  004EF6            add [esi-0xa],cl
0000202E  FF                db 0xFF
0000202F  FF8C07000062F6    dec dword [edi+eax+0xf6620000]
00002036  FF                db 0xFF
00002037  FFAC0700007CF6    jmp far [edi+eax+0xf67c0000]
0000203E  FF                db 0xFF
0000203F  FFCC              dec esp
00002041  07                pop es
00002042  0000              add [eax],al
00002044  DCF6              fdivr to st6
00002046  FF                db 0xFF
00002047  FFF4              push esp
00002049  07                pop es
0000204A  0000              add [eax],al
0000204C  28F7              sub bh,dh
0000204E  FF                db 0xFF
0000204F  FF1408            call near [eax+ecx]
00002052  0000              add [eax],al
00002054  30F7              xor bh,dh
00002056  FF                db 0xFF
00002057  FF3408            push dword [eax+ecx]
0000205A  0000              add [eax],al
0000205C  4A                dec edx
0000205D  F7FF              idiv edi
0000205F  FF540800          call near [eax+ecx+0x0]
00002063  0082F7FFFF74      add [edx+0x74fffff7],al
00002069  0800              or [eax],al
0000206B  00C0              add al,al
0000206D  F7FF              idiv edi
0000206F  FF94080000E7F7    call near [eax+ecx+0xf7e70000]
00002076  FF                db 0xFF
00002077  FFB408000008F8    push dword [eax+ecx+0xf8080000]
0000207E  FF                db 0xFF
0000207F  FFD4              call esp
00002081  0800              or [eax],al
00002083  0022              add [edx],ah
00002085  F8                clc
00002086  FF                db 0xFF
00002087  FFF4              push esp
00002089  0800              or [eax],al
0000208B  0050F8            add [eax-0x8],dl
0000208E  FF                db 0xFF
0000208F  FF1409            call near [ecx+ecx]
00002092  0000              add [eax],al
00002094  58                pop eax
00002095  F8                clc
00002096  FF                db 0xFF
00002097  FF3409            push dword [ecx+ecx]
0000209A  0000              add [eax],al
0000209C  90                nop
0000209D  F8                clc
0000209E  FF                db 0xFF
0000209F  FF5809            call far [eax+0x9]
000020A2  0000              add [eax],al
000020A4  9AF8FFFF780900    call 0x9:0x78fffff8
000020AB  003E              add [esi],bh
000020AD  F9                stc
000020AE  FF                db 0xFF
000020AF  FF9C0900005DF9    call far [ecx+ecx+0xf95d0000]
000020B6  FF                db 0xFF
000020B7  FF                db 0xFF
000020B8  BC0900008E        mov esp,0x8e000009
000020BD  F9                stc
000020BE  FF                db 0xFF
000020BF  FFE0              jmp eax
000020C1  0900              or [eax],eax
000020C3  00BDF9FFFF00      add [ebp+0xfffff9],bh
000020C9  0A00              or al,[eax]
000020CB  00E5              add ch,ah
000020CD  F9                stc
000020CE  FF                db 0xFF
000020CF  FF20              jmp near [eax]
000020D1  0A00              or al,[eax]
000020D3  0000              add [eax],al
000020D5  FA                cli
000020D6  FF                db 0xFF
000020D7  FF400A            inc dword [eax+0xa]
000020DA  0000              add [eax],al
000020DC  10FA              adc dl,bh
000020DE  FF                db 0xFF
000020DF  FF600A            jmp near [eax+0xa]
000020E2  0000              add [eax],al
000020E4  48                dec eax
000020E5  FA                cli
000020E6  FF                db 0xFF
000020E7  FF800A000070      inc dword [eax+0x7000000a]
000020ED  FA                cli
000020EE  FF                db 0xFF
000020EF  FFA00A0000A0      jmp near [eax+0xa000000a]
000020F5  FA                cli
000020F6  FF                db 0xFF
000020F7  FFC0              inc eax
000020F9  0A00              or al,[eax]
000020FB  00DE              add dh,bl
000020FD  FA                cli
000020FE  FF                db 0xFF
000020FF  FFE0              jmp eax
00002101  0A00              or al,[eax]
00002103  00F8              add al,bh
00002105  FA                cli
00002106  FF                db 0xFF
00002107  FF00              inc dword [eax]
00002109  0B00              or eax,[eax]
0000210B  0012              add [edx],dl
0000210D  FB                sti
0000210E  FF                db 0xFF
0000210F  FF20              jmp near [eax]
00002111  0B00              or eax,[eax]
00002113  0025FBFFFF40      add [0x40fffffb],ah
00002119  0B00              or eax,[eax]
0000211B  0046FB            add [esi-0x5],al
0000211E  FF                db 0xFF
0000211F  FF600B            jmp near [eax+0xb]
00002122  0000              add [eax],al
00002124  4B                dec ebx
00002125  FB                sti
00002126  FF                db 0xFF
00002127  FF800B00005E      inc dword [eax+0x5e00000b]
0000212D  FB                sti
0000212E  FF                db 0xFF
0000212F  FFA00B0000A2      jmp near [eax+0xa200000b]
00002135  FB                sti
00002136  FF                db 0xFF
00002137  FFC8              dec eax
00002139  0B00              or eax,[eax]
0000213B  00BCFBFFFFE80B    add [ebx+edi*8+0xbe8ffff],bh
00002142  0000              add [eax],al
00002144  D7                xlatb
00002145  FB                sti
00002146  FF                db 0xFF
00002147  FF08              dec dword [eax]
00002149  0C00              or al,0x0
0000214B  00F2              add dl,dh
0000214D  FB                sti
0000214E  FF                db 0xFF
0000214F  FF28              jmp far [eax]
00002151  0C00              or al,0x0
00002153  0022              add [edx],ah
00002155  FC                cld
00002156  FF                db 0xFF
00002157  FF480C            dec dword [eax+0xc]
0000215A  0000              add [eax],al
0000215C  44                inc esp
0000215D  FC                cld
0000215E  FF                db 0xFF
0000215F  FF680C            jmp far [eax+0xc]
00002162  0000              add [eax],al
00002164  4A                dec edx
00002165  FC                cld
00002166  FF                db 0xFF
00002167  FF880C000064      dec dword [eax+0x6400000c]
0000216D  FC                cld
0000216E  FF                db 0xFF
0000216F  FFA80C000078      jmp far [eax+0x7800000c]
00002175  FC                cld
00002176  FF                db 0xFF
00002177  FFC8              dec eax
00002179  0C00              or al,0x0
0000217B  00A8FCFFFFE8      add [eax+0xe8fffffc],ch
00002181  0C00              or al,0x0
00002183  00C9              add cl,cl
00002185  FC                cld
00002186  FF                db 0xFF
00002187  FF08              dec dword [eax]
00002189  0D0000CEFC        or eax,0xfcce0000
0000218E  FF                db 0xFF
0000218F  FF28              jmp far [eax]
00002191  0D0000D3FC        or eax,0xfcd30000
00002196  FF                db 0xFF
00002197  FF480D            dec dword [eax+0xd]
0000219A  0000              add [eax],al
0000219C  0AFD              or bh,ch
0000219E  FF                db 0xFF
0000219F  FF680D            jmp far [eax+0xd]
000021A2  0000              add [eax],al
000021A4  12FD              adc bh,ch
000021A6  FF                db 0xFF
000021A7  FF880D000025      dec dword [eax+0x2500000d]
000021AD  FD                std
000021AE  FF                db 0xFF
000021AF  FFA80D00004A      jmp far [eax+0x4a00000d]
000021B5  FD                std
000021B6  FF                db 0xFF
000021B7  FFC8              dec eax
000021B9  0D00005EFD        or eax,0xfd5e0000
000021BE  FF                db 0xFF
000021BF  FF                db 0xFF
000021C0  E80D000066        call 0x660021d2
000021C5  FD                std
000021C6  FF                db 0xFF
000021C7  FF08              dec dword [eax]
000021C9  0E                push cs
000021CA  0000              add [eax],al
000021CC  70FD              jo 0x21cb
000021CE  FF                db 0xFF
000021CF  FF28              jmp far [eax]
000021D1  0E                push cs
000021D2  0000              add [eax],al
000021D4  92                xchg eax,edx
000021D5  FD                std
000021D6  FF                db 0xFF
000021D7  FF480E            dec dword [eax+0xe]
000021DA  0000              add [eax],al
000021DC  98                cwde
000021DD  FD                std
000021DE  FF                db 0xFF
000021DF  FF680E            jmp far [eax+0xe]
000021E2  0000              add [eax],al
000021E4  A2FDFFFF88        mov [0x88fffffd],al
000021E9  0E                push cs
000021EA  0000              add [eax],al
000021EC  C3                ret
000021ED  FD                std
000021EE  FF                db 0xFF
000021EF  FFA80E0000CB      jmp far [eax+0xcb00000e]
000021F5  FD                std
000021F6  FF                db 0xFF
000021F7  FFC8              dec eax
000021F9  0E                push cs
000021FA  0000              add [eax],al
000021FC  F9                stc
000021FD  FD                std
000021FE  FF                db 0xFF
000021FF  FF                db 0xFF
00002200  E80E000037        call 0x37002213
00002205  FE                db 0xFE
00002206  FF                db 0xFF
00002207  FF08              dec dword [eax]
00002209  0F0000            sldt [eax]
0000220C  74FE              jz 0x220c
0000220E  FF                db 0xFF
0000220F  FF28              jmp far [eax]
00002211  0F0000            sldt [eax]
00002214  95                xchg eax,ebp
00002215  FE                db 0xFE
00002216  FF                db 0xFF
00002217  FF480F            dec dword [eax+0xf]
0000221A  0000              add [eax],al
0000221C  BEFEFFFF68        mov esi,0x68fffffe
00002221  0F0000            sldt [eax]
00002224  D1FE              sar esi,1
00002226  FF                db 0xFF
00002227  FF880F000001      dec dword [eax+0x100000f]
0000222D  FF                db 0xFF
0000222E  FF                db 0xFF
0000222F  FFA80F000014      jmp far [eax+0x1400000f]
00002235  0000              add [eax],al
00002237  0000              add [eax],al
00002239  0000              add [eax],al
0000223B  0001              add [ecx],al
0000223D  7A52              jpe 0x2291
0000223F  0001              add [ecx],al
00002241  7C08              jl 0x224b
00002243  011B              add [ebx],ebx
00002245  0C04              or al,0x4
00002247  0488              add al,0x88
00002249  0100              add [eax],eax
0000224B  0020              add [eax],ah
0000224D  0000              add [eax],al
0000224F  001C00            add [eax+eax],bl
00002252  0000              add [eax],al
00002254  6C                insb
00002255  E5FF              in eax,0xff
00002257  FF4001            inc dword [eax+0x1]
0000225A  0000              add [eax],al
0000225C  000E              add [esi],cl
0000225E  08460E            or [esi+0xe],al
00002261  0C4A              or al,0x4a
00002263  0F0B              ud2
00002265  7404              jz 0x226b
00002267  7800              js 0x2269
00002269  3F                aas
0000226A  1A3B              sbb bh,[ebx]
0000226C  2A32              sub dh,[edx]
0000226E  2422              and al,0x22
00002270  1C00              sbb al,0x0
00002272  0000              add [eax],al
00002274  40                inc eax
00002275  0000              add [eax],al
00002277  0003              add [ebx],al
00002279  EC                in al,dx
0000227A  FF                db 0xFF
0000227B  FF08              dec dword [eax]
0000227D  0000              add [eax],al
0000227F  0000              add [eax],al
00002281  41                inc ecx
00002282  0E                push cs
00002283  088502420D05      or [ebp+0x50d4202],al
00002289  44                inc esp
0000228A  C50C04            lds ecx,[esp+eax]
0000228D  0400              add al,0x0
0000228F  001C00            add [eax+eax],bl
00002292  0000              add [eax],al
00002294  0000              add [eax],al
00002296  0000              add [eax],al
00002298  017A50            add [edx+0x50],edi
0000229B  4C                dec esp
0000229C  52                push edx
0000229D  0001              add [ecx],al
0000229F  7C08              jl 0x22a9
000022A1  07                pop es
000022A2  00E0              add al,ah
000022A4  880408            mov [eax+ecx],al
000022A7  001B              add [ebx],bl
000022A9  0C04              or al,0x4
000022AB  0488              add al,0x88
000022AD  0100              add [eax],eax
000022AF  0030              add [eax],dh
000022B1  0000              add [eax],al
000022B3  002400            add [eax+eax],ah
000022B6  0000              add [eax],al
000022B8  68E7FFFF00        push dword 0xffffe7
000022BD  0400              add al,0x0
000022BF  000424            add [esp],al
000022C2  AF                scasd
000022C3  0408              add al,0x8
000022C5  41                inc ecx
000022C6  0E                push cs
000022C7  088502420D05      or [ebp+0x50d4202],al
000022CD  49                dec ecx
000022CE  8703              xchg eax,[ebx]
000022D0  860483            xchg al,[ebx+eax*4]
000022D3  0503F003C3        add eax,0xc303f003
000022D8  41                inc ecx
000022D9  C641C741          mov byte [ecx-0x39],0x41
000022DD  C50C04            lds ecx,[esp+eax]
000022E0  0400              add al,0x0
000022E2  0000              add [eax],al
000022E4  1C00              sbb al,0x0
000022E6  0000              add [eax],al
000022E8  B400              mov ah,0x0
000022EA  0000              add [eax],al
000022EC  98                cwde
000022ED  EBFF              jmp short 0x22ee
000022EF  FF18              call far [eax]
000022F1  0000              add [eax],al
000022F3  0000              add [eax],al
000022F5  41                inc ecx
000022F6  0E                push cs
000022F7  088502420D05      or [ebp+0x50d4202],al
000022FD  54                push esp
000022FE  C50C04            lds ecx,[esp+eax]
00002301  0400              add al,0x0
00002303  001C00            add [eax+eax],bl
00002306  0000              add [eax],al
00002308  D400              aam 0x0
0000230A  0000              add [eax],al
0000230C  90                nop
0000230D  EBFF              jmp short 0x230e
0000230F  FF13              call near [ebx]
00002311  0000              add [eax],al
00002313  0000              add [eax],al
00002315  41                inc ecx
00002316  0E                push cs
00002317  088502420D05      or [ebp+0x50d4202],al
0000231D  4F                dec edi
0000231E  C50C04            lds ecx,[esp+eax]
00002321  0400              add al,0x0
00002323  001C00            add [eax+eax],bl
00002326  0000              add [eax],al
00002328  F4                hlt
00002329  0000              add [eax],al
0000232B  0084EBFFFF1300    add [ebx+ebp*8+0x13ffff],al
00002332  0000              add [eax],al
00002334  00410E            add [ecx+0xe],al
00002337  088502420D05      or [ebp+0x50d4202],al
0000233D  4F                dec edi
0000233E  C50C04            lds ecx,[esp+eax]
00002341  0400              add al,0x0
00002343  002400            add [eax+eax],ah
00002346  0000              add [eax],al
00002348  B800000078        mov eax,0x78000000
0000234D  EBFF              jmp short 0x234e
0000234F  FF5800            call far [eax+0x0]
00002352  0000              add [eax],al
00002354  0461              add al,0x61
00002356  AF                scasd
00002357  0408              add al,0x8
00002359  41                inc ecx
0000235A  0E                push cs
0000235B  088502420D05      or [ebp+0x50d4202],al
00002361  44                inc esp
00002362  830302            add dword [ebx],byte +0x2
00002365  4F                dec edi
00002366  C3                ret
00002367  41                inc ecx
00002368  C50C04            lds ecx,[esp+eax]
0000236B  0424              add al,0x24
0000236D  0000              add [eax],al
0000236F  00E0              add al,ah
00002371  0000              add [eax],al
00002373  00A8EBFFFF57      add [eax+0x57ffffeb],ch
00002379  0000              add [eax],al
0000237B  000471            add [ecx+esi*2],al
0000237E  AF                scasd
0000237F  0408              add al,0x8
00002381  41                inc ecx
00002382  0E                push cs
00002383  088502420D05      or [ebp+0x50d4202],al
00002389  44                inc esp
0000238A  830302            add dword [ebx],byte +0x2
0000238D  4E                dec esi
0000238E  C3                ret
0000238F  41                inc ecx
00002390  C50C04            lds ecx,[esp+eax]
00002393  041C              add al,0x1c
00002395  0000              add [eax],al
00002397  00640100          add [ecx+eax+0x0],ah
0000239B  00D8              add al,bl
0000239D  EBFF              jmp short 0x239e
0000239F  FF12              call near [edx]
000023A1  0000              add [eax],al
000023A3  0000              add [eax],al
000023A5  41                inc ecx
000023A6  0E                push cs
000023A7  088502420D05      or [ebp+0x50d4202],al
000023AD  4E                dec esi
000023AE  C50C04            lds ecx,[esp+eax]
000023B1  0400              add al,0x0
000023B3  001C00            add [eax+eax],bl
000023B6  0000              add [eax],al
000023B8  8401              test [ecx],al
000023BA  0000              add [eax],al
000023BC  CAEBFF            retf 0xffeb
000023BF  FF1A              call far [edx]
000023C1  0000              add [eax],al
000023C3  0000              add [eax],al
000023C5  41                inc ecx
000023C6  0E                push cs
000023C7  088502420D05      or [ebp+0x50d4202],al
000023CD  56                push esi
000023CE  C50C04            lds ecx,[esp+eax]
000023D1  0400              add al,0x0
000023D3  001C00            add [eax+eax],bl
000023D6  0000              add [eax],al
000023D8  A4                movsb
000023D9  0100              add [eax],eax
000023DB  00C4              add ah,al
000023DD  EBFF              jmp short 0x23de
000023DF  FF7300            push dword [ebx+0x0]
000023E2  0000              add [eax],al
000023E4  00410E            add [ecx+0xe],al
000023E7  088502420D05      or [ebp+0x50d4202],al
000023ED  026FC5            add ch,[edi-0x3b]
000023F0  0C04              or al,0x4
000023F2  0400              add al,0x0
000023F4  1C00              sbb al,0x0
000023F6  0000              add [eax],al
000023F8  C401              les eax,[ecx]
000023FA  0000              add [eax],al
000023FC  18EC              sbb ah,ch
000023FE  FF                db 0xFF
000023FF  FF13              call near [ebx]
00002401  0000              add [eax],al
00002403  0000              add [eax],al
00002405  41                inc ecx
00002406  0E                push cs
00002407  088502420D05      or [ebp+0x50d4202],al
0000240D  4F                dec edi
0000240E  C50C04            lds ecx,[esp+eax]
00002411  0400              add al,0x0
00002413  001C00            add [eax+eax],bl
00002416  0000              add [eax],al
00002418  E401              in al,0x1
0000241A  0000              add [eax],al
0000241C  0CEC              or al,0xec
0000241E  FF                db 0xFF
0000241F  FF13              call near [ebx]
00002421  0000              add [eax],al
00002423  0000              add [eax],al
00002425  41                inc ecx
00002426  0E                push cs
00002427  088502420D05      or [ebp+0x50d4202],al
0000242D  4F                dec edi
0000242E  C50C04            lds ecx,[esp+eax]
00002431  0400              add al,0x0
00002433  002400            add [eax+eax],ah
00002436  0000              add [eax],al
00002438  A801              test al,0x1
0000243A  0000              add [eax],al
0000243C  00EC              add ah,ch
0000243E  FF                db 0xFF
0000243F  FF5500            call near [ebp+0x0]
00002442  0000              add [eax],al
00002444  0481              add al,0x81
00002446  AF                scasd
00002447  0408              add al,0x8
00002449  41                inc ecx
0000244A  0E                push cs
0000244B  088502420D05      or [ebp+0x50d4202],al
00002451  44                inc esp
00002452  830302            add dword [ebx],byte +0x2
00002455  4C                dec esp
00002456  C3                ret
00002457  41                inc ecx
00002458  C50C04            lds ecx,[esp+eax]
0000245B  0424              add al,0x24
0000245D  0000              add [eax],al
0000245F  00D0              add al,dl
00002461  0100              add [eax],eax
00002463  002E              add [esi],ch
00002465  EC                in al,dx
00002466  FF                db 0xFF
00002467  FF5700            call near [edi+0x0]
0000246A  0000              add [eax],al
0000246C  0491              add al,0x91
0000246E  AF                scasd
0000246F  0408              add al,0x8
00002471  41                inc ecx
00002472  0E                push cs
00002473  088502420D05      or [ebp+0x50d4202],al
00002479  44                inc esp
0000247A  830302            add dword [ebx],byte +0x2
0000247D  4E                dec esi
0000247E  C3                ret
0000247F  41                inc ecx
00002480  C50C04            lds ecx,[esp+eax]
00002483  041C              add al,0x1c
00002485  0000              add [eax],al
00002487  00540200          add [edx+eax+0x0],dl
0000248B  005EEC            add [esi-0x14],bl
0000248E  FF                db 0xFF
0000248F  FF12              call near [edx]
00002491  0000              add [eax],al
00002493  0000              add [eax],al
00002495  41                inc ecx
00002496  0E                push cs
00002497  088502420D05      or [ebp+0x50d4202],al
0000249D  4E                dec esi
0000249E  C50C04            lds ecx,[esp+eax]
000024A1  0400              add al,0x0
000024A3  001C00            add [eax+eax],bl
000024A6  0000              add [eax],al
000024A8  7402              jz 0x24ac
000024AA  0000              add [eax],al
000024AC  50                push eax
000024AD  EC                in al,dx
000024AE  FF                db 0xFF
000024AF  FF1B              call far [ebx]
000024B1  0000              add [eax],al
000024B3  0000              add [eax],al
000024B5  41                inc ecx
000024B6  0E                push cs
000024B7  088502420D05      or [ebp+0x50d4202],al
000024BD  57                push edi
000024BE  C50C04            lds ecx,[esp+eax]
000024C1  0400              add al,0x0
000024C3  001C00            add [eax+eax],bl
000024C6  0000              add [eax],al
000024C8  94                xchg eax,esp
000024C9  0200              add al,[eax]
000024CB  004BEC            add [ebx-0x14],cl
000024CE  FF                db 0xFF
000024CF  FF1B              call far [ebx]
000024D1  0000              add [eax],al
000024D3  0000              add [eax],al
000024D5  41                inc ecx
000024D6  0E                push cs
000024D7  088502420D05      or [ebp+0x50d4202],al
000024DD  57                push edi
000024DE  C50C04            lds ecx,[esp+eax]
000024E1  0400              add al,0x0
000024E3  001C00            add [eax+eax],bl
000024E6  0000              add [eax],al
000024E8  B402              mov ah,0x2
000024EA  0000              add [eax],al
000024EC  46                inc esi
000024ED  EC                in al,dx
000024EE  FF                db 0xFF
000024EF  FF0500000000      inc dword [0x0]
000024F5  41                inc ecx
000024F6  0E                push cs
000024F7  088502420D05      or [ebp+0x50d4202],al
000024FD  41                inc ecx
000024FE  C50C04            lds ecx,[esp+eax]
00002501  0400              add al,0x0
00002503  001C00            add [eax+eax],bl
00002506  0000              add [eax],al
00002508  D402              aam 0x2
0000250A  0000              add [eax],al
0000250C  2CEC              sub al,0xec
0000250E  FF                db 0xFF
0000250F  FF0500000000      inc dword [0x0]
00002515  41                inc ecx
00002516  0E                push cs
00002517  088502420D05      or [ebp+0x50d4202],al
0000251D  41                inc ecx
0000251E  C50C04            lds ecx,[esp+eax]
00002521  0400              add al,0x0
00002523  001C00            add [eax+eax],bl
00002526  0000              add [eax],al
00002528  F4                hlt
00002529  0200              add al,[eax]
0000252B  0012              add [edx],dl
0000252D  EC                in al,dx
0000252E  FF                db 0xFF
0000252F  FF13              call near [ebx]
00002531  0000              add [eax],al
00002533  0000              add [eax],al
00002535  41                inc ecx
00002536  0E                push cs
00002537  088502420D05      or [ebp+0x50d4202],al
0000253D  4F                dec edi
0000253E  C50C04            lds ecx,[esp+eax]
00002541  0400              add al,0x0
00002543  002400            add [eax+eax],ah
00002546  0000              add [eax],al
00002548  B802000006        mov eax,0x6000002
0000254D  EC                in al,dx
0000254E  FF                db 0xFF
0000254F  FF4A00            dec dword [edx+0x0]
00002552  0000              add [eax],al
00002554  04A1              add al,0xa1
00002556  AF                scasd
00002557  0408              add al,0x8
00002559  41                inc ecx
0000255A  0E                push cs
0000255B  088502420D05      or [ebp+0x50d4202],al
00002561  44                inc esp
00002562  830302            add dword [ebx],byte +0x2
00002565  41                inc ecx
00002566  C3                ret
00002567  41                inc ecx
00002568  C50C04            lds ecx,[esp+eax]
0000256B  0424              add al,0x24
0000256D  0000              add [eax],al
0000256F  00E0              add al,ah
00002571  0200              add al,[eax]
00002573  0028              add [eax],ch
00002575  EC                in al,dx
00002576  FF                db 0xFF
00002577  FF5F00            call far [edi+0x0]
0000257A  0000              add [eax],al
0000257C  04AD              add al,0xad
0000257E  AF                scasd
0000257F  0408              add al,0x8
00002581  41                inc ecx
00002582  0E                push cs
00002583  088502420D05      or [ebp+0x50d4202],al
00002589  44                inc esp
0000258A  830302            add dword [ebx],byte +0x2
0000258D  56                push esi
0000258E  C3                ret
0000258F  41                inc ecx
00002590  C50C04            lds ecx,[esp+eax]
00002593  041C              add al,0x1c
00002595  0000              add [eax],al
00002597  00640300          add [ebx+eax+0x0],ah
0000259B  0060EC            add [eax-0x14],ah
0000259E  FF                db 0xFF
0000259F  FF                db 0xFF
000025A0  3E0000            add [ds:eax],al
000025A3  0000              add [eax],al
000025A5  41                inc ecx
000025A6  0E                push cs
000025A7  088502420D05      or [ebp+0x50d4202],al
000025AD  7AC5              jpe 0x2574
000025AF  0C04              or al,0x4
000025B1  0400              add al,0x0
000025B3  001C00            add [eax+eax],bl
000025B6  0000              add [eax],al
000025B8  8403              test [ebx],al
000025BA  0000              add [eax],al
000025BC  7EEC              jng 0x25aa
000025BE  FF                db 0xFF
000025BF  FF08              dec dword [eax]
000025C1  0000              add [eax],al
000025C3  0000              add [eax],al
000025C5  41                inc ecx
000025C6  0E                push cs
000025C7  088502420D05      or [ebp+0x50d4202],al
000025CD  44                inc esp
000025CE  C50C04            lds ecx,[esp+eax]
000025D1  0400              add al,0x0
000025D3  001C00            add [eax+eax],bl
000025D6  0000              add [eax],al
000025D8  A4                movsb
000025D9  0300              add eax,[eax]
000025DB  0066EC            add [esi-0x14],ah
000025DE  FF                db 0xFF
000025DF  FF1A              call far [edx]
000025E1  0000              add [eax],al
000025E3  0000              add [eax],al
000025E5  41                inc ecx
000025E6  0E                push cs
000025E7  088502420D05      or [ebp+0x50d4202],al
000025ED  56                push esi
000025EE  C50C04            lds ecx,[esp+eax]
000025F1  0400              add al,0x0
000025F3  001C00            add [eax+eax],bl
000025F6  0000              add [eax],al
000025F8  C403              les eax,[ebx]
000025FA  0000              add [eax],al
000025FC  60                pusha
000025FD  EC                in al,dx
000025FE  FF                db 0xFF
000025FF  FF21              jmp near [ecx]
00002601  0000              add [eax],al
00002603  0000              add [eax],al
00002605  41                inc ecx
00002606  0E                push cs
00002607  088502420D05      or [ebp+0x50d4202],al
0000260D  5D                pop ebp
0000260E  C50C04            lds ecx,[esp+eax]
00002611  0400              add al,0x0
00002613  002C00            add [eax+eax],ch
00002616  0000              add [eax],al
00002618  8803              mov [ebx],al
0000261A  0000              add [eax],al
0000261C  62                db 0x62
0000261D  EC                in al,dx
0000261E  FF                db 0xFF
0000261F  FF                db 0xFF
00002620  BA02000004        mov edx,0x4000002
00002625  BCAF040841        mov esp,0x410804af
0000262A  0E                push cs
0000262B  088502420D05      or [ebp+0x50d4202],al
00002631  45                inc ebp
00002632  8603              xchg al,[ebx]
00002634  830403AF          add dword [ebx+eax],byte -0x51
00002638  02C3              add al,bl
0000263A  41                inc ecx
0000263B  C641C50C          mov byte [ecx-0x3b],0xc
0000263F  0404              add al,0x4
00002641  0000              add [eax],al
00002643  001C00            add [eax+eax],bl
00002646  0000              add [eax],al
00002648  1404              adc al,0x4
0000264A  0000              add [eax],al
0000264C  EC                in al,dx
0000264D  EE                out dx,al
0000264E  FF                db 0xFF
0000264F  FF22              jmp near [edx]
00002651  0000              add [eax],al
00002653  0000              add [eax],al
00002655  41                inc ecx
00002656  0E                push cs
00002657  088502420D05      or [ebp+0x50d4202],al
0000265D  5C                pop esp
0000265E  C50C04            lds ecx,[esp+eax]
00002661  0400              add al,0x0
00002663  001C00            add [eax+eax],bl
00002666  0000              add [eax],al
00002668  3404              xor al,0x4
0000266A  0000              add [eax],al
0000266C  EE                out dx,al
0000266D  EE                out dx,al
0000266E  FF                db 0xFF
0000266F  FF0500000000      inc dword [0x0]
00002675  41                inc ecx
00002676  0E                push cs
00002677  088502420D05      or [ebp+0x50d4202],al
0000267D  41                inc ecx
0000267E  C50C04            lds ecx,[esp+eax]
00002681  0400              add al,0x0
00002683  001C00            add [eax+eax],bl
00002686  0000              add [eax],al
00002688  54                push esp
00002689  0400              add al,0x0
0000268B  00D4              add ah,dl
0000268D  EE                out dx,al
0000268E  FF                db 0xFF
0000268F  FF0500000000      inc dword [0x0]
00002695  41                inc ecx
00002696  0E                push cs
00002697  088502420D05      or [ebp+0x50d4202],al
0000269D  41                inc ecx
0000269E  C50C04            lds ecx,[esp+eax]
000026A1  0400              add al,0x0
000026A3  001C00            add [eax+eax],bl
000026A6  0000              add [eax],al
000026A8  7404              jz 0x26ae
000026AA  0000              add [eax],al
000026AC  BAEEFFFF13        mov edx,0x13ffffee
000026B1  0000              add [eax],al
000026B3  0000              add [eax],al
000026B5  41                inc ecx
000026B6  0E                push cs
000026B7  088502420D05      or [ebp+0x50d4202],al
000026BD  4F                dec edi
000026BE  C50C04            lds ecx,[esp+eax]
000026C1  0400              add al,0x0
000026C3  001C00            add [eax+eax],bl
000026C6  0000              add [eax],al
000026C8  94                xchg eax,esp
000026C9  0400              add al,0x0
000026CB  00AEEEFFFF1A      add [esi+0x1affffee],ch
000026D1  0000              add [eax],al
000026D3  0000              add [eax],al
000026D5  41                inc ecx
000026D6  0E                push cs
000026D7  088502420D05      or [ebp+0x50d4202],al
000026DD  56                push esi
000026DE  C50C04            lds ecx,[esp+eax]
000026E1  0400              add al,0x0
000026E3  002400            add [eax+eax],ah
000026E6  0000              add [eax],al
000026E8  58                pop eax
000026E9  0400              add al,0x0
000026EB  00A8EEFFFF5F      add [eax+0x5fffffee],ch
000026F1  0000              add [eax],al
000026F3  0004E8            add [eax+ebp*8],al
000026F6  AF                scasd
000026F7  0408              add al,0x8
000026F9  41                inc ecx
000026FA  0E                push cs
000026FB  088502420D05      or [ebp+0x50d4202],al
00002701  44                inc esp
00002702  830302            add dword [ebx],byte +0x2
00002705  56                push esi
00002706  C3                ret
00002707  41                inc ecx
00002708  C50C04            lds ecx,[esp+eax]
0000270B  041C              add al,0x1c
0000270D  0000              add [eax],al
0000270F  00DC              add ah,bl
00002711  0400              add al,0x0
00002713  00E0              add al,ah
00002715  EE                out dx,al
00002716  FF                db 0xFF
00002717  FF4B00            dec dword [ebx+0x0]
0000271A  0000              add [eax],al
0000271C  00410E            add [ecx+0xe],al
0000271F  088502420D05      or [ebp+0x50d4202],al
00002725  0247C5            add al,[edi-0x3b]
00002728  0C04              or al,0x4
0000272A  0400              add al,0x0
0000272C  1C00              sbb al,0x0
0000272E  0000              add [eax],al
00002730  FC                cld
00002731  0400              add al,0x0
00002733  000CEF            add [edi+ebp*8],cl
00002736  FF                db 0xFF
00002737  FF08              dec dword [eax]
00002739  0000              add [eax],al
0000273B  0000              add [eax],al
0000273D  41                inc ecx
0000273E  0E                push cs
0000273F  088502420D05      or [ebp+0x50d4202],al
00002745  44                inc esp
00002746  C50C04            lds ecx,[esp+eax]
00002749  0400              add al,0x0
0000274B  001C00            add [eax+eax],bl
0000274E  0000              add [eax],al
00002750  1C05              sbb al,0x5
00002752  0000              add [eax],al
00002754  F4                hlt
00002755  EE                out dx,al
00002756  FF                db 0xFF
00002757  FF1A              call far [edx]
00002759  0000              add [eax],al
0000275B  0000              add [eax],al
0000275D  41                inc ecx
0000275E  0E                push cs
0000275F  088502420D05      or [ebp+0x50d4202],al
00002765  56                push esi
00002766  C50C04            lds ecx,[esp+eax]
00002769  0400              add al,0x0
0000276B  001C00            add [eax+eax],bl
0000276E  0000              add [eax],al
00002770  3C05              cmp al,0x5
00002772  0000              add [eax],al
00002774  EE                out dx,al
00002775  EE                out dx,al
00002776  FF                db 0xFF
00002777  FF37              push dword [edi]
00002779  0000              add [eax],al
0000277B  0000              add [eax],al
0000277D  41                inc ecx
0000277E  0E                push cs
0000277F  088502420D05      or [ebp+0x50d4202],al
00002785  73C5              jnc 0x274c
00002787  0C04              or al,0x4
00002789  0400              add al,0x0
0000278B  001C00            add [eax+eax],bl
0000278E  0000              add [eax],al
00002790  5C                pop esp
00002791  05000006EF        add eax,0xef060000
00002796  FF                db 0xFF
00002797  FF                db 0xFF
00002798  3D00000000        cmp eax,0x0
0000279D  41                inc ecx
0000279E  0E                push cs
0000279F  088502420D05      or [ebp+0x50d4202],al
000027A5  79C5              jns 0x276c
000027A7  0C04              or al,0x4
000027A9  0400              add al,0x0
000027AB  001C00            add [eax+eax],bl
000027AE  0000              add [eax],al
000027B0  7C05              jl 0x27b7
000027B2  0000              add [eax],al
000027B4  24EF              and al,0xef
000027B6  FF                db 0xFF
000027B7  FF27              jmp near [edi]
000027B9  0000              add [eax],al
000027BB  0000              add [eax],al
000027BD  41                inc ecx
000027BE  0E                push cs
000027BF  088502420D05      or [ebp+0x50d4202],al
000027C5  63C5              arpl bp,ax
000027C7  0C04              or al,0x4
000027C9  0400              add al,0x0
000027CB  001C00            add [eax+eax],bl
000027CE  0000              add [eax],al
000027D0  9C                pushf
000027D1  0500002BEF        add eax,0xef2b0000
000027D6  FF                db 0xFF
000027D7  FF21              jmp near [ecx]
000027D9  0000              add [eax],al
000027DB  0000              add [eax],al
000027DD  41                inc ecx
000027DE  0E                push cs
000027DF  088502420D05      or [ebp+0x50d4202],al
000027E5  5D                pop ebp
000027E6  C50C04            lds ecx,[esp+eax]
000027E9  0400              add al,0x0
000027EB  001C00            add [eax+eax],bl
000027EE  0000              add [eax],al
000027F0  BC0500002C        mov esp,0x2c000005
000027F5  EF                out dx,eax
000027F6  FF                db 0xFF
000027F7  FF1A              call far [edx]
000027F9  0000              add [eax],al
000027FB  0000              add [eax],al
000027FD  41                inc ecx
000027FE  0E                push cs
000027FF  088502420D05      or [ebp+0x50d4202],al
00002805  56                push esi
00002806  C50C04            lds ecx,[esp+eax]
00002809  0400              add al,0x0
0000280B  001C00            add [eax+eax],bl
0000280E  0000              add [eax],al
00002810  DC05000026EF      fadd qword [0xef260000]
00002816  FF                db 0xFF
00002817  FF2E              jmp far [esi]
00002819  0000              add [eax],al
0000281B  0000              add [eax],al
0000281D  41                inc ecx
0000281E  0E                push cs
0000281F  088502420D05      or [ebp+0x50d4202],al
00002825  6AC5              push byte -0x3b
00002827  0C04              or al,0x4
00002829  0400              add al,0x0
0000282B  001C00            add [eax+eax],bl
0000282E  0000              add [eax],al
00002830  FC                cld
00002831  05000034EF        add eax,0xef340000
00002836  FF                db 0xFF
00002837  FF08              dec dword [eax]
00002839  0000              add [eax],al
0000283B  0000              add [eax],al
0000283D  41                inc ecx
0000283E  0E                push cs
0000283F  088502420D05      or [ebp+0x50d4202],al
00002845  44                inc esp
00002846  C50C04            lds ecx,[esp+eax]
00002849  0400              add al,0x0
0000284B  0020              add [eax],ah
0000284D  0000              add [eax],al
0000284F  001C06            add [esi+eax],bl
00002852  0000              add [eax],al
00002854  1CEF              sbb al,0xef
00002856  FF                db 0xFF
00002857  FF                db 0xFF
00002858  3800              cmp [eax],al
0000285A  0000              add [eax],al
0000285C  00410E            add [ecx+0xe],al
0000285F  088502420D05      or [ebp+0x50d4202],al
00002865  44                inc esp
00002866  83036F            add dword [ebx],byte +0x6f
00002869  C3                ret
0000286A  41                inc ecx
0000286B  C50C04            lds ecx,[esp+eax]
0000286E  0400              add al,0x0
00002870  1C00              sbb al,0x0
00002872  0000              add [eax],al
00002874  40                inc eax
00002875  06                push es
00002876  0000              add [eax],al
00002878  30EF              xor bh,ch
0000287A  FF                db 0xFF
0000287B  FF0A              dec dword [edx]
0000287D  0000              add [eax],al
0000287F  0000              add [eax],al
00002881  41                inc ecx
00002882  0E                push cs
00002883  088502420D05      or [ebp+0x50d4202],al
00002889  46                inc esi
0000288A  C50C04            lds ecx,[esp+eax]
0000288D  0400              add al,0x0
0000288F  0020              add [eax],ah
00002891  0000              add [eax],al
00002893  006006            add [eax+0x6],ah
00002896  0000              add [eax],al
00002898  1AEF              sbb ch,bh
0000289A  FF                db 0xFF
0000289B  FFA40000000041    jmp near [eax+eax+0x41000000]
000028A2  0E                push cs
000028A3  088502420D05      or [ebp+0x50d4202],al
000028A9  44                inc esp
000028AA  830302            add dword [ebx],byte +0x2
000028AD  9B                wait
000028AE  C3                ret
000028AF  41                inc ecx
000028B0  C50C04            lds ecx,[esp+eax]
000028B3  041C              add al,0x1c
000028B5  0000              add [eax],al
000028B7  00840600009AEF    add [esi+eax+0xef9a0000],al
000028BE  FF                db 0xFF
000028BF  FF1F              call far [edi]
000028C1  0000              add [eax],al
000028C3  0000              add [eax],al
000028C5  41                inc ecx
000028C6  0E                push cs
000028C7  088502420D05      or [ebp+0x50d4202],al
000028CD  59                pop ecx
000028CE  C50C04            lds ecx,[esp+eax]
000028D1  0400              add al,0x0
000028D3  0020              add [eax],ah
000028D5  0000              add [eax],al
000028D7  00A406000099EF    add [esi+eax+0xef990000],ah
000028DE  FF                db 0xFF
000028DF  FF30              push dword [eax]
000028E1  0000              add [eax],al
000028E3  0000              add [eax],al
000028E5  41                inc ecx
000028E6  0E                push cs
000028E7  088502420D05      or [ebp+0x50d4202],al
000028ED  44                inc esp
000028EE  830367            add dword [ebx],byte +0x67
000028F1  C3                ret
000028F2  41                inc ecx
000028F3  C50C04            lds ecx,[esp+eax]
000028F6  0400              add al,0x0
000028F8  1C00              sbb al,0x0
000028FA  0000              add [eax],al
000028FC  C8060000          enter 0x6,0x0
00002900  A6                cmpsb
00002901  EF                out dx,eax
00002902  FF                db 0xFF
00002903  FF2F              jmp far [edi]
00002905  0000              add [eax],al
00002907  0000              add [eax],al
00002909  41                inc ecx
0000290A  0E                push cs
0000290B  088502420D05      or [ebp+0x50d4202],al
00002911  6BC50C            imul eax,ebp,byte +0xc
00002914  0404              add al,0x4
00002916  0000              add [eax],al
00002918  1C00              sbb al,0x0
0000291A  0000              add [eax],al
0000291C  E8060000B5        call 0xb5002927
00002921  EF                out dx,eax
00002922  FF                db 0xFF
00002923  FF28              jmp far [eax]
00002925  0000              add [eax],al
00002927  0000              add [eax],al
00002929  41                inc ecx
0000292A  0E                push cs
0000292B  088502420D05      or [ebp+0x50d4202],al
00002931  64C50C04          lds ecx,[fs:esp+eax]
00002935  0400              add al,0x0
00002937  001C00            add [eax+eax],bl
0000293A  0000              add [eax],al
0000293C  0807              or [edi],al
0000293E  0000              add [eax],al
00002940  BDEFFFFF1A        mov ebp,0x1affffef
00002945  0000              add [eax],al
00002947  0000              add [eax],al
00002949  41                inc ecx
0000294A  0E                push cs
0000294B  088502420D05      or [ebp+0x50d4202],al
00002951  56                push esi
00002952  C50C04            lds ecx,[esp+eax]
00002955  0400              add al,0x0
00002957  001C00            add [eax+eax],bl
0000295A  0000              add [eax],al
0000295C  2807              sub [edi],al
0000295E  0000              add [eax],al
00002960  B8EFFFFF0F        mov eax,0xfffffef
00002965  0000              add [eax],al
00002967  0000              add [eax],al
00002969  41                inc ecx
0000296A  0E                push cs
0000296B  088502420D05      or [ebp+0x50d4202],al
00002971  4B                dec ebx
00002972  C50C04            lds ecx,[esp+eax]
00002975  0400              add al,0x0
00002977  001C00            add [eax+eax],bl
0000297A  0000              add [eax],al
0000297C  48                dec eax
0000297D  07                pop es
0000297E  0000              add [eax],al
00002980  A8EF              test al,0xef
00002982  FF                db 0xFF
00002983  FF37              push dword [edi]
00002985  0000              add [eax],al
00002987  0000              add [eax],al
00002989  41                inc ecx
0000298A  0E                push cs
0000298B  088502420D05      or [ebp+0x50d4202],al
00002991  73C5              jnc 0x2958
00002993  0C04              or al,0x4
00002995  0400              add al,0x0
00002997  001C00            add [eax+eax],bl
0000299A  0000              add [eax],al
0000299C  68070000C0        push dword 0xc0000007
000029A1  EF                out dx,eax
000029A2  FF                db 0xFF
000029A3  FF27              jmp near [edi]
000029A5  0000              add [eax],al
000029A7  0000              add [eax],al
000029A9  41                inc ecx
000029AA  0E                push cs
000029AB  088502420D05      or [ebp+0x50d4202],al
000029B1  63C5              arpl bp,ax
000029B3  0C04              or al,0x4
000029B5  0400              add al,0x0
000029B7  001C00            add [eax+eax],bl
000029BA  0000              add [eax],al
000029BC  8807              mov [edi],al
000029BE  0000              add [eax],al
000029C0  C8EFFFFF          enter 0xffef,0xff
000029C4  2F                das
000029C5  0000              add [eax],al
000029C7  0000              add [eax],al
000029C9  41                inc ecx
000029CA  0E                push cs
000029CB  088502420D05      or [ebp+0x50d4202],al
000029D1  6BC50C            imul eax,ebp,byte +0xc
000029D4  0404              add al,0x4
000029D6  0000              add [eax],al
000029D8  1C00              sbb al,0x0
000029DA  0000              add [eax],al
000029DC  A807              test al,0x7
000029DE  0000              add [eax],al
000029E0  D8EF              fsubr st7
000029E2  FF                db 0xFF
000029E3  FF                db 0xFF
000029E4  3E0000            add [ds:eax],al
000029E7  0000              add [eax],al
000029E9  41                inc ecx
000029EA  0E                push cs
000029EB  088502420D05      or [ebp+0x50d4202],al
000029F1  7AC5              jpe 0x29b8
000029F3  0C04              or al,0x4
000029F5  0400              add al,0x0
000029F7  001C00            add [eax+eax],bl
000029FA  0000              add [eax],al
000029FC  C8070000          enter 0x7,0x0
00002A00  F6EF              imul bh
00002A02  FF                db 0xFF
00002A03  FF1A              call far [edx]
00002A05  0000              add [eax],al
00002A07  0000              add [eax],al
00002A09  41                inc ecx
00002A0A  0E                push cs
00002A0B  088502420D05      or [ebp+0x50d4202],al
00002A11  56                push esi
00002A12  C50C04            lds ecx,[esp+eax]
00002A15  0400              add al,0x0
00002A17  001C00            add [eax+eax],bl
00002A1A  0000              add [eax],al
00002A1C  E8070000F0        call 0xf0002a28
00002A21  EF                out dx,eax
00002A22  FF                db 0xFF
00002A23  FF1A              call far [edx]
00002A25  0000              add [eax],al
00002A27  0000              add [eax],al
00002A29  41                inc ecx
00002A2A  0E                push cs
00002A2B  088502420D05      or [ebp+0x50d4202],al
00002A31  56                push esi
00002A32  C50C04            lds ecx,[esp+eax]
00002A35  0400              add al,0x0
00002A37  001C00            add [eax+eax],bl
00002A3A  0000              add [eax],al
00002A3C  0808              or [eax],cl
00002A3E  0000              add [eax],al
00002A40  EAEFFFFF130000    jmp 0x0:0x13ffffef
00002A47  0000              add [eax],al
00002A49  41                inc ecx
00002A4A  0E                push cs
00002A4B  088502420D05      or [ebp+0x50d4202],al
00002A51  4F                dec edi
00002A52  C50C04            lds ecx,[esp+eax]
00002A55  0400              add al,0x0
00002A57  001C00            add [eax+eax],bl
00002A5A  0000              add [eax],al
00002A5C  2808              sub [eax],cl
00002A5E  0000              add [eax],al
00002A60  DDEF              fucomp st7
00002A62  FF                db 0xFF
00002A63  FF21              jmp near [ecx]
00002A65  0000              add [eax],al
00002A67  0000              add [eax],al
00002A69  41                inc ecx
00002A6A  0E                push cs
00002A6B  088502420D05      or [ebp+0x50d4202],al
00002A71  5D                pop ebp
00002A72  C50C04            lds ecx,[esp+eax]
00002A75  0400              add al,0x0
00002A77  001C00            add [eax+eax],bl
00002A7A  0000              add [eax],al
00002A7C  48                dec eax
00002A7D  0800              or [eax],al
00002A7F  00DE              add dh,bl
00002A81  EF                out dx,eax
00002A82  FF                db 0xFF
00002A83  FF0500000000      inc dword [0x0]
00002A89  41                inc ecx
00002A8A  0E                push cs
00002A8B  088502420D05      or [ebp+0x50d4202],al
00002A91  41                inc ecx
00002A92  C50C04            lds ecx,[esp+eax]
00002A95  0400              add al,0x0
00002A97  001C00            add [eax+eax],bl
00002A9A  0000              add [eax],al
00002A9C  68080000C3        push dword 0xc3000008
00002AA1  EF                out dx,eax
00002AA2  FF                db 0xFF
00002AA3  FF13              call near [ebx]
00002AA5  0000              add [eax],al
00002AA7  0000              add [eax],al
00002AA9  41                inc ecx
00002AAA  0E                push cs
00002AAB  088502420D05      or [ebp+0x50d4202],al
00002AB1  4F                dec edi
00002AB2  C50C04            lds ecx,[esp+eax]
00002AB5  0400              add al,0x0
00002AB7  002400            add [eax+eax],ah
00002ABA  0000              add [eax],al
00002ABC  8808              mov [eax],cl
00002ABE  0000              add [eax],al
00002AC0  B6EF              mov dh,0xef
00002AC2  FF                db 0xFF
00002AC3  FF440000          inc dword [eax+eax+0x0]
00002AC7  0000              add [eax],al
00002AC9  41                inc ecx
00002ACA  0E                push cs
00002ACB  088502420D05      or [ebp+0x50d4202],al
00002AD1  45                inc ebp
00002AD2  8603              xchg al,[ebx]
00002AD4  830479C3          add dword [ecx+edi*2],byte -0x3d
00002AD8  41                inc ecx
00002AD9  C641C50C          mov byte [ecx-0x3b],0xc
00002ADD  0404              add al,0x4
00002ADF  001C00            add [eax+eax],bl
00002AE2  0000              add [eax],al
00002AE4  B008              mov al,0x8
00002AE6  0000              add [eax],al
00002AE8  D2EF              shr bh,cl
00002AEA  FF                db 0xFF
00002AEB  FF19              call far [ecx]
00002AED  0000              add [eax],al
00002AEF  0000              add [eax],al
00002AF1  41                inc ecx
00002AF2  0E                push cs
00002AF3  088502420D05      or [ebp+0x50d4202],al
00002AF9  55                push ebp
00002AFA  C50C04            lds ecx,[esp+eax]
00002AFD  0400              add al,0x0
00002AFF  001C00            add [eax+eax],bl
00002B02  0000              add [eax],al
00002B04  D008              ror byte [eax],1
00002B06  0000              add [eax],al
00002B08  CC                int3
00002B09  EF                out dx,eax
00002B0A  FF                db 0xFF
00002B0B  FF1B              call far [ebx]
00002B0D  0000              add [eax],al
00002B0F  0000              add [eax],al
00002B11  41                inc ecx
00002B12  0E                push cs
00002B13  088502420D05      or [ebp+0x50d4202],al
00002B19  57                push edi
00002B1A  C50C04            lds ecx,[esp+eax]
00002B1D  0400              add al,0x0
00002B1F  001C00            add [eax+eax],bl
00002B22  0000              add [eax],al
00002B24  F00800            lock or [eax],al
00002B27  00C7              add bh,al
00002B29  EF                out dx,eax
00002B2A  FF                db 0xFF
00002B2B  FF1B              call far [ebx]
00002B2D  0000              add [eax],al
00002B2F  0000              add [eax],al
00002B31  41                inc ecx
00002B32  0E                push cs
00002B33  088502420D05      or [ebp+0x50d4202],al
00002B39  57                push edi
00002B3A  C50C04            lds ecx,[esp+eax]
00002B3D  0400              add al,0x0
00002B3F  001C00            add [eax+eax],bl
00002B42  0000              add [eax],al
00002B44  1009              adc [ecx],cl
00002B46  0000              add [eax],al
00002B48  C2EFFF            ret 0xffef
00002B4B  FF30              push dword [eax]
00002B4D  0000              add [eax],al
00002B4F  0000              add [eax],al
00002B51  41                inc ecx
00002B52  0E                push cs
00002B53  088502420D05      or [ebp+0x50d4202],al
00002B59  6C                insb
00002B5A  C50C04            lds ecx,[esp+eax]
00002B5D  0400              add al,0x0
00002B5F  001C00            add [eax+eax],bl
00002B62  0000              add [eax],al
00002B64  3009              xor [ecx],cl
00002B66  0000              add [eax],al
00002B68  D2EF              shr bh,cl
00002B6A  FF                db 0xFF
00002B6B  FF21              jmp near [ecx]
00002B6D  0000              add [eax],al
00002B6F  0000              add [eax],al
00002B71  41                inc ecx
00002B72  0E                push cs
00002B73  088502420D05      or [ebp+0x50d4202],al
00002B79  5D                pop ebp
00002B7A  C50C04            lds ecx,[esp+eax]
00002B7D  0400              add al,0x0
00002B7F  001C00            add [eax+eax],bl
00002B82  0000              add [eax],al
00002B84  50                push eax
00002B85  0900              or [eax],eax
00002B87  00D4              add ah,dl
00002B89  EF                out dx,eax
00002B8A  FF                db 0xFF
00002B8B  FF0500000000      inc dword [0x0]
00002B91  41                inc ecx
00002B92  0E                push cs
00002B93  088502420D05      or [ebp+0x50d4202],al
00002B99  41                inc ecx
00002B9A  C50C04            lds ecx,[esp+eax]
00002B9D  0400              add al,0x0
00002B9F  001C00            add [eax+eax],bl
00002BA2  0000              add [eax],al
00002BA4  7009              jo 0x2baf
00002BA6  0000              add [eax],al
00002BA8  BAEFFFFF1A        mov edx,0x1affffef
00002BAD  0000              add [eax],al
00002BAF  0000              add [eax],al
00002BB1  41                inc ecx
00002BB2  0E                push cs
00002BB3  088502420D05      or [ebp+0x50d4202],al
00002BB9  56                push esi
00002BBA  C50C04            lds ecx,[esp+eax]
00002BBD  0400              add al,0x0
00002BBF  001C00            add [eax+eax],bl
00002BC2  0000              add [eax],al
00002BC4  90                nop
00002BC5  0900              or [eax],eax
00002BC7  00B4EFFFFF1300    add [edi+ebp*8+0x13ffff],dh
00002BCE  0000              add [eax],al
00002BD0  00410E            add [ecx+0xe],al
00002BD3  088502420D05      or [ebp+0x50d4202],al
00002BD9  4F                dec edi
00002BDA  C50C04            lds ecx,[esp+eax]
00002BDD  0400              add al,0x0
00002BDF  001C00            add [eax+eax],bl
00002BE2  0000              add [eax],al
00002BE4  B009              mov al,0x9
00002BE6  0000              add [eax],al
00002BE8  A8EF              test al,0xef
00002BEA  FF                db 0xFF
00002BEB  FF30              push dword [eax]
00002BED  0000              add [eax],al
00002BEF  0000              add [eax],al
00002BF1  41                inc ecx
00002BF2  0E                push cs
00002BF3  088502420D05      or [ebp+0x50d4202],al
00002BF9  6C                insb
00002BFA  C50C04            lds ecx,[esp+eax]
00002BFD  0400              add al,0x0
00002BFF  001C00            add [eax+eax],bl
00002C02  0000              add [eax],al
00002C04  D009              ror byte [ecx],1
00002C06  0000              add [eax],al
00002C08  B8EFFFFF21        mov eax,0x21ffffef
00002C0D  0000              add [eax],al
00002C0F  0000              add [eax],al
00002C11  41                inc ecx
00002C12  0E                push cs
00002C13  088502420D05      or [ebp+0x50d4202],al
00002C19  5D                pop ebp
00002C1A  C50C04            lds ecx,[esp+eax]
00002C1D  0400              add al,0x0
00002C1F  001C00            add [eax+eax],bl
00002C22  0000              add [eax],al
00002C24  F00900            lock or [eax],eax
00002C27  00B9EFFFFF05      add [ecx+0x5ffffef],bh
00002C2D  0000              add [eax],al
00002C2F  0000              add [eax],al
00002C31  41                inc ecx
00002C32  0E                push cs
00002C33  088502420D05      or [ebp+0x50d4202],al
00002C39  41                inc ecx
00002C3A  C50C04            lds ecx,[esp+eax]
00002C3D  0400              add al,0x0
00002C3F  001C00            add [eax+eax],bl
00002C42  0000              add [eax],al
00002C44  100A              adc [edx],cl
00002C46  0000              add [eax],al
00002C48  9E                sahf
00002C49  EF                out dx,eax
00002C4A  FF                db 0xFF
00002C4B  FF0500000000      inc dword [0x0]
00002C51  41                inc ecx
00002C52  0E                push cs
00002C53  088502420D05      or [ebp+0x50d4202],al
00002C59  41                inc ecx
00002C5A  C50C04            lds ecx,[esp+eax]
00002C5D  0400              add al,0x0
00002C5F  001C00            add [eax+eax],bl
00002C62  0000              add [eax],al
00002C64  300A              xor [edx],cl
00002C66  0000              add [eax],al
00002C68  83EFFF            sub edi,byte -0x1
00002C6B  FF37              push dword [edi]
00002C6D  0000              add [eax],al
00002C6F  0000              add [eax],al
00002C71  41                inc ecx
00002C72  0E                push cs
00002C73  088502420D05      or [ebp+0x50d4202],al
00002C79  73C5              jnc 0x2c40
00002C7B  0C04              or al,0x4
00002C7D  0400              add al,0x0
00002C7F  001C00            add [eax+eax],bl
00002C82  0000              add [eax],al
00002C84  50                push eax
00002C85  0A00              or al,[eax]
00002C87  009AEFFFFF08      add [edx+0x8ffffef],bl
00002C8D  0000              add [eax],al
00002C8F  0000              add [eax],al
00002C91  41                inc ecx
00002C92  0E                push cs
00002C93  088502420D05      or [ebp+0x50d4202],al
00002C99  44                inc esp
00002C9A  C50C04            lds ecx,[esp+eax]
00002C9D  0400              add al,0x0
00002C9F  001C00            add [eax+eax],bl
00002CA2  0000              add [eax],al
00002CA4  700A              jo 0x2cb0
00002CA6  0000              add [eax],al
00002CA8  82                db 0x82
00002CA9  EF                out dx,eax
00002CAA  FF                db 0xFF
00002CAB  FF13              call near [ebx]
00002CAD  0000              add [eax],al
00002CAF  0000              add [eax],al
00002CB1  41                inc ecx
00002CB2  0E                push cs
00002CB3  088502420D05      or [ebp+0x50d4202],al
00002CB9  4F                dec edi
00002CBA  C50C04            lds ecx,[esp+eax]
00002CBD  0400              add al,0x0
00002CBF  001C00            add [eax+eax],bl
00002CC2  0000              add [eax],al
00002CC4  90                nop
00002CC5  0A00              or al,[eax]
00002CC7  0075EF            add [ebp-0x11],dh
00002CCA  FF                db 0xFF
00002CCB  FF2500000000      jmp near [0x0]
00002CD1  41                inc ecx
00002CD2  0E                push cs
00002CD3  088502420D05      or [ebp+0x50d4202],al
00002CD9  61                popa
00002CDA  C50C04            lds ecx,[esp+eax]
00002CDD  0400              add al,0x0
00002CDF  001C00            add [eax+eax],bl
00002CE2  0000              add [eax],al
00002CE4  B00A              mov al,0xa
00002CE6  0000              add [eax],al
00002CE8  7AEF              jpe 0x2cd9
00002CEA  FF                db 0xFF
00002CEB  FF13              call near [ebx]
00002CED  0000              add [eax],al
00002CEF  0000              add [eax],al
00002CF1  41                inc ecx
00002CF2  0E                push cs
00002CF3  088502420D05      or [ebp+0x50d4202],al
00002CF9  4F                dec edi
00002CFA  C50C04            lds ecx,[esp+eax]
00002CFD  0400              add al,0x0
00002CFF  001C00            add [eax+eax],bl
00002D02  0000              add [eax],al
00002D04  D00A              ror byte [edx],1
00002D06  0000              add [eax],al
00002D08  6E                outsb
00002D09  EF                out dx,eax
00002D0A  FF                db 0xFF
00002D0B  FF08              dec dword [eax]
00002D0D  0000              add [eax],al
00002D0F  0000              add [eax],al
00002D11  41                inc ecx
00002D12  0E                push cs
00002D13  088502420D05      or [ebp+0x50d4202],al
00002D19  44                inc esp
00002D1A  C50C04            lds ecx,[esp+eax]
00002D1D  0400              add al,0x0
00002D1F  001C00            add [eax+eax],bl
00002D22  0000              add [eax],al
00002D24  F00A00            lock or al,[eax]
00002D27  0056EF            add [esi-0x11],dl
00002D2A  FF                db 0xFF
00002D2B  FF0A              dec dword [edx]
00002D2D  0000              add [eax],al
00002D2F  0000              add [eax],al
00002D31  41                inc ecx
00002D32  0E                push cs
00002D33  088502420D05      or [ebp+0x50d4202],al
00002D39  46                inc esi
00002D3A  C50C04            lds ecx,[esp+eax]
00002D3D  0400              add al,0x0
00002D3F  001C00            add [eax+eax],bl
00002D42  0000              add [eax],al
00002D44  100B              adc [ebx],cl
00002D46  0000              add [eax],al
00002D48  40                inc eax
00002D49  EF                out dx,eax
00002D4A  FF                db 0xFF
00002D4B  FF21              jmp near [ecx]
00002D4D  0000              add [eax],al
00002D4F  0000              add [eax],al
00002D51  41                inc ecx
00002D52  0E                push cs
00002D53  088502420D05      or [ebp+0x50d4202],al
00002D59  5D                pop ebp
00002D5A  C50C04            lds ecx,[esp+eax]
00002D5D  0400              add al,0x0
00002D5F  001C00            add [eax+eax],bl
00002D62  0000              add [eax],al
00002D64  300B              xor [ebx],cl
00002D66  0000              add [eax],al
00002D68  42                inc edx
00002D69  EF                out dx,eax
00002D6A  FF                db 0xFF
00002D6B  FF0500000000      inc dword [0x0]
00002D71  41                inc ecx
00002D72  0E                push cs
00002D73  088502420D05      or [ebp+0x50d4202],al
00002D79  41                inc ecx
00002D7A  C50C04            lds ecx,[esp+eax]
00002D7D  0400              add al,0x0
00002D7F  001C00            add [eax+eax],bl
00002D82  0000              add [eax],al
00002D84  50                push eax
00002D85  0B00              or eax,[eax]
00002D87  0028              add [eax],ch
00002D89  EF                out dx,eax
00002D8A  FF                db 0xFF
00002D8B  FF0A              dec dword [edx]
00002D8D  0000              add [eax],al
00002D8F  0000              add [eax],al
00002D91  41                inc ecx
00002D92  0E                push cs
00002D93  088502420D05      or [ebp+0x50d4202],al
00002D99  46                inc esi
00002D9A  C50C04            lds ecx,[esp+eax]
00002D9D  0400              add al,0x0
00002D9F  001C00            add [eax+eax],bl
00002DA2  0000              add [eax],al
00002DA4  700B              jo 0x2db1
00002DA6  0000              add [eax],al
00002DA8  12EF              adc ch,bh
00002DAA  FF                db 0xFF
00002DAB  FF21              jmp near [ecx]
00002DAD  0000              add [eax],al
00002DAF  0000              add [eax],al
00002DB1  41                inc ecx
00002DB2  0E                push cs
00002DB3  088502420D05      or [ebp+0x50d4202],al
00002DB9  5D                pop ebp
00002DBA  C50C04            lds ecx,[esp+eax]
00002DBD  0400              add al,0x0
00002DBF  001C00            add [eax+eax],bl
00002DC2  0000              add [eax],al
00002DC4  90                nop
00002DC5  0B00              or eax,[eax]
00002DC7  0013              add [ebx],dl
00002DC9  EF                out dx,eax
00002DCA  FF                db 0xFF
00002DCB  FF08              dec dword [eax]
00002DCD  0000              add [eax],al
00002DCF  0000              add [eax],al
00002DD1  41                inc ecx
00002DD2  0E                push cs
00002DD3  088502420D05      or [ebp+0x50d4202],al
00002DD9  44                inc esp
00002DDA  C50C04            lds ecx,[esp+eax]
00002DDD  0400              add al,0x0
00002DDF  001C00            add [eax+eax],bl
00002DE2  0000              add [eax],al
00002DE4  B00B              mov al,0xb
00002DE6  0000              add [eax],al
00002DE8  FB                sti
00002DE9  EE                out dx,al
00002DEA  FF                db 0xFF
00002DEB  FF2E              jmp far [esi]
00002DED  0000              add [eax],al
00002DEF  0000              add [eax],al
00002DF1  41                inc ecx
00002DF2  0E                push cs
00002DF3  088502420D05      or [ebp+0x50d4202],al
00002DF9  6AC5              push byte -0x3b
00002DFB  0C04              or al,0x4
00002DFD  0400              add al,0x0
00002DFF  001C00            add [eax+eax],bl
00002E02  0000              add [eax],al
00002E04  D00B              ror byte [ebx],1
00002E06  0000              add [eax],al
00002E08  09EF              or edi,ebp
00002E0A  FF                db 0xFF
00002E0B  FF                db 0xFF
00002E0C  3E0000            add [ds:eax],al
00002E0F  0000              add [eax],al
00002E11  41                inc ecx
00002E12  0E                push cs
00002E13  088502420D05      or [ebp+0x50d4202],al
00002E19  7AC5              jpe 0x2de0
00002E1B  0C04              or al,0x4
00002E1D  0400              add al,0x0
00002E1F  001C00            add [eax+eax],bl
00002E22  0000              add [eax],al
00002E24  F00B00            lock or eax,[eax]
00002E27  0027              add [edi],ah
00002E29  EF                out dx,eax
00002E2A  FF                db 0xFF
00002E2B  FF                db 0xFF
00002E2C  3D00000000        cmp eax,0x0
00002E31  41                inc ecx
00002E32  0E                push cs
00002E33  088502420D05      or [ebp+0x50d4202],al
00002E39  79C5              jns 0x2e00
00002E3B  0C04              or al,0x4
00002E3D  0400              add al,0x0
00002E3F  001C00            add [eax+eax],bl
00002E42  0000              add [eax],al
00002E44  100C00            adc [eax+eax],cl
00002E47  0044EFFF          add [edi+ebp*8-0x1],al
00002E4B  FF21              jmp near [ecx]
00002E4D  0000              add [eax],al
00002E4F  0000              add [eax],al
00002E51  41                inc ecx
00002E52  0E                push cs
00002E53  088502420D05      or [ebp+0x50d4202],al
00002E59  5D                pop ebp
00002E5A  C50C04            lds ecx,[esp+eax]
00002E5D  0400              add al,0x0
00002E5F  001C00            add [eax+eax],bl
00002E62  0000              add [eax],al
00002E64  300C00            xor [eax+eax],cl
00002E67  0045EF            add [ebp-0x11],al
00002E6A  FF                db 0xFF
00002E6B  FF29              jmp far [ecx]
00002E6D  0000              add [eax],al
00002E6F  0000              add [eax],al
00002E71  41                inc ecx
00002E72  0E                push cs
00002E73  088502420D05      or [ebp+0x50d4202],al
00002E79  65C50C04          lds ecx,[gs:esp+eax]
00002E7D  0400              add al,0x0
00002E7F  001C00            add [eax+eax],bl
00002E82  0000              add [eax],al
00002E84  50                push eax
00002E85  0C00              or al,0x0
00002E87  004EEF            add [esi-0x11],cl
00002E8A  FF                db 0xFF
00002E8B  FF13              call near [ebx]
00002E8D  0000              add [eax],al
00002E8F  0000              add [eax],al
00002E91  41                inc ecx
00002E92  0E                push cs
00002E93  088502420D05      or [ebp+0x50d4202],al
00002E99  4F                dec edi
00002E9A  C50C04            lds ecx,[esp+eax]
00002E9D  0400              add al,0x0
00002E9F  001C00            add [eax+eax],bl
00002EA2  0000              add [eax],al
00002EA4  700C              jo 0x2eb2
00002EA6  0000              add [eax],al
00002EA8  41                inc ecx
00002EA9  EF                out dx,eax
00002EAA  FF                db 0xFF
00002EAB  FF30              push dword [eax]
00002EAD  0000              add [eax],al
00002EAF  0000              add [eax],al
00002EB1  41                inc ecx
00002EB2  0E                push cs
00002EB3  088502420D05      or [ebp+0x50d4202],al
00002EB9  6C                insb
00002EBA  C50C04            lds ecx,[esp+eax]
00002EBD  0400              add al,0x0
00002EBF  001C00            add [eax+eax],bl
00002EC2  0000              add [eax],al
00002EC4  90                nop
00002EC5  0C00              or al,0x0
00002EC7  0051EF            add [ecx-0x11],dl
00002ECA  FF                db 0xFF
00002ECB  FF08              dec dword [eax]
00002ECD  0000              add [eax],al
00002ECF  0000              add [eax],al
00002ED1  41                inc ecx
00002ED2  0E                push cs
00002ED3  088502420D05      or [ebp+0x50d4202],al
00002ED9  44                inc esp
00002EDA  C50C04            lds ecx,[esp+eax]
00002EDD  0400              add al,0x0
00002EDF  001C00            add [eax+eax],bl
00002EE2  0000              add [eax],al
00002EE4  B00C              mov al,0xc
00002EE6  0000              add [eax],al
00002EE8  38DF              cmp bh,bl
00002EEA  FF                db 0xFF
00002EEB  FF                db 0xFF
00002EEC  3F                aas
00002EED  0000              add [eax],al
00002EEF  0000              add [eax],al
00002EF1  41                inc ecx
00002EF2  0E                push cs
00002EF3  088502420D05      or [ebp+0x50d4202],al
00002EF9  7BC5              jpo 0x2ec0
00002EFB  0C04              or al,0x4
00002EFD  0400              add al,0x0
00002EFF  001C00            add [eax+eax],bl
00002F02  0000              add [eax],al
00002F04  D00C00            ror byte [eax+eax],1
00002F07  0057DF            add [edi-0x21],dl
00002F0A  FF                db 0xFF
00002F0B  FF1C00            call far [eax+eax]
00002F0E  0000              add [eax],al
00002F10  00410E            add [ecx+0xe],al
00002F13  088502420D05      or [ebp+0x50d4202],al
00002F19  58                pop eax
00002F1A  C50C04            lds ecx,[esp+eax]
00002F1D  0400              add al,0x0
00002F1F  0000              add [eax],al
00002F21  0000              add [eax],al
00002F23  00FF              add bh,bh
00002F25  FF01              inc dword [ecx]
00002F27  391B              cmp [ebx],ebx
00002F29  05F007003C        add eax,0x3c0007f0
00002F2E  05EE070078        add eax,0x780007ee
00002F33  05A60700C9        add eax,0xc90007a6
00002F38  0133              add [ebx],esi
00002F3A  DC07              fadd qword [edi]
00002F3C  00AF0205B807      add [edi+0x7b80502],ch
00002F42  00E8              add al,ch
00002F44  0205BC0700DE      add al,[0xde0007bc]
00002F4A  058D01CC07        add eax,0x7cc018d
00002F4F  00F2              add dl,dh
00002F51  06                push es
00002F52  05DC0700FE        add eax,0xfe0007dc
00002F57  06                push es
00002F58  05EE0700F3        add eax,0xf30007ee
00002F5D  07                pop es
00002F5E  050000FFFF        add eax,0xffff0000
00002F63  010C1B            add [ebx+ebx],ecx
00002F66  0500003405        add eax,0x5340000
00002F6B  3B00              cmp eax,[eax]
00002F6D  4D                dec ebp
00002F6E  050000FFFF        add eax,0xffff0000
00002F73  010C28            add [eax+ebp],ecx
00002F76  053A003305        add eax,0x533003a
00002F7B  0000              add [eax],al
00002F7D  4C                dec esp
00002F7E  050000FFFF        add eax,0xffff0000
00002F83  010C14            add [esp+edx],ecx
00002F86  0500003105        add eax,0x5310000
00002F8B  3800              cmp [eax],al
00002F8D  4A                dec edx
00002F8E  050000FFFF        add eax,0xffff0000
00002F93  010C28            add [eax+ebp],ecx
00002F96  053A003305        add eax,0x533003a
00002F9B  0000              add [eax],al
00002F9D  4C                dec esp
00002F9E  050000FFFF        add eax,0xffff0000
00002FA3  0108              add [eax],ecx
00002FA5  26052D003F05      es add eax,0x53f002d
00002FAB  0000              add [eax],al
00002FAD  FF                db 0xFF
00002FAE  FF01              inc dword [ecx]
00002FB0  0830              or [eax],dh
00002FB2  0542005405        add eax,0x5540042
00002FB7  0000              add [eax],al
00002FB9  0000              add [eax],al
00002FBB  00FF              add bh,bh
00002FBD  0029              add [ecx],ch
00002FBF  0121              add [ecx],esp
00002FC1  8501              test [ecx],eax
00002FC3  05AD0400BD        add eax,0xbd0004ad
00002FC8  01440000          add [eax+eax+0x0],eax
00002FCC  E80243C604        call 0x4c672d3
00002FD1  01CF              add edi,ecx
00002FD3  036600            add esp,[esi+0x0]
00002FD6  00C1              add cl,al
00002FD8  0405              add al,0x5
00002FDA  0000              add [eax],al
00002FDC  ED                in eax,dx
00002FDD  0446              add al,0x46
00002FDF  B504              mov ch,0x4
00002FE1  0001              add [ecx],al
00002FE3  0000              add [eax],al
00002FE5  0000              add [eax],al
00002FE7  00FF              add bh,bh
00002FE9  FF01              inc dword [ecx]
00002FEB  0830              or [eax],dh
00002FED  0542005405        add eax,0x5540042
00002FF2  0000              add [eax],al
00002FF4  0000              add [eax],al
00002FF6  0000              add [eax],al
00002FF8  0000              add [eax],al
00002FFA  0000              add [eax],al
00002FFC  0000              add [eax],al
00002FFE  0000              add [eax],al
00003000  FF                db 0xFF
00003001  FF                db 0xFF
00003002  FF                db 0xFF
00003003  FF5F8E            call far [edi-0x72]
00003006  0408              add al,0x8
00003008  0000              add [eax],al
0000300A  0000              add [eax],al
0000300C  FF                db 0xFF
0000300D  FF                db 0xFF
0000300E  FF                db 0xFF
0000300F  FF00              inc dword [eax]
00003011  0000              add [eax],al
00003013  0000              add [eax],al
00003015  0000              add [eax],al
00003017  0001              add [ecx],al
00003019  0000              add [eax],al
0000301B  0001              add [ecx],al
0000301D  0000              add [eax],al
0000301F  0001              add [ecx],al
00003021  0000              add [eax],al
00003023  00CE              add dh,cl
00003025  0100              add [eax],eax
00003027  0001              add [ecx],al
00003029  0000              add [eax],al
0000302B  00D8              add al,bl
0000302D  0100              add [eax],eax
0000302F  0001              add [ecx],al
00003031  0000              add [eax],al
00003033  00F5              add ch,dh
00003035  0100              add [eax],eax
00003037  000C00            add [eax+eax],cl
0000303A  0000              add [eax],al
0000303C  848704080D00      test [edi+0xd0804],al
00003042  0000              add [eax],al
00003044  C89E0408          enter 0x49e,0x8
00003048  0400              add al,0x0
0000304A  0000              add [eax],al
0000304C  6881040805        push dword 0x5080481
00003051  0000              add [eax],al
00003053  00BC8304080600    add [ebx+eax*4+0x60804],bh
0000305A  0000              add [eax],al
0000305C  1C82              sbb al,0x82
0000305E  0408              add al,0x8
00003060  0A00              or al,[eax]
00003062  0000              add [eax],al
00003064  6202              bound eax,[edx]
00003066  0000              add [eax],al
00003068  0B00              or eax,[eax]
0000306A  0000              add [eax],al
0000306C  1000              adc [eax],al
0000306E  0000              add [eax],al
00003070  1500000000        adc eax,0x0
00003075  0000              add [eax],al
00003077  0003              add [ebx],al
00003079  0000              add [eax],al
0000307B  00FC              add ah,bh
0000307D  B004              mov al,0x4
0000307F  0802              or [edx],al
00003081  0000              add [eax],al
00003083  009800000014      add [eax+0x14000000],bl
00003089  0000              add [eax],al
0000308B  0011              add [ecx],dl
0000308D  0000              add [eax],al
0000308F  0017              add [edi],dl
00003091  0000              add [eax],al
00003093  00EC              add ah,ch
00003095  860408            xchg al,[eax+ecx]
00003098  1100              adc [eax],eax
0000309A  0000              add [eax],al
0000309C  D486              aam 0x86
0000309E  0408              add al,0x8
000030A0  1200              adc al,[eax]
000030A2  0000              add [eax],al
000030A4  1800              sbb [eax],al
000030A6  0000              add [eax],al
000030A8  1300              adc eax,[eax]
000030AA  0000              add [eax],al
000030AC  0800              or [eax],al
000030AE  0000              add [eax],al
000030B0  FE                db 0xFE
000030B1  FF                db 0xFF
000030B2  FF6F54            jmp far [edi+0x54]
000030B5  860408            xchg al,[eax+ecx]
000030B8  FF                db 0xFF
000030B9  FF                db 0xFF
000030BA  FF6F03            jmp far [edi+0x3]
000030BD  0000              add [eax],al
000030BF  00F0              add al,dh
000030C1  FF                db 0xFF
000030C2  FF6F1E            jmp far [edi+0x1e]
000030C5  860408            xchg al,[eax+ecx]
000030C8  0000              add [eax],al
000030CA  0000              add [eax],al
000030CC  0000              add [eax],al
000030CE  0000              add [eax],al
000030D0  0000              add [eax],al
000030D2  0000              add [eax],al
000030D4  0000              add [eax],al
000030D6  0000              add [eax],al
000030D8  0000              add [eax],al
000030DA  0000              add [eax],al
000030DC  0000              add [eax],al
000030DE  0000              add [eax],al
000030E0  0000              add [eax],al
000030E2  0000              add [eax],al
000030E4  0000              add [eax],al
000030E6  0000              add [eax],al
000030E8  0000              add [eax],al
000030EA  0000              add [eax],al
000030EC  0000              add [eax],al
000030EE  0000              add [eax],al
000030F0  0000              add [eax],al
000030F2  0000              add [eax],al
000030F4  0000              add [eax],al
000030F6  0000              add [eax],al
000030F8  0000              add [eax],al
000030FA  0000              add [eax],al
000030FC  18B004080000      sbb [eax+0x804],dh
00003102  0000              add [eax],al
00003104  0000              add [eax],al
00003106  0000              add [eax],al
00003108  D6                salc
00003109  870408            xchg eax,[eax+ecx]
0000310C  E687              out 0x87,al
0000310E  0408              add al,0x8
00003110  F6870408068804    test byte [edi+0x88060804],0x4
00003117  0816              or [esi],dl
00003119  880408            mov [eax+ecx],al
0000311C  26880408          mov [es:eax+ecx],al
00003120  36880408          mov [ss:eax+ecx],al
00003124  46                inc esi
00003125  880408            mov [eax+ecx],al
00003128  56                push esi
00003129  880408            mov [eax+ecx],al
0000312C  66880408          o16 mov [eax+ecx],al
00003130  7688              jna 0x30ba
00003132  0408              add al,0x8
00003134  868804089688      xchg cl,[eax+0x88960804]
0000313A  0408              add al,0x8
0000313C  A6                cmpsb
0000313D  880408            mov [eax+ecx],al
00003140  B688              mov dh,0x88
00003142  0408              add al,0x8
00003144  C6                db 0xC6
00003145  880408            mov [eax+ecx],al
00003148  D6                salc
00003149  880408            mov [eax+ecx],al
0000314C  E688              out 0x88,al
0000314E  0408              add al,0x8
00003150  F6                db 0xF6
00003151  880408            mov [eax+ecx],al
00003154  0000              add [eax],al
00003156  0000              add [eax],al
00003158  0000              add [eax],al
0000315A  0000              add [eax],al
0000315C  47                inc edi
0000315D  43                inc ebx
0000315E  43                inc ebx
0000315F  3A20              cmp ah,[eax]
00003161  285562            sub [ebp+0x62],dl
00003164  756E              jnz 0x31d4
00003166  7475              jz 0x31dd
00003168  20342E            and [esi+ebp],dh
0000316B  342E              xor al,0x2e
0000316D  332D34756275      xor ebp,[0x75627534]
00003173  6E                outsb
00003174  7475              jz 0x31eb
00003176  352920342E        xor eax,0x2e342029
0000317B  342E              xor al,0x2e
0000317D  3300              xor eax,[eax]
0000317F  47                inc edi
00003180  43                inc ebx
00003181  43                inc ebx
00003182  3A20              cmp ah,[eax]
00003184  28474E            sub [edi+0x4e],al
00003187  55                push ebp
00003188  2920              sub [eax],esp
0000318A  342E              xor al,0x2e
0000318C  382E              cmp [esi],ch
0000318E  3100              xor [eax],eax
00003190  1C00              sbb al,0x0
00003192  0000              add [eax],al
00003194  0200              add al,[eax]
00003196  0000              add [eax],al
00003198  0000              add [eax],al
0000319A  0400              add al,0x0
0000319C  0000              add [eax],al
0000319E  0000              add [eax],al
000031A0  008904082200      add [ecx+0x220804],cl
000031A6  0000              add [eax],al
000031A8  0000              add [eax],al
000031AA  0000              add [eax],al
000031AC  0000              add [eax],al
000031AE  0000              add [eax],al
000031B0  1C00              sbb al,0x0
000031B2  0000              add [eax],al
000031B4  0200              add al,[eax]
000031B6  0E                push cs
000031B7  0100              add [eax],eax
000031B9  000400            add [eax+eax],al
000031BC  0000              add [eax],al
000031BE  0000              add [eax],al
000031C0  309E04086A00      xor [esi+0x6a0804],bl
000031C6  0000              add [eax],al
000031C8  0000              add [eax],al
000031CA  0000              add [eax],al
000031CC  0000              add [eax],al
000031CE  0000              add [eax],al
000031D0  2100              and [eax],eax
000031D2  0000              add [eax],al
000031D4  0200              add al,[eax]
000031D6  810000008D00      add dword [eax],0x8d0000
000031DC  0000              add [eax],al
000031DE  7500              jnz 0x31e0
000031E0  0000              add [eax],al
000031E2  5F                pop edi
000031E3  49                dec ecx
000031E4  4F                dec edi
000031E5  5F                pop edi
000031E6  7374              jnc 0x325c
000031E8  64696E5F75736564  imul ebp,[fs:esi+0x5f],dword 0x64657375
000031F0  0000              add [eax],al
000031F2  0000              add [eax],al
000031F4  0036              add [esi],dh
000031F6  0000              add [eax],al
000031F8  0002              add [edx],al
000031FA  000E              add [esi],cl
000031FC  0100              add [eax],eax
000031FE  0013              add [ebx],dl
00003200  0100              add [eax],eax
00003202  003E              add [esi],bh
00003204  0000              add [eax],al
00003206  005F5F            add [edi+0x5f],bl
00003209  6C                insb
0000320A  6962635F637375    imul esp,[edx+0x63],dword 0x7573635f
00003211  5F                pop edi
00003212  66696E690053      imul bp,[esi+0x69],word 0x5300
00003218  0000              add [eax],al
0000321A  005F5F            add [edi+0x5f],bl
0000321D  6C                insb
0000321E  6962635F637375    imul esp,[edx+0x63],dword 0x7573635f
00003225  5F                pop edi
00003226  696E6974000000    imul ebp,[esi+0x69],dword 0x74
0000322D  0000              add [eax],al
0000322F  7D00              jnl 0x3231
00003231  0000              add [eax],al
00003233  0200              add al,[eax]
00003235  0000              add [eax],al
00003237  0000              add [eax],al
00003239  0401              add al,0x1
0000323B  0000              add [eax],al
0000323D  0000              add [eax],al
0000323F  008904082289      add [ecx+0x89220804],cl
00003245  0408              add al,0x8
00003247  2E2E2F            cs das
0000324A  7379              jnc 0x32c5
0000324C  7364              jnc 0x32b2
0000324E  657073            gs jo 0x32c4
00003251  2F                das
00003252  693338362F65      imul esi,[ebx],dword 0x652f3638
00003258  6C                insb
00003259  662F              o16 das
0000325B  7374              jnc 0x32d1
0000325D  61                popa
0000325E  7274              jc 0x32d4
00003260  2E53              cs push ebx
00003262  002F              add [edi],ch
00003264  686F6D652F        push dword 0x2f656d6f
00003269  7069              jo 0x32d4
0000326B  657272            gs jc 0x32e0
0000326E  652F              gs das
00003270  42                inc edx
00003271  7572              jnz 0x32e5
00003273  6561              gs popa
00003275  752F              jnz 0x32a6
00003277  6865616465        push dword 0x65646165
0000327C  7273              jc 0x32f1
0000327E  2D676C6962        sub eax,0x62696c67
00003283  632D666F722D      arpl [0x2d726f66],bp
00003289  6C                insb
0000328A  696E75782F676C    imul ebp,[esi+0x75],dword 0x6c672f78
00003291  6962632D322E31    imul esp,[edx+0x63],dword 0x312e322d
00003298  322E              xor ch,[esi]
0000329A  322F              xor ch,[edi]
0000329C  637375            arpl [ebx+0x75],si
0000329F  00474E            add [edi+0x4e],al
000032A2  55                push ebp
000032A3  204153            and [ecx+0x53],al
000032A6  2032              and [edx],dh
000032A8  2E3230            xor dh,[cs:eax]
000032AB  2E3100            xor [cs:eax],eax
000032AE  018089000000      add [eax+0x89],eax
000032B4  0200              add al,[eax]
000032B6  1400              adc al,0x0
000032B8  0000              add [eax],al
000032BA  0401              add al,0x1
000032BC  8E00              mov es,[eax]
000032BE  0000              add [eax],al
000032C0  01CD              add ebp,ecx
000032C2  0000              add [eax],al
000032C4  004300            add [ebx+0x0],al
000032C7  0000              add [eax],al
000032C9  2489              and al,0x89
000032CB  0408              add al,0x8
000032CD  2489              and al,0x89
000032CF  0408              add al,0x8
000032D1  5B                pop ebx
000032D2  0000              add [eax],al
000032D4  0002              add [edx],al
000032D6  0108              add [eax],ecx
000032D8  800000            add byte [eax],0x0
000032DB  0002              add [edx],al
000032DD  0207              add al,[edi]
000032DF  0000              add [eax],al
000032E1  0000              add [eax],al
000032E3  020407            add al,[edi+eax]
000032E6  360000            add [ss:eax],al
000032E9  0002              add [edx],al
000032EB  0407              add al,0x7
000032ED  3100              xor [eax],eax
000032EF  0000              add [eax],al
000032F1  0201              add al,[ecx]
000032F3  06                push es
000032F4  82                db 0x82
000032F5  0000              add [eax],al
000032F7  0002              add [edx],al
000032F9  020513000000      add al,[0x13]
000032FF  030405696E7400    add eax,[eax+0x746e69]
00003306  0208              add cl,[eax]
00003308  059A000000        add eax,0x9a
0000330D  0208              add cl,[eax]
0000330F  07                pop es
00003310  2C00              sub al,0x0
00003312  0000              add [eax],al
00003314  0204059F000000    add al,[eax+0x9f]
0000331B  0404              add al,0x4
0000331D  07                pop es
0000331E  0201              add al,[ecx]
00003320  06                push es
00003321  8900              mov [eax],eax
00003323  0000              add [eax],al
00003325  051D000000        add eax,0x1d
0000332A  0119              add [ecx],ebx
0000332C  8700              xchg eax,[eax]
0000332E  0000              add [eax],al
00003330  010503E89E04      add [0x49ee803],eax
00003336  0806              or [esi],al
00003338  4F                dec edi
00003339  0000              add [eax],al
0000333B  0000              add [eax],al
0000333D  0F0100            sgdt [eax]
00003340  0002              add [edx],al
00003342  005F00            add [edi+0x0],bl
00003345  0000              add [eax],al
00003347  0401              add al,0x1
00003349  8E00              mov es,[eax]
0000334B  0000              add [eax],al
0000334D  01C9              add ecx,ecx
0000334F  0000              add [eax],al
00003351  004300            add [ebx+0x0],al
00003354  0000              add [eax],al
00003356  309E04089A9E      xor [esi+0x9e9a0804],bl
0000335C  0408              add al,0x8
0000335E  82                db 0x82
0000335F  0000              add [eax],al
00003361  0002              add [edx],al
00003363  0405              add al,0x5
00003365  696E740003AD00    imul ebp,[esi+0x74],dword 0xad0300
0000336C  0000              add [eax],al
0000336E  02D3              add dl,bl
00003370  37                aaa
00003371  0000              add [eax],al
00003373  000404            add [esp+eax],al
00003376  07                pop es
00003377  360000            add [ss:eax],al
0000337A  000501FD0000      add [0xfd01],al
00003380  0001              add [ecx],al
00003382  830130            add dword [ecx],byte +0x30
00003385  9E                sahf
00003386  0408              add al,0x8
00003388  359E040800        xor eax,0x8049e
0000338D  0000              add [eax],al
0000338F  0006              add [esi],al
00003391  01B900000001      add [ecx+0x1000000],edi
00003397  6901409E0408      imul eax,[ecx],dword 0x8049e40
0000339D  9A9E04082C0000    call 0x0:0x2c08049e
000033A4  00B900000007      add [ecx+0x7000000],bh
000033AA  B400              mov ah,0x0
000033AC  0000              add [eax],al
000033AE  016925            add [ecx+0x25],ebp
000033B1  0000              add [eax],al
000033B3  0002              add [edx],al
000033B5  91                xchg eax,ecx
000033B6  0007              add [edi],al
000033B8  0D01000001        or eax,0x1000001
000033BD  69B9000000029104  imul edi,[ecx+0x2000000],dword 0xa8070491
         -07A8
000033C7  0000              add [eax],al
000033C9  0001              add [ecx],al
000033CB  69B9000000029108  imul edi,[ecx+0x2000000],dword 0xe7080891
         -08E7
000033D5  0000              add [eax],al
000033D7  0001              add [ecx],al
000033D9  7ACC              jpe 0x33a7
000033DB  0000              add [eax],al
000033DD  0009              add [ecx],cl
000033DF  59                pop ecx
000033E0  9E                sahf
000033E1  0408              add al,0x8
000033E3  92                xchg eax,edx
000033E4  9E                sahf
000033E5  0408              add al,0x8
000033E7  0A6900            or ch,[ecx+0x0]
000033EA  017B2C            add [ebx+0x2c],edi
000033ED  0000              add [eax],al
000033EF  005800            add [eax+0x0],bl
000033F2  0000              add [eax],al
000033F4  0000              add [eax],al
000033F6  0B04BF            or eax,[edi+edi*4]
000033F9  0000              add [eax],al
000033FB  000B              add [ebx],cl
000033FD  04C5              add al,0xc5
000033FF  0000              add [eax],al
00003401  000401            add [ecx+eax],al
00003404  06                push es
00003405  8900              mov [eax],eax
00003407  0000              add [eax],al
00003409  0C2C              or al,0x2c
0000340B  0000              add [eax],al
0000340D  000DF2000000      add [0xf2],cl
00003413  DC00              fadd qword [eax]
00003415  0000              add [eax],al
00003417  0E                push cs
00003418  000F              add [edi],cl
0000341A  01F2              add edx,esi
0000341C  0000              add [eax],al
0000341E  0010              add [eax],dl
00003420  2500000010        and eax,0x10000000
00003425  B900000010        mov ecx,0x10000000
0000342A  B900000000        mov ecx,0x0
0000342F  0B04DC            or eax,[esp+ebx*8]
00003432  0000              add [eax],al
00003434  0011              add [ecx],dl
00003436  D400              aam 0x0
00003438  0000              add [eax],al
0000343A  013B              add [ebx],edi
0000343C  D100              rol dword [eax],1
0000343E  0000              add [eax],al
00003440  0101              add [ecx],eax
00003442  11EC              adc esp,ebp
00003444  0000              add [eax],al
00003446  0001              add [ecx],al
00003448  3DD1000000        cmp eax,0xd1
0000344D  0101              add [ecx],eax
0000344F  0001              add [ecx],al
00003451  1100              adc [eax],eax
00003453  1006              adc [esi],al
00003455  1101              adc [ecx],eax
00003457  1201              adc al,[ecx]
00003459  0308              add ecx,[eax]
0000345B  1B08              sbb ecx,[eax]
0000345D  2508130500        and eax,0x51308
00003462  0000              add [eax],al
00003464  0111              add [ecx],edx
00003466  01250E130B03      add [0x30b130e],esp
0000346C  0E                push cs
0000346D  1B0E              sbb ecx,[esi]
0000346F  1101              adc [ecx],eax
00003471  1201              adc al,[ecx]
00003473  1006              adc [esi],al
00003475  0000              add [eax],al
00003477  022400            add ah,[eax+eax]
0000347A  0B0B              or ecx,[ebx]
0000347C  3E0B03            or eax,[ds:ebx]
0000347F  0E                push cs
00003480  0000              add [eax],al
00003482  032400            add esp,[eax+eax]
00003485  0B0B              or ecx,[ebx]
00003487  3E0B03            or eax,[ds:ebx]
0000348A  0800              or [eax],al
0000348C  000424            add [esp],al
0000348F  000B              add [ebx],cl
00003491  0B3E              or edi,[esi]
00003493  0B00              or eax,[eax]
00003495  00053400030E      add [0xe030034],al
0000349B  3A0B              cmp cl,[ebx]
0000349D  3B0B              cmp ecx,[ebx]
0000349F  49                dec ecx
000034A0  133F              adc edi,[edi]
000034A2  0C02              or al,0x2
000034A4  0A00              or al,[eax]
000034A6  0006              add [esi],al
000034A8  26004913          add [es:ecx+0x13],cl
000034AC  0000              add [eax],al
000034AE  0001              add [ecx],al
000034B0  1101              adc [ecx],eax
000034B2  250E130B03        and eax,0x30b130e
000034B7  0E                push cs
000034B8  1B0E              sbb ecx,[esi]
000034BA  1101              adc [ecx],eax
000034BC  1201              adc al,[ecx]
000034BE  1006              adc [esi],al
000034C0  0000              add [eax],al
000034C2  022400            add ah,[eax+eax]
000034C5  0B0B              or ecx,[ebx]
000034C7  3E0B03            or eax,[ds:ebx]
000034CA  0800              or [eax],al
000034CC  0003              add [ebx],al
000034CE  16                push ss
000034CF  0003              add [ebx],al
000034D1  0E                push cs
000034D2  3A0B              cmp cl,[ebx]
000034D4  3B0B              cmp ecx,[ebx]
000034D6  49                dec ecx
000034D7  1300              adc eax,[eax]
000034D9  000424            add [esp],al
000034DC  000B              add [ebx],cl
000034DE  0B3E              or edi,[esi]
000034E0  0B03              or eax,[ebx]
000034E2  0E                push cs
000034E3  0000              add [eax],al
000034E5  052E003F0C        add eax,0xc3f002e
000034EA  030E              add ecx,[esi]
000034EC  3A0B              cmp cl,[ebx]
000034EE  3B0B              cmp ecx,[ebx]
000034F0  27                daa
000034F1  0C11              or al,0x11
000034F3  0112              add [edx],edx
000034F5  014006            add [eax+0x6],eax
000034F8  0000              add [eax],al
000034FA  06                push es
000034FB  2E013F            add [cs:edi],edi
000034FE  0C03              or al,0x3
00003500  0E                push cs
00003501  3A0B              cmp cl,[ebx]
00003503  3B0B              cmp ecx,[ebx]
00003505  27                daa
00003506  0C11              or al,0x11
00003508  0112              add [edx],edx
0000350A  014006            add [eax+0x6],eax
0000350D  0113              add [ebx],edx
0000350F  0000              add [eax],al
00003511  07                pop es
00003512  0500030E3A        add eax,0x3a0e0300
00003517  0B3B              or edi,[ebx]
00003519  0B4913            or ecx,[ecx+0x13]
0000351C  020A              add cl,[edx]
0000351E  0000              add [eax],al
00003520  083400            or [eax+eax],dh
00003523  030E              add ecx,[esi]
00003525  3A0B              cmp cl,[ebx]
00003527  3B0B              cmp ecx,[ebx]
00003529  49                dec ecx
0000352A  1300              adc eax,[eax]
0000352C  0009              add [ecx],cl
0000352E  0B01              or eax,[ecx]
00003530  1101              adc [ecx],eax
00003532  1201              adc al,[ecx]
00003534  0000              add [eax],al
00003536  0A3400            or dh,[eax+eax]
00003539  0308              add ecx,[eax]
0000353B  3A0B              cmp cl,[ebx]
0000353D  3B0B              cmp ecx,[ebx]
0000353F  49                dec ecx
00003540  1302              adc eax,[edx]
00003542  06                push es
00003543  0000              add [eax],al
00003545  0B0F              or ecx,[edi]
00003547  000B              add [ebx],cl
00003549  0B4913            or ecx,[ecx+0x13]
0000354C  0000              add [eax],al
0000354E  0C26              or al,0x26
00003550  004913            add [ecx+0x13],cl
00003553  0000              add [eax],al
00003555  0D01014913        or eax,0x13490101
0000355A  0113              add [ebx],edx
0000355C  0000              add [eax],al
0000355E  0E                push cs
0000355F  2100              and [eax],eax
00003561  0000              add [eax],al
00003563  0F1501            unpckhps xmm0,[ecx]
00003566  27                daa
00003567  0C01              or al,0x1
00003569  1300              adc eax,[eax]
0000356B  0010              add [eax],dl
0000356D  0500491300        add eax,0x134900
00003572  0011              add [ecx],dl
00003574  3400              xor al,0x0
00003576  030E              add ecx,[esi]
00003578  3A0B              cmp cl,[ebx]
0000357A  3B0B              cmp ecx,[ebx]
0000357C  49                dec ecx
0000357D  133F              adc edi,[edi]
0000357F  0C3C              or al,0x3c
00003581  0C00              or al,0x0
00003583  0000              add [eax],al
00003585  57                push edi
00003586  0000              add [eax],al
00003588  0002              add [edx],al
0000358A  0032              add [edx],dh
0000358C  0000              add [eax],al
0000358E  0001              add [ecx],al
00003590  01FB              add ebx,edi
00003592  0E                push cs
00003593  0D00010101        or eax,0x1010100
00003598  0100              add [eax],eax
0000359A  0000              add [eax],al
0000359C  0100              add [eax],eax
0000359E  0001              add [ecx],al
000035A0  2E2E2F            cs das
000035A3  7379              jnc 0x361e
000035A5  7364              jnc 0x360b
000035A7  657073            gs jo 0x361d
000035AA  2F                das
000035AB  693338362F65      imul esi,[ebx],dword 0x652f3638
000035B1  6C                insb
000035B2  660000            o16 add [eax],al
000035B5  7374              jnc 0x362b
000035B7  61                popa
000035B8  7274              jc 0x362e
000035BA  2E53              cs push ebx
000035BC  0001              add [ecx],al
000035BE  0000              add [eax],al
000035C0  0000              add [eax],al
000035C2  0502008904        add eax,0x4890002
000035C7  0803              or [ebx],al
000035C9  C00001            rol byte [eax],0x1
000035CC  3321              xor esp,[ecx]
000035CE  343D              xor al,0x3d
000035D0  2522031820        and eax,0x20180322
000035D5  59                pop ecx
000035D6  5A                pop edx
000035D7  2122              and [edx],esp
000035D9  5C                pop esp
000035DA  5B                pop ebx
000035DB  0201              add al,[ecx]
000035DD  0001              add [ecx],al
000035DF  0123              add [ebx],esp
000035E1  0000              add [eax],al
000035E3  0002              add [edx],al
000035E5  001D00000001      add [0x1000000],bl
000035EB  01FB              add ebx,edi
000035ED  0E                push cs
000035EE  0D00010101        or eax,0x1010100
000035F3  0100              add [eax],eax
000035F5  0000              add [eax],al
000035F7  0100              add [eax],eax
000035F9  0001              add [ecx],al
000035FB  00696E            add [ecx+0x6e],ch
000035FE  69742E6300000000  imul esi,[esi+ebp+0x63],dword 0x0
00003606  007B00            add [ebx+0x0],bh
00003609  0000              add [eax],al
0000360B  0200              add al,[eax]
0000360D  57                push edi
0000360E  0000              add [eax],al
00003610  0001              add [ecx],al
00003612  01FB              add ebx,edi
00003614  0E                push cs
00003615  0D00010101        or eax,0x1010100
0000361A  0100              add [eax],eax
0000361C  0000              add [eax],al
0000361E  0100              add [eax],eax
00003620  0001              add [ecx],al
00003622  2F                das
00003623  7573              jnz 0x3698
00003625  722F              jc 0x3656
00003627  6C                insb
00003628  69622F6763632F    imul esp,[edx+0x2f],dword 0x2f636367
0000362F  693438362D6C69    imul esi,[eax+edi],dword 0x696c2d36
00003636  6E                outsb
00003637  7578              jnz 0x36b1
00003639  2D676E752F        sub eax,0x2f756e67
0000363E  342E              xor al,0x2e
00003640  342E              xor al,0x2e
00003642  332F              xor ebp,[edi]
00003644  696E636C756465    imul ebp,[esi+0x63],dword 0x6564756c
0000364B  0000              add [eax],al
0000364D  656C              gs insb
0000364F  662D696E          sub ax,0x6e69
00003653  69742E6300000000  imul esi,[esi+ebp+0x63],dword 0x0
0000365B  7374              jnc 0x36d1
0000365D  646465662E680001  cs push word 0x100
00003665  0000              add [eax],al
00003667  0000              add [eax],al
00003669  0502309E04        add eax,0x49e3002
0000366E  0803              or [ebx],al
00003670  830101            add dword [ecx],byte +0x1
00003673  44                inc esp
00003674  035EC8            add ebx,[esi-0x38]
00003677  030E              add ecx,[esi]
00003679  083C5B            or [ebx+ebx*2],bh
0000367C  086708            or [edi+0x8],ah
0000367F  9D                popf
00003680  7602              jna 0x3684
00003682  0800              or [eax],al
00003684  0101              add [ecx],eax
00003686  0000              add [eax],al
00003688  1000              adc [eax],al
0000368A  0000              add [eax],al
0000368C  FF                db 0xFF
0000368D  FF                db 0xFF
0000368E  FF                db 0xFF
0000368F  FF01              inc dword [ecx]
00003691  0001              add [ecx],al
00003693  7C08              jl 0x369d
00003695  0C04              or al,0x4
00003697  0488              add al,0x88
00003699  0100              add [eax],eax
0000369B  001400            add [eax+eax],dl
0000369E  0000              add [eax],al
000036A0  0000              add [eax],al
000036A2  0000              add [eax],al
000036A4  309E04080500      xor [esi+0x50804],bl
000036AA  0000              add [eax],al
000036AC  41                inc ecx
000036AD  0E                push cs
000036AE  084285            or [edx-0x7b],al
000036B1  020D051C0000      add cl,[0x1c05]
000036B7  0000              add [eax],al
000036B9  0000              add [eax],al
000036BB  00409E            add [eax-0x62],al
000036BE  0408              add al,0x8
000036C0  5A                pop edx
000036C1  0000              add [eax],al
000036C3  00410E            add [ecx+0xe],al
000036C6  084285            or [edx-0x7b],al
000036C9  020D054E8305      add cl,[0x5834e05]
000036CF  860487            xchg al,[edi+eax*4]
000036D2  0300              add eax,[eax]
000036D4  7368              jnc 0x373e
000036D6  6F                outsd
000036D7  7274              jc 0x374d
000036D9  20756E            and [ebp+0x6e],dh
000036DC  7369              jnc 0x3747
000036DE  676E              a16 outsb
000036E0  656420696E        and [fs:ecx+0x6e],ch
000036E5  7400              jz 0x36e7
000036E7  7368              jnc 0x3751
000036E9  6F                outsd
000036EA  7274              jc 0x3760
000036EC  20696E            and [ecx+0x6e],ch
000036EF  7400              jz 0x36f1
000036F1  5F                pop edi
000036F2  49                dec ecx
000036F3  4F                dec edi
000036F4  5F                pop edi
000036F5  7374              jnc 0x376b
000036F7  64696E5F75736564  imul ebp,[fs:esi+0x5f],dword 0x64657375
000036FF  006C6F6E          add [edi+ebp*2+0x6e],ch
00003703  67206C6F          and [si+0x6f],ch
00003707  6E                outsb
00003708  6720756E          and [di+0x6e],dh
0000370C  7369              jnc 0x3777
0000370E  676E              a16 outsb
00003710  656420696E        and [fs:ecx+0x6e],ch
00003715  7400              jz 0x3717
00003717  2F                das
00003718  686F6D652F        push dword 0x2f656d6f
0000371D  7069              jo 0x3788
0000371F  657272            gs jc 0x3794
00003722  652F              gs das
00003724  42                inc edx
00003725  7572              jnz 0x3799
00003727  6561              gs popa
00003729  752F              jnz 0x375a
0000372B  6865616465        push dword 0x65646165
00003730  7273              jc 0x37a5
00003732  2D676C6962        sub eax,0x62696c67
00003737  632D666F722D      arpl [0x2d726f66],bp
0000373D  6C                insb
0000373E  696E75782F676C    imul ebp,[esi+0x75],dword 0x6c672f78
00003745  6962632D322E31    imul esp,[edx+0x63],dword 0x312e322d
0000374C  322E              xor ch,[esi]
0000374E  322F              xor ch,[edi]
00003750  637375            arpl [ebx+0x75],si
00003753  00756E            add [ebp+0x6e],dh
00003756  7369              jnc 0x37c1
00003758  676E              a16 outsb
0000375A  6564206368        and [fs:ebx+0x68],ah
0000375F  61                popa
00003760  7200              jc 0x3762
00003762  47                inc edi
00003763  4E                dec esi
00003764  55                push ebp
00003765  204320            and [ebx+0x20],al
00003768  342E              xor al,0x2e
0000376A  342E              xor al,0x2e
0000376C  3300              xor eax,[eax]
0000376E  6C                insb
0000376F  6F                outsd
00003770  6E                outsb
00003771  67206C6F          and [si+0x6f],ch
00003775  6E                outsb
00003776  6720696E          and [bx+di+0x6e],ch
0000377A  7400              jz 0x377c
0000377C  656E              gs outsb
0000377E  7670              jna 0x37f0
00003780  007369            add [ebx+0x69],dh
00003783  7A65              jpe 0x37ea
00003785  5F                pop edi
00003786  7400              jz 0x3788
00003788  61                popa
00003789  7267              jc 0x37f2
0000378B  6300              arpl [eax],ax
0000378D  5F                pop edi
0000378E  5F                pop edi
0000378F  6C                insb
00003790  6962635F637375    imul esp,[edx+0x63],dword 0x7573635f
00003797  5F                pop edi
00003798  696E697400656C    imul ebp,[esi+0x69],dword 0x6c650074
0000379F  662D696E          sub ax,0x6e69
000037A3  69742E63005F5F69  imul esi,[esi+ebp+0x63],dword 0x695f5f00
000037AB  6E                outsb
000037AC  69745F6172726179  imul esi,[edi+ebx*2+0x61],dword 0x79617272
000037B4  5F                pop edi
000037B5  7374              jnc 0x382b
000037B7  61                popa
000037B8  7274              jc 0x382e
000037BA  007369            add [ebx+0x69],dh
000037BD  7A65              jpe 0x3824
000037BF  005F5F            add [edi+0x5f],bl
000037C2  696E69745F6172    imul ebp,[esi+0x69],dword 0x72615f74
000037C9  7261              jc 0x382c
000037CB  795F              jns 0x382c
000037CD  656E              gs outsb
000037CF  64005F5F          add [fs:edi+0x5f],bl
000037D3  6C                insb
000037D4  6962635F637375    imul esp,[edx+0x63],dword 0x7573635f
000037DB  5F                pop edi
000037DC  66696E690061      imul bp,[esi+0x69],word 0x6100
000037E2  7267              jc 0x384b
000037E4  7600              jna 0x37e6
000037E6  0000              add [eax],al
000037E8  0000              add [eax],al
000037EA  0100              add [eax],eax
000037EC  0000              add [eax],al
000037EE  0200              add al,[eax]
000037F0  7404              jz 0x37f6
000037F2  0100              add [eax],eax
000037F4  0000              add [eax],al
000037F6  0300              add eax,[eax]
000037F8  0000              add [eax],al
000037FA  0200              add al,[eax]
000037FC  7408              jz 0x3806
000037FE  0300              add eax,[eax]
00003800  0000              add [eax],al
00003802  0500000002        add eax,0x2000000
00003807  007508            add [ebp+0x8],dh
0000380A  0000              add [eax],al
0000380C  0000              add [eax],al
0000380E  0000              add [eax],al
00003810  0000              add [eax],al
00003812  1000              adc [eax],al
00003814  0000              add [eax],al
00003816  1100              adc [eax],eax
00003818  0000              add [eax],al
0000381A  0200              add al,[eax]
0000381C  7404              jz 0x3822
0000381E  1100              adc [eax],eax
00003820  0000              add [eax],al
00003822  1300              adc eax,[eax]
00003824  0000              add [eax],al
00003826  0200              add al,[eax]
00003828  7408              jz 0x3832
0000382A  1300              adc eax,[eax]
0000382C  0000              add [eax],al
0000382E  6A00              push byte +0x0
00003830  0000              add [eax],al
00003832  0200              add al,[eax]
00003834  7508              jnz 0x383e
00003836  0000              add [eax],al
00003838  0000              add [eax],al
0000383A  0000              add [eax],al
0000383C  0000              add [eax],al
0000383E  40                inc eax
0000383F  0000              add [eax],al
00003841  006700            add [edi+0x0],ah
00003844  0000              add [eax],al
00003846  0100              add [eax],eax
00003848  56                push esi
00003849  0000              add [eax],al
0000384B  0000              add [eax],al
0000384D  0000              add [eax],al
0000384F  0000              add [eax],al
00003851  002E              add [esi],ch
00003853  7379              jnc 0x38ce
00003855  6D                insd
00003856  7461              jz 0x38b9
00003858  6200              bound eax,[eax]
0000385A  2E7374            cs jnc 0x38d1
0000385D  7274              jc 0x38d3
0000385F  61                popa
00003860  6200              bound eax,[eax]
00003862  2E7368            cs jnc 0x38cd
00003865  7374              jnc 0x38db
00003867  7274              jc 0x38dd
00003869  61                popa
0000386A  6200              bound eax,[eax]
0000386C  2E696E7465727000  imul ebp,[cs:esi+0x74],dword 0x707265
00003874  2E6E              cs outsb
00003876  6F                outsd
00003877  7465              jz 0x38de
00003879  2E41              cs inc ecx
0000387B  42                inc edx
0000387C  49                dec ecx
0000387D  2D74616700        sub eax,0x676174
00003882  2E6861736800      cs push dword 0x687361
00003888  2E64796E          fs jns 0x38fa
0000388C  7379              jnc 0x3907
0000388E  6D                insd
0000388F  002E              add [esi],ch
00003891  64796E            fs jns 0x3902
00003894  7374              jnc 0x390a
00003896  7200              jc 0x3898
00003898  2E676E            cs a16 outsb
0000389B  752E              jnz 0x38cb
0000389D  7665              jna 0x3904
0000389F  7273              jc 0x3914
000038A1  696F6E002E676E    imul ebp,[edi+0x6e],dword 0x6e672e00
000038A8  752E              jnz 0x38d8
000038AA  7665              jna 0x3911
000038AC  7273              jc 0x3921
000038AE  696F6E5F72002E    imul ebp,[edi+0x6e],dword 0x2e00725f
000038B5  7265              jc 0x391c
000038B7  6C                insb
000038B8  2E64796E          fs jns 0x392a
000038BC  002E              add [esi],ch
000038BE  7265              jc 0x3925
000038C0  6C                insb
000038C1  2E706C            cs jo 0x3930
000038C4  7400              jz 0x38c6
000038C6  2E696E6974002E74  imul ebp,[cs:esi+0x69],dword 0x742e0074
000038CE  657874            gs js 0x3945
000038D1  002E              add [esi],ch
000038D3  66696E69002E      imul bp,[esi+0x69],word 0x2e00
000038D9  726F              jc 0x394a
000038DB  6461              fs popa
000038DD  7461              jz 0x3940
000038DF  002E              add [esi],ch
000038E1  65685F667261      gs push dword 0x6172665f
000038E7  6D                insd
000038E8  655F              gs pop edi
000038EA  686472002E        push dword 0x2e007264
000038EF  65685F667261      gs push dword 0x6172665f
000038F5  6D                insd
000038F6  65002E            add [gs:esi],ch
000038F9  6763635F          arpl [bp+di+0x5f],sp
000038FD  657863            gs js 0x3963
00003900  657074            gs jo 0x3977
00003903  5F                pop edi
00003904  7461              jz 0x3967
00003906  626C6500          bound ebp,[ebp+0x0]
0000390A  2E63746F72        arpl [cs:edi+ebp*2+0x72],si
0000390F  7300              jnc 0x3911
00003911  2E64746F          fs jz 0x3984
00003915  7273              jc 0x398a
00003917  002E              add [esi],ch
00003919  6A63              push byte +0x63
0000391B  7200              jc 0x391d
0000391D  2E64796E          fs jns 0x398f
00003921  61                popa
00003922  6D                insd
00003923  6963002E676F74    imul esp,[ebx+0x0],dword 0x746f672e
0000392A  002E              add [esi],ch
0000392C  676F              a16 outsd
0000392E  742E              jz 0x395e
00003930  706C              jo 0x399e
00003932  7400              jz 0x3934
00003934  2E6461            fs popa
00003937  7461              jz 0x399a
00003939  002E              add [esi],ch
0000393B  627373            bound esi,[ebx+0x73]
0000393E  002E              add [esi],ch
00003940  636F6D            arpl [edi+0x6d],bp
00003943  6D                insd
00003944  656E              gs outsb
00003946  7400              jz 0x3948
00003948  2E6465627567      bound esi,[gs:ebp+0x67]
0000394E  5F                pop edi
0000394F  61                popa
00003950  7261              jc 0x39b3
00003952  6E                outsb
00003953  67657300          gs a16 jnc 0x3957
00003957  2E6465627567      bound esi,[gs:ebp+0x67]
0000395D  5F                pop edi
0000395E  7075              jo 0x39d5
00003960  626E61            bound ebp,[esi+0x61]
00003963  6D                insd
00003964  657300            gs jnc 0x3967
00003967  2E6465627567      bound esi,[gs:ebp+0x67]
0000396D  5F                pop edi
0000396E  696E666F002E64    imul ebp,[esi+0x66],dword 0x642e006f
00003975  65627567          bound esi,[gs:ebp+0x67]
00003979  5F                pop edi
0000397A  61                popa
0000397B  626272            bound esp,[edx+0x72]
0000397E  657600            gs jna 0x3981
00003981  2E6465627567      bound esi,[gs:ebp+0x67]
00003987  5F                pop edi
00003988  6C                insb
00003989  696E65002E6465    imul ebp,[esi+0x65],dword 0x65642e00
00003990  627567            bound esi,[ebp+0x67]
00003993  5F                pop edi
00003994  667261            o16 jc 0x39f8
00003997  6D                insd
00003998  65002E            add [gs:esi],ch
0000399B  6465627567        bound esi,[gs:ebp+0x67]
000039A0  5F                pop edi
000039A1  7374              jnc 0x3a17
000039A3  7200              jc 0x39a5
000039A5  2E6465627567      bound esi,[gs:ebp+0x67]
000039AB  5F                pop edi
000039AC  6C                insb
000039AD  6F                outsd
000039AE  6300              arpl [eax],ax
000039B0  0000              add [eax],al
000039B2  0000              add [eax],al
000039B4  0000              add [eax],al
000039B6  0000              add [eax],al
000039B8  0000              add [eax],al
000039BA  0000              add [eax],al
000039BC  0000              add [eax],al
000039BE  0000              add [eax],al
000039C0  0000              add [eax],al
000039C2  0000              add [eax],al
000039C4  0000              add [eax],al
000039C6  0000              add [eax],al
000039C8  0000              add [eax],al
000039CA  0000              add [eax],al
000039CC  0000              add [eax],al
000039CE  0000              add [eax],al
000039D0  0000              add [eax],al
000039D2  0000              add [eax],al
000039D4  0000              add [eax],al
000039D6  0000              add [eax],al
000039D8  1B00              sbb eax,[eax]
000039DA  0000              add [eax],al
000039DC  0100              add [eax],eax
000039DE  0000              add [eax],al
000039E0  0200              add al,[eax]
000039E2  0000              add [eax],al
000039E4  3481              xor al,0x81
000039E6  0408              add al,0x8
000039E8  3401              xor al,0x1
000039EA  0000              add [eax],al
000039EC  1300              adc eax,[eax]
000039EE  0000              add [eax],al
000039F0  0000              add [eax],al
000039F2  0000              add [eax],al
000039F4  0000              add [eax],al
000039F6  0000              add [eax],al
000039F8  0100              add [eax],eax
000039FA  0000              add [eax],al
000039FC  0000              add [eax],al
000039FE  0000              add [eax],al
00003A00  2300              and eax,[eax]
00003A02  0000              add [eax],al
00003A04  07                pop es
00003A05  0000              add [eax],al
00003A07  0002              add [edx],al
00003A09  0000              add [eax],al
00003A0B  004881            add [eax-0x7f],cl
00003A0E  0408              add al,0x8
00003A10  48                dec eax
00003A11  0100              add [eax],eax
00003A13  0020              add [eax],ah
00003A15  0000              add [eax],al
00003A17  0000              add [eax],al
00003A19  0000              add [eax],al
00003A1B  0000              add [eax],al
00003A1D  0000              add [eax],al
00003A1F  000400            add [eax+eax],al
00003A22  0000              add [eax],al
00003A24  0000              add [eax],al
00003A26  0000              add [eax],al
00003A28  3100              xor [eax],eax
00003A2A  0000              add [eax],al
00003A2C  0500000002        add eax,0x2000000
00003A31  0000              add [eax],al
00003A33  006881            add [eax-0x7f],ch
00003A36  0408              add al,0x8
00003A38  68010000B4        push dword 0xb4000001
00003A3D  0000              add [eax],al
00003A3F  000400            add [eax+eax],al
00003A42  0000              add [eax],al
00003A44  0000              add [eax],al
00003A46  0000              add [eax],al
00003A48  0400              add al,0x0
00003A4A  0000              add [eax],al
00003A4C  0400              add al,0x0
00003A4E  0000              add [eax],al
00003A50  37                aaa
00003A51  0000              add [eax],al
00003A53  000B              add [ebx],cl
00003A55  0000              add [eax],al
00003A57  0002              add [edx],al
00003A59  0000              add [eax],al
00003A5B  001C82            add [edx+eax*4],bl
00003A5E  0408              add al,0x8
00003A60  1C02              sbb al,0x2
00003A62  0000              add [eax],al
00003A64  A001000005        mov al,[0x5000001]
00003A69  0000              add [eax],al
00003A6B  0001              add [ecx],al
00003A6D  0000              add [eax],al
00003A6F  000400            add [eax+eax],al
00003A72  0000              add [eax],al
00003A74  1000              adc [eax],al
00003A76  0000              add [eax],al
00003A78  3F                aas
00003A79  0000              add [eax],al
00003A7B  0003              add [ebx],al
00003A7D  0000              add [eax],al
00003A7F  0002              add [edx],al
00003A81  0000              add [eax],al
00003A83  00BC830408BC03    add [ebx+eax*4+0x3bc0804],bh
00003A8A  0000              add [eax],al
00003A8C  6202              bound eax,[edx]
00003A8E  0000              add [eax],al
00003A90  0000              add [eax],al
00003A92  0000              add [eax],al
00003A94  0000              add [eax],al
00003A96  0000              add [eax],al
00003A98  0100              add [eax],eax
00003A9A  0000              add [eax],al
00003A9C  0000              add [eax],al
00003A9E  0000              add [eax],al
00003AA0  47                inc edi
00003AA1  0000              add [eax],al
00003AA3  00FF              add bh,bh
00003AA5  FF                db 0xFF
00003AA6  FF6F02            jmp far [edi+0x2]
00003AA9  0000              add [eax],al
00003AAB  001E              add [esi],bl
00003AAD  860408            xchg al,[eax+ecx]
00003AB0  1E                push ds
00003AB1  06                push es
00003AB2  0000              add [eax],al
00003AB4  3400              xor al,0x0
00003AB6  0000              add [eax],al
00003AB8  0400              add al,0x0
00003ABA  0000              add [eax],al
00003ABC  0000              add [eax],al
00003ABE  0000              add [eax],al
00003AC0  0200              add al,[eax]
00003AC2  0000              add [eax],al
00003AC4  0200              add al,[eax]
00003AC6  0000              add [eax],al
00003AC8  54                push esp
00003AC9  0000              add [eax],al
00003ACB  00FE              add dh,bh
00003ACD  FF                db 0xFF
00003ACE  FF6F02            jmp far [edi+0x2]
00003AD1  0000              add [eax],al
00003AD3  00548604          add [esi+eax*4+0x4],dl
00003AD7  08540600          or [esi+eax+0x0],dl
00003ADB  008000000005      add [eax+0x5000000],al
00003AE1  0000              add [eax],al
00003AE3  0003              add [ebx],al
00003AE5  0000              add [eax],al
00003AE7  000400            add [eax+eax],al
00003AEA  0000              add [eax],al
00003AEC  0000              add [eax],al
00003AEE  0000              add [eax],al
00003AF0  6300              arpl [eax],ax
00003AF2  0000              add [eax],al
00003AF4  0900              or [eax],eax
00003AF6  0000              add [eax],al
00003AF8  0200              add al,[eax]
00003AFA  0000              add [eax],al
00003AFC  D486              aam 0x86
00003AFE  0408              add al,0x8
00003B00  D406              aam 0x6
00003B02  0000              add [eax],al
00003B04  1800              sbb [eax],al
00003B06  0000              add [eax],al
00003B08  0400              add al,0x0
00003B0A  0000              add [eax],al
00003B0C  0000              add [eax],al
00003B0E  0000              add [eax],al
00003B10  0400              add al,0x0
00003B12  0000              add [eax],al
00003B14  0800              or [eax],al
00003B16  0000              add [eax],al
00003B18  6C                insb
00003B19  0000              add [eax],al
00003B1B  0009              add [ecx],cl
00003B1D  0000              add [eax],al
00003B1F  0002              add [edx],al
00003B21  0000              add [eax],al
00003B23  00EC              add ah,ch
00003B25  860408            xchg al,[eax+ecx]
00003B28  EC                in al,dx
00003B29  06                push es
00003B2A  0000              add [eax],al
00003B2C  98                cwde
00003B2D  0000              add [eax],al
00003B2F  000400            add [eax+eax],al
00003B32  0000              add [eax],al
00003B34  0B00              or eax,[eax]
00003B36  0000              add [eax],al
00003B38  0400              add al,0x0
00003B3A  0000              add [eax],al
00003B3C  0800              or [eax],al
00003B3E  0000              add [eax],al
00003B40  7500              jnz 0x3b42
00003B42  0000              add [eax],al
00003B44  0100              add [eax],eax
00003B46  0000              add [eax],al
00003B48  06                push es
00003B49  0000              add [eax],al
00003B4B  00848704088407    add [edi+eax*4+0x7840804],al
00003B52  0000              add [eax],al
00003B54  3000              xor [eax],al
00003B56  0000              add [eax],al
00003B58  0000              add [eax],al
00003B5A  0000              add [eax],al
00003B5C  0000              add [eax],al
00003B5E  0000              add [eax],al
00003B60  0400              add al,0x0
00003B62  0000              add [eax],al
00003B64  0000              add [eax],al
00003B66  0000              add [eax],al
00003B68  7000              jo 0x3b6a
00003B6A  0000              add [eax],al
00003B6C  0100              add [eax],eax
00003B6E  0000              add [eax],al
00003B70  06                push es
00003B71  0000              add [eax],al
00003B73  00C0              add al,al
00003B75  870408            xchg eax,[eax+ecx]
00003B78  C00700            rol byte [edi],0x0
00003B7B  004001            add [eax+0x1],al
00003B7E  0000              add [eax],al
00003B80  0000              add [eax],al
00003B82  0000              add [eax],al
00003B84  0000              add [eax],al
00003B86  0000              add [eax],al
00003B88  1000              adc [eax],al
00003B8A  0000              add [eax],al
00003B8C  0400              add al,0x0
00003B8E  0000              add [eax],al
00003B90  7B00              jpo 0x3b92
00003B92  0000              add [eax],al
00003B94  0100              add [eax],eax
00003B96  0000              add [eax],al
00003B98  06                push es
00003B99  0000              add [eax],al
00003B9B  0000              add [eax],al
00003B9D  890408            mov [eax+ecx],eax
00003BA0  0009              add [ecx],cl
00003BA2  0000              add [eax],al
00003BA4  C8150000          enter 0x15,0x0
00003BA8  0000              add [eax],al
00003BAA  0000              add [eax],al
00003BAC  0000              add [eax],al
00003BAE  0000              add [eax],al
00003BB0  1000              adc [eax],al
00003BB2  0000              add [eax],al
00003BB4  0000              add [eax],al
00003BB6  0000              add [eax],al
00003BB8  810000000100      add dword [eax],0x10000
00003BBE  0000              add [eax],al
00003BC0  06                push es
00003BC1  0000              add [eax],al
00003BC3  00C8              add al,cl
00003BC5  9E                sahf
00003BC6  0408              add al,0x8
00003BC8  C81E0000          enter 0x1e,0x0
00003BCC  1C00              sbb al,0x0
00003BCE  0000              add [eax],al
00003BD0  0000              add [eax],al
00003BD2  0000              add [eax],al
00003BD4  0000              add [eax],al
00003BD6  0000              add [eax],al
00003BD8  0400              add al,0x0
00003BDA  0000              add [eax],al
00003BDC  0000              add [eax],al
00003BDE  0000              add [eax],al
00003BE0  8700              xchg eax,[eax]
00003BE2  0000              add [eax],al
00003BE4  0100              add [eax],eax
00003BE6  0000              add [eax],al
00003BE8  0200              add al,[eax]
00003BEA  0000              add [eax],al
00003BEC  E49E              in al,0x9e
00003BEE  0408              add al,0x8
00003BF0  E41E              in al,0x1e
00003BF2  0000              add [eax],al
00003BF4  3400              xor al,0x0
00003BF6  0000              add [eax],al
00003BF8  0000              add [eax],al
00003BFA  0000              add [eax],al
00003BFC  0000              add [eax],al
00003BFE  0000              add [eax],al
00003C00  0400              add al,0x0
00003C02  0000              add [eax],al
00003C04  0000              add [eax],al
00003C06  0000              add [eax],al
00003C08  8F00              pop dword [eax]
00003C0A  0000              add [eax],al
00003C0C  0100              add [eax],eax
00003C0E  0000              add [eax],al
00003C10  0200              add al,[eax]
00003C12  0000              add [eax],al
00003C14  189F0408181F      sbb [edi+0x1f180804],bl
00003C1A  0000              add [eax],al
00003C1C  1C03              sbb al,0x3
00003C1E  0000              add [eax],al
00003C20  0000              add [eax],al
00003C22  0000              add [eax],al
00003C24  0000              add [eax],al
00003C26  0000              add [eax],al
00003C28  0400              add al,0x0
00003C2A  0000              add [eax],al
00003C2C  0000              add [eax],al
00003C2E  0000              add [eax],al
00003C30  9D                popf
00003C31  0000              add [eax],al
00003C33  0001              add [ecx],al
00003C35  0000              add [eax],al
00003C37  0002              add [edx],al
00003C39  0000              add [eax],al
00003C3B  0034A2            add [edx],dh
00003C3E  0408              add al,0x8
00003C40  3422              xor al,0x22
00003C42  0000              add [eax],al
00003C44  F00C00            lock or al,0x0
00003C47  0000              add [eax],al
00003C49  0000              add [eax],al
00003C4B  0000              add [eax],al
00003C4D  0000              add [eax],al
00003C4F  000400            add [eax+eax],al
00003C52  0000              add [eax],al
00003C54  0000              add [eax],al
00003C56  0000              add [eax],al
00003C58  A7                cmpsd
00003C59  0000              add [eax],al
00003C5B  0001              add [ecx],al
00003C5D  0000              add [eax],al
00003C5F  0002              add [edx],al
00003C61  0000              add [eax],al
00003C63  0024AF            add [edi+ebp*4],ah
00003C66  0408              add al,0x8
00003C68  242F              and al,0x2f
00003C6A  0000              add [eax],al
00003C6C  D000              rol byte [eax],1
00003C6E  0000              add [eax],al
00003C70  0000              add [eax],al
00003C72  0000              add [eax],al
00003C74  0000              add [eax],al
00003C76  0000              add [eax],al
00003C78  0400              add al,0x0
00003C7A  0000              add [eax],al
00003C7C  0000              add [eax],al
00003C7E  0000              add [eax],al
00003C80  B900000001        mov ecx,0x1000000
00003C85  0000              add [eax],al
00003C87  0003              add [ebx],al
00003C89  0000              add [eax],al
00003C8B  0000              add [eax],al
00003C8D  B004              mov al,0x4
00003C8F  0800              or [eax],al
00003C91  3000              xor [eax],al
00003C93  000C00            add [eax+eax],cl
00003C96  0000              add [eax],al
00003C98  0000              add [eax],al
00003C9A  0000              add [eax],al
00003C9C  0000              add [eax],al
00003C9E  0000              add [eax],al
00003CA0  0400              add al,0x0
00003CA2  0000              add [eax],al
00003CA4  0000              add [eax],al
00003CA6  0000              add [eax],al
00003CA8  C00000            rol byte [eax],0x0
00003CAB  0001              add [ecx],al
00003CAD  0000              add [eax],al
00003CAF  0003              add [ebx],al
00003CB1  0000              add [eax],al
00003CB3  000CB0            add [eax+esi*4],cl
00003CB6  0408              add al,0x8
00003CB8  0C30              or al,0x30
00003CBA  0000              add [eax],al
00003CBC  0800              or [eax],al
00003CBE  0000              add [eax],al
00003CC0  0000              add [eax],al
00003CC2  0000              add [eax],al
00003CC4  0000              add [eax],al
00003CC6  0000              add [eax],al
00003CC8  0400              add al,0x0
00003CCA  0000              add [eax],al
00003CCC  0000              add [eax],al
00003CCE  0000              add [eax],al
00003CD0  C70000000100      mov dword [eax],0x10000
00003CD6  0000              add [eax],al
00003CD8  0300              add eax,[eax]
00003CDA  0000              add [eax],al
00003CDC  14B0              adc al,0xb0
00003CDE  0408              add al,0x8
00003CE0  1430              adc al,0x30
00003CE2  0000              add [eax],al
00003CE4  0400              add al,0x0
00003CE6  0000              add [eax],al
00003CE8  0000              add [eax],al
00003CEA  0000              add [eax],al
00003CEC  0000              add [eax],al
00003CEE  0000              add [eax],al
00003CF0  0400              add al,0x0
00003CF2  0000              add [eax],al
00003CF4  0000              add [eax],al
00003CF6  0000              add [eax],al
00003CF8  CC                int3
00003CF9  0000              add [eax],al
00003CFB  0006              add [esi],al
00003CFD  0000              add [eax],al
00003CFF  0003              add [ebx],al
00003D01  0000              add [eax],al
00003D03  0018              add [eax],bl
00003D05  B004              mov al,0x4
00003D07  0818              or [eax],bl
00003D09  3000              xor [eax],al
00003D0B  00E0              add al,ah
00003D0D  0000              add [eax],al
00003D0F  000500000000      add [0x0],al
00003D15  0000              add [eax],al
00003D17  000400            add [eax+eax],al
00003D1A  0000              add [eax],al
00003D1C  0800              or [eax],al
00003D1E  0000              add [eax],al
00003D20  D500              aad 0x0
00003D22  0000              add [eax],al
00003D24  0100              add [eax],eax
00003D26  0000              add [eax],al
00003D28  0300              add eax,[eax]
00003D2A  0000              add [eax],al
00003D2C  F8                clc
00003D2D  B004              mov al,0x4
00003D2F  08F8              or al,bh
00003D31  3000              xor [eax],al
00003D33  000400            add [eax+eax],al
00003D36  0000              add [eax],al
00003D38  0000              add [eax],al
00003D3A  0000              add [eax],al
00003D3C  0000              add [eax],al
00003D3E  0000              add [eax],al
00003D40  0400              add al,0x0
00003D42  0000              add [eax],al
00003D44  0400              add al,0x0
00003D46  0000              add [eax],al
00003D48  DA00              fiadd dword [eax]
00003D4A  0000              add [eax],al
00003D4C  0100              add [eax],eax
00003D4E  0000              add [eax],al
00003D50  0300              add eax,[eax]
00003D52  0000              add [eax],al
00003D54  FC                cld
00003D55  B004              mov al,0x4
00003D57  08FC              or ah,bh
00003D59  3000              xor [eax],al
00003D5B  005800            add [eax+0x0],bl
00003D5E  0000              add [eax],al
00003D60  0000              add [eax],al
00003D62  0000              add [eax],al
00003D64  0000              add [eax],al
00003D66  0000              add [eax],al
00003D68  0400              add al,0x0
00003D6A  0000              add [eax],al
00003D6C  0400              add al,0x0
00003D6E  0000              add [eax],al
00003D70  E300              jecxz 0x3d72
00003D72  0000              add [eax],al
00003D74  0100              add [eax],eax
00003D76  0000              add [eax],al
00003D78  0300              add eax,[eax]
00003D7A  0000              add [eax],al
00003D7C  54                push esp
00003D7D  B104              mov cl,0x4
00003D7F  08543100          or [ecx+esi+0x0],dl
00003D83  0008              add [eax],cl
00003D85  0000              add [eax],al
00003D87  0000              add [eax],al
00003D89  0000              add [eax],al
00003D8B  0000              add [eax],al
00003D8D  0000              add [eax],al
00003D8F  000400            add [eax+eax],al
00003D92  0000              add [eax],al
00003D94  0000              add [eax],al
00003D96  0000              add [eax],al
00003D98  E900000008        jmp 0x8003d9d
00003D9D  0000              add [eax],al
00003D9F  0003              add [ebx],al
00003DA1  0000              add [eax],al
00003DA3  0060B1            add [eax-0x4f],ah
00003DA6  0408              add al,0x8
00003DA8  5C                pop esp
00003DA9  3100              xor [eax],eax
00003DAB  0038              add [eax],bh
00003DAD  0100              add [eax],eax
00003DAF  0000              add [eax],al
00003DB1  0000              add [eax],al
00003DB3  0000              add [eax],al
00003DB5  0000              add [eax],al
00003DB7  0020              add [eax],ah
00003DB9  0000              add [eax],al
00003DBB  0000              add [eax],al
00003DBD  0000              add [eax],al
00003DBF  00EE              add dh,ch
00003DC1  0000              add [eax],al
00003DC3  0001              add [ecx],al
00003DC5  0000              add [eax],al
00003DC7  0030              add [eax],dh
00003DC9  0000              add [eax],al
00003DCB  0000              add [eax],al
00003DCD  0000              add [eax],al
00003DCF  005C3100          add [ecx+esi+0x0],bl
00003DD3  003400            add [eax+eax],dh
00003DD6  0000              add [eax],al
00003DD8  0000              add [eax],al
00003DDA  0000              add [eax],al
00003DDC  0000              add [eax],al
00003DDE  0000              add [eax],al
00003DE0  0100              add [eax],eax
00003DE2  0000              add [eax],al
00003DE4  0100              add [eax],eax
00003DE6  0000              add [eax],al
00003DE8  F70000000100      test dword [eax],0x10000
00003DEE  0000              add [eax],al
00003DF0  0000              add [eax],al
00003DF2  0000              add [eax],al
00003DF4  0000              add [eax],al
00003DF6  0000              add [eax],al
00003DF8  90                nop
00003DF9  3100              xor [eax],eax
00003DFB  004000            add [eax+0x0],al
00003DFE  0000              add [eax],al
00003E00  0000              add [eax],al
00003E02  0000              add [eax],al
00003E04  0000              add [eax],al
00003E06  0000              add [eax],al
00003E08  0800              or [eax],al
00003E0A  0000              add [eax],al
00003E0C  0000              add [eax],al
00003E0E  0000              add [eax],al
00003E10  06                push es
00003E11  0100              add [eax],eax
00003E13  0001              add [ecx],al
00003E15  0000              add [eax],al
00003E17  0000              add [eax],al
00003E19  0000              add [eax],al
00003E1B  0000              add [eax],al
00003E1D  0000              add [eax],al
00003E1F  00D0              add al,dl
00003E21  3100              xor [eax],eax
00003E23  005F00            add [edi+0x0],bl
00003E26  0000              add [eax],al
00003E28  0000              add [eax],al
00003E2A  0000              add [eax],al
00003E2C  0000              add [eax],al
00003E2E  0000              add [eax],al
00003E30  0100              add [eax],eax
00003E32  0000              add [eax],al
00003E34  0000              add [eax],al
00003E36  0000              add [eax],al
00003E38  16                push ss
00003E39  0100              add [eax],eax
00003E3B  0001              add [ecx],al
00003E3D  0000              add [eax],al
00003E3F  0000              add [eax],al
00003E41  0000              add [eax],al
00003E43  0000              add [eax],al
00003E45  0000              add [eax],al
00003E47  002F              add [edi],ch
00003E49  3200              xor al,[eax]
00003E4B  0021              add [ecx],ah
00003E4D  0200              add al,[eax]
00003E4F  0000              add [eax],al
00003E51  0000              add [eax],al
00003E53  0000              add [eax],al
00003E55  0000              add [eax],al
00003E57  0001              add [ecx],al
00003E59  0000              add [eax],al
00003E5B  0000              add [eax],al
00003E5D  0000              add [eax],al
00003E5F  0022              add [edx],ah
00003E61  0100              add [eax],eax
00003E63  0001              add [ecx],al
00003E65  0000              add [eax],al
00003E67  0000              add [eax],al
00003E69  0000              add [eax],al
00003E6B  0000              add [eax],al
00003E6D  0000              add [eax],al
00003E6F  005034            add [eax+0x34],dl
00003E72  0000              add [eax],al
00003E74  3501000000        xor eax,0x1
00003E79  0000              add [eax],al
00003E7B  0000              add [eax],al
00003E7D  0000              add [eax],al
00003E7F  0001              add [ecx],al
00003E81  0000              add [eax],al
00003E83  0000              add [eax],al
00003E85  0000              add [eax],al
00003E87  0030              add [eax],dh
00003E89  0100              add [eax],eax
00003E8B  0001              add [ecx],al
00003E8D  0000              add [eax],al
00003E8F  0000              add [eax],al
00003E91  0000              add [eax],al
00003E93  0000              add [eax],al
00003E95  0000              add [eax],al
00003E97  008535000001      add [ebp+0x1000035],al
00003E9D  0100              add [eax],eax
00003E9F  0000              add [eax],al
00003EA1  0000              add [eax],al
00003EA3  0000              add [eax],al
00003EA5  0000              add [eax],al
00003EA7  0001              add [ecx],al
00003EA9  0000              add [eax],al
00003EAB  0000              add [eax],al
00003EAD  0000              add [eax],al
00003EAF  003C01            add [ecx+eax],bh
00003EB2  0000              add [eax],al
00003EB4  0100              add [eax],eax
00003EB6  0000              add [eax],al
00003EB8  0000              add [eax],al
00003EBA  0000              add [eax],al
00003EBC  0000              add [eax],al
00003EBE  0000              add [eax],al
00003EC0  8836              mov [esi],dh
00003EC2  0000              add [eax],al
00003EC4  4C                dec esp
00003EC5  0000              add [eax],al
00003EC7  0000              add [eax],al
00003EC9  0000              add [eax],al
00003ECB  0000              add [eax],al
00003ECD  0000              add [eax],al
00003ECF  000400            add [eax+eax],al
00003ED2  0000              add [eax],al
00003ED4  0000              add [eax],al
00003ED6  0000              add [eax],al
00003ED8  49                dec ecx
00003ED9  0100              add [eax],eax
00003EDB  0001              add [ecx],al
00003EDD  0000              add [eax],al
00003EDF  0030              add [eax],dh
00003EE1  0000              add [eax],al
00003EE3  0000              add [eax],al
00003EE5  0000              add [eax],al
00003EE7  00D4              add ah,dl
00003EE9  360000            add [ss:eax],al
00003EEC  1201              adc al,[ecx]
00003EEE  0000              add [eax],al
00003EF0  0000              add [eax],al
00003EF2  0000              add [eax],al
00003EF4  0000              add [eax],al
00003EF6  0000              add [eax],al
00003EF8  0100              add [eax],eax
00003EFA  0000              add [eax],al
00003EFC  0100              add [eax],eax
00003EFE  0000              add [eax],al
00003F00  54                push esp
00003F01  0100              add [eax],eax
00003F03  0001              add [ecx],al
00003F05  0000              add [eax],al
00003F07  0000              add [eax],al
00003F09  0000              add [eax],al
00003F0B  0000              add [eax],al
00003F0D  0000              add [eax],al
00003F0F  00E6              add dh,ah
00003F11  37                aaa
00003F12  0000              add [eax],al
00003F14  6B0000            imul eax,[eax],byte +0x0
00003F17  0000              add [eax],al
00003F19  0000              add [eax],al
00003F1B  0000              add [eax],al
00003F1D  0000              add [eax],al
00003F1F  0001              add [ecx],al
00003F21  0000              add [eax],al
00003F23  0000              add [eax],al
00003F25  0000              add [eax],al
00003F27  0011              add [ecx],dl
00003F29  0000              add [eax],al
00003F2B  0003              add [ebx],al
00003F2D  0000              add [eax],al
00003F2F  0000              add [eax],al
00003F31  0000              add [eax],al
00003F33  0000              add [eax],al
00003F35  0000              add [eax],al
00003F37  005138            add [ecx+0x38],dl
00003F3A  0000              add [eax],al
00003F3C  5F                pop edi
00003F3D  0100              add [eax],eax
00003F3F  0000              add [eax],al
00003F41  0000              add [eax],al
00003F43  0000              add [eax],al
00003F45  0000              add [eax],al
00003F47  0001              add [ecx],al
00003F49  0000              add [eax],al
00003F4B  0000              add [eax],al
00003F4D  0000              add [eax],al
00003F4F  0001              add [ecx],al
00003F51  0000              add [eax],al
00003F53  0002              add [edx],al
00003F55  0000              add [eax],al
00003F57  0000              add [eax],al
00003F59  0000              add [eax],al
00003F5B  0000              add [eax],al
00003F5D  0000              add [eax],al
00003F5F  00A03F000020      add [eax+0x2000003f],ah
00003F65  0E                push cs
00003F66  0000              add [eax],al
00003F68  2500000040        and eax,0x40000000
00003F6D  0000              add [eax],al
00003F6F  000400            add [eax+eax],al
00003F72  0000              add [eax],al
00003F74  1000              adc [eax],al
00003F76  0000              add [eax],al
00003F78  0900              or [eax],eax
00003F7A  0000              add [eax],al
00003F7C  0300              add eax,[eax]
00003F7E  0000              add [eax],al
00003F80  0000              add [eax],al
00003F82  0000              add [eax],al
00003F84  0000              add [eax],al
00003F86  0000              add [eax],al
00003F88  C04D0000          ror byte [ebp+0x0],0x0
00003F8C  A21B000000        mov [0x1b],al
00003F91  0000              add [eax],al
00003F93  0000              add [eax],al
00003F95  0000              add [eax],al
00003F97  0001              add [ecx],al
00003F99  0000              add [eax],al
00003F9B  0000              add [eax],al
00003F9D  0000              add [eax],al
00003F9F  0000              add [eax],al
00003FA1  0000              add [eax],al
00003FA3  0000              add [eax],al
00003FA5  0000              add [eax],al
00003FA7  0000              add [eax],al
00003FA9  0000              add [eax],al
00003FAB  0000              add [eax],al
00003FAD  0000              add [eax],al
00003FAF  0000              add [eax],al
00003FB1  0000              add [eax],al
00003FB3  003481            add [ecx+eax*4],dh
00003FB6  0408              add al,0x8
00003FB8  0000              add [eax],al
00003FBA  0000              add [eax],al
00003FBC  0300              add eax,[eax]
00003FBE  0100              add [eax],eax
00003FC0  0000              add [eax],al
00003FC2  0000              add [eax],al
00003FC4  48                dec eax
00003FC5  81040800000000    add dword [eax+ecx],0x0
00003FCC  0300              add eax,[eax]
00003FCE  0200              add al,[eax]
00003FD0  0000              add [eax],al
00003FD2  0000              add [eax],al
00003FD4  6881040800        push dword 0x80481
00003FD9  0000              add [eax],al
00003FDB  0003              add [ebx],al
00003FDD  0003              add [ebx],al
00003FDF  0000              add [eax],al
00003FE1  0000              add [eax],al
00003FE3  001C82            add [edx+eax*4],bl
00003FE6  0408              add al,0x8
00003FE8  0000              add [eax],al
00003FEA  0000              add [eax],al
00003FEC  0300              add eax,[eax]
00003FEE  0400              add al,0x0
00003FF0  0000              add [eax],al
00003FF2  0000              add [eax],al
00003FF4  BC83040800        mov esp,0x80483
00003FF9  0000              add [eax],al
00003FFB  0003              add [ebx],al
00003FFD  000500000000      add [0x0],al
00004003  001E              add [esi],bl
00004005  860408            xchg al,[eax+ecx]
00004008  0000              add [eax],al
0000400A  0000              add [eax],al
0000400C  0300              add eax,[eax]
0000400E  06                push es
0000400F  0000              add [eax],al
00004011  0000              add [eax],al
00004013  00548604          add [esi+eax*4+0x4],dl
00004017  0800              or [eax],al
00004019  0000              add [eax],al
0000401B  0003              add [ebx],al
0000401D  0007              add [edi],al
0000401F  0000              add [eax],al
00004021  0000              add [eax],al
00004023  00D4              add ah,dl
00004025  860408            xchg al,[eax+ecx]
00004028  0000              add [eax],al
0000402A  0000              add [eax],al
0000402C  0300              add eax,[eax]
0000402E  0800              or [eax],al
00004030  0000              add [eax],al
00004032  0000              add [eax],al
00004034  EC                in al,dx
00004035  860408            xchg al,[eax+ecx]
00004038  0000              add [eax],al
0000403A  0000              add [eax],al
0000403C  0300              add eax,[eax]
0000403E  0900              or [eax],eax
00004040  0000              add [eax],al
00004042  0000              add [eax],al
00004044  848704080000      test [edi+0x804],al
0000404A  0000              add [eax],al
0000404C  0300              add eax,[eax]
0000404E  0A00              or al,[eax]
00004050  0000              add [eax],al
00004052  0000              add [eax],al
00004054  C0870408000000    rol byte [edi+0x804],0x0
0000405B  0003              add [ebx],al
0000405D  000B              add [ebx],cl
0000405F  0000              add [eax],al
00004061  0000              add [eax],al
00004063  0000              add [eax],al
00004065  890408            mov [eax+ecx],eax
00004068  0000              add [eax],al
0000406A  0000              add [eax],al
0000406C  0300              add eax,[eax]
0000406E  0C00              or al,0x0
00004070  0000              add [eax],al
00004072  0000              add [eax],al
00004074  C89E0408          enter 0x49e,0x8
00004078  0000              add [eax],al
0000407A  0000              add [eax],al
0000407C  0300              add eax,[eax]
0000407E  0D00000000        or eax,0x0
00004083  00E4              add ah,ah
00004085  9E                sahf
00004086  0408              add al,0x8
00004088  0000              add [eax],al
0000408A  0000              add [eax],al
0000408C  0300              add eax,[eax]
0000408E  0E                push cs
0000408F  0000              add [eax],al
00004091  0000              add [eax],al
00004093  0018              add [eax],bl
00004095  9F                lahf
00004096  0408              add al,0x8
00004098  0000              add [eax],al
0000409A  0000              add [eax],al
0000409C  0300              add eax,[eax]
0000409E  0F0000            sldt [eax]
000040A1  0000              add [eax],al
000040A3  0034A2            add [edx],dh
000040A6  0408              add al,0x8
000040A8  0000              add [eax],al
000040AA  0000              add [eax],al
000040AC  0300              add eax,[eax]
000040AE  1000              adc [eax],al
000040B0  0000              add [eax],al
000040B2  0000              add [eax],al
000040B4  24AF              and al,0xaf
000040B6  0408              add al,0x8
000040B8  0000              add [eax],al
000040BA  0000              add [eax],al
000040BC  0300              add eax,[eax]
000040BE  1100              adc [eax],eax
000040C0  0000              add [eax],al
000040C2  0000              add [eax],al
000040C4  00B004080000      add [eax+0x804],dh
000040CA  0000              add [eax],al
000040CC  0300              add eax,[eax]
000040CE  1200              adc al,[eax]
000040D0  0000              add [eax],al
000040D2  0000              add [eax],al
000040D4  0CB0              or al,0xb0
000040D6  0408              add al,0x8
000040D8  0000              add [eax],al
000040DA  0000              add [eax],al
000040DC  0300              add eax,[eax]
000040DE  1300              adc eax,[eax]
000040E0  0000              add [eax],al
000040E2  0000              add [eax],al
000040E4  14B0              adc al,0xb0
000040E6  0408              add al,0x8
000040E8  0000              add [eax],al
000040EA  0000              add [eax],al
000040EC  0300              add eax,[eax]
000040EE  1400              adc al,0x0
000040F0  0000              add [eax],al
000040F2  0000              add [eax],al
000040F4  18B004080000      sbb [eax+0x804],dh
000040FA  0000              add [eax],al
000040FC  0300              add eax,[eax]
000040FE  1500000000        adc eax,0x0
00004103  00F8              add al,bh
00004105  B004              mov al,0x4
00004107  0800              or [eax],al
00004109  0000              add [eax],al
0000410B  0003              add [ebx],al
0000410D  0016              add [esi],dl
0000410F  0000              add [eax],al
00004111  0000              add [eax],al
00004113  00FC              add ah,bh
00004115  B004              mov al,0x4
00004117  0800              or [eax],al
00004119  0000              add [eax],al
0000411B  0003              add [ebx],al
0000411D  0017              add [edi],dl
0000411F  0000              add [eax],al
00004121  0000              add [eax],al
00004123  0054B104          add [ecx+esi*4+0x4],dl
00004127  0800              or [eax],al
00004129  0000              add [eax],al
0000412B  0003              add [ebx],al
0000412D  0018              add [eax],bl
0000412F  0000              add [eax],al
00004131  0000              add [eax],al
00004133  0060B1            add [eax-0x4f],ah
00004136  0408              add al,0x8
00004138  0000              add [eax],al
0000413A  0000              add [eax],al
0000413C  0300              add eax,[eax]
0000413E  1900              sbb [eax],eax
00004140  0000              add [eax],al
00004142  0000              add [eax],al
00004144  0000              add [eax],al
00004146  0000              add [eax],al
00004148  0000              add [eax],al
0000414A  0000              add [eax],al
0000414C  0300              add eax,[eax]
0000414E  1A00              sbb al,[eax]
00004150  0000              add [eax],al
00004152  0000              add [eax],al
00004154  0000              add [eax],al
00004156  0000              add [eax],al
00004158  0000              add [eax],al
0000415A  0000              add [eax],al
0000415C  0300              add eax,[eax]
0000415E  1B00              sbb eax,[eax]
00004160  0000              add [eax],al
00004162  0000              add [eax],al
00004164  0000              add [eax],al
00004166  0000              add [eax],al
00004168  0000              add [eax],al
0000416A  0000              add [eax],al
0000416C  0300              add eax,[eax]
0000416E  1C00              sbb al,0x0
00004170  0000              add [eax],al
00004172  0000              add [eax],al
00004174  0000              add [eax],al
00004176  0000              add [eax],al
00004178  0000              add [eax],al
0000417A  0000              add [eax],al
0000417C  0300              add eax,[eax]
0000417E  1D00000000        sbb eax,0x0
00004183  0000              add [eax],al
00004185  0000              add [eax],al
00004187  0000              add [eax],al
00004189  0000              add [eax],al
0000418B  0003              add [ebx],al
0000418D  001E              add [esi],bl
0000418F  0000              add [eax],al
00004191  0000              add [eax],al
00004193  0000              add [eax],al
00004195  0000              add [eax],al
00004197  0000              add [eax],al
00004199  0000              add [eax],al
0000419B  0003              add [ebx],al
0000419D  001F              add [edi],bl
0000419F  0000              add [eax],al
000041A1  0000              add [eax],al
000041A3  0000              add [eax],al
000041A5  0000              add [eax],al
000041A7  0000              add [eax],al
000041A9  0000              add [eax],al
000041AB  0003              add [ebx],al
000041AD  0020              add [eax],ah
000041AF  0000              add [eax],al
000041B1  0000              add [eax],al
000041B3  0000              add [eax],al
000041B5  0000              add [eax],al
000041B7  0000              add [eax],al
000041B9  0000              add [eax],al
000041BB  0003              add [ebx],al
000041BD  0021              add [ecx],ah
000041BF  0000              add [eax],al
000041C1  0000              add [eax],al
000041C3  0000              add [eax],al
000041C5  0000              add [eax],al
000041C7  0000              add [eax],al
000041C9  0000              add [eax],al
000041CB  0003              add [ebx],al
000041CD  0022              add [edx],ah
000041CF  0001              add [ecx],al
000041D1  0000              add [eax],al
000041D3  0000              add [eax],al
000041D5  0000              add [eax],al
000041D7  0000              add [eax],al
000041D9  0000              add [eax],al
000041DB  000400            add [eax+eax],al
000041DE  F1                int1
000041DF  FF08              dec dword [eax]
000041E1  0000              add [eax],al
000041E3  0000              add [eax],al
000041E5  0000              add [eax],al
000041E7  0000              add [eax],al
000041E9  0000              add [eax],al
000041EB  000400            add [eax+eax],al
000041EE  F1                int1
000041EF  FF13              call near [ebx]
000041F1  0000              add [eax],al
000041F3  0000              add [eax],al
000041F5  0000              add [eax],al
000041F7  0000              add [eax],al
000041F9  0000              add [eax],al
000041FB  000400            add [eax+eax],al
000041FE  F1                int1
000041FF  FF1E              call far [esi]
00004201  0000              add [eax],al
00004203  0000              add [eax],al
00004205  B004              mov al,0x4
00004207  0800              or [eax],al
00004209  0000              add [eax],al
0000420B  0001              add [ecx],al
0000420D  0012              add [edx],dl
0000420F  002C00            add [eax+eax],ch
00004212  0000              add [eax],al
00004214  0CB0              or al,0xb0
00004216  0408              add al,0x8
00004218  0000              add [eax],al
0000421A  0000              add [eax],al
0000421C  0100              add [eax],eax
0000421E  1300              adc eax,[eax]
00004220  3A00              cmp al,[eax]
00004222  0000              add [eax],al
00004224  14B0              adc al,0xb0
00004226  0408              add al,0x8
00004228  0000              add [eax],al
0000422A  0000              add [eax],al
0000422C  0100              add [eax],eax
0000422E  1400              adc al,0x0
00004230  47                inc edi
00004231  0000              add [eax],al
00004233  0030              add [eax],dh
00004235  890408            mov [eax+ecx],eax
00004238  0000              add [eax],al
0000423A  0000              add [eax],al
0000423C  0200              add al,[eax]
0000423E  0C00              or al,0x0
00004240  5C                pop esp
00004241  0000              add [eax],al
00004243  006089            add [eax-0x77],ah
00004246  0408              add al,0x8
00004248  0000              add [eax],al
0000424A  0000              add [eax],al
0000424C  0200              add al,[eax]
0000424E  0C00              or al,0x0
00004250  6F                outsd
00004251  0000              add [eax],al
00004253  00A089040800      add [eax+0x80489],ah
00004259  0000              add [eax],al
0000425B  0002              add [edx],al
0000425D  000C00            add [eax+eax],cl
00004260  8500              test [eax],eax
00004262  0000              add [eax],al
00004264  8CB204080100      mov [edx+0x10804],segr6
0000426A  0000              add [eax],al
0000426C  0100              add [eax],eax
0000426E  1900              sbb [eax],eax
00004270  94                xchg eax,esp
00004271  0000              add [eax],al
00004273  0090B2040804      add [eax+0x40804b2],dl
00004279  0000              add [eax],al
0000427B  0001              add [ecx],al
0000427D  0019              add [ecx],bl
0000427F  00A2000000F0      add [edx+0xf0000000],ah
00004285  890408            mov [eax+ecx],eax
00004288  0000              add [eax],al
0000428A  0000              add [eax],al
0000428C  0200              add al,[eax]
0000428E  0C00              or al,0x0
00004290  1300              adc eax,[eax]
00004292  0000              add [eax],al
00004294  0000              add [eax],al
00004296  0000              add [eax],al
00004298  0000              add [eax],al
0000429A  0000              add [eax],al
0000429C  0400              add al,0x0
0000429E  F1                int1
0000429F  FFAE00000008      jmp far [esi+0x8000000]
000042A5  B004              mov al,0x4
000042A7  0800              or [eax],al
000042A9  0000              add [eax],al
000042AB  0001              add [ecx],al
000042AD  0012              add [edx],dl
000042AF  00BB00000020      add [ebx+0x20000000],bh
000042B5  AF                scasd
000042B6  0408              add al,0x8
000042B8  0000              add [eax],al
000042BA  0000              add [eax],al
000042BC  0100              add [eax],eax
000042BE  1000              adc [eax],al
000042C0  C9                leave
000042C1  0000              add [eax],al
000042C3  0014B0            add [eax+esi*4],dl
000042C6  0408              add al,0x8
000042C8  0000              add [eax],al
000042CA  0000              add [eax],al
000042CC  0100              add [eax],eax
000042CE  1400              adc al,0x0
000042D0  D500              aad 0x0
000042D2  0000              add [eax],al
000042D4  A09E040800        mov al,[0x8049e]
000042D9  0000              add [eax],al
000042DB  0002              add [edx],al
000042DD  000C00            add [eax+eax],cl
000042E0  0800              or [eax],al
000042E2  0000              add [eax],al
000042E4  0000              add [eax],al
000042E6  0000              add [eax],al
000042E8  0000              add [eax],al
000042EA  0000              add [eax],al
000042EC  0400              add al,0x0
000042EE  F1                int1
000042EF  FF                db 0xFF
000042F0  EB00              jmp short 0x42f2
000042F2  0000              add [eax],al
000042F4  0000              add [eax],al
000042F6  0000              add [eax],al
000042F8  0000              add [eax],al
000042FA  0000              add [eax],al
000042FC  0400              add al,0x0
000042FE  F1                int1
000042FF  FF0501000094      inc dword [0x94000001]
00004305  B204              mov dl,0x4
00004307  0801              or [ecx],al
00004309  0000              add [eax],al
0000430B  0001              add [ecx],al
0000430D  0019              add [ecx],bl
0000430F  001401            add [ecx+eax],dl
00004312  0000              add [eax],al
00004314  208E04083F00      and [esi+0x3f0804],cl
0000431A  0000              add [eax],al
0000431C  0200              add al,[eax]
0000431E  0C00              or al,0x0
00004320  44                inc esp
00004321  0100              add [eax],eax
00004323  00149F            add [edi+ebx*4],dl
00004326  0408              add al,0x8
00004328  0400              add al,0x0
0000432A  0000              add [eax],al
0000432C  0100              add [eax],eax
0000432E  0E                push cs
0000432F  004C0100          add [ecx+eax+0x0],cl
00004333  005F8E            add [edi-0x72],bl
00004336  0408              add al,0x8
00004338  1C00              sbb al,0x0
0000433A  0000              add [eax],al
0000433C  0200              add al,[eax]
0000433E  0C00              or al,0x0
00004340  60                pusha
00004341  0100              add [eax],eax
00004343  0000              add [eax],al
00004345  0000              add [eax],al
00004347  0000              add [eax],al
00004349  0000              add [eax],al
0000434B  000400            add [eax+eax],al
0000434E  F1                int1
0000434F  FF00              inc dword [eax]
00004351  0000              add [eax],al
00004353  0000              add [eax],al
00004355  0000              add [eax],al
00004357  0000              add [eax],al
00004359  0000              add [eax],al
0000435B  000400            add [eax+eax],al
0000435E  F1                int1
0000435F  FF6B01            jmp far [ebx+0x1]
00004362  0000              add [eax],al
00004364  FC                cld
00004365  B004              mov al,0x4
00004367  0800              or [eax],al
00004369  0000              add [eax],al
0000436B  0001              add [ecx],al
0000436D  0017              add [edi],dl
0000436F  008101000000      add [ecx+0x1],al
00004375  B004              mov al,0x4
00004377  0800              or [eax],al
00004379  0000              add [eax],al
0000437B  0000              add [eax],al
0000437D  0012              add [edx],dl
0000437F  009201000000      add [edx+0x1],dl
00004385  B004              mov al,0x4
00004387  0800              or [eax],al
00004389  0000              add [eax],al
0000438B  0000              add [eax],al
0000438D  0012              add [edx],dl
0000438F  00A501000018      add [ebp+0x18000001],ah
00004395  B004              mov al,0x4
00004397  0800              or [eax],al
00004399  0000              add [eax],al
0000439B  0001              add [ecx],al
0000439D  001500AE0100      add [0x1ae00],dl
000043A3  0054B104          add [ecx+esi*4+0x4],dl
000043A7  0800              or [eax],al
000043A9  0000              add [eax],al
000043AB  0020              add [eax],ah
000043AD  0018              add [eax],bl
000043AF  00B901000060      add [ecx+0x60000001],bh
000043B5  B104              mov cl,0x4
000043B7  089000000011      or [eax+0x11000000],dl
000043BD  0019              add [ecx],bl
000043BF  00CF              add bh,cl
000043C1  0100              add [eax],eax
000043C3  00FD              add ch,bh
000043C5  98                cwde
000043C6  0408              add al,0x8
000043C8  1A00              sbb al,[eax]
000043CA  0000              add [eax],al
000043CC  2200              and al,[eax]
000043CE  0C00              or al,0x0
000043D0  0F0200            lar eax,[eax]
000043D3  0038              add [eax],bh
000043D5  95                xchg eax,ebp
000043D6  0408              add al,0x8
000043D8  2200              and al,[eax]
000043DA  0000              add [eax],al
000043DC  2200              and al,[eax]
000043DE  0C00              or al,0x0
000043E0  360200            add al,[ss:eax]
000043E3  007A95            add [edx-0x6b],bh
000043E6  0408              add al,0x8
000043E8  1A00              sbb al,[eax]
000043EA  0000              add [eax],al
000043EC  2200              and al,[eax]
000043EE  0C00              or al,0x0
000043F0  5A                pop edx
000043F1  0200              add al,[eax]
000043F3  0000              add [eax],al
000043F5  0000              add [eax],al
000043F7  0000              add [eax],al
000043F9  0000              add [eax],al
000043FB  0012              add [edx],dl
000043FD  0000              add [eax],al
000043FF  0085020000A0      add [ebp+0xa0000002],al
00004405  8F0408            pop dword [eax+ecx]
00004408  7300              jnc 0x440a
0000440A  0000              add [eax],al
0000440C  2200              and al,[eax]
0000440E  0C00              or al,0x0
00004410  B602              mov dh,0x2
00004412  0000              add [eax],al
00004414  AD                lodsd
00004415  9D                popf
00004416  0408              add al,0x8
00004418  2900              sub [eax],eax
0000441A  0000              add [eax],al
0000441C  2200              and al,[eax]
0000441E  0C00              or al,0x0
00004420  D502              aad 0x2
00004422  0000              add [eax],al
00004424  0000              add [eax],al
00004426  0000              add [eax],al
00004428  0000              add [eax],al
0000442A  0000              add [eax],al
0000442C  1200              adc al,[eax]
0000442E  0000              add [eax],al
00004430  EC                in al,dx
00004431  0200              add al,[eax]
00004433  0000              add [eax],al
00004435  0000              add [eax],al
00004437  0000              add [eax],al
00004439  0000              add [eax],al
0000443B  0012              add [edx],dl
0000443D  0000              add [eax],al
0000443F  0006              add [esi],al
00004441  0300              add eax,[eax]
00004443  0030              add [eax],dh
00004445  9E                sahf
00004446  0408              add al,0x8
00004448  0500000012        add eax,0x12000000
0000444D  000C00            add [eax+eax],cl
00004450  16                push ss
00004451  0300              add eax,[eax]
00004453  0018              add [eax],bl
00004455  99                cdq
00004456  0408              add al,0x8
00004458  0F0000            sldt [eax]
0000445B  0022              add [edx],ah
0000445D  000C00            add [eax+eax],cl
00004460  6203              bound eax,[ebx]
00004462  0000              add [eax],al
00004464  0A9B04083000      or bl,[ebx+0x300804]
0000446A  0000              add [eax],al
0000446C  2200              and al,[eax]
0000446E  0C00              or al,0x0
00004470  9A030000008904    call 0x489:0x3
00004477  0800              or [eax],al
00004479  0000              add [eax],al
0000447B  0012              add [edx],dl
0000447D  000C00            add [eax+eax],cl
00004480  A1030000AA        mov eax,[0xaa000003]
00004485  9C                pushf
00004486  0408              add al,0x8
00004488  0500000022        add eax,0x22000000
0000448D  000C00            add [eax+eax],cl
00004490  C9                leave
00004491  0300              add eax,[eax]
00004493  006099            add [eax-0x67],ah
00004496  0408              add al,0x8
00004498  27                daa
00004499  0000              add [eax],al
0000449B  0022              add [edx],ah
0000449D  000C00            add [eax+eax],cl
000044A0  F8                clc
000044A1  0300              add eax,[eax]
000044A3  00C4              add ah,al
000044A5  8E0408            mov es,[eax+ecx]
000044A8  58                pop eax
000044A9  0000              add [eax],al
000044AB  0022              add [edx],ah
000044AD  000C00            add [eax+eax],cl
000044B0  27                daa
000044B1  0400              add al,0x0
000044B3  00A89704080A      add [eax+0xa080497],ch
000044B9  0000              add [eax],al
000044BB  0022              add [edx],ah
000044BD  000C00            add [eax+eax],cl
000044C0  7004              jo 0x44c6
000044C2  0000              add [eax],al
000044C4  94                xchg eax,esp
000044C5  95                xchg eax,ebp
000044C6  0408              add al,0x8
000044C8  5F                pop edi
000044C9  0000              add [eax],al
000044CB  0022              add [edx],ah
000044CD  000C00            add [eax+eax],cl
000044D0  90                nop
000044D1  0400              add al,0x0
000044D3  002A              add [edx],ch
000044D5  9C                pushf
000044D6  0408              add al,0x8
000044D8  1300              adc eax,[eax]
000044DA  0000              add [eax],al
000044DC  2200              and al,[eax]
000044DE  0C00              or al,0x0
000044E0  D80400            fadd dword [eax+eax]
000044E3  00DB              add bl,bl
000044E5  9C                pushf
000044E6  0408              add al,0x8
000044E8  0800              or [eax],al
000044EA  0000              add [eax],al
000044EC  2200              and al,[eax]
000044EE  0C00              or al,0x0
000044F0  FE0400            inc byte [eax+eax]
000044F3  0000              add [eax],al
000044F5  0000              add [eax],al
000044F7  0000              add [eax],al
000044F9  0000              add [eax],al
000044FB  0020              add [eax],ah
000044FD  0000              add [eax],al
000044FF  000D05000000      add [0x5],cl
00004505  0000              add [eax],al
00004507  0000              add [eax],al
00004509  0000              add [eax],al
0000450B  0020              add [eax],ah
0000450D  0000              add [eax],al
0000450F  0021              add [ecx],ah
00004511  0500008899        add eax,0x99880000
00004516  0408              add al,0x8
00004518  2F                das
00004519  0000              add [eax],al
0000451B  0022              add [edx],ah
0000451D  000C00            add [eax+eax],cl
00004520  4C                dec esp
00004521  050000E49E        add eax,0x9ee40000
00004526  0408              add al,0x8
00004528  0400              add al,0x0
0000452A  0000              add [eax],al
0000452C  1100              adc [eax],eax
0000452E  0E                push cs
0000452F  005305            add [ebx+0x5],dl
00004532  0000              add [eax],al
00004534  7598              jnz 0x44ce
00004536  0408              add al,0x8
00004538  3000              xor [eax],al
0000453A  0000              add [eax],al
0000453C  2200              and al,[eax]
0000453E  0C00              or al,0x0
00004540  BE0500007A        mov esi,0x7a000005
00004545  95                xchg eax,ebp
00004546  0408              add al,0x8
00004548  1A00              sbb al,[eax]
0000454A  0000              add [eax],al
0000454C  2200              and al,[eax]
0000454E  0C00              or al,0x0
00004550  E205              loop 0x4557
00004552  0000              add [eax],al
00004554  0000              add [eax],al
00004556  0000              add [eax],al
00004558  0000              add [eax],al
0000455A  0000              add [eax],al
0000455C  1200              adc al,[eax]
0000455E  0000              add [eax],al
00004560  F6050000609504    test byte [0x95600000],0x4
00004567  080500000022      or [0x22000000],al
0000456D  000C00            add [eax+eax],cl
00004570  1A06              sbb al,[esi]
00004572  0000              add [eax],al
00004574  629B04081A00      bound ebx,[ebx+0x1a0804]
0000457A  0000              add [eax],al
0000457C  2200              and al,[eax]
0000457E  0C00              or al,0x0
00004580  2A06              sub al,[esi]
00004582  0000              add [eax],al
00004584  9A9604083D0000    call 0x0:0x3d080496
0000458B  0022              add [edx],ah
0000458D  000C00            add [eax+eax],cl
00004590  6706              a16 push es
00004592  0000              add [eax],al
00004594  5C                pop esp
00004595  92                xchg eax,edx
00004596  0408              add al,0x8
00004598  2100              and [eax],eax
0000459A  0000              add [eax],al
0000459C  2200              and al,[eax]
0000459E  0C00              or al,0x0
000045A0  B306              mov bl,0x6
000045A2  0000              add [eax],al
000045A4  C09B0408210000    rcr byte [ebx+0x210804],0x0
000045AB  0022              add [edx],ah
000045AD  000C00            add [eax+eax],cl
000045B0  EC                in al,dx
000045B1  06                push es
000045B2  0000              add [eax],al
000045B4  C89E0408          enter 0x49e,0x8
000045B8  0000              add [eax],al
000045BA  0000              add [eax],al
000045BC  1200              adc al,[eax]
000045BE  0D00F20600        or eax,0x6f200
000045C3  001490            add [eax+edx*4],dl
000045C6  0408              add al,0x8
000045C8  1300              adc eax,[eax]
000045CA  0000              add [eax],al
000045CC  2200              and al,[eax]
000045CE  0C00              or al,0x0
000045D0  FF06              inc dword [esi]
000045D2  0000              add [eax],al
000045D4  0000              add [eax],al
000045D6  0000              add [eax],al
000045D8  0000              add [eax],al
000045DA  0000              add [eax],al
000045DC  1200              adc al,[eax]
000045DE  0000              add [eax],al
000045E0  1907              sbb [edi],eax
000045E2  0000              add [eax],al
000045E4  0000              add [eax],al
000045E6  0000              add [eax],al
000045E8  0000              add [eax],al
000045EA  0000              add [eax],al
000045EC  1200              adc al,[eax]
000045EE  0000              add [eax],al
000045F0  3E07              ds pop es
000045F2  0000              add [eax],al
000045F4  3D9A040821        cmp eax,0x2108049a
000045F9  0000              add [eax],al
000045FB  0022              add [edx],ah
000045FD  000C00            add [eax+eax],cl
00004600  7607              jna 0x4609
00004602  0000              add [eax],al
00004604  3C90              cmp al,0x90
00004606  0408              add al,0x8
00004608  55                push ebp
00004609  0000              add [eax],al
0000460B  0022              add [edx],ah
0000460D  000C00            add [eax+eax],cl
00004610  9B                wait
00004611  07                pop es
00004612  0000              add [eax],al
00004614  60                pusha
00004615  95                xchg eax,ebp
00004616  0408              add al,0x8
00004618  0500000022        add eax,0x22000000
0000461D  000C00            add [eax+eax],cl
00004620  BF07000000        mov edi,0x7
00004625  0000              add [eax],al
00004627  0000              add [eax],al
00004629  0000              add [eax],al
0000462B  0012              add [edx],dl
0000462D  0000              add [eax],al
0000462F  00DC              add ah,bl
00004631  07                pop es
00004632  0000              add [eax],al
00004634  48                dec eax
00004635  96                xchg eax,esi
00004636  0408              add al,0x8
00004638  1A00              sbb al,[eax]
0000463A  0000              add [eax],al
0000463C  2200              and al,[eax]
0000463E  0C00              or al,0x0
00004640  FD                std
00004641  07                pop es
00004642  0000              add [eax],al
00004644  189904080F00      sbb [ecx+0xf0804],bl
0000464A  0000              add [eax],al
0000464C  2200              and al,[eax]
0000464E  0C00              or al,0x0
00004650  49                dec ecx
00004651  0800              or [eax],al
00004653  006296            add [edx-0x6a],ah
00004656  0408              add al,0x8
00004658  37                aaa
00004659  0000              add [eax],al
0000465B  0022              add [edx],ah
0000465D  000C00            add [eax+eax],cl
00004660  8708              xchg ecx,[eax]
00004662  0000              add [eax],al
00004664  289904083700      sub [ecx+0x370804],bl
0000466A  0000              add [eax],al
0000466C  2200              and al,[eax]
0000466E  0C00              or al,0x0
00004670  B90800003C        mov ecx,0x3c000008
00004675  90                nop
00004676  0408              add al,0x8
00004678  55                push ebp
00004679  0000              add [eax],al
0000467B  0022              add [edx],ah
0000467D  000C00            add [eax+eax],cl
00004680  DE08              fimul word [eax]
00004682  0000              add [eax],al
00004684  629604083700      bound edx,[esi+0x370804]
0000468A  0000              add [eax],al
0000468C  2200              and al,[eax]
0000468E  0C00              or al,0x0
00004690  1C09              sbb al,0x9
00004692  0000              add [eax],al
00004694  52                push edx
00004695  91                xchg eax,ecx
00004696  0408              add al,0x8
00004698  4A                dec edx
00004699  0000              add [eax],al
0000469B  0022              add [edx],ah
0000469D  000C00            add [eax+eax],cl
000046A0  4D                dec ebp
000046A1  0900              or [eax],eax
000046A3  0038              add [eax],bh
000046A5  91                xchg eax,ecx
000046A6  0408              add al,0x8
000046A8  0500000022        add eax,0x22000000
000046AD  000C00            add [eax+eax],cl
000046B0  7B09              jpo 0x46bb
000046B2  0000              add [eax],al
000046B4  3A9204080800      cmp dl,[edx+0x80804]
000046BA  0000              add [eax],al
000046BC  2200              and al,[eax]
000046BE  0C00              or al,0x0
000046C0  BA09000092        mov edx,0x92000009
000046C5  90                nop
000046C6  0408              add al,0x8
000046C8  57                push edi
000046C9  0000              add [eax],al
000046CB  0022              add [edx],ah
000046CD  000C00            add [eax+eax],cl
000046D0  D309              ror dword [ecx],cl
000046D2  0000              add [eax],al
000046D4  B08E              mov al,0x8e
000046D6  0408              add al,0x8
000046D8  1300              adc eax,[eax]
000046DA  0000              add [eax],al
000046DC  2200              and al,[eax]
000046DE  0C00              or al,0x0
000046E0  EA0900007C9B04    jmp 0x49b:0x7c000009
000046E7  0813              or [ebx],dl
000046E9  0000              add [eax],al
000046EB  0022              add [edx],ah
000046ED  000C00            add [eax+eax],cl
000046F0  1A0A              sbb cl,[edx]
000046F2  0000              add [eax],al
000046F4  50                push eax
000046F5  880408            mov [eax+ecx],al
000046F8  0000              add [eax],al
000046FA  0000              add [eax],al
000046FC  1200              adc al,[eax]
000046FE  0000              add [eax],al
00004700  3F                aas
00004701  0A00              or al,[eax]
00004703  006695            add [esi-0x6b],ah
00004706  0408              add al,0x8
00004708  1300              adc eax,[eax]
0000470A  0000              add [eax],al
0000470C  2200              and al,[eax]
0000470E  0C00              or al,0x0
00004710  6D                insd
00004711  0A00              or al,[eax]
00004713  0000              add [eax],al
00004715  0000              add [eax],al
00004717  0000              add [eax],al
00004719  0000              add [eax],al
0000471B  0020              add [eax],ah
0000471D  0000              add [eax],al
0000471F  00890A000000      add [ecx+0xa],cl
00004725  0000              add [eax],al
00004727  0000              add [eax],al
00004729  0000              add [eax],al
0000472B  0012              add [edx],dl
0000472D  0000              add [eax],al
0000472F  00CE              add dh,cl
00004731  0A00              or al,[eax]
00004733  0010              add [eax],dl
00004735  9A04081A000000    call 0x0:0x1a0804
0000473C  2200              and al,[eax]
0000473E  0C00              or al,0x0
00004740  E90A0000FC        jmp 0xfc00474f
00004745  91                xchg eax,ecx
00004746  0408              add al,0x8
00004748  3E0000            add [ds:eax],al
0000474B  0022              add [edx],ah
0000474D  000C00            add [eax+eax],cl
00004750  250B0000E8        and eax,0xe800000b
00004755  9E                sahf
00004756  0408              add al,0x8
00004758  0400              add al,0x0
0000475A  0000              add [eax],al
0000475C  1100              adc [eax],eax
0000475E  0E                push cs
0000475F  00340B            add [ebx+ecx],dh
00004762  0000              add [eax],al
00004764  848E04081800      test [esi+0x180804],cl
0000476A  0000              add [eax],al
0000476C  2200              and al,[eax]
0000476E  0C00              or al,0x0
00004770  47                inc edi
00004771  0B00              or eax,[eax]
00004773  004096            add [eax-0x6a],al
00004776  0408              add al,0x8
00004778  0800              or [eax],al
0000477A  0000              add [eax],al
0000477C  2200              and al,[eax]
0000477E  0C00              or al,0x0
00004780  7A0B              jpe 0x478d
00004782  0000              add [eax],al
00004784  7B8E              jpo 0x4714
00004786  0408              add al,0x8
00004788  0800              or [eax],al
0000478A  0000              add [eax],al
0000478C  2200              and al,[eax]
0000478E  0C00              or al,0x0
00004790  82                db 0x82
00004791  0B00              or eax,[eax]
00004793  0032              add [edx],dh
00004795  91                xchg eax,ecx
00004796  0408              add al,0x8
00004798  0500000022        add eax,0x22000000
0000479D  000C00            add [eax+eax],cl
000047A0  B00B              mov al,0xb
000047A2  0000              add [eax],al
000047A4  BA9C040821        mov edx,0x2108049c
000047A9  0000              add [eax],al
000047AB  0022              add [edx],ah
000047AD  000C00            add [eax+eax],cl
000047B0  DC0B              fmul qword [ebx]
000047B2  0000              add [eax],al
000047B4  D89604082700      fcom dword [esi+0x270804]
000047BA  0000              add [eax],al
000047BC  2200              and al,[eax]
000047BE  0C00              or al,0x0
000047C0  190C00            sbb [eax+eax],ecx
000047C3  0000              add [eax],al
000047C5  0000              add [eax],al
000047C7  0000              add [eax],al
000047C9  0000              add [eax],al
000047CB  0020              add [eax],ah
000047CD  0000              add [eax],al
000047CF  0033              add [ebx],dh
000047D1  0C00              or al,0x0
000047D3  0054B104          add [ecx+esi*4+0x4],dl
000047D7  0800              or [eax],al
000047D9  0000              add [eax],al
000047DB  0010              add [eax],dl
000047DD  0018              add [eax],bl
000047DF  00400C            add [eax+0xc],al
000047E2  0000              add [eax],al
000047E4  1C8F              sbb al,0x8f
000047E6  0408              add al,0x8
000047E8  57                push edi
000047E9  0000              add [eax],al
000047EB  0022              add [edx],ah
000047ED  000C00            add [eax+eax],cl
000047F0  650C00            gs or al,0x0
000047F3  00E1              add cl,ah
000047F5  9B                wait
000047F6  0408              add al,0x8
000047F8  0500000022        add eax,0x22000000
000047FD  000C00            add [eax+eax],cl
00004800  94                xchg eax,esp
00004801  0C00              or al,0x0
00004803  00EB              add bl,ch
00004805  9B                wait
00004806  0408              add al,0x8
00004808  37                aaa
00004809  0000              add [eax],al
0000480B  0022              add [edx],ah
0000480D  000C00            add [eax+eax],cl
00004810  E70C              out 0xc,eax
00004812  0000              add [eax],al
00004814  289904083700      sub [ecx+0x370804],bl
0000481A  0000              add [eax],al
0000481C  2200              and al,[eax]
0000481E  0C00              or al,0x0
00004820  190D00003E91      sbb [0x913e0000],ecx
00004826  0408              add al,0x8
00004828  1300              adc eax,[eax]
0000482A  0000              add [eax],al
0000482C  2200              and al,[eax]
0000482E  0C00              or al,0x0
00004830  53                push ebx
00004831  0D0000F495        or eax,0x95f40000
00004836  0408              add al,0x8
00004838  4B                dec ebx
00004839  0000              add [eax],al
0000483B  0022              add [edx],ah
0000483D  000C00            add [eax+eax],cl
00004840  99                cdq
00004841  0D0000FF96        or eax,0x96ff0000
00004846  0408              add al,0x8
00004848  2100              and [eax],eax
0000484A  0000              add [eax],al
0000484C  2200              and al,[eax]
0000484E  0C00              or al,0x0
00004850  E00D              loopne 0x485f
00004852  0000              add [eax],al
00004854  94                xchg eax,esp
00004855  95                xchg eax,ebp
00004856  0408              add al,0x8
00004858  5F                pop edi
00004859  0000              add [eax],al
0000485B  0022              add [edx],ah
0000485D  000C00            add [eax+eax],cl
00004860  000E              add [esi],cl
00004862  0000              add [eax],al
00004864  5A                pop edx
00004865  95                xchg eax,ebp
00004866  0408              add al,0x8
00004868  0500000022        add eax,0x22000000
0000486D  000C00            add [eax+eax],cl
00004870  240E              and al,0xe
00004872  0000              add [eax],al
00004874  7E92              jng 0x4808
00004876  0408              add al,0x8
00004878  BA02000022        mov edx,0x22000002
0000487D  000C00            add [eax+eax],cl
00004880  82                db 0x82
00004881  0E                push cs
00004882  0000              add [eax],al
00004884  7E9C              jng 0x4822
00004886  0408              add al,0x8
00004888  0A00              or al,[eax]
0000488A  0000              add [eax],al
0000488C  2200              and al,[eax]
0000488E  0C00              or al,0x0
00004890  B80E0000EA        mov eax,0xea00000e
00004895  90                nop
00004896  0408              add al,0x8
00004898  1200              adc al,[eax]
0000489A  0000              add [eax],al
0000489C  2200              and al,[eax]
0000489E  0C00              or al,0x0
000048A0  D10E              ror dword [esi],1
000048A2  0000              add [eax],al
000048A4  109A04081A00      adc [edx+0x1a0804],bl
000048AA  0000              add [eax],al
000048AC  2200              and al,[eax]
000048AE  0C00              or al,0x0
000048B0  EC                in al,dx
000048B1  0E                push cs
000048B2  0000              add [eax],al
000048B4  5C                pop esp
000048B5  B104              mov cl,0x4
000048B7  0800              or [eax],al
000048B9  0000              add [eax],al
000048BB  0011              add [ecx],dl
000048BD  0218              add bl,[eax]
000048BF  00F8              add al,bh
000048C1  0E                push cs
000048C2  0000              add [eax],al
000048C4  E39C              jecxz 0x4862
000048C6  0408              add al,0x8
000048C8  2E0000            add [cs:eax],al
000048CB  0022              add [edx],ah
000048CD  000C00            add [eax+eax],cl
000048D0  220F              and cl,[edi]
000048D2  0000              add [eax],al
000048D4  F69904081A00      neg byte [ecx+0x1a0804]
000048DA  0000              add [eax],al
000048DC  2200              and al,[eax]
000048DE  0C00              or al,0x0
000048E0  3A0F              cmp cl,[edi]
000048E2  0000              add [eax],al
000048E4  00B204088C00      add [edx+0x8c0804],dh
000048EA  0000              add [eax],al
000048EC  1100              adc [eax],eax
000048EE  1900              sbb [eax],eax
000048F0  51                push ecx
000048F1  0F0000            sldt [eax]
000048F4  BA9A040819        mov edx,0x1908049a
000048F9  0000              add [eax],al
000048FB  0022              add [edx],ah
000048FD  000C00            add [eax+eax],cl
00004900  7A0F              jpe 0x4911
00004902  0000              add [eax],al
00004904  229C0408080000    and bl,[esp+eax+0x808]
0000490B  0022              add [edx],ah
0000490D  000C00            add [eax+eax],cl
00004910  AA                stosb
00004911  0F0000            sldt [eax]
00004914  769C              jna 0x48b2
00004916  0408              add al,0x8
00004918  0800              or [eax],al
0000491A  0000              add [eax],al
0000491C  2200              and al,[eax]
0000491E  0C00              or al,0x0
00004920  EA0F000058B104    jmp 0x4b1:0x5800000f
00004927  0800              or [eax],al
00004929  0000              add [eax],al
0000492B  0011              add [ecx],dl
0000492D  0218              add bl,[eax]
0000492F  00F7              add bh,dh
00004931  0F0000            sldt [eax]
00004934  889C0408210000    mov [esp+eax+0x2108],bl
0000493B  0022              add [edx],ah
0000493D  000C00            add [eax+eax],cl
00004940  2C10              sub al,0x10
00004942  0000              add [eax],al
00004944  10B004080000      adc [eax+0x804],dh
0000494A  0000              add [eax],al
0000494C  1102              adc [edx],eax
0000494E  1300              adc eax,[eax]
00004950  3910              cmp [eax],edx
00004952  0000              add [eax],al
00004954  199E04080800      sbb [esi+0x80804],ebx
0000495A  0000              add [eax],al
0000495C  2200              and al,[eax]
0000495E  0C00              or al,0x0
00004960  5F                pop edi
00004961  1000              adc [eax],al
00004963  00AA9C040805      add [edx+0x508049c],ch
00004969  0000              add [eax],al
0000496B  0022              add [edx],ah
0000496D  000C00            add [eax+eax],cl
00004970  8710              xchg edx,[eax]
00004972  0000              add [eax],al
00004974  40                inc eax
00004975  9E                sahf
00004976  0408              add al,0x8
00004978  5A                pop edx
00004979  0000              add [eax],al
0000497B  0012              add [edx],dl
0000497D  000C00            add [eax+eax],cl
00004980  97                xchg eax,edi
00004981  1000              adc [eax],al
00004983  00639A            add [ebx-0x66],ah
00004986  0408              add al,0x8
00004988  1300              adc eax,[eax]
0000498A  0000              add [eax],al
0000498C  2200              and al,[eax]
0000498E  0C00              or al,0x0
00004990  DF10              fist word [eax]
00004992  0000              add [eax],al
00004994  289004081300      sub [eax+0x130804],dl
0000499A  0000              add [eax],al
0000499C  2200              and al,[eax]
0000499E  0C00              or al,0x0
000049A0  EC                in al,dx
000049A1  1000              adc [eax],al
000049A3  001490            add [eax+edx*4],dl
000049A6  0408              add al,0x8
000049A8  1300              adc eax,[eax]
000049AA  0000              add [eax],al
000049AC  2200              and al,[eax]
000049AE  0C00              or al,0x0
000049B0  F9                stc
000049B1  1000              adc [eax],al
000049B3  00769A            add [esi-0x66],dh
000049B6  0408              add al,0x8
000049B8  44                inc esp
000049B9  0000              add [eax],al
000049BB  0022              add [edx],ah
000049BD  000C00            add [eax+eax],cl
000049C0  3811              cmp [ecx],dl
000049C2  0000              add [eax],al
000049C4  868F04081A00      xchg cl,[edi+0x1a0804]
000049CA  0000              add [eax],al
000049CC  2200              and al,[eax]
000049CE  0C00              or al,0x0
000049D0  50                push eax
000049D1  1100              adc [eax],eax
000049D3  00E9              add cl,ch
000049D5  9D                popf
000049D6  0408              add al,0x8
000049D8  3000              xor [eax],al
000049DA  0000              add [eax],al
000049DC  2200              and al,[eax]
000049DE  0C00              or al,0x0
000049E0  B611              mov dh,0x11
000049E2  0000              add [eax],al
000049E4  119D04083E00      adc [ebp+0x3e0804],ebx
000049EA  0000              add [eax],al
000049EC  2200              and al,[eax]
000049EE  0C00              or al,0x0
000049F0  261200            adc al,[es:eax]
000049F3  00E6              add dh,ah
000049F5  9B                wait
000049F6  0408              add al,0x8
000049F8  0500000022        add eax,0x22000000
000049FD  000C00            add [eax+eax],cl
00004A00  58                pop eax
00004A01  1200              adc al,[eax]
00004A03  0000              add [eax],al
00004A05  0000              add [eax],al
00004A07  0000              add [eax],al
00004A09  0000              add [eax],al
00004A0B  0012              add [edx],dl
00004A0D  0000              add [eax],al
00004A0F  006B12            add [ebx+0x12],ch
00004A12  0000              add [eax],al
00004A14  92                xchg eax,edx
00004A15  90                nop
00004A16  0408              add al,0x8
00004A18  57                push edi
00004A19  0000              add [eax],al
00004A1B  0022              add [edx],ah
00004A1D  000C00            add [eax+eax],cl
00004A20  8412              test [edx],dl
00004A22  0000              add [eax],al
00004A24  56                push esi
00004A25  98                cwde
00004A26  0408              add al,0x8
00004A28  1F                pop ds
00004A29  0000              add [eax],al
00004A2B  0022              add [edx],ah
00004A2D  000C00            add [eax+eax],cl
00004A30  AD                lodsd
00004A31  1200              adc al,[eax]
00004A33  005CB104          add [ecx+esi*4+0x4],bl
00004A37  0800              or [eax],al
00004A39  0000              add [eax],al
00004A3B  0010              add [eax],dl
00004A3D  0019              add [ecx],bl
00004A3F  00B9120000EF      add [ecx+0xef000012],bh
00004A45  9A04081B000000    call 0x0:0x1b0804
00004A4C  2200              and al,[eax]
00004A4E  0C00              or al,0x0
00004A50  CF                iret
00004A51  1200              adc al,[eax]
00004A53  00C4              add ah,al
00004A55  8E0408            mov es,[eax+ecx]
00004A58  58                pop eax
00004A59  0000              add [eax],al
00004A5B  0022              add [edx],ah
00004A5D  000C00            add [eax+eax],cl
00004A60  FE                db 0xFE
00004A61  1200              adc al,[eax]
00004A63  00B2970408A4      add [edx+0xa4080497],dh
00004A69  0000              add [eax],al
00004A6B  0022              add [edx],ah
00004A6D  000C00            add [eax+eax],cl
00004A70  3313              xor edx,[ebx]
00004A72  0000              add [eax],al
00004A74  629B04081A00      bound ebx,[ebx+0x1a0804]
00004A7A  0000              add [eax],al
00004A7C  2200              and al,[eax]
00004A7E  0C00              or al,0x0
00004A80  43                inc ebx
00004A81  1300              adc eax,[eax]
00004A83  00A69804082F      add [esi+0x2f080498],ah
00004A89  0000              add [eax],al
00004A8B  0022              add [edx],ah
00004A8D  000C00            add [eax+eax],cl
00004A90  7A13              jpe 0x4aa5
00004A92  0000              add [eax],al
00004A94  17                pop ss
00004A95  91                xchg eax,ecx
00004A96  0408              add al,0x8
00004A98  1B00              sbb eax,[eax]
00004A9A  0000              add [eax],al
00004A9C  2200              and al,[eax]
00004A9E  0C00              or al,0x0
00004AA0  90                nop
00004AA1  1300              adc eax,[eax]
00004AA3  005291            add [edx-0x6f],dl
00004AA6  0408              add al,0x8
00004AA8  4A                dec edx
00004AA9  0000              add [eax],al
00004AAB  0022              add [edx],ah
00004AAD  000C00            add [eax+eax],cl
00004AB0  C11300            rcl dword [ebx],0x0
00004AB3  007097            add [eax-0x69],dh
00004AB6  0408              add al,0x8
00004AB8  3800              cmp [eax],al
00004ABA  0000              add [eax],al
00004ABC  2200              and al,[eax]
00004ABE  0C00              or al,0x0
00004AC0  F1                int1
00004AC1  1300              adc eax,[eax]
00004AC3  0020              add [eax],ah
00004AC5  97                xchg eax,edi
00004AC6  0408              add al,0x8
00004AC8  1A00              sbb al,[eax]
00004ACA  0000              add [eax],al
00004ACC  2200              and al,[eax]
00004ACE  0C00              or al,0x0
00004AD0  131400            adc edx,[eax+eax]
00004AD3  004292            add [edx-0x6e],al
00004AD6  0408              add al,0x8
00004AD8  1A00              sbb al,[eax]
00004ADA  0000              add [eax],al
00004ADC  2200              and al,[eax]
00004ADE  0C00              or al,0x0
00004AE0  40                inc eax
00004AE1  1400              adc al,0x0
00004AE3  005C9B04          add [ebx+ebx*4+0x4],bl
00004AE7  080500000022      or [0x22000000],al
00004AED  000C00            add [eax+eax],cl
00004AF0  7714              ja 0x4b06
00004AF2  0000              add [eax],al
00004AF4  D598              aad 0x98
00004AF6  0408              add al,0x8
00004AF8  2800              sub [eax],al
00004AFA  0000              add [eax],al
00004AFC  2200              and al,[eax]
00004AFE  0C00              or al,0x0
00004B00  C7                db 0xC7
00004B01  1400              adc al,0x0
00004B03  001C8F            add [edi+ecx*4],bl
00004B06  0408              add al,0x8
00004B08  57                push edi
00004B09  0000              add [eax],al
00004B0B  0022              add [edx],ah
00004B0D  000C00            add [eax+eax],cl
00004B10  EC                in al,dx
00004B11  1400              adc al,0x0
00004B13  0000              add [eax],al
00004B15  0000              add [eax],al
00004B17  0000              add [eax],al
00004B19  0000              add [eax],al
00004B1B  0012              add [edx],dl
00004B1D  0000              add [eax],al
00004B1F  0004150000848E    add [edx+0x8e840000],al
00004B26  0408              add al,0x8
00004B28  1800              sbb [eax],al
00004B2A  0000              add [eax],al
00004B2C  2200              and al,[eax]
00004B2E  0C00              or al,0x0
00004B30  17                pop ss
00004B31  150000FC90        adc eax,0x90fc0000
00004B36  0408              add al,0x8
00004B38  1B00              sbb eax,[eax]
00004B3A  0000              add [eax],al
00004B3C  2200              and al,[eax]
00004B3E  0C00              or al,0x0
00004B40  2D15000090        sub eax,0x90000015
00004B45  9B                wait
00004B46  0408              add al,0x8
00004B48  3000              xor [eax],al
00004B4A  0000              add [eax],al
00004B4C  2200              and al,[eax]
00004B4E  0C00              or al,0x0
00004B50  5B                pop ebx
00004B51  1500005E9A        adc eax,0x9a5e0000
00004B56  0408              add al,0x8
00004B58  0500000022        add eax,0x22000000
00004B5D  000C00            add [eax+eax],cl
00004B60  94                xchg eax,esp
00004B61  1500006897        adc eax,0x97680000
00004B66  0408              add al,0x8
00004B68  0800              or [eax],al
00004B6A  0000              add [eax],al
00004B6C  2200              and al,[eax]
00004B6E  0C00              or al,0x0
00004B70  E015              loopne 0x4b87
00004B72  0000              add [eax],al
00004B74  2A9A04081300      sub bl,[edx+0x130804]
00004B7A  0000              add [eax],al
00004B7C  2200              and al,[eax]
00004B7E  0C00              or al,0x0
00004B80  1C16              sbb al,0x16
00004B82  0000              add [eax],al
00004B84  98                cwde
00004B85  B204              mov dl,0x4
00004B87  0800              or [eax],al
00004B89  0000              add [eax],al
00004B8B  0010              add [eax],dl
00004B8D  0019              add [ecx],bl
00004B8F  0021              add [ecx],ah
00004B91  16                push ss
00004B92  0000              add [eax],al
00004B94  0000              add [eax],al
00004B96  0000              add [eax],al
00004B98  0000              add [eax],al
00004B9A  0000              add [eax],al
00004B9C  1200              adc al,[eax]
00004B9E  0000              add [eax],al
00004BA0  3F                aas
00004BA1  16                push ss
00004BA2  0000              add [eax],al
00004BA4  9C                pushf
00004BA5  91                xchg eax,ecx
00004BA6  0408              add al,0x8
00004BA8  5F                pop edi
00004BA9  0000              add [eax],al
00004BAB  0022              add [edx],ah
00004BAD  000C00            add [eax+eax],cl
00004BB0  6B1600            imul edx,[esi],byte +0x0
00004BB3  00629C            add [edx-0x64],ah
00004BB6  0408              add al,0x8
00004BB8  1300              adc eax,[eax]
00004BBA  0000              add [eax],al
00004BBC  2200              and al,[eax]
00004BBE  0C00              or al,0x0
00004BC0  A9160000B0        test eax,0xb0000016
00004BC5  8E0408            mov es,[eax+ecx]
00004BC8  1300              adc eax,[eax]
00004BCA  0000              add [eax],al
00004BCC  2200              and al,[eax]
00004BCE  0C00              or al,0x0
00004BD0  C01600            rcl byte [esi],0x0
00004BD3  009C8E04081300    add [esi+ecx*4+0x130804],bl
00004BDA  0000              add [eax],al
00004BDC  2200              and al,[eax]
00004BDE  0C00              or al,0x0
00004BE0  D7                xlatb
00004BE1  16                push ss
00004BE2  0000              add [eax],al
00004BE4  8C9D04082100      mov [ebp+0x210804],ds
00004BEA  0000              add [eax],al
00004BEC  2200              and al,[eax]
00004BEE  0C00              or al,0x0
00004BF0  1E                push ds
00004BF1  17                pop ss
00004BF2  0000              add [eax],al
00004BF4  3E91              ds xchg eax,ecx
00004BF6  0408              add al,0x8
00004BF8  1300              adc eax,[eax]
00004BFA  0000              add [eax],al
00004BFC  2200              and al,[eax]
00004BFE  0C00              or al,0x0
00004C00  58                pop eax
00004C01  17                pop ss
00004C02  0000              add [eax],al
00004C04  0000              add [eax],al
00004C06  0000              add [eax],al
00004C08  0000              add [eax],al
00004C0A  0000              add [eax],al
00004C0C  1200              adc al,[eax]
00004C0E  0000              add [eax],al
00004C10  7417              jz 0x4c29
00004C12  0000              add [eax],al
00004C14  0000              add [eax],al
00004C16  0000              add [eax],al
00004C18  0000              add [eax],al
00004C1A  0000              add [eax],al
00004C1C  1200              adc al,[eax]
00004C1E  0000              add [eax],al
00004C20  9A170000E69B04    call 0x49b:0xe6000017
00004C27  080500000022      or [0x22000000],al
00004C2D  000C00            add [eax+eax],cl
00004C30  CC                int3
00004C31  17                pop ss
00004C32  0000              add [eax],al
00004C34  9C                pushf
00004C35  91                xchg eax,ecx
00004C36  0408              add al,0x8
00004C38  5F                pop edi
00004C39  0000              add [eax],al
00004C3B  0022              add [edx],ah
00004C3D  000C00            add [eax+eax],cl
00004C40  F8                clc
00004C41  17                pop ss
00004C42  0000              add [eax],al
00004C44  C0880408000000    ror byte [eax+0x804],0x0
00004C4B  0012              add [edx],dl
00004C4D  0000              add [eax],al
00004C4F  004018            add [eax+0x18],al
00004C52  0000              add [eax],al
00004C54  0000              add [eax],al
00004C56  0000              add [eax],al
00004C58  0000              add [eax],al
00004C5A  0000              add [eax],al
00004C5C  1200              adc al,[eax]
00004C5E  0000              add [eax],al
00004C60  5E                pop esi
00004C61  1800              sbb [eax],al
00004C63  00868F04081A      add [esi+0x1a08048f],al
00004C69  0000              add [eax],al
00004C6B  0022              add [edx],ah
00004C6D  000C00            add [eax+eax],cl
00004C70  7618              jna 0x4c8a
00004C72  0000              add [eax],al
00004C74  6695              xchg ax,bp
00004C76  0408              add al,0x8
00004C78  1300              adc eax,[eax]
00004C7A  0000              add [eax],al
00004C7C  2200              and al,[eax]
00004C7E  0C00              or al,0x0
00004C80  A4                movsb
00004C81  1800              sbb [eax],al
00004C83  00748F04          add [edi+ecx*4+0x4],dh
00004C87  0812              or [edx],dl
00004C89  0000              add [eax],al
00004C8B  0022              add [edx],ah
00004C8D  000C00            add [eax+eax],cl
00004C90  C9                leave
00004C91  1800              sbb [eax],al
00004C93  005CB104          add [ecx+esi*4+0x4],bl
00004C97  0800              or [eax],al
00004C99  0000              add [eax],al
00004C9B  0010              add [eax],dl
00004C9D  0018              add [eax],bl
00004C9F  00D0              add al,dl
00004CA1  1800              sbb [eax],al
00004CA3  003D9C040825      add [0x2508049c],bh
00004CA9  0000              add [eax],al
00004CAB  0022              add [edx],ah
00004CAD  000C00            add [eax+eax],cl
00004CB0  0E                push cs
00004CB1  1900              sbb [eax],eax
00004CB3  00E0              add al,ah
00004CB5  880408            mov [eax+ecx],al
00004CB8  0000              add [eax],al
00004CBA  0000              add [eax],al
00004CBC  1200              adc al,[eax]
00004CBE  0000              add [eax],al
00004CC0  2F                das
00004CC1  1900              sbb [eax],eax
00004CC3  0028              add [eax],ch
00004CC5  90                nop
00004CC6  0408              add al,0x8
00004CC8  1300              adc eax,[eax]
00004CCA  0000              add [eax],al
00004CCC  2200              and al,[eax]
00004CCE  0C00              or al,0x0
00004CD0  3C19              cmp al,0x19
00004CD2  0000              add [eax],al
00004CD4  B09C              mov al,0x9c
00004CD6  0408              add al,0x8
00004CD8  0A00              or al,[eax]
00004CDA  0000              add [eax],al
00004CDC  2200              and al,[eax]
00004CDE  0C00              or al,0x0
00004CE0  68190000D4        push dword 0xd4000019
00004CE5  9A04081B000000    call 0x0:0x1b0804
00004CEC  2200              and al,[eax]
00004CEE  0C00              or al,0x0
00004CF0  95                xchg eax,ebp
00004CF1  1900              sbb [eax],eax
00004CF3  0038              add [eax],bh
00004CF5  91                xchg eax,ecx
00004CF6  0408              add al,0x8
00004CF8  0500000022        add eax,0x22000000
00004CFD  000C00            add [eax+eax],cl
00004D00  C3                ret
00004D01  1900              sbb [eax],eax
00004D03  0000              add [eax],al
00004D05  0000              add [eax],al
00004D07  0000              add [eax],al
00004D09  0000              add [eax],al
00004D0B  0012              add [edx],dl
00004D0D  0000              add [eax],al
00004D0F  00DB              add bl,bl
00004D11  1900              sbb [eax],eax
00004D13  0032              add [edx],dh
00004D15  91                xchg eax,ecx
00004D16  0408              add al,0x8
00004D18  0500000022        add eax,0x22000000
00004D1D  000C00            add [eax+eax],cl
00004D20  091A              or [edx],ebx
00004D22  0000              add [eax],al
00004D24  3A9704082E00      cmp dl,[edi+0x2e0804]
00004D2A  0000              add [eax],al
00004D2C  2200              and al,[eax]
00004D2E  0C00              or al,0x0
00004D30  47                inc edi
00004D31  1A00              sbb al,[eax]
00004D33  003A              add [edx],bh
00004D35  9B                wait
00004D36  0408              add al,0x8
00004D38  2100              and [eax],eax
00004D3A  0000              add [eax],al
00004D3C  2200              and al,[eax]
00004D3E  0C00              or al,0x0
00004D40  8B1A              mov ebx,[edx]
00004D42  0000              add [eax],al
00004D44  9A9E0408000000    call 0x0:0x8049e
00004D4B  0012              add [edx],dl
00004D4D  020C00            add cl,[eax+eax]
00004D50  A21A00004F        mov [0x4f00001a],al
00004D55  9D                popf
00004D56  0408              add al,0x8
00004D58  3D00000022        cmp eax,0x22000000
00004D5D  000C00            add [eax+eax],cl
00004D60  F01A00            lock sbb al,[eax]
00004D63  00D6              add dh,dl
00004D65  9D                popf
00004D66  0408              add al,0x8
00004D68  1300              adc eax,[eax]
00004D6A  0000              add [eax],al
00004D6C  2200              and al,[eax]
00004D6E  0C00              or al,0x0
00004D70  2E1B00            sbb eax,[cs:eax]
00004D73  009C8E04081300    add [esi+ecx*4+0x130804],bl
00004D7A  0000              add [eax],al
00004D7C  2200              and al,[eax]
00004D7E  0C00              or al,0x0
00004D80  45                inc ebp
00004D81  1B00              sbb eax,[eax]
00004D83  0020              add [eax],ah
00004D85  8A0408            mov al,[eax+ecx]
00004D88  000400            add [eax+eax],al
00004D8B  0012              add [edx],dl
00004D8D  000C00            add [eax+eax],cl
00004D90  4A                dec edx
00004D91  1B00              sbb eax,[eax]
00004D93  00848704080000    add [edi+eax*4+0x804],al
00004D9A  0000              add [eax],al
00004D9C  1200              adc al,[eax]
00004D9E  0A00              or al,[eax]
00004DA0  50                push eax
00004DA1  1B00              sbb eax,[eax]
00004DA3  005A95            add [edx-0x6b],bl
00004DA6  0408              add al,0x8
00004DA8  0500000022        add eax,0x22000000
00004DAD  000C00            add [eax+eax],cl
00004DB0  741B              jz 0x4dcd
00004DB2  0000              add [eax],al
00004DB4  B89904083E        mov eax,0x3e080499
00004DB9  0000              add [eax],al
00004DBB  0022              add [edx],ah
00004DBD  000C00            add [eax+eax],cl
00004DC0  00696E            add [ecx+0x6e],ch
00004DC3  69742E6300696E69  imul esi,[esi+ebp+0x63],dword 0x696e6900
00004DCB  7466              jz 0x4e33
00004DCD  696E692E630063    imul ebp,[esi+0x69],dword 0x6300632e
00004DD4  7274              jc 0x4e4a
00004DD6  7374              jnc 0x4e4c
00004DD8  7566              jnz 0x4e40
00004DDA  662E6300          o16 arpl [cs:eax],ax
00004DDE  5F                pop edi
00004DDF  5F                pop edi
00004DE0  43                inc ebx
00004DE1  54                push esp
00004DE2  4F                dec edi
00004DE3  52                push edx
00004DE4  5F                pop edi
00004DE5  4C                dec esp
00004DE6  49                dec ecx
00004DE7  53                push ebx
00004DE8  54                push esp
00004DE9  5F                pop edi
00004DEA  5F                pop edi
00004DEB  005F5F            add [edi+0x5f],bl
00004DEE  44                inc esp
00004DEF  54                push esp
00004DF0  4F                dec edi
00004DF1  52                push edx
00004DF2  5F                pop edi
00004DF3  4C                dec esp
00004DF4  49                dec ecx
00004DF5  53                push ebx
00004DF6  54                push esp
00004DF7  5F                pop edi
00004DF8  5F                pop edi
00004DF9  005F5F            add [edi+0x5f],bl
00004DFC  4A                dec edx
00004DFD  43                inc ebx
00004DFE  52                push edx
00004DFF  5F                pop edi
00004E00  4C                dec esp
00004E01  49                dec ecx
00004E02  53                push ebx
00004E03  54                push esp
00004E04  5F                pop edi
00004E05  5F                pop edi
00004E06  00646572          add [ebp+0x72],ah
00004E0A  656769737465725F  imul esi,[gs:bp+di+0x74],dword 0x745f7265
         -74
00004E13  6D                insd
00004E14  5F                pop edi
00004E15  636C6F6E          arpl [edi+ebp*2+0x6e],bp
00004E19  657300            gs jnc 0x4e1c
00004E1C  7265              jc 0x4e83
00004E1E  6769737465725F74  imul esi,[bp+di+0x74],dword 0x745f7265
00004E26  6D                insd
00004E27  5F                pop edi
00004E28  636C6F6E          arpl [edi+ebp*2+0x6e],bp
00004E2C  657300            gs jnc 0x4e2f
00004E2F  5F                pop edi
00004E30  5F                pop edi
00004E31  646F              fs outsd
00004E33  5F                pop edi
00004E34  676C              a16 insb
00004E36  6F                outsd
00004E37  62616C            bound esp,[ecx+0x6c]
00004E3A  5F                pop edi
00004E3B  64746F            fs jz 0x4ead
00004E3E  7273              jc 0x4eb3
00004E40  5F                pop edi
00004E41  61                popa
00004E42  7578              jnz 0x4ebc
00004E44  00636F            add [ebx+0x6f],ah
00004E47  6D                insd
00004E48  706C              jo 0x4eb6
00004E4A  657465            gs jz 0x4eb2
00004E4D  642E3333          xor esi,[cs:ebx]
00004E51  3238              xor bh,[eax]
00004E53  0064746F          add [esp+esi*2+0x6f],ah
00004E57  725F              jc 0x4eb8
00004E59  6964782E33333330  imul esp,[eax+edi*2+0x2e],dword 0x30333333
00004E61  006672            add [esi+0x72],ah
00004E64  61                popa
00004E65  6D                insd
00004E66  655F              gs pop edi
00004E68  64756D            fs jnz 0x4ed8
00004E6B  6D                insd
00004E6C  7900              jns 0x4e6e
00004E6E  5F                pop edi
00004E6F  5F                pop edi
00004E70  43                inc ebx
00004E71  54                push esp
00004E72  4F                dec edi
00004E73  52                push edx
00004E74  5F                pop edi
00004E75  45                inc ebp
00004E76  4E                dec esi
00004E77  44                inc esp
00004E78  5F                pop edi
00004E79  5F                pop edi
00004E7A  005F5F            add [edi+0x5f],bl
00004E7D  46                inc esi
00004E7E  52                push edx
00004E7F  41                inc ecx
00004E80  4D                dec ebp
00004E81  45                inc ebp
00004E82  5F                pop edi
00004E83  45                inc ebp
00004E84  4E                dec esi
00004E85  44                inc esp
00004E86  5F                pop edi
00004E87  5F                pop edi
00004E88  005F5F            add [edi+0x5f],bl
00004E8B  4A                dec edx
00004E8C  43                inc ebx
00004E8D  52                push edx
00004E8E  5F                pop edi
00004E8F  45                inc ebp
00004E90  4E                dec esi
00004E91  44                inc esp
00004E92  5F                pop edi
00004E93  5F                pop edi
00004E94  005F5F            add [edi+0x5f],bl
00004E97  646F              fs outsd
00004E99  5F                pop edi
00004E9A  676C              a16 insb
00004E9C  6F                outsd
00004E9D  62616C            bound esp,[ecx+0x6c]
00004EA0  5F                pop edi
00004EA1  63746F72          arpl [edi+ebp*2+0x72],si
00004EA5  735F              jnc 0x4f06
00004EA7  61                popa
00004EA8  7578              jnz 0x4f22
00004EAA  0031              add [ecx],dh
00004EAC  383432            cmp [edx+esi],dh
00004EAF  3438              xor al,0x38
00004EB1  355F313438        xor eax,0x3834315f
00004EB6  313438            xor [eax+edi],esi
00004EB9  365F              ss pop edi
00004EBB  46                inc esi
00004EBC  656C              gs insb
00004EBE  69782E63707000    imul edi,[eax+0x2e],dword 0x707063
00004EC5  5F                pop edi
00004EC6  5A                pop edx
00004EC7  53                push ebx
00004EC8  744C              jz 0x4f16
00004ECA  385F5F            cmp [edi+0x5f],bl
00004ECD  696F696E697400    imul ebp,[edi+0x69],dword 0x74696e
00004ED4  5F                pop edi
00004ED5  5A                pop edx
00004ED6  3431              xor al,0x31
00004ED8  5F                pop edi
00004ED9  5F                pop edi
00004EDA  7374              jnc 0x4f50
00004EDC  61                popa
00004EDD  7469              jz 0x4f48
00004EDF  635F69            arpl [edi+0x69],bx
00004EE2  6E                outsb
00004EE3  697469616C697A61  imul esi,[ecx+ebp*2+0x61],dword 0x617a696c
00004EEB  7469              jz 0x4f56
00004EED  6F                outsd
00004EEE  6E                outsb
00004EEF  5F                pop edi
00004EF0  61                popa
00004EF1  6E                outsb
00004EF2  645F              fs pop edi
00004EF4  64657374          gs jnc 0x4f6c
00004EF8  7275              jc 0x4f6f
00004EFA  6374696F          arpl [ecx+ebp*2+0x6f],si
00004EFE  6E                outsb
00004EFF  5F                pop edi
00004F00  306969            xor [ecx+0x69],ch
00004F03  005F5A            add [edi+0x5a],bl
00004F06  4C                dec esp
00004F07  33494E            xor ecx,[ecx+0x4e]
00004F0A  46                inc esi
00004F0B  005F47            add [edi+0x47],bl
00004F0E  4C                dec esp
00004F0F  4F                dec edi
00004F10  42                inc edx
00004F11  41                inc ecx
00004F12  4C                dec esp
00004F13  5F                pop edi
00004F14  5F                pop edi
00004F15  7375              jnc 0x4f8c
00004F17  625F49            bound ebx,[edi+0x49]
00004F1A  5F                pop edi
00004F1B  6D                insd
00004F1C  61                popa
00004F1D  696E00656C662D    imul ebp,[esi+0x0],dword 0x2d666c65
00004F24  696E69742E6300    imul ebp,[esi+0x69],dword 0x632e74
00004F2B  5F                pop edi
00004F2C  47                inc edi
00004F2D  4C                dec esp
00004F2E  4F                dec edi
00004F2F  42                inc edx
00004F30  41                inc ecx
00004F31  4C                dec esp
00004F32  5F                pop edi
00004F33  4F                dec edi
00004F34  46                inc esi
00004F35  46                inc esi
00004F36  53                push ebx
00004F37  45                inc ebp
00004F38  54                push esp
00004F39  5F                pop edi
00004F3A  54                push esp
00004F3B  41                inc ecx
00004F3C  42                inc edx
00004F3D  4C                dec esp
00004F3E  45                inc ebp
00004F3F  5F                pop edi
00004F40  005F5F            add [edi+0x5f],bl
00004F43  696E69745F6172    imul ebp,[esi+0x69],dword 0x72615f74
00004F4A  7261              jc 0x4fad
00004F4C  795F              jns 0x4fad
00004F4E  656E              gs outsb
00004F50  64005F5F          add [fs:edi+0x5f],bl
00004F54  696E69745F6172    imul ebp,[esi+0x69],dword 0x72615f74
00004F5B  7261              jc 0x4fbe
00004F5D  795F              jns 0x4fbe
00004F5F  7374              jnc 0x4fd5
00004F61  61                popa
00004F62  7274              jc 0x4fd8
00004F64  005F44            add [edi+0x44],bl
00004F67  59                pop ecx
00004F68  4E                dec esi
00004F69  41                inc ecx
00004F6A  4D                dec ebp
00004F6B  49                dec ecx
00004F6C  43                inc ebx
00004F6D  00646174          add [ecx+0x74],ah
00004F71  61                popa
00004F72  5F                pop edi
00004F73  7374              jnc 0x4fe9
00004F75  61                popa
00004F76  7274              jc 0x4fec
00004F78  005F5A            add [edi+0x5a],bl
00004F7B  53                push ebx
00004F7C  7433              jz 0x4fb1
00004F7E  63696E            arpl [ecx+0x6e],bp
00004F81  40                inc eax
00004F82  40                inc eax
00004F83  47                inc edi
00004F84  4C                dec esp
00004F85  49                dec ecx
00004F86  42                inc edx
00004F87  43                inc ebx
00004F88  58                pop eax
00004F89  58                pop eax
00004F8A  5F                pop edi
00004F8B  332E              xor ebp,[esi]
00004F8D  3400              xor al,0x0
00004F8F  5F                pop edi
00004F90  5A                pop edx
00004F91  4E                dec esi
00004F92  395F5F            cmp [edi+0x5f],ebx
00004F95  676E              a16 outsb
00004F97  755F              jnz 0x4ff8
00004F99  637878            arpl [eax+0x78],di
00004F9C  31345F            xor [edi+ebx*2],esi
00004F9F  5F                pop edi
00004FA0  61                popa
00004FA1  6C                insb
00004FA2  6C                insb
00004FA3  6F                outsd
00004FA4  635F74            arpl [edi+0x74],bx
00004FA7  7261              jc 0x500a
00004FA9  6974734953614953  imul esi,[ebx+esi*2+0x49],dword 0x53496153
00004FB1  7434              jz 0x4fe7
00004FB3  7061              jo 0x5016
00004FB5  69724969694545    imul esi,[edx+0x49],dword 0x45456969
00004FBC  45                inc ebp
00004FBD  37                aaa
00004FBE  64657374          gs jnc 0x5036
00004FC2  726F              jc 0x5033
00004FC4  7945              jns 0x500b
00004FC6  52                push edx
00004FC7  53                push ebx
00004FC8  335F50            xor ebx,[edi+0x50]
00004FCB  53                push ebx
00004FCC  325F00            xor bl,[edi+0x0]
00004FCF  5F                pop edi
00004FD0  5A                pop edx
00004FD1  4E                dec esi
00004FD2  53                push ebx
00004FD3  7436              jz 0x500b
00004FD5  7665              jna 0x503c
00004FD7  63746F72          arpl [edi+ebp*2+0x72],si
00004FDB  49                dec ecx
00004FDC  53                push ebx
00004FDD  7434              jz 0x5013
00004FDF  7061              jo 0x5042
00004FE1  69724969694553    imul esi,[edx+0x49],dword 0x53456969
00004FE8  61                popa
00004FE9  49                dec ecx
00004FEA  53                push ebx
00004FEB  315F45            xor [edi+0x45],ebx
00004FEE  45                inc ebp
00004FEF  33656E            xor esp,[ebp+0x6e]
00004FF2  6445              fs inc ebp
00004FF4  7600              jna 0x4ff6
00004FF6  5F                pop edi
00004FF7  5A                pop edx
00004FF8  4E                dec esi
00004FF9  53                push ebx
00004FFA  7431              jz 0x502d
00004FFC  325F56            xor bl,[edi+0x56]
00004FFF  6563746F72        arpl [gs:edi+ebp*2+0x72],si
00005004  5F                pop edi
00005005  626173            bound esp,[ecx+0x73]
00005008  6549              gs dec ecx
0000500A  69536149694545    imul edx,[ebx+0x61],dword 0x45456949
00005011  43                inc ebx
00005012  324552            xor al,[ebp+0x52]
00005015  4B                dec ebx
00005016  53                push ebx
00005017  305F00            xor [edi+0x0],bl
0000501A  5F                pop edi
0000501B  5A                pop edx
0000501C  53                push ebx
0000501D  7432              jz 0x5051
0000501F  305F5F            xor [edi+0x5f],bl
00005022  7468              jz 0x508c
00005024  726F              jc 0x5095
00005026  775F              ja 0x5087
00005028  6C                insb
00005029  656E              gs outsb
0000502B  677468            a16 jz 0x5096
0000502E  5F                pop edi
0000502F  657272            gs jc 0x50a4
00005032  6F                outsd
00005033  7250              jc 0x5085
00005035  4B                dec ebx
00005036  634040            arpl [eax+0x40],ax
00005039  47                inc edi
0000503A  4C                dec esp
0000503B  49                dec ecx
0000503C  42                inc edx
0000503D  43                inc ebx
0000503E  58                pop eax
0000503F  58                pop eax
00005040  5F                pop edi
00005041  332E              xor ebp,[esi]
00005043  3400              xor al,0x0
00005045  5F                pop edi
00005046  5A                pop edx
00005047  4E                dec esi
00005048  53                push ebx
00005049  7436              jz 0x5081
0000504B  7665              jna 0x50b2
0000504D  63746F72          arpl [edi+ebp*2+0x72],si
00005051  49                dec ecx
00005052  53                push ebx
00005053  7434              jz 0x5089
00005055  7061              jo 0x50b8
00005057  69724969694553    imul esi,[edx+0x49],dword 0x53456969
0000505E  61                popa
0000505F  49                dec ecx
00005060  53                push ebx
00005061  315F45            xor [edi+0x45],ebx
00005064  45                inc ebp
00005065  397075            cmp [eax+0x75],esi
00005068  7368              jnc 0x50d2
0000506A  5F                pop edi
0000506B  626163            bound esp,[ecx+0x63]
0000506E  6B45524B          imul eax,[ebp+0x52],byte +0x4b
00005072  53                push ebx
00005073  315F00            xor [edi+0x0],ebx
00005076  5F                pop edi
00005077  5A                pop edx
00005078  53                push ebx
00005079  7436              jz 0x50b1
0000507B  66696C6C5F6E49    imul bp,[esp+ebp*2+0x5f],word 0x496e
00005082  50                push eax
00005083  696A6945545F53    imul ebp,[edx+0x69],dword 0x535f5445
0000508A  315F54            xor [edi+0x54],ebx
0000508D  305F52            xor [edi+0x52],bl
00005090  4B                dec ebx
00005091  54                push esp
00005092  315F00            xor [edi+0x0],ebx
00005095  5F                pop edi
00005096  5A                pop edx
00005097  4E                dec esi
00005098  53                push ebx
00005099  6F                outsd
0000509A  6C                insb
0000509B  7345              jnc 0x50e2
0000509D  694040474C4942    imul eax,[eax+0x40],dword 0x42494c47
000050A4  43                inc ebx
000050A5  58                pop eax
000050A6  58                pop eax
000050A7  5F                pop edi
000050A8  332E              xor ebp,[esi]
000050AA  3400              xor al,0x0
000050AC  5F                pop edi
000050AD  5F                pop edi
000050AE  637861            arpl [eax+0x61],di
000050B1  5F                pop edi
000050B2  61                popa
000050B3  7465              jz 0x511a
000050B5  7869              js 0x5120
000050B7  7440              jz 0x50f9
000050B9  40                inc eax
000050BA  47                inc edi
000050BB  4C                dec esp
000050BC  49                dec ecx
000050BD  42                inc edx
000050BE  43                inc ebx
000050BF  5F                pop edi
000050C0  322E              xor ch,[esi]
000050C2  312E              xor [esi],ebp
000050C4  3300              xor eax,[eax]
000050C6  5F                pop edi
000050C7  5F                pop edi
000050C8  6C                insb
000050C9  6962635F637375    imul esp,[edx+0x63],dword 0x7573635f
000050D0  5F                pop edi
000050D1  66696E69005F      imul bp,[esi+0x69],word 0x5f00
000050D7  5A                pop edx
000050D8  4E                dec esi
000050D9  395F5F            cmp [edi+0x5f],ebx
000050DC  676E              a16 outsb
000050DE  755F              jnz 0x513f
000050E0  637878            arpl [eax+0x78],di
000050E3  3137              xor [edi],esi
000050E5  5F                pop edi
000050E6  5F                pop edi
000050E7  6E                outsb
000050E8  6F                outsd
000050E9  726D              jc 0x5158
000050EB  61                popa
000050EC  6C                insb
000050ED  5F                pop edi
000050EE  6974657261746F72  imul esi,[ebp+0x72],dword 0x726f7461
000050F6  49                dec ecx
000050F7  50                push eax
000050F8  53                push ebx
000050F9  7434              jz 0x512f
000050FB  7061              jo 0x515e
000050FD  69724969694553    imul esi,[edx+0x49],dword 0x53456969
00005104  7436              jz 0x513c
00005106  7665              jna 0x516d
00005108  63746F72          arpl [edi+ebp*2+0x72],si
0000510C  49                dec ecx
0000510D  53                push ebx
0000510E  325F53            xor bl,[edi+0x53]
00005111  61                popa
00005112  49                dec ecx
00005113  53                push ebx
00005114  325F45            xor bl,[edi+0x45]
00005117  45                inc ebp
00005118  45                inc ebp
00005119  43                inc ebx
0000511A  324552            xor al,[ebp+0x52]
0000511D  4B                dec ebx
0000511E  53                push ebx
0000511F  335F00            xor ebx,[edi+0x0]
00005122  5F                pop edi
00005123  5A                pop edx
00005124  4E                dec esi
00005125  395F5F            cmp [edi+0x5f],ebx
00005128  676E              a16 outsb
0000512A  755F              jnz 0x518b
0000512C  637878            arpl [eax+0x78],di
0000512F  3133              xor [ebx],esi
00005131  6E                outsb
00005132  65775F            gs ja 0x5194
00005135  61                popa
00005136  6C                insb
00005137  6C                insb
00005138  6F                outsd
00005139  636174            arpl [ecx+0x74],sp
0000513C  6F                outsd
0000513D  7249              jc 0x5188
0000513F  53                push ebx
00005140  7434              jz 0x5176
00005142  7061              jo 0x51a5
00005144  69724969694545    imul esi,[edx+0x49],dword 0x45456969
0000514B  38616C            cmp [ecx+0x6c],ah
0000514E  6C                insb
0000514F  6F                outsd
00005150  636174            arpl [ecx+0x74],sp
00005153  6545              gs inc ebp
00005155  6A50              push byte +0x50
00005157  4B                dec ebx
00005158  7600              jna 0x515a
0000515A  5F                pop edi
0000515B  7374              jnc 0x51d1
0000515D  61                popa
0000515E  7274              jc 0x51d4
00005160  005F5A            add [edi+0x5a],bl
00005163  4E                dec esi
00005164  395F5F            cmp [edi+0x5f],ebx
00005167  676E              a16 outsb
00005169  755F              jnz 0x51ca
0000516B  637878            arpl [eax+0x78],di
0000516E  3133              xor [ebx],esi
00005170  6E                outsb
00005171  65775F            gs ja 0x51d3
00005174  61                popa
00005175  6C                insb
00005176  6C                insb
00005177  6F                outsd
00005178  636174            arpl [ecx+0x74],sp
0000517B  6F                outsd
0000517C  7249              jc 0x51c7
0000517E  6945433145524B    imul eax,[ebp+0x43],dword 0x4b524531
00005185  53                push ebx
00005186  315F00            xor [edi+0x0],ebx
00005189  5F                pop edi
0000518A  5A                pop edx
0000518B  4E                dec esi
0000518C  53                push ebx
0000518D  7431              jz 0x51c0
0000518F  325F56            xor bl,[edi+0x56]
00005192  6563746F72        arpl [gs:edi+ebp*2+0x72],si
00005197  5F                pop edi
00005198  626173            bound esp,[ecx+0x73]
0000519B  6549              gs dec ecx
0000519D  69536149694545    imul edx,[ebx+0x61],dword 0x45456949
000051A4  3133              xor [ebx],esi
000051A6  5F                pop edi
000051A7  4D                dec ebp
000051A8  5F                pop edi
000051A9  646561            gs popa
000051AC  6C                insb
000051AD  6C                insb
000051AE  6F                outsd
000051AF  636174            arpl [ecx+0x74],sp
000051B2  6545              gs inc ebp
000051B4  50                push eax
000051B5  696A005F5A4E53    imul ebp,[edx+0x0],dword 0x534e5a5f
000051BC  7436              jz 0x51f4
000051BE  7665              jna 0x5225
000051C0  63746F72          arpl [edi+ebp*2+0x72],si
000051C4  49                dec ecx
000051C5  53                push ebx
000051C6  7434              jz 0x51fc
000051C8  7061              jo 0x522b
000051CA  69724969694553    imul esi,[edx+0x49],dword 0x53456969
000051D1  61                popa
000051D2  49                dec ecx
000051D3  53                push ebx
000051D4  315F45            xor [edi+0x45],ebx
000051D7  45                inc ebp
000051D8  43                inc ebx
000051D9  31456A            xor [ebp+0x6a],eax
000051DC  52                push edx
000051DD  4B                dec ebx
000051DE  53                push ebx
000051DF  315F52            xor [edi+0x52],ebx
000051E2  4B                dec ebx
000051E3  53                push ebx
000051E4  325F00            xor bl,[edi+0x0]
000051E7  5F                pop edi
000051E8  5A                pop edx
000051E9  4E                dec esi
000051EA  4B                dec ebx
000051EB  395F5F            cmp [edi+0x5f],ebx
000051EE  676E              a16 outsb
000051F0  755F              jnz 0x5251
000051F2  637878            arpl [eax+0x78],di
000051F5  3137              xor [edi],esi
000051F7  5F                pop edi
000051F8  5F                pop edi
000051F9  6E                outsb
000051FA  6F                outsd
000051FB  726D              jc 0x526a
000051FD  61                popa
000051FE  6C                insb
000051FF  5F                pop edi
00005200  6974657261746F72  imul esi,[ebp+0x72],dword 0x726f7461
00005208  49                dec ecx
00005209  50                push eax
0000520A  53                push ebx
0000520B  7434              jz 0x5241
0000520D  7061              jo 0x5270
0000520F  69724969694553    imul esi,[edx+0x49],dword 0x53456969
00005216  7436              jz 0x524e
00005218  7665              jna 0x527f
0000521A  63746F72          arpl [edi+ebp*2+0x72],si
0000521E  49                dec ecx
0000521F  53                push ebx
00005220  325F53            xor bl,[edi+0x53]
00005223  61                popa
00005224  49                dec ecx
00005225  53                push ebx
00005226  325F45            xor bl,[edi+0x45]
00005229  45                inc ebp
0000522A  45                inc ebp
0000522B  646545            gs inc ebp
0000522E  7600              jna 0x5230
00005230  5F                pop edi
00005231  5A                pop edx
00005232  4E                dec esi
00005233  53                push ebx
00005234  7431              jz 0x5267
00005236  325F56            xor bl,[edi+0x56]
00005239  6563746F72        arpl [gs:edi+ebp*2+0x72],si
0000523E  5F                pop edi
0000523F  626173            bound esp,[ecx+0x73]
00005242  6549              gs dec ecx
00005244  69536149694545    imul edx,[ebx+0x61],dword 0x45456949
0000524B  44                inc esp
0000524C  324576            xor al,[ebp+0x76]
0000524F  005F5A            add [edi+0x5a],bl
00005252  53                push ebx
00005253  7431              jz 0x5286
00005255  325F5F            xor bl,[edi+0x5f]
00005258  6E                outsb
00005259  697465725F626173  imul esi,[ebp+0x72],dword 0x7361625f
00005261  6549              gs dec ecx
00005263  50                push eax
00005264  53                push ebx
00005265  7434              jz 0x529b
00005267  7061              jo 0x52ca
00005269  69724969694545    imul esi,[edx+0x49],dword 0x45456969
00005270  4E                dec esi
00005271  53                push ebx
00005272  7431              jz 0x52a5
00005274  315F4E            xor [edi+0x4e],ebx
00005277  697465725F626173  imul esi,[ebp+0x72],dword 0x7361625f
0000527F  6549              gs dec ecx
00005281  54                push esp
00005282  5F                pop edi
00005283  45                inc ebp
00005284  3133              xor [ebx],esi
00005286  6974657261746F72  imul esi,[ebp+0x72],dword 0x726f7461
0000528E  5F                pop edi
0000528F  7479              jz 0x530a
00005291  7065              jo 0x52f8
00005293  45                inc ebp
00005294  53                push ebx
00005295  345F              xor al,0x5f
00005297  005F5A            add [edi+0x5a],bl
0000529A  53                push ebx
0000529B  7431              jz 0x52ce
0000529D  315F5F            xor [edi+0x5f],ebx
000052A0  61                popa
000052A1  64647265          fs jc 0x530a
000052A5  7373              jnc 0x531a
000052A7  6F                outsd
000052A8  6649              dec cx
000052AA  53                push ebx
000052AB  7434              jz 0x52e1
000052AD  7061              jo 0x5310
000052AF  69724969694545    imul esi,[edx+0x49],dword 0x45456969
000052B6  50                push eax
000052B7  54                push esp
000052B8  5F                pop edi
000052B9  52                push edx
000052BA  53                push ebx
000052BB  325F00            xor bl,[edi+0x0]
000052BE  5F                pop edi
000052BF  5F                pop edi
000052C0  676D              a16 insd
000052C2  6F                outsd
000052C3  6E                outsb
000052C4  5F                pop edi
000052C5  7374              jnc 0x533b
000052C7  61                popa
000052C8  7274              jc 0x533e
000052CA  5F                pop edi
000052CB  5F                pop edi
000052CC  005F4A            add [edi+0x4a],bl
000052CF  765F              jna 0x5330
000052D1  52                push edx
000052D2  6567697374657243  imul esi,[gs:bp+di+0x74],dword 0x6c437265
         -6C
000052DB  61                popa
000052DC  7373              jnc 0x5351
000052DE  657300            gs jnc 0x52e1
000052E1  5F                pop edi
000052E2  5A                pop edx
000052E3  4E                dec esi
000052E4  53                push ebx
000052E5  7431              jz 0x5318
000052E7  325F56            xor bl,[edi+0x56]
000052EA  6563746F72        arpl [gs:edi+ebp*2+0x72],si
000052EF  5F                pop edi
000052F0  626173            bound esp,[ecx+0x73]
000052F3  6549              gs dec ecx
000052F5  69536149694545    imul edx,[ebx+0x61],dword 0x45456949
000052FC  3131              xor [ecx],esi
000052FE  5F                pop edi
000052FF  4D                dec ebp
00005300  5F                pop edi
00005301  61                popa
00005302  6C                insb
00005303  6C                insb
00005304  6F                outsd
00005305  636174            arpl [ecx+0x74],sp
00005308  6545              gs inc ebp
0000530A  6A00              push byte +0x0
0000530C  5F                pop edi
0000530D  66705F            o16 jo 0x536f
00005310  6877005F5A        push dword 0x5a5f0077
00005315  4E                dec esi
00005316  395F5F            cmp [edi+0x5f],ebx
00005319  676E              a16 outsb
0000531B  755F              jnz 0x537c
0000531D  637878            arpl [eax+0x78],di
00005320  6D                insd
00005321  69495053743470    imul ecx,[ecx+0x50],dword 0x70347453
00005328  61                popa
00005329  69724969694553    imul esi,[edx+0x49],dword 0x53456969
00005330  7436              jz 0x5368
00005332  7665              jna 0x5399
00005334  63746F72          arpl [edi+ebp*2+0x72],si
00005338  49                dec ecx
00005339  53                push ebx
0000533A  325F53            xor bl,[edi+0x53]
0000533D  61                popa
0000533E  49                dec ecx
0000533F  53                push ebx
00005340  325F45            xor bl,[edi+0x45]
00005343  45                inc ebp
00005344  45                inc ebp
00005345  45                inc ebp
00005346  4E                dec esi
00005347  53                push ebx
00005348  5F                pop edi
00005349  3137              xor [edi],esi
0000534B  5F                pop edi
0000534C  5F                pop edi
0000534D  6E                outsb
0000534E  6F                outsd
0000534F  726D              jc 0x53be
00005351  61                popa
00005352  6C                insb
00005353  5F                pop edi
00005354  6974657261746F72  imul esi,[ebp+0x72],dword 0x726f7461
0000535C  49                dec ecx
0000535D  54                push esp
0000535E  5F                pop edi
0000535F  54                push esp
00005360  305F45            xor [edi+0x45],bl
00005363  313564696666      xor [0x66666964],esi
00005369  657265            gs jc 0x53d1
0000536C  6E                outsb
0000536D  63655F            arpl [ebp+0x5f],sp
00005370  7479              jz 0x53eb
00005372  7065              jo 0x53d9
00005374  45                inc ebp
00005375  52                push edx
00005376  4B                dec ebx
00005377  53                push ebx
00005378  41                inc ecx
00005379  5F                pop edi
0000537A  53                push ebx
0000537B  44                inc esp
0000537C  5F                pop edi
0000537D  005F5A            add [edi+0x5a],bl
00005380  4E                dec esi
00005381  53                push ebx
00005382  7431              jz 0x53b5
00005384  325F56            xor bl,[edi+0x56]
00005387  6563746F72        arpl [gs:edi+ebp*2+0x72],si
0000538C  5F                pop edi
0000538D  626173            bound esp,[ecx+0x73]
00005390  6549              gs dec ecx
00005392  69536149694545    imul edx,[ebx+0x61],dword 0x45456949
00005399  43                inc ebx
0000539A  314552            xor [ebp+0x52],eax
0000539D  4B                dec ebx
0000539E  53                push ebx
0000539F  305F00            xor [edi+0x0],bl
000053A2  5F                pop edi
000053A3  5A                pop edx
000053A4  646C              fs insb
000053A6  50                push eax
000053A7  7640              jna 0x53e9
000053A9  40                inc eax
000053AA  47                inc edi
000053AB  4C                dec esp
000053AC  49                dec ecx
000053AD  42                inc edx
000053AE  43                inc ebx
000053AF  58                pop eax
000053B0  58                pop eax
000053B1  5F                pop edi
000053B2  332E              xor ebp,[esi]
000053B4  3400              xor al,0x0
000053B6  5F                pop edi
000053B7  5A                pop edx
000053B8  4E                dec esi
000053B9  395F5F            cmp [edi+0x5f],ebx
000053BC  676E              a16 outsb
000053BE  755F              jnz 0x541f
000053C0  637878            arpl [eax+0x78],di
000053C3  3133              xor [ebx],esi
000053C5  6E                outsb
000053C6  65775F            gs ja 0x5428
000053C9  61                popa
000053CA  6C                insb
000053CB  6C                insb
000053CC  6F                outsd
000053CD  636174            arpl [ecx+0x74],sp
000053D0  6F                outsd
000053D1  7249              jc 0x541c
000053D3  69454431457600    imul eax,[ebp+0x44],dword 0x764531
000053DA  5F                pop edi
000053DB  5A                pop edx
000053DC  4E                dec esi
000053DD  53                push ebx
000053DE  61                popa
000053DF  49                dec ecx
000053E0  6945433145524B    imul eax,[ebp+0x43],dword 0x4b524531
000053E7  53                push ebx
000053E8  5F                pop edi
000053E9  005F5A            add [edi+0x5a],bl
000053EC  4E                dec esi
000053ED  53                push ebx
000053EE  7431              jz 0x5421
000053F0  325F56            xor bl,[edi+0x56]
000053F3  6563746F72        arpl [gs:edi+ebp*2+0x72],si
000053F8  5F                pop edi
000053F9  626173            bound esp,[ecx+0x73]
000053FC  6549              gs dec ecx
000053FE  53                push ebx
000053FF  7434              jz 0x5435
00005401  7061              jo 0x5464
00005403  69724969694553    imul esi,[edx+0x49],dword 0x53456969
0000540A  61                popa
0000540B  49                dec ecx
0000540C  53                push ebx
0000540D  315F45            xor [edi+0x45],ebx
00005410  45                inc ebp
00005411  3137              xor [edi],esi
00005413  5F                pop edi
00005414  4D                dec ebp
00005415  5F                pop edi
00005416  637265            arpl [edx+0x65],si
00005419  61                popa
0000541A  7465              jz 0x5481
0000541C  5F                pop edi
0000541D  7374              jnc 0x5493
0000541F  6F                outsd
00005420  7261              jc 0x5483
00005422  676545            gs a16 inc ebp
00005425  6A00              push byte +0x0
00005427  5F                pop edi
00005428  5A                pop edx
00005429  4E                dec esi
0000542A  395F5F            cmp [edi+0x5f],ebx
0000542D  676E              a16 outsb
0000542F  755F              jnz 0x5490
00005431  637878            arpl [eax+0x78],di
00005434  31345F            xor [edi+ebx*2],esi
00005437  5F                pop edi
00005438  61                popa
00005439  6C                insb
0000543A  6C                insb
0000543B  6F                outsd
0000543C  635F74            arpl [edi+0x74],bx
0000543F  7261              jc 0x54a2
00005441  6974734953614953  imul esi,[ebx+esi*2+0x49],dword 0x53496153
00005449  7434              jz 0x547f
0000544B  7061              jo 0x54ae
0000544D  69724969694545    imul esi,[edx+0x49],dword 0x45456969
00005454  45                inc ebp
00005455  39636F            cmp [ebx+0x6f],esp
00005458  6E                outsb
00005459  7374              jnc 0x54cf
0000545B  7275              jc 0x54d2
0000545D  63744953          arpl [ecx+ecx*2+0x53],si
00005461  325F45            xor bl,[edi+0x45]
00005464  45                inc ebp
00005465  7652              jna 0x54b9
00005467  53                push ebx
00005468  335F50            xor ebx,[edi+0x50]
0000546B  53                push ebx
0000546C  325F52            xor bl,[edi+0x52]
0000546F  4B                dec ebx
00005470  54                push esp
00005471  5F                pop edi
00005472  005F5A            add [edi+0x5a],bl
00005475  53                push ebx
00005476  7432              jz 0x54aa
00005478  345F              xor al,0x5f
0000547A  5F                pop edi
0000547B  756E              jnz 0x54eb
0000547D  696E697469616C    imul ebp,[esi+0x69],dword 0x6c616974
00005484  697A65645F6669    imul edi,[edx+0x65],dword 0x69665f64
0000548B  6C                insb
0000548C  6C                insb
0000548D  5F                pop edi
0000548E  6E                outsb
0000548F  5F                pop edi
00005490  61                popa
00005491  49                dec ecx
00005492  50                push eax
00005493  696A6969457654    imul ebp,[edx+0x69],dword 0x54764569
0000549A  5F                pop edi
0000549B  54                push esp
0000549C  305F52            xor [edi+0x52],bl
0000549F  4B                dec ebx
000054A0  54                push esp
000054A1  315F52            xor [edi+0x52],ebx
000054A4  53                push ebx
000054A5  61                popa
000054A6  49                dec ecx
000054A7  54                push esp
000054A8  325F45            xor bl,[edi+0x45]
000054AB  005F66            add [edi+0x66],bl
000054AE  696E69005F5A4E    imul ebp,[esi+0x69],dword 0x4e5a5f00
000054B5  53                push ebx
000054B6  61                popa
000054B7  49                dec ecx
000054B8  69454332457600    imul eax,[ebp+0x43],dword 0x764532
000054BF  5F                pop edi
000054C0  5F                pop edi
000054C1  637861            arpl [eax+0x61],di
000054C4  5F                pop edi
000054C5  7265              jc 0x552c
000054C7  7468              jz 0x5531
000054C9  726F              jc 0x553a
000054CB  7740              ja 0x550d
000054CD  40                inc eax
000054CE  43                inc ebx
000054CF  58                pop eax
000054D0  58                pop eax
000054D1  41                inc ecx
000054D2  42                inc edx
000054D3  49                dec ecx
000054D4  5F                pop edi
000054D5  312E              xor [esi],ebp
000054D7  3300              xor eax,[eax]
000054D9  5F                pop edi
000054DA  5A                pop edx
000054DB  4E                dec esi
000054DC  53                push ebx
000054DD  7438              jz 0x5517
000054DF  696F735F626173    imul ebp,[edi+0x73],dword 0x7361625f
000054E6  653449            gs xor al,0x49
000054E9  6E                outsb
000054EA  6974433145764040  imul esi,[ebx+eax*2+0x31],dword 0x40407645
000054F2  47                inc edi
000054F3  4C                dec esp
000054F4  49                dec ecx
000054F5  42                inc edx
000054F6  43                inc ebx
000054F7  58                pop eax
000054F8  58                pop eax
000054F9  5F                pop edi
000054FA  332E              xor ebp,[esi]
000054FC  3400              xor al,0x0
000054FE  5F                pop edi
000054FF  5A                pop edx
00005500  53                push ebx
00005501  7432              jz 0x5535
00005503  30756E            xor [ebp+0x6e],dh
00005506  696E697469616C    imul ebp,[esi+0x69],dword 0x6c616974
0000550D  697A65645F6669    imul edi,[edx+0x65],dword 0x69665f64
00005514  6C                insb
00005515  6C                insb
00005516  5F                pop edi
00005517  6E                outsb
00005518  49                dec ecx
00005519  50                push eax
0000551A  53                push ebx
0000551B  7434              jz 0x5551
0000551D  7061              jo 0x5580
0000551F  6972496969456A    imul esi,[edx+0x49],dword 0x6a456969
00005526  53                push ebx
00005527  315F45            xor [edi+0x45],ebx
0000552A  7654              jna 0x5580
0000552C  5F                pop edi
0000552D  54                push esp
0000552E  305F52            xor [edi+0x52],bl
00005531  4B                dec ebx
00005532  54                push esp
00005533  315F00            xor [edi+0x0],ebx
00005536  5F                pop edi
00005537  5A                pop edx
00005538  4E                dec esi
00005539  53                push ebx
0000553A  7436              jz 0x5572
0000553C  7665              jna 0x55a3
0000553E  63746F72          arpl [edi+ebp*2+0x72],si
00005542  49                dec ecx
00005543  69536149694545    imul edx,[ebx+0x61],dword 0x45456949
0000554A  43                inc ebx
0000554B  324969            xor cl,[ecx+0x69]
0000554E  45                inc ebp
0000554F  45                inc ebp
00005550  54                push esp
00005551  5F                pop edi
00005552  53                push ebx
00005553  335F52            xor ebx,[edi+0x52]
00005556  4B                dec ebx
00005557  53                push ebx
00005558  305F00            xor [edi+0x0],bl
0000555B  5F                pop edi
0000555C  5A                pop edx
0000555D  4E                dec esi
0000555E  395F5F            cmp [edi+0x5f],ebx
00005561  676E              a16 outsb
00005563  755F              jnz 0x55c4
00005565  637878            arpl [eax+0x78],di
00005568  3133              xor [ebx],esi
0000556A  6E                outsb
0000556B  65775F            gs ja 0x55cd
0000556E  61                popa
0000556F  6C                insb
00005570  6C                insb
00005571  6F                outsd
00005572  636174            arpl [ecx+0x74],sp
00005575  6F                outsd
00005576  7249              jc 0x55c1
00005578  69454432457600    imul eax,[ebp+0x44],dword 0x764532
0000557F  5F                pop edi
00005580  5F                pop edi
00005581  6C                insb
00005582  6962635F737461    imul esp,[edx+0x63],dword 0x6174735f
00005589  7274              jc 0x55ff
0000558B  5F                pop edi
0000558C  6D                insd
0000558D  61                popa
0000558E  696E4040474C49    imul ebp,[esi+0x40],dword 0x494c4740
00005595  42                inc edx
00005596  43                inc ebx
00005597  5F                pop edi
00005598  322E              xor ch,[esi]
0000559A  3000              xor [eax],al
0000559C  5F                pop edi
0000559D  5A                pop edx
0000559E  53                push ebx
0000559F  7438              jz 0x55d9
000055A1  5F                pop edi
000055A2  44                inc esp
000055A3  657374            gs jnc 0x561a
000055A6  726F              jc 0x5617
000055A8  7949              jns 0x55f3
000055AA  50                push eax
000055AB  69694576545F53    imul ebp,[ecx+0x45],dword 0x535f5476
000055B2  315F52            xor [edi+0x52],ebx
000055B5  53                push ebx
000055B6  61                popa
000055B7  49                dec ecx
000055B8  54                push esp
000055B9  305F45            xor [edi+0x45],bl
000055BC  005F5A            add [edi+0x5a],bl
000055BF  4E                dec esi
000055C0  395F5F            cmp [edi+0x5f],ebx
000055C3  676E              a16 outsb
000055C5  755F              jnz 0x5626
000055C7  637878            arpl [eax+0x78],di
000055CA  3137              xor [edi],esi
000055CC  5F                pop edi
000055CD  5F                pop edi
000055CE  6E                outsb
000055CF  6F                outsd
000055D0  726D              jc 0x563f
000055D2  61                popa
000055D3  6C                insb
000055D4  5F                pop edi
000055D5  6974657261746F72  imul esi,[ebp+0x72],dword 0x726f7461
000055DD  49                dec ecx
000055DE  50                push eax
000055DF  53                push ebx
000055E0  7434              jz 0x5616
000055E2  7061              jo 0x5645
000055E4  69724969694553    imul esi,[edx+0x49],dword 0x53456969
000055EB  7436              jz 0x5623
000055ED  7665              jna 0x5654
000055EF  63746F72          arpl [edi+ebp*2+0x72],si
000055F3  49                dec ecx
000055F4  53                push ebx
000055F5  325F53            xor bl,[edi+0x53]
000055F8  61                popa
000055F9  49                dec ecx
000055FA  53                push ebx
000055FB  325F45            xor bl,[edi+0x45]
000055FE  45                inc ebp
000055FF  45                inc ebp
00005600  43                inc ebx
00005601  314552            xor [ebp+0x52],eax
00005604  4B                dec ebx
00005605  53                push ebx
00005606  335F00            xor ebx,[edi+0x0]
00005609  5F                pop edi
0000560A  5A                pop edx
0000560B  4E                dec esi
0000560C  53                push ebx
0000560D  7431              jz 0x5640
0000560F  325F56            xor bl,[edi+0x56]
00005612  6563746F72        arpl [gs:edi+ebp*2+0x72],si
00005617  5F                pop edi
00005618  626173            bound esp,[ecx+0x73]
0000561B  6549              gs dec ecx
0000561D  53                push ebx
0000561E  7434              jz 0x5654
00005620  7061              jo 0x5683
00005622  69724969694553    imul esi,[edx+0x49],dword 0x53456969
00005629  61                popa
0000562A  49                dec ecx
0000562B  53                push ebx
0000562C  315F45            xor [edi+0x45],ebx
0000562F  45                inc ebp
00005630  3132              xor [edx],esi
00005632  5F                pop edi
00005633  56                push esi
00005634  6563746F72        arpl [gs:edi+ebp*2+0x72],si
00005639  5F                pop edi
0000563A  696D706C433245    imul ebp,[ebp+0x70],dword 0x4532436c
00005641  52                push edx
00005642  4B                dec ebx
00005643  53                push ebx
00005644  325F00            xor bl,[edi+0x0]
00005647  5F                pop edi
00005648  5A                pop edx
00005649  4E                dec esi
0000564A  53                push ebx
0000564B  7431              jz 0x567e
0000564D  325F56            xor bl,[edi+0x56]
00005650  6563746F72        arpl [gs:edi+ebp*2+0x72],si
00005655  5F                pop edi
00005656  626173            bound esp,[ecx+0x73]
00005659  6549              gs dec ecx
0000565B  69536149694545    imul edx,[ebx+0x61],dword 0x45456949
00005662  3132              xor [edx],esi
00005664  5F                pop edi
00005665  56                push esi
00005666  6563746F72        arpl [gs:edi+ebp*2+0x72],si
0000566B  5F                pop edi
0000566C  696D706C433145    imul ebp,[ebp+0x70],dword 0x4531436c
00005673  52                push edx
00005674  4B                dec ebx
00005675  53                push ebx
00005676  305F00            xor [edi+0x0],bl
00005679  5F                pop edi
0000567A  5A                pop edx
0000567B  4E                dec esi
0000567C  53                push ebx
0000567D  7436              jz 0x56b5
0000567F  7665              jna 0x56e6
00005681  63746F72          arpl [edi+ebp*2+0x72],si
00005685  49                dec ecx
00005686  69536149694545    imul edx,[ebx+0x61],dword 0x45456949
0000568D  43                inc ebx
0000568E  314969            xor [ecx+0x69],ecx
00005691  45                inc ebp
00005692  45                inc ebp
00005693  54                push esp
00005694  5F                pop edi
00005695  53                push ebx
00005696  335F52            xor ebx,[edi+0x52]
00005699  4B                dec ebx
0000569A  53                push ebx
0000569B  305F00            xor [edi+0x0],bl
0000569E  5F                pop edi
0000569F  5A                pop edx
000056A0  4E                dec esi
000056A1  53                push ebx
000056A2  7431              jz 0x56d5
000056A4  325F56            xor bl,[edi+0x56]
000056A7  6563746F72        arpl [gs:edi+ebp*2+0x72],si
000056AC  5F                pop edi
000056AD  626173            bound esp,[ecx+0x73]
000056B0  6549              gs dec ecx
000056B2  53                push ebx
000056B3  7434              jz 0x56e9
000056B5  7061              jo 0x5718
000056B7  69724969694553    imul esi,[edx+0x49],dword 0x53456969
000056BE  61                popa
000056BF  49                dec ecx
000056C0  53                push ebx
000056C1  315F45            xor [edi+0x45],ebx
000056C4  45                inc ebp
000056C5  3132              xor [edx],esi
000056C7  5F                pop edi
000056C8  56                push esi
000056C9  6563746F72        arpl [gs:edi+ebp*2+0x72],si
000056CE  5F                pop edi
000056CF  696D706C433145    imul ebp,[ebp+0x70],dword 0x4531436c
000056D6  52                push edx
000056D7  4B                dec ebx
000056D8  53                push ebx
000056D9  325F00            xor bl,[edi+0x0]
000056DC  5F                pop edi
000056DD  5A                pop edx
000056DE  4E                dec esi
000056DF  53                push ebx
000056E0  7431              jz 0x5713
000056E2  325F56            xor bl,[edi+0x56]
000056E5  6563746F72        arpl [gs:edi+ebp*2+0x72],si
000056EA  5F                pop edi
000056EB  626173            bound esp,[ecx+0x73]
000056EE  6549              gs dec ecx
000056F0  53                push ebx
000056F1  7434              jz 0x5727
000056F3  7061              jo 0x5756
000056F5  69724969694553    imul esi,[edx+0x49],dword 0x53456969
000056FC  61                popa
000056FD  49                dec ecx
000056FE  53                push ebx
000056FF  315F45            xor [edi+0x45],ebx
00005702  45                inc ebp
00005703  43                inc ebx
00005704  31456A            xor [ebp+0x6a],eax
00005707  52                push edx
00005708  4B                dec ebx
00005709  53                push ebx
0000570A  325F00            xor bl,[edi+0x0]
0000570D  5F                pop edi
0000570E  5A                pop edx
0000570F  4E                dec esi
00005710  395F5F            cmp [edi+0x5f],ebx
00005713  676E              a16 outsb
00005715  755F              jnz 0x5776
00005717  637878            arpl [eax+0x78],di
0000571A  3133              xor [ebx],esi
0000571C  6E                outsb
0000571D  65775F            gs ja 0x577f
00005720  61                popa
00005721  6C                insb
00005722  6C                insb
00005723  6F                outsd
00005724  636174            arpl [ecx+0x74],sp
00005727  6F                outsd
00005728  7249              jc 0x5773
0000572A  53                push ebx
0000572B  7434              jz 0x5761
0000572D  7061              jo 0x5790
0000572F  69724969694545    imul esi,[edx+0x49],dword 0x45456969
00005736  44                inc esp
00005737  314576            xor [ebp+0x76],eax
0000573A  005F5A            add [edi+0x5a],bl
0000573D  4E                dec esi
0000573E  53                push ebx
0000573F  7431              jz 0x5772
00005741  325F56            xor bl,[edi+0x56]
00005744  6563746F72        arpl [gs:edi+ebp*2+0x72],si
00005749  5F                pop edi
0000574A  626173            bound esp,[ecx+0x73]
0000574D  6549              gs dec ecx
0000574F  53                push ebx
00005750  7434              jz 0x5786
00005752  7061              jo 0x57b5
00005754  69724969694553    imul esi,[edx+0x49],dword 0x53456969
0000575B  61                popa
0000575C  49                dec ecx
0000575D  53                push ebx
0000575E  315F45            xor [edi+0x45],ebx
00005761  45                inc ebp
00005762  3139              xor [ecx],edi
00005764  5F                pop edi
00005765  4D                dec ebp
00005766  5F                pop edi
00005767  6765745F          gs a16 jz 0x57ca
0000576B  54                push esp
0000576C  705F              jo 0x57cd
0000576E  61                popa
0000576F  6C                insb
00005770  6C                insb
00005771  6F                outsd
00005772  636174            arpl [ecx+0x74],sp
00005775  6F                outsd
00005776  7245              jc 0x57bd
00005778  7600              jna 0x577a
0000577A  5F                pop edi
0000577B  5A                pop edx
0000577C  4E                dec esi
0000577D  53                push ebx
0000577E  7436              jz 0x57b6
00005780  7665              jna 0x57e7
00005782  63746F72          arpl [edi+ebp*2+0x72],si
00005786  49                dec ecx
00005787  69536149694545    imul edx,[ebx+0x61],dword 0x45456949
0000578E  44                inc esp
0000578F  314576            xor [ebp+0x76],eax
00005792  005F5A            add [edi+0x5a],bl
00005795  4E                dec esi
00005796  53                push ebx
00005797  61                popa
00005798  49                dec ecx
00005799  53                push ebx
0000579A  7434              jz 0x57d0
0000579C  7061              jo 0x57ff
0000579E  69724969694545    imul esi,[edx+0x49],dword 0x45456969
000057A5  44                inc esp
000057A6  314576            xor [ebp+0x76],eax
000057A9  005F5A            add [edi+0x5a],bl
000057AC  4E                dec esi
000057AD  395F5F            cmp [edi+0x5f],ebx
000057B0  676E              a16 outsb
000057B2  755F              jnz 0x5813
000057B4  637878            arpl [eax+0x78],di
000057B7  3133              xor [ebx],esi
000057B9  6E                outsb
000057BA  65775F            gs ja 0x581c
000057BD  61                popa
000057BE  6C                insb
000057BF  6C                insb
000057C0  6F                outsd
000057C1  636174            arpl [ecx+0x74],sp
000057C4  6F                outsd
000057C5  7249              jc 0x5810
000057C7  69453130646561    imul eax,[ebp+0x31],dword 0x61656430
000057CE  6C                insb
000057CF  6C                insb
000057D0  6F                outsd
000057D1  636174            arpl [ecx+0x74],sp
000057D4  6545              gs inc ebp
000057D6  50                push eax
000057D7  696A005F5A4E53    imul ebp,[edx+0x0],dword 0x534e5a5f
000057DE  7438              jz 0x5818
000057E0  696F735F626173    imul ebp,[edi+0x73],dword 0x7361625f
000057E7  653449            gs xor al,0x49
000057EA  6E                outsb
000057EB  6974443145764040  imul esi,[esp+eax*2+0x31],dword 0x40407645
000057F3  47                inc edi
000057F4  4C                dec esp
000057F5  49                dec ecx
000057F6  42                inc edx
000057F7  43                inc ebx
000057F8  58                pop eax
000057F9  58                pop eax
000057FA  5F                pop edi
000057FB  332E              xor ebp,[esi]
000057FD  3400              xor al,0x0
000057FF  5F                pop edi
00005800  5A                pop edx
00005801  4E                dec esi
00005802  53                push ebx
00005803  7431              jz 0x5836
00005805  325F56            xor bl,[edi+0x56]
00005808  6563746F72        arpl [gs:edi+ebp*2+0x72],si
0000580D  5F                pop edi
0000580E  626173            bound esp,[ecx+0x73]
00005811  6549              gs dec ecx
00005813  69536149694545    imul edx,[ebx+0x61],dword 0x45456949
0000581A  3132              xor [edx],esi
0000581C  5F                pop edi
0000581D  56                push esi
0000581E  6563746F72        arpl [gs:edi+ebp*2+0x72],si
00005823  5F                pop edi
00005824  696D706C443245    imul ebp,[ebp+0x70],dword 0x4532446c
0000582B  7600              jna 0x582d
0000582D  5F                pop edi
0000582E  49                dec ecx
0000582F  54                push esp
00005830  4D                dec ebp
00005831  5F                pop edi
00005832  64657265          gs jc 0x589b
00005836  676973746572544D  imul esi,[bp+di+0x74],dword 0x4d547265
0000583E  43                inc ebx
0000583F  6C                insb
00005840  6F                outsd
00005841  6E                outsb
00005842  6554              gs push esp
00005844  61                popa
00005845  626C6500          bound ebp,[ebp+0x0]
00005849  5F                pop edi
0000584A  5A                pop edx
0000584B  53                push ebx
0000584C  746C              jz 0x58ba
0000584E  7349              jnc 0x5899
00005850  53                push ebx
00005851  7431              jz 0x5884
00005853  316368            xor [ebx+0x68],esp
00005856  61                popa
00005857  725F              jc 0x58b8
00005859  7472              jz 0x58cd
0000585B  61                popa
0000585C  6974734963454552  imul esi,[ebx+esi*2+0x49],dword 0x52454563
00005864  53                push ebx
00005865  7431              jz 0x5898
00005867  336261            xor esp,[edx+0x61]
0000586A  7369              jnc 0x58d5
0000586C  635F6F            arpl [edi+0x6f],bx
0000586F  7374              jnc 0x58e5
00005871  7265              jc 0x58d8
00005873  61                popa
00005874  6D                insd
00005875  49                dec ecx
00005876  63545F45          arpl [edi+ebx*2+0x45],dx
0000587A  53                push ebx
0000587B  355F504B63        xor eax,0x634b505f
00005880  40                inc eax
00005881  40                inc eax
00005882  47                inc edi
00005883  4C                dec esp
00005884  49                dec ecx
00005885  42                inc edx
00005886  43                inc ebx
00005887  58                pop eax
00005888  58                pop eax
00005889  5F                pop edi
0000588A  332E              xor ebp,[esi]
0000588C  3400              xor al,0x0
0000588E  5F                pop edi
0000588F  5A                pop edx
00005890  4E                dec esi
00005891  53                push ebx
00005892  61                popa
00005893  49                dec ecx
00005894  53                push ebx
00005895  7434              jz 0x58cb
00005897  7061              jo 0x58fa
00005899  69724969694545    imul esi,[edx+0x49],dword 0x45456969
000058A0  43                inc ebx
000058A1  314552            xor [ebp+0x52],eax
000058A4  4B                dec ebx
000058A5  53                push ebx
000058A6  315F00            xor [edi+0x0],ebx
000058A9  5F                pop edi
000058AA  5A                pop edx
000058AB  4E                dec esi
000058AC  53                push ebx
000058AD  7436              jz 0x58e5
000058AF  7665              jna 0x5916
000058B1  63746F72          arpl [edi+ebp*2+0x72],si
000058B5  49                dec ecx
000058B6  53                push ebx
000058B7  7434              jz 0x58ed
000058B9  7061              jo 0x591c
000058BB  69724969694553    imul esi,[edx+0x49],dword 0x53456969
000058C2  61                popa
000058C3  49                dec ecx
000058C4  53                push ebx
000058C5  315F45            xor [edi+0x45],ebx
000058C8  45                inc ebp
000058C9  3138              xor [eax],edi
000058CB  5F                pop edi
000058CC  4D                dec ebp
000058CD  5F                pop edi
000058CE  66696C6C5F696E    imul bp,[esp+ebp*2+0x5f],word 0x6e69
000058D5  697469616C697A65  imul esi,[ecx+ebp*2+0x61],dword 0x657a696c
000058DD  45                inc ebp
000058DE  6A52              push byte +0x52
000058E0  4B                dec ebx
000058E1  53                push ebx
000058E2  315F00            xor [edi+0x0],ebx
000058E5  5F                pop edi
000058E6  49                dec ecx
000058E7  4F                dec edi
000058E8  5F                pop edi
000058E9  7374              jnc 0x595f
000058EB  64696E5F75736564  imul ebp,[fs:esi+0x5f],dword 0x64657375
000058F3  005F5A            add [edi+0x5a],bl
000058F6  4E                dec esi
000058F7  53                push ebx
000058F8  7434              jz 0x592e
000058FA  7061              jo 0x595d
000058FC  69724969694543    imul esi,[edx+0x49],dword 0x43456969
00005903  324576            xor al,[ebp+0x76]
00005906  005F5A            add [edi+0x5a],bl
00005909  4E                dec esi
0000590A  53                push ebx
0000590B  7431              jz 0x593e
0000590D  325F56            xor bl,[edi+0x56]
00005910  6563746F72        arpl [gs:edi+ebp*2+0x72],si
00005915  5F                pop edi
00005916  626173            bound esp,[ecx+0x73]
00005919  6549              gs dec ecx
0000591B  69536149694545    imul edx,[ebx+0x61],dword 0x45456949
00005922  3139              xor [ecx],edi
00005924  5F                pop edi
00005925  4D                dec ebp
00005926  5F                pop edi
00005927  6765745F          gs a16 jz 0x598a
0000592B  54                push esp
0000592C  705F              jo 0x598d
0000592E  61                popa
0000592F  6C                insb
00005930  6C                insb
00005931  6F                outsd
00005932  636174            arpl [ecx+0x74],sp
00005935  6F                outsd
00005936  7245              jc 0x597d
00005938  7600              jna 0x593a
0000593A  5F                pop edi
0000593B  5A                pop edx
0000593C  6E                outsb
0000593D  776A              ja 0x59a9
0000593F  50                push eax
00005940  7600              jna 0x5942
00005942  5F                pop edi
00005943  5A                pop edx
00005944  4E                dec esi
00005945  395F5F            cmp [edi+0x5f],ebx
00005948  676E              a16 outsb
0000594A  755F              jnz 0x59ab
0000594C  637878            arpl [eax+0x78],di
0000594F  3133              xor [ebx],esi
00005951  6E                outsb
00005952  65775F            gs ja 0x59b4
00005955  61                popa
00005956  6C                insb
00005957  6C                insb
00005958  6F                outsd
00005959  636174            arpl [ecx+0x74],sp
0000595C  6F                outsd
0000595D  7249              jc 0x59a8
0000595F  53                push ebx
00005960  7434              jz 0x5996
00005962  7061              jo 0x59c5
00005964  69724969694545    imul esi,[edx+0x49],dword 0x45456969
0000596B  43                inc ebx
0000596C  324576            xor al,[ebp+0x76]
0000596F  005F5A            add [edi+0x5a],bl
00005972  53                push ebx
00005973  7432              jz 0x59a7
00005975  30756E            xor [ebp+0x6e],dh
00005978  696E697469616C    imul ebp,[esi+0x69],dword 0x6c616974
0000597F  697A65645F6669    imul edi,[edx+0x65],dword 0x69665f64
00005986  6C                insb
00005987  6C                insb
00005988  5F                pop edi
00005989  6E                outsb
0000598A  49                dec ecx
0000598B  50                push eax
0000598C  696A694576545F    imul ebp,[edx+0x69],dword 0x5f547645
00005993  54                push esp
00005994  305F52            xor [edi+0x52],bl
00005997  4B                dec ebx
00005998  54                push esp
00005999  315F00            xor [edi+0x0],ebx
0000599C  5F                pop edi
0000599D  5A                pop edx
0000599E  4E                dec esi
0000599F  53                push ebx
000059A0  7431              jz 0x59d3
000059A2  325F56            xor bl,[edi+0x56]
000059A5  6563746F72        arpl [gs:edi+ebp*2+0x72],si
000059AA  5F                pop edi
000059AB  626173            bound esp,[ecx+0x73]
000059AE  6549              gs dec ecx
000059B0  53                push ebx
000059B1  7434              jz 0x59e7
000059B3  7061              jo 0x5a16
000059B5  69724969694553    imul esi,[edx+0x49],dword 0x53456969
000059BC  61                popa
000059BD  49                dec ecx
000059BE  53                push ebx
000059BF  315F45            xor [edi+0x45],ebx
000059C2  45                inc ebp
000059C3  3133              xor [ebx],esi
000059C5  5F                pop edi
000059C6  4D                dec ebp
000059C7  5F                pop edi
000059C8  646561            gs popa
000059CB  6C                insb
000059CC  6C                insb
000059CD  6F                outsd
000059CE  636174            arpl [ecx+0x74],sp
000059D1  6545              gs inc ebp
000059D3  50                push eax
000059D4  53                push ebx
000059D5  315F6A            xor [edi+0x6a],ebx
000059D8  005F49            add [edi+0x49],bl
000059DB  54                push esp
000059DC  4D                dec ebp
000059DD  5F                pop edi
000059DE  7265              jc 0x5a45
000059E0  676973746572544D  imul esi,[bp+di+0x74],dword 0x4d547265
000059E8  43                inc ebx
000059E9  6C                insb
000059EA  6F                outsd
000059EB  6E                outsb
000059EC  6554              gs push esp
000059EE  61                popa
000059EF  626C6500          bound ebp,[ebp+0x0]
000059F3  5F                pop edi
000059F4  5F                pop edi
000059F5  6461              fs popa
000059F7  7461              jz 0x5a5a
000059F9  5F                pop edi
000059FA  7374              jnc 0x5a70
000059FC  61                popa
000059FD  7274              jc 0x5a73
000059FF  005F5A            add [edi+0x5a],bl
00005A02  4E                dec esi
00005A03  53                push ebx
00005A04  7436              jz 0x5a3c
00005A06  7665              jna 0x5a6d
00005A08  63746F72          arpl [edi+ebp*2+0x72],si
00005A0C  49                dec ecx
00005A0D  53                push ebx
00005A0E  7434              jz 0x5a44
00005A10  7061              jo 0x5a73
00005A12  69724969694553    imul esi,[edx+0x49],dword 0x53456969
00005A19  61                popa
00005A1A  49                dec ecx
00005A1B  53                push ebx
00005A1C  315F45            xor [edi+0x45],ebx
00005A1F  45                inc ebp
00005A20  44                inc esp
00005A21  314576            xor [ebp+0x76],eax
00005A24  005F5A            add [edi+0x5a],bl
00005A27  4E                dec esi
00005A28  53                push ebx
00005A29  7431              jz 0x5a5c
00005A2B  325F44            xor bl,[edi+0x44]
00005A2E  657374            gs jnc 0x5aa5
00005A31  726F              jc 0x5aa2
00005A33  795F              jns 0x5a94
00005A35  61                popa
00005A36  7578              jnz 0x5ab0
00005A38  49                dec ecx
00005A39  4C                dec esp
00005A3A  6231              bound esi,[ecx]
00005A3C  45                inc ebp
00005A3D  45                inc ebp
00005A3E  395F5F            cmp [edi+0x5f],ebx
00005A41  64657374          gs jnc 0x5ab9
00005A45  726F              jc 0x5ab6
00005A47  7949              jns 0x5a92
00005A49  50                push eax
00005A4A  69454576545F53    imul eax,[ebp+0x45],dword 0x535f5476
00005A51  335F00            xor ebx,[edi+0x0]
00005A54  5F                pop edi
00005A55  5A                pop edx
00005A56  4E                dec esi
00005A57  53                push ebx
00005A58  7432              jz 0x5a8c
00005A5A  325F5F            xor bl,[edi+0x5f]
00005A5D  756E              jnz 0x5acd
00005A5F  696E697469616C    imul ebp,[esi+0x69],dword 0x6c616974
00005A66  697A65645F6669    imul edi,[edx+0x65],dword 0x69665f64
00005A6D  6C                insb
00005A6E  6C                insb
00005A6F  5F                pop edi
00005A70  6E                outsb
00005A71  49                dec ecx
00005A72  4C                dec esp
00005A73  6230              bound esi,[eax]
00005A75  45                inc ebp
00005A76  45                inc ebp
00005A77  31355F5F756E      xor [0x6e755f5f],esi
00005A7D  696E69745F6669    imul ebp,[esi+0x69],dword 0x69665f74
00005A84  6C                insb
00005A85  6C                insb
00005A86  5F                pop edi
00005A87  6E                outsb
00005A88  49                dec ecx
00005A89  50                push eax
00005A8A  53                push ebx
00005A8B  7434              jz 0x5ac1
00005A8D  7061              jo 0x5af0
00005A8F  6972496969456A    imul esi,[edx+0x49],dword 0x6a456969
00005A96  53                push ebx
00005A97  335F45            xor ebx,[edi+0x45]
00005A9A  45                inc ebp
00005A9B  7654              jna 0x5af1
00005A9D  5F                pop edi
00005A9E  54                push esp
00005A9F  305F52            xor [edi+0x52],bl
00005AA2  4B                dec ebx
00005AA3  54                push esp
00005AA4  315F00            xor [edi+0x0],ebx
00005AA7  5F                pop edi
00005AA8  5A                pop edx
00005AA9  4E                dec esi
00005AAA  53                push ebx
00005AAB  7431              jz 0x5ade
00005AAD  325F56            xor bl,[edi+0x56]
00005AB0  6563746F72        arpl [gs:edi+ebp*2+0x72],si
00005AB5  5F                pop edi
00005AB6  626173            bound esp,[ecx+0x73]
00005AB9  6549              gs dec ecx
00005ABB  69536149694545    imul edx,[ebx+0x61],dword 0x45456949
00005AC2  3132              xor [edx],esi
00005AC4  5F                pop edi
00005AC5  56                push esi
00005AC6  6563746F72        arpl [gs:edi+ebp*2+0x72],si
00005ACB  5F                pop edi
00005ACC  696D706C433245    imul ebp,[ebp+0x70],dword 0x4532436c
00005AD3  52                push edx
00005AD4  4B                dec ebx
00005AD5  53                push ebx
00005AD6  305F00            xor [edi+0x0],bl
00005AD9  5F                pop edi
00005ADA  5A                pop edx
00005ADB  4E                dec esi
00005ADC  53                push ebx
00005ADD  7431              jz 0x5b10
00005ADF  325F56            xor bl,[edi+0x56]
00005AE2  6563746F72        arpl [gs:edi+ebp*2+0x72],si
00005AE7  5F                pop edi
00005AE8  626173            bound esp,[ecx+0x73]
00005AEB  6549              gs dec ecx
00005AED  53                push ebx
00005AEE  7434              jz 0x5b24
00005AF0  7061              jo 0x5b53
00005AF2  69724969694553    imul esi,[edx+0x49],dword 0x53456969
00005AF9  61                popa
00005AFA  49                dec ecx
00005AFB  53                push ebx
00005AFC  315F45            xor [edi+0x45],ebx
00005AFF  45                inc ebp
00005B00  3132              xor [edx],esi
00005B02  5F                pop edi
00005B03  56                push esi
00005B04  6563746F72        arpl [gs:edi+ebp*2+0x72],si
00005B09  5F                pop edi
00005B0A  696D706C443245    imul ebp,[ebp+0x70],dword 0x4532446c
00005B11  7600              jna 0x5b13
00005B13  5F                pop edi
00005B14  5A                pop edx
00005B15  4E                dec esi
00005B16  53                push ebx
00005B17  7436              jz 0x5b4f
00005B19  7665              jna 0x5b80
00005B1B  63746F72          arpl [edi+ebp*2+0x72],si
00005B1F  49                dec ecx
00005B20  69536149694545    imul edx,[ebx+0x61],dword 0x45456949
00005B27  3232              xor dh,[edx]
00005B29  5F                pop edi
00005B2A  4D                dec ebp
00005B2B  5F                pop edi
00005B2C  696E697469616C    imul ebp,[esi+0x69],dword 0x6c616974
00005B33  697A655F646973    imul edi,[edx+0x65],dword 0x7369645f
00005B3A  7061              jo 0x5b9d
00005B3C  7463              jz 0x5ba1
00005B3E  6849694545        push dword 0x45456949
00005B43  7654              jna 0x5b99
00005B45  5F                pop edi
00005B46  53                push ebx
00005B47  335F53            xor ebx,[edi+0x53]
00005B4A  7431              jz 0x5b7d
00005B4C  315F5F            xor [edi+0x5f],ebx
00005B4F  7472              jz 0x5bc3
00005B51  7565              jnz 0x5bb8
00005B53  5F                pop edi
00005B54  7479              jz 0x5bcf
00005B56  7065              jo 0x5bbd
00005B58  005F5A            add [edi+0x5a],bl
00005B5B  53                push ebx
00005B5C  7432              jz 0x5b90
00005B5E  345F              xor al,0x5f
00005B60  5F                pop edi
00005B61  756E              jnz 0x5bd1
00005B63  696E697469616C    imul ebp,[esi+0x69],dword 0x6c616974
00005B6A  697A65645F6669    imul edi,[edx+0x65],dword 0x69665f64
00005B71  6C                insb
00005B72  6C                insb
00005B73  5F                pop edi
00005B74  6E                outsb
00005B75  5F                pop edi
00005B76  61                popa
00005B77  49                dec ecx
00005B78  50                push eax
00005B79  53                push ebx
00005B7A  7434              jz 0x5bb0
00005B7C  7061              jo 0x5bdf
00005B7E  6972496969456A    imul esi,[edx+0x49],dword 0x6a456969
00005B85  53                push ebx
00005B86  315F53            xor [edi+0x53],ebx
00005B89  315F45            xor [edi+0x45],ebx
00005B8C  7654              jna 0x5be2
00005B8E  5F                pop edi
00005B8F  54                push esp
00005B90  305F52            xor [edi+0x52],bl
00005B93  4B                dec ebx
00005B94  54                push esp
00005B95  315F52            xor [edi+0x52],ebx
00005B98  53                push ebx
00005B99  61                popa
00005B9A  49                dec ecx
00005B9B  54                push esp
00005B9C  325F45            xor bl,[edi+0x45]
00005B9F  005F5A            add [edi+0x5a],bl
00005BA2  4E                dec esi
00005BA3  53                push ebx
00005BA4  7431              jz 0x5bd7
00005BA6  325F56            xor bl,[edi+0x56]
00005BA9  6563746F72        arpl [gs:edi+ebp*2+0x72],si
00005BAE  5F                pop edi
00005BAF  626173            bound esp,[ecx+0x73]
00005BB2  6549              gs dec ecx
00005BB4  69536149694545    imul edx,[ebx+0x61],dword 0x45456949
00005BBB  44                inc esp
00005BBC  314576            xor [ebp+0x76],eax
00005BBF  005F5A            add [edi+0x5a],bl
00005BC2  4E                dec esi
00005BC3  395F5F            cmp [edi+0x5f],ebx
00005BC6  676E              a16 outsb
00005BC8  755F              jnz 0x5c29
00005BCA  637878            arpl [eax+0x78],di
00005BCD  3133              xor [ebx],esi
00005BCF  6E                outsb
00005BD0  65775F            gs ja 0x5c32
00005BD3  61                popa
00005BD4  6C                insb
00005BD5  6C                insb
00005BD6  6F                outsd
00005BD7  636174            arpl [ecx+0x74],sp
00005BDA  6F                outsd
00005BDB  7249              jc 0x5c26
00005BDD  69454331457600    imul eax,[ebp+0x43],dword 0x764531
00005BE4  5F                pop edi
00005BE5  5A                pop edx
00005BE6  4E                dec esi
00005BE7  53                push ebx
00005BE8  7436              jz 0x5c20
00005BEA  7665              jna 0x5c51
00005BEC  63746F72          arpl [edi+ebp*2+0x72],si
00005BF0  49                dec ecx
00005BF1  53                push ebx
00005BF2  7434              jz 0x5c28
00005BF4  7061              jo 0x5c57
00005BF6  69724969694553    imul esi,[edx+0x49],dword 0x53456969
00005BFD  61                popa
00005BFE  49                dec ecx
00005BFF  53                push ebx
00005C00  315F45            xor [edi+0x45],ebx
00005C03  45                inc ebp
00005C04  3133              xor [ebx],esi
00005C06  5F                pop edi
00005C07  4D                dec ebp
00005C08  5F                pop edi
00005C09  696E736572745F    imul ebp,[esi+0x73],dword 0x5f747265
00005C10  61                popa
00005C11  7578              jnz 0x5c8b
00005C13  45                inc ebp
00005C14  4E                dec esi
00005C15  395F5F            cmp [edi+0x5f],ebx
00005C18  676E              a16 outsb
00005C1A  755F              jnz 0x5c7b
00005C1C  637878            arpl [eax+0x78],di
00005C1F  3137              xor [edi],esi
00005C21  5F                pop edi
00005C22  5F                pop edi
00005C23  6E                outsb
00005C24  6F                outsd
00005C25  726D              jc 0x5c94
00005C27  61                popa
00005C28  6C                insb
00005C29  5F                pop edi
00005C2A  6974657261746F72  imul esi,[ebp+0x72],dword 0x726f7461
00005C32  49                dec ecx
00005C33  50                push eax
00005C34  53                push ebx
00005C35  315F53            xor [edi+0x53],ebx
00005C38  335F45            xor ebx,[edi+0x45]
00005C3B  45                inc ebp
00005C3C  52                push edx
00005C3D  4B                dec ebx
00005C3E  53                push ebx
00005C3F  315F00            xor [edi+0x0],ebx
00005C42  5F                pop edi
00005C43  5A                pop edx
00005C44  4E                dec esi
00005C45  4B                dec ebx
00005C46  395F5F            cmp [edi+0x5f],ebx
00005C49  676E              a16 outsb
00005C4B  755F              jnz 0x5cac
00005C4D  637878            arpl [eax+0x78],di
00005C50  3133              xor [ebx],esi
00005C52  6E                outsb
00005C53  65775F            gs ja 0x5cb5
00005C56  61                popa
00005C57  6C                insb
00005C58  6C                insb
00005C59  6F                outsd
00005C5A  636174            arpl [ecx+0x74],sp
00005C5D  6F                outsd
00005C5E  7249              jc 0x5ca9
00005C60  53                push ebx
00005C61  7434              jz 0x5c97
00005C63  7061              jo 0x5cc6
00005C65  69724969694545    imul esi,[edx+0x49],dword 0x45456969
00005C6C  386D61            cmp [ebp+0x61],ch
00005C6F  785F              js 0x5cd0
00005C71  7369              jnc 0x5cdc
00005C73  7A65              jpe 0x5cda
00005C75  45                inc ebp
00005C76  7600              jna 0x5c78
00005C78  5F                pop edi
00005C79  5A                pop edx
00005C7A  4E                dec esi
00005C7B  53                push ebx
00005C7C  7436              jz 0x5cb4
00005C7E  7665              jna 0x5ce5
00005C80  63746F72          arpl [edi+ebp*2+0x72],si
00005C84  49                dec ecx
00005C85  69536149694545    imul edx,[ebx+0x61],dword 0x45456949
00005C8C  6978456A005F5A    imul edi,[eax+0x45],dword 0x5a5f006a
00005C93  4E                dec esi
00005C94  53                push ebx
00005C95  61                popa
00005C96  49                dec ecx
00005C97  53                push ebx
00005C98  7434              jz 0x5cce
00005C9A  7061              jo 0x5cfd
00005C9C  69724969694545    imul esi,[edx+0x49],dword 0x45456969
00005CA3  43                inc ebx
00005CA4  324552            xor al,[ebp+0x52]
00005CA7  4B                dec ebx
00005CA8  53                push ebx
00005CA9  315F00            xor [edi+0x0],ebx
00005CAC  5F                pop edi
00005CAD  5F                pop edi
00005CAE  54                push esp
00005CAF  4D                dec ebp
00005CB0  43                inc ebx
00005CB1  5F                pop edi
00005CB2  45                inc ebp
00005CB3  4E                dec esi
00005CB4  44                inc esp
00005CB5  5F                pop edi
00005CB6  5F                pop edi
00005CB7  005F5A            add [edi+0x5a],bl
00005CBA  53                push ebx
00005CBB  7431              jz 0x5cee
00005CBD  305F43            xor [edi+0x43],bl
00005CC0  6F                outsd
00005CC1  6E                outsb
00005CC2  7374              jnc 0x5d38
00005CC4  7275              jc 0x5d3b
00005CC6  63744953          arpl [ecx+ecx*2+0x53],si
00005CCA  7434              jz 0x5d00
00005CCC  7061              jo 0x5d2f
00005CCE  69724969694553    imul esi,[edx+0x49],dword 0x53456969
00005CD5  315F45            xor [edi+0x45],ebx
00005CD8  7650              jna 0x5d2a
00005CDA  54                push esp
00005CDB  5F                pop edi
00005CDC  52                push edx
00005CDD  4B                dec ebx
00005CDE  54                push esp
00005CDF  305F00            xor [edi+0x0],bl
00005CE2  5F                pop edi
00005CE3  5A                pop edx
00005CE4  53                push ebx
00005CE5  7438              jz 0x5d1f
00005CE7  5F                pop edi
00005CE8  44                inc esp
00005CE9  657374            gs jnc 0x5d60
00005CEC  726F              jc 0x5d5d
00005CEE  7949              jns 0x5d39
00005CF0  50                push eax
00005CF1  694576545F5331    imul eax,[ebp+0x76],dword 0x31535f54
00005CF8  5F                pop edi
00005CF9  005F5A            add [edi+0x5a],bl
00005CFC  53                push ebx
00005CFD  7434              jz 0x5d33
00005CFF  636F75            arpl [edi+0x75],bp
00005D02  7440              jz 0x5d44
00005D04  40                inc eax
00005D05  47                inc edi
00005D06  4C                dec esp
00005D07  49                dec ecx
00005D08  42                inc edx
00005D09  43                inc ebx
00005D0A  58                pop eax
00005D0B  58                pop eax
00005D0C  5F                pop edi
00005D0D  332E              xor ebp,[esi]
00005D0F  3400              xor al,0x0
00005D11  5F                pop edi
00005D12  5A                pop edx
00005D13  4E                dec esi
00005D14  4B                dec ebx
00005D15  53                push ebx
00005D16  7436              jz 0x5d4e
00005D18  7665              jna 0x5d7f
00005D1A  63746F72          arpl [edi+ebp*2+0x72],si
00005D1E  49                dec ecx
00005D1F  53                push ebx
00005D20  7434              jz 0x5d56
00005D22  7061              jo 0x5d85
00005D24  69724969694553    imul esi,[edx+0x49],dword 0x53456969
00005D2B  61                popa
00005D2C  49                dec ecx
00005D2D  53                push ebx
00005D2E  315F45            xor [edi+0x45],ebx
00005D31  45                inc ebp
00005D32  3473              xor al,0x73
00005D34  697A654576005F    imul edi,[edx+0x65],dword 0x5f007645
00005D3B  5A                pop edx
00005D3C  4E                dec esi
00005D3D  53                push ebx
00005D3E  7431              jz 0x5d71
00005D40  305F49            xor [edi+0x49],bl
00005D43  7465              jz 0x5daa
00005D45  725F              jc 0x5da6
00005D47  626173            bound esp,[ecx+0x73]
00005D4A  6549              gs dec ecx
00005D4C  50                push eax
00005D4D  53                push ebx
00005D4E  7434              jz 0x5d84
00005D50  7061              jo 0x5db3
00005D52  6972496969454C    imul esi,[edx+0x49],dword 0x4c456969
00005D59  6230              bound esi,[eax]
00005D5B  45                inc ebp
00005D5C  45                inc ebp
00005D5D  37                aaa
00005D5E  5F                pop edi
00005D5F  53                push ebx
00005D60  5F                pop edi
00005D61  626173            bound esp,[ecx+0x73]
00005D64  6545              gs inc ebp
00005D66  53                push ebx
00005D67  325F00            xor bl,[edi+0x0]
00005D6A  5F                pop edi
00005D6B  5A                pop edx
00005D6C  4E                dec esi
00005D6D  4B                dec ebx
00005D6E  53                push ebx
00005D6F  7431              jz 0x5da2
00005D71  325F56            xor bl,[edi+0x56]
00005D74  6563746F72        arpl [gs:edi+ebp*2+0x72],si
00005D79  5F                pop edi
00005D7A  626173            bound esp,[ecx+0x73]
00005D7D  6549              gs dec ecx
00005D7F  53                push ebx
00005D80  7434              jz 0x5db6
00005D82  7061              jo 0x5de5
00005D84  69724969694553    imul esi,[edx+0x49],dword 0x53456969
00005D8B  61                popa
00005D8C  49                dec ecx
00005D8D  53                push ebx
00005D8E  315F45            xor [edi+0x45],ebx
00005D91  45                inc ebp
00005D92  3139              xor [ecx],edi
00005D94  5F                pop edi
00005D95  4D                dec ebp
00005D96  5F                pop edi
00005D97  6765745F          gs a16 jz 0x5dfa
00005D9B  54                push esp
00005D9C  705F              jo 0x5dfd
00005D9E  61                popa
00005D9F  6C                insb
00005DA0  6C                insb
00005DA1  6F                outsd
00005DA2  636174            arpl [ecx+0x74],sp
00005DA5  6F                outsd
00005DA6  7245              jc 0x5ded
00005DA8  7600              jna 0x5daa
00005DAA  5F                pop edi
00005DAB  5F                pop edi
00005DAC  64736F            fs jnc 0x5e1e
00005DAF  5F                pop edi
00005DB0  68616E646C        push dword 0x6c646e61
00005DB5  65005F5A          add [gs:edi+0x5a],bl
00005DB9  53                push ebx
00005DBA  7431              jz 0x5ded
00005DBC  38756E            cmp [ebp+0x6e],dh
00005DBF  696E697469616C    imul ebp,[esi+0x69],dword 0x6c616974
00005DC6  697A65645F636F    imul edi,[edx+0x65],dword 0x6f635f64
00005DCD  7079              jo 0x5e48
00005DCF  49                dec ecx
00005DD0  50                push eax
00005DD1  53                push ebx
00005DD2  7434              jz 0x5e08
00005DD4  7061              jo 0x5e37
00005DD6  69724969694553    imul esi,[edx+0x49],dword 0x53456969
00005DDD  325F45            xor bl,[edi+0x45]
00005DE0  54                push esp
00005DE1  305F54            xor [edi+0x54],bl
00005DE4  5F                pop edi
00005DE5  53                push ebx
00005DE6  345F              xor al,0x5f
00005DE8  53                push ebx
00005DE9  335F00            xor ebx,[edi+0x0]
00005DEC  5F                pop edi
00005DED  5F                pop edi
00005DEE  44                inc esp
00005DEF  54                push esp
00005DF0  4F                dec edi
00005DF1  52                push edx
00005DF2  5F                pop edi
00005DF3  45                inc ebp
00005DF4  4E                dec esi
00005DF5  44                inc esp
00005DF6  5F                pop edi
00005DF7  5F                pop edi
00005DF8  005F5A            add [edi+0x5a],bl
00005DFB  4E                dec esi
00005DFC  53                push ebx
00005DFD  7431              jz 0x5e30
00005DFF  305F49            xor [edi+0x49],bl
00005E02  7465              jz 0x5e69
00005E04  725F              jc 0x5e65
00005E06  626173            bound esp,[ecx+0x73]
00005E09  6549              gs dec ecx
00005E0B  50                push eax
00005E0C  694C62304545375F  imul ecx,[edx+0x30],dword 0x5f374545
00005E14  53                push ebx
00005E15  5F                pop edi
00005E16  626173            bound esp,[ecx+0x73]
00005E19  6545              gs inc ebp
00005E1B  53                push ebx
00005E1C  305F00            xor [edi+0x0],bl
00005E1F  5F                pop edi
00005E20  5A                pop edx
00005E21  4E                dec esi
00005E22  395F5F            cmp [edi+0x5f],ebx
00005E25  676E              a16 outsb
00005E27  755F              jnz 0x5e88
00005E29  637878            arpl [eax+0x78],di
00005E2C  3133              xor [ebx],esi
00005E2E  6E                outsb
00005E2F  65775F            gs ja 0x5e91
00005E32  61                popa
00005E33  6C                insb
00005E34  6C                insb
00005E35  6F                outsd
00005E36  636174            arpl [ecx+0x74],sp
00005E39  6F                outsd
00005E3A  7249              jc 0x5e85
00005E3C  6945433245524B    imul eax,[ebp+0x43],dword 0x4b524532
00005E43  53                push ebx
00005E44  315F00            xor [edi+0x0],ebx
00005E47  5F                pop edi
00005E48  5F                pop edi
00005E49  6C                insb
00005E4A  6962635F637375    imul esp,[edx+0x63],dword 0x7573635f
00005E51  5F                pop edi
00005E52  696E6974005F5A    imul ebp,[esi+0x69],dword 0x5a5f0074
00005E59  53                push ebx
00005E5A  7431              jz 0x5e8d
00005E5C  325F5F            xor bl,[edi+0x5f]
00005E5F  6D                insd
00005E60  697465725F626173  imul esi,[ebp+0x72],dword 0x7361625f
00005E68  6549              gs dec ecx
00005E6A  50                push eax
00005E6B  53                push ebx
00005E6C  7434              jz 0x5ea2
00005E6E  7061              jo 0x5ed1
00005E70  69724969694545    imul esi,[edx+0x49],dword 0x45456969
00005E77  4E                dec esi
00005E78  53                push ebx
00005E79  7431              jz 0x5eac
00005E7B  315F4D            xor [edi+0x4d],ebx
00005E7E  697465725F626173  imul esi,[ebp+0x72],dword 0x7361625f
00005E86  6549              gs dec ecx
00005E88  54                push esp
00005E89  5F                pop edi
00005E8A  45                inc ebp
00005E8B  3133              xor [ebx],esi
00005E8D  6974657261746F72  imul esi,[ebp+0x72],dword 0x726f7461
00005E95  5F                pop edi
00005E96  7479              jz 0x5f11
00005E98  7065              jo 0x5eff
00005E9A  45                inc ebp
00005E9B  53                push ebx
00005E9C  345F              xor al,0x5f
00005E9E  005F5A            add [edi+0x5a],bl
00005EA1  4E                dec esi
00005EA2  53                push ebx
00005EA3  61                popa
00005EA4  49                dec ecx
00005EA5  69454432457600    imul eax,[ebp+0x44],dword 0x764532
00005EAC  5F                pop edi
00005EAD  5A                pop edx
00005EAE  4E                dec esi
00005EAF  53                push ebx
00005EB0  61                popa
00005EB1  49                dec ecx
00005EB2  69454331457600    imul eax,[ebp+0x43],dword 0x764531
00005EB9  5F                pop edi
00005EBA  5A                pop edx
00005EBB  53                push ebx
00005EBC  7432              jz 0x5ef0
00005EBE  335F5F            xor ebx,[edi+0x5f]
00005EC1  636F70            arpl [edi+0x70],bp
00005EC4  795F              jns 0x5f25
00005EC6  6D                insd
00005EC7  6F                outsd
00005EC8  7665              jna 0x5f2f
00005ECA  5F                pop edi
00005ECB  626163            bound esp,[ecx+0x63]
00005ECE  6B776172          imul esi,[edi+0x61],byte +0x72
00005ED2  645F              fs pop edi
00005ED4  61                popa
00005ED5  32494C            xor cl,[ecx+0x4c]
00005ED8  6230              bound esi,[eax]
00005EDA  45                inc ebp
00005EDB  50                push eax
00005EDC  53                push ebx
00005EDD  7434              jz 0x5f13
00005EDF  7061              jo 0x5f42
00005EE1  69724969694553    imul esi,[edx+0x49],dword 0x53456969
00005EE8  325F45            xor bl,[edi+0x45]
00005EEB  54                push esp
00005EEC  315F54            xor [edi+0x54],ebx
00005EEF  305F53            xor [edi+0x53],bl
00005EF2  345F              xor al,0x5f
00005EF4  53                push ebx
00005EF5  335F00            xor ebx,[edi+0x0]
00005EF8  5F                pop edi
00005EF9  5A                pop edx
00005EFA  4E                dec esi
00005EFB  53                push ebx
00005EFC  7434              jz 0x5f32
00005EFE  7061              jo 0x5f61
00005F00  69724969694543    imul esi,[edx+0x49],dword 0x43456969
00005F07  314552            xor [ebp+0x52],eax
00005F0A  4B                dec ebx
00005F0B  6953325F005F5A    imul edx,[ebx+0x32],dword 0x5a5f005f
00005F12  53                push ebx
00005F13  7431              jz 0x5f46
00005F15  305F5F            xor [edi+0x5f],bl
00005F18  66696C6C5F6E5F    imul bp,[esp+ebp*2+0x5f],word 0x5f6e
00005F1F  61                popa
00005F20  49                dec ecx
00005F21  50                push eax
00005F22  696A69454E395F    imul ebp,[edx+0x69],dword 0x5f394e45
00005F29  5F                pop edi
00005F2A  676E              a16 outsb
00005F2C  755F              jnz 0x5f8d
00005F2E  637878            arpl [eax+0x78],di
00005F31  3131              xor [ecx],esi
00005F33  5F                pop edi
00005F34  5F                pop edi
00005F35  656E              gs outsb
00005F37  61                popa
00005F38  626C655F          bound ebp,[ebp+0x5f]
00005F3C  69664958737253    imul esp,[esi+0x49],dword 0x53727358
00005F43  7431              jz 0x5f76
00005F45  315F5F            xor [edi+0x5f],ebx
00005F48  69735F7363616C    imul esi,[ebx+0x5f],dword 0x6c616373
00005F4F  61                popa
00005F50  7249              jc 0x5f9b
00005F52  54                push esp
00005F53  315F45            xor [edi+0x45],ebx
00005F56  37                aaa
00005F57  5F                pop edi
00005F58  5F                pop edi
00005F59  7661              jna 0x5fbc
00005F5B  6C                insb
00005F5C  7565              jnz 0x5fc3
00005F5E  45                inc ebp
00005F5F  54                push esp
00005F60  5F                pop edi
00005F61  45                inc ebp
00005F62  365F              ss pop edi
00005F64  5F                pop edi
00005F65  7479              jz 0x5fe0
00005F67  7065              jo 0x5fce
00005F69  45                inc ebp
00005F6A  53                push ebx
00005F6B  365F              ss pop edi
00005F6D  54                push esp
00005F6E  305F52            xor [edi+0x52],bl
00005F71  4B                dec ebx
00005F72  53                push ebx
00005F73  345F              xor al,0x5f
00005F75  005F5A            add [edi+0x5a],bl
00005F78  4E                dec esi
00005F79  53                push ebx
00005F7A  7432              jz 0x5fae
00005F7C  305F5F            xor [edi+0x5f],bl
00005F7F  636F70            arpl [edi+0x70],bp
00005F82  795F              jns 0x5fe3
00005F84  6D                insd
00005F85  6F                outsd
00005F86  7665              jna 0x5fed
00005F88  5F                pop edi
00005F89  626163            bound esp,[ecx+0x63]
00005F8C  6B776172          imul esi,[edi+0x61],byte +0x72
00005F90  6449              fs dec ecx
00005F92  4C                dec esp
00005F93  6230              bound esi,[eax]
00005F95  45                inc ebp
00005F96  4C                dec esp
00005F97  6230              bound esi,[eax]
00005F99  45                inc ebp
00005F9A  53                push ebx
00005F9B  7432              jz 0x5fcf
00005F9D  367261            ss jc 0x6001
00005FA0  6E                outsb
00005FA1  646F              fs outsd
00005FA3  6D                insd
00005FA4  5F                pop edi
00005FA5  61                popa
00005FA6  636365            arpl [ebx+0x65],sp
00005FA9  7373              jnc 0x601e
00005FAB  5F                pop edi
00005FAC  6974657261746F72  imul esi,[ebp+0x72],dword 0x726f7461
00005FB4  5F                pop edi
00005FB5  7461              jz 0x6018
00005FB7  6745              a16 inc ebp
00005FB9  3133              xor [ebx],esi
00005FBB  5F                pop edi
00005FBC  5F                pop edi
00005FBD  636F70            arpl [edi+0x70],bp
00005FC0  795F              jns 0x6021
00005FC2  6D                insd
00005FC3  6F                outsd
00005FC4  7665              jna 0x602b
00005FC6  5F                pop edi
00005FC7  624950            bound ecx,[ecx+0x50]
00005FCA  53                push ebx
00005FCB  7434              jz 0x6001
00005FCD  7061              jo 0x6030
00005FCF  69724969694553    imul esi,[edx+0x49],dword 0x53456969
00005FD6  355F454554        xor eax,0x5445455f
00005FDB  305F54            xor [edi+0x54],bl
00005FDE  5F                pop edi
00005FDF  53                push ebx
00005FE0  37                aaa
00005FE1  5F                pop edi
00005FE2  53                push ebx
00005FE3  365F              ss pop edi
00005FE5  005F5A            add [edi+0x5a],bl
00005FE8  4E                dec esi
00005FE9  395F5F            cmp [edi+0x5f],ebx
00005FEC  676E              a16 outsb
00005FEE  755F              jnz 0x604f
00005FF0  637878            arpl [eax+0x78],di
00005FF3  3133              xor [ebx],esi
00005FF5  6E                outsb
00005FF6  65775F            gs ja 0x6058
00005FF9  61                popa
00005FFA  6C                insb
00005FFB  6C                insb
00005FFC  6F                outsd
00005FFD  636174            arpl [ecx+0x74],sp
00006000  6F                outsd
00006001  7249              jc 0x604c
00006003  53                push ebx
00006004  7434              jz 0x603a
00006006  7061              jo 0x6069
00006008  69724969694545    imul esi,[edx+0x49],dword 0x45456969
0000600F  43                inc ebx
00006010  314552            xor [ebp+0x52],eax
00006013  4B                dec ebx
00006014  53                push ebx
00006015  335F00            xor ebx,[edi+0x0]
00006018  5F                pop edi
00006019  5A                pop edx
0000601A  6E                outsb
0000601B  776A              ja 0x6087
0000601D  40                inc eax
0000601E  40                inc eax
0000601F  47                inc edi
00006020  4C                dec esp
00006021  49                dec ecx
00006022  42                inc edx
00006023  43                inc ebx
00006024  58                pop eax
00006025  58                pop eax
00006026  5F                pop edi
00006027  332E              xor ebp,[esi]
00006029  3400              xor al,0x0
0000602B  5F                pop edi
0000602C  5A                pop edx
0000602D  4E                dec esi
0000602E  53                push ebx
0000602F  7436              jz 0x6067
00006031  7665              jna 0x6098
00006033  63746F72          arpl [edi+ebp*2+0x72],si
00006037  49                dec ecx
00006038  69536149694545    imul edx,[ebx+0x61],dword 0x45456949
0000603F  44                inc esp
00006040  324576            xor al,[ebp+0x76]
00006043  005F5A            add [edi+0x5a],bl
00006046  4E                dec esi
00006047  53                push ebx
00006048  7436              jz 0x6080
0000604A  7665              jna 0x60b1
0000604C  63746F72          arpl [edi+ebp*2+0x72],si
00006050  49                dec ecx
00006051  53                push ebx
00006052  7434              jz 0x6088
00006054  7061              jo 0x60b7
00006056  69724969694553    imul esi,[edx+0x49],dword 0x53456969
0000605D  61                popa
0000605E  49                dec ecx
0000605F  53                push ebx
00006060  315F45            xor [edi+0x45],ebx
00006063  45                inc ebp
00006064  3562656769        xor eax,0x69676562
00006069  6E                outsb
0000606A  45                inc ebp
0000606B  7600              jna 0x606d
0000606D  5F                pop edi
0000606E  5F                pop edi
0000606F  627373            bound esi,[ebx+0x73]
00006072  5F                pop edi
00006073  7374              jnc 0x60e9
00006075  61                popa
00006076  7274              jc 0x60ec
00006078  005F5A            add [edi+0x5a],bl
0000607B  53                push ebx
0000607C  7433              jz 0x60b1
0000607E  6D                insd
0000607F  61                popa
00006080  7849              js 0x60cb
00006082  6A45              push byte +0x45
00006084  52                push edx
00006085  4B                dec ebx
00006086  54                push esp
00006087  5F                pop edi
00006088  53                push ebx
00006089  325F53            xor bl,[edi+0x53]
0000608C  325F00            xor bl,[edi+0x0]
0000608F  5F                pop edi
00006090  5A                pop edx
00006091  4E                dec esi
00006092  53                push ebx
00006093  7436              jz 0x60cb
00006095  7665              jna 0x60fc
00006097  63746F72          arpl [edi+ebp*2+0x72],si
0000609B  49                dec ecx
0000609C  53                push ebx
0000609D  7434              jz 0x60d3
0000609F  7061              jo 0x6102
000060A1  69724969694553    imul esi,[edx+0x49],dword 0x53456969
000060A8  61                popa
000060A9  49                dec ecx
000060AA  53                push ebx
000060AB  315F45            xor [edi+0x45],ebx
000060AE  45                inc ebp
000060AF  43                inc ebx
000060B0  32456A            xor al,[ebp+0x6a]
000060B3  52                push edx
000060B4  4B                dec ebx
000060B5  53                push ebx
000060B6  315F52            xor [edi+0x52],ebx
000060B9  4B                dec ebx
000060BA  53                push ebx
000060BB  325F00            xor bl,[edi+0x0]
000060BE  5F                pop edi
000060BF  5A                pop edx
000060C0  4E                dec esi
000060C1  4B                dec ebx
000060C2  53                push ebx
000060C3  7436              jz 0x60fb
000060C5  7665              jna 0x612c
000060C7  63746F72          arpl [edi+ebp*2+0x72],si
000060CB  49                dec ecx
000060CC  53                push ebx
000060CD  7434              jz 0x6103
000060CF  7061              jo 0x6132
000060D1  69724969694553    imul esi,[edx+0x49],dword 0x53456969
000060D8  61                popa
000060D9  49                dec ecx
000060DA  53                push ebx
000060DB  315F45            xor [edi+0x45],ebx
000060DE  45                inc ebp
000060DF  3132              xor [edx],esi
000060E1  5F                pop edi
000060E2  4D                dec ebp
000060E3  5F                pop edi
000060E4  636865            arpl [eax+0x65],bp
000060E7  636B5F            arpl [ebx+0x5f],bp
000060EA  6C                insb
000060EB  656E              gs outsb
000060ED  45                inc ebp
000060EE  6A50              push byte +0x50
000060F0  4B                dec ebx
000060F1  6300              arpl [eax],ax
000060F3  5F                pop edi
000060F4  5A                pop edx
000060F5  4E                dec esi
000060F6  53                push ebx
000060F7  61                popa
000060F8  49                dec ecx
000060F9  6945433245524B    imul eax,[ebp+0x43],dword 0x4b524532
00006100  53                push ebx
00006101  5F                pop edi
00006102  005F5A            add [edi+0x5a],bl
00006105  4E                dec esi
00006106  53                push ebx
00006107  7431              jz 0x613a
00006109  325F56            xor bl,[edi+0x56]
0000610C  6563746F72        arpl [gs:edi+ebp*2+0x72],si
00006111  5F                pop edi
00006112  626173            bound esp,[ecx+0x73]
00006115  6549              gs dec ecx
00006117  53                push ebx
00006118  7434              jz 0x614e
0000611A  7061              jo 0x617d
0000611C  69724969694553    imul esi,[edx+0x49],dword 0x53456969
00006123  61                popa
00006124  49                dec ecx
00006125  53                push ebx
00006126  315F45            xor [edi+0x45],ebx
00006129  45                inc ebp
0000612A  3131              xor [ecx],esi
0000612C  5F                pop edi
0000612D  4D                dec ebp
0000612E  5F                pop edi
0000612F  61                popa
00006130  6C                insb
00006131  6C                insb
00006132  6F                outsd
00006133  636174            arpl [ecx+0x74],sp
00006136  6545              gs inc ebp
00006138  6A00              push byte +0x0
0000613A  5F                pop edi
0000613B  5A                pop edx
0000613C  53                push ebx
0000613D  7433              jz 0x6172
0000613F  6D                insd
00006140  61                popa
00006141  7849              js 0x618c
00006143  6945524B545F53    imul eax,[ebp+0x52],dword 0x535f544b
0000614A  325F53            xor bl,[edi+0x53]
0000614D  325F00            xor bl,[edi+0x0]
00006150  5F                pop edi
00006151  5A                pop edx
00006152  4E                dec esi
00006153  53                push ebx
00006154  7431              jz 0x6187
00006156  325F56            xor bl,[edi+0x56]
00006159  6563746F72        arpl [gs:edi+ebp*2+0x72],si
0000615E  5F                pop edi
0000615F  626173            bound esp,[ecx+0x73]
00006162  6549              gs dec ecx
00006164  53                push ebx
00006165  7434              jz 0x619b
00006167  7061              jo 0x61ca
00006169  69724969694553    imul esi,[edx+0x49],dword 0x53456969
00006170  61                popa
00006171  49                dec ecx
00006172  53                push ebx
00006173  315F45            xor [edi+0x45],ebx
00006176  45                inc ebp
00006177  43                inc ebx
00006178  32456A            xor al,[ebp+0x6a]
0000617B  52                push edx
0000617C  4B                dec ebx
0000617D  53                push ebx
0000617E  325F00            xor bl,[edi+0x0]
00006181  5F                pop edi
00006182  5A                pop edx
00006183  53                push ebx
00006184  7431              jz 0x61b7
00006186  33636F            xor esp,[ebx+0x6f]
00006189  7079              jo 0x6204
0000618B  5F                pop edi
0000618C  626163            bound esp,[ecx+0x63]
0000618F  6B776172          imul esi,[edi+0x61],byte +0x72
00006193  6449              fs dec ecx
00006195  50                push eax
00006196  53                push ebx
00006197  7434              jz 0x61cd
00006199  7061              jo 0x61fc
0000619B  69724969694553    imul esi,[edx+0x49],dword 0x53456969
000061A2  325F45            xor bl,[edi+0x45]
000061A5  54                push esp
000061A6  305F54            xor [edi+0x54],bl
000061A9  5F                pop edi
000061AA  53                push ebx
000061AB  345F              xor al,0x5f
000061AD  53                push ebx
000061AE  335F00            xor ebx,[edi+0x0]
000061B1  5F                pop edi
000061B2  5A                pop edx
000061B3  53                push ebx
000061B4  7438              jz 0x61ee
000061B6  5F                pop edi
000061B7  44                inc esp
000061B8  657374            gs jnc 0x622f
000061BB  726F              jc 0x622c
000061BD  7949              jns 0x6208
000061BF  50                push eax
000061C0  53                push ebx
000061C1  7434              jz 0x61f7
000061C3  7061              jo 0x6226
000061C5  69724969694545    imul esi,[edx+0x49],dword 0x45456969
000061CC  7654              jna 0x6222
000061CE  5F                pop edi
000061CF  53                push ebx
000061D0  335F00            xor ebx,[edi+0x0]
000061D3  5F                pop edi
000061D4  5A                pop edx
000061D5  53                push ebx
000061D6  7438              jz 0x6210
000061D8  5F                pop edi
000061D9  44                inc esp
000061DA  657374            gs jnc 0x6251
000061DD  726F              jc 0x624e
000061DF  7949              jns 0x622a
000061E1  50                push eax
000061E2  53                push ebx
000061E3  7434              jz 0x6219
000061E5  7061              jo 0x6248
000061E7  69724969694553    imul esi,[edx+0x49],dword 0x53456969
000061EE  315F45            xor [edi+0x45],ebx
000061F1  7654              jna 0x6247
000061F3  5F                pop edi
000061F4  53                push ebx
000061F5  335F52            xor ebx,[edi+0x52]
000061F8  53                push ebx
000061F9  61                popa
000061FA  49                dec ecx
000061FB  54                push esp
000061FC  305F45            xor [edi+0x45],bl
000061FF  005F5A            add [edi+0x5a],bl
00006202  4E                dec esi
00006203  395F5F            cmp [edi+0x5f],ebx
00006206  676E              a16 outsb
00006208  755F              jnz 0x6269
0000620A  637878            arpl [eax+0x78],di
0000620D  3133              xor [ebx],esi
0000620F  6E                outsb
00006210  65775F            gs ja 0x6272
00006213  61                popa
00006214  6C                insb
00006215  6C                insb
00006216  6F                outsd
00006217  636174            arpl [ecx+0x74],sp
0000621A  6F                outsd
0000621B  7249              jc 0x6266
0000621D  53                push ebx
0000621E  7434              jz 0x6254
00006220  7061              jo 0x6283
00006222  69724969694545    imul esi,[edx+0x49],dword 0x45456969
00006229  37                aaa
0000622A  64657374          gs jnc 0x62a2
0000622E  726F              jc 0x629f
00006230  7945              jns 0x6277
00006232  50                push eax
00006233  53                push ebx
00006234  325F00            xor bl,[edi+0x0]
00006237  5F                pop edi
00006238  5A                pop edx
00006239  53                push ebx
0000623A  7433              jz 0x626f
0000623C  345F              xor al,0x5f
0000623E  5F                pop edi
0000623F  756E              jnz 0x62af
00006241  696E697469616C    imul ebp,[esi+0x69],dword 0x6c616974
00006248  697A65645F6D6F    imul edi,[edx+0x65],dword 0x6f6d5f64
0000624F  7665              jna 0x62b6
00006251  5F                pop edi
00006252  69665F6E6F6578    imul esp,[esi+0x5f],dword 0x78656f6e
00006259  636570            arpl [ebp+0x70],sp
0000625C  745F              jz 0x62bd
0000625E  61                popa
0000625F  49                dec ecx
00006260  50                push eax
00006261  53                push ebx
00006262  7434              jz 0x6298
00006264  7061              jo 0x62c7
00006266  69724969694553    imul esi,[edx+0x49],dword 0x53456969
0000626D  325F53            xor bl,[edi+0x53]
00006270  61                popa
00006271  49                dec ecx
00006272  53                push ebx
00006273  315F45            xor [edi+0x45],ebx
00006276  45                inc ebp
00006277  54                push esp
00006278  305F54            xor [edi+0x54],bl
0000627B  5F                pop edi
0000627C  53                push ebx
0000627D  355F53345F        xor eax,0x5f34535f
00006282  52                push edx
00006283  54                push esp
00006284  315F00            xor [edi+0x0],ebx
00006287  5F                pop edi
00006288  5A                pop edx
00006289  4E                dec esi
0000628A  53                push ebx
0000628B  7436              jz 0x62c3
0000628D  7665              jna 0x62f4
0000628F  63746F72          arpl [edi+ebp*2+0x72],si
00006293  49                dec ecx
00006294  53                push ebx
00006295  7434              jz 0x62cb
00006297  7061              jo 0x62fa
00006299  69724969694553    imul esi,[edx+0x49],dword 0x53456969
000062A0  61                popa
000062A1  49                dec ecx
000062A2  53                push ebx
000062A3  315F45            xor [edi+0x45],ebx
000062A6  45                inc ebp
000062A7  44                inc esp
000062A8  324576            xor al,[ebp+0x76]
000062AB  005F5A            add [edi+0x5a],bl
000062AE  4E                dec esi
000062AF  53                push ebx
000062B0  69727345526940    imul esi,[edx+0x73],dword 0x40695245
000062B7  40                inc eax
000062B8  47                inc edi
000062B9  4C                dec esp
000062BA  49                dec ecx
000062BB  42                inc edx
000062BC  43                inc ebx
000062BD  58                pop eax
000062BE  58                pop eax
000062BF  5F                pop edi
000062C0  332E              xor ebp,[esi]
000062C2  3400              xor al,0x0
000062C4  5F                pop edi
000062C5  5A                pop edx
000062C6  4E                dec esi
000062C7  53                push ebx
000062C8  7434              jz 0x62fe
000062CA  7061              jo 0x632d
000062CC  69724969694543    imul esi,[edx+0x49],dword 0x43456969
000062D3  314576            xor [ebp+0x76],eax
000062D6  005F5A            add [edi+0x5a],bl
000062D9  53                push ebx
000062DA  7433              jz 0x630f
000062DC  6D                insd
000062DD  696E496945524B    imul ebp,[esi+0x49],dword 0x4b524569
000062E4  54                push esp
000062E5  5F                pop edi
000062E6  53                push ebx
000062E7  325F53            xor bl,[edi+0x53]
000062EA  325F00            xor bl,[edi+0x0]
000062ED  5F                pop edi
000062EE  5A                pop edx
000062EF  4E                dec esi
000062F0  395F5F            cmp [edi+0x5f],ebx
000062F3  676E              a16 outsb
000062F5  755F              jnz 0x6356
000062F7  637878            arpl [eax+0x78],di
000062FA  3133              xor [ebx],esi
000062FC  6E                outsb
000062FD  65775F            gs ja 0x635f
00006300  61                popa
00006301  6C                insb
00006302  6C                insb
00006303  6F                outsd
00006304  636174            arpl [ecx+0x74],sp
00006307  6F                outsd
00006308  7249              jc 0x6353
0000630A  694538616C6C6F    imul eax,[ebp+0x38],dword 0x6f6c6c61
00006311  636174            arpl [ecx+0x74],sp
00006314  6545              gs inc ebp
00006316  6A50              push byte +0x50
00006318  4B                dec ebx
00006319  7600              jna 0x631b
0000631B  5F                pop edi
0000631C  5A                pop edx
0000631D  4E                dec esi
0000631E  53                push ebx
0000631F  7431              jz 0x6352
00006321  325F44            xor bl,[edi+0x44]
00006324  657374            gs jnc 0x639b
00006327  726F              jc 0x6398
00006329  795F              jns 0x638a
0000632B  61                popa
0000632C  7578              jnz 0x63a6
0000632E  49                dec ecx
0000632F  4C                dec esp
00006330  6231              bound esi,[ecx]
00006332  45                inc ebp
00006333  45                inc ebp
00006334  395F5F            cmp [edi+0x5f],ebx
00006337  64657374          gs jnc 0x63af
0000633B  726F              jc 0x63ac
0000633D  7949              jns 0x6388
0000633F  50                push eax
00006340  53                push ebx
00006341  7434              jz 0x6377
00006343  7061              jo 0x63a6
00006345  69724969694545    imul esi,[edx+0x49],dword 0x45456969
0000634C  45                inc ebp
0000634D  7654              jna 0x63a3
0000634F  5F                pop edi
00006350  53                push ebx
00006351  355F005F5A        xor eax,0x5a5f005f
00006356  4E                dec esi
00006357  4B                dec ebx
00006358  395F5F            cmp [edi+0x5f],ebx
0000635B  676E              a16 outsb
0000635D  755F              jnz 0x63be
0000635F  637878            arpl [eax+0x78],di
00006362  3137              xor [edi],esi
00006364  5F                pop edi
00006365  5F                pop edi
00006366  6E                outsb
00006367  6F                outsd
00006368  726D              jc 0x63d7
0000636A  61                popa
0000636B  6C                insb
0000636C  5F                pop edi
0000636D  6974657261746F72  imul esi,[ebp+0x72],dword 0x726f7461
00006375  49                dec ecx
00006376  50                push eax
00006377  53                push ebx
00006378  7434              jz 0x63ae
0000637A  7061              jo 0x63dd
0000637C  69724969694553    imul esi,[edx+0x49],dword 0x53456969
00006383  7436              jz 0x63bb
00006385  7665              jna 0x63ec
00006387  63746F72          arpl [edi+ebp*2+0x72],si
0000638B  49                dec ecx
0000638C  53                push ebx
0000638D  325F53            xor bl,[edi+0x53]
00006390  61                popa
00006391  49                dec ecx
00006392  53                push ebx
00006393  325F45            xor bl,[edi+0x45]
00006396  45                inc ebp
00006397  45                inc ebp
00006398  3462              xor al,0x62
0000639A  61                popa
0000639B  7365              jnc 0x6402
0000639D  45                inc ebp
0000639E  7600              jna 0x63a0
000063A0  5F                pop edi
000063A1  5A                pop edx
000063A2  4E                dec esi
000063A3  395F5F            cmp [edi+0x5f],ebx
000063A6  676E              a16 outsb
000063A8  755F              jnz 0x6409
000063AA  637878            arpl [eax+0x78],di
000063AD  3133              xor [ebx],esi
000063AF  6E                outsb
000063B0  65775F            gs ja 0x6412
000063B3  61                popa
000063B4  6C                insb
000063B5  6C                insb
000063B6  6F                outsd
000063B7  636174            arpl [ecx+0x74],sp
000063BA  6F                outsd
000063BB  7249              jc 0x6406
000063BD  53                push ebx
000063BE  7434              jz 0x63f4
000063C0  7061              jo 0x6423
000063C2  69724969694545    imul esi,[edx+0x49],dword 0x45456969
000063C9  3130              xor [eax],esi
000063CB  646561            gs popa
000063CE  6C                insb
000063CF  6C                insb
000063D0  6F                outsd
000063D1  636174            arpl [ecx+0x74],sp
000063D4  6545              gs inc ebp
000063D6  50                push eax
000063D7  53                push ebx
000063D8  325F6A            xor bl,[edi+0x6a]
000063DB  005F65            add [edi+0x65],bl
000063DE  6E                outsb
000063DF  64005F5A          add [fs:edi+0x5a],bl
000063E3  4E                dec esi
000063E4  53                push ebx
000063E5  6F                outsd
000063E6  6C                insb
000063E7  7345              jnc 0x642e
000063E9  50                push eax
000063EA  46                inc esi
000063EB  52                push edx
000063EC  53                push ebx
000063ED  6F                outsd
000063EE  53                push ebx
000063EF  5F                pop edi
000063F0  45                inc ebp
000063F1  40                inc eax
000063F2  40                inc eax
000063F3  47                inc edi
000063F4  4C                dec esp
000063F5  49                dec ecx
000063F6  42                inc edx
000063F7  43                inc ebx
000063F8  58                pop eax
000063F9  58                pop eax
000063FA  5F                pop edi
000063FB  332E              xor ebp,[esi]
000063FD  3400              xor al,0x0
000063FF  5F                pop edi
00006400  5A                pop edx
00006401  4E                dec esi
00006402  53                push ebx
00006403  7431              jz 0x6436
00006405  325F56            xor bl,[edi+0x56]
00006408  6563746F72        arpl [gs:edi+ebp*2+0x72],si
0000640D  5F                pop edi
0000640E  626173            bound esp,[ecx+0x73]
00006411  6549              gs dec ecx
00006413  53                push ebx
00006414  7434              jz 0x644a
00006416  7061              jo 0x6479
00006418  69724969694553    imul esi,[edx+0x49],dword 0x53456969
0000641F  61                popa
00006420  49                dec ecx
00006421  53                push ebx
00006422  315F45            xor [edi+0x45],ebx
00006425  45                inc ebp
00006426  44                inc esp
00006427  324576            xor al,[ebp+0x76]
0000642A  005F5A            add [edi+0x5a],bl
0000642D  4E                dec esi
0000642E  395F5F            cmp [edi+0x5f],ebx
00006431  676E              a16 outsb
00006433  755F              jnz 0x6494
00006435  637878            arpl [eax+0x78],di
00006438  31345F            xor [edi+ebx*2],esi
0000643B  5F                pop edi
0000643C  61                popa
0000643D  6C                insb
0000643E  6C                insb
0000643F  6F                outsd
00006440  635F74            arpl [edi+0x74],bx
00006443  7261              jc 0x64a6
00006445  6974734953614953  imul esi,[ebx+esi*2+0x49],dword 0x53496153
0000644D  7434              jz 0x6483
0000644F  7061              jo 0x64b2
00006451  69724969694545    imul esi,[edx+0x49],dword 0x45456969
00006458  45                inc ebp
00006459  386D61            cmp [ebp+0x61],ch
0000645C  785F              js 0x64bd
0000645E  7369              jnc 0x64c9
00006460  7A65              jpe 0x64c7
00006462  45                inc ebp
00006463  52                push edx
00006464  4B                dec ebx
00006465  53                push ebx
00006466  335F00            xor ebx,[edi+0x0]
00006469  5F                pop edi
0000646A  5A                pop edx
0000646B  4E                dec esi
0000646C  53                push ebx
0000646D  61                popa
0000646E  49                dec ecx
0000646F  53                push ebx
00006470  7434              jz 0x64a6
00006472  7061              jo 0x64d5
00006474  69724969694545    imul esi,[edx+0x49],dword 0x45456969
0000647B  44                inc esp
0000647C  324576            xor al,[ebp+0x76]
0000647F  005F5A            add [edi+0x5a],bl
00006482  4E                dec esi
00006483  53                push ebx
00006484  61                popa
00006485  49                dec ecx
00006486  53                push ebx
00006487  7434              jz 0x64bd
00006489  7061              jo 0x64ec
0000648B  69724969694545    imul esi,[edx+0x49],dword 0x45456969
00006492  43                inc ebx
00006493  314576            xor [ebp+0x76],eax
00006496  005F5A            add [edi+0x5a],bl
00006499  4E                dec esi
0000649A  53                push ebx
0000649B  7432              jz 0x64cf
0000649D  325F5F            xor bl,[edi+0x5f]
000064A0  756E              jnz 0x6510
000064A2  696E697469616C    imul ebp,[esi+0x69],dword 0x6c616974
000064A9  697A65645F6669    imul edi,[edx+0x65],dword 0x69665f64
000064B0  6C                insb
000064B1  6C                insb
000064B2  5F                pop edi
000064B3  6E                outsb
000064B4  49                dec ecx
000064B5  4C                dec esp
000064B6  6231              bound esi,[ecx]
000064B8  45                inc ebp
000064B9  45                inc ebp
000064BA  31355F5F756E      xor [0x6e755f5f],esi
000064C0  696E69745F6669    imul ebp,[esi+0x69],dword 0x69665f74
000064C7  6C                insb
000064C8  6C                insb
000064C9  5F                pop edi
000064CA  6E                outsb
000064CB  49                dec ecx
000064CC  50                push eax
000064CD  696A6945457654    imul ebp,[edx+0x69],dword 0x54764545
000064D4  5F                pop edi
000064D5  54                push esp
000064D6  305F52            xor [edi+0x52],bl
000064D9  4B                dec ebx
000064DA  54                push esp
000064DB  315F00            xor [edi+0x0],ebx
000064DE  5F                pop edi
000064DF  5A                pop edx
000064E0  4E                dec esi
000064E1  53                push ebx
000064E2  7431              jz 0x6515
000064E4  325F56            xor bl,[edi+0x56]
000064E7  6563746F72        arpl [gs:edi+ebp*2+0x72],si
000064EC  5F                pop edi
000064ED  626173            bound esp,[ecx+0x73]
000064F0  6549              gs dec ecx
000064F2  53                push ebx
000064F3  7434              jz 0x6529
000064F5  7061              jo 0x6558
000064F7  69724969694553    imul esi,[edx+0x49],dword 0x53456969
000064FE  61                popa
000064FF  49                dec ecx
00006500  53                push ebx
00006501  315F45            xor [edi+0x45],ebx
00006504  45                inc ebp
00006505  3132              xor [edx],esi
00006507  5F                pop edi
00006508  56                push esi
00006509  6563746F72        arpl [gs:edi+ebp*2+0x72],si
0000650E  5F                pop edi
0000650F  696D706C443145    imul ebp,[ebp+0x70],dword 0x4531446c
00006516  7600              jna 0x6518
00006518  5F                pop edi
00006519  5F                pop edi
0000651A  637861            arpl [eax+0x61],di
0000651D  5F                pop edi
0000651E  656E              gs outsb
00006520  645F              fs pop edi
00006522  636174            arpl [ecx+0x74],sp
00006525  636840            arpl [eax+0x40],bp
00006528  40                inc eax
00006529  43                inc ebx
0000652A  58                pop eax
0000652B  58                pop eax
0000652C  41                inc ecx
0000652D  42                inc edx
0000652E  49                dec ecx
0000652F  5F                pop edi
00006530  312E              xor [esi],ebp
00006532  3300              xor eax,[eax]
00006534  5F                pop edi
00006535  5A                pop edx
00006536  53                push ebx
00006537  7431              jz 0x656a
00006539  37                aaa
0000653A  5F                pop edi
0000653B  5F                pop edi
0000653C  7468              jz 0x65a6
0000653E  726F              jc 0x65af
00006540  775F              ja 0x65a1
00006542  626164            bound esp,[ecx+0x64]
00006545  5F                pop edi
00006546  61                popa
00006547  6C                insb
00006548  6C                insb
00006549  6F                outsd
0000654A  637640            arpl [esi+0x40],si
0000654D  40                inc eax
0000654E  47                inc edi
0000654F  4C                dec esp
00006550  49                dec ecx
00006551  42                inc edx
00006552  43                inc ebx
00006553  58                pop eax
00006554  58                pop eax
00006555  5F                pop edi
00006556  332E              xor ebp,[esi]
00006558  3400              xor al,0x0
0000655A  5F                pop edi
0000655B  5A                pop edx
0000655C  4E                dec esi
0000655D  395F5F            cmp [edi+0x5f],ebx
00006560  676E              a16 outsb
00006562  755F              jnz 0x65c3
00006564  637878            arpl [eax+0x78],di
00006567  3133              xor [ebx],esi
00006569  6E                outsb
0000656A  65775F            gs ja 0x65cc
0000656D  61                popa
0000656E  6C                insb
0000656F  6C                insb
00006570  6F                outsd
00006571  636174            arpl [ecx+0x74],sp
00006574  6F                outsd
00006575  7249              jc 0x65c0
00006577  53                push ebx
00006578  7434              jz 0x65ae
0000657A  7061              jo 0x65dd
0000657C  69724969694545    imul esi,[edx+0x49],dword 0x45456969
00006583  43                inc ebx
00006584  324552            xor al,[ebp+0x52]
00006587  4B                dec ebx
00006588  53                push ebx
00006589  335F00            xor ebx,[edi+0x0]
0000658C  5F                pop edi
0000658D  5A                pop edx
0000658E  4E                dec esi
0000658F  53                push ebx
00006590  7431              jz 0x65c3
00006592  325F56            xor bl,[edi+0x56]
00006595  6563746F72        arpl [gs:edi+ebp*2+0x72],si
0000659A  5F                pop edi
0000659B  626173            bound esp,[ecx+0x73]
0000659E  6549              gs dec ecx
000065A0  53                push ebx
000065A1  7434              jz 0x65d7
000065A3  7061              jo 0x6606
000065A5  69724969694553    imul esi,[edx+0x49],dword 0x53456969
000065AC  61                popa
000065AD  49                dec ecx
000065AE  53                push ebx
000065AF  315F45            xor [edi+0x45],ebx
000065B2  45                inc ebp
000065B3  44                inc esp
000065B4  314576            xor [ebp+0x76],eax
000065B7  005F5A            add [edi+0x5a],bl
000065BA  53                push ebx
000065BB  7434              jz 0x65f1
000065BD  656E              gs outsb
000065BF  646C              fs insb
000065C1  49                dec ecx
000065C2  635374            arpl [ebx+0x74],dx
000065C5  3131              xor [ecx],esi
000065C7  636861            arpl [eax+0x61],bp
000065CA  725F              jc 0x662b
000065CC  7472              jz 0x6640
000065CE  61                popa
000065CF  6974734963454552  imul esi,[ebx+esi*2+0x49],dword 0x52454563
000065D7  53                push ebx
000065D8  7431              jz 0x660b
000065DA  336261            xor esp,[edx+0x61]
000065DD  7369              jnc 0x6648
000065DF  635F6F            arpl [edi+0x6f],bx
000065E2  7374              jnc 0x6658
000065E4  7265              jc 0x664b
000065E6  61                popa
000065E7  6D                insd
000065E8  49                dec ecx
000065E9  54                push esp
000065EA  5F                pop edi
000065EB  54                push esp
000065EC  305F45            xor [edi+0x45],bl
000065EF  53                push ebx
000065F0  365F              ss pop edi
000065F2  40                inc eax
000065F3  40                inc eax
000065F4  47                inc edi
000065F5  4C                dec esp
000065F6  49                dec ecx
000065F7  42                inc edx
000065F8  43                inc ebx
000065F9  58                pop eax
000065FA  58                pop eax
000065FB  5F                pop edi
000065FC  332E              xor ebp,[esi]
000065FE  3400              xor al,0x0
00006600  5F                pop edi
00006601  5F                pop edi
00006602  637861            arpl [eax+0x61],di
00006605  5F                pop edi
00006606  626567            bound esp,[ebp+0x67]
00006609  696E5F63617463    imul ebp,[esi+0x5f],dword 0x63746163
00006610  6840404358        push dword 0x58434040
00006615  58                pop eax
00006616  41                inc ecx
00006617  42                inc edx
00006618  49                dec ecx
00006619  5F                pop edi
0000661A  312E              xor [esi],ebp
0000661C  3300              xor eax,[eax]
0000661E  5F                pop edi
0000661F  5A                pop edx
00006620  4E                dec esi
00006621  53                push ebx
00006622  7434              jz 0x6658
00006624  7061              jo 0x6687
00006626  69724969694543    imul esi,[edx+0x49],dword 0x43456969
0000662D  324552            xor al,[ebp+0x52]
00006630  4B                dec ebx
00006631  6953325F005F5A    imul edx,[ebx+0x32],dword 0x5a5f005f
00006638  4E                dec esi
00006639  53                push ebx
0000663A  7431              jz 0x666d
0000663C  325F56            xor bl,[edi+0x56]
0000663F  6563746F72        arpl [gs:edi+ebp*2+0x72],si
00006644  5F                pop edi
00006645  626173            bound esp,[ecx+0x73]
00006648  6549              gs dec ecx
0000664A  69536149694545    imul edx,[ebx+0x61],dword 0x45456949
00006651  3132              xor [edx],esi
00006653  5F                pop edi
00006654  56                push esi
00006655  6563746F72        arpl [gs:edi+ebp*2+0x72],si
0000665A  5F                pop edi
0000665B  696D706C443145    imul ebp,[ebp+0x70],dword 0x4531446c
00006662  7600              jna 0x6664
00006664  5F                pop edi
00006665  5A                pop edx
00006666  4E                dec esi
00006667  53                push ebx
00006668  7436              jz 0x66a0
0000666A  7665              jna 0x66d1
0000666C  63746F72          arpl [edi+ebp*2+0x72],si
00006670  49                dec ecx
00006671  53                push ebx
00006672  7434              jz 0x66a8
00006674  7061              jo 0x66d7
00006676  69724969694553    imul esi,[edx+0x49],dword 0x53456969
0000667D  61                popa
0000667E  49                dec ecx
0000667F  53                push ebx
00006680  315F45            xor [edi+0x45],ebx
00006683  45                inc ebp
00006684  6978456A005F65    imul edi,[eax+0x45],dword 0x655f006a
0000668B  6461              fs popa
0000668D  7461              jz 0x66f0
0000668F  005F5A            add [edi+0x5a],bl
00006692  53                push ebx
00006693  7432              jz 0x66c7
00006695  325F5F            xor bl,[edi+0x5f]
00006698  636F70            arpl [edi+0x70],bp
0000669B  795F              jns 0x66fc
0000669D  6D                insd
0000669E  6F                outsd
0000669F  7665              jna 0x6706
000066A1  5F                pop edi
000066A2  626163            bound esp,[ecx+0x63]
000066A5  6B776172          imul esi,[edi+0x61],byte +0x72
000066A9  645F              fs pop edi
000066AB  61                popa
000066AC  49                dec ecx
000066AD  4C                dec esp
000066AE  6230              bound esi,[eax]
000066B0  45                inc ebp
000066B1  50                push eax
000066B2  53                push ebx
000066B3  7434              jz 0x66e9
000066B5  7061              jo 0x6718
000066B7  69724969694553    imul esi,[edx+0x49],dword 0x53456969
000066BE  325F45            xor bl,[edi+0x45]
000066C1  54                push esp
000066C2  315F54            xor [edi+0x54],ebx
000066C5  305F53            xor [edi+0x53],bl
000066C8  345F              xor al,0x5f
000066CA  53                push ebx
000066CB  335F00            xor ebx,[edi+0x0]
000066CE  5F                pop edi
000066CF  5F                pop edi
000066D0  677878            a16 js 0x674b
000066D3  5F                pop edi
000066D4  7065              jo 0x673b
000066D6  7273              jc 0x674b
000066D8  6F                outsd
000066D9  6E                outsb
000066DA  61                popa
000066DB  6C                insb
000066DC  6974795F76304040  imul esi,[ecx+edi*2+0x5f],dword 0x40403076
000066E4  43                inc ebx
000066E5  58                pop eax
000066E6  58                pop eax
000066E7  41                inc ecx
000066E8  42                inc edx
000066E9  49                dec ecx
000066EA  5F                pop edi
000066EB  312E              xor [esi],ebp
000066ED  3300              xor eax,[eax]
000066EF  5F                pop edi
000066F0  5A                pop edx
000066F1  4E                dec esi
000066F2  53                push ebx
000066F3  61                popa
000066F4  49                dec ecx
000066F5  69454431457600    imul eax,[ebp+0x44],dword 0x764531
000066FC  5F                pop edi
000066FD  5A                pop edx
000066FE  4E                dec esi
000066FF  4B                dec ebx
00006700  395F5F            cmp [edi+0x5f],ebx
00006703  676E              a16 outsb
00006705  755F              jnz 0x6766
00006707  637878            arpl [eax+0x78],di
0000670A  3133              xor [ebx],esi
0000670C  6E                outsb
0000670D  65775F            gs ja 0x676f
00006710  61                popa
00006711  6C                insb
00006712  6C                insb
00006713  6F                outsd
00006714  636174            arpl [ecx+0x74],sp
00006717  6F                outsd
00006718  7249              jc 0x6763
0000671A  6945386D61785F    imul eax,[ebp+0x38],dword 0x5f78616d
00006721  7369              jnc 0x678c
00006723  7A65              jpe 0x678a
00006725  45                inc ebp
00006726  7600              jna 0x6728
00006728  5F                pop edi
00006729  5A                pop edx
0000672A  4E                dec esi
0000672B  4B                dec ebx
0000672C  53                push ebx
0000672D  7436              jz 0x6765
0000672F  7665              jna 0x6796
00006731  63746F72          arpl [edi+ebp*2+0x72],si
00006735  49                dec ecx
00006736  53                push ebx
00006737  7434              jz 0x676d
00006739  7061              jo 0x679c
0000673B  69724969694553    imul esi,[edx+0x49],dword 0x53456969
00006742  61                popa
00006743  49                dec ecx
00006744  53                push ebx
00006745  315F45            xor [edi+0x45],ebx
00006748  45                inc ebp
00006749  386D61            cmp [ebp+0x61],ch
0000674C  785F              js 0x67ad
0000674E  7369              jnc 0x67b9
00006750  7A65              jpe 0x67b7
00006752  45                inc ebp
00006753  7600              jna 0x6755
00006755  5F                pop edi
00006756  5A                pop edx
00006757  4E                dec esi
00006758  395F5F            cmp [edi+0x5f],ebx
0000675B  676E              a16 outsb
0000675D  755F              jnz 0x67be
0000675F  637878            arpl [eax+0x78],di
00006762  3133              xor [ebx],esi
00006764  6E                outsb
00006765  65775F            gs ja 0x67c7
00006768  61                popa
00006769  6C                insb
0000676A  6C                insb
0000676B  6F                outsd
0000676C  636174            arpl [ecx+0x74],sp
0000676F  6F                outsd
00006770  7249              jc 0x67bb
00006772  53                push ebx
00006773  7434              jz 0x67a9
00006775  7061              jo 0x67d8
00006777  69724969694545    imul esi,[edx+0x49],dword 0x45456969
0000677E  44                inc esp
0000677F  324576            xor al,[ebp+0x76]
00006782  005F55            add [edi+0x55],bl
00006785  6E                outsb
00006786  7769              ja 0x67f1
00006788  6E                outsb
00006789  645F              fs pop edi
0000678B  52                push edx
0000678C  657375            gs jnc 0x6804
0000678F  6D                insd
00006790  6540              gs inc eax
00006792  40                inc eax
00006793  47                inc edi
00006794  43                inc ebx
00006795  43                inc ebx
00006796  5F                pop edi
00006797  332E              xor ebp,[esi]
00006799  3000              xor [eax],al
0000679B  5F                pop edi
0000679C  5A                pop edx
0000679D  4E                dec esi
0000679E  395F5F            cmp [edi+0x5f],ebx
000067A1  676E              a16 outsb
000067A3  755F              jnz 0x6804
000067A5  637878            arpl [eax+0x78],di
000067A8  3133              xor [ebx],esi
000067AA  6E                outsb
000067AB  65775F            gs ja 0x680d
000067AE  61                popa
000067AF  6C                insb
000067B0  6C                insb
000067B1  6F                outsd
000067B2  636174            arpl [ecx+0x74],sp
000067B5  6F                outsd
000067B6  7249              jc 0x6801
000067B8  53                push ebx
000067B9  7434              jz 0x67ef
000067BB  7061              jo 0x681e
000067BD  69724969694545    imul esi,[edx+0x49],dword 0x45456969
000067C4  43                inc ebx
000067C5  314576            xor [ebp+0x76],eax
000067C8  005F5A            add [edi+0x5a],bl
000067CB  4E                dec esi
000067CC  395F5F            cmp [edi+0x5f],ebx
000067CF  676E              a16 outsb
000067D1  755F              jnz 0x6832
000067D3  637878            arpl [eax+0x78],di
000067D6  3133              xor [ebx],esi
000067D8  6E                outsb
000067D9  65775F            gs ja 0x683b
000067DC  61                popa
000067DD  6C                insb
000067DE  6C                insb
000067DF  6F                outsd
000067E0  636174            arpl [ecx+0x74],sp
000067E3  6F                outsd
000067E4  7249              jc 0x682f
000067E6  53                push ebx
000067E7  7434              jz 0x681d
000067E9  7061              jo 0x684c
000067EB  69724969694545    imul esi,[edx+0x49],dword 0x45456969
000067F2  39636F            cmp [ebx+0x6f],esp
000067F5  6E                outsb
000067F6  7374              jnc 0x686c
000067F8  7275              jc 0x686f
000067FA  63744550          arpl [ebp+eax*2+0x50],si
000067FE  53                push ebx
000067FF  325F52            xor bl,[edi+0x52]
00006802  4B                dec ebx
00006803  53                push ebx
00006804  325F00            xor bl,[edi+0x0]
00006807  5F                pop edi
00006808  5A                pop edx
00006809  53                push ebx
0000680A  7432              jz 0x683e
0000680C  325F5F            xor bl,[edi+0x5f]
0000680F  756E              jnz 0x687f
00006811  696E697469616C    imul ebp,[esi+0x69],dword 0x6c616974
00006818  697A65645F636F    imul edi,[edx+0x65],dword 0x6f635f64
0000681F  7079              jo 0x689a
00006821  5F                pop edi
00006822  61                popa
00006823  49                dec ecx
00006824  50                push eax
00006825  53                push ebx
00006826  7434              jz 0x685c
00006828  7061              jo 0x688b
0000682A  69724969694553    imul esi,[edx+0x49],dword 0x53456969
00006831  325F53            xor bl,[edi+0x53]
00006834  315F45            xor [edi+0x45],ebx
00006837  54                push esp
00006838  305F54            xor [edi+0x54],bl
0000683B  5F                pop edi
0000683C  53                push ebx
0000683D  345F              xor al,0x5f
0000683F  53                push ebx
00006840  335F52            xor ebx,[edi+0x52]
00006843  53                push ebx
00006844  61                popa
00006845  49                dec ecx
00006846  54                push esp
00006847  315F45            xor [edi+0x45],ebx
0000684A  005F5F            add [edi+0x5f],bl
0000684D  693638362E67      imul esi,[esi],dword 0x672e3638
00006853  65745F            gs jz 0x68b5
00006856  7063              jo 0x68bb
00006858  5F                pop edi
00006859  7468              jz 0x68c3
0000685B  756E              jnz 0x68cb
0000685D  6B2E62            imul ebp,[esi],byte +0x62
00006860  7800              js 0x6862
00006862  5F                pop edi
00006863  5A                pop edx
00006864  4E                dec esi
00006865  53                push ebx
00006866  7432              jz 0x689a
00006868  305F5F            xor [edi+0x5f],bl
0000686B  756E              jnz 0x68db
0000686D  696E697469616C    imul ebp,[esi+0x69],dword 0x6c616974
00006874  697A65645F636F    imul edi,[edx+0x65],dword 0x6f635f64
0000687B  7079              jo 0x68f6
0000687D  49                dec ecx
0000687E  4C                dec esp
0000687F  6230              bound esi,[eax]
00006881  45                inc ebp
00006882  45                inc ebp
00006883  3133              xor [ebx],esi
00006885  5F                pop edi
00006886  5F                pop edi
00006887  756E              jnz 0x68f7
00006889  696E69745F636F    imul ebp,[esi+0x69],dword 0x6f635f74
00006890  7079              jo 0x690b
00006892  49                dec ecx
00006893  50                push eax
00006894  53                push ebx
00006895  7434              jz 0x68cb
00006897  7061              jo 0x68fa
00006899  69724969694553    imul esi,[edx+0x49],dword 0x53456969
000068A0  345F              xor al,0x5f
000068A2  45                inc ebp
000068A3  45                inc ebp
000068A4  54                push esp
000068A5  305F54            xor [edi+0x54],bl
000068A8  5F                pop edi
000068A9  53                push ebx
000068AA  365F              ss pop edi
000068AC  53                push ebx
000068AD  355F005F5A        xor eax,0x5a5f005f
000068B2  53                push ebx
000068B3  7431              jz 0x68e6
000068B5  325F5F            xor bl,[edi+0x5f]
000068B8  6E                outsb
000068B9  697465725F626173  imul esi,[ebp+0x72],dword 0x7361625f
000068C1  6549              gs dec ecx
000068C3  50                push eax
000068C4  69454E53743131    imul eax,[ebp+0x4e],dword 0x31317453
000068CB  5F                pop edi
000068CC  4E                dec esi
000068CD  697465725F626173  imul esi,[ebp+0x72],dword 0x7361625f
000068D5  6549              gs dec ecx
000068D7  54                push esp
000068D8  5F                pop edi
000068D9  45                inc ebp
000068DA  3133              xor [ebx],esi
000068DC  6974657261746F72  imul esi,[ebp+0x72],dword 0x726f7461
000068E4  5F                pop edi
000068E5  7479              jz 0x6960
000068E7  7065              jo 0x694e
000068E9  45                inc ebp
000068EA  53                push ebx
000068EB  325F00            xor bl,[edi+0x0]
000068EE  5F                pop edi
000068EF  5A                pop edx
000068F0  4E                dec esi
000068F1  53                push ebx
000068F2  61                popa
000068F3  49                dec ecx
000068F4  53                push ebx
000068F5  7434              jz 0x692b
000068F7  7061              jo 0x695a
000068F9  69724969694545    imul esi,[edx+0x49],dword 0x45456969
00006900  43                inc ebx
00006901  324576            xor al,[ebp+0x76]
00006904  006D61            add [ebp+0x61],ch
00006907  696E005F696E69    imul ebp,[esi+0x0],dword 0x696e695f
0000690E  7400              jz 0x6910
00006910  5F                pop edi
00006911  5A                pop edx
00006912  4E                dec esi
00006913  395F5F            cmp [edi+0x5f],ebx
00006916  676E              a16 outsb
00006918  755F              jnz 0x6979
0000691A  637878            arpl [eax+0x78],di
0000691D  3133              xor [ebx],esi
0000691F  6E                outsb
00006920  65775F            gs ja 0x6982
00006923  61                popa
00006924  6C                insb
00006925  6C                insb
00006926  6F                outsd
00006927  636174            arpl [ecx+0x74],sp
0000692A  6F                outsd
0000692B  7249              jc 0x6976
0000692D  69454332457600    imul eax,[ebp+0x43],dword 0x764532
00006934  5F                pop edi
00006935  5A                pop edx
00006936  4E                dec esi
00006937  53                push ebx
00006938  7436              jz 0x6970
0000693A  7665              jna 0x69a1
0000693C  63746F72          arpl [edi+ebp*2+0x72],si
00006940  49                dec ecx
00006941  69536149694545    imul edx,[ebx+0x61],dword 0x45456949
00006948  3138              xor [eax],edi
0000694A  5F                pop edi
0000694B  4D                dec ebp
0000694C  5F                pop edi
0000694D  66696C6C5F696E    imul bp,[esp+ebp*2+0x5f],word 0x6e69
00006954  697469616C697A65  imul esi,[ecx+ebp*2+0x61],dword 0x657a696c
0000695C  45                inc ebp
0000695D  6A52              push byte +0x52
0000695F  4B                dec ebx
00006960  69                db 0x69
00006961  00                db 0x00
