00000000  7F45              jg 0x47
00000002  4C                dec esp
00000003  46                inc esi
00000004  0101              add [ecx],eax
00000006  0100              add [eax],eax
00000008  0000              add [eax],al
0000000A  0000              add [eax],al
0000000C  0000              add [eax],al
0000000E  0000              add [eax],al
00000010  0200              add al,[eax]
00000012  0300              add eax,[eax]
00000014  0100              add [eax],eax
00000016  0000              add [eax],al
00000018  008604083400      add [esi+0x340804],al
0000001E  0000              add [eax],al
00000020  A017000000        mov al,[0x17]
00000025  0000              add [eax],al
00000027  003400            add [eax+eax],dh
0000002A  2000              and [eax],al
0000002C  0800              or [eax],al
0000002E  2800              sub [eax],al
00000030  260023            add [es:ebx],ah
00000033  0006              add [esi],al
00000035  0000              add [eax],al
00000037  003400            add [eax+eax],dh
0000003A  0000              add [eax],al
0000003C  3480              xor al,0x80
0000003E  0408              add al,0x8
00000040  3480              xor al,0x80
00000042  0408              add al,0x8
00000044  0001              add [ecx],al
00000046  0000              add [eax],al
00000048  0001              add [ecx],al
0000004A  0000              add [eax],al
0000004C  0500000004        add eax,0x4000000
00000051  0000              add [eax],al
00000053  0003              add [ebx],al
00000055  0000              add [eax],al
00000057  003401            add [ecx+eax],dh
0000005A  0000              add [eax],al
0000005C  3481              xor al,0x81
0000005E  0408              add al,0x8
00000060  3481              xor al,0x81
00000062  0408              add al,0x8
00000064  1300              adc eax,[eax]
00000066  0000              add [eax],al
00000068  1300              adc eax,[eax]
0000006A  0000              add [eax],al
0000006C  0400              add al,0x0
0000006E  0000              add [eax],al
00000070  0100              add [eax],eax
00000072  0000              add [eax],al
00000074  0100              add [eax],eax
00000076  0000              add [eax],al
00000078  0000              add [eax],al
0000007A  0000              add [eax],al
0000007C  008004080080      add [eax+0x80000804],al
00000082  0408              add al,0x8
00000084  130E              adc ecx,[esi]
00000086  0000              add [eax],al
00000088  130E              adc ecx,[esi]
0000008A  0000              add [eax],al
0000008C  0500000000        add eax,0x0
00000091  1000              adc [eax],al
00000093  0001              add [ecx],al
00000095  0000              add [eax],al
00000097  00140E            add [esi+ecx],dl
0000009A  0000              add [eax],al
0000009C  149E              adc al,0x9e
0000009E  0408              add al,0x8
000000A0  149E              adc al,0x9e
000000A2  0408              add al,0x8
000000A4  3801              cmp [ecx],al
000000A6  0000              add [eax],al
000000A8  3031              xor [ecx],dh
000000AA  0000              add [eax],al
000000AC  06                push es
000000AD  0000              add [eax],al
000000AF  0000              add [eax],al
000000B1  1000              adc [eax],al
000000B3  0002              add [edx],al
000000B5  0000              add [eax],al
000000B7  002C0E            add [esi+ecx],ch
000000BA  0000              add [eax],al
000000BC  2C9E              sub al,0x9e
000000BE  0408              add al,0x8
000000C0  2C9E              sub al,0x9e
000000C2  0408              add al,0x8
000000C4  E000              loopne 0xc6
000000C6  0000              add [eax],al
000000C8  E000              loopne 0xca
000000CA  0000              add [eax],al
000000CC  06                push es
000000CD  0000              add [eax],al
000000CF  000400            add [eax+eax],al
000000D2  0000              add [eax],al
000000D4  0400              add al,0x0
000000D6  0000              add [eax],al
000000D8  48                dec eax
000000D9  0100              add [eax],eax
000000DB  004881            add [eax-0x7f],cl
000000DE  0408              add al,0x8
000000E0  48                dec eax
000000E1  81040820000000    add dword [eax+ecx],0x20
000000E8  2000              and [eax],al
000000EA  0000              add [eax],al
000000EC  0400              add al,0x0
000000EE  0000              add [eax],al
000000F0  0400              add al,0x0
000000F2  0000              add [eax],al
000000F4  50                push eax
000000F5  E574              in eax,0x74
000000F7  64740C            fs jz 0x106
000000FA  0000              add [eax],al
000000FC  748C              jz 0x8a
000000FE  0408              add al,0x8
00000100  748C              jz 0x8e
00000102  0408              add al,0x8
00000104  4C                dec esp
00000105  0000              add [eax],al
00000107  004C0000          add [eax+eax+0x0],cl
0000010B  000400            add [eax+eax],al
0000010E  0000              add [eax],al
00000110  0400              add al,0x0
00000112  0000              add [eax],al
00000114  51                push ecx
00000115  E574              in eax,0x74
00000117  640000            add [fs:eax],al
0000011A  0000              add [eax],al
0000011C  0000              add [eax],al
0000011E  0000              add [eax],al
00000120  0000              add [eax],al
00000122  0000              add [eax],al
00000124  0000              add [eax],al
00000126  0000              add [eax],al
00000128  0000              add [eax],al
0000012A  0000              add [eax],al
0000012C  06                push es
0000012D  0000              add [eax],al
0000012F  000400            add [eax+eax],al
00000132  0000              add [eax],al
00000134  2F                das
00000135  6C                insb
00000136  69622F6C642D6C    imul esp,[edx+0x2f],dword 0x6c2d646c
0000013D  696E75782E736F    imul ebp,[esi+0x75],dword 0x6f732e78
00000144  2E3200            xor al,[cs:eax]
00000147  000400            add [eax+eax],al
0000014A  0000              add [eax],al
0000014C  1000              adc [eax],al
0000014E  0000              add [eax],al
00000150  0100              add [eax],eax
00000152  0000              add [eax],al
00000154  47                inc edi
00000155  4E                dec esi
00000156  55                push ebp
00000157  0000              add [eax],al
00000159  0000              add [eax],al
0000015B  0002              add [edx],al
0000015D  0000              add [eax],al
0000015F  0000              add [eax],al
00000161  0000              add [eax],al
00000163  0000              add [eax],al
00000165  0000              add [eax],al
00000167  0003              add [ebx],al
00000169  0000              add [eax],al
0000016B  0010              add [eax],dl
0000016D  0000              add [eax],al
0000016F  000E              add [esi],cl
00000171  0000              add [eax],al
00000173  000F              add [edi],cl
00000175  0000              add [eax],al
00000177  000D00000000      add [0x0],cl
0000017D  0000              add [eax],al
0000017F  0000              add [eax],al
00000181  0000              add [eax],al
00000183  0000              add [eax],al
00000185  0000              add [eax],al
00000187  0001              add [ecx],al
00000189  0000              add [eax],al
0000018B  0003              add [ebx],al
0000018D  0000              add [eax],al
0000018F  0002              add [edx],al
00000191  0000              add [eax],al
00000193  000500000004      add [0x4000000],al
00000199  0000              add [eax],al
0000019B  0006              add [esi],al
0000019D  0000              add [eax],al
0000019F  0000              add [eax],al
000001A1  0000              add [eax],al
000001A3  0008              add [eax],cl
000001A5  0000              add [eax],al
000001A7  0007              add [edi],al
000001A9  0000              add [eax],al
000001AB  0009              add [ecx],cl
000001AD  0000              add [eax],al
000001AF  000C00            add [eax+eax],cl
000001B2  0000              add [eax],al
000001B4  0B00              or eax,[eax]
000001B6  0000              add [eax],al
000001B8  0A00              or al,[eax]
000001BA  0000              add [eax],al
000001BC  0000              add [eax],al
000001BE  0000              add [eax],al
000001C0  0000              add [eax],al
000001C2  0000              add [eax],al
000001C4  0000              add [eax],al
000001C6  0000              add [eax],al
000001C8  0000              add [eax],al
000001CA  0000              add [eax],al
000001CC  6800000060        push dword 0x60000000
000001D1  9F                lahf
000001D2  0408              add al,0x8
000001D4  90                nop
000001D5  0000              add [eax],al
000001D7  0011              add [ecx],dl
000001D9  0019              add [ecx],bl
000001DB  0009              add [ecx],cl
000001DD  0100              add [eax],eax
000001DF  0000              add [eax],al
000001E1  0000              add [eax],al
000001E3  0000              add [eax],al
000001E5  0000              add [eax],al
000001E7  0012              add [edx],dl
000001E9  0000              add [eax],al
000001EB  00440000          add [eax+eax+0x0],al
000001EF  0000              add [eax],al
000001F1  0000              add [eax],al
000001F3  0000              add [eax],al
000001F5  0000              add [eax],al
000001F7  0020              add [eax],ah
000001F9  0000              add [eax],al
000001FB  008900000000      add [ecx+0x0],cl
00000201  0000              add [eax],al
00000203  0000              add [eax],al
00000205  0000              add [eax],al
00000207  0020              add [eax],ah
00000209  0000              add [eax],al
0000020B  007100            add [ecx+0x0],dh
0000020E  0000              add [eax],al
00000210  0000              add [eax],al
00000212  0000              add [eax],al
00000214  0000              add [eax],al
00000216  0000              add [eax],al
00000218  1200              adc al,[eax]
0000021A  0000              add [eax],al
0000021C  1D01000000        sbb eax,0x1
00000221  0000              add [eax],al
00000223  0000              add [eax],al
00000225  0000              add [eax],al
00000227  0012              add [edx],dl
00000229  0000              add [eax],al
0000022B  002C00            add [eax+eax],ch
0000022E  0000              add [eax],al
00000230  A085040800        mov al,[0x80485]
00000235  0000              add [eax],al
00000237  0012              add [edx],dl
00000239  0000              add [eax],al
0000023B  0010              add [eax],dl
0000023D  0000              add [eax],al
0000023F  0000              add [eax],al
00000241  0000              add [eax],al
00000243  0000              add [eax],al
00000245  0000              add [eax],al
00000247  0020              add [eax],ah
00000249  0000              add [eax],al
0000024B  00F3              add bl,dh
0000024D  0000              add [eax],al
0000024F  00588C            add [eax-0x74],bl
00000252  0408              add al,0x8
00000254  0400              add al,0x0
00000256  0000              add [eax],al
00000258  1100              adc [eax],eax
0000025A  0E                push cs
0000025B  00A800000000      add [eax+0x0],ch
00000261  0000              add [eax],al
00000263  0000              add [eax],al
00000265  0000              add [eax],al
00000267  0020              add [eax],ah
00000269  0000              add [eax],al
0000026B  0016              add [esi],dl
0000026D  0100              add [eax],eax
0000026F  0000              add [eax],al
00000271  0000              add [eax],al
00000273  0000              add [eax],al
00000275  0000              add [eax],al
00000277  0012              add [edx],dl
00000279  0000              add [eax],al
0000027B  0002              add [edx],al
0000027D  0100              add [eax],eax
0000027F  0000              add [eax],al
00000281  0000              add [eax],al
00000283  0000              add [eax],al
00000285  0000              add [eax],al
00000287  0012              add [edx],dl
00000289  0000              add [eax],al
0000028B  009D00000000      add [ebp+0x0],bl
00000291  0000              add [eax],al
00000293  0000              add [eax],al
00000295  0000              add [eax],al
00000297  0012              add [edx],dl
00000299  0000              add [eax],al
0000029B  005300            add [ebx+0x0],dl
0000029E  0000              add [eax],al
000002A0  E085              loopne 0x227
000002A2  0408              add al,0x8
000002A4  0000              add [eax],al
000002A6  0000              add [eax],al
000002A8  1200              adc al,[eax]
000002AA  0000              add [eax],al
000002AC  DA00              fiadd dword [eax]
000002AE  0000              add [eax],al
000002B0  0000              add [eax],al
000002B2  0000              add [eax],al
000002B4  0000              add [eax],al
000002B6  0000              add [eax],al
000002B8  1200              adc al,[eax]
000002BA  0000              add [eax],al
000002BC  006C6962          add [ecx+ebp*2+0x62],ch
000002C0  7374              jnc 0x336
000002C2  64632B            arpl [fs:ebx],bp
000002C5  2B2E              sub ebp,[esi]
000002C7  736F              jnc 0x338
000002C9  2E36005F49        add [ss:edi+0x49],bl
000002CE  54                push esp
000002CF  4D                dec ebp
000002D0  5F                pop edi
000002D1  64657265          gs jc 0x33a
000002D5  676973746572544D  imul esi,[bp+di+0x74],dword 0x4d547265
000002DD  43                inc ebx
000002DE  6C                insb
000002DF  6F                outsd
000002E0  6E                outsb
000002E1  6554              gs push esp
000002E3  61                popa
000002E4  626C6500          bound ebp,[ebp+0x0]
000002E8  5F                pop edi
000002E9  5A                pop edx
000002EA  4E                dec esi
000002EB  53                push ebx
000002EC  7438              jz 0x326
000002EE  696F735F626173    imul ebp,[edi+0x73],dword 0x7361625f
000002F5  653449            gs xor al,0x49
000002F8  6E                outsb
000002F9  697444314576005F  imul esi,[esp+eax*2+0x31],dword 0x5f007645
00000301  5F                pop edi
00000302  676D              a16 insd
00000304  6F                outsd
00000305  6E                outsb
00000306  5F                pop edi
00000307  7374              jnc 0x37d
00000309  61                popa
0000030A  7274              jc 0x380
0000030C  5F                pop edi
0000030D  5F                pop edi
0000030E  005F5F            add [edi+0x5f],bl
00000311  677878            a16 js 0x38c
00000314  5F                pop edi
00000315  7065              jo 0x37c
00000317  7273              jc 0x38c
00000319  6F                outsd
0000031A  6E                outsb
0000031B  61                popa
0000031C  6C                insb
0000031D  6974795F7630005F  imul esi,[ecx+edi*2+0x5f],dword 0x5f003076
00000325  5A                pop edx
00000326  53                push ebx
00000327  7433              jz 0x35c
00000329  63696E            arpl [ecx+0x6e],bp
0000032C  005F5A            add [edi+0x5a],bl
0000032F  4E                dec esi
00000330  53                push ebx
00000331  7438              jz 0x36b
00000333  696F735F626173    imul ebp,[edi+0x73],dword 0x7361625f
0000033A  653449            gs xor al,0x49
0000033D  6E                outsb
0000033E  697443314576005F  imul esi,[ebx+eax*2+0x31],dword 0x5f007645
00000346  4A                dec edx
00000347  765F              jna 0x3a8
00000349  52                push edx
0000034A  6567697374657243  imul esi,[gs:bp+di+0x74],dword 0x6c437265
         -6C
00000353  61                popa
00000354  7373              jnc 0x3c9
00000356  657300            gs jnc 0x359
00000359  5F                pop edi
0000035A  5A                pop edx
0000035B  4E                dec esi
0000035C  53                push ebx
0000035D  69727345526900    imul esi,[edx+0x73],dword 0x695245
00000364  5F                pop edi
00000365  49                dec ecx
00000366  54                push esp
00000367  4D                dec ebp
00000368  5F                pop edi
00000369  7265              jc 0x3d0
0000036B  676973746572544D  imul esi,[bp+di+0x74],dword 0x4d547265
00000373  43                inc ebx
00000374  6C                insb
00000375  6F                outsd
00000376  6E                outsb
00000377  6554              gs push esp
00000379  61                popa
0000037A  626C6500          bound ebp,[ebp+0x0]
0000037E  6C                insb
0000037F  69626D2E736F2E    imul esp,[edx+0x6d],dword 0x2e6f732e
00000386  36006C6962        add [ss:ecx+ebp*2+0x62],ch
0000038B  6763635F          arpl [bp+di+0x5f],sp
0000038F  732E              jnc 0x3bf
00000391  736F              jnc 0x402
00000393  2E3100            xor [cs:eax],eax
00000396  5F                pop edi
00000397  55                push ebp
00000398  6E                outsb
00000399  7769              ja 0x404
0000039B  6E                outsb
0000039C  645F              fs pop edi
0000039E  52                push edx
0000039F  657375            gs jnc 0x417
000003A2  6D                insd
000003A3  65006C6962        add [gs:ecx+ebp*2+0x62],ch
000003A8  632E              arpl [esi],bp
000003AA  736F              jnc 0x41b
000003AC  2E36005F49        add [ss:edi+0x49],bl
000003B1  4F                dec edi
000003B2  5F                pop edi
000003B3  7374              jnc 0x429
000003B5  64696E5F75736564  imul ebp,[fs:esi+0x5f],dword 0x64657375
000003BD  007072            add [eax+0x72],dh
000003C0  696E7466005F5F    imul ebp,[esi+0x74],dword 0x5f5f0066
000003C7  637861            arpl [eax+0x61],di
000003CA  5F                pop edi
000003CB  61                popa
000003CC  7465              jz 0x433
000003CE  7869              js 0x439
000003D0  7400              jz 0x3d2
000003D2  6D                insd
000003D3  656D              gs insd
000003D5  637079            arpl [eax+0x79],si
000003D8  005F5F            add [edi+0x5f],bl
000003DB  6C                insb
000003DC  6962635F737461    imul esp,[edx+0x63],dword 0x6174735f
000003E3  7274              jc 0x459
000003E5  5F                pop edi
000003E6  6D                insd
000003E7  61                popa
000003E8  696E004743435F    imul ebp,[esi+0x0],dword 0x5f434347
000003EF  332E              xor ebp,[esi]
000003F1  3000              xor [eax],al
000003F3  47                inc edi
000003F4  4C                dec esp
000003F5  49                dec ecx
000003F6  42                inc edx
000003F7  43                inc ebx
000003F8  5F                pop edi
000003F9  322E              xor ch,[esi]
000003FB  3000              xor [eax],al
000003FD  47                inc edi
000003FE  4C                dec esp
000003FF  49                dec ecx
00000400  42                inc edx
00000401  43                inc ebx
00000402  5F                pop edi
00000403  322E              xor ch,[esi]
00000405  312E              xor [esi],ebp
00000407  3300              xor eax,[eax]
00000409  43                inc ebx
0000040A  58                pop eax
0000040B  58                pop eax
0000040C  41                inc ecx
0000040D  42                inc edx
0000040E  49                dec ecx
0000040F  5F                pop edi
00000410  312E              xor [esi],ebp
00000412  3300              xor eax,[eax]
00000414  47                inc edi
00000415  4C                dec esp
00000416  49                dec ecx
00000417  42                inc edx
00000418  43                inc ebx
00000419  58                pop eax
0000041A  58                pop eax
0000041B  5F                pop edi
0000041C  332E              xor ebp,[esi]
0000041E  3400              xor al,0x0
00000420  0000              add [eax],al
00000422  0200              add al,[eax]
00000424  0300              add eax,[eax]
00000426  0000              add [eax],al
00000428  0000              add [eax],al
0000042A  0200              add al,[eax]
0000042C  0400              add al,0x0
0000042E  0200              add al,[eax]
00000430  0000              add [eax],al
00000432  0100              add [eax],eax
00000434  0000              add [eax],al
00000436  0400              add al,0x0
00000438  0400              add al,0x0
0000043A  0200              add al,[eax]
0000043C  0500060001        add eax,0x1000600
00000441  0001              add [ecx],al
00000443  00CC              add ah,cl
00000445  0000              add [eax],al
00000447  0010              add [eax],dl
00000449  0000              add [eax],al
0000044B  0020              add [eax],ah
0000044D  0000              add [eax],al
0000044F  005026            add [eax+0x26],dl
00000452  790B              jns 0x45f
00000454  0000              add [eax],al
00000456  06                push es
00000457  002F              add [edi],ch
00000459  0100              add [eax],eax
0000045B  0000              add [eax],al
0000045D  0000              add [eax],al
0000045F  0001              add [ecx],al
00000461  0002              add [edx],al
00000463  00E9              add cl,ch
00000465  0000              add [eax],al
00000467  0010              add [eax],dl
00000469  0000              add [eax],al
0000046B  0030              add [eax],dh
0000046D  0000              add [eax],al
0000046F  0010              add [eax],dl
00000471  69690D00000400    imul ebp,[ecx+0xd],dword 0x40000
00000478  37                aaa
00000479  0100              add [eax],eax
0000047B  0010              add [eax],dl
0000047D  0000              add [eax],al
0000047F  00731F            add [ebx+0x1f],dh
00000482  690900000300      imul ecx,[ecx],dword 0x30000
00000488  41                inc ecx
00000489  0100              add [eax],eax
0000048B  0000              add [eax],al
0000048D  0000              add [eax],al
0000048F  0001              add [ecx],al
00000491  0002              add [edx],al
00000493  0001              add [ecx],al
00000495  0000              add [eax],al
00000497  0010              add [eax],dl
00000499  0000              add [eax],al
0000049B  0000              add [eax],al
0000049D  0000              add [eax],al
0000049F  00D3              add bl,dl
000004A1  AF                scasd
000004A2  6B05000005004D    imul eax,[0x50000],byte +0x4d
000004A9  0100              add [eax],eax
000004AB  0010              add [eax],dl
000004AD  0000              add [eax],al
000004AF  00742992          add [ecx+ebp-0x6e],dh
000004B3  0800              or [eax],al
000004B5  0002              add [edx],al
000004B7  005801            add [eax+0x1],bl
000004BA  0000              add [eax],al
000004BC  0000              add [eax],al
000004BE  0000              add [eax],al
000004C0  0C9F              or al,0x9f
000004C2  0408              add al,0x8
000004C4  06                push es
000004C5  0300              add eax,[eax]
000004C7  00609F            add [eax-0x61],ah
000004CA  0408              add al,0x8
000004CC  050100001C        add eax,0x1c000001
000004D1  9F                lahf
000004D2  0408              add al,0x8
000004D4  07                pop es
000004D5  0200              add al,[eax]
000004D7  0020              add [eax],ah
000004D9  9F                lahf
000004DA  0408              add al,0x8
000004DC  07                pop es
000004DD  0300              add eax,[eax]
000004DF  00249F            add [edi+ebx*4],ah
000004E2  0408              add al,0x8
000004E4  07                pop es
000004E5  050000289F        add eax,0x9f280000
000004EA  0408              add al,0x8
000004EC  07                pop es
000004ED  06                push es
000004EE  0000              add [eax],al
000004F0  2C9F              sub al,0x9f
000004F2  0408              add al,0x8
000004F4  07                pop es
000004F5  07                pop es
000004F6  0000              add [eax],al
000004F8  309F0408070B      xor [edi+0xb070804],bl
000004FE  0000              add [eax],al
00000500  349F              xor al,0x9f
00000502  0408              add al,0x8
00000504  07                pop es
00000505  0C00              or al,0x0
00000507  0038              add [eax],bh
00000509  9F                lahf
0000050A  0408              add al,0x8
0000050C  07                pop es
0000050D  0D00003C9F        or eax,0x9f3c0000
00000512  0408              add al,0x8
00000514  07                pop es
00000515  0E                push cs
00000516  0000              add [eax],al
00000518  40                inc eax
00000519  9F                lahf
0000051A  0408              add al,0x8
0000051C  07                pop es
0000051D  0F0000            sldt [eax]
00000520  55                push ebp
00000521  89E5              mov ebp,esp
00000523  53                push ebx
00000524  83EC04            sub esp,byte +0x4
00000527  E800000000        call 0x52c
0000052C  5B                pop ebx
0000052D  81C3E4190000      add ebx,0x19e4
00000533  8B93FCFFFFFF      mov edx,[ebx+0xfffffffc]
00000539  85D2              test edx,edx
0000053B  7405              jz 0x542
0000053D  E82E000000        call 0x570
00000542  E8A9010000        call 0x6f0
00000547  E8C4060000        call 0xc10
0000054C  58                pop eax
0000054D  5B                pop ebx
0000054E  C9                leave
0000054F  C3                ret
00000550  FF35149F0408      push dword [0x8049f14]
00000556  FF25189F0408      jmp near [0x8049f18]
0000055C  0000              add [eax],al
0000055E  0000              add [eax],al
00000560  FF251C9F0408      jmp near [0x8049f1c]
00000566  6800000000        push dword 0x0
0000056B  E9E0FFFFFF        jmp 0x100000550
00000570  FF25209F0408      jmp near [0x8049f20]
00000576  6808000000        push dword 0x8
0000057B  E9D0FFFFFF        jmp 0x100000550
00000580  FF25249F0408      jmp near [0x8049f24]
00000586  6810000000        push dword 0x10
0000058B  E9C0FFFFFF        jmp 0x100000550
00000590  FF25289F0408      jmp near [0x8049f28]
00000596  6818000000        push dword 0x18
0000059B  E9B0FFFFFF        jmp 0x100000550
000005A0  FF252C9F0408      jmp near [0x8049f2c]
000005A6  6820000000        push dword 0x20
000005AB  E9A0FFFFFF        jmp 0x100000550
000005B0  FF25309F0408      jmp near [0x8049f30]
000005B6  6828000000        push dword 0x28
000005BB  E990FFFFFF        jmp 0x100000550
000005C0  FF25349F0408      jmp near [0x8049f34]
000005C6  6830000000        push dword 0x30
000005CB  E980FFFFFF        jmp 0x100000550
000005D0  FF25389F0408      jmp near [0x8049f38]
000005D6  6838000000        push dword 0x38
000005DB  E970FFFFFF        jmp 0x100000550
000005E0  FF253C9F0408      jmp near [0x8049f3c]
000005E6  6840000000        push dword 0x40
000005EB  E960FFFFFF        jmp 0x100000550
000005F0  FF25409F0408      jmp near [0x8049f40]
000005F6  6848000000        push dword 0x48
000005FB  E950FFFFFF        jmp 0x100000550
00000600  31ED              xor ebp,ebp
00000602  5E                pop esi
00000603  89E1              mov ecx,esp
00000605  83E4F0            and esp,byte -0x10
00000608  50                push eax
00000609  54                push esp
0000060A  52                push edx
0000060B  68A08B0408        push dword 0x8048ba0
00000610  68B08B0408        push dword 0x8048bb0
00000615  51                push ecx
00000616  56                push esi
00000617  68B3880408        push dword 0x80488b3
0000061C  E86FFFFFFF        call 0x100000590
00000621  F4                hlt
00000622  90                nop
00000623  90                nop
00000624  6690              o16 nop
00000626  6690              o16 nop
00000628  6690              o16 nop
0000062A  6690              o16 nop
0000062C  6690              o16 nop
0000062E  6690              o16 nop
00000630  B84F9F0408        mov eax,0x8049f4f
00000635  2D4C9F0408        sub eax,0x8049f4c
0000063A  83F806            cmp eax,byte +0x6
0000063D  7701              ja 0x640
0000063F  C3                ret
00000640  B800000000        mov eax,0x0
00000645  85C0              test eax,eax
00000647  74F6              jz 0x63f
00000649  55                push ebp
0000064A  89E5              mov ebp,esp
0000064C  83EC18            sub esp,byte +0x18
0000064F  C704244C9F0408    mov dword [esp],0x8049f4c
00000656  FFD0              call eax
00000658  C9                leave
00000659  C3                ret
0000065A  8DB600000000      lea esi,[esi+0x0]
00000660  B84C9F0408        mov eax,0x8049f4c
00000665  2D4C9F0408        sub eax,0x8049f4c
0000066A  C1F802            sar eax,0x2
0000066D  89C2              mov edx,eax
0000066F  C1EA1F            shr edx,0x1f
00000672  01D0              add eax,edx
00000674  D1F8              sar eax,1
00000676  7501              jnz 0x679
00000678  C3                ret
00000679  BA00000000        mov edx,0x0
0000067E  85D2              test edx,edx
00000680  74F6              jz 0x678
00000682  55                push ebp
00000683  89E5              mov ebp,esp
00000685  83EC18            sub esp,byte +0x18
00000688  89442404          mov [esp+0x4],eax
0000068C  C704244C9F0408    mov dword [esp],0x8049f4c
00000693  FFD2              call edx
00000695  C9                leave
00000696  C3                ret
00000697  89F6              mov esi,esi
00000699  8DBC2700000000    lea edi,[edi+0x0]
000006A0  803DF09F040800    cmp byte [0x8049ff0],0x0
000006A7  7544              jnz 0x6ed
000006A9  55                push ebp
000006AA  89E5              mov ebp,esp
000006AC  53                push ebx
000006AD  BB249E0408        mov ebx,0x8049e24
000006B2  52                push edx
000006B3  81EB209E0408      sub ebx,0x8049e20
000006B9  A1F49F0408        mov eax,[0x8049ff4]
000006BE  C1FB02            sar ebx,0x2
000006C1  4B                dec ebx
000006C2  39D8              cmp eax,ebx
000006C4  7318              jnc 0x6de
000006C6  6690              o16 nop
000006C8  40                inc eax
000006C9  A3F49F0408        mov [0x8049ff4],eax
000006CE  FF1485209E0408    call near [eax*4+0x8049e20]
000006D5  A1F49F0408        mov eax,[0x8049ff4]
000006DA  39D8              cmp eax,ebx
000006DC  72EA              jc 0x6c8
000006DE  E84DFFFFFF        call 0x100000630
000006E3  C605F09F040801    mov byte [0x8049ff0],0x1
000006EA  58                pop eax
000006EB  5B                pop ebx
000006EC  5D                pop ebp
000006ED  C3                ret
000006EE  6690              o16 nop
000006F0  8B0D289E0408      mov ecx,[0x8049e28]
000006F6  85C9              test ecx,ecx
000006F8  741E              jz 0x718
000006FA  B800000000        mov eax,0x0
000006FF  85C0              test eax,eax
00000701  7415              jz 0x718
00000703  55                push ebp
00000704  89E5              mov ebp,esp
00000706  83EC18            sub esp,byte +0x18
00000709  C70424289E0408    mov dword [esp],0x8049e28
00000710  FFD0              call eax
00000712  C9                leave
00000713  E948FFFFFF        jmp 0x100000660
00000718  E943FFFFFF        jmp 0x100000660
0000071D  6690              o16 nop
0000071F  90                nop
00000720  55                push ebp
00000721  89E5              mov ebp,esp
00000723  83EC38            sub esp,byte +0x38
00000726  8B4508            mov eax,[ebp+0x8]
00000729  8B550C            mov edx,[ebp+0xc]
0000072C  29C2              sub edx,eax
0000072E  89D0              mov eax,edx
00000730  40                inc eax
00000731  8945E8            mov [ebp-0x18],eax
00000734  8B450C            mov eax,[ebp+0xc]
00000737  8B5510            mov edx,[ebp+0x10]
0000073A  29C2              sub edx,eax
0000073C  89D0              mov eax,edx
0000073E  8945E4            mov [ebp-0x1c],eax
00000741  8B45E8            mov eax,[ebp-0x18]
00000744  8D148500000000    lea edx,[eax*4+0x0]
0000074B  8B4508            mov eax,[ebp+0x8]
0000074E  C1E002            shl eax,0x2
00000751  0500A00408        add eax,0x804a000
00000756  89542408          mov [esp+0x8],edx
0000075A  89442404          mov [esp+0x4],eax
0000075E  C7042480BF0408    mov dword [esp],0x804bf80
00000765  E846FEFFFF        call 0x1000005b0
0000076A  8B45E4            mov eax,[ebp-0x1c]
0000076D  8D148500000000    lea edx,[eax*4+0x0]
00000774  8B450C            mov eax,[ebp+0xc]
00000777  40                inc eax
00000778  C1E002            shl eax,0x2
0000077B  0500A00408        add eax,0x804a000
00000780  89542408          mov [esp+0x8],edx
00000784  89442404          mov [esp+0x4],eax
00000788  C7042460C70408    mov dword [esp],0x804c760
0000078F  E81CFEFFFF        call 0x1000005b0
00000794  8B45E4            mov eax,[ebp-0x1c]
00000797  C7048560C704083F  mov dword [eax*4+0x804c760],0x3f3f3f3f
         -3F3F3F
000007A2  8B45E4            mov eax,[ebp-0x1c]
000007A5  8B148560C70408    mov edx,[eax*4+0x804c760]
000007AC  8B45E8            mov eax,[ebp-0x18]
000007AF  89148580BF0408    mov [eax*4+0x804bf80],edx
000007B6  C745F000000000    mov dword [ebp-0x10],0x0
000007BD  8B45F0            mov eax,[ebp-0x10]
000007C0  8945F4            mov [ebp-0xc],eax
000007C3  8B4508            mov eax,[ebp+0x8]
000007C6  8945EC            mov [ebp-0x14],eax
000007C9  EB65              jmp short 0x830
000007CB  8B45F4            mov eax,[ebp-0xc]
000007CE  8B148580BF0408    mov edx,[eax*4+0x804bf80]
000007D5  8B45F0            mov eax,[ebp-0x10]
000007D8  8B048560C70408    mov eax,[eax*4+0x804c760]
000007DF  39C2              cmp edx,eax
000007E1  7F1C              jg 0x7ff
000007E3  8B45F4            mov eax,[ebp-0xc]
000007E6  8D5001            lea edx,[eax+0x1]
000007E9  8955F4            mov [ebp-0xc],edx
000007EC  8B148580BF0408    mov edx,[eax*4+0x804bf80]
000007F3  8B45EC            mov eax,[ebp-0x14]
000007F6  89148500A00408    mov [eax*4+0x804a000],edx
000007FD  EB2E              jmp short 0x82d
000007FF  8B45F0            mov eax,[ebp-0x10]
00000802  8D5001            lea edx,[eax+0x1]
00000805  8955F0            mov [ebp-0x10],edx
00000808  8B148560C70408    mov edx,[eax*4+0x804c760]
0000080F  8B45EC            mov eax,[ebp-0x14]
00000812  89148500A00408    mov [eax*4+0x804a000],edx
00000819  8B45F4            mov eax,[ebp-0xc]
0000081C  8B55E8            mov edx,[ebp-0x18]
0000081F  29C2              sub edx,eax
00000821  A13CCF0408        mov eax,[0x804cf3c]
00000826  01D0              add eax,edx
00000828  A33CCF0408        mov [0x804cf3c],eax
0000082D  FF45EC            inc dword [ebp-0x14]
00000830  8B45EC            mov eax,[ebp-0x14]
00000833  3B4510            cmp eax,[ebp+0x10]
00000836  7E93              jng 0x7cb
00000838  C9                leave
00000839  C3                ret
0000083A  55                push ebp
0000083B  89E5              mov ebp,esp
0000083D  83EC28            sub esp,byte +0x28
00000840  8B450C            mov eax,[ebp+0xc]
00000843  8B5508            mov edx,[ebp+0x8]
00000846  01D0              add eax,edx
00000848  89C2              mov edx,eax
0000084A  C1EA1F            shr edx,0x1f
0000084D  01D0              add eax,edx
0000084F  D1F8              sar eax,1
00000851  8945F4            mov [ebp-0xc],eax
00000854  8B4508            mov eax,[ebp+0x8]
00000857  3B450C            cmp eax,[ebp+0xc]
0000085A  7D40              jnl 0x89c
0000085C  8B45F4            mov eax,[ebp-0xc]
0000085F  89442404          mov [esp+0x4],eax
00000863  8B4508            mov eax,[ebp+0x8]
00000866  890424            mov [esp],eax
00000869  E8CCFFFFFF        call 0x10000083a
0000086E  8B45F4            mov eax,[ebp-0xc]
00000871  8D5001            lea edx,[eax+0x1]
00000874  8B450C            mov eax,[ebp+0xc]
00000877  89442404          mov [esp+0x4],eax
0000087B  891424            mov [esp],edx
0000087E  E8B7FFFFFF        call 0x10000083a
00000883  8B450C            mov eax,[ebp+0xc]
00000886  89442408          mov [esp+0x8],eax
0000088A  8B45F4            mov eax,[ebp-0xc]
0000088D  89442404          mov [esp+0x4],eax
00000891  8B4508            mov eax,[ebp+0x8]
00000894  890424            mov [esp],eax
00000897  E884FEFFFF        call 0x100000720
0000089C  C9                leave
0000089D  C3                ret
0000089E  55                push ebp
0000089F  89E5              mov ebp,esp
000008A1  837D0800          cmp dword [ebp+0x8],byte +0x0
000008A5  7907              jns 0x8ae
000008A7  8B4508            mov eax,[ebp+0x8]
000008AA  F7D8              neg eax
000008AC  EB03              jmp short 0x8b1
000008AE  8B4508            mov eax,[ebp+0x8]
000008B1  5D                pop ebp
000008B2  C3                ret
000008B3  55                push ebp
000008B4  89E5              mov ebp,esp
000008B6  83E4F0            and esp,byte -0x10
000008B9  83EC40            sub esp,byte +0x40
000008BC  C744243C00000000  mov dword [esp+0x3c],0x0
000008C4  8D442414          lea eax,[esp+0x14]
000008C8  89442404          mov [esp+0x4],eax
000008CC  C70424609F0408    mov dword [esp],0x8049f60
000008D3  E8F8FCFFFF        call 0x1000005d0
000008D8  E912020000        jmp 0xaef
000008DD  8D442410          lea eax,[esp+0x10]
000008E1  89442404          mov [esp+0x4],eax
000008E5  C70424609F0408    mov dword [esp],0x8049f60
000008EC  E8DFFCFFFF        call 0x1000005d0
000008F1  C744243800000000  mov dword [esp+0x38],0x0
000008F9  C744243400000000  mov dword [esp+0x34],0x0
00000901  C74424303F3F3F3F  mov dword [esp+0x30],0x3f3f3f3f
00000909  C744242C00000000  mov dword [esp+0x2c],0x0
00000911  EB20              jmp short 0x933
00000913  8B44242C          mov eax,[esp+0x2c]
00000917  C1E002            shl eax,0x2
0000091A  05C0AF0408        add eax,0x804afc0
0000091F  89442404          mov [esp+0x4],eax
00000923  C70424609F0408    mov dword [esp],0x8049f60
0000092A  E8A1FCFFFF        call 0x1000005d0
0000092F  FF44242C          inc dword [esp+0x2c]
00000933  8B442410          mov eax,[esp+0x10]
00000937  3944242C          cmp [esp+0x2c],eax
0000093B  7CD6              jl 0x913
0000093D  C744242800000000  mov dword [esp+0x28],0x0
00000945  EB2C              jmp short 0x973
00000947  8B442428          mov eax,[esp+0x28]
0000094B  8B0485C0AF0408    mov eax,[eax*4+0x804afc0]
00000952  3B442438          cmp eax,[esp+0x38]
00000956  7E17              jng 0x96f
00000958  8B442428          mov eax,[esp+0x28]
0000095C  89442434          mov [esp+0x34],eax
00000960  8B442434          mov eax,[esp+0x34]
00000964  8B0485C0AF0408    mov eax,[eax*4+0x804afc0]
0000096B  89442438          mov [esp+0x38],eax
0000096F  FF442428          inc dword [esp+0x28]
00000973  8B442410          mov eax,[esp+0x10]
00000977  39442428          cmp [esp+0x28],eax
0000097B  7CCA              jl 0x947
0000097D  8B442434          mov eax,[esp+0x34]
00000981  48                dec eax
00000982  89442424          mov [esp+0x24],eax
00000986  EB2A              jmp short 0x9b2
00000988  8B442424          mov eax,[esp+0x24]
0000098C  40                inc eax
0000098D  C1E002            shl eax,0x2
00000990  8D90C0AF0408      lea edx,[eax+0x804afc0]
00000996  8B442424          mov eax,[esp+0x24]
0000099A  C1E002            shl eax,0x2
0000099D  05C0AF0408        add eax,0x804afc0
000009A2  89542404          mov [esp+0x4],edx
000009A6  890424            mov [esp],eax
000009A9  E8C5010000        call 0xb73
000009AE  FF4C2424          dec dword [esp+0x24]
000009B2  837C242400        cmp dword [esp+0x24],byte +0x0
000009B7  79CF              jns 0x988
000009B9  C744242000000000  mov dword [esp+0x20],0x0
000009C1  E9FB000000        jmp 0xac1
000009C6  8B442434          mov eax,[esp+0x34]
000009CA  8B542420          mov edx,[esp+0x20]
000009CE  29C2              sub edx,eax
000009D0  89D0              mov eax,edx
000009D2  890424            mov [esp],eax
000009D5  E8C4FEFFFF        call 0x10000089e
000009DA  89442418          mov [esp+0x18],eax
000009DE  837C242000        cmp dword [esp+0x20],byte +0x0
000009E3  7426              jz 0xa0b
000009E5  8B442420          mov eax,[esp+0x20]
000009E9  48                dec eax
000009EA  C1E002            shl eax,0x2
000009ED  8D90C0AF0408      lea edx,[eax+0x804afc0]
000009F3  8B442420          mov eax,[esp+0x20]
000009F7  C1E002            shl eax,0x2
000009FA  05C0AF0408        add eax,0x804afc0
000009FF  89542404          mov [esp+0x4],edx
00000A03  890424            mov [esp],eax
00000A06  E868010000        call 0xb73
00000A0B  B800A00408        mov eax,0x804a000
00000A10  BAC0AF0408        mov edx,0x804afc0
00000A15  B9B40F0000        mov ecx,0xfb4
00000A1A  894C2408          mov [esp+0x8],ecx
00000A1E  89542404          mov [esp+0x4],edx
00000A22  890424            mov [esp],eax
00000A25  E886FBFFFF        call 0x1000005b0
00000A2A  C7053CCF04080000  mov dword [0x804cf3c],0x0
         -0000
00000A34  8B442420          mov eax,[esp+0x20]
00000A38  89442404          mov [esp+0x4],eax
00000A3C  C7042400000000    mov dword [esp],0x0
00000A43  E8F2FDFFFF        call 0x10000083a
00000A48  A13CCF0408        mov eax,[0x804cf3c]
00000A4D  01442418          add [esp+0x18],eax
00000A51  8B442420          mov eax,[esp+0x20]
00000A55  8944241C          mov [esp+0x1c],eax
00000A59  EB1E              jmp short 0xa79
00000A5B  8B44241C          mov eax,[esp+0x1c]
00000A5F  8B048500A00408    mov eax,[eax*4+0x804a000]
00000A66  F7D8              neg eax
00000A68  89C2              mov edx,eax
00000A6A  8B44241C          mov eax,[esp+0x1c]
00000A6E  89148500A00408    mov [eax*4+0x804a000],edx
00000A75  FF44241C          inc dword [esp+0x1c]
00000A79  8B442410          mov eax,[esp+0x10]
00000A7D  3944241C          cmp [esp+0x1c],eax
00000A81  7CD8              jl 0xa5b
00000A83  C7053CCF04080000  mov dword [0x804cf3c],0x0
         -0000
00000A8D  8B442410          mov eax,[esp+0x10]
00000A91  48                dec eax
00000A92  89442404          mov [esp+0x4],eax
00000A96  8B442420          mov eax,[esp+0x20]
00000A9A  890424            mov [esp],eax
00000A9D  E898FDFFFF        call 0x10000083a
00000AA2  A13CCF0408        mov eax,[0x804cf3c]
00000AA7  01442418          add [esp+0x18],eax
00000AAB  8B442418          mov eax,[esp+0x18]
00000AAF  3B442430          cmp eax,[esp+0x30]
00000AB3  7D08              jnl 0xabd
00000AB5  8B442418          mov eax,[esp+0x18]
00000AB9  89442430          mov [esp+0x30],eax
00000ABD  FF442420          inc dword [esp+0x20]
00000AC1  8B442410          mov eax,[esp+0x10]
00000AC5  39442420          cmp [esp+0x20],eax
00000AC9  0F8CF7FEFFFF      jl near 0x1000009c6
00000ACF  FF44243C          inc dword [esp+0x3c]
00000AD3  8B442430          mov eax,[esp+0x30]
00000AD7  89442408          mov [esp+0x8],eax
00000ADB  8B44243C          mov eax,[esp+0x3c]
00000ADF  89442404          mov [esp+0x4],eax
00000AE3  C704245C8C0408    mov dword [esp],0x8048c5c
00000AEA  E8D1FAFFFF        call 0x1000005c0
00000AEF  8B442414          mov eax,[esp+0x14]
00000AF3  8D50FF            lea edx,[eax-0x1]
00000AF6  89542414          mov [esp+0x14],edx
00000AFA  85C0              test eax,eax
00000AFC  0F95C0            setnz al
00000AFF  84C0              test al,al
00000B01  0F85D6FDFFFF      jnz near 0x1000008dd
00000B07  B800000000        mov eax,0x0
00000B0C  EB08              jmp short 0xb16
00000B0E  890424            mov [esp],eax
00000B11  E8DAFAFFFF        call 0x1000005f0
00000B16  C9                leave
00000B17  C3                ret
00000B18  55                push ebp
00000B19  89E5              mov ebp,esp
00000B1B  83EC18            sub esp,byte +0x18
00000B1E  837D0801          cmp dword [ebp+0x8],byte +0x1
00000B22  7531              jnz 0xb55
00000B24  817D0CFFFF0000    cmp dword [ebp+0xc],0xffff
00000B2B  7528              jnz 0xb55
00000B2D  C7042440CF0408    mov dword [esp],0x804cf40
00000B34  E847FAFFFF        call 0x100000580
00000B39  C7442408489F0408  mov dword [esp+0x8],0x8049f48
00000B41  C744240440CF0408  mov dword [esp+0x4],0x804cf40
00000B49  C70424A0850408    mov dword [esp],0x80485a0
00000B50  E80BFAFFFF        call 0x100000560
00000B55  C9                leave
00000B56  C3                ret
00000B57  55                push ebp
00000B58  89E5              mov ebp,esp
00000B5A  83EC18            sub esp,byte +0x18
00000B5D  C7442404FFFF0000  mov dword [esp+0x4],0xffff
00000B65  C7042401000000    mov dword [esp],0x1
00000B6C  E8A7FFFFFF        call 0x100000b18
00000B71  C9                leave
00000B72  C3                ret
00000B73  55                push ebp
00000B74  89E5              mov ebp,esp
00000B76  83EC10            sub esp,byte +0x10
00000B79  8B4508            mov eax,[ebp+0x8]
00000B7C  8B00              mov eax,[eax]
00000B7E  8945FC            mov [ebp-0x4],eax
00000B81  8B450C            mov eax,[ebp+0xc]
00000B84  8B10              mov edx,[eax]
00000B86  8B4508            mov eax,[ebp+0x8]
00000B89  8910              mov [eax],edx
00000B8B  8B450C            mov eax,[ebp+0xc]
00000B8E  8B55FC            mov edx,[ebp-0x4]
00000B91  8910              mov [eax],edx
00000B93  C9                leave
00000B94  C3                ret
00000B95  6690              o16 nop
00000B97  6690              o16 nop
00000B99  6690              o16 nop
00000B9B  6690              o16 nop
00000B9D  6690              o16 nop
00000B9F  90                nop
00000BA0  55                push ebp
00000BA1  89E5              mov ebp,esp
00000BA3  5D                pop ebp
00000BA4  C3                ret
00000BA5  66                db 0x66
00000BA6  66                db 0x66
00000BA7  2E                db 0x2E
00000BA8  0F                db 0x0F
00000BA9  1F                pop ds
00000BAA  8400              test [eax],al
00000BAC  0000              add [eax],al
00000BAE  0000              add [eax],al
00000BB0  55                push ebp
00000BB1  89E5              mov ebp,esp
00000BB3  57                push edi
00000BB4  56                push esi
00000BB5  53                push ebx
00000BB6  E84F000000        call 0xc0a
00000BBB  81C355130000      add ebx,0x1355
00000BC1  83EC1C            sub esp,byte +0x1c
00000BC4  E857F9FFFF        call 0x100000520
00000BC9  8DBB03FFFFFF      lea edi,[ebx+0xffffff03]
00000BCF  8D8303FFFFFF      lea eax,[ebx+0xffffff03]
00000BD5  29C7              sub edi,eax
00000BD7  C1FF02            sar edi,0x2
00000BDA  85FF              test edi,edi
00000BDC  7424              jz 0xc02
00000BDE  31F6              xor esi,esi
00000BE0  8B4510            mov eax,[ebp+0x10]
00000BE3  89442408          mov [esp+0x8],eax
00000BE7  8B450C            mov eax,[ebp+0xc]
00000BEA  89442404          mov [esp+0x4],eax
00000BEE  8B4508            mov eax,[ebp+0x8]
00000BF1  890424            mov [esp],eax
00000BF4  FF94B303FFFFFF    call near [ebx+esi*4+0xffffff03]
00000BFB  83C601            add esi,byte +0x1
00000BFE  39FE              cmp esi,edi
00000C00  72DE              jc 0xbe0
00000C02  83C41C            add esp,byte +0x1c
00000C05  5B                pop ebx
00000C06  5E                pop esi
00000C07  5F                pop edi
00000C08  5D                pop ebp
00000C09  C3                ret
00000C0A  8B1C24            mov ebx,[esp]
00000C0D  C3                ret
00000C0E  6690              o16 nop
00000C10  55                push ebp
00000C11  89E5              mov ebp,esp
00000C13  53                push ebx
00000C14  52                push edx
00000C15  BB189E0408        mov ebx,0x8049e18
00000C1A  A1189E0408        mov eax,[0x8049e18]
00000C1F  83F8FF            cmp eax,byte -0x1
00000C22  7410              jz 0xc34
00000C24  8D742600          lea esi,[esi+0x0]
00000C28  83EB04            sub ebx,byte +0x4
00000C2B  FFD0              call eax
00000C2D  8B03              mov eax,[ebx]
00000C2F  83F8FF            cmp eax,byte -0x1
00000C32  75F4              jnz 0xc28
00000C34  58                pop eax
00000C35  5B                pop ebx
00000C36  5D                pop ebp
00000C37  C3                ret
00000C38  55                push ebp
00000C39  89E5              mov ebp,esp
00000C3B  53                push ebx
00000C3C  83EC04            sub esp,byte +0x4
00000C3F  E800000000        call 0xc44
00000C44  5B                pop ebx
00000C45  81C3CC120000      add ebx,0x12cc
00000C4B  E850FAFFFF        call 0x1000006a0
00000C50  59                pop ecx
00000C51  5B                pop ebx
00000C52  C9                leave
00000C53  C3                ret
00000C54  0300              add eax,[eax]
00000C56  0000              add [eax],al
00000C58  0100              add [eax],eax
00000C5A  0200              add al,[eax]
00000C5C  43                inc ebx
00000C5D  61                popa
00000C5E  7365              jnc 0xcc5
00000C60  2023              and [ebx],ah
00000C62  25643A2025        and eax,0x25203a64
00000C67  640A00            or al,[fs:eax]
00000C6A  0000              add [eax],al
00000C6C  ED                in eax,dx
00000C6D  0300              add eax,[eax]
00000C6F  003F              add [edi],bh
00000C71  3F                aas
00000C72  3F                aas
00000C73  3F                aas
00000C74  011B              add [ebx],ebx
00000C76  033B              add edi,[ebx]
00000C78  48                dec eax
00000C79  0000              add [eax],al
00000C7B  0008              add [eax],cl
00000C7D  0000              add [eax],al
00000C7F  00DC              add ah,bl
00000C81  F8                clc
00000C82  FF                db 0xFF
00000C83  FF640000          jmp near [eax+eax+0x0]
00000C87  00ACFAFFFF8800    add [edx+edi*8+0x88ffff],ch
00000C8E  0000              add [eax],al
00000C90  C6                db 0xC6
00000C91  FB                sti
00000C92  FF                db 0xFF
00000C93  FFA80000002A      jmp far [eax+0x2a000000]
00000C99  FC                cld
00000C9A  FF                db 0xFF
00000C9B  FFC8              dec eax
00000C9D  0000              add [eax],al
00000C9F  003F              add [edi],bh
00000CA1  FC                cld
00000CA2  FF                db 0xFF
00000CA3  FF08              dec dword [eax]
00000CA5  0100              add [eax],eax
00000CA7  00A4FEFFFF4C01    add [esi+edi*8+0x14cffff],ah
00000CAE  0000              add [eax],al
00000CB0  E3FE              jecxz 0xcb0
00000CB2  FF                db 0xFF
00000CB3  FF6C0100          jmp far [ecx+eax+0x0]
00000CB7  00FF              add bh,bh
00000CB9  FE                db 0xFE
00000CBA  FF                db 0xFF
00000CBB  FF2C01            jmp far [ecx+eax]
00000CBE  0000              add [eax],al
00000CC0  1400              adc al,0x0
00000CC2  0000              add [eax],al
00000CC4  0000              add [eax],al
00000CC6  0000              add [eax],al
00000CC8  017A52            add [edx+0x52],edi
00000CCB  0001              add [ecx],al
00000CCD  7C08              jl 0xcd7
00000CCF  011B              add [ebx],ebx
00000CD1  0C04              or al,0x4
00000CD3  0488              add al,0x88
00000CD5  0100              add [eax],eax
00000CD7  0020              add [eax],ah
00000CD9  0000              add [eax],al
00000CDB  001C00            add [eax+eax],bl
00000CDE  0000              add [eax],al
00000CE0  70F8              jo 0xcda
00000CE2  FF                db 0xFF
00000CE3  FFB000000000      push dword [eax+0x0]
00000CE9  0E                push cs
00000CEA  08460E            or [esi+0xe],al
00000CED  0C4A              or al,0x4a
00000CEF  0F0B              ud2
00000CF1  7404              jz 0xcf7
00000CF3  7800              js 0xcf5
00000CF5  3F                aas
00000CF6  1A3B              sbb bh,[ebx]
00000CF8  2A32              sub dh,[edx]
00000CFA  2422              and al,0x22
00000CFC  1C00              sbb al,0x0
00000CFE  0000              add [eax],al
00000D00  40                inc eax
00000D01  0000              add [eax],al
00000D03  001CFA            add [edx+edi*8],bl
00000D06  FF                db 0xFF
00000D07  FF1A              call far [edx]
00000D09  0100              add [eax],eax
00000D0B  0000              add [eax],al
00000D0D  41                inc ecx
00000D0E  0E                push cs
00000D0F  088502420D05      or [ebp+0x50d4202],al
00000D15  0316              add edx,[esi]
00000D17  01C5              add ebp,eax
00000D19  0C04              or al,0x4
00000D1B  041C              add al,0x1c
00000D1D  0000              add [eax],al
00000D1F  006000            add [eax+0x0],ah
00000D22  0000              add [eax],al
00000D24  16                push ss
00000D25  FB                sti
00000D26  FF                db 0xFF
00000D27  FF640000          jmp near [eax+eax+0x0]
00000D2B  0000              add [eax],al
00000D2D  41                inc ecx
00000D2E  0E                push cs
00000D2F  088502420D05      or [ebp+0x50d4202],al
00000D35  0260C5            add ah,[eax-0x3b]
00000D38  0C04              or al,0x4
00000D3A  0400              add al,0x0
00000D3C  1C00              sbb al,0x0
00000D3E  0000              add [eax],al
00000D40  800000            add byte [eax],0x0
00000D43  005AFB            add [edx-0x5],bl
00000D46  FF                db 0xFF
00000D47  FF1500000000      call near [0x0]
00000D4D  41                inc ecx
00000D4E  0E                push cs
00000D4F  088502420D05      or [ebp+0x50d4202],al
00000D55  51                push ecx
00000D56  C50C04            lds ecx,[esp+eax]
00000D59  0400              add al,0x0
00000D5B  001C00            add [eax+eax],bl
00000D5E  0000              add [eax],al
00000D60  0000              add [eax],al
00000D62  0000              add [eax],al
00000D64  017A50            add [edx+0x50],edi
00000D67  4C                dec esp
00000D68  52                push edx
00000D69  0001              add [ecx],al
00000D6B  7C08              jl 0xd75
00000D6D  07                pop es
00000D6E  00E0              add al,ah
00000D70  850408            test [eax+ecx],eax
00000D73  001B              add [ebx],bl
00000D75  0C04              or al,0x4
00000D77  0488              add al,0x88
00000D79  0100              add [eax],eax
00000D7B  0020              add [eax],ah
00000D7D  0000              add [eax],al
00000D7F  002400            add [eax+eax],ah
00000D82  0000              add [eax],al
00000D84  2F                das
00000D85  FB                sti
00000D86  FF                db 0xFF
00000D87  FF6502            jmp near [ebp+0x2]
00000D8A  0000              add [eax],al
00000D8C  0404              add al,0x4
00000D8E  8E0408            mov es,[eax+ecx]
00000D91  41                inc ecx
00000D92  0E                push cs
00000D93  088502420D05      or [ebp+0x50d4202],al
00000D99  036102            add esp,[ecx+0x2]
00000D9C  C50C04            lds ecx,[esp+eax]
00000D9F  041C              add al,0x1c
00000DA1  0000              add [eax],al
00000DA3  00E4              add ah,ah
00000DA5  0000              add [eax],al
00000DA7  00CB              add bl,cl
00000DA9  FD                std
00000DAA  FF                db 0xFF
00000DAB  FF22              jmp near [edx]
00000DAD  0000              add [eax],al
00000DAF  0000              add [eax],al
00000DB1  41                inc ecx
00000DB2  0E                push cs
00000DB3  088502420D05      or [ebp+0x50d4202],al
00000DB9  5E                pop esi
00000DBA  C50C04            lds ecx,[esp+eax]
00000DBD  0400              add al,0x0
00000DBF  001C00            add [eax+eax],bl
00000DC2  0000              add [eax],al
00000DC4  0401              add al,0x1
00000DC6  0000              add [eax],al
00000DC8  50                push eax
00000DC9  FD                std
00000DCA  FF                db 0xFF
00000DCB  FF                db 0xFF
00000DCC  3F                aas
00000DCD  0000              add [eax],al
00000DCF  0000              add [eax],al
00000DD1  41                inc ecx
00000DD2  0E                push cs
00000DD3  088502420D05      or [ebp+0x50d4202],al
00000DD9  7BC5              jpo 0xda0
00000DDB  0C04              or al,0x4
00000DDD  0400              add al,0x0
00000DDF  001C00            add [eax+eax],bl
00000DE2  0000              add [eax],al
00000DE4  2401              and al,0x1
00000DE6  0000              add [eax],al
00000DE8  6F                outsd
00000DE9  FD                std
00000DEA  FF                db 0xFF
00000DEB  FF1C00            call far [eax+eax]
00000DEE  0000              add [eax],al
00000DF0  00410E            add [ecx+0xe],al
00000DF3  088502420D05      or [ebp+0x50d4202],al
00000DF9  58                pop eax
00000DFA  C50C04            lds ecx,[esp+eax]
00000DFD  0400              add al,0x0
00000DFF  0000              add [eax],al
00000E01  0000              add [eax],al
00000E03  00FF              add bh,bh
00000E05  FF01              inc dword [ecx]
00000E07  0B20              or esp,[eax]
00000E09  9C                pushf
00000E0A  04DB              add al,0xdb
00000E0C  0400              add al,0x0
00000E0E  DE0405000000FF    fiadd word [eax+0xff000000]
00000E15  FF                db 0xFF
00000E16  FF                db 0xFF
00000E17  FF578B            call near [edi-0x75]
00000E1A  0408              add al,0x8
00000E1C  0000              add [eax],al
00000E1E  0000              add [eax],al
00000E20  FF                db 0xFF
00000E21  FF                db 0xFF
00000E22  FF                db 0xFF
00000E23  FF00              inc dword [eax]
00000E25  0000              add [eax],al
00000E27  0000              add [eax],al
00000E29  0000              add [eax],al
00000E2B  0001              add [ecx],al
00000E2D  0000              add [eax],al
00000E2F  0001              add [ecx],al
00000E31  0000              add [eax],al
00000E33  0001              add [ecx],al
00000E35  0000              add [eax],al
00000E37  00C2              add dl,al
00000E39  0000              add [eax],al
00000E3B  0001              add [ecx],al
00000E3D  0000              add [eax],al
00000E3F  00CC              add ah,cl
00000E41  0000              add [eax],al
00000E43  0001              add [ecx],al
00000E45  0000              add [eax],al
00000E47  00E9              add cl,ch
00000E49  0000              add [eax],al
00000E4B  000C00            add [eax+eax],cl
00000E4E  0000              add [eax],al
00000E50  208504080D00      and [ebp+0xd0804],al
00000E56  0000              add [eax],al
00000E58  388C0408040000    cmp [esp+eax+0x408],cl
00000E5F  006881            add [eax-0x7f],ch
00000E62  0408              add al,0x8
00000E64  05000000BC        add eax,0xbc000000
00000E69  82                db 0x82
00000E6A  0408              add al,0x8
00000E6C  06                push es
00000E6D  0000              add [eax],al
00000E6F  00BC8104080A00    add [ecx+eax*4+0xa0804],bh
00000E76  0000              add [eax],al
00000E78  640100            add [fs:eax],eax
00000E7B  000B              add [ebx],cl
00000E7D  0000              add [eax],al
00000E7F  0010              add [eax],dl
00000E81  0000              add [eax],al
00000E83  001500000000      add [0x0],dl
00000E89  0000              add [eax],al
00000E8B  0003              add [ebx],al
00000E8D  0000              add [eax],al
00000E8F  0010              add [eax],dl
00000E91  9F                lahf
00000E92  0408              add al,0x8
00000E94  0200              add al,[eax]
00000E96  0000              add [eax],al
00000E98  50                push eax
00000E99  0000              add [eax],al
00000E9B  001400            add [eax+eax],dl
00000E9E  0000              add [eax],al
00000EA0  1100              adc [eax],eax
00000EA2  0000              add [eax],al
00000EA4  17                pop ss
00000EA5  0000              add [eax],al
00000EA7  00D0              add al,dl
00000EA9  840408            test [eax+ecx],al
00000EAC  1100              adc [eax],eax
00000EAE  0000              add [eax],al
00000EB0  C084040812000000  rol byte [esp+eax+0x1208],0x0
00000EB8  1000              adc [eax],al
00000EBA  0000              add [eax],al
00000EBC  1300              adc eax,[eax]
00000EBE  0000              add [eax],al
00000EC0  0800              or [eax],al
00000EC2  0000              add [eax],al
00000EC4  FE                db 0xFE
00000EC5  FF                db 0xFF
00000EC6  FF6F40            jmp far [edi+0x40]
00000EC9  840408            test [eax+ecx],al
00000ECC  FF                db 0xFF
00000ECD  FF                db 0xFF
00000ECE  FF6F03            jmp far [edi+0x3]
00000ED1  0000              add [eax],al
00000ED3  00F0              add al,dh
00000ED5  FF                db 0xFF
00000ED6  FF6F20            jmp far [edi+0x20]
00000ED9  840408            test [eax+ecx],al
00000EDC  0000              add [eax],al
00000EDE  0000              add [eax],al
00000EE0  0000              add [eax],al
00000EE2  0000              add [eax],al
00000EE4  0000              add [eax],al
00000EE6  0000              add [eax],al
00000EE8  0000              add [eax],al
00000EEA  0000              add [eax],al
00000EEC  0000              add [eax],al
00000EEE  0000              add [eax],al
00000EF0  0000              add [eax],al
00000EF2  0000              add [eax],al
00000EF4  0000              add [eax],al
00000EF6  0000              add [eax],al
00000EF8  0000              add [eax],al
00000EFA  0000              add [eax],al
00000EFC  0000              add [eax],al
00000EFE  0000              add [eax],al
00000F00  0000              add [eax],al
00000F02  0000              add [eax],al
00000F04  0000              add [eax],al
00000F06  0000              add [eax],al
00000F08  0000              add [eax],al
00000F0A  0000              add [eax],al
00000F0C  0000              add [eax],al
00000F0E  0000              add [eax],al
00000F10  2C9E              sub al,0x9e
00000F12  0408              add al,0x8
00000F14  0000              add [eax],al
00000F16  0000              add [eax],al
00000F18  0000              add [eax],al
00000F1A  0000              add [eax],al
00000F1C  66850408          test [eax+ecx],ax
00000F20  7685              jna 0xea7
00000F22  0408              add al,0x8
00000F24  868504089685      xchg al,[ebp+0x85960804]
00000F2A  0408              add al,0x8
00000F2C  A6                cmpsb
00000F2D  850408            test [eax+ecx],eax
00000F30  B685              mov dh,0x85
00000F32  0408              add al,0x8
00000F34  C6850408D68504    mov byte [ebp+0x85d60804],0x4
00000F3B  08E6              or dh,ah
00000F3D  850408            test [eax+ecx],eax
00000F40  F6850408000000    test byte [ebp+0x804],0x0
00000F47  0000              add [eax],al
00000F49  0000              add [eax],al
00000F4B  004743            add [edi+0x43],al
00000F4E  43                inc ebx
00000F4F  3A20              cmp ah,[eax]
00000F51  285562            sub [ebp+0x62],dl
00000F54  756E              jnz 0xfc4
00000F56  7475              jz 0xfcd
00000F58  20342E            and [esi+ebp],dh
00000F5B  342E              xor al,0x2e
00000F5D  332D34756275      xor ebp,[0x75627534]
00000F63  6E                outsb
00000F64  7475              jz 0xfdb
00000F66  352920342E        xor eax,0x2e342029
00000F6B  342E              xor al,0x2e
00000F6D  3300              xor eax,[eax]
00000F6F  47                inc edi
00000F70  43                inc ebx
00000F71  43                inc ebx
00000F72  3A20              cmp ah,[eax]
00000F74  28474E            sub [edi+0x4e],al
00000F77  55                push ebp
00000F78  2920              sub [eax],esp
00000F7A  342E              xor al,0x2e
00000F7C  382E              cmp [esi],ch
00000F7E  3100              xor [eax],eax
00000F80  1C00              sbb al,0x0
00000F82  0000              add [eax],al
00000F84  0200              add al,[eax]
00000F86  0000              add [eax],al
00000F88  0000              add [eax],al
00000F8A  0400              add al,0x0
00000F8C  0000              add [eax],al
00000F8E  0000              add [eax],al
00000F90  008604082200      add [esi+0x220804],al
00000F96  0000              add [eax],al
00000F98  0000              add [eax],al
00000F9A  0000              add [eax],al
00000F9C  0000              add [eax],al
00000F9E  0000              add [eax],al
00000FA0  1C00              sbb al,0x0
00000FA2  0000              add [eax],al
00000FA4  0200              add al,[eax]
00000FA6  0E                push cs
00000FA7  0100              add [eax],eax
00000FA9  000400            add [eax+eax],al
00000FAC  0000              add [eax],al
00000FAE  0000              add [eax],al
00000FB0  A08B04086A        mov al,[0x6a08048b]
00000FB5  0000              add [eax],al
00000FB7  0000              add [eax],al
00000FB9  0000              add [eax],al
00000FBB  0000              add [eax],al
00000FBD  0000              add [eax],al
00000FBF  0021              add [ecx],ah
00000FC1  0000              add [eax],al
00000FC3  0002              add [edx],al
00000FC5  00810000008D      add [ecx+0x8d000000],al
00000FCB  0000              add [eax],al
00000FCD  007500            add [ebp+0x0],dh
00000FD0  0000              add [eax],al
00000FD2  5F                pop edi
00000FD3  49                dec ecx
00000FD4  4F                dec edi
00000FD5  5F                pop edi
00000FD6  7374              jnc 0x104c
00000FD8  64696E5F75736564  imul ebp,[fs:esi+0x5f],dword 0x64657375
00000FE0  0000              add [eax],al
00000FE2  0000              add [eax],al
00000FE4  0036              add [esi],dh
00000FE6  0000              add [eax],al
00000FE8  0002              add [edx],al
00000FEA  000E              add [esi],cl
00000FEC  0100              add [eax],eax
00000FEE  0013              add [ebx],dl
00000FF0  0100              add [eax],eax
00000FF2  003E              add [esi],bh
00000FF4  0000              add [eax],al
00000FF6  005F5F            add [edi+0x5f],bl
00000FF9  6C                insb
00000FFA  6962635F637375    imul esp,[edx+0x63],dword 0x7573635f
00001001  5F                pop edi
00001002  66696E690053      imul bp,[esi+0x69],word 0x5300
00001008  0000              add [eax],al
0000100A  005F5F            add [edi+0x5f],bl
0000100D  6C                insb
0000100E  6962635F637375    imul esp,[edx+0x63],dword 0x7573635f
00001015  5F                pop edi
00001016  696E6974000000    imul ebp,[esi+0x69],dword 0x74
0000101D  0000              add [eax],al
0000101F  7D00              jnl 0x1021
00001021  0000              add [eax],al
00001023  0200              add al,[eax]
00001025  0000              add [eax],al
00001027  0000              add [eax],al
00001029  0401              add al,0x1
0000102B  0000              add [eax],al
0000102D  0000              add [eax],al
0000102F  008604082286      add [esi+0x86220804],al
00001035  0408              add al,0x8
00001037  2E2E2F            cs das
0000103A  7379              jnc 0x10b5
0000103C  7364              jnc 0x10a2
0000103E  657073            gs jo 0x10b4
00001041  2F                das
00001042  693338362F65      imul esi,[ebx],dword 0x652f3638
00001048  6C                insb
00001049  662F              o16 das
0000104B  7374              jnc 0x10c1
0000104D  61                popa
0000104E  7274              jc 0x10c4
00001050  2E53              cs push ebx
00001052  002F              add [edi],ch
00001054  686F6D652F        push dword 0x2f656d6f
00001059  7069              jo 0x10c4
0000105B  657272            gs jc 0x10d0
0000105E  652F              gs das
00001060  42                inc edx
00001061  7572              jnz 0x10d5
00001063  6561              gs popa
00001065  752F              jnz 0x1096
00001067  6865616465        push dword 0x65646165
0000106C  7273              jc 0x10e1
0000106E  2D676C6962        sub eax,0x62696c67
00001073  632D666F722D      arpl [0x2d726f66],bp
00001079  6C                insb
0000107A  696E75782F676C    imul ebp,[esi+0x75],dword 0x6c672f78
00001081  6962632D322E31    imul esp,[edx+0x63],dword 0x312e322d
00001088  322E              xor ch,[esi]
0000108A  322F              xor ch,[edi]
0000108C  637375            arpl [ebx+0x75],si
0000108F  00474E            add [edi+0x4e],al
00001092  55                push ebp
00001093  204153            and [ecx+0x53],al
00001096  2032              and [edx],dh
00001098  2E3230            xor dh,[cs:eax]
0000109B  2E3100            xor [cs:eax],eax
0000109E  018089000000      add [eax+0x89],eax
000010A4  0200              add al,[eax]
000010A6  1400              adc al,0x0
000010A8  0000              add [eax],al
000010AA  0401              add al,0x1
000010AC  8E00              mov es,[eax]
000010AE  0000              add [eax],al
000010B0  01CD              add ebp,ecx
000010B2  0000              add [eax],al
000010B4  004300            add [ebx+0x0],al
000010B7  0000              add [eax],al
000010B9  2486              and al,0x86
000010BB  0408              add al,0x8
000010BD  2486              and al,0x86
000010BF  0408              add al,0x8
000010C1  5B                pop ebx
000010C2  0000              add [eax],al
000010C4  0002              add [edx],al
000010C6  0108              add [eax],ecx
000010C8  800000            add byte [eax],0x0
000010CB  0002              add [edx],al
000010CD  0207              add al,[edi]
000010CF  0000              add [eax],al
000010D1  0000              add [eax],al
000010D3  020407            add al,[edi+eax]
000010D6  360000            add [ss:eax],al
000010D9  0002              add [edx],al
000010DB  0407              add al,0x7
000010DD  3100              xor [eax],eax
000010DF  0000              add [eax],al
000010E1  0201              add al,[ecx]
000010E3  06                push es
000010E4  82                db 0x82
000010E5  0000              add [eax],al
000010E7  0002              add [edx],al
000010E9  020513000000      add al,[0x13]
000010EF  030405696E7400    add eax,[eax+0x746e69]
000010F6  0208              add cl,[eax]
000010F8  059A000000        add eax,0x9a
000010FD  0208              add cl,[eax]
000010FF  07                pop es
00001100  2C00              sub al,0x0
00001102  0000              add [eax],al
00001104  0204059F000000    add al,[eax+0x9f]
0000110B  0404              add al,0x4
0000110D  07                pop es
0000110E  0201              add al,[ecx]
00001110  06                push es
00001111  8900              mov [eax],eax
00001113  0000              add [eax],al
00001115  051D000000        add eax,0x1d
0000111A  0119              add [ecx],ebx
0000111C  8700              xchg eax,[eax]
0000111E  0000              add [eax],al
00001120  010503588C04      add [0x48c5803],eax
00001126  0806              or [esi],al
00001128  4F                dec edi
00001129  0000              add [eax],al
0000112B  0000              add [eax],al
0000112D  0F0100            sgdt [eax]
00001130  0002              add [edx],al
00001132  005F00            add [edi+0x0],bl
00001135  0000              add [eax],al
00001137  0401              add al,0x1
00001139  8E00              mov es,[eax]
0000113B  0000              add [eax],al
0000113D  01C9              add ecx,ecx
0000113F  0000              add [eax],al
00001141  004300            add [ebx+0x0],al
00001144  0000              add [eax],al
00001146  A08B04080A        mov al,[0xa08048b]
0000114B  8C0408            mov [eax+ecx],es
0000114E  82                db 0x82
0000114F  0000              add [eax],al
00001151  0002              add [edx],al
00001153  0405              add al,0x5
00001155  696E740003AD00    imul ebp,[esi+0x74],dword 0xad0300
0000115C  0000              add [eax],al
0000115E  02D3              add dl,bl
00001160  37                aaa
00001161  0000              add [eax],al
00001163  000404            add [esp+eax],al
00001166  07                pop es
00001167  360000            add [ss:eax],al
0000116A  000501FD0000      add [0xfd01],al
00001170  0001              add [ecx],al
00001172  8301A0            add dword [ecx],byte -0x60
00001175  8B0408            mov eax,[eax+ecx]
00001178  A5                movsd
00001179  8B0408            mov eax,[eax+ecx]
0000117C  0000              add [eax],al
0000117E  0000              add [eax],al
00001180  06                push es
00001181  01B900000001      add [ecx+0x1000000],edi
00001187  6901B08B0408      imul eax,[ecx],dword 0x8048bb0
0000118D  0A8C04082C0000    or cl,[esp+eax+0x2c08]
00001194  00B900000007      add [ecx+0x7000000],bh
0000119A  B400              mov ah,0x0
0000119C  0000              add [eax],al
0000119E  016925            add [ecx+0x25],ebp
000011A1  0000              add [eax],al
000011A3  0002              add [edx],al
000011A5  91                xchg eax,ecx
000011A6  0007              add [edi],al
000011A8  0D01000001        or eax,0x1000001
000011AD  69B9000000029104  imul edi,[ecx+0x2000000],dword 0xa8070491
         -07A8
000011B7  0000              add [eax],al
000011B9  0001              add [ecx],al
000011BB  69B9000000029108  imul edi,[ecx+0x2000000],dword 0xe7080891
         -08E7
000011C5  0000              add [eax],al
000011C7  0001              add [ecx],al
000011C9  7ACC              jpe 0x1197
000011CB  0000              add [eax],al
000011CD  0009              add [ecx],cl
000011CF  C9                leave
000011D0  8B0408            mov eax,[eax+ecx]
000011D3  028C04080A6900    add cl,[esp+eax+0x690a08]
000011DA  017B2C            add [ebx+0x2c],edi
000011DD  0000              add [eax],al
000011DF  005800            add [eax+0x0],bl
000011E2  0000              add [eax],al
000011E4  0000              add [eax],al
000011E6  0B04BF            or eax,[edi+edi*4]
000011E9  0000              add [eax],al
000011EB  000B              add [ebx],cl
000011ED  04C5              add al,0xc5
000011EF  0000              add [eax],al
000011F1  000401            add [ecx+eax],al
000011F4  06                push es
000011F5  8900              mov [eax],eax
000011F7  0000              add [eax],al
000011F9  0C2C              or al,0x2c
000011FB  0000              add [eax],al
000011FD  000DF2000000      add [0xf2],cl
00001203  DC00              fadd qword [eax]
00001205  0000              add [eax],al
00001207  0E                push cs
00001208  000F              add [edi],cl
0000120A  01F2              add edx,esi
0000120C  0000              add [eax],al
0000120E  0010              add [eax],dl
00001210  2500000010        and eax,0x10000000
00001215  B900000010        mov ecx,0x10000000
0000121A  B900000000        mov ecx,0x0
0000121F  0B04DC            or eax,[esp+ebx*8]
00001222  0000              add [eax],al
00001224  0011              add [ecx],dl
00001226  D400              aam 0x0
00001228  0000              add [eax],al
0000122A  013B              add [ebx],edi
0000122C  D100              rol dword [eax],1
0000122E  0000              add [eax],al
00001230  0101              add [ecx],eax
00001232  11EC              adc esp,ebp
00001234  0000              add [eax],al
00001236  0001              add [ecx],al
00001238  3DD1000000        cmp eax,0xd1
0000123D  0101              add [ecx],eax
0000123F  0001              add [ecx],al
00001241  1100              adc [eax],eax
00001243  1006              adc [esi],al
00001245  1101              adc [ecx],eax
00001247  1201              adc al,[ecx]
00001249  0308              add ecx,[eax]
0000124B  1B08              sbb ecx,[eax]
0000124D  2508130500        and eax,0x51308
00001252  0000              add [eax],al
00001254  0111              add [ecx],edx
00001256  01250E130B03      add [0x30b130e],esp
0000125C  0E                push cs
0000125D  1B0E              sbb ecx,[esi]
0000125F  1101              adc [ecx],eax
00001261  1201              adc al,[ecx]
00001263  1006              adc [esi],al
00001265  0000              add [eax],al
00001267  022400            add ah,[eax+eax]
0000126A  0B0B              or ecx,[ebx]
0000126C  3E0B03            or eax,[ds:ebx]
0000126F  0E                push cs
00001270  0000              add [eax],al
00001272  032400            add esp,[eax+eax]
00001275  0B0B              or ecx,[ebx]
00001277  3E0B03            or eax,[ds:ebx]
0000127A  0800              or [eax],al
0000127C  000424            add [esp],al
0000127F  000B              add [ebx],cl
00001281  0B3E              or edi,[esi]
00001283  0B00              or eax,[eax]
00001285  00053400030E      add [0xe030034],al
0000128B  3A0B              cmp cl,[ebx]
0000128D  3B0B              cmp ecx,[ebx]
0000128F  49                dec ecx
00001290  133F              adc edi,[edi]
00001292  0C02              or al,0x2
00001294  0A00              or al,[eax]
00001296  0006              add [esi],al
00001298  26004913          add [es:ecx+0x13],cl
0000129C  0000              add [eax],al
0000129E  0001              add [ecx],al
000012A0  1101              adc [ecx],eax
000012A2  250E130B03        and eax,0x30b130e
000012A7  0E                push cs
000012A8  1B0E              sbb ecx,[esi]
000012AA  1101              adc [ecx],eax
000012AC  1201              adc al,[ecx]
000012AE  1006              adc [esi],al
000012B0  0000              add [eax],al
000012B2  022400            add ah,[eax+eax]
000012B5  0B0B              or ecx,[ebx]
000012B7  3E0B03            or eax,[ds:ebx]
000012BA  0800              or [eax],al
000012BC  0003              add [ebx],al
000012BE  16                push ss
000012BF  0003              add [ebx],al
000012C1  0E                push cs
000012C2  3A0B              cmp cl,[ebx]
000012C4  3B0B              cmp ecx,[ebx]
000012C6  49                dec ecx
000012C7  1300              adc eax,[eax]
000012C9  000424            add [esp],al
000012CC  000B              add [ebx],cl
000012CE  0B3E              or edi,[esi]
000012D0  0B03              or eax,[ebx]
000012D2  0E                push cs
000012D3  0000              add [eax],al
000012D5  052E003F0C        add eax,0xc3f002e
000012DA  030E              add ecx,[esi]
000012DC  3A0B              cmp cl,[ebx]
000012DE  3B0B              cmp ecx,[ebx]
000012E0  27                daa
000012E1  0C11              or al,0x11
000012E3  0112              add [edx],edx
000012E5  014006            add [eax+0x6],eax
000012E8  0000              add [eax],al
000012EA  06                push es
000012EB  2E013F            add [cs:edi],edi
000012EE  0C03              or al,0x3
000012F0  0E                push cs
000012F1  3A0B              cmp cl,[ebx]
000012F3  3B0B              cmp ecx,[ebx]
000012F5  27                daa
000012F6  0C11              or al,0x11
000012F8  0112              add [edx],edx
000012FA  014006            add [eax+0x6],eax
000012FD  0113              add [ebx],edx
000012FF  0000              add [eax],al
00001301  07                pop es
00001302  0500030E3A        add eax,0x3a0e0300
00001307  0B3B              or edi,[ebx]
00001309  0B4913            or ecx,[ecx+0x13]
0000130C  020A              add cl,[edx]
0000130E  0000              add [eax],al
00001310  083400            or [eax+eax],dh
00001313  030E              add ecx,[esi]
00001315  3A0B              cmp cl,[ebx]
00001317  3B0B              cmp ecx,[ebx]
00001319  49                dec ecx
0000131A  1300              adc eax,[eax]
0000131C  0009              add [ecx],cl
0000131E  0B01              or eax,[ecx]
00001320  1101              adc [ecx],eax
00001322  1201              adc al,[ecx]
00001324  0000              add [eax],al
00001326  0A3400            or dh,[eax+eax]
00001329  0308              add ecx,[eax]
0000132B  3A0B              cmp cl,[ebx]
0000132D  3B0B              cmp ecx,[ebx]
0000132F  49                dec ecx
00001330  1302              adc eax,[edx]
00001332  06                push es
00001333  0000              add [eax],al
00001335  0B0F              or ecx,[edi]
00001337  000B              add [ebx],cl
00001339  0B4913            or ecx,[ecx+0x13]
0000133C  0000              add [eax],al
0000133E  0C26              or al,0x26
00001340  004913            add [ecx+0x13],cl
00001343  0000              add [eax],al
00001345  0D01014913        or eax,0x13490101
0000134A  0113              add [ebx],edx
0000134C  0000              add [eax],al
0000134E  0E                push cs
0000134F  2100              and [eax],eax
00001351  0000              add [eax],al
00001353  0F1501            unpckhps xmm0,[ecx]
00001356  27                daa
00001357  0C01              or al,0x1
00001359  1300              adc eax,[eax]
0000135B  0010              add [eax],dl
0000135D  0500491300        add eax,0x134900
00001362  0011              add [ecx],dl
00001364  3400              xor al,0x0
00001366  030E              add ecx,[esi]
00001368  3A0B              cmp cl,[ebx]
0000136A  3B0B              cmp ecx,[ebx]
0000136C  49                dec ecx
0000136D  133F              adc edi,[edi]
0000136F  0C3C              or al,0x3c
00001371  0C00              or al,0x0
00001373  0000              add [eax],al
00001375  57                push edi
00001376  0000              add [eax],al
00001378  0002              add [edx],al
0000137A  0032              add [edx],dh
0000137C  0000              add [eax],al
0000137E  0001              add [ecx],al
00001380  01FB              add ebx,edi
00001382  0E                push cs
00001383  0D00010101        or eax,0x1010100
00001388  0100              add [eax],eax
0000138A  0000              add [eax],al
0000138C  0100              add [eax],eax
0000138E  0001              add [ecx],al
00001390  2E2E2F            cs das
00001393  7379              jnc 0x140e
00001395  7364              jnc 0x13fb
00001397  657073            gs jo 0x140d
0000139A  2F                das
0000139B  693338362F65      imul esi,[ebx],dword 0x652f3638
000013A1  6C                insb
000013A2  660000            o16 add [eax],al
000013A5  7374              jnc 0x141b
000013A7  61                popa
000013A8  7274              jc 0x141e
000013AA  2E53              cs push ebx
000013AC  0001              add [ecx],al
000013AE  0000              add [eax],al
000013B0  0000              add [eax],al
000013B2  0502008604        add eax,0x4860002
000013B7  0803              or [ebx],al
000013B9  C00001            rol byte [eax],0x1
000013BC  3321              xor esp,[ecx]
000013BE  343D              xor al,0x3d
000013C0  2522031820        and eax,0x20180322
000013C5  59                pop ecx
000013C6  5A                pop edx
000013C7  2122              and [edx],esp
000013C9  5C                pop esp
000013CA  5B                pop ebx
000013CB  0201              add al,[ecx]
000013CD  0001              add [ecx],al
000013CF  0123              add [ebx],esp
000013D1  0000              add [eax],al
000013D3  0002              add [edx],al
000013D5  001D00000001      add [0x1000000],bl
000013DB  01FB              add ebx,edi
000013DD  0E                push cs
000013DE  0D00010101        or eax,0x1010100
000013E3  0100              add [eax],eax
000013E5  0000              add [eax],al
000013E7  0100              add [eax],eax
000013E9  0001              add [ecx],al
000013EB  00696E            add [ecx+0x6e],ch
000013EE  69742E6300000000  imul esi,[esi+ebp+0x63],dword 0x0
000013F6  007B00            add [ebx+0x0],bh
000013F9  0000              add [eax],al
000013FB  0200              add al,[eax]
000013FD  57                push edi
000013FE  0000              add [eax],al
00001400  0001              add [ecx],al
00001402  01FB              add ebx,edi
00001404  0E                push cs
00001405  0D00010101        or eax,0x1010100
0000140A  0100              add [eax],eax
0000140C  0000              add [eax],al
0000140E  0100              add [eax],eax
00001410  0001              add [ecx],al
00001412  2F                das
00001413  7573              jnz 0x1488
00001415  722F              jc 0x1446
00001417  6C                insb
00001418  69622F6763632F    imul esp,[edx+0x2f],dword 0x2f636367
0000141F  693438362D6C69    imul esi,[eax+edi],dword 0x696c2d36
00001426  6E                outsb
00001427  7578              jnz 0x14a1
00001429  2D676E752F        sub eax,0x2f756e67
0000142E  342E              xor al,0x2e
00001430  342E              xor al,0x2e
00001432  332F              xor ebp,[edi]
00001434  696E636C756465    imul ebp,[esi+0x63],dword 0x6564756c
0000143B  0000              add [eax],al
0000143D  656C              gs insb
0000143F  662D696E          sub ax,0x6e69
00001443  69742E6300000000  imul esi,[esi+ebp+0x63],dword 0x0
0000144B  7374              jnc 0x14c1
0000144D  646465662E680001  cs push word 0x100
00001455  0000              add [eax],al
00001457  0000              add [eax],al
00001459  0502A08B04        add eax,0x48ba002
0000145E  0803              or [ebx],al
00001460  830101            add dword [ecx],byte +0x1
00001463  44                inc esp
00001464  035EC8            add ebx,[esi-0x38]
00001467  030E              add ecx,[esi]
00001469  083C5B            or [ebx+ebx*2],bh
0000146C  086708            or [edi+0x8],ah
0000146F  9D                popf
00001470  7602              jna 0x1474
00001472  0800              or [eax],al
00001474  0101              add [ecx],eax
00001476  0000              add [eax],al
00001478  1000              adc [eax],al
0000147A  0000              add [eax],al
0000147C  FF                db 0xFF
0000147D  FF                db 0xFF
0000147E  FF                db 0xFF
0000147F  FF01              inc dword [ecx]
00001481  0001              add [ecx],al
00001483  7C08              jl 0x148d
00001485  0C04              or al,0x4
00001487  0488              add al,0x88
00001489  0100              add [eax],eax
0000148B  001400            add [eax+eax],dl
0000148E  0000              add [eax],al
00001490  0000              add [eax],al
00001492  0000              add [eax],al
00001494  A08B040805        mov al,[0x508048b]
00001499  0000              add [eax],al
0000149B  00410E            add [ecx+0xe],al
0000149E  084285            or [edx-0x7b],al
000014A1  020D051C0000      add cl,[0x1c05]
000014A7  0000              add [eax],al
000014A9  0000              add [eax],al
000014AB  00B08B04085A      add [eax+0x5a08048b],dh
000014B1  0000              add [eax],al
000014B3  00410E            add [ecx+0xe],al
000014B6  084285            or [edx-0x7b],al
000014B9  020D054E8305      add cl,[0x5834e05]
000014BF  860487            xchg al,[edi+eax*4]
000014C2  0300              add eax,[eax]
000014C4  7368              jnc 0x152e
000014C6  6F                outsd
000014C7  7274              jc 0x153d
000014C9  20756E            and [ebp+0x6e],dh
000014CC  7369              jnc 0x1537
000014CE  676E              a16 outsb
000014D0  656420696E        and [fs:ecx+0x6e],ch
000014D5  7400              jz 0x14d7
000014D7  7368              jnc 0x1541
000014D9  6F                outsd
000014DA  7274              jc 0x1550
000014DC  20696E            and [ecx+0x6e],ch
000014DF  7400              jz 0x14e1
000014E1  5F                pop edi
000014E2  49                dec ecx
000014E3  4F                dec edi
000014E4  5F                pop edi
000014E5  7374              jnc 0x155b
000014E7  64696E5F75736564  imul ebp,[fs:esi+0x5f],dword 0x64657375
000014EF  006C6F6E          add [edi+ebp*2+0x6e],ch
000014F3  67206C6F          and [si+0x6f],ch
000014F7  6E                outsb
000014F8  6720756E          and [di+0x6e],dh
000014FC  7369              jnc 0x1567
000014FE  676E              a16 outsb
00001500  656420696E        and [fs:ecx+0x6e],ch
00001505  7400              jz 0x1507
00001507  2F                das
00001508  686F6D652F        push dword 0x2f656d6f
0000150D  7069              jo 0x1578
0000150F  657272            gs jc 0x1584
00001512  652F              gs das
00001514  42                inc edx
00001515  7572              jnz 0x1589
00001517  6561              gs popa
00001519  752F              jnz 0x154a
0000151B  6865616465        push dword 0x65646165
00001520  7273              jc 0x1595
00001522  2D676C6962        sub eax,0x62696c67
00001527  632D666F722D      arpl [0x2d726f66],bp
0000152D  6C                insb
0000152E  696E75782F676C    imul ebp,[esi+0x75],dword 0x6c672f78
00001535  6962632D322E31    imul esp,[edx+0x63],dword 0x312e322d
0000153C  322E              xor ch,[esi]
0000153E  322F              xor ch,[edi]
00001540  637375            arpl [ebx+0x75],si
00001543  00756E            add [ebp+0x6e],dh
00001546  7369              jnc 0x15b1
00001548  676E              a16 outsb
0000154A  6564206368        and [fs:ebx+0x68],ah
0000154F  61                popa
00001550  7200              jc 0x1552
00001552  47                inc edi
00001553  4E                dec esi
00001554  55                push ebp
00001555  204320            and [ebx+0x20],al
00001558  342E              xor al,0x2e
0000155A  342E              xor al,0x2e
0000155C  3300              xor eax,[eax]
0000155E  6C                insb
0000155F  6F                outsd
00001560  6E                outsb
00001561  67206C6F          and [si+0x6f],ch
00001565  6E                outsb
00001566  6720696E          and [bx+di+0x6e],ch
0000156A  7400              jz 0x156c
0000156C  656E              gs outsb
0000156E  7670              jna 0x15e0
00001570  007369            add [ebx+0x69],dh
00001573  7A65              jpe 0x15da
00001575  5F                pop edi
00001576  7400              jz 0x1578
00001578  61                popa
00001579  7267              jc 0x15e2
0000157B  6300              arpl [eax],ax
0000157D  5F                pop edi
0000157E  5F                pop edi
0000157F  6C                insb
00001580  6962635F637375    imul esp,[edx+0x63],dword 0x7573635f
00001587  5F                pop edi
00001588  696E697400656C    imul ebp,[esi+0x69],dword 0x6c650074
0000158F  662D696E          sub ax,0x6e69
00001593  69742E63005F5F69  imul esi,[esi+ebp+0x63],dword 0x695f5f00
0000159B  6E                outsb
0000159C  69745F6172726179  imul esi,[edi+ebx*2+0x61],dword 0x79617272
000015A4  5F                pop edi
000015A5  7374              jnc 0x161b
000015A7  61                popa
000015A8  7274              jc 0x161e
000015AA  007369            add [ebx+0x69],dh
000015AD  7A65              jpe 0x1614
000015AF  005F5F            add [edi+0x5f],bl
000015B2  696E69745F6172    imul ebp,[esi+0x69],dword 0x72615f74
000015B9  7261              jc 0x161c
000015BB  795F              jns 0x161c
000015BD  656E              gs outsb
000015BF  64005F5F          add [fs:edi+0x5f],bl
000015C3  6C                insb
000015C4  6962635F637375    imul esp,[edx+0x63],dword 0x7573635f
000015CB  5F                pop edi
000015CC  66696E690061      imul bp,[esi+0x69],word 0x6100
000015D2  7267              jc 0x163b
000015D4  7600              jna 0x15d6
000015D6  0000              add [eax],al
000015D8  0000              add [eax],al
000015DA  0100              add [eax],eax
000015DC  0000              add [eax],al
000015DE  0200              add al,[eax]
000015E0  7404              jz 0x15e6
000015E2  0100              add [eax],eax
000015E4  0000              add [eax],al
000015E6  0300              add eax,[eax]
000015E8  0000              add [eax],al
000015EA  0200              add al,[eax]
000015EC  7408              jz 0x15f6
000015EE  0300              add eax,[eax]
000015F0  0000              add [eax],al
000015F2  0500000002        add eax,0x2000000
000015F7  007508            add [ebp+0x8],dh
000015FA  0000              add [eax],al
000015FC  0000              add [eax],al
000015FE  0000              add [eax],al
00001600  0000              add [eax],al
00001602  1000              adc [eax],al
00001604  0000              add [eax],al
00001606  1100              adc [eax],eax
00001608  0000              add [eax],al
0000160A  0200              add al,[eax]
0000160C  7404              jz 0x1612
0000160E  1100              adc [eax],eax
00001610  0000              add [eax],al
00001612  1300              adc eax,[eax]
00001614  0000              add [eax],al
00001616  0200              add al,[eax]
00001618  7408              jz 0x1622
0000161A  1300              adc eax,[eax]
0000161C  0000              add [eax],al
0000161E  6A00              push byte +0x0
00001620  0000              add [eax],al
00001622  0200              add al,[eax]
00001624  7508              jnz 0x162e
00001626  0000              add [eax],al
00001628  0000              add [eax],al
0000162A  0000              add [eax],al
0000162C  0000              add [eax],al
0000162E  40                inc eax
0000162F  0000              add [eax],al
00001631  006700            add [edi+0x0],ah
00001634  0000              add [eax],al
00001636  0100              add [eax],eax
00001638  56                push esi
00001639  0000              add [eax],al
0000163B  0000              add [eax],al
0000163D  0000              add [eax],al
0000163F  0000              add [eax],al
00001641  002E              add [esi],ch
00001643  7379              jnc 0x16be
00001645  6D                insd
00001646  7461              jz 0x16a9
00001648  6200              bound eax,[eax]
0000164A  2E7374            cs jnc 0x16c1
0000164D  7274              jc 0x16c3
0000164F  61                popa
00001650  6200              bound eax,[eax]
00001652  2E7368            cs jnc 0x16bd
00001655  7374              jnc 0x16cb
00001657  7274              jc 0x16cd
00001659  61                popa
0000165A  6200              bound eax,[eax]
0000165C  2E696E7465727000  imul ebp,[cs:esi+0x74],dword 0x707265
00001664  2E6E              cs outsb
00001666  6F                outsd
00001667  7465              jz 0x16ce
00001669  2E41              cs inc ecx
0000166B  42                inc edx
0000166C  49                dec ecx
0000166D  2D74616700        sub eax,0x676174
00001672  2E6861736800      cs push dword 0x687361
00001678  2E64796E          fs jns 0x16ea
0000167C  7379              jnc 0x16f7
0000167E  6D                insd
0000167F  002E              add [esi],ch
00001681  64796E            fs jns 0x16f2
00001684  7374              jnc 0x16fa
00001686  7200              jc 0x1688
00001688  2E676E            cs a16 outsb
0000168B  752E              jnz 0x16bb
0000168D  7665              jna 0x16f4
0000168F  7273              jc 0x1704
00001691  696F6E002E676E    imul ebp,[edi+0x6e],dword 0x6e672e00
00001698  752E              jnz 0x16c8
0000169A  7665              jna 0x1701
0000169C  7273              jc 0x1711
0000169E  696F6E5F72002E    imul ebp,[edi+0x6e],dword 0x2e00725f
000016A5  7265              jc 0x170c
000016A7  6C                insb
000016A8  2E64796E          fs jns 0x171a
000016AC  002E              add [esi],ch
000016AE  7265              jc 0x1715
000016B0  6C                insb
000016B1  2E706C            cs jo 0x1720
000016B4  7400              jz 0x16b6
000016B6  2E696E6974002E74  imul ebp,[cs:esi+0x69],dword 0x742e0074
000016BE  657874            gs js 0x1735
000016C1  002E              add [esi],ch
000016C3  66696E69002E      imul bp,[esi+0x69],word 0x2e00
000016C9  726F              jc 0x173a
000016CB  6461              fs popa
000016CD  7461              jz 0x1730
000016CF  002E              add [esi],ch
000016D1  65685F667261      gs push dword 0x6172665f
000016D7  6D                insd
000016D8  655F              gs pop edi
000016DA  686472002E        push dword 0x2e007264
000016DF  65685F667261      gs push dword 0x6172665f
000016E5  6D                insd
000016E6  65002E            add [gs:esi],ch
000016E9  6763635F          arpl [bp+di+0x5f],sp
000016ED  657863            gs js 0x1753
000016F0  657074            gs jo 0x1767
000016F3  5F                pop edi
000016F4  7461              jz 0x1757
000016F6  626C6500          bound ebp,[ebp+0x0]
000016FA  2E63746F72        arpl [cs:edi+ebp*2+0x72],si
000016FF  7300              jnc 0x1701
00001701  2E64746F          fs jz 0x1774
00001705  7273              jc 0x177a
00001707  002E              add [esi],ch
00001709  6A63              push byte +0x63
0000170B  7200              jc 0x170d
0000170D  2E64796E          fs jns 0x177f
00001711  61                popa
00001712  6D                insd
00001713  6963002E676F74    imul esp,[ebx+0x0],dword 0x746f672e
0000171A  002E              add [esi],ch
0000171C  676F              a16 outsd
0000171E  742E              jz 0x174e
00001720  706C              jo 0x178e
00001722  7400              jz 0x1724
00001724  2E6461            fs popa
00001727  7461              jz 0x178a
00001729  002E              add [esi],ch
0000172B  627373            bound esi,[ebx+0x73]
0000172E  002E              add [esi],ch
00001730  636F6D            arpl [edi+0x6d],bp
00001733  6D                insd
00001734  656E              gs outsb
00001736  7400              jz 0x1738
00001738  2E6465627567      bound esi,[gs:ebp+0x67]
0000173E  5F                pop edi
0000173F  61                popa
00001740  7261              jc 0x17a3
00001742  6E                outsb
00001743  67657300          gs a16 jnc 0x1747
00001747  2E6465627567      bound esi,[gs:ebp+0x67]
0000174D  5F                pop edi
0000174E  7075              jo 0x17c5
00001750  626E61            bound ebp,[esi+0x61]
00001753  6D                insd
00001754  657300            gs jnc 0x1757
00001757  2E6465627567      bound esi,[gs:ebp+0x67]
0000175D  5F                pop edi
0000175E  696E666F002E64    imul ebp,[esi+0x66],dword 0x642e006f
00001765  65627567          bound esi,[gs:ebp+0x67]
00001769  5F                pop edi
0000176A  61                popa
0000176B  626272            bound esp,[edx+0x72]
0000176E  657600            gs jna 0x1771
00001771  2E6465627567      bound esi,[gs:ebp+0x67]
00001777  5F                pop edi
00001778  6C                insb
00001779  696E65002E6465    imul ebp,[esi+0x65],dword 0x65642e00
00001780  627567            bound esi,[ebp+0x67]
00001783  5F                pop edi
00001784  667261            o16 jc 0x17e8
00001787  6D                insd
00001788  65002E            add [gs:esi],ch
0000178B  6465627567        bound esi,[gs:ebp+0x67]
00001790  5F                pop edi
00001791  7374              jnc 0x1807
00001793  7200              jc 0x1795
00001795  2E6465627567      bound esi,[gs:ebp+0x67]
0000179B  5F                pop edi
0000179C  6C                insb
0000179D  6F                outsd
0000179E  6300              arpl [eax],ax
000017A0  0000              add [eax],al
000017A2  0000              add [eax],al
000017A4  0000              add [eax],al
000017A6  0000              add [eax],al
000017A8  0000              add [eax],al
000017AA  0000              add [eax],al
000017AC  0000              add [eax],al
000017AE  0000              add [eax],al
000017B0  0000              add [eax],al
000017B2  0000              add [eax],al
000017B4  0000              add [eax],al
000017B6  0000              add [eax],al
000017B8  0000              add [eax],al
000017BA  0000              add [eax],al
000017BC  0000              add [eax],al
000017BE  0000              add [eax],al
000017C0  0000              add [eax],al
000017C2  0000              add [eax],al
000017C4  0000              add [eax],al
000017C6  0000              add [eax],al
000017C8  1B00              sbb eax,[eax]
000017CA  0000              add [eax],al
000017CC  0100              add [eax],eax
000017CE  0000              add [eax],al
000017D0  0200              add al,[eax]
000017D2  0000              add [eax],al
000017D4  3481              xor al,0x81
000017D6  0408              add al,0x8
000017D8  3401              xor al,0x1
000017DA  0000              add [eax],al
000017DC  1300              adc eax,[eax]
000017DE  0000              add [eax],al
000017E0  0000              add [eax],al
000017E2  0000              add [eax],al
000017E4  0000              add [eax],al
000017E6  0000              add [eax],al
000017E8  0100              add [eax],eax
000017EA  0000              add [eax],al
000017EC  0000              add [eax],al
000017EE  0000              add [eax],al
000017F0  2300              and eax,[eax]
000017F2  0000              add [eax],al
000017F4  07                pop es
000017F5  0000              add [eax],al
000017F7  0002              add [edx],al
000017F9  0000              add [eax],al
000017FB  004881            add [eax-0x7f],cl
000017FE  0408              add al,0x8
00001800  48                dec eax
00001801  0100              add [eax],eax
00001803  0020              add [eax],ah
00001805  0000              add [eax],al
00001807  0000              add [eax],al
00001809  0000              add [eax],al
0000180B  0000              add [eax],al
0000180D  0000              add [eax],al
0000180F  000400            add [eax+eax],al
00001812  0000              add [eax],al
00001814  0000              add [eax],al
00001816  0000              add [eax],al
00001818  3100              xor [eax],eax
0000181A  0000              add [eax],al
0000181C  0500000002        add eax,0x2000000
00001821  0000              add [eax],al
00001823  006881            add [eax-0x7f],ch
00001826  0408              add al,0x8
00001828  6801000054        push dword 0x54000001
0000182D  0000              add [eax],al
0000182F  000400            add [eax+eax],al
00001832  0000              add [eax],al
00001834  0000              add [eax],al
00001836  0000              add [eax],al
00001838  0400              add al,0x0
0000183A  0000              add [eax],al
0000183C  0400              add al,0x0
0000183E  0000              add [eax],al
00001840  37                aaa
00001841  0000              add [eax],al
00001843  000B              add [ebx],cl
00001845  0000              add [eax],al
00001847  0002              add [edx],al
00001849  0000              add [eax],al
0000184B  00BC810408BC01    add [ecx+eax*4+0x1bc0804],bh
00001852  0000              add [eax],al
00001854  0001              add [ecx],al
00001856  0000              add [eax],al
00001858  0500000001        add eax,0x1000000
0000185D  0000              add [eax],al
0000185F  000400            add [eax+eax],al
00001862  0000              add [eax],al
00001864  1000              adc [eax],al
00001866  0000              add [eax],al
00001868  3F                aas
00001869  0000              add [eax],al
0000186B  0003              add [ebx],al
0000186D  0000              add [eax],al
0000186F  0002              add [edx],al
00001871  0000              add [eax],al
00001873  00BC820408BC02    add [edx+eax*4+0x2bc0804],bh
0000187A  0000              add [eax],al
0000187C  640100            add [fs:eax],eax
0000187F  0000              add [eax],al
00001881  0000              add [eax],al
00001883  0000              add [eax],al
00001885  0000              add [eax],al
00001887  0001              add [ecx],al
00001889  0000              add [eax],al
0000188B  0000              add [eax],al
0000188D  0000              add [eax],al
0000188F  004700            add [edi+0x0],al
00001892  0000              add [eax],al
00001894  FF                db 0xFF
00001895  FF                db 0xFF
00001896  FF6F02            jmp far [edi+0x2]
00001899  0000              add [eax],al
0000189B  0020              add [eax],ah
0000189D  840408            test [eax+ecx],al
000018A0  200400            and [eax+eax],al
000018A3  0020              add [eax],ah
000018A5  0000              add [eax],al
000018A7  000400            add [eax+eax],al
000018AA  0000              add [eax],al
000018AC  0000              add [eax],al
000018AE  0000              add [eax],al
000018B0  0200              add al,[eax]
000018B2  0000              add [eax],al
000018B4  0200              add al,[eax]
000018B6  0000              add [eax],al
000018B8  54                push esp
000018B9  0000              add [eax],al
000018BB  00FE              add dh,bh
000018BD  FF                db 0xFF
000018BE  FF6F02            jmp far [edi+0x2]
000018C1  0000              add [eax],al
000018C3  004084            add [eax-0x7c],al
000018C6  0408              add al,0x8
000018C8  40                inc eax
000018C9  0400              add al,0x0
000018CB  008000000005      add [eax+0x5000000],al
000018D1  0000              add [eax],al
000018D3  0003              add [ebx],al
000018D5  0000              add [eax],al
000018D7  000400            add [eax+eax],al
000018DA  0000              add [eax],al
000018DC  0000              add [eax],al
000018DE  0000              add [eax],al
000018E0  6300              arpl [eax],ax
000018E2  0000              add [eax],al
000018E4  0900              or [eax],eax
000018E6  0000              add [eax],al
000018E8  0200              add al,[eax]
000018EA  0000              add [eax],al
000018EC  C0840408C0040000  rol byte [esp+eax+0x4c008],0x0
000018F4  1000              adc [eax],al
000018F6  0000              add [eax],al
000018F8  0400              add al,0x0
000018FA  0000              add [eax],al
000018FC  0000              add [eax],al
000018FE  0000              add [eax],al
00001900  0400              add al,0x0
00001902  0000              add [eax],al
00001904  0800              or [eax],al
00001906  0000              add [eax],al
00001908  6C                insb
00001909  0000              add [eax],al
0000190B  0009              add [ecx],cl
0000190D  0000              add [eax],al
0000190F  0002              add [edx],al
00001911  0000              add [eax],al
00001913  00D0              add al,dl
00001915  840408            test [eax+ecx],al
00001918  D00400            rol byte [eax+eax],1
0000191B  005000            add [eax+0x0],dl
0000191E  0000              add [eax],al
00001920  0400              add al,0x0
00001922  0000              add [eax],al
00001924  0B00              or eax,[eax]
00001926  0000              add [eax],al
00001928  0400              add al,0x0
0000192A  0000              add [eax],al
0000192C  0800              or [eax],al
0000192E  0000              add [eax],al
00001930  7500              jnz 0x1932
00001932  0000              add [eax],al
00001934  0100              add [eax],eax
00001936  0000              add [eax],al
00001938  06                push es
00001939  0000              add [eax],al
0000193B  0020              add [eax],ah
0000193D  850408            test [eax+ecx],eax
00001940  200500003000      and [0x300000],al
00001946  0000              add [eax],al
00001948  0000              add [eax],al
0000194A  0000              add [eax],al
0000194C  0000              add [eax],al
0000194E  0000              add [eax],al
00001950  0400              add al,0x0
00001952  0000              add [eax],al
00001954  0000              add [eax],al
00001956  0000              add [eax],al
00001958  7000              jo 0x195a
0000195A  0000              add [eax],al
0000195C  0100              add [eax],eax
0000195E  0000              add [eax],al
00001960  06                push es
00001961  0000              add [eax],al
00001963  005085            add [eax-0x7b],dl
00001966  0408              add al,0x8
00001968  50                push eax
00001969  050000B000        add eax,0xb00000
0000196E  0000              add [eax],al
00001970  0000              add [eax],al
00001972  0000              add [eax],al
00001974  0000              add [eax],al
00001976  0000              add [eax],al
00001978  1000              adc [eax],al
0000197A  0000              add [eax],al
0000197C  0400              add al,0x0
0000197E  0000              add [eax],al
00001980  7B00              jpo 0x1982
00001982  0000              add [eax],al
00001984  0100              add [eax],eax
00001986  0000              add [eax],al
00001988  06                push es
00001989  0000              add [eax],al
0000198B  0000              add [eax],al
0000198D  860408            xchg al,[eax+ecx]
00001990  0006              add [esi],al
00001992  0000              add [eax],al
00001994  3806              cmp [esi],al
00001996  0000              add [eax],al
00001998  0000              add [eax],al
0000199A  0000              add [eax],al
0000199C  0000              add [eax],al
0000199E  0000              add [eax],al
000019A0  1000              adc [eax],al
000019A2  0000              add [eax],al
000019A4  0000              add [eax],al
000019A6  0000              add [eax],al
000019A8  810000000100      add dword [eax],0x10000
000019AE  0000              add [eax],al
000019B0  06                push es
000019B1  0000              add [eax],al
000019B3  0038              add [eax],bh
000019B5  8C0408            mov [eax+ecx],es
000019B8  380C00            cmp [eax+eax],cl
000019BB  001C00            add [eax+eax],bl
000019BE  0000              add [eax],al
000019C0  0000              add [eax],al
000019C2  0000              add [eax],al
000019C4  0000              add [eax],al
000019C6  0000              add [eax],al
000019C8  0400              add al,0x0
000019CA  0000              add [eax],al
000019CC  0000              add [eax],al
000019CE  0000              add [eax],al
000019D0  8700              xchg eax,[eax]
000019D2  0000              add [eax],al
000019D4  0100              add [eax],eax
000019D6  0000              add [eax],al
000019D8  0200              add al,[eax]
000019DA  0000              add [eax],al
000019DC  54                push esp
000019DD  8C0408            mov [eax+ecx],es
000019E0  54                push esp
000019E1  0C00              or al,0x0
000019E3  0020              add [eax],ah
000019E5  0000              add [eax],al
000019E7  0000              add [eax],al
000019E9  0000              add [eax],al
000019EB  0000              add [eax],al
000019ED  0000              add [eax],al
000019EF  000400            add [eax+eax],al
000019F2  0000              add [eax],al
000019F4  0000              add [eax],al
000019F6  0000              add [eax],al
000019F8  8F00              pop dword [eax]
000019FA  0000              add [eax],al
000019FC  0100              add [eax],eax
000019FE  0000              add [eax],al
00001A00  0200              add al,[eax]
00001A02  0000              add [eax],al
00001A04  748C              jz 0x1992
00001A06  0408              add al,0x8
00001A08  740C              jz 0x1a16
00001A0A  0000              add [eax],al
00001A0C  4C                dec esp
00001A0D  0000              add [eax],al
00001A0F  0000              add [eax],al
00001A11  0000              add [eax],al
00001A13  0000              add [eax],al
00001A15  0000              add [eax],al
00001A17  000400            add [eax+eax],al
00001A1A  0000              add [eax],al
00001A1C  0000              add [eax],al
00001A1E  0000              add [eax],al
00001A20  9D                popf
00001A21  0000              add [eax],al
00001A23  0001              add [ecx],al
00001A25  0000              add [eax],al
00001A27  0002              add [edx],al
00001A29  0000              add [eax],al
00001A2B  00C0              add al,al
00001A2D  8C0408            mov [eax+ecx],es
00001A30  C00C0000          ror byte [eax+eax],0x0
00001A34  44                inc esp
00001A35  0100              add [eax],eax
00001A37  0000              add [eax],al
00001A39  0000              add [eax],al
00001A3B  0000              add [eax],al
00001A3D  0000              add [eax],al
00001A3F  000400            add [eax+eax],al
00001A42  0000              add [eax],al
00001A44  0000              add [eax],al
00001A46  0000              add [eax],al
00001A48  A7                cmpsd
00001A49  0000              add [eax],al
00001A4B  0001              add [ecx],al
00001A4D  0000              add [eax],al
00001A4F  0002              add [edx],al
00001A51  0000              add [eax],al
00001A53  00048E            add [esi+ecx*4],al
00001A56  0408              add al,0x8
00001A58  040E              add al,0xe
00001A5A  0000              add [eax],al
00001A5C  0F0000            sldt [eax]
00001A5F  0000              add [eax],al
00001A61  0000              add [eax],al
00001A63  0000              add [eax],al
00001A65  0000              add [eax],al
00001A67  0001              add [ecx],al
00001A69  0000              add [eax],al
00001A6B  0000              add [eax],al
00001A6D  0000              add [eax],al
00001A6F  00B900000001      add [ecx+0x1000000],bh
00001A75  0000              add [eax],al
00001A77  0003              add [ebx],al
00001A79  0000              add [eax],al
00001A7B  00149E            add [esi+ebx*4],dl
00001A7E  0408              add al,0x8
00001A80  140E              adc al,0xe
00001A82  0000              add [eax],al
00001A84  0C00              or al,0x0
00001A86  0000              add [eax],al
00001A88  0000              add [eax],al
00001A8A  0000              add [eax],al
00001A8C  0000              add [eax],al
00001A8E  0000              add [eax],al
00001A90  0400              add al,0x0
00001A92  0000              add [eax],al
00001A94  0000              add [eax],al
00001A96  0000              add [eax],al
00001A98  C00000            rol byte [eax],0x0
00001A9B  0001              add [ecx],al
00001A9D  0000              add [eax],al
00001A9F  0003              add [ebx],al
00001AA1  0000              add [eax],al
00001AA3  0020              add [eax],ah
00001AA5  9E                sahf
00001AA6  0408              add al,0x8
00001AA8  200E              and [esi],cl
00001AAA  0000              add [eax],al
00001AAC  0800              or [eax],al
00001AAE  0000              add [eax],al
00001AB0  0000              add [eax],al
00001AB2  0000              add [eax],al
00001AB4  0000              add [eax],al
00001AB6  0000              add [eax],al
00001AB8  0400              add al,0x0
00001ABA  0000              add [eax],al
00001ABC  0000              add [eax],al
00001ABE  0000              add [eax],al
00001AC0  C70000000100      mov dword [eax],0x10000
00001AC6  0000              add [eax],al
00001AC8  0300              add eax,[eax]
00001ACA  0000              add [eax],al
00001ACC  289E0408280E      sub [esi+0xe280804],bl
00001AD2  0000              add [eax],al
00001AD4  0400              add al,0x0
00001AD6  0000              add [eax],al
00001AD8  0000              add [eax],al
00001ADA  0000              add [eax],al
00001ADC  0000              add [eax],al
00001ADE  0000              add [eax],al
00001AE0  0400              add al,0x0
00001AE2  0000              add [eax],al
00001AE4  0000              add [eax],al
00001AE6  0000              add [eax],al
00001AE8  CC                int3
00001AE9  0000              add [eax],al
00001AEB  0006              add [esi],al
00001AED  0000              add [eax],al
00001AEF  0003              add [ebx],al
00001AF1  0000              add [eax],al
00001AF3  002C9E            add [esi+ebx*4],ch
00001AF6  0408              add al,0x8
00001AF8  2C0E              sub al,0xe
00001AFA  0000              add [eax],al
00001AFC  E000              loopne 0x1afe
00001AFE  0000              add [eax],al
00001B00  0500000000        add eax,0x0
00001B05  0000              add [eax],al
00001B07  000400            add [eax+eax],al
00001B0A  0000              add [eax],al
00001B0C  0800              or [eax],al
00001B0E  0000              add [eax],al
00001B10  D500              aad 0x0
00001B12  0000              add [eax],al
00001B14  0100              add [eax],eax
00001B16  0000              add [eax],al
00001B18  0300              add eax,[eax]
00001B1A  0000              add [eax],al
00001B1C  0C9F              or al,0x9f
00001B1E  0408              add al,0x8
00001B20  0C0F              or al,0xf
00001B22  0000              add [eax],al
00001B24  0400              add al,0x0
00001B26  0000              add [eax],al
00001B28  0000              add [eax],al
00001B2A  0000              add [eax],al
00001B2C  0000              add [eax],al
00001B2E  0000              add [eax],al
00001B30  0400              add al,0x0
00001B32  0000              add [eax],al
00001B34  0400              add al,0x0
00001B36  0000              add [eax],al
00001B38  DA00              fiadd dword [eax]
00001B3A  0000              add [eax],al
00001B3C  0100              add [eax],eax
00001B3E  0000              add [eax],al
00001B40  0300              add eax,[eax]
00001B42  0000              add [eax],al
00001B44  109F0408100F      adc [edi+0xf100804],bl
00001B4A  0000              add [eax],al
00001B4C  3400              xor al,0x0
00001B4E  0000              add [eax],al
00001B50  0000              add [eax],al
00001B52  0000              add [eax],al
00001B54  0000              add [eax],al
00001B56  0000              add [eax],al
00001B58  0400              add al,0x0
00001B5A  0000              add [eax],al
00001B5C  0400              add al,0x0
00001B5E  0000              add [eax],al
00001B60  E300              jecxz 0x1b62
00001B62  0000              add [eax],al
00001B64  0100              add [eax],eax
00001B66  0000              add [eax],al
00001B68  0300              add eax,[eax]
00001B6A  0000              add [eax],al
00001B6C  44                inc esp
00001B6D  9F                lahf
00001B6E  0408              add al,0x8
00001B70  44                inc esp
00001B71  0F0000            sldt [eax]
00001B74  0800              or [eax],al
00001B76  0000              add [eax],al
00001B78  0000              add [eax],al
00001B7A  0000              add [eax],al
00001B7C  0000              add [eax],al
00001B7E  0000              add [eax],al
00001B80  0400              add al,0x0
00001B82  0000              add [eax],al
00001B84  0000              add [eax],al
00001B86  0000              add [eax],al
00001B88  E900000008        jmp 0x8001b8d
00001B8D  0000              add [eax],al
00001B8F  0003              add [ebx],al
00001B91  0000              add [eax],al
00001B93  00609F            add [eax-0x61],ah
00001B96  0408              add al,0x8
00001B98  4C                dec esp
00001B99  0F0000            sldt [eax]
00001B9C  E42F              in al,0x2f
00001B9E  0000              add [eax],al
00001BA0  0000              add [eax],al
00001BA2  0000              add [eax],al
00001BA4  0000              add [eax],al
00001BA6  0000              add [eax],al
00001BA8  2000              and [eax],al
00001BAA  0000              add [eax],al
00001BAC  0000              add [eax],al
00001BAE  0000              add [eax],al
00001BB0  EE                out dx,al
00001BB1  0000              add [eax],al
00001BB3  0001              add [ecx],al
00001BB5  0000              add [eax],al
00001BB7  0030              add [eax],dh
00001BB9  0000              add [eax],al
00001BBB  0000              add [eax],al
00001BBD  0000              add [eax],al
00001BBF  004C0F00          add [edi+ecx+0x0],cl
00001BC3  003400            add [eax+eax],dh
00001BC6  0000              add [eax],al
00001BC8  0000              add [eax],al
00001BCA  0000              add [eax],al
00001BCC  0000              add [eax],al
00001BCE  0000              add [eax],al
00001BD0  0100              add [eax],eax
00001BD2  0000              add [eax],al
00001BD4  0100              add [eax],eax
00001BD6  0000              add [eax],al
00001BD8  F70000000100      test dword [eax],0x10000
00001BDE  0000              add [eax],al
00001BE0  0000              add [eax],al
00001BE2  0000              add [eax],al
00001BE4  0000              add [eax],al
00001BE6  0000              add [eax],al
00001BE8  800F00            or byte [edi],0x0
00001BEB  004000            add [eax+0x0],al
00001BEE  0000              add [eax],al
00001BF0  0000              add [eax],al
00001BF2  0000              add [eax],al
00001BF4  0000              add [eax],al
00001BF6  0000              add [eax],al
00001BF8  0800              or [eax],al
00001BFA  0000              add [eax],al
00001BFC  0000              add [eax],al
00001BFE  0000              add [eax],al
00001C00  06                push es
00001C01  0100              add [eax],eax
00001C03  0001              add [ecx],al
00001C05  0000              add [eax],al
00001C07  0000              add [eax],al
00001C09  0000              add [eax],al
00001C0B  0000              add [eax],al
00001C0D  0000              add [eax],al
00001C0F  00C0              add al,al
00001C11  0F0000            sldt [eax]
00001C14  5F                pop edi
00001C15  0000              add [eax],al
00001C17  0000              add [eax],al
00001C19  0000              add [eax],al
00001C1B  0000              add [eax],al
00001C1D  0000              add [eax],al
00001C1F  0001              add [ecx],al
00001C21  0000              add [eax],al
00001C23  0000              add [eax],al
00001C25  0000              add [eax],al
00001C27  0016              add [esi],dl
00001C29  0100              add [eax],eax
00001C2B  0001              add [ecx],al
00001C2D  0000              add [eax],al
00001C2F  0000              add [eax],al
00001C31  0000              add [eax],al
00001C33  0000              add [eax],al
00001C35  0000              add [eax],al
00001C37  001F              add [edi],bl
00001C39  1000              adc [eax],al
00001C3B  0021              add [ecx],ah
00001C3D  0200              add al,[eax]
00001C3F  0000              add [eax],al
00001C41  0000              add [eax],al
00001C43  0000              add [eax],al
00001C45  0000              add [eax],al
00001C47  0001              add [ecx],al
00001C49  0000              add [eax],al
00001C4B  0000              add [eax],al
00001C4D  0000              add [eax],al
00001C4F  0022              add [edx],ah
00001C51  0100              add [eax],eax
00001C53  0001              add [ecx],al
00001C55  0000              add [eax],al
00001C57  0000              add [eax],al
00001C59  0000              add [eax],al
00001C5B  0000              add [eax],al
00001C5D  0000              add [eax],al
00001C5F  004012            add [eax+0x12],al
00001C62  0000              add [eax],al
00001C64  3501000000        xor eax,0x1
00001C69  0000              add [eax],al
00001C6B  0000              add [eax],al
00001C6D  0000              add [eax],al
00001C6F  0001              add [ecx],al
00001C71  0000              add [eax],al
00001C73  0000              add [eax],al
00001C75  0000              add [eax],al
00001C77  0030              add [eax],dh
00001C79  0100              add [eax],eax
00001C7B  0001              add [ecx],al
00001C7D  0000              add [eax],al
00001C7F  0000              add [eax],al
00001C81  0000              add [eax],al
00001C83  0000              add [eax],al
00001C85  0000              add [eax],al
00001C87  007513            add [ebp+0x13],dh
00001C8A  0000              add [eax],al
00001C8C  0101              add [ecx],eax
00001C8E  0000              add [eax],al
00001C90  0000              add [eax],al
00001C92  0000              add [eax],al
00001C94  0000              add [eax],al
00001C96  0000              add [eax],al
00001C98  0100              add [eax],eax
00001C9A  0000              add [eax],al
00001C9C  0000              add [eax],al
00001C9E  0000              add [eax],al
00001CA0  3C01              cmp al,0x1
00001CA2  0000              add [eax],al
00001CA4  0100              add [eax],eax
00001CA6  0000              add [eax],al
00001CA8  0000              add [eax],al
00001CAA  0000              add [eax],al
00001CAC  0000              add [eax],al
00001CAE  0000              add [eax],al
00001CB0  7814              js 0x1cc6
00001CB2  0000              add [eax],al
00001CB4  4C                dec esp
00001CB5  0000              add [eax],al
00001CB7  0000              add [eax],al
00001CB9  0000              add [eax],al
00001CBB  0000              add [eax],al
00001CBD  0000              add [eax],al
00001CBF  000400            add [eax+eax],al
00001CC2  0000              add [eax],al
00001CC4  0000              add [eax],al
00001CC6  0000              add [eax],al
00001CC8  49                dec ecx
00001CC9  0100              add [eax],eax
00001CCB  0001              add [ecx],al
00001CCD  0000              add [eax],al
00001CCF  0030              add [eax],dh
00001CD1  0000              add [eax],al
00001CD3  0000              add [eax],al
00001CD5  0000              add [eax],al
00001CD7  00C4              add ah,al
00001CD9  1400              adc al,0x0
00001CDB  0012              add [edx],dl
00001CDD  0100              add [eax],eax
00001CDF  0000              add [eax],al
00001CE1  0000              add [eax],al
00001CE3  0000              add [eax],al
00001CE5  0000              add [eax],al
00001CE7  0001              add [ecx],al
00001CE9  0000              add [eax],al
00001CEB  0001              add [ecx],al
00001CED  0000              add [eax],al
00001CEF  00540100          add [ecx+eax+0x0],dl
00001CF3  0001              add [ecx],al
00001CF5  0000              add [eax],al
00001CF7  0000              add [eax],al
00001CF9  0000              add [eax],al
00001CFB  0000              add [eax],al
00001CFD  0000              add [eax],al
00001CFF  00D6              add dh,dl
00001D01  1500006B00        adc eax,0x6b0000
00001D06  0000              add [eax],al
00001D08  0000              add [eax],al
00001D0A  0000              add [eax],al
00001D0C  0000              add [eax],al
00001D0E  0000              add [eax],al
00001D10  0100              add [eax],eax
00001D12  0000              add [eax],al
00001D14  0000              add [eax],al
00001D16  0000              add [eax],al
00001D18  1100              adc [eax],eax
00001D1A  0000              add [eax],al
00001D1C  0300              add eax,[eax]
00001D1E  0000              add [eax],al
00001D20  0000              add [eax],al
00001D22  0000              add [eax],al
00001D24  0000              add [eax],al
00001D26  0000              add [eax],al
00001D28  41                inc ecx
00001D29  16                push ss
00001D2A  0000              add [eax],al
00001D2C  5F                pop edi
00001D2D  0100              add [eax],eax
00001D2F  0000              add [eax],al
00001D31  0000              add [eax],al
00001D33  0000              add [eax],al
00001D35  0000              add [eax],al
00001D37  0001              add [ecx],al
00001D39  0000              add [eax],al
00001D3B  0000              add [eax],al
00001D3D  0000              add [eax],al
00001D3F  0001              add [ecx],al
00001D41  0000              add [eax],al
00001D43  0002              add [edx],al
00001D45  0000              add [eax],al
00001D47  0000              add [eax],al
00001D49  0000              add [eax],al
00001D4B  0000              add [eax],al
00001D4D  0000              add [eax],al
00001D4F  00901D000090      add [eax+0x9000001d],dl
00001D55  06                push es
00001D56  0000              add [eax],al
00001D58  2500000041        and eax,0x41000000
00001D5D  0000              add [eax],al
00001D5F  000400            add [eax+eax],al
00001D62  0000              add [eax],al
00001D64  1000              adc [eax],al
00001D66  0000              add [eax],al
00001D68  0900              or [eax],eax
00001D6A  0000              add [eax],al
00001D6C  0300              add eax,[eax]
00001D6E  0000              add [eax],al
00001D70  0000              add [eax],al
00001D72  0000              add [eax],al
00001D74  0000              add [eax],al
00001D76  0000              add [eax],al
00001D78  202400            and [eax+eax],ah
00001D7B  002504000000      add [0x4],ah
00001D81  0000              add [eax],al
00001D83  0000              add [eax],al
00001D85  0000              add [eax],al
00001D87  0001              add [ecx],al
00001D89  0000              add [eax],al
00001D8B  0000              add [eax],al
00001D8D  0000              add [eax],al
00001D8F  0000              add [eax],al
00001D91  0000              add [eax],al
00001D93  0000              add [eax],al
00001D95  0000              add [eax],al
00001D97  0000              add [eax],al
00001D99  0000              add [eax],al
00001D9B  0000              add [eax],al
00001D9D  0000              add [eax],al
00001D9F  0000              add [eax],al
00001DA1  0000              add [eax],al
00001DA3  003481            add [ecx+eax*4],dh
00001DA6  0408              add al,0x8
00001DA8  0000              add [eax],al
00001DAA  0000              add [eax],al
00001DAC  0300              add eax,[eax]
00001DAE  0100              add [eax],eax
00001DB0  0000              add [eax],al
00001DB2  0000              add [eax],al
00001DB4  48                dec eax
00001DB5  81040800000000    add dword [eax+ecx],0x0
00001DBC  0300              add eax,[eax]
00001DBE  0200              add al,[eax]
00001DC0  0000              add [eax],al
00001DC2  0000              add [eax],al
00001DC4  6881040800        push dword 0x80481
00001DC9  0000              add [eax],al
00001DCB  0003              add [ebx],al
00001DCD  0003              add [ebx],al
00001DCF  0000              add [eax],al
00001DD1  0000              add [eax],al
00001DD3  00BC8104080000    add [ecx+eax*4+0x804],bh
00001DDA  0000              add [eax],al
00001DDC  0300              add eax,[eax]
00001DDE  0400              add al,0x0
00001DE0  0000              add [eax],al
00001DE2  0000              add [eax],al
00001DE4  BC82040800        mov esp,0x80482
00001DE9  0000              add [eax],al
00001DEB  0003              add [ebx],al
00001DED  000500000000      add [0x0],al
00001DF3  0020              add [eax],ah
00001DF5  840408            test [eax+ecx],al
00001DF8  0000              add [eax],al
00001DFA  0000              add [eax],al
00001DFC  0300              add eax,[eax]
00001DFE  06                push es
00001DFF  0000              add [eax],al
00001E01  0000              add [eax],al
00001E03  004084            add [eax-0x7c],al
00001E06  0408              add al,0x8
00001E08  0000              add [eax],al
00001E0A  0000              add [eax],al
00001E0C  0300              add eax,[eax]
00001E0E  07                pop es
00001E0F  0000              add [eax],al
00001E11  0000              add [eax],al
00001E13  00C0              add al,al
00001E15  840408            test [eax+ecx],al
00001E18  0000              add [eax],al
00001E1A  0000              add [eax],al
00001E1C  0300              add eax,[eax]
00001E1E  0800              or [eax],al
00001E20  0000              add [eax],al
00001E22  0000              add [eax],al
00001E24  D0840408000000    rol byte [esp+eax+0x8],1
00001E2B  0003              add [ebx],al
00001E2D  0009              add [ecx],cl
00001E2F  0000              add [eax],al
00001E31  0000              add [eax],al
00001E33  0020              add [eax],ah
00001E35  850408            test [eax+ecx],eax
00001E38  0000              add [eax],al
00001E3A  0000              add [eax],al
00001E3C  0300              add eax,[eax]
00001E3E  0A00              or al,[eax]
00001E40  0000              add [eax],al
00001E42  0000              add [eax],al
00001E44  50                push eax
00001E45  850408            test [eax+ecx],eax
00001E48  0000              add [eax],al
00001E4A  0000              add [eax],al
00001E4C  0300              add eax,[eax]
00001E4E  0B00              or eax,[eax]
00001E50  0000              add [eax],al
00001E52  0000              add [eax],al
00001E54  008604080000      add [esi+0x804],al
00001E5A  0000              add [eax],al
00001E5C  0300              add eax,[eax]
00001E5E  0C00              or al,0x0
00001E60  0000              add [eax],al
00001E62  0000              add [eax],al
00001E64  388C0408000000    cmp [esp+eax+0x8],cl
00001E6B  0003              add [ebx],al
00001E6D  000D00000000      add [0x0],cl
00001E73  00548C04          add [esp+ecx*4+0x4],dl
00001E77  0800              or [eax],al
00001E79  0000              add [eax],al
00001E7B  0003              add [ebx],al
00001E7D  000E              add [esi],cl
00001E7F  0000              add [eax],al
00001E81  0000              add [eax],al
00001E83  00748C04          add [esp+ecx*4+0x4],dh
00001E87  0800              or [eax],al
00001E89  0000              add [eax],al
00001E8B  0003              add [ebx],al
00001E8D  000F              add [edi],cl
00001E8F  0000              add [eax],al
00001E91  0000              add [eax],al
00001E93  00C0              add al,al
00001E95  8C0408            mov [eax+ecx],es
00001E98  0000              add [eax],al
00001E9A  0000              add [eax],al
00001E9C  0300              add eax,[eax]
00001E9E  1000              adc [eax],al
00001EA0  0000              add [eax],al
00001EA2  0000              add [eax],al
00001EA4  048E              add al,0x8e
00001EA6  0408              add al,0x8
00001EA8  0000              add [eax],al
00001EAA  0000              add [eax],al
00001EAC  0300              add eax,[eax]
00001EAE  1100              adc [eax],eax
00001EB0  0000              add [eax],al
00001EB2  0000              add [eax],al
00001EB4  149E              adc al,0x9e
00001EB6  0408              add al,0x8
00001EB8  0000              add [eax],al
00001EBA  0000              add [eax],al
00001EBC  0300              add eax,[eax]
00001EBE  1200              adc al,[eax]
00001EC0  0000              add [eax],al
00001EC2  0000              add [eax],al
00001EC4  209E04080000      and [esi+0x804],bl
00001ECA  0000              add [eax],al
00001ECC  0300              add eax,[eax]
00001ECE  1300              adc eax,[eax]
00001ED0  0000              add [eax],al
00001ED2  0000              add [eax],al
00001ED4  289E04080000      sub [esi+0x804],bl
00001EDA  0000              add [eax],al
00001EDC  0300              add eax,[eax]
00001EDE  1400              adc al,0x0
00001EE0  0000              add [eax],al
00001EE2  0000              add [eax],al
00001EE4  2C9E              sub al,0x9e
00001EE6  0408              add al,0x8
00001EE8  0000              add [eax],al
00001EEA  0000              add [eax],al
00001EEC  0300              add eax,[eax]
00001EEE  1500000000        adc eax,0x0
00001EF3  000C9F            add [edi+ebx*4],cl
00001EF6  0408              add al,0x8
00001EF8  0000              add [eax],al
00001EFA  0000              add [eax],al
00001EFC  0300              add eax,[eax]
00001EFE  16                push ss
00001EFF  0000              add [eax],al
00001F01  0000              add [eax],al
00001F03  0010              add [eax],dl
00001F05  9F                lahf
00001F06  0408              add al,0x8
00001F08  0000              add [eax],al
00001F0A  0000              add [eax],al
00001F0C  0300              add eax,[eax]
00001F0E  17                pop ss
00001F0F  0000              add [eax],al
00001F11  0000              add [eax],al
00001F13  00449F04          add [edi+ebx*4+0x4],al
00001F17  0800              or [eax],al
00001F19  0000              add [eax],al
00001F1B  0003              add [ebx],al
00001F1D  0018              add [eax],bl
00001F1F  0000              add [eax],al
00001F21  0000              add [eax],al
00001F23  00609F            add [eax-0x61],ah
00001F26  0408              add al,0x8
00001F28  0000              add [eax],al
00001F2A  0000              add [eax],al
00001F2C  0300              add eax,[eax]
00001F2E  1900              sbb [eax],eax
00001F30  0000              add [eax],al
00001F32  0000              add [eax],al
00001F34  0000              add [eax],al
00001F36  0000              add [eax],al
00001F38  0000              add [eax],al
00001F3A  0000              add [eax],al
00001F3C  0300              add eax,[eax]
00001F3E  1A00              sbb al,[eax]
00001F40  0000              add [eax],al
00001F42  0000              add [eax],al
00001F44  0000              add [eax],al
00001F46  0000              add [eax],al
00001F48  0000              add [eax],al
00001F4A  0000              add [eax],al
00001F4C  0300              add eax,[eax]
00001F4E  1B00              sbb eax,[eax]
00001F50  0000              add [eax],al
00001F52  0000              add [eax],al
00001F54  0000              add [eax],al
00001F56  0000              add [eax],al
00001F58  0000              add [eax],al
00001F5A  0000              add [eax],al
00001F5C  0300              add eax,[eax]
00001F5E  1C00              sbb al,0x0
00001F60  0000              add [eax],al
00001F62  0000              add [eax],al
00001F64  0000              add [eax],al
00001F66  0000              add [eax],al
00001F68  0000              add [eax],al
00001F6A  0000              add [eax],al
00001F6C  0300              add eax,[eax]
00001F6E  1D00000000        sbb eax,0x0
00001F73  0000              add [eax],al
00001F75  0000              add [eax],al
00001F77  0000              add [eax],al
00001F79  0000              add [eax],al
00001F7B  0003              add [ebx],al
00001F7D  001E              add [esi],bl
00001F7F  0000              add [eax],al
00001F81  0000              add [eax],al
00001F83  0000              add [eax],al
00001F85  0000              add [eax],al
00001F87  0000              add [eax],al
00001F89  0000              add [eax],al
00001F8B  0003              add [ebx],al
00001F8D  001F              add [edi],bl
00001F8F  0000              add [eax],al
00001F91  0000              add [eax],al
00001F93  0000              add [eax],al
00001F95  0000              add [eax],al
00001F97  0000              add [eax],al
00001F99  0000              add [eax],al
00001F9B  0003              add [ebx],al
00001F9D  0020              add [eax],ah
00001F9F  0000              add [eax],al
00001FA1  0000              add [eax],al
00001FA3  0000              add [eax],al
00001FA5  0000              add [eax],al
00001FA7  0000              add [eax],al
00001FA9  0000              add [eax],al
00001FAB  0003              add [ebx],al
00001FAD  0021              add [ecx],ah
00001FAF  0000              add [eax],al
00001FB1  0000              add [eax],al
00001FB3  0000              add [eax],al
00001FB5  0000              add [eax],al
00001FB7  0000              add [eax],al
00001FB9  0000              add [eax],al
00001FBB  0003              add [ebx],al
00001FBD  0022              add [edx],ah
00001FBF  0001              add [ecx],al
00001FC1  0000              add [eax],al
00001FC3  0000              add [eax],al
00001FC5  0000              add [eax],al
00001FC7  0000              add [eax],al
00001FC9  0000              add [eax],al
00001FCB  000400            add [eax+eax],al
00001FCE  F1                int1
00001FCF  FF08              dec dword [eax]
00001FD1  0000              add [eax],al
00001FD3  0000              add [eax],al
00001FD5  0000              add [eax],al
00001FD7  0000              add [eax],al
00001FD9  0000              add [eax],al
00001FDB  000400            add [eax+eax],al
00001FDE  F1                int1
00001FDF  FF13              call near [ebx]
00001FE1  0000              add [eax],al
00001FE3  0000              add [eax],al
00001FE5  0000              add [eax],al
00001FE7  0000              add [eax],al
00001FE9  0000              add [eax],al
00001FEB  000400            add [eax+eax],al
00001FEE  F1                int1
00001FEF  FF1E              call far [esi]
00001FF1  0000              add [eax],al
00001FF3  00149E            add [esi+ebx*4],dl
00001FF6  0408              add al,0x8
00001FF8  0000              add [eax],al
00001FFA  0000              add [eax],al
00001FFC  0100              add [eax],eax
00001FFE  1200              adc al,[eax]
00002000  2C00              sub al,0x0
00002002  0000              add [eax],al
00002004  209E04080000      and [esi+0x804],bl
0000200A  0000              add [eax],al
0000200C  0100              add [eax],eax
0000200E  1300              adc eax,[eax]
00002010  3A00              cmp al,[eax]
00002012  0000              add [eax],al
00002014  289E04080000      sub [esi+0x804],bl
0000201A  0000              add [eax],al
0000201C  0100              add [eax],eax
0000201E  1400              adc al,0x0
00002020  47                inc edi
00002021  0000              add [eax],al
00002023  0030              add [eax],dh
00002025  860408            xchg al,[eax+ecx]
00002028  0000              add [eax],al
0000202A  0000              add [eax],al
0000202C  0200              add al,[eax]
0000202E  0C00              or al,0x0
00002030  5C                pop esp
00002031  0000              add [eax],al
00002033  006086            add [eax-0x7a],ah
00002036  0408              add al,0x8
00002038  0000              add [eax],al
0000203A  0000              add [eax],al
0000203C  0200              add al,[eax]
0000203E  0C00              or al,0x0
00002040  6F                outsd
00002041  0000              add [eax],al
00002043  00A086040800      add [eax+0x80486],ah
00002049  0000              add [eax],al
0000204B  0002              add [edx],al
0000204D  000C00            add [eax+eax],cl
00002050  8500              test [eax],eax
00002052  0000              add [eax],al
00002054  F09F              lock lahf
00002056  0408              add al,0x8
00002058  0100              add [eax],eax
0000205A  0000              add [eax],al
0000205C  0100              add [eax],eax
0000205E  1900              sbb [eax],eax
00002060  94                xchg eax,esp
00002061  0000              add [eax],al
00002063  00F4              add ah,dh
00002065  9F                lahf
00002066  0408              add al,0x8
00002068  0400              add al,0x0
0000206A  0000              add [eax],al
0000206C  0100              add [eax],eax
0000206E  1900              sbb [eax],eax
00002070  A2000000F0        mov [0xf0000000],al
00002075  860408            xchg al,[eax+ecx]
00002078  0000              add [eax],al
0000207A  0000              add [eax],al
0000207C  0200              add al,[eax]
0000207E  0C00              or al,0x0
00002080  1300              adc eax,[eax]
00002082  0000              add [eax],al
00002084  0000              add [eax],al
00002086  0000              add [eax],al
00002088  0000              add [eax],al
0000208A  0000              add [eax],al
0000208C  0400              add al,0x0
0000208E  F1                int1
0000208F  FFAE0000001C      jmp far [esi+0x1c000000]
00002095  9E                sahf
00002096  0408              add al,0x8
00002098  0000              add [eax],al
0000209A  0000              add [eax],al
0000209C  0100              add [eax],eax
0000209E  1200              adc al,[eax]
000020A0  BB00000000        mov ebx,0x0
000020A5  8E0408            mov es,[eax+ecx]
000020A8  0000              add [eax],al
000020AA  0000              add [eax],al
000020AC  0100              add [eax],eax
000020AE  1000              adc [eax],al
000020B0  C9                leave
000020B1  0000              add [eax],al
000020B3  0028              add [eax],ch
000020B5  9E                sahf
000020B6  0408              add al,0x8
000020B8  0000              add [eax],al
000020BA  0000              add [eax],al
000020BC  0100              add [eax],eax
000020BE  1400              adc al,0x0
000020C0  D500              aad 0x0
000020C2  0000              add [eax],al
000020C4  108C0408000000    adc [esp+eax+0x8],cl
000020CB  0002              add [edx],al
000020CD  000C00            add [eax+eax],cl
000020D0  0800              or [eax],al
000020D2  0000              add [eax],al
000020D4  0000              add [eax],al
000020D6  0000              add [eax],al
000020D8  0000              add [eax],al
000020DA  0000              add [eax],al
000020DC  0400              add al,0x0
000020DE  F1                int1
000020DF  FF                db 0xFF
000020E0  EB00              jmp short 0x20e2
000020E2  0000              add [eax],al
000020E4  0000              add [eax],al
000020E6  0000              add [eax],al
000020E8  0000              add [eax],al
000020EA  0000              add [eax],al
000020EC  0400              add al,0x0
000020EE  F1                int1
000020EF  FF11              call near [ecx]
000020F1  0100              add [eax],eax
000020F3  0040CF            add [eax-0x31],al
000020F6  0408              add al,0x8
000020F8  0100              add [eax],eax
000020FA  0000              add [eax],al
000020FC  0100              add [eax],eax
000020FE  1900              sbb [eax],eax
00002100  2001              and [ecx],al
00002102  0000              add [eax],al
00002104  188B04083F00      sbb [ebx+0x3f0804],cl
0000210A  0000              add [eax],al
0000210C  0200              add al,[eax]
0000210E  0C00              or al,0x0
00002110  50                push eax
00002111  0100              add [eax],eax
00002113  006C8C04          add [esp+ecx*4+0x4],ch
00002117  080400            or [eax+eax],al
0000211A  0000              add [eax],al
0000211C  0100              add [eax],eax
0000211E  0E                push cs
0000211F  005901            add [ecx+0x1],bl
00002122  0000              add [eax],al
00002124  708C              jo 0x20b2
00002126  0408              add al,0x8
00002128  0400              add al,0x0
0000212A  0000              add [eax],al
0000212C  0100              add [eax],eax
0000212E  0E                push cs
0000212F  006101            add [ecx+0x1],ah
00002132  0000              add [eax],al
00002134  57                push edi
00002135  8B0408            mov eax,[eax+ecx]
00002138  1C00              sbb al,0x0
0000213A  0000              add [eax],al
0000213C  0200              add al,[eax]
0000213E  0C00              or al,0x0
00002140  7201              jc 0x2143
00002142  0000              add [eax],al
00002144  0000              add [eax],al
00002146  0000              add [eax],al
00002148  0000              add [eax],al
0000214A  0000              add [eax],al
0000214C  0400              add al,0x0
0000214E  F1                int1
0000214F  FF00              inc dword [eax]
00002151  0000              add [eax],al
00002153  0000              add [eax],al
00002155  0000              add [eax],al
00002157  0000              add [eax],al
00002159  0000              add [eax],al
0000215B  000400            add [eax+eax],al
0000215E  F1                int1
0000215F  FF                db 0xFF
00002160  7D01              jnl 0x2163
00002162  0000              add [eax],al
00002164  109F04080000      adc [edi+0x804],bl
0000216A  0000              add [eax],al
0000216C  0100              add [eax],eax
0000216E  17                pop ss
0000216F  009301000013      add [ebx+0x13000001],dl
00002175  9E                sahf
00002176  0408              add al,0x8
00002178  0000              add [eax],al
0000217A  0000              add [eax],al
0000217C  0000              add [eax],al
0000217E  1200              adc al,[eax]
00002180  A4                movsb
00002181  0100              add [eax],eax
00002183  0013              add [ebx],dl
00002185  9E                sahf
00002186  0408              add al,0x8
00002188  0000              add [eax],al
0000218A  0000              add [eax],al
0000218C  0000              add [eax],al
0000218E  1200              adc al,[eax]
00002190  B701              mov bh,0x1
00002192  0000              add [eax],al
00002194  2C9E              sub al,0x9e
00002196  0408              add al,0x8
00002198  0000              add [eax],al
0000219A  0000              add [eax],al
0000219C  0100              add [eax],eax
0000219E  1500C00100        adc eax,0x1c000
000021A3  00449F04          add [edi+ebx*4+0x4],al
000021A7  0800              or [eax],al
000021A9  0000              add [eax],al
000021AB  0020              add [eax],ah
000021AD  0018              add [eax],bl
000021AF  00CB              add bl,cl
000021B1  0100              add [eax],eax
000021B3  00609F            add [eax-0x61],ah
000021B6  0408              add al,0x8
000021B8  90                nop
000021B9  0000              add [eax],al
000021BB  0011              add [ecx],dl
000021BD  0019              add [ecx],bl
000021BF  00E1              add cl,ah
000021C1  0100              add [eax],eax
000021C3  0000              add [eax],al
000021C5  0000              add [eax],al
000021C7  0000              add [eax],al
000021C9  0000              add [eax],al
000021CB  0012              add [edx],dl
000021CD  0000              add [eax],al
000021CF  00FB              add bl,bh
000021D1  0100              add [eax],eax
000021D3  00A08B040805      add [eax+0x508048b],ah
000021D9  0000              add [eax],al
000021DB  0012              add [edx],dl
000021DD  000C00            add [eax+eax],cl
000021E0  0B02              or eax,[edx]
000021E2  0000              add [eax],al
000021E4  008604080000      add [esi+0x804],al
000021EA  0000              add [eax],al
000021EC  1200              adc al,[eax]
000021EE  0C00              or al,0x0
000021F0  1202              adc al,[edx]
000021F2  0000              add [eax],al
000021F4  0000              add [eax],al
000021F6  0000              add [eax],al
000021F8  0000              add [eax],al
000021FA  0000              add [eax],al
000021FC  2000              and [eax],al
000021FE  0000              add [eax],al
00002200  2102              and [edx],eax
00002202  0000              add [eax],al
00002204  0000              add [eax],al
00002206  0000              add [eax],al
00002208  0000              add [eax],al
0000220A  0000              add [eax],al
0000220C  2000              and [eax],al
0000220E  0000              add [eax],al
00002210  3502000054        xor eax,0x54000002
00002215  8C0408            mov [eax+ecx],es
00002218  0400              add al,0x0
0000221A  0000              add [eax],al
0000221C  1100              adc [eax],eax
0000221E  0E                push cs
0000221F  003C02            add [edx+eax],bh
00002222  0000              add [eax],al
00002224  388C0408000000    cmp [esp+eax+0x8],cl
0000222B  0012              add [edx],dl
0000222D  000D00420200      add [0x24200],cl
00002233  0000              add [eax],al
00002235  0000              add [eax],al
00002237  0000              add [eax],al
00002239  0000              add [eax],al
0000223B  0012              add [edx],dl
0000223D  0000              add [eax],al
0000223F  006702            add [edi+0x2],ah
00002242  0000              add [eax],al
00002244  208704081A01      and [edi+0x11a0804],al
0000224A  0000              add [eax],al
0000224C  1200              adc al,[eax]
0000224E  0C00              or al,0x0
00002250  7302              jnc 0x2254
00002252  0000              add [eax],al
00002254  0000              add [eax],al
00002256  0000              add [eax],al
00002258  0000              add [eax],al
0000225A  0000              add [eax],al
0000225C  1200              adc al,[eax]
0000225E  0000              add [eax],al
00002260  90                nop
00002261  0200              add al,[eax]
00002263  0080BF0408DC      add [eax+0xdc0804bf],al
00002269  07                pop es
0000226A  0000              add [eax],al
0000226C  1100              adc [eax],eax
0000226E  1900              sbb [eax],eax
00002270  92                xchg eax,edx
00002271  0200              add al,[eax]
00002273  00A085040800      add [eax+0x80485],ah
00002279  0000              add [eax],al
0000227B  0012              add [edx],dl
0000227D  0000              add [eax],al
0000227F  00B702000000      add [edi+0x2],dh
00002285  0000              add [eax],al
00002287  0000              add [eax],al
00002289  0000              add [eax],al
0000228B  0020              add [eax],ah
0000228D  0000              add [eax],al
0000228F  00D3              add bl,dl
00002291  0200              add al,[eax]
00002293  00588C            add [eax-0x74],bl
00002296  0408              add al,0x8
00002298  0400              add al,0x0
0000229A  0000              add [eax],al
0000229C  1100              adc [eax],eax
0000229E  0E                push cs
0000229F  00E2              add dl,ah
000022A1  0200              add al,[eax]
000022A3  0000              add [eax],al
000022A5  0000              add [eax],al
000022A7  0000              add [eax],al
000022A9  0000              add [eax],al
000022AB  0020              add [eax],ah
000022AD  0000              add [eax],al
000022AF  00FC              add ah,bh
000022B1  0200              add al,[eax]
000022B3  00449F04          add [edi+ebx*4+0x4],al
000022B7  0800              or [eax],al
000022B9  0000              add [eax],al
000022BB  0010              add [eax],dl
000022BD  0018              add [eax],bl
000022BF  0009              add [ecx],cl
000022C1  0300              add eax,[eax]
000022C3  0000              add [eax],al
000022C5  0000              add [eax],al
000022C7  0000              add [eax],al
000022C9  0000              add [eax],al
000022CB  0012              add [edx],dl
000022CD  0000              add [eax],al
000022CF  001B              add [ebx],bl
000022D1  0300              add eax,[eax]
000022D3  0000              add [eax],al
000022D5  A00408B40F        mov al,[0xfb40804]
000022DA  0000              add [eax],al
000022DC  1100              adc [eax],eax
000022DE  1900              sbb [eax],eax
000022E0  1D0300004C        sbb eax,0x4c000003
000022E5  9F                lahf
000022E6  0408              add al,0x8
000022E8  0000              add [eax],al
000022EA  0000              add [eax],al
000022EC  1102              adc [edx],eax
000022EE  1800              sbb [eax],al
000022F0  2903              sub [ebx],eax
000022F2  0000              add [eax],al
000022F4  3A8804086400      cmp cl,[eax+0x640804]
000022FA  0000              add [eax],al
000022FC  1200              adc al,[eax]
000022FE  0C00              or al,0x0
00002300  3A03              cmp al,[ebx]
00002302  0000              add [eax],al
00002304  48                dec eax
00002305  9F                lahf
00002306  0408              add al,0x8
00002308  0000              add [eax],al
0000230A  0000              add [eax],al
0000230C  1102              adc [edx],eax
0000230E  1800              sbb [eax],al
00002310  47                inc edi
00002311  0300              add eax,[eax]
00002313  00249E            add [esi+ebx*4],ah
00002316  0408              add al,0x8
00002318  0000              add [eax],al
0000231A  0000              add [eax],al
0000231C  1102              adc [edx],eax
0000231E  1300              adc eax,[eax]
00002320  54                push esp
00002321  0300              add eax,[eax]
00002323  00B08B04085A      add [eax+0x5a08048b],dh
00002329  0000              add [eax],al
0000232B  0012              add [edx],dl
0000232D  000C00            add [eax+eax],cl
00002330  640300            add eax,[fs:eax]
00002333  0000              add [eax],al
00002335  0000              add [eax],al
00002337  0000              add [eax],al
00002339  0000              add [eax],al
0000233B  0012              add [edx],dl
0000233D  0000              add [eax],al
0000233F  007603            add [esi+0x3],dh
00002342  0000              add [eax],al
00002344  4C                dec esp
00002345  9F                lahf
00002346  0408              add al,0x8
00002348  0000              add [eax],al
0000234A  0000              add [eax],al
0000234C  1000              adc [eax],al
0000234E  1900              sbb [eax],eax
00002350  82                db 0x82
00002351  0300              add eax,[eax]
00002353  0060C7            add [eax-0x39],ah
00002356  0408              add al,0x8
00002358  DC07              fadd qword [edi]
0000235A  0000              add [eax],al
0000235C  1100              adc [eax],eax
0000235E  1900              sbb [eax],eax
00002360  8403              test [ebx],al
00002362  0000              add [eax],al
00002364  0000              add [eax],al
00002366  0000              add [eax],al
00002368  0000              add [eax],al
0000236A  0000              add [eax],al
0000236C  1200              adc al,[eax]
0000236E  0000              add [eax],al
00002370  9C                pushf
00002371  0300              add eax,[eax]
00002373  00C0              add al,al
00002375  AF                scasd
00002376  0408              add al,0x8
00002378  B40F              mov ah,0xf
0000237A  0000              add [eax],al
0000237C  1100              adc [eax],eax
0000237E  1900              sbb [eax],eax
00002380  9E                sahf
00002381  0300              add eax,[eax]
00002383  0044CF04          add [edi+ecx*8+0x4],al
00002387  0800              or [eax],al
00002389  0000              add [eax],al
0000238B  0010              add [eax],dl
0000238D  0019              add [ecx],bl
0000238F  00A30300009E      add [ebx+0x9e000003],ah
00002395  880408            mov [eax+ecx],al
00002398  1500000012        adc eax,0x12000000
0000239D  000C00            add [eax+eax],cl
000023A0  AB                stosd
000023A1  0300              add eax,[eax]
000023A3  004C9F04          add [edi+ebx*4+0x4],cl
000023A7  0800              or [eax],al
000023A9  0000              add [eax],al
000023AB  0010              add [eax],dl
000023AD  0018              add [eax],bl
000023AF  00B2030000E0      add [edx+0xe0000003],dh
000023B5  850408            test [eax+ecx],eax
000023B8  0000              add [eax],al
000023BA  0000              add [eax],al
000023BC  1200              adc al,[eax]
000023BE  0000              add [eax],al
000023C0  D303              rol dword [ebx],cl
000023C2  0000              add [eax],al
000023C4  0000              add [eax],al
000023C6  0000              add [eax],al
000023C8  0000              add [eax],al
000023CA  0000              add [eax],al
000023CC  1200              adc al,[eax]
000023CE  0000              add [eax],al
000023D0  EB03              jmp short 0x23d5
000023D2  0000              add [eax],al
000023D4  738B              jnc 0x2361
000023D6  0408              add al,0x8
000023D8  2200              and al,[eax]
000023DA  0000              add [eax],al
000023DC  2200              and al,[eax]
000023DE  0C00              or al,0x0
000023E0  FF03              inc dword [ebx]
000023E2  0000              add [eax],al
000023E4  0A8C0408000000    or cl,[esp+eax+0x8]
000023EB  0012              add [edx],dl
000023ED  020C00            add cl,[eax+eax]
000023F0  16                push ss
000023F1  0400              add al,0x0
000023F3  00B388040865      add [ebx+0x65080488],dh
000023F9  0200              add al,[eax]
000023FB  0012              add [edx],dl
000023FD  000C00            add [eax+eax],cl
00002400  1B0400            sbb eax,[eax+eax]
00002403  0020              add [eax],ah
00002405  850408            test [eax+ecx],eax
00002408  0000              add [eax],al
0000240A  0000              add [eax],al
0000240C  1200              adc al,[eax]
0000240E  0A00              or al,[eax]
00002410  210400            and [eax+eax],eax
00002413  003CCF            add [edi+ecx*8],bh
00002416  0408              add al,0x8
00002418  0400              add al,0x0
0000241A  0000              add [eax],al
0000241C  1100              adc [eax],eax
0000241E  1900              sbb [eax],eax
00002420  00696E            add [ecx+0x6e],ch
00002423  69742E6300696E69  imul esi,[esi+ebp+0x63],dword 0x696e6900
0000242B  7466              jz 0x2493
0000242D  696E692E630063    imul ebp,[esi+0x69],dword 0x6300632e
00002434  7274              jc 0x24aa
00002436  7374              jnc 0x24ac
00002438  7566              jnz 0x24a0
0000243A  662E6300          o16 arpl [cs:eax],ax
0000243E  5F                pop edi
0000243F  5F                pop edi
00002440  43                inc ebx
00002441  54                push esp
00002442  4F                dec edi
00002443  52                push edx
00002444  5F                pop edi
00002445  4C                dec esp
00002446  49                dec ecx
00002447  53                push ebx
00002448  54                push esp
00002449  5F                pop edi
0000244A  5F                pop edi
0000244B  005F5F            add [edi+0x5f],bl
0000244E  44                inc esp
0000244F  54                push esp
00002450  4F                dec edi
00002451  52                push edx
00002452  5F                pop edi
00002453  4C                dec esp
00002454  49                dec ecx
00002455  53                push ebx
00002456  54                push esp
00002457  5F                pop edi
00002458  5F                pop edi
00002459  005F5F            add [edi+0x5f],bl
0000245C  4A                dec edx
0000245D  43                inc ebx
0000245E  52                push edx
0000245F  5F                pop edi
00002460  4C                dec esp
00002461  49                dec ecx
00002462  53                push ebx
00002463  54                push esp
00002464  5F                pop edi
00002465  5F                pop edi
00002466  00646572          add [ebp+0x72],ah
0000246A  656769737465725F  imul esi,[gs:bp+di+0x74],dword 0x745f7265
         -74
00002473  6D                insd
00002474  5F                pop edi
00002475  636C6F6E          arpl [edi+ebp*2+0x6e],bp
00002479  657300            gs jnc 0x247c
0000247C  7265              jc 0x24e3
0000247E  6769737465725F74  imul esi,[bp+di+0x74],dword 0x745f7265
00002486  6D                insd
00002487  5F                pop edi
00002488  636C6F6E          arpl [edi+ebp*2+0x6e],bp
0000248C  657300            gs jnc 0x248f
0000248F  5F                pop edi
00002490  5F                pop edi
00002491  646F              fs outsd
00002493  5F                pop edi
00002494  676C              a16 insb
00002496  6F                outsd
00002497  62616C            bound esp,[ecx+0x6c]
0000249A  5F                pop edi
0000249B  64746F            fs jz 0x250d
0000249E  7273              jc 0x2513
000024A0  5F                pop edi
000024A1  61                popa
000024A2  7578              jnz 0x251c
000024A4  00636F            add [ebx+0x6f],ah
000024A7  6D                insd
000024A8  706C              jo 0x2516
000024AA  657465            gs jz 0x2512
000024AD  642E3333          xor esi,[cs:ebx]
000024B1  3238              xor bh,[eax]
000024B3  0064746F          add [esp+esi*2+0x6f],ah
000024B7  725F              jc 0x2518
000024B9  6964782E33333330  imul esp,[eax+edi*2+0x2e],dword 0x30333333
000024C1  006672            add [esi+0x72],ah
000024C4  61                popa
000024C5  6D                insd
000024C6  655F              gs pop edi
000024C8  64756D            fs jnz 0x2538
000024CB  6D                insd
000024CC  7900              jns 0x24ce
000024CE  5F                pop edi
000024CF  5F                pop edi
000024D0  43                inc ebx
000024D1  54                push esp
000024D2  4F                dec edi
000024D3  52                push edx
000024D4  5F                pop edi
000024D5  45                inc ebp
000024D6  4E                dec esi
000024D7  44                inc esp
000024D8  5F                pop edi
000024D9  5F                pop edi
000024DA  005F5F            add [edi+0x5f],bl
000024DD  46                inc esi
000024DE  52                push edx
000024DF  41                inc ecx
000024E0  4D                dec ebp
000024E1  45                inc ebp
000024E2  5F                pop edi
000024E3  45                inc ebp
000024E4  4E                dec esi
000024E5  44                inc esp
000024E6  5F                pop edi
000024E7  5F                pop edi
000024E8  005F5F            add [edi+0x5f],bl
000024EB  4A                dec edx
000024EC  43                inc ebx
000024ED  52                push edx
000024EE  5F                pop edi
000024EF  45                inc ebp
000024F0  4E                dec esi
000024F1  44                inc esp
000024F2  5F                pop edi
000024F3  5F                pop edi
000024F4  005F5F            add [edi+0x5f],bl
000024F7  646F              fs outsd
000024F9  5F                pop edi
000024FA  676C              a16 insb
000024FC  6F                outsd
000024FD  62616C            bound esp,[ecx+0x6c]
00002500  5F                pop edi
00002501  63746F72          arpl [edi+ebp*2+0x72],si
00002505  735F              jnc 0x2566
00002507  61                popa
00002508  7578              jnz 0x2582
0000250A  0033              add [ebx],dh
0000250C  3031              xor [ecx],dh
0000250E  3434              xor al,0x34
00002510  3836              cmp [esi],dh
00002512  5F                pop edi
00002513  3537323130        xor eax,0x30313237
00002518  393434            cmp [esp+esi],esi
0000251B  3039              xor [ecx],bh
0000251D  3432              xor al,0x32
0000251F  3038              xor [eax],bh
00002521  3030              xor [eax],dh
00002523  5F                pop edi
00002524  41                inc ecx
00002525  43                inc ebx
00002526  50                push eax
00002527  7269              jc 0x2592
00002529  6D                insd
0000252A  65722E            gs jc 0x255b
0000252D  637070            arpl [eax+0x70],si
00002530  005F5A            add [edi+0x5a],bl
00002533  53                push ebx
00002534  744C              jz 0x2582
00002536  385F5F            cmp [edi+0x5f],bl
00002539  696F696E697400    imul ebp,[edi+0x69],dword 0x74696e
00002540  5F                pop edi
00002541  5A                pop edx
00002542  3431              xor al,0x31
00002544  5F                pop edi
00002545  5F                pop edi
00002546  7374              jnc 0x25bc
00002548  61                popa
00002549  7469              jz 0x25b4
0000254B  635F69            arpl [edi+0x69],bx
0000254E  6E                outsb
0000254F  697469616C697A61  imul esi,[ecx+ebp*2+0x61],dword 0x617a696c
00002557  7469              jz 0x25c2
00002559  6F                outsd
0000255A  6E                outsb
0000255B  5F                pop edi
0000255C  61                popa
0000255D  6E                outsb
0000255E  645F              fs pop edi
00002560  64657374          gs jnc 0x25d8
00002564  7275              jc 0x25db
00002566  6374696F          arpl [ecx+ebp*2+0x6f],si
0000256A  6E                outsb
0000256B  5F                pop edi
0000256C  306969            xor [ecx+0x69],ch
0000256F  005F5A            add [edi+0x5a],bl
00002572  4C                dec esp
00002573  346D              xor al,0x6d
00002575  61                popa
00002576  786E              js 0x25e6
00002578  005F5A            add [edi+0x5a],bl
0000257B  4C                dec esp
0000257C  33696E            xor ebp,[ecx+0x6e]
0000257F  66005F47          o16 add [edi+0x47],bl
00002583  4C                dec esp
00002584  4F                dec edi
00002585  42                inc edx
00002586  41                inc ecx
00002587  4C                dec esp
00002588  5F                pop edi
00002589  5F                pop edi
0000258A  7375              jnc 0x2601
0000258C  625F49            bound ebx,[edi+0x49]
0000258F  5F                pop edi
00002590  61                popa
00002591  00656C            add [ebp+0x6c],ah
00002594  662D696E          sub ax,0x6e69
00002598  69742E63005F474C  imul esi,[esi+ebp+0x63],dword 0x4c475f00
000025A0  4F                dec edi
000025A1  42                inc edx
000025A2  41                inc ecx
000025A3  4C                dec esp
000025A4  5F                pop edi
000025A5  4F                dec edi
000025A6  46                inc esi
000025A7  46                inc esi
000025A8  53                push ebx
000025A9  45                inc ebp
000025AA  54                push esp
000025AB  5F                pop edi
000025AC  54                push esp
000025AD  41                inc ecx
000025AE  42                inc edx
000025AF  4C                dec esp
000025B0  45                inc ebp
000025B1  5F                pop edi
000025B2  005F5F            add [edi+0x5f],bl
000025B5  696E69745F6172    imul ebp,[esi+0x69],dword 0x72615f74
000025BC  7261              jc 0x261f
000025BE  795F              jns 0x261f
000025C0  656E              gs outsb
000025C2  64005F5F          add [fs:edi+0x5f],bl
000025C6  696E69745F6172    imul ebp,[esi+0x69],dword 0x72615f74
000025CD  7261              jc 0x2630
000025CF  795F              jns 0x2630
000025D1  7374              jnc 0x2647
000025D3  61                popa
000025D4  7274              jc 0x264a
000025D6  005F44            add [edi+0x44],bl
000025D9  59                pop ecx
000025DA  4E                dec esi
000025DB  41                inc ecx
000025DC  4D                dec ebp
000025DD  49                dec ecx
000025DE  43                inc ebx
000025DF  00646174          add [ecx+0x74],ah
000025E3  61                popa
000025E4  5F                pop edi
000025E5  7374              jnc 0x265b
000025E7  61                popa
000025E8  7274              jc 0x265e
000025EA  005F5A            add [edi+0x5a],bl
000025ED  53                push ebx
000025EE  7433              jz 0x2623
000025F0  63696E            arpl [ecx+0x6e],bp
000025F3  40                inc eax
000025F4  40                inc eax
000025F5  47                inc edi
000025F6  4C                dec esp
000025F7  49                dec ecx
000025F8  42                inc edx
000025F9  43                inc ebx
000025FA  58                pop eax
000025FB  58                pop eax
000025FC  5F                pop edi
000025FD  332E              xor ebp,[esi]
000025FF  3400              xor al,0x0
00002601  5F                pop edi
00002602  5F                pop edi
00002603  637861            arpl [eax+0x61],di
00002606  5F                pop edi
00002607  61                popa
00002608  7465              jz 0x266f
0000260A  7869              js 0x2675
0000260C  7440              jz 0x264e
0000260E  40                inc eax
0000260F  47                inc edi
00002610  4C                dec esp
00002611  49                dec ecx
00002612  42                inc edx
00002613  43                inc ebx
00002614  5F                pop edi
00002615  322E              xor ch,[esi]
00002617  312E              xor [esi],ebp
00002619  3300              xor eax,[eax]
0000261B  5F                pop edi
0000261C  5F                pop edi
0000261D  6C                insb
0000261E  6962635F637375    imul esp,[edx+0x63],dword 0x7573635f
00002625  5F                pop edi
00002626  66696E69005F      imul bp,[esi+0x69],word 0x5f00
0000262C  7374              jnc 0x26a2
0000262E  61                popa
0000262F  7274              jc 0x26a5
00002631  005F5F            add [edi+0x5f],bl
00002634  676D              a16 insd
00002636  6F                outsd
00002637  6E                outsb
00002638  5F                pop edi
00002639  7374              jnc 0x26af
0000263B  61                popa
0000263C  7274              jc 0x26b2
0000263E  5F                pop edi
0000263F  5F                pop edi
00002640  005F4A            add [edi+0x4a],bl
00002643  765F              jna 0x26a4
00002645  52                push edx
00002646  6567697374657243  imul esi,[gs:bp+di+0x74],dword 0x6c437265
         -6C
0000264F  61                popa
00002650  7373              jnc 0x26c5
00002652  657300            gs jnc 0x2655
00002655  5F                pop edi
00002656  66705F            o16 jo 0x26b8
00002659  6877005F66        push dword 0x665f0077
0000265E  696E69005F5A4E    imul ebp,[esi+0x69],dword 0x4e5a5f00
00002665  53                push ebx
00002666  7438              jz 0x26a0
00002668  696F735F626173    imul ebp,[edi+0x73],dword 0x7361625f
0000266F  653449            gs xor al,0x49
00002672  6E                outsb
00002673  6974433145764040  imul esi,[ebx+eax*2+0x31],dword 0x40407645
0000267B  47                inc edi
0000267C  4C                dec esp
0000267D  49                dec ecx
0000267E  42                inc edx
0000267F  43                inc ebx
00002680  58                pop eax
00002681  58                pop eax
00002682  5F                pop edi
00002683  332E              xor ebp,[esi]
00002685  3400              xor al,0x0
00002687  5F                pop edi
00002688  5A                pop edx
00002689  356D657267        xor eax,0x6772656d
0000268E  65696969005F5F6C  imul ebp,[gs:ecx+0x69],dword 0x6c5f5f00
00002696  6962635F737461    imul esp,[edx+0x63],dword 0x6174735f
0000269D  7274              jc 0x2713
0000269F  5F                pop edi
000026A0  6D                insd
000026A1  61                popa
000026A2  696E4040474C49    imul ebp,[esi+0x40],dword 0x494c4740
000026A9  42                inc edx
000026AA  43                inc ebx
000026AB  5F                pop edi
000026AC  322E              xor ch,[esi]
000026AE  3000              xor [eax],al
000026B0  4C                dec esp
000026B1  005F5A            add [edi+0x5a],bl
000026B4  4E                dec esi
000026B5  53                push ebx
000026B6  7438              jz 0x26f0
000026B8  696F735F626173    imul ebp,[edi+0x73],dword 0x7361625f
000026BF  653449            gs xor al,0x49
000026C2  6E                outsb
000026C3  6974443145764040  imul esi,[esp+eax*2+0x31],dword 0x40407645
000026CB  47                inc edi
000026CC  4C                dec esp
000026CD  49                dec ecx
000026CE  42                inc edx
000026CF  43                inc ebx
000026D0  58                pop eax
000026D1  58                pop eax
000026D2  5F                pop edi
000026D3  332E              xor ebp,[esi]
000026D5  3400              xor al,0x0
000026D7  5F                pop edi
000026D8  49                dec ecx
000026D9  54                push esp
000026DA  4D                dec ebp
000026DB  5F                pop edi
000026DC  64657265          gs jc 0x2745
000026E0  676973746572544D  imul esi,[bp+di+0x74],dword 0x4d547265
000026E8  43                inc ebx
000026E9  6C                insb
000026EA  6F                outsd
000026EB  6E                outsb
000026EC  6554              gs push esp
000026EE  61                popa
000026EF  626C6500          bound ebp,[ebp+0x0]
000026F3  5F                pop edi
000026F4  49                dec ecx
000026F5  4F                dec edi
000026F6  5F                pop edi
000026F7  7374              jnc 0x276d
000026F9  64696E5F75736564  imul ebp,[fs:esi+0x5f],dword 0x64657375
00002701  005F49            add [edi+0x49],bl
00002704  54                push esp
00002705  4D                dec ebp
00002706  5F                pop edi
00002707  7265              jc 0x276e
00002709  676973746572544D  imul esi,[bp+di+0x74],dword 0x4d547265
00002711  43                inc ebx
00002712  6C                insb
00002713  6F                outsd
00002714  6E                outsb
00002715  6554              gs push esp
00002717  61                popa
00002718  626C6500          bound ebp,[ebp+0x0]
0000271C  5F                pop edi
0000271D  5F                pop edi
0000271E  6461              fs popa
00002720  7461              jz 0x2783
00002722  5F                pop edi
00002723  7374              jnc 0x2799
00002725  61                popa
00002726  7274              jc 0x279c
00002728  006D65            add [ebp+0x65],ch
0000272B  6D                insd
0000272C  637079            arpl [eax+0x79],si
0000272F  40                inc eax
00002730  40                inc eax
00002731  47                inc edi
00002732  4C                dec esp
00002733  49                dec ecx
00002734  42                inc edx
00002735  43                inc ebx
00002736  5F                pop edi
00002737  322E              xor ch,[esi]
00002739  3000              xor [eax],al
0000273B  61                popa
0000273C  005F5F            add [edi+0x5f],bl
0000273F  54                push esp
00002740  4D                dec ebp
00002741  43                inc ebx
00002742  5F                pop edi
00002743  45                inc ebp
00002744  4E                dec esi
00002745  44                inc esp
00002746  5F                pop edi
00002747  5F                pop edi
00002748  005F5A            add [edi+0x5a],bl
0000274B  3130              xor [eax],esi
0000274D  6D                insd
0000274E  657267            gs jc 0x27b8
00002751  655F              gs pop edi
00002753  736F              jnc 0x27c4
00002755  7274              jc 0x27cb
00002757  6969005F5F6473    imul ebp,[ecx+0x0],dword 0x73645f5f
0000275E  6F                outsd
0000275F  5F                pop edi
00002760  68616E646C        push dword 0x6c646e61
00002765  65005F5F          add [gs:edi+0x5f],bl
00002769  44                inc esp
0000276A  54                push esp
0000276B  4F                dec edi
0000276C  52                push edx
0000276D  5F                pop edi
0000276E  45                inc ebp
0000276F  4E                dec esi
00002770  44                inc esp
00002771  5F                pop edi
00002772  5F                pop edi
00002773  005F5F            add [edi+0x5f],bl
00002776  6C                insb
00002777  6962635F637375    imul esp,[edx+0x63],dword 0x7573635f
0000277E  5F                pop edi
0000277F  696E6974007072    imul ebp,[esi+0x69],dword 0x72700074
00002786  696E7466404047    imul ebp,[esi+0x74],dword 0x47404066
0000278D  4C                dec esp
0000278E  49                dec ecx
0000278F  42                inc edx
00002790  43                inc ebx
00002791  5F                pop edi
00002792  322E              xor ch,[esi]
00002794  3000              xor [eax],al
00002796  5F                pop edi
00002797  5F                pop edi
00002798  627373            bound esi,[ebx+0x73]
0000279B  5F                pop edi
0000279C  7374              jnc 0x2812
0000279E  61                popa
0000279F  7274              jc 0x2815
000027A1  005200            add [edx+0x0],dl
000027A4  5F                pop edi
000027A5  5A                pop edx
000027A6  4E                dec esi
000027A7  53                push ebx
000027A8  69727345526940    imul esi,[edx+0x73],dword 0x40695245
000027AF  40                inc eax
000027B0  47                inc edi
000027B1  4C                dec esp
000027B2  49                dec ecx
000027B3  42                inc edx
000027B4  43                inc ebx
000027B5  58                pop eax
000027B6  58                pop eax
000027B7  5F                pop edi
000027B8  332E              xor ebp,[esi]
000027BA  3400              xor al,0x0
000027BC  6200              bound eax,[eax]
000027BE  5F                pop edi
000027BF  656E              gs outsb
000027C1  64005F5A          add [fs:edi+0x5a],bl
000027C5  334162            xor eax,[ecx+0x62]
000027C8  7369              jnc 0x2833
000027CA  005F65            add [edi+0x65],bl
000027CD  6461              fs popa
000027CF  7461              jz 0x2832
000027D1  005F5F            add [edi+0x5f],bl
000027D4  677878            a16 js 0x284f
000027D7  5F                pop edi
000027D8  7065              jo 0x283f
000027DA  7273              jc 0x284f
000027DC  6F                outsd
000027DD  6E                outsb
000027DE  61                popa
000027DF  6C                insb
000027E0  6974795F76304040  imul esi,[ecx+edi*2+0x5f],dword 0x40403076
000027E8  43                inc ebx
000027E9  58                pop eax
000027EA  58                pop eax
000027EB  41                inc ecx
000027EC  42                inc edx
000027ED  49                dec ecx
000027EE  5F                pop edi
000027EF  312E              xor [esi],ebp
000027F1  3300              xor eax,[eax]
000027F3  5F                pop edi
000027F4  55                push ebp
000027F5  6E                outsb
000027F6  7769              ja 0x2861
000027F8  6E                outsb
000027F9  645F              fs pop edi
000027FB  52                push edx
000027FC  657375            gs jnc 0x2874
000027FF  6D                insd
00002800  6540              gs inc eax
00002802  40                inc eax
00002803  47                inc edi
00002804  43                inc ebx
00002805  43                inc ebx
00002806  5F                pop edi
00002807  332E              xor ebp,[esi]
00002809  3000              xor [eax],al
0000280B  5F                pop edi
0000280C  5A                pop edx
0000280D  53                push ebx
0000280E  7434              jz 0x2844
00002810  7377              jnc 0x2889
00002812  61                popa
00002813  7049              jo 0x285e
00002815  69457652545F53    imul eax,[ebp+0x76],dword 0x535f5452
0000281C  315F00            xor [edi+0x0],ebx
0000281F  5F                pop edi
00002820  5F                pop edi
00002821  693638362E67      imul esi,[esi],dword 0x672e3638
00002827  65745F            gs jz 0x2889
0000282A  7063              jo 0x288f
0000282C  5F                pop edi
0000282D  7468              jz 0x2897
0000282F  756E              jnz 0x289f
00002831  6B2E62            imul ebp,[esi],byte +0x62
00002834  7800              js 0x2836
00002836  6D                insd
00002837  61                popa
00002838  696E005F696E69    imul ebp,[esi+0x0],dword 0x696e695f
0000283F  7400              jz 0x2841
00002841  636E74            arpl [esi+0x74],bp
00002844  00                db 0x00
