00000000  7F45              jg 0x47
00000002  4C                dec esp
00000003  46                inc esi
00000004  0101              add [ecx],eax
00000006  0100              add [eax],eax
00000008  0000              add [eax],al
0000000A  0000              add [eax],al
0000000C  0000              add [eax],al
0000000E  0000              add [eax],al
00000010  0200              add al,[eax]
00000012  0300              add eax,[eax]
00000014  0100              add [eax],eax
00000016  0000              add [eax],al
00000018  60                pusha
00000019  880408            mov [eax+ecx],al
0000001C  3400              xor al,0x0
0000001E  0000              add [eax],al
00000020  D832              fdiv dword [edx]
00000022  0000              add [eax],al
00000024  0000              add [eax],al
00000026  0000              add [eax],al
00000028  3400              xor al,0x0
0000002A  2000              and [eax],al
0000002C  0800              or [eax],al
0000002E  2800              sub [eax],al
00000030  260023            add [es:ebx],ah
00000033  0006              add [esi],al
00000035  0000              add [eax],al
00000037  003400            add [eax+eax],dh
0000003A  0000              add [eax],al
0000003C  3480              xor al,0x80
0000003E  0408              add al,0x8
00000040  3480              xor al,0x80
00000042  0408              add al,0x8
00000044  0001              add [ecx],al
00000046  0000              add [eax],al
00000048  0001              add [ecx],al
0000004A  0000              add [eax],al
0000004C  0500000004        add eax,0x4000000
00000051  0000              add [eax],al
00000053  0003              add [ebx],al
00000055  0000              add [eax],al
00000057  003401            add [ecx+eax],dh
0000005A  0000              add [eax],al
0000005C  3481              xor al,0x81
0000005E  0408              add al,0x8
00000060  3481              xor al,0x81
00000062  0408              add al,0x8
00000064  1300              adc eax,[eax]
00000066  0000              add [eax],al
00000068  1300              adc eax,[eax]
0000006A  0000              add [eax],al
0000006C  0400              add al,0x0
0000006E  0000              add [eax],al
00000070  0100              add [eax],eax
00000072  0000              add [eax],al
00000074  0100              add [eax],eax
00000076  0000              add [eax],al
00000078  0000              add [eax],al
0000007A  0000              add [eax],al
0000007C  008004080080      add [eax+0x80000804],al
00000082  0408              add al,0x8
00000084  2B29              sub ebp,[ecx]
00000086  0000              add [eax],al
00000088  2B29              sub ebp,[ecx]
0000008A  0000              add [eax],al
0000008C  0500000000        add eax,0x0
00000091  1000              adc [eax],al
00000093  0001              add [ecx],al
00000095  0000              add [eax],al
00000097  002C29            add [ecx+ebp],ch
0000009A  0000              add [eax],al
0000009C  2CB9              sub al,0xb9
0000009E  0408              add al,0x8
000000A0  2CB9              sub al,0xb9
000000A2  0408              add al,0x8
000000A4  54                push esp
000000A5  0100              add [eax],eax
000000A7  006001            add [eax+0x1],ah
000000AA  0000              add [eax],al
000000AC  06                push es
000000AD  0000              add [eax],al
000000AF  0000              add [eax],al
000000B1  1000              adc [eax],al
000000B3  0002              add [edx],al
000000B5  0000              add [eax],al
000000B7  00442900          add [ecx+ebp+0x0],al
000000BB  0044B904          add [ecx+edi*4+0x4],al
000000BF  0844B904          or [ecx+edi*4+0x4],al
000000C3  08E0              or al,ah
000000C5  0000              add [eax],al
000000C7  00E0              add al,ah
000000C9  0000              add [eax],al
000000CB  0006              add [esi],al
000000CD  0000              add [eax],al
000000CF  000400            add [eax+eax],al
000000D2  0000              add [eax],al
000000D4  0400              add al,0x0
000000D6  0000              add [eax],al
000000D8  48                dec eax
000000D9  0100              add [eax],eax
000000DB  004881            add [eax-0x7f],cl
000000DE  0408              add al,0x8
000000E0  48                dec eax
000000E1  81040820000000    add dword [eax+ecx],0x20
000000E8  2000              and [eax],al
000000EA  0000              add [eax],al
000000EC  0400              add al,0x0
000000EE  0000              add [eax],al
000000F0  0400              add al,0x0
000000F2  0000              add [eax],al
000000F4  50                push eax
000000F5  E574              in eax,0x74
000000F7  64701B            fs jo 0x115
000000FA  0000              add [eax],al
000000FC  709B              jo 0x99
000000FE  0408              add al,0x8
00000100  709B              jo 0x9d
00000102  0408              add al,0x8
00000104  8402              test [edx],al
00000106  0000              add [eax],al
00000108  8402              test [edx],al
0000010A  0000              add [eax],al
0000010C  0400              add al,0x0
0000010E  0000              add [eax],al
00000110  0400              add al,0x0
00000112  0000              add [eax],al
00000114  51                push ecx
00000115  E574              in eax,0x74
00000117  640000            add [fs:eax],al
0000011A  0000              add [eax],al
0000011C  0000              add [eax],al
0000011E  0000              add [eax],al
00000120  0000              add [eax],al
00000122  0000              add [eax],al
00000124  0000              add [eax],al
00000126  0000              add [eax],al
00000128  0000              add [eax],al
0000012A  0000              add [eax],al
0000012C  06                push es
0000012D  0000              add [eax],al
0000012F  000400            add [eax+eax],al
00000132  0000              add [eax],al
00000134  2F                das
00000135  6C                insb
00000136  69622F6C642D6C    imul esp,[edx+0x2f],dword 0x6c2d646c
0000013D  696E75782E736F    imul ebp,[esi+0x75],dword 0x6f732e78
00000144  2E3200            xor al,[cs:eax]
00000147  000400            add [eax+eax],al
0000014A  0000              add [eax],al
0000014C  1000              adc [eax],al
0000014E  0000              add [eax],al
00000150  0100              add [eax],eax
00000152  0000              add [eax],al
00000154  47                inc edi
00000155  4E                dec esi
00000156  55                push ebp
00000157  0000              add [eax],al
00000159  0000              add [eax],al
0000015B  0002              add [edx],al
0000015D  0000              add [eax],al
0000015F  0000              add [eax],al
00000161  0000              add [eax],al
00000163  0000              add [eax],al
00000165  0000              add [eax],al
00000167  0011              add [ecx],dl
00000169  0000              add [eax],al
0000016B  0016              add [esi],dl
0000016D  0000              add [eax],al
0000016F  000F              add [edi],cl
00000171  0000              add [eax],al
00000173  000D00000006      add [0x6000000],cl
00000179  0000              add [eax],al
0000017B  0013              add [ebx],dl
0000017D  0000              add [eax],al
0000017F  001400            add [eax+eax],dl
00000182  0000              add [eax],al
00000184  0000              add [eax],al
00000186  0000              add [eax],al
00000188  1500000007        adc eax,0x7000000
0000018D  0000              add [eax],al
0000018F  0000              add [eax],al
00000191  0000              add [eax],al
00000193  0000              add [eax],al
00000195  0000              add [eax],al
00000197  0011              add [ecx],dl
00000199  0000              add [eax],al
0000019B  0010              add [eax],dl
0000019D  0000              add [eax],al
0000019F  0009              add [ecx],cl
000001A1  0000              add [eax],al
000001A3  000A              add [edx],cl
000001A5  0000              add [eax],al
000001A7  0001              add [ecx],al
000001A9  0000              add [eax],al
000001AB  0002              add [edx],al
000001AD  0000              add [eax],al
000001AF  0000              add [eax],al
000001B1  0000              add [eax],al
000001B3  0000              add [eax],al
000001B5  0000              add [eax],al
000001B7  0000              add [eax],al
000001B9  0000              add [eax],al
000001BB  0000              add [eax],al
000001BD  0000              add [eax],al
000001BF  0000              add [eax],al
000001C1  0000              add [eax],al
000001C3  0000              add [eax],al
000001C5  0000              add [eax],al
000001C7  0000              add [eax],al
000001C9  0000              add [eax],al
000001CB  0000              add [eax],al
000001CD  0000              add [eax],al
000001CF  000400            add [eax+eax],al
000001D2  0000              add [eax],al
000001D4  0000              add [eax],al
000001D6  0000              add [eax],al
000001D8  0500000008        add eax,0x8000000
000001DD  0000              add [eax],al
000001DF  0003              add [ebx],al
000001E1  0000              add [eax],al
000001E3  000B              add [ebx],cl
000001E5  0000              add [eax],al
000001E7  0000              add [eax],al
000001E9  0000              add [eax],al
000001EB  0000              add [eax],al
000001ED  0000              add [eax],al
000001EF  0000              add [eax],al
000001F1  0000              add [eax],al
000001F3  0000              add [eax],al
000001F5  0000              add [eax],al
000001F7  000E              add [esi],cl
000001F9  0000              add [eax],al
000001FB  0000              add [eax],al
000001FD  0000              add [eax],al
000001FF  000C00            add [eax+eax],cl
00000202  0000              add [eax],al
00000204  1200              adc al,[eax]
00000206  0000              add [eax],al
00000208  0000              add [eax],al
0000020A  0000              add [eax],al
0000020C  0000              add [eax],al
0000020E  0000              add [eax],al
00000210  0000              add [eax],al
00000212  0000              add [eax],al
00000214  0000              add [eax],al
00000216  0000              add [eax],al
00000218  0000              add [eax],al
0000021A  0000              add [eax],al
0000021C  0002              add [edx],al
0000021E  0000              add [eax],al
00000220  0000              add [eax],al
00000222  0000              add [eax],al
00000224  0000              add [eax],al
00000226  0000              add [eax],al
00000228  1200              adc al,[eax]
0000022A  0000              add [eax],al
0000022C  B200              mov dl,0x0
0000022E  0000              add [eax],al
00000230  0000              add [eax],al
00000232  0000              add [eax],al
00000234  0000              add [eax],al
00000236  0000              add [eax],al
00000238  2000              and [eax],al
0000023A  0000              add [eax],al
0000023C  2B01              sub eax,[ecx]
0000023E  0000              add [eax],al
00000240  0000              add [eax],al
00000242  0000              add [eax],al
00000244  0000              add [eax],al
00000246  0000              add [eax],al
00000248  2000              and [eax],al
0000024A  0000              add [eax],al
0000024C  1000              adc [eax],al
0000024E  0000              add [eax],al
00000250  0000              add [eax],al
00000252  0000              add [eax],al
00000254  0000              add [eax],al
00000256  0000              add [eax],al
00000258  1200              adc al,[eax]
0000025A  0000              add [eax],al
0000025C  1301              adc eax,[ecx]
0000025E  0000              add [eax],al
00000260  0000              add [eax],al
00000262  0000              add [eax],al
00000264  0000              add [eax],al
00000266  0000              add [eax],al
00000268  1200              adc al,[eax]
0000026A  0000              add [eax],al
0000026C  3300              xor eax,[eax]
0000026E  0000              add [eax],al
00000270  0000              add [eax],al
00000272  0000              add [eax],al
00000274  0000              add [eax],al
00000276  0000              add [eax],al
00000278  1200              adc al,[eax]
0000027A  0000              add [eax],al
0000027C  1302              adc eax,[edx]
0000027E  0000              add [eax],al
00000280  0000              add [eax],al
00000282  0000              add [eax],al
00000284  0000              add [eax],al
00000286  0000              add [eax],al
00000288  1200              adc al,[eax]
0000028A  0000              add [eax],al
0000028C  94                xchg eax,esp
0000028D  0000              add [eax],al
0000028F  00B087040800      add [eax+0x80487],dh
00000295  0000              add [eax],al
00000297  0012              add [edx],dl
00000299  0000              add [eax],al
0000029B  0017              add [edi],dl
0000029D  0000              add [eax],al
0000029F  0000              add [eax],al
000002A1  0000              add [eax],al
000002A3  0000              add [eax],al
000002A5  0000              add [eax],al
000002A7  0020              add [eax],ah
000002A9  0000              add [eax],al
000002AB  00E5              add ch,ah
000002AD  0100              add [eax],eax
000002AF  0038              add [eax],bh
000002B1  9B                wait
000002B2  0408              add al,0x8
000002B4  0400              add al,0x0
000002B6  0000              add [eax],al
000002B8  1100              adc [eax],eax
000002BA  0E                push cs
000002BB  000D02000000      add [0x2],cl
000002C1  0000              add [eax],al
000002C3  0000              add [eax],al
000002C5  0000              add [eax],al
000002C7  0012              add [edx],dl
000002C9  0000              add [eax],al
000002CB  003F              add [edi],bh
000002CD  0100              add [eax],eax
000002CF  0000              add [eax],al
000002D1  0000              add [eax],al
000002D3  0000              add [eax],al
000002D5  0000              add [eax],al
000002D7  0020              add [eax],ah
000002D9  0000              add [eax],al
000002DB  006300            add [ebx+0x0],ah
000002DE  0000              add [eax],al
000002E0  0000              add [eax],al
000002E2  0000              add [eax],al
000002E4  0000              add [eax],al
000002E6  0000              add [eax],al
000002E8  1200              adc al,[eax]
000002EA  0000              add [eax],al
000002EC  F9                stc
000002ED  0100              add [eax],eax
000002EF  0000              add [eax],al
000002F1  0000              add [eax],al
000002F3  0000              add [eax],al
000002F5  0000              add [eax],al
000002F7  0012              add [edx],dl
000002F9  0000              add [eax],al
000002FB  00AC0000000000    add [eax+eax+0x0],ch
00000302  0000              add [eax],al
00000304  0000              add [eax],al
00000306  0000              add [eax],al
00000308  1200              adc al,[eax]
0000030A  0000              add [eax],al
0000030C  59                pop ecx
0000030D  0100              add [eax],eax
0000030F  0000              add [eax],al
00000311  0000              add [eax],al
00000313  0000              add [eax],al
00000315  0000              add [eax],al
00000317  0012              add [edx],dl
00000319  0000              add [eax],al
0000031B  00D6              add dh,dl
0000031D  0000              add [eax],al
0000031F  0000              add [eax],al
00000321  0000              add [eax],al
00000323  0000              add [eax],al
00000325  0000              add [eax],al
00000327  0012              add [edx],dl
00000329  0000              add [eax],al
0000032B  00F4              add ah,dh
0000032D  0100              add [eax],eax
0000032F  0000              add [eax],al
00000331  0000              add [eax],al
00000333  0000              add [eax],al
00000335  0000              add [eax],al
00000337  0012              add [edx],dl
00000339  0000              add [eax],al
0000033B  009B01000000      add [ebx+0x1],bl
00000341  0000              add [eax],al
00000343  0000              add [eax],al
00000345  0000              add [eax],al
00000347  0012              add [edx],dl
00000349  0000              add [eax],al
0000034B  00C1              add cl,al
0000034D  0000              add [eax],al
0000034F  004088            add [eax-0x78],al
00000352  0408              add al,0x8
00000354  0000              add [eax],al
00000356  0000              add [eax],al
00000358  1200              adc al,[eax]
0000035A  0000              add [eax],al
0000035C  CC                int3
0000035D  0100              add [eax],eax
0000035F  0000              add [eax],al
00000361  0000              add [eax],al
00000363  0000              add [eax],al
00000365  0000              add [eax],al
00000367  0012              add [edx],dl
00000369  0000              add [eax],al
0000036B  0000              add [eax],al
0000036D  6C                insb
0000036E  6962737464632B    imul esp,[edx+0x73],dword 0x2b636474
00000375  2B2E              sub ebp,[esi]
00000377  736F              jnc 0x3e8
00000379  2E36005F5A        add [ss:edi+0x5a],bl
0000037E  646C              fs insb
00000380  50                push eax
00000381  7600              jna 0x383
00000383  5F                pop edi
00000384  49                dec ecx
00000385  54                push esp
00000386  4D                dec ebp
00000387  5F                pop edi
00000388  64657265          gs jc 0x3f1
0000038C  676973746572544D  imul esi,[bp+di+0x74],dword 0x4d547265
00000394  43                inc ebx
00000395  6C                insb
00000396  6F                outsd
00000397  6E                outsb
00000398  6554              gs push esp
0000039A  61                popa
0000039B  626C6500          bound ebp,[ebp+0x0]
0000039F  5F                pop edi
000003A0  5A                pop edx
000003A1  53                push ebx
000003A2  7431              jz 0x3d5
000003A4  385F52            cmp [edi+0x52],bl
000003A7  625F74            bound ebx,[edi+0x74]
000003AA  7265              jc 0x411
000003AC  655F              gs pop edi
000003AE  6465637265        arpl [gs:edx+0x65],si
000003B3  6D                insd
000003B4  656E              gs outsb
000003B6  7450              jz 0x408
000003B8  53                push ebx
000003B9  7431              jz 0x3ec
000003BB  385F52            cmp [edi+0x52],bl
000003BE  625F74            bound ebx,[edi+0x74]
000003C1  7265              jc 0x428
000003C3  655F              gs pop edi
000003C5  6E                outsb
000003C6  6F                outsd
000003C7  64655F            gs pop edi
000003CA  626173            bound esp,[ecx+0x73]
000003CD  65005F5A          add [gs:edi+0x5a],bl
000003D1  53                push ebx
000003D2  7431              jz 0x405
000003D4  385F52            cmp [edi+0x52],bl
000003D7  625F74            bound ebx,[edi+0x74]
000003DA  7265              jc 0x441
000003DC  655F              gs pop edi
000003DE  696E6372656D65    imul ebp,[esi+0x63],dword 0x656d6572
000003E5  6E                outsb
000003E6  7450              jz 0x438
000003E8  4B                dec ebx
000003E9  53                push ebx
000003EA  7431              jz 0x41d
000003EC  385F52            cmp [edi+0x52],bl
000003EF  625F74            bound ebx,[edi+0x74]
000003F2  7265              jc 0x459
000003F4  655F              gs pop edi
000003F6  6E                outsb
000003F7  6F                outsd
000003F8  64655F            gs pop edi
000003FB  626173            bound esp,[ecx+0x73]
000003FE  65005F5A          add [gs:edi+0x5a],bl
00000402  4E                dec esi
00000403  53                push ebx
00000404  7438              jz 0x43e
00000406  696F735F626173    imul ebp,[edi+0x73],dword 0x7361625f
0000040D  653449            gs xor al,0x49
00000410  6E                outsb
00000411  697444314576005F  imul esi,[esp+eax*2+0x31],dword 0x5f007645
00000419  5A                pop edx
0000041A  6E                outsb
0000041B  776A              ja 0x487
0000041D  005F5F            add [edi+0x5f],bl
00000420  676D              a16 insd
00000422  6F                outsd
00000423  6E                outsb
00000424  5F                pop edi
00000425  7374              jnc 0x49b
00000427  61                popa
00000428  7274              jc 0x49e
0000042A  5F                pop edi
0000042B  5F                pop edi
0000042C  005F5F            add [edi+0x5f],bl
0000042F  677878            a16 js 0x4aa
00000432  5F                pop edi
00000433  7065              jo 0x49a
00000435  7273              jc 0x4aa
00000437  6F                outsd
00000438  6E                outsb
00000439  61                popa
0000043A  6C                insb
0000043B  6974795F7630005F  imul esi,[ecx+edi*2+0x5f],dword 0x5f003076
00000443  5A                pop edx
00000444  53                push ebx
00000445  7432              jz 0x479
00000447  385F52            cmp [edi+0x52],bl
0000044A  625F74            bound ebx,[edi+0x74]
0000044D  7265              jc 0x4b4
0000044F  655F              gs pop edi
00000451  7265              jc 0x4b8
00000453  62616C            bound esp,[ecx+0x6c]
00000456  61                popa
00000457  6E                outsb
00000458  63655F            arpl [ebp+0x5f],sp
0000045B  666F              outsw
0000045D  725F              jc 0x4be
0000045F  657261            gs jc 0x4c3
00000462  7365              jnc 0x4c9
00000464  50                push eax
00000465  53                push ebx
00000466  7431              jz 0x499
00000468  385F52            cmp [edi+0x52],bl
0000046B  625F74            bound ebx,[edi+0x74]
0000046E  7265              jc 0x4d5
00000470  655F              gs pop edi
00000472  6E                outsb
00000473  6F                outsd
00000474  64655F            gs pop edi
00000477  626173            bound esp,[ecx+0x73]
0000047A  6552              gs push edx
0000047C  53                push ebx
0000047D  5F                pop edi
0000047E  005F5A            add [edi+0x5a],bl
00000481  4E                dec esi
00000482  53                push ebx
00000483  7438              jz 0x4bd
00000485  696F735F626173    imul ebp,[edi+0x73],dword 0x7361625f
0000048C  653449            gs xor al,0x49
0000048F  6E                outsb
00000490  697443314576005F  imul esi,[ebx+eax*2+0x31],dword 0x5f007645
00000498  4A                dec edx
00000499  765F              jna 0x4fa
0000049B  52                push edx
0000049C  6567697374657243  imul esi,[gs:bp+di+0x74],dword 0x6c437265
         -6C
000004A5  61                popa
000004A6  7373              jnc 0x51b
000004A8  657300            gs jnc 0x4ab
000004AB  5F                pop edi
000004AC  49                dec ecx
000004AD  54                push esp
000004AE  4D                dec ebp
000004AF  5F                pop edi
000004B0  7265              jc 0x517
000004B2  676973746572544D  imul esi,[bp+di+0x74],dword 0x4d547265
000004BA  43                inc ebx
000004BB  6C                insb
000004BC  6F                outsd
000004BD  6E                outsb
000004BE  6554              gs push esp
000004C0  61                popa
000004C1  626C6500          bound ebp,[ebp+0x0]
000004C5  5F                pop edi
000004C6  5A                pop edx
000004C7  53                push ebx
000004C8  7432              jz 0x4fc
000004CA  395F52            cmp [edi+0x52],ebx
000004CD  625F74            bound ebx,[edi+0x74]
000004D0  7265              jc 0x537
000004D2  655F              gs pop edi
000004D4  696E736572745F    imul ebp,[esi+0x73],dword 0x5f747265
000004DB  61                popa
000004DC  6E                outsb
000004DD  645F              fs pop edi
000004DF  7265              jc 0x546
000004E1  62616C            bound esp,[ecx+0x6c]
000004E4  61                popa
000004E5  6E                outsb
000004E6  636562            arpl [ebp+0x62],sp
000004E9  50                push eax
000004EA  53                push ebx
000004EB  7431              jz 0x51e
000004ED  385F52            cmp [edi+0x52],bl
000004F0  625F74            bound ebx,[edi+0x74]
000004F3  7265              jc 0x55a
000004F5  655F              gs pop edi
000004F7  6E                outsb
000004F8  6F                outsd
000004F9  64655F            gs pop edi
000004FC  626173            bound esp,[ecx+0x73]
000004FF  6553              gs push ebx
00000501  305F52            xor [edi+0x52],bl
00000504  53                push ebx
00000505  5F                pop edi
00000506  005F5A            add [edi+0x5a],bl
00000509  53                push ebx
0000050A  7431              jz 0x53d
0000050C  37                aaa
0000050D  5F                pop edi
0000050E  5F                pop edi
0000050F  7468              jz 0x579
00000511  726F              jc 0x582
00000513  775F              ja 0x574
00000515  626164            bound esp,[ecx+0x64]
00000518  5F                pop edi
00000519  61                popa
0000051A  6C                insb
0000051B  6C                insb
0000051C  6F                outsd
0000051D  637600            arpl [esi+0x0],si
00000520  6C                insb
00000521  69626D2E736F2E    imul esp,[edx+0x6d],dword 0x2e6f732e
00000528  36006C6962        add [ss:ecx+ebp*2+0x62],ch
0000052D  6763635F          arpl [bp+di+0x5f],sp
00000531  732E              jnc 0x561
00000533  736F              jnc 0x5a4
00000535  2E3100            xor [cs:eax],eax
00000538  5F                pop edi
00000539  55                push ebp
0000053A  6E                outsb
0000053B  7769              ja 0x5a6
0000053D  6E                outsb
0000053E  645F              fs pop edi
00000540  52                push edx
00000541  657375            gs jnc 0x5b9
00000544  6D                insd
00000545  65006C6962        add [gs:ecx+ebp*2+0x62],ch
0000054A  632E              arpl [esi],bp
0000054C  736F              jnc 0x5bd
0000054E  2E36005F49        add [ss:edi+0x49],bl
00000553  4F                dec edi
00000554  5F                pop edi
00000555  7374              jnc 0x5cb
00000557  64696E5F75736564  imul ebp,[fs:esi+0x5f],dword 0x64657375
0000055F  007075            add [eax+0x75],dh
00000562  7473              jz 0x5d7
00000564  007072            add [eax+0x72],dh
00000567  696E7466005F5F    imul ebp,[esi+0x74],dword 0x5f5f0066
0000056E  637861            arpl [eax+0x61],di
00000571  5F                pop edi
00000572  61                popa
00000573  7465              jz 0x5da
00000575  7869              js 0x5e0
00000577  7400              jz 0x579
00000579  7363              jnc 0x5de
0000057B  61                popa
0000057C  6E                outsb
0000057D  66005F5F          o16 add [edi+0x5f],bl
00000581  6C                insb
00000582  6962635F737461    imul esp,[edx+0x63],dword 0x6174735f
00000589  7274              jc 0x5ff
0000058B  5F                pop edi
0000058C  6D                insd
0000058D  61                popa
0000058E  696E004743435F    imul ebp,[esi+0x0],dword 0x5f434347
00000595  332E              xor ebp,[esi]
00000597  3000              xor [eax],al
00000599  43                inc ebx
0000059A  58                pop eax
0000059B  58                pop eax
0000059C  41                inc ecx
0000059D  42                inc edx
0000059E  49                dec ecx
0000059F  5F                pop edi
000005A0  312E              xor [esi],ebp
000005A2  3300              xor eax,[eax]
000005A4  47                inc edi
000005A5  4C                dec esp
000005A6  49                dec ecx
000005A7  42                inc edx
000005A8  43                inc ebx
000005A9  58                pop eax
000005AA  58                pop eax
000005AB  5F                pop edi
000005AC  332E              xor ebp,[esi]
000005AE  3400              xor al,0x0
000005B0  47                inc edi
000005B1  4C                dec esp
000005B2  49                dec ecx
000005B3  42                inc edx
000005B4  43                inc ebx
000005B5  5F                pop edi
000005B6  322E              xor ch,[esi]
000005B8  3000              xor [eax],al
000005BA  47                inc edi
000005BB  4C                dec esp
000005BC  49                dec ecx
000005BD  42                inc edx
000005BE  43                inc ebx
000005BF  5F                pop edi
000005C0  322E              xor ch,[esi]
000005C2  312E              xor [esi],ebp
000005C4  3300              xor eax,[eax]
000005C6  0000              add [eax],al
000005C8  0200              add al,[eax]
000005CA  0000              add [eax],al
000005CC  0000              add [eax],al
000005CE  0300              add eax,[eax]
000005D0  0300              add eax,[eax]
000005D2  0300              add eax,[eax]
000005D4  0400              add al,0x0
000005D6  0300              add eax,[eax]
000005D8  0000              add [eax],al
000005DA  0100              add [eax],eax
000005DC  0400              add al,0x0
000005DE  0000              add [eax],al
000005E0  0300              add eax,[eax]
000005E2  0400              add al,0x0
000005E4  0300              add eax,[eax]
000005E6  0300              add eax,[eax]
000005E8  0300              add eax,[eax]
000005EA  0400              add al,0x0
000005EC  0300              add eax,[eax]
000005EE  0500060000        add eax,0x600
000005F3  0001              add [ecx],al
000005F5  0001              add [ecx],al
000005F7  00BE01000010      add [esi+0x10000001],bh
000005FD  0000              add [eax],al
000005FF  0020              add [eax],ah
00000601  0000              add [eax],al
00000603  005026            add [eax+0x26],dl
00000606  790B              jns 0x613
00000608  0000              add [eax],al
0000060A  06                push es
0000060B  002502000000      add [0x2],ah
00000611  0000              add [eax],al
00000613  0001              add [ecx],al
00000615  0002              add [edx],al
00000617  0001              add [ecx],al
00000619  0000              add [eax],al
0000061B  0010              add [eax],dl
0000061D  0000              add [eax],al
0000061F  0030              add [eax],dh
00000621  0000              add [eax],al
00000623  00D3              add bl,dl
00000625  AF                scasd
00000626  6B05000005002D    imul eax,[0x50000],byte +0x2d
0000062D  0200              add al,[eax]
0000062F  0010              add [eax],dl
00000631  0000              add [eax],al
00000633  00742992          add [ecx+ebp-0x6e],dh
00000637  0800              or [eax],al
00000639  0003              add [ebx],al
0000063B  0038              add [eax],bh
0000063D  0200              add al,[eax]
0000063F  0000              add [eax],al
00000641  0000              add [eax],al
00000643  0001              add [ecx],al
00000645  0002              add [edx],al
00000647  00DB              add bl,bl
00000649  0100              add [eax],eax
0000064B  0010              add [eax],dl
0000064D  0000              add [eax],al
0000064F  0000              add [eax],al
00000651  0000              add [eax],al
00000653  0010              add [eax],dl
00000655  69690D00000400    imul ebp,[ecx+0xd],dword 0x40000
0000065C  44                inc esp
0000065D  0200              add al,[eax]
0000065F  0010              add [eax],dl
00000661  0000              add [eax],al
00000663  00731F            add [ebx+0x1f],dh
00000666  690900000200      imul ecx,[ecx],dword 0x20000
0000066C  4E                dec esi
0000066D  0200              add al,[eax]
0000066F  0000              add [eax],al
00000671  0000              add [eax],al
00000673  0024BA            add [edx+edi*4],ah
00000676  0408              add al,0x8
00000678  06                push es
00000679  0200              add al,[eax]
0000067B  0034BA            add [edx+edi*4],dh
0000067E  0408              add al,0x8
00000680  07                pop es
00000681  0100              add [eax],eax
00000683  0038              add [eax],bh
00000685  BA04080702        mov edx,0x2070804
0000068A  0000              add [eax],al
0000068C  3CBA              cmp al,0xba
0000068E  0408              add al,0x8
00000690  07                pop es
00000691  0400              add al,0x0
00000693  0040BA            add [eax-0x46],al
00000696  0408              add al,0x8
00000698  07                pop es
00000699  05000044BA        add eax,0xba440000
0000069E  0408              add al,0x8
000006A0  07                pop es
000006A1  06                push es
000006A2  0000              add [eax],al
000006A4  48                dec eax
000006A5  BA04080707        mov edx,0x7070804
000006AA  0000              add [eax],al
000006AC  4C                dec esp
000006AD  BA04080708        mov edx,0x8070804
000006B2  0000              add [eax],al
000006B4  50                push eax
000006B5  BA0408070B        mov edx,0xb070804
000006BA  0000              add [eax],al
000006BC  54                push esp
000006BD  BA0408070D        mov edx,0xd070804
000006C2  0000              add [eax],al
000006C4  58                pop eax
000006C5  BA0408070E        mov edx,0xe070804
000006CA  0000              add [eax],al
000006CC  5C                pop esp
000006CD  BA0408070F        mov edx,0xf070804
000006D2  0000              add [eax],al
000006D4  60                pusha
000006D5  BA04080710        mov edx,0x10070804
000006DA  0000              add [eax],al
000006DC  64BA04080711      fs mov edx,0x11070804
000006E2  0000              add [eax],al
000006E4  68BA040807        push dword 0x70804ba
000006E9  1200              adc al,[eax]
000006EB  006CBA04          add [edx+edi*4+0x4],ch
000006EF  0807              or [edi],al
000006F1  1300              adc eax,[eax]
000006F3  0070BA            add [eax-0x46],dh
000006F6  0408              add al,0x8
000006F8  07                pop es
000006F9  1400              adc al,0x0
000006FB  0074BA04          add [edx+edi*4+0x4],dh
000006FF  0807              or [edi],al
00000701  1500005589        adc eax,0x89550000
00000706  E553              in eax,0x53
00000708  83EC04            sub esp,byte +0x4
0000070B  E800000000        call 0x710
00000710  5B                pop ebx
00000711  81C318330000      add ebx,0x3318
00000717  8B93FCFFFFFF      mov edx,[ebx+0xfffffffc]
0000071D  85D2              test edx,edx
0000071F  7405              jz 0x726
00000721  E83A000000        call 0x760
00000726  E825020000        call 0x950
0000072B  E8C0130000        call 0x1af0
00000730  58                pop eax
00000731  5B                pop ebx
00000732  C9                leave
00000733  C3                ret
00000734  0000              add [eax],al
00000736  0000              add [eax],al
00000738  0000              add [eax],al
0000073A  0000              add [eax],al
0000073C  0000              add [eax],al
0000073E  0000              add [eax],al
00000740  FF352CBA0408      push dword [0x804ba2c]
00000746  FF2530BA0408      jmp near [0x804ba30]
0000074C  0000              add [eax],al
0000074E  0000              add [eax],al
00000750  FF2534BA0408      jmp near [0x804ba34]
00000756  6800000000        push dword 0x0
0000075B  E9E0FFFFFF        jmp 0x100000740
00000760  FF2538BA0408      jmp near [0x804ba38]
00000766  6808000000        push dword 0x8
0000076B  E9D0FFFFFF        jmp 0x100000740
00000770  FF253CBA0408      jmp near [0x804ba3c]
00000776  6810000000        push dword 0x10
0000077B  E9C0FFFFFF        jmp 0x100000740
00000780  FF2540BA0408      jmp near [0x804ba40]
00000786  6818000000        push dword 0x18
0000078B  E9B0FFFFFF        jmp 0x100000740
00000790  FF2544BA0408      jmp near [0x804ba44]
00000796  6820000000        push dword 0x20
0000079B  E9A0FFFFFF        jmp 0x100000740
000007A0  FF2548BA0408      jmp near [0x804ba48]
000007A6  6828000000        push dword 0x28
000007AB  E990FFFFFF        jmp 0x100000740
000007B0  FF254CBA0408      jmp near [0x804ba4c]
000007B6  6830000000        push dword 0x30
000007BB  E980FFFFFF        jmp 0x100000740
000007C0  FF2550BA0408      jmp near [0x804ba50]
000007C6  6838000000        push dword 0x38
000007CB  E970FFFFFF        jmp 0x100000740
000007D0  FF2554BA0408      jmp near [0x804ba54]
000007D6  6840000000        push dword 0x40
000007DB  E960FFFFFF        jmp 0x100000740
000007E0  FF2558BA0408      jmp near [0x804ba58]
000007E6  6848000000        push dword 0x48
000007EB  E950FFFFFF        jmp 0x100000740
000007F0  FF255CBA0408      jmp near [0x804ba5c]
000007F6  6850000000        push dword 0x50
000007FB  E940FFFFFF        jmp 0x100000740
00000800  FF2560BA0408      jmp near [0x804ba60]
00000806  6858000000        push dword 0x58
0000080B  E930FFFFFF        jmp 0x100000740
00000810  FF2564BA0408      jmp near [0x804ba64]
00000816  6860000000        push dword 0x60
0000081B  E920FFFFFF        jmp 0x100000740
00000820  FF2568BA0408      jmp near [0x804ba68]
00000826  6868000000        push dword 0x68
0000082B  E910FFFFFF        jmp 0x100000740
00000830  FF256CBA0408      jmp near [0x804ba6c]
00000836  6870000000        push dword 0x70
0000083B  E900FFFFFF        jmp 0x100000740
00000840  FF2570BA0408      jmp near [0x804ba70]
00000846  6878000000        push dword 0x78
0000084B  E9F0FEFFFF        jmp 0x100000740
00000850  FF2574BA0408      jmp near [0x804ba74]
00000856  6880000000        push dword 0x80
0000085B  E9E0FEFFFF        jmp 0x100000740
00000860  31ED              xor ebp,ebp
00000862  5E                pop esi
00000863  89E1              mov ecx,esp
00000865  83E4F0            and esp,byte -0x10
00000868  50                push eax
00000869  54                push esp
0000086A  52                push edx
0000086B  68809A0408        push dword 0x8049a80
00000870  68909A0408        push dword 0x8049a90
00000875  51                push ecx
00000876  56                push esi
00000877  6880890408        push dword 0x8048980
0000087C  E81FFFFFFF        call 0x1000007a0
00000881  F4                hlt
00000882  90                nop
00000883  90                nop
00000884  6690              o16 nop
00000886  6690              o16 nop
00000888  6690              o16 nop
0000088A  6690              o16 nop
0000088C  6690              o16 nop
0000088E  6690              o16 nop
00000890  B883BA0408        mov eax,0x804ba83
00000895  2D80BA0408        sub eax,0x804ba80
0000089A  83F806            cmp eax,byte +0x6
0000089D  7701              ja 0x8a0
0000089F  C3                ret
000008A0  B800000000        mov eax,0x0
000008A5  85C0              test eax,eax
000008A7  74F6              jz 0x89f
000008A9  55                push ebp
000008AA  89E5              mov ebp,esp
000008AC  83EC18            sub esp,byte +0x18
000008AF  C7042480BA0408    mov dword [esp],0x804ba80
000008B6  FFD0              call eax
000008B8  C9                leave
000008B9  C3                ret
000008BA  8DB600000000      lea esi,[esi+0x0]
000008C0  B880BA0408        mov eax,0x804ba80
000008C5  2D80BA0408        sub eax,0x804ba80
000008CA  C1F802            sar eax,0x2
000008CD  89C2              mov edx,eax
000008CF  C1EA1F            shr edx,0x1f
000008D2  01D0              add eax,edx
000008D4  D1F8              sar eax,1
000008D6  7501              jnz 0x8d9
000008D8  C3                ret
000008D9  BA00000000        mov edx,0x0
000008DE  85D2              test edx,edx
000008E0  74F6              jz 0x8d8
000008E2  55                push ebp
000008E3  89E5              mov ebp,esp
000008E5  83EC18            sub esp,byte +0x18
000008E8  89442404          mov [esp+0x4],eax
000008EC  C7042480BA0408    mov dword [esp],0x804ba80
000008F3  FFD2              call edx
000008F5  C9                leave
000008F6  C3                ret
000008F7  89F6              mov esi,esi
000008F9  8DBC2700000000    lea edi,[edi+0x0]
00000900  803D80BA040800    cmp byte [0x804ba80],0x0
00000907  7544              jnz 0x94d
00000909  55                push ebp
0000090A  89E5              mov ebp,esp
0000090C  53                push ebx
0000090D  BB3CB90408        mov ebx,0x804b93c
00000912  52                push edx
00000913  81EB38B90408      sub ebx,0x804b938
00000919  A184BA0408        mov eax,[0x804ba84]
0000091E  C1FB02            sar ebx,0x2
00000921  4B                dec ebx
00000922  39D8              cmp eax,ebx
00000924  7318              jnc 0x93e
00000926  6690              o16 nop
00000928  40                inc eax
00000929  A384BA0408        mov [0x804ba84],eax
0000092E  FF148538B90408    call near [eax*4+0x804b938]
00000935  A184BA0408        mov eax,[0x804ba84]
0000093A  39D8              cmp eax,ebx
0000093C  72EA              jc 0x928
0000093E  E84DFFFFFF        call 0x100000890
00000943  C60580BA040801    mov byte [0x804ba80],0x1
0000094A  58                pop eax
0000094B  5B                pop ebx
0000094C  5D                pop ebp
0000094D  C3                ret
0000094E  6690              o16 nop
00000950  8B0D40B90408      mov ecx,[0x804b940]
00000956  85C9              test ecx,ecx
00000958  741E              jz 0x978
0000095A  B800000000        mov eax,0x0
0000095F  85C0              test eax,eax
00000961  7415              jz 0x978
00000963  55                push ebp
00000964  89E5              mov ebp,esp
00000966  83EC18            sub esp,byte +0x18
00000969  C7042440B90408    mov dword [esp],0x804b940
00000970  FFD0              call eax
00000972  C9                leave
00000973  E948FFFFFF        jmp 0x1000008c0
00000978  E943FFFFFF        jmp 0x1000008c0
0000097D  6690              o16 nop
0000097F  90                nop
00000980  8D4C2404          lea ecx,[esp+0x4]
00000984  83E4F0            and esp,byte -0x10
00000987  FF71FC            push dword [ecx-0x4]
0000098A  55                push ebp
0000098B  89E5              mov ebp,esp
0000098D  53                push ebx
0000098E  51                push ecx
0000098F  83EC60            sub esp,byte +0x60
00000992  8D45D8            lea eax,[ebp-0x28]
00000995  89442404          mov [esp+0x4],eax
00000999  C704243C9B0408    mov dword [esp],0x8049b3c
000009A0  E81BFEFFFF        call 0x1000007c0
000009A5  C745F401000000    mov dword [ebp-0xc],0x1
000009AC  E954010000        jmp 0xb05
000009B1  8D45C0            lea eax,[ebp-0x40]
000009B4  890424            mov [esp],eax
000009B7  E806020000        call 0xbc2
000009BC  C745BC01000000    mov dword [ebp-0x44],0x1
000009C3  EB23              jmp short 0x9e8
000009C5  8D45DC            lea eax,[ebp-0x24]
000009C8  8D55BC            lea edx,[ebp-0x44]
000009CB  89542408          mov [esp+0x8],edx
000009CF  8D55C0            lea edx,[ebp-0x40]
000009D2  89542404          mov [esp+0x4],edx
000009D6  890424            mov [esp],eax
000009D9  E858020000        call 0xc36
000009DE  83EC04            sub esp,byte +0x4
000009E1  8B45BC            mov eax,[ebp-0x44]
000009E4  40                inc eax
000009E5  8945BC            mov [ebp-0x44],eax
000009E8  8B45BC            mov eax,[ebp-0x44]
000009EB  83F810            cmp eax,byte +0x10
000009EE  7ED5              jng 0x9c5
000009F0  C745F000000000    mov dword [ebp-0x10],0x0
000009F7  EB6E              jmp short 0xa67
000009F9  8D45B8            lea eax,[ebp-0x48]
000009FC  89442404          mov [esp+0x4],eax
00000A00  C704243C9B0408    mov dword [esp],0x8049b3c
00000A07  E8B4FDFFFF        call 0x1000007c0
00000A0C  8B45B8            mov eax,[ebp-0x48]
00000A0F  48                dec eax
00000A10  8945B8            mov [ebp-0x48],eax
00000A13  C745EC00000000    mov dword [ebp-0x14],0x0
00000A1A  EB42              jmp short 0xa5e
00000A1C  C745E800000000    mov dword [ebp-0x18],0x0
00000A23  EB30              jmp short 0xa55
00000A25  8D45B4            lea eax,[ebp-0x4c]
00000A28  89442404          mov [esp+0x4],eax
00000A2C  C704243C9B0408    mov dword [esp],0x8049b3c
00000A33  E888FDFFFF        call 0x1000007c0
00000A38  8B45B8            mov eax,[ebp-0x48]
00000A3B  3945EC            cmp [ebp-0x14],eax
00000A3E  7412              jz 0xa52
00000A40  8D45B4            lea eax,[ebp-0x4c]
00000A43  89442404          mov [esp+0x4],eax
00000A47  8D45C0            lea eax,[ebp-0x40]
00000A4A  890424            mov [esp],eax
00000A4D  E846020000        call 0xc98
00000A52  FF45E8            inc dword [ebp-0x18]
00000A55  837DE803          cmp dword [ebp-0x18],byte +0x3
00000A59  7ECA              jng 0xa25
00000A5B  FF45EC            inc dword [ebp-0x14]
00000A5E  837DEC03          cmp dword [ebp-0x14],byte +0x3
00000A62  7EB8              jng 0xa1c
00000A64  FF45F0            inc dword [ebp-0x10]
00000A67  837DF001          cmp dword [ebp-0x10],byte +0x1
00000A6B  7E8C              jng 0x9f9
00000A6D  8B45F4            mov eax,[ebp-0xc]
00000A70  89442404          mov [esp+0x4],eax
00000A74  C704243F9B0408    mov dword [esp],0x8049b3f
00000A7B  E860FDFFFF        call 0x1000007e0
00000A80  8D45C0            lea eax,[ebp-0x40]
00000A83  890424            mov [esp],eax
00000A86  E827020000        call 0xcb2
00000A8B  83F801            cmp eax,byte +0x1
00000A8E  0F94C0            setz al
00000A91  84C0              test al,al
00000A93  7434              jz 0xac9
00000A95  8D45E4            lea eax,[ebp-0x1c]
00000A98  8D55C0            lea edx,[ebp-0x40]
00000A9B  89542404          mov [esp+0x4],edx
00000A9F  890424            mov [esp],eax
00000AA2  E81F020000        call 0xcc6
00000AA7  83EC04            sub esp,byte +0x4
00000AAA  8D45E4            lea eax,[ebp-0x1c]
00000AAD  890424            mov [esp],eax
00000AB0  E833020000        call 0xce8
00000AB5  8B00              mov eax,[eax]
00000AB7  89442404          mov [esp+0x4],eax
00000ABB  C704244A9B0408    mov dword [esp],0x8049b4a
00000AC2  E819FDFFFF        call 0x1000007e0
00000AC7  EB2E              jmp short 0xaf7
00000AC9  8D45C0            lea eax,[ebp-0x40]
00000ACC  890424            mov [esp],eax
00000ACF  E8DE010000        call 0xcb2
00000AD4  85C0              test eax,eax
00000AD6  0F94C0            setz al
00000AD9  84C0              test al,al
00000ADB  740E              jz 0xaeb
00000ADD  C704244E9B0408    mov dword [esp],0x8049b4e
00000AE4  E837FDFFFF        call 0x100000820
00000AE9  EB0C              jmp short 0xaf7
00000AEB  C70424619B0408    mov dword [esp],0x8049b61
00000AF2  E829FDFFFF        call 0x100000820
00000AF7  8D45C0            lea eax,[ebp-0x40]
00000AFA  890424            mov [esp],eax
00000AFD  E8AC000000        call 0xbae
00000B02  FF45F4            inc dword [ebp-0xc]
00000B05  8B45D8            mov eax,[ebp-0x28]
00000B08  3945F4            cmp [ebp-0xc],eax
00000B0B  0F8EA0FEFFFF      jng near 0x1000009b1
00000B11  B800000000        mov eax,0x0
00000B16  EB29              jmp short 0xb41
00000B18  89C3              mov ebx,eax
00000B1A  EB0C              jmp short 0xb28
00000B1C  EB00              jmp short 0xb1e
00000B1E  89C3              mov ebx,eax
00000B20  EB06              jmp short 0xb28
00000B22  89C3              mov ebx,eax
00000B24  EB02              jmp short 0xb28
00000B26  89C3              mov ebx,eax
00000B28  8D45C0            lea eax,[ebp-0x40]
00000B2B  890424            mov [esp],eax
00000B2E  E87B000000        call 0xbae
00000B33  89D8              mov eax,ebx
00000B35  EB02              jmp short 0xb39
00000B37  EB00              jmp short 0xb39
00000B39  890424            mov [esp],eax
00000B3C  E80FFDFFFF        call 0x100000850
00000B41  8D65F8            lea esp,[ebp-0x8]
00000B44  59                pop ecx
00000B45  5B                pop ebx
00000B46  5D                pop ebp
00000B47  8D61FC            lea esp,[ecx-0x4]
00000B4A  C3                ret
00000B4B  55                push ebp
00000B4C  89E5              mov ebp,esp
00000B4E  83EC18            sub esp,byte +0x18
00000B51  837D0801          cmp dword [ebp+0x8],byte +0x1
00000B55  7531              jnz 0xb88
00000B57  817D0CFFFF0000    cmp dword [ebp+0xc],0xffff
00000B5E  7528              jnz 0xb88
00000B60  C7042488BA0408    mov dword [esp],0x804ba88
00000B67  E814FCFFFF        call 0x100000780
00000B6C  C74424087CBA0408  mov dword [esp+0x8],0x804ba7c
00000B74  C744240488BA0408  mov dword [esp+0x4],0x804ba88
00000B7C  C70424B0870408    mov dword [esp],0x80487b0
00000B83  E8C8FBFFFF        call 0x100000750
00000B88  C9                leave
00000B89  C3                ret
00000B8A  55                push ebp
00000B8B  89E5              mov ebp,esp
00000B8D  83EC18            sub esp,byte +0x18
00000B90  C7442404FFFF0000  mov dword [esp+0x4],0xffff
00000B98  C7042401000000    mov dword [esp],0x1
00000B9F  E8A7FFFFFF        call 0x100000b4b
00000BA4  C9                leave
00000BA5  C3                ret
00000BA6  55                push ebp
00000BA7  89E5              mov ebp,esp
00000BA9  8B450C            mov eax,[ebp+0xc]
00000BAC  5D                pop ebp
00000BAD  C3                ret
00000BAE  55                push ebp
00000BAF  89E5              mov ebp,esp
00000BB1  83EC18            sub esp,byte +0x18
00000BB4  8B4508            mov eax,[ebp+0x8]
00000BB7  890424            mov [esp],eax
00000BBA  E82B000000        call 0xbea
00000BBF  C9                leave
00000BC0  C3                ret
00000BC1  90                nop
00000BC2  55                push ebp
00000BC3  89E5              mov ebp,esp
00000BC5  83EC18            sub esp,byte +0x18
00000BC8  8B4508            mov eax,[ebp+0x8]
00000BCB  890424            mov [esp],eax
00000BCE  E823010000        call 0xcf6
00000BD3  C9                leave
00000BD4  C3                ret
00000BD5  90                nop
00000BD6  55                push ebp
00000BD7  89E5              mov ebp,esp
00000BD9  83EC18            sub esp,byte +0x18
00000BDC  8B4508            mov eax,[ebp+0x8]
00000BDF  890424            mov [esp],eax
00000BE2  E823010000        call 0xd0a
00000BE7  C9                leave
00000BE8  C3                ret
00000BE9  90                nop
00000BEA  55                push ebp
00000BEB  89E5              mov ebp,esp
00000BED  53                push ebx
00000BEE  83EC14            sub esp,byte +0x14
00000BF1  8B4508            mov eax,[ebp+0x8]
00000BF4  890424            mov [esp],eax
00000BF7  E872010000        call 0xd6e
00000BFC  89442404          mov [esp+0x4],eax
00000C00  8B4508            mov eax,[ebp+0x8]
00000C03  890424            mov [esp],eax
00000C06  E813010000        call 0xd1e
00000C0B  8B4508            mov eax,[ebp+0x8]
00000C0E  890424            mov [esp],eax
00000C11  E8C0FFFFFF        call 0x100000bd6
00000C16  EB17              jmp short 0xc2f
00000C18  89C3              mov ebx,eax
00000C1A  8B4508            mov eax,[ebp+0x8]
00000C1D  890424            mov [esp],eax
00000C20  E8B1FFFFFF        call 0x100000bd6
00000C25  89D8              mov eax,ebx
00000C27  890424            mov [esp],eax
00000C2A  E821FCFFFF        call 0x100000850
00000C2F  83C414            add esp,byte +0x14
00000C32  5B                pop ebx
00000C33  5D                pop ebp
00000C34  C3                ret
00000C35  90                nop
00000C36  55                push ebp
00000C37  89E5              mov ebp,esp
00000C39  83EC28            sub esp,byte +0x28
00000C3C  8B550C            mov edx,[ebp+0xc]
00000C3F  8D45EC            lea eax,[ebp-0x14]
00000C42  8B4D10            mov ecx,[ebp+0x10]
00000C45  894C2408          mov [esp+0x8],ecx
00000C49  89542404          mov [esp+0x4],edx
00000C4D  890424            mov [esp],eax
00000C50  E825010000        call 0xd7a
00000C55  83EC04            sub esp,byte +0x4
00000C58  8D45EC            lea eax,[ebp-0x14]
00000C5B  89442404          mov [esp+0x4],eax
00000C5F  8D45F4            lea eax,[ebp-0xc]
00000C62  890424            mov [esp],eax
00000C65  E8D8010000        call 0xe42
00000C6A  8D45EC            lea eax,[ebp-0x14]
00000C6D  83C004            add eax,byte +0x4
00000C70  89442408          mov [esp+0x8],eax
00000C74  8D45F4            lea eax,[ebp-0xc]
00000C77  89442404          mov [esp+0x4],eax
00000C7B  8B4508            mov eax,[ebp+0x8]
00000C7E  890424            mov [esp],eax
00000C81  E8CC010000        call 0xe52
00000C86  EB08              jmp short 0xc90
00000C88  890424            mov [esp],eax
00000C8B  E8C0FBFFFF        call 0x100000850
00000C90  8B4508            mov eax,[ebp+0x8]
00000C93  C9                leave
00000C94  C20400            ret 0x4
00000C97  90                nop
00000C98  55                push ebp
00000C99  89E5              mov ebp,esp
00000C9B  83EC18            sub esp,byte +0x18
00000C9E  8B4508            mov eax,[ebp+0x8]
00000CA1  8B550C            mov edx,[ebp+0xc]
00000CA4  89542404          mov [esp+0x4],edx
00000CA8  890424            mov [esp],eax
00000CAB  E8BC010000        call 0xe6c
00000CB0  C9                leave
00000CB1  C3                ret
00000CB2  55                push ebp
00000CB3  89E5              mov ebp,esp
00000CB5  83EC18            sub esp,byte +0x18
00000CB8  8B4508            mov eax,[ebp+0x8]
00000CBB  890424            mov [esp],eax
00000CBE  E811020000        call 0xed4
00000CC3  C9                leave
00000CC4  C3                ret
00000CC5  90                nop
00000CC6  55                push ebp
00000CC7  89E5              mov ebp,esp
00000CC9  83EC18            sub esp,byte +0x18
00000CCC  8B550C            mov edx,[ebp+0xc]
00000CCF  8B4508            mov eax,[ebp+0x8]
00000CD2  89542404          mov [esp+0x4],edx
00000CD6  890424            mov [esp],eax
00000CD9  E802020000        call 0xee0
00000CDE  83EC04            sub esp,byte +0x4
00000CE1  8B4508            mov eax,[ebp+0x8]
00000CE4  C9                leave
00000CE5  C20400            ret 0x4
00000CE8  55                push ebp
00000CE9  89E5              mov ebp,esp
00000CEB  8B4508            mov eax,[ebp+0x8]
00000CEE  8B00              mov eax,[eax]
00000CF0  83C010            add eax,byte +0x10
00000CF3  5D                pop ebp
00000CF4  C3                ret
00000CF5  90                nop
00000CF6  55                push ebp
00000CF7  89E5              mov ebp,esp
00000CF9  83EC18            sub esp,byte +0x18
00000CFC  8B4508            mov eax,[ebp+0x8]
00000CFF  890424            mov [esp],eax
00000D02  E8FB010000        call 0xf02
00000D07  C9                leave
00000D08  C3                ret
00000D09  90                nop
00000D0A  55                push ebp
00000D0B  89E5              mov ebp,esp
00000D0D  83EC18            sub esp,byte +0x18
00000D10  8B4508            mov eax,[ebp+0x8]
00000D13  890424            mov [esp],eax
00000D16  E837020000        call 0xf52
00000D1B  C9                leave
00000D1C  C3                ret
00000D1D  90                nop
00000D1E  55                push ebp
00000D1F  89E5              mov ebp,esp
00000D21  83EC28            sub esp,byte +0x28
00000D24  EB40              jmp short 0xd66
00000D26  8B450C            mov eax,[ebp+0xc]
00000D29  890424            mov [esp],eax
00000D2C  E826020000        call 0xf57
00000D31  89442404          mov [esp+0x4],eax
00000D35  8B4508            mov eax,[ebp+0x8]
00000D38  890424            mov [esp],eax
00000D3B  E8DEFFFFFF        call 0x100000d1e
00000D40  8B450C            mov eax,[ebp+0xc]
00000D43  890424            mov [esp],eax
00000D46  E817020000        call 0xf62
00000D4B  8945F4            mov [ebp-0xc],eax
00000D4E  8B450C            mov eax,[ebp+0xc]
00000D51  89442404          mov [esp+0x4],eax
00000D55  8B4508            mov eax,[ebp+0x8]
00000D58  890424            mov [esp],eax
00000D5B  E80E020000        call 0xf6e
00000D60  8B45F4            mov eax,[ebp-0xc]
00000D63  89450C            mov [ebp+0xc],eax
00000D66  837D0C00          cmp dword [ebp+0xc],byte +0x0
00000D6A  75BA              jnz 0xd26
00000D6C  C9                leave
00000D6D  C3                ret
00000D6E  55                push ebp
00000D6F  89E5              mov ebp,esp
00000D71  8B4508            mov eax,[ebp+0x8]
00000D74  8B4008            mov eax,[eax+0x8]
00000D77  5D                pop ebp
00000D78  C3                ret
00000D79  90                nop
00000D7A  55                push ebp
00000D7B  89E5              mov ebp,esp
00000D7D  53                push ebx
00000D7E  83EC44            sub esp,byte +0x44
00000D81  8B4510            mov eax,[ebp+0x10]
00000D84  89442404          mov [esp+0x4],eax
00000D88  8D45EA            lea eax,[ebp-0x16]
00000D8B  890424            mov [esp],eax
00000D8E  E8A7030000        call 0x113a
00000D93  8D55E0            lea edx,[ebp-0x20]
00000D96  89442408          mov [esp+0x8],eax
00000D9A  8B450C            mov eax,[ebp+0xc]
00000D9D  89442404          mov [esp+0x4],eax
00000DA1  891424            mov [esp],edx
00000DA4  E823020000        call 0xfcc
00000DA9  83EC04            sub esp,byte +0x4
00000DAC  8B45E4            mov eax,[ebp-0x1c]
00000DAF  85C0              test eax,eax
00000DB1  7449              jz 0xdfc
00000DB3  C645EB01          mov byte [ebp-0x15],0x1
00000DB7  8B4DE4            mov ecx,[ebp-0x1c]
00000DBA  8B55E0            mov edx,[ebp-0x20]
00000DBD  8D45EC            lea eax,[ebp-0x14]
00000DC0  8B5D10            mov ebx,[ebp+0x10]
00000DC3  895C2410          mov [esp+0x10],ebx
00000DC7  894C240C          mov [esp+0xc],ecx
00000DCB  89542408          mov [esp+0x8],edx
00000DCF  8B550C            mov edx,[ebp+0xc]
00000DD2  89542404          mov [esp+0x4],edx
00000DD6  890424            mov [esp],eax
00000DD9  E864030000        call 0x1142
00000DDE  83EC04            sub esp,byte +0x4
00000DE1  8D45EB            lea eax,[ebp-0x15]
00000DE4  89442408          mov [esp+0x8],eax
00000DE8  8D45EC            lea eax,[ebp-0x14]
00000DEB  89442404          mov [esp+0x4],eax
00000DEF  8B4508            mov eax,[ebp+0x8]
00000DF2  890424            mov [esp],eax
00000DF5  E824040000        call 0x121e
00000DFA  EB3B              jmp short 0xe37
00000DFC  C645F300          mov byte [ebp-0xd],0x0
00000E00  8B45E0            mov eax,[ebp-0x20]
00000E03  89442404          mov [esp+0x4],eax
00000E07  8D45F4            lea eax,[ebp-0xc]
00000E0A  890424            mov [esp],eax
00000E0D  E826040000        call 0x1238
00000E12  8D45F3            lea eax,[ebp-0xd]
00000E15  89442408          mov [esp+0x8],eax
00000E19  8D45F4            lea eax,[ebp-0xc]
00000E1C  89442404          mov [esp+0x4],eax
00000E20  8B4508            mov eax,[ebp+0x8]
00000E23  890424            mov [esp],eax
00000E26  E8F3030000        call 0x121e
00000E2B  EB0A              jmp short 0xe37
00000E2D  EB00              jmp short 0xe2f
00000E2F  890424            mov [esp],eax
00000E32  E819FAFFFF        call 0x100000850
00000E37  8B4508            mov eax,[ebp+0x8]
00000E3A  8B5DFC            mov ebx,[ebp-0x4]
00000E3D  C9                leave
00000E3E  C20400            ret 0x4
00000E41  90                nop
00000E42  55                push ebp
00000E43  89E5              mov ebp,esp
00000E45  8B450C            mov eax,[ebp+0xc]
00000E48  8B10              mov edx,[eax]
00000E4A  8B4508            mov eax,[ebp+0x8]
00000E4D  8910              mov [eax],edx
00000E4F  5D                pop ebp
00000E50  C3                ret
00000E51  90                nop
00000E52  55                push ebp
00000E53  89E5              mov ebp,esp
00000E55  8B4508            mov eax,[ebp+0x8]
00000E58  8B550C            mov edx,[ebp+0xc]
00000E5B  8B12              mov edx,[edx]
00000E5D  8910              mov [eax],edx
00000E5F  8B4510            mov eax,[ebp+0x10]
00000E62  8A10              mov dl,[eax]
00000E64  8B4508            mov eax,[ebp+0x8]
00000E67  885004            mov [eax+0x4],dl
00000E6A  5D                pop ebp
00000E6B  C3                ret
00000E6C  55                push ebp
00000E6D  89E5              mov ebp,esp
00000E6F  83EC28            sub esp,byte +0x28
00000E72  8D45EC            lea eax,[ebp-0x14]
00000E75  8B550C            mov edx,[ebp+0xc]
00000E78  89542408          mov [esp+0x8],edx
00000E7C  8B5508            mov edx,[ebp+0x8]
00000E7F  89542404          mov [esp+0x4],edx
00000E83  890424            mov [esp],eax
00000E86  E8BB030000        call 0x1246
00000E8B  83EC04            sub esp,byte +0x4
00000E8E  8B4508            mov eax,[ebp+0x8]
00000E91  890424            mov [esp],eax
00000E94  E83B000000        call 0xed4
00000E99  8945F4            mov [ebp-0xc],eax
00000E9C  8B45F0            mov eax,[ebp-0x10]
00000E9F  89442408          mov [esp+0x8],eax
00000EA3  8B45EC            mov eax,[ebp-0x14]
00000EA6  89442404          mov [esp+0x4],eax
00000EAA  8B4508            mov eax,[ebp+0x8]
00000EAD  890424            mov [esp],eax
00000EB0  E823050000        call 0x13d8
00000EB5  8B4508            mov eax,[ebp+0x8]
00000EB8  890424            mov [esp],eax
00000EBB  E814000000        call 0xed4
00000EC0  8B55F4            mov edx,[ebp-0xc]
00000EC3  29C2              sub edx,eax
00000EC5  89D0              mov eax,edx
00000EC7  EB08              jmp short 0xed1
00000EC9  890424            mov [esp],eax
00000ECC  E87FF9FFFF        call 0x100000850
00000ED1  C9                leave
00000ED2  C3                ret
00000ED3  90                nop
00000ED4  55                push ebp
00000ED5  89E5              mov ebp,esp
00000ED7  8B4508            mov eax,[ebp+0x8]
00000EDA  8B4014            mov eax,[eax+0x14]
00000EDD  5D                pop ebp
00000EDE  C3                ret
00000EDF  90                nop
00000EE0  55                push ebp
00000EE1  89E5              mov ebp,esp
00000EE3  83EC18            sub esp,byte +0x18
00000EE6  8B450C            mov eax,[ebp+0xc]
00000EE9  8B400C            mov eax,[eax+0xc]
00000EEC  89442404          mov [esp+0x4],eax
00000EF0  8B4508            mov eax,[ebp+0x8]
00000EF3  890424            mov [esp],eax
00000EF6  E82D050000        call 0x1428
00000EFB  8B4508            mov eax,[ebp+0x8]
00000EFE  C9                leave
00000EFF  C20400            ret 0x4
00000F02  55                push ebp
00000F03  89E5              mov ebp,esp
00000F05  83EC18            sub esp,byte +0x18
00000F08  8B4508            mov eax,[ebp+0x8]
00000F0B  890424            mov [esp],eax
00000F0E  E823050000        call 0x1436
00000F13  8B4508            mov eax,[ebp+0x8]
00000F16  C7400400000000    mov dword [eax+0x4],0x0
00000F1D  8B4508            mov eax,[ebp+0x8]
00000F20  C7400800000000    mov dword [eax+0x8],0x0
00000F27  8B4508            mov eax,[ebp+0x8]
00000F2A  C7400C00000000    mov dword [eax+0xc],0x0
00000F31  8B4508            mov eax,[ebp+0x8]
00000F34  C7401000000000    mov dword [eax+0x10],0x0
00000F3B  8B4508            mov eax,[ebp+0x8]
00000F3E  C7401400000000    mov dword [eax+0x14],0x0
00000F45  8B4508            mov eax,[ebp+0x8]
00000F48  890424            mov [esp],eax
00000F4B  E8FA040000        call 0x144a
00000F50  C9                leave
00000F51  C3                ret
00000F52  55                push ebp
00000F53  89E5              mov ebp,esp
00000F55  5D                pop ebp
00000F56  C3                ret
00000F57  55                push ebp
00000F58  89E5              mov ebp,esp
00000F5A  8B4508            mov eax,[ebp+0x8]
00000F5D  8B400C            mov eax,[eax+0xc]
00000F60  5D                pop ebp
00000F61  C3                ret
00000F62  55                push ebp
00000F63  89E5              mov ebp,esp
00000F65  8B4508            mov eax,[ebp+0x8]
00000F68  8B4008            mov eax,[eax+0x8]
00000F6B  5D                pop ebp
00000F6C  C3                ret
00000F6D  90                nop
00000F6E  55                push ebp
00000F6F  89E5              mov ebp,esp
00000F71  53                push ebx
00000F72  83EC24            sub esp,byte +0x24
00000F75  8B450C            mov eax,[ebp+0xc]
00000F78  83C010            add eax,byte +0x10
00000F7B  890424            mov [esp],eax
00000F7E  E834050000        call 0x14b7
00000F83  89C3              mov ebx,eax
00000F85  8D45F7            lea eax,[ebp-0x9]
00000F88  8B5508            mov edx,[ebp+0x8]
00000F8B  89542404          mov [esp+0x4],edx
00000F8F  890424            mov [esp],eax
00000F92  E8E5040000        call 0x147c
00000F97  83EC04            sub esp,byte +0x4
00000F9A  895C2404          mov [esp+0x4],ebx
00000F9E  8D45F7            lea eax,[ebp-0x9]
00000FA1  890424            mov [esp],eax
00000FA4  E817050000        call 0x14c0
00000FA9  8D45F7            lea eax,[ebp-0x9]
00000FAC  890424            mov [esp],eax
00000FAF  E8F0040000        call 0x14a4
00000FB4  8B450C            mov eax,[ebp+0xc]
00000FB7  89442404          mov [esp+0x4],eax
00000FBB  8B4508            mov eax,[ebp+0x8]
00000FBE  890424            mov [esp],eax
00000FC1  E800050000        call 0x14c6
00000FC6  8B5DFC            mov ebx,[ebp-0x4]
00000FC9  C9                leave
00000FCA  C3                ret
00000FCB  90                nop
00000FCC  55                push ebp
00000FCD  89E5              mov ebp,esp
00000FCF  83EC48            sub esp,byte +0x48
00000FD2  8B450C            mov eax,[ebp+0xc]
00000FD5  890424            mov [esp],eax
00000FD8  E891FDFFFF        call 0x100000d6e
00000FDD  8945F4            mov [ebp-0xc],eax
00000FE0  8B450C            mov eax,[ebp+0xc]
00000FE3  890424            mov [esp],eax
00000FE6  E8FD040000        call 0x14e8
00000FEB  8945F0            mov [ebp-0x10],eax
00000FEE  C645EF01          mov byte [ebp-0x11],0x1
00000FF2  EB4B              jmp short 0x103f
00000FF4  8B45F4            mov eax,[ebp-0xc]
00000FF7  8945F0            mov [ebp-0x10],eax
00000FFA  8B45F4            mov eax,[ebp-0xc]
00000FFD  890424            mov [esp],eax
00001000  E8EE040000        call 0x14f3
00001005  8B550C            mov edx,[ebp+0xc]
00001008  89442408          mov [esp+0x8],eax
0000100C  8B4510            mov eax,[ebp+0x10]
0000100F  89442404          mov [esp+0x4],eax
00001013  891424            mov [esp],edx
00001016  E8FB040000        call 0x1516
0000101B  8845EF            mov [ebp-0x11],al
0000101E  807DEF00          cmp byte [ebp-0x11],0x0
00001022  740D              jz 0x1031
00001024  8B45F4            mov eax,[ebp-0xc]
00001027  890424            mov [esp],eax
0000102A  E833FFFFFF        call 0x100000f62
0000102F  EB0B              jmp short 0x103c
00001031  8B45F4            mov eax,[ebp-0xc]
00001034  890424            mov [esp],eax
00001037  E81BFFFFFF        call 0x100000f57
0000103C  8945F4            mov [ebp-0xc],eax
0000103F  837DF400          cmp dword [ebp-0xc],byte +0x0
00001043  75AF              jnz 0xff4
00001045  8B45F0            mov eax,[ebp-0x10]
00001048  89442404          mov [esp+0x4],eax
0000104C  8D45D0            lea eax,[ebp-0x30]
0000104F  890424            mov [esp],eax
00001052  E8E1010000        call 0x1238
00001057  807DEF00          cmp byte [ebp-0x11],0x0
0000105B  7460              jz 0x10bd
0000105D  8D45D4            lea eax,[ebp-0x2c]
00001060  8B550C            mov edx,[ebp+0xc]
00001063  89542404          mov [esp+0x4],edx
00001067  890424            mov [esp],eax
0000106A  E8BB040000        call 0x152a
0000106F  83EC04            sub esp,byte +0x4
00001072  8D45D4            lea eax,[ebp-0x2c]
00001075  89442404          mov [esp+0x4],eax
00001079  8D45D0            lea eax,[ebp-0x30]
0000107C  890424            mov [esp],eax
0000107F  E8C8040000        call 0x154c
00001084  84C0              test al,al
00001086  742A              jz 0x10b2
00001088  8B45F0            mov eax,[ebp-0x10]
0000108B  8945D8            mov [ebp-0x28],eax
0000108E  8B45F4            mov eax,[ebp-0xc]
00001091  8945DC            mov [ebp-0x24],eax
00001094  8D45D8            lea eax,[ebp-0x28]
00001097  89442408          mov [esp+0x8],eax
0000109B  8D45DC            lea eax,[ebp-0x24]
0000109E  89442404          mov [esp+0x4],eax
000010A2  8B4508            mov eax,[ebp+0x8]
000010A5  890424            mov [esp],eax
000010A8  E8B3040000        call 0x1560
000010AD  E981000000        jmp 0x1133
000010B2  8D45D0            lea eax,[ebp-0x30]
000010B5  890424            mov [esp],eax
000010B8  E8BD040000        call 0x157a
000010BD  8B45D0            mov eax,[ebp-0x30]
000010C0  890424            mov [esp],eax
000010C3  E8CF040000        call 0x1597
000010C8  8B550C            mov edx,[ebp+0xc]
000010CB  8B4D10            mov ecx,[ebp+0x10]
000010CE  894C2408          mov [esp+0x8],ecx
000010D2  89442404          mov [esp+0x4],eax
000010D6  891424            mov [esp],edx
000010D9  E838040000        call 0x1516
000010DE  84C0              test al,al
000010E0  7427              jz 0x1109
000010E2  8B45F0            mov eax,[ebp-0x10]
000010E5  8945E0            mov [ebp-0x20],eax
000010E8  8B45F4            mov eax,[ebp-0xc]
000010EB  8945E4            mov [ebp-0x1c],eax
000010EE  8D45E0            lea eax,[ebp-0x20]
000010F1  89442408          mov [esp+0x8],eax
000010F5  8D45E4            lea eax,[ebp-0x1c]
000010F8  89442404          mov [esp+0x4],eax
000010FC  8B4508            mov eax,[ebp+0x8]
000010FF  890424            mov [esp],eax
00001102  E859040000        call 0x1560
00001107  EB2A              jmp short 0x1133
00001109  C745E800000000    mov dword [ebp-0x18],0x0
00001110  8D45E8            lea eax,[ebp-0x18]
00001113  89442408          mov [esp+0x8],eax
00001117  8D45D0            lea eax,[ebp-0x30]
0000111A  89442404          mov [esp+0x4],eax
0000111E  8B4508            mov eax,[ebp+0x8]
00001121  890424            mov [esp],eax
00001124  E837040000        call 0x1560
00001129  EB08              jmp short 0x1133
0000112B  890424            mov [esp],eax
0000112E  E81DF7FFFF        call 0x100000850
00001133  8B4508            mov eax,[ebp+0x8]
00001136  C9                leave
00001137  C20400            ret 0x4
0000113A  55                push ebp
0000113B  89E5              mov ebp,esp
0000113D  8B450C            mov eax,[ebp+0xc]
00001140  5D                pop ebp
00001141  C3                ret
00001142  55                push ebp
00001143  89E5              mov ebp,esp
00001145  56                push esi
00001146  53                push ebx
00001147  83EC20            sub esp,byte +0x20
0000114A  B300              mov bl,0x0
0000114C  837D1000          cmp dword [ebp+0x10],byte +0x0
00001150  7548              jnz 0x119a
00001152  8B450C            mov eax,[ebp+0xc]
00001155  890424            mov [esp],eax
00001158  E88B030000        call 0x14e8
0000115D  3B4514            cmp eax,[ebp+0x14]
00001160  7438              jz 0x119a
00001162  8B4514            mov eax,[ebp+0x14]
00001165  890424            mov [esp],eax
00001168  E82A040000        call 0x1597
0000116D  89C6              mov esi,eax
0000116F  B301              mov bl,0x1
00001171  8B4518            mov eax,[ebp+0x18]
00001174  89442404          mov [esp+0x4],eax
00001178  8D45EF            lea eax,[ebp-0x11]
0000117B  890424            mov [esp],eax
0000117E  E8B7FFFFFF        call 0x10000113a
00001183  8B550C            mov edx,[ebp+0xc]
00001186  89742408          mov [esp+0x8],esi
0000118A  89442404          mov [esp+0x4],eax
0000118E  891424            mov [esp],edx
00001191  E880030000        call 0x1516
00001196  84C0              test al,al
00001198  7404              jz 0x119e
0000119A  B001              mov al,0x1
0000119C  EB02              jmp short 0x11a0
0000119E  B000              mov al,0x0
000011A0  8845F7            mov [ebp-0x9],al
000011A3  84DB              test bl,bl
000011A5  90                nop
000011A6  8B4518            mov eax,[ebp+0x18]
000011A9  89442404          mov [esp+0x4],eax
000011AD  8B450C            mov eax,[ebp+0xc]
000011B0  890424            mov [esp],eax
000011B3  E802040000        call 0x15ba
000011B8  8945F0            mov [ebp-0x10],eax
000011BB  8B450C            mov eax,[ebp+0xc]
000011BE  8D5004            lea edx,[eax+0x4]
000011C1  8A45F7            mov al,[ebp-0x9]
000011C4  25FF000000        and eax,0xff
000011C9  8954240C          mov [esp+0xc],edx
000011CD  8B5514            mov edx,[ebp+0x14]
000011D0  89542408          mov [esp+0x8],edx
000011D4  8B55F0            mov edx,[ebp-0x10]
000011D7  89542404          mov [esp+0x4],edx
000011DB  890424            mov [esp],eax
000011DE  E81DF6FFFF        call 0x100000800
000011E3  8B450C            mov eax,[ebp+0xc]
000011E6  8B4014            mov eax,[eax+0x14]
000011E9  8D5001            lea edx,[eax+0x1]
000011EC  8B450C            mov eax,[ebp+0xc]
000011EF  895014            mov [eax+0x14],edx
000011F2  8B45F0            mov eax,[ebp-0x10]
000011F5  89442404          mov [esp+0x4],eax
000011F9  8B4508            mov eax,[ebp+0x8]
000011FC  890424            mov [esp],eax
000011FF  E834000000        call 0x1238
00001204  EB0B              jmp short 0x1211
00001206  84DB              test bl,bl
00001208  90                nop
00001209  890424            mov [esp],eax
0000120C  E83FF6FFFF        call 0x100000850
00001211  8B4508            mov eax,[ebp+0x8]
00001214  83C420            add esp,byte +0x20
00001217  5B                pop ebx
00001218  5E                pop esi
00001219  5D                pop ebp
0000121A  C20400            ret 0x4
0000121D  90                nop
0000121E  55                push ebp
0000121F  89E5              mov ebp,esp
00001221  8B4508            mov eax,[ebp+0x8]
00001224  8B550C            mov edx,[ebp+0xc]
00001227  8B12              mov edx,[edx]
00001229  8910              mov [eax],edx
0000122B  8B4510            mov eax,[ebp+0x10]
0000122E  8A10              mov dl,[eax]
00001230  8B4508            mov eax,[ebp+0x8]
00001233  885004            mov [eax+0x4],dl
00001236  5D                pop ebp
00001237  C3                ret
00001238  55                push ebp
00001239  89E5              mov ebp,esp
0000123B  8B4508            mov eax,[ebp+0x8]
0000123E  8B550C            mov edx,[ebp+0xc]
00001241  8910              mov [eax],edx
00001243  5D                pop ebp
00001244  C3                ret
00001245  90                nop
00001246  55                push ebp
00001247  89E5              mov ebp,esp
00001249  83EC48            sub esp,byte +0x48
0000124C  8B450C            mov eax,[ebp+0xc]
0000124F  890424            mov [esp],eax
00001252  E817FBFFFF        call 0x100000d6e
00001257  8945F4            mov [ebp-0xc],eax
0000125A  8B450C            mov eax,[ebp+0xc]
0000125D  890424            mov [esp],eax
00001260  E883020000        call 0x14e8
00001265  8945F0            mov [ebp-0x10],eax
00001268  E913010000        jmp 0x1380
0000126D  8B45F4            mov eax,[ebp-0xc]
00001270  890424            mov [esp],eax
00001273  E87B020000        call 0x14f3
00001278  8B550C            mov edx,[ebp+0xc]
0000127B  8B4D10            mov ecx,[ebp+0x10]
0000127E  894C2408          mov [esp+0x8],ecx
00001282  89442404          mov [esp+0x4],eax
00001286  891424            mov [esp],edx
00001289  E888020000        call 0x1516
0000128E  84C0              test al,al
00001290  7413              jz 0x12a5
00001292  8B45F4            mov eax,[ebp-0xc]
00001295  890424            mov [esp],eax
00001298  E8BAFCFFFF        call 0x100000f57
0000129D  8945F4            mov [ebp-0xc],eax
000012A0  E9DB000000        jmp 0x1380
000012A5  8B45F4            mov eax,[ebp-0xc]
000012A8  890424            mov [esp],eax
000012AB  E843020000        call 0x14f3
000012B0  8B550C            mov edx,[ebp+0xc]
000012B3  89442408          mov [esp+0x8],eax
000012B7  8B4510            mov eax,[ebp+0x10]
000012BA  89442404          mov [esp+0x4],eax
000012BE  891424            mov [esp],edx
000012C1  E850020000        call 0x1516
000012C6  84C0              test al,al
000012C8  7419              jz 0x12e3
000012CA  8B45F4            mov eax,[ebp-0xc]
000012CD  8945F0            mov [ebp-0x10],eax
000012D0  8B45F4            mov eax,[ebp-0xc]
000012D3  890424            mov [esp],eax
000012D6  E887FCFFFF        call 0x100000f62
000012DB  8945F4            mov [ebp-0xc],eax
000012DE  E99D000000        jmp 0x1380
000012E3  8B45F4            mov eax,[ebp-0xc]
000012E6  8945EC            mov [ebp-0x14],eax
000012E9  8B45F0            mov eax,[ebp-0x10]
000012EC  8945E8            mov [ebp-0x18],eax
000012EF  8B45F4            mov eax,[ebp-0xc]
000012F2  8945F0            mov [ebp-0x10],eax
000012F5  8B45F4            mov eax,[ebp-0xc]
000012F8  890424            mov [esp],eax
000012FB  E862FCFFFF        call 0x100000f62
00001300  8945F4            mov [ebp-0xc],eax
00001303  8B45EC            mov eax,[ebp-0x14]
00001306  890424            mov [esp],eax
00001309  E849FCFFFF        call 0x100000f57
0000130E  8945EC            mov [ebp-0x14],eax
00001311  8D45D8            lea eax,[ebp-0x28]
00001314  8B5510            mov edx,[ebp+0x10]
00001317  89542410          mov [esp+0x10],edx
0000131B  8B55E8            mov edx,[ebp-0x18]
0000131E  8954240C          mov [esp+0xc],edx
00001322  8B55EC            mov edx,[ebp-0x14]
00001325  89542408          mov [esp+0x8],edx
00001329  8B550C            mov edx,[ebp+0xc]
0000132C  89542404          mov [esp+0x4],edx
00001330  890424            mov [esp],eax
00001333  E85A030000        call 0x1692
00001338  83EC04            sub esp,byte +0x4
0000133B  8D45DC            lea eax,[ebp-0x24]
0000133E  8B5510            mov edx,[ebp+0x10]
00001341  89542410          mov [esp+0x10],edx
00001345  8B55F0            mov edx,[ebp-0x10]
00001348  8954240C          mov [esp+0xc],edx
0000134C  8B55F4            mov edx,[ebp-0xc]
0000134F  89542408          mov [esp+0x8],edx
00001353  8B550C            mov edx,[ebp+0xc]
00001356  89542404          mov [esp+0x4],edx
0000135A  890424            mov [esp],eax
0000135D  E8BC020000        call 0x161e
00001362  83EC04            sub esp,byte +0x4
00001365  8D45D8            lea eax,[ebp-0x28]
00001368  89442408          mov [esp+0x8],eax
0000136C  8D45DC            lea eax,[ebp-0x24]
0000136F  89442404          mov [esp+0x4],eax
00001373  8B4508            mov eax,[ebp+0x8]
00001376  890424            mov [esp],eax
00001379  E884030000        call 0x1702
0000137E  EB51              jmp short 0x13d1
00001380  837DF400          cmp dword [ebp-0xc],byte +0x0
00001384  0F85E3FEFFFF      jnz near 0x10000126d
0000138A  8B45F0            mov eax,[ebp-0x10]
0000138D  89442404          mov [esp+0x4],eax
00001391  8D45E0            lea eax,[ebp-0x20]
00001394  890424            mov [esp],eax
00001397  E89CFEFFFF        call 0x100001238
0000139C  8B45F0            mov eax,[ebp-0x10]
0000139F  89442404          mov [esp+0x4],eax
000013A3  8D45E4            lea eax,[ebp-0x1c]
000013A6  890424            mov [esp],eax
000013A9  E88AFEFFFF        call 0x100001238
000013AE  8D45E0            lea eax,[ebp-0x20]
000013B1  89442408          mov [esp+0x8],eax
000013B5  8D45E4            lea eax,[ebp-0x1c]
000013B8  89442404          mov [esp+0x4],eax
000013BC  8B4508            mov eax,[ebp+0x8]
000013BF  890424            mov [esp],eax
000013C2  E83B030000        call 0x1702
000013C7  EB08              jmp short 0x13d1
000013C9  890424            mov [esp],eax
000013CC  E87FF4FFFF        call 0x100000850
000013D1  8B4508            mov eax,[ebp+0x8]
000013D4  C9                leave
000013D5  C20400            ret 0x4
000013D8  55                push ebp
000013D9  89E5              mov ebp,esp
000013DB  83EC28            sub esp,byte +0x28
000013DE  8D4510            lea eax,[ebp+0x10]
000013E1  89442404          mov [esp+0x4],eax
000013E5  8D45F0            lea eax,[ebp-0x10]
000013E8  890424            mov [esp],eax
000013EB  E852FAFFFF        call 0x100000e42
000013F0  8D450C            lea eax,[ebp+0xc]
000013F3  89442404          mov [esp+0x4],eax
000013F7  8D45F4            lea eax,[ebp-0xc]
000013FA  890424            mov [esp],eax
000013FD  E840FAFFFF        call 0x100000e42
00001402  8B45F0            mov eax,[ebp-0x10]
00001405  89442408          mov [esp+0x8],eax
00001409  8B45F4            mov eax,[ebp-0xc]
0000140C  89442404          mov [esp+0x4],eax
00001410  8B4508            mov eax,[ebp+0x8]
00001413  890424            mov [esp],eax
00001416  E801030000        call 0x171c
0000141B  EB08              jmp short 0x1425
0000141D  890424            mov [esp],eax
00001420  E82BF4FFFF        call 0x100000850
00001425  C9                leave
00001426  C3                ret
00001427  90                nop
00001428  55                push ebp
00001429  89E5              mov ebp,esp
0000142B  8B4508            mov eax,[ebp+0x8]
0000142E  8B550C            mov edx,[ebp+0xc]
00001431  8910              mov [eax],edx
00001433  5D                pop ebp
00001434  C3                ret
00001435  90                nop
00001436  55                push ebp
00001437  89E5              mov ebp,esp
00001439  83EC18            sub esp,byte +0x18
0000143C  8B4508            mov eax,[ebp+0x8]
0000143F  890424            mov [esp],eax
00001442  E8E3030000        call 0x182a
00001447  C9                leave
00001448  C3                ret
00001449  90                nop
0000144A  55                push ebp
0000144B  89E5              mov ebp,esp
0000144D  8B4508            mov eax,[ebp+0x8]
00001450  C7400400000000    mov dword [eax+0x4],0x0
00001457  8B4508            mov eax,[ebp+0x8]
0000145A  C7400800000000    mov dword [eax+0x8],0x0
00001461  8B4508            mov eax,[ebp+0x8]
00001464  8D5004            lea edx,[eax+0x4]
00001467  8B4508            mov eax,[ebp+0x8]
0000146A  89500C            mov [eax+0xc],edx
0000146D  8B4508            mov eax,[ebp+0x8]
00001470  8D5004            lea edx,[eax+0x4]
00001473  8B4508            mov eax,[ebp+0x8]
00001476  895010            mov [eax+0x10],edx
00001479  5D                pop ebp
0000147A  C3                ret
0000147B  90                nop
0000147C  55                push ebp
0000147D  89E5              mov ebp,esp
0000147F  83EC18            sub esp,byte +0x18
00001482  8B450C            mov eax,[ebp+0xc]
00001485  890424            mov [esp],eax
00001488  E8A3030000        call 0x1830
0000148D  89442404          mov [esp+0x4],eax
00001491  8B4508            mov eax,[ebp+0x8]
00001494  890424            mov [esp],eax
00001497  E89C030000        call 0x1838
0000149C  8B4508            mov eax,[ebp+0x8]
0000149F  C9                leave
000014A0  C20400            ret 0x4
000014A3  90                nop
000014A4  55                push ebp
000014A5  89E5              mov ebp,esp
000014A7  83EC18            sub esp,byte +0x18
000014AA  8B4508            mov eax,[ebp+0x8]
000014AD  890424            mov [esp],eax
000014B0  E897030000        call 0x184c
000014B5  C9                leave
000014B6  C3                ret
000014B7  55                push ebp
000014B8  89E5              mov ebp,esp
000014BA  8B4508            mov eax,[ebp+0x8]
000014BD  5D                pop ebp
000014BE  C3                ret
000014BF  90                nop
000014C0  55                push ebp
000014C1  89E5              mov ebp,esp
000014C3  5D                pop ebp
000014C4  C3                ret
000014C5  90                nop
000014C6  55                push ebp
000014C7  89E5              mov ebp,esp
000014C9  83EC18            sub esp,byte +0x18
000014CC  8B4508            mov eax,[ebp+0x8]
000014CF  C744240801000000  mov dword [esp+0x8],0x1
000014D7  8B550C            mov edx,[ebp+0xc]
000014DA  89542404          mov [esp+0x4],edx
000014DE  890424            mov [esp],eax
000014E1  E86C030000        call 0x1852
000014E6  C9                leave
000014E7  C3                ret
000014E8  55                push ebp
000014E9  89E5              mov ebp,esp
000014EB  8B4508            mov eax,[ebp+0x8]
000014EE  83C004            add eax,byte +0x4
000014F1  5D                pop ebp
000014F2  C3                ret
000014F3  55                push ebp
000014F4  89E5              mov ebp,esp
000014F6  83EC28            sub esp,byte +0x28
000014F9  8B4508            mov eax,[ebp+0x8]
000014FC  890424            mov [esp],eax
000014FF  E861030000        call 0x1865
00001504  89442404          mov [esp+0x4],eax
00001508  8D45F7            lea eax,[ebp-0x9]
0000150B  890424            mov [esp],eax
0000150E  E827FCFFFF        call 0x10000113a
00001513  C9                leave
00001514  C3                ret
00001515  90                nop
00001516  55                push ebp
00001517  89E5              mov ebp,esp
00001519  8B450C            mov eax,[ebp+0xc]
0000151C  8B10              mov edx,[eax]
0000151E  8B4510            mov eax,[ebp+0x10]
00001521  8B00              mov eax,[eax]
00001523  39C2              cmp edx,eax
00001525  0F9CC0            setl al
00001528  5D                pop ebp
00001529  C3                ret
0000152A  55                push ebp
0000152B  89E5              mov ebp,esp
0000152D  83EC18            sub esp,byte +0x18
00001530  8B450C            mov eax,[ebp+0xc]
00001533  8B400C            mov eax,[eax+0xc]
00001536  89442404          mov [esp+0x4],eax
0000153A  8B4508            mov eax,[ebp+0x8]
0000153D  890424            mov [esp],eax
00001540  E8F3FCFFFF        call 0x100001238
00001545  8B4508            mov eax,[ebp+0x8]
00001548  C9                leave
00001549  C20400            ret 0x4
0000154C  55                push ebp
0000154D  89E5              mov ebp,esp
0000154F  8B4508            mov eax,[ebp+0x8]
00001552  8B10              mov edx,[eax]
00001554  8B450C            mov eax,[ebp+0xc]
00001557  8B00              mov eax,[eax]
00001559  39C2              cmp edx,eax
0000155B  0F94C0            setz al
0000155E  5D                pop ebp
0000155F  C3                ret
00001560  55                push ebp
00001561  89E5              mov ebp,esp
00001563  8B450C            mov eax,[ebp+0xc]
00001566  8B10              mov edx,[eax]
00001568  8B4508            mov eax,[ebp+0x8]
0000156B  8910              mov [eax],edx
0000156D  8B4510            mov eax,[ebp+0x10]
00001570  8B10              mov edx,[eax]
00001572  8B4508            mov eax,[ebp+0x8]
00001575  895004            mov [eax+0x4],edx
00001578  5D                pop ebp
00001579  C3                ret
0000157A  55                push ebp
0000157B  89E5              mov ebp,esp
0000157D  83EC18            sub esp,byte +0x18
00001580  8B4508            mov eax,[ebp+0x8]
00001583  8B00              mov eax,[eax]
00001585  890424            mov [esp],eax
00001588  E803F2FFFF        call 0x100000790
0000158D  8B5508            mov edx,[ebp+0x8]
00001590  8902              mov [edx],eax
00001592  8B4508            mov eax,[ebp+0x8]
00001595  C9                leave
00001596  C3                ret
00001597  55                push ebp
00001598  89E5              mov ebp,esp
0000159A  83EC28            sub esp,byte +0x28
0000159D  8B4508            mov eax,[ebp+0x8]
000015A0  890424            mov [esp],eax
000015A3  E8C8020000        call 0x1870
000015A8  89442404          mov [esp+0x4],eax
000015AC  8D45F7            lea eax,[ebp-0x9]
000015AF  890424            mov [esp],eax
000015B2  E883FBFFFF        call 0x10000113a
000015B7  C9                leave
000015B8  C3                ret
000015B9  90                nop
000015BA  55                push ebp
000015BB  89E5              mov ebp,esp
000015BD  53                push ebx
000015BE  83EC24            sub esp,byte +0x24
000015C1  8B4508            mov eax,[ebp+0x8]
000015C4  890424            mov [esp],eax
000015C7  E8B0020000        call 0x187c
000015CC  8945F4            mov [ebp-0xc],eax
000015CF  8B45F4            mov eax,[ebp-0xc]
000015D2  83C010            add eax,byte +0x10
000015D5  890424            mov [esp],eax
000015D8  E8DAFEFFFF        call 0x1000014b7
000015DD  89C3              mov ebx,eax
000015DF  8D45F3            lea eax,[ebp-0xd]
000015E2  8B5508            mov edx,[ebp+0x8]
000015E5  89542404          mov [esp+0x4],edx
000015E9  890424            mov [esp],eax
000015EC  E88BFEFFFF        call 0x10000147c
000015F1  83EC04            sub esp,byte +0x4
000015F4  8B450C            mov eax,[ebp+0xc]
000015F7  89442408          mov [esp+0x8],eax
000015FB  895C2404          mov [esp+0x4],ebx
000015FF  8D45F3            lea eax,[ebp-0xd]
00001602  890424            mov [esp],eax
00001605  E896020000        call 0x18a0
0000160A  8D45F3            lea eax,[ebp-0xd]
0000160D  890424            mov [esp],eax
00001610  E88FFEFFFF        call 0x1000014a4
00001615  8B45F4            mov eax,[ebp-0xc]
00001618  8B5DFC            mov ebx,[ebp-0x4]
0000161B  C9                leave
0000161C  C3                ret
0000161D  90                nop
0000161E  55                push ebp
0000161F  89E5              mov ebp,esp
00001621  83EC18            sub esp,byte +0x18
00001624  EB4C              jmp short 0x1672
00001626  8B4510            mov eax,[ebp+0x10]
00001629  890424            mov [esp],eax
0000162C  E8C2FEFFFF        call 0x1000014f3
00001631  8B550C            mov edx,[ebp+0xc]
00001634  8B4D18            mov ecx,[ebp+0x18]
00001637  894C2408          mov [esp+0x8],ecx
0000163B  89442404          mov [esp+0x4],eax
0000163F  891424            mov [esp],edx
00001642  E8CFFEFFFF        call 0x100001516
00001647  83F001            xor eax,byte +0x1
0000164A  84C0              test al,al
0000164C  7416              jz 0x1664
0000164E  8B4510            mov eax,[ebp+0x10]
00001651  894514            mov [ebp+0x14],eax
00001654  8B4510            mov eax,[ebp+0x10]
00001657  890424            mov [esp],eax
0000165A  E803F9FFFF        call 0x100000f62
0000165F  894510            mov [ebp+0x10],eax
00001662  EB0E              jmp short 0x1672
00001664  8B4510            mov eax,[ebp+0x10]
00001667  890424            mov [esp],eax
0000166A  E8E8F8FFFF        call 0x100000f57
0000166F  894510            mov [ebp+0x10],eax
00001672  837D1000          cmp dword [ebp+0x10],byte +0x0
00001676  75AE              jnz 0x1626
00001678  8B4514            mov eax,[ebp+0x14]
0000167B  89442404          mov [esp+0x4],eax
0000167F  8B4508            mov eax,[ebp+0x8]
00001682  890424            mov [esp],eax
00001685  E8AEFBFFFF        call 0x100001238
0000168A  8B4508            mov eax,[ebp+0x8]
0000168D  C9                leave
0000168E  C20400            ret 0x4
00001691  90                nop
00001692  55                push ebp
00001693  89E5              mov ebp,esp
00001695  83EC18            sub esp,byte +0x18
00001698  EB49              jmp short 0x16e3
0000169A  8B4510            mov eax,[ebp+0x10]
0000169D  890424            mov [esp],eax
000016A0  E84EFEFFFF        call 0x1000014f3
000016A5  8B550C            mov edx,[ebp+0xc]
000016A8  89442408          mov [esp+0x8],eax
000016AC  8B4518            mov eax,[ebp+0x18]
000016AF  89442404          mov [esp+0x4],eax
000016B3  891424            mov [esp],edx
000016B6  E85BFEFFFF        call 0x100001516
000016BB  84C0              test al,al
000016BD  7416              jz 0x16d5
000016BF  8B4510            mov eax,[ebp+0x10]
000016C2  894514            mov [ebp+0x14],eax
000016C5  8B4510            mov eax,[ebp+0x10]
000016C8  890424            mov [esp],eax
000016CB  E892F8FFFF        call 0x100000f62
000016D0  894510            mov [ebp+0x10],eax
000016D3  EB0E              jmp short 0x16e3
000016D5  8B4510            mov eax,[ebp+0x10]
000016D8  890424            mov [esp],eax
000016DB  E877F8FFFF        call 0x100000f57
000016E0  894510            mov [ebp+0x10],eax
000016E3  837D1000          cmp dword [ebp+0x10],byte +0x0
000016E7  75B1              jnz 0x169a
000016E9  8B4514            mov eax,[ebp+0x14]
000016EC  89442404          mov [esp+0x4],eax
000016F0  8B4508            mov eax,[ebp+0x8]
000016F3  890424            mov [esp],eax
000016F6  E83DFBFFFF        call 0x100001238
000016FB  8B4508            mov eax,[ebp+0x8]
000016FE  C9                leave
000016FF  C20400            ret 0x4
00001702  55                push ebp
00001703  89E5              mov ebp,esp
00001705  8B4508            mov eax,[ebp+0x8]
00001708  8B550C            mov edx,[ebp+0xc]
0000170B  8B12              mov edx,[edx]
0000170D  8910              mov [eax],edx
0000170F  8B4508            mov eax,[ebp+0x8]
00001712  8B5510            mov edx,[ebp+0x10]
00001715  8B12              mov edx,[edx]
00001717  895004            mov [eax+0x4],edx
0000171A  5D                pop ebp
0000171B  C3                ret
0000171C  55                push ebp
0000171D  89E5              mov ebp,esp
0000171F  57                push edi
00001720  56                push esi
00001721  53                push ebx
00001722  83EC3C            sub esp,byte +0x3c
00001725  B300              mov bl,0x0
00001727  BE00000000        mov esi,0x0
0000172C  8D45D8            lea eax,[ebp-0x28]
0000172F  8B5508            mov edx,[ebp+0x8]
00001732  89542404          mov [esp+0x4],edx
00001736  890424            mov [esp],eax
00001739  E8ECFDFFFF        call 0x10000152a
0000173E  83EC04            sub esp,byte +0x4
00001741  BF01000000        mov edi,0x1
00001746  8D45D8            lea eax,[ebp-0x28]
00001749  89442404          mov [esp+0x4],eax
0000174D  8D45D4            lea eax,[ebp-0x2c]
00001750  890424            mov [esp],eax
00001753  E8EAF6FFFF        call 0x100000e42
00001758  C645C701          mov byte [ebp-0x39],0x1
0000175C  8D45D4            lea eax,[ebp-0x2c]
0000175F  89442404          mov [esp+0x4],eax
00001763  8D450C            lea eax,[ebp+0xc]
00001766  890424            mov [esp],eax
00001769  E87A010000        call 0x18e8
0000176E  84C0              test al,al
00001770  7448              jz 0x17ba
00001772  8D45E0            lea eax,[ebp-0x20]
00001775  8B5508            mov edx,[ebp+0x8]
00001778  89542404          mov [esp+0x4],edx
0000177C  890424            mov [esp],eax
0000177F  E842010000        call 0x18c6
00001784  83EC04            sub esp,byte +0x4
00001787  B301              mov bl,0x1
00001789  8D45E0            lea eax,[ebp-0x20]
0000178C  89442404          mov [esp+0x4],eax
00001790  8D45DC            lea eax,[ebp-0x24]
00001793  890424            mov [esp],eax
00001796  E8A7F6FFFF        call 0x100000e42
0000179B  BE01000000        mov esi,0x1
000017A0  8D45DC            lea eax,[ebp-0x24]
000017A3  89442404          mov [esp+0x4],eax
000017A7  8D4510            lea eax,[ebp+0x10]
000017AA  890424            mov [esp],eax
000017AD  E836010000        call 0x18e8
000017B2  84C0              test al,al
000017B4  7404              jz 0x17ba
000017B6  B001              mov al,0x1
000017B8  EB02              jmp short 0x17bc
000017BA  B000              mov al,0x0
000017BC  89F1              mov ecx,esi
000017BE  84C9              test cl,cl
000017C0  84DB              test bl,bl
000017C2  807DC700          cmp byte [ebp-0x39],0x0
000017C6  89F9              mov ecx,edi
000017C8  84C9              test cl,cl
000017CA  84C0              test al,al
000017CC  740D              jz 0x17db
000017CE  8B4508            mov eax,[ebp+0x8]
000017D1  890424            mov [esp],eax
000017D4  E823010000        call 0x18fc
000017D9  EB47              jmp short 0x1822
000017DB  EB2F              jmp short 0x180c
000017DD  8D45E4            lea eax,[ebp-0x1c]
000017E0  C744240800000000  mov dword [esp+0x8],0x0
000017E8  8D550C            lea edx,[ebp+0xc]
000017EB  89542404          mov [esp+0x4],edx
000017EF  890424            mov [esp],eax
000017F2  E88F010000        call 0x1986
000017F7  83EC04            sub esp,byte +0x4
000017FA  8B45E4            mov eax,[ebp-0x1c]
000017FD  89442404          mov [esp+0x4],eax
00001801  8B4508            mov eax,[ebp+0x8]
00001804  890424            mov [esp],eax
00001807  E8A4010000        call 0x19b0
0000180C  8D4510            lea eax,[ebp+0x10]
0000180F  89442404          mov [esp+0x4],eax
00001813  8D450C            lea eax,[ebp+0xc]
00001816  890424            mov [esp],eax
00001819  E854010000        call 0x1972
0000181E  84C0              test al,al
00001820  75BB              jnz 0x17dd
00001822  8D65F4            lea esp,[ebp-0xc]
00001825  5B                pop ebx
00001826  5E                pop esi
00001827  5F                pop edi
00001828  5D                pop ebp
00001829  C3                ret
0000182A  55                push ebp
0000182B  89E5              mov ebp,esp
0000182D  5D                pop ebp
0000182E  C3                ret
0000182F  90                nop
00001830  55                push ebp
00001831  89E5              mov ebp,esp
00001833  8B4508            mov eax,[ebp+0x8]
00001836  5D                pop ebp
00001837  C3                ret
00001838  55                push ebp
00001839  89E5              mov ebp,esp
0000183B  83EC18            sub esp,byte +0x18
0000183E  8B4508            mov eax,[ebp+0x8]
00001841  890424            mov [esp],eax
00001844  E881010000        call 0x19ca
00001849  C9                leave
0000184A  C3                ret
0000184B  90                nop
0000184C  55                push ebp
0000184D  89E5              mov ebp,esp
0000184F  5D                pop ebp
00001850  C3                ret
00001851  90                nop
00001852  55                push ebp
00001853  89E5              mov ebp,esp
00001855  83EC18            sub esp,byte +0x18
00001858  8B450C            mov eax,[ebp+0xc]
0000185B  890424            mov [esp],eax
0000185E  E80DEFFFFF        call 0x100000770
00001863  C9                leave
00001864  C3                ret
00001865  55                push ebp
00001866  89E5              mov ebp,esp
00001868  8B4508            mov eax,[ebp+0x8]
0000186B  83C010            add eax,byte +0x10
0000186E  5D                pop ebp
0000186F  C3                ret
00001870  55                push ebp
00001871  89E5              mov ebp,esp
00001873  8B4508            mov eax,[ebp+0x8]
00001876  83C010            add eax,byte +0x10
00001879  5D                pop ebp
0000187A  C3                ret
0000187B  90                nop
0000187C  55                push ebp
0000187D  89E5              mov ebp,esp
0000187F  83EC18            sub esp,byte +0x18
00001882  8B4508            mov eax,[ebp+0x8]
00001885  C744240800000000  mov dword [esp+0x8],0x0
0000188D  C744240401000000  mov dword [esp+0x4],0x1
00001895  890424            mov [esp],eax
00001898  E833010000        call 0x19d0
0000189D  C9                leave
0000189E  C3                ret
0000189F  90                nop
000018A0  55                push ebp
000018A1  89E5              mov ebp,esp
000018A3  83EC18            sub esp,byte +0x18
000018A6  8B450C            mov eax,[ebp+0xc]
000018A9  89442404          mov [esp+0x4],eax
000018AD  C7042404000000    mov dword [esp],0x4
000018B4  E8EDF2FFFF        call 0x100000ba6
000018B9  85C0              test eax,eax
000018BB  7407              jz 0x18c4
000018BD  8B5510            mov edx,[ebp+0x10]
000018C0  8B12              mov edx,[edx]
000018C2  8910              mov [eax],edx
000018C4  C9                leave
000018C5  C3                ret
000018C6  55                push ebp
000018C7  89E5              mov ebp,esp
000018C9  83EC18            sub esp,byte +0x18
000018CC  8B450C            mov eax,[ebp+0xc]
000018CF  83C004            add eax,byte +0x4
000018D2  89442404          mov [esp+0x4],eax
000018D6  8B4508            mov eax,[ebp+0x8]
000018D9  890424            mov [esp],eax
000018DC  E857F9FFFF        call 0x100001238
000018E1  8B4508            mov eax,[ebp+0x8]
000018E4  C9                leave
000018E5  C20400            ret 0x4
000018E8  55                push ebp
000018E9  89E5              mov ebp,esp
000018EB  8B4508            mov eax,[ebp+0x8]
000018EE  8B10              mov edx,[eax]
000018F0  8B450C            mov eax,[ebp+0xc]
000018F3  8B00              mov eax,[eax]
000018F5  39C2              cmp edx,eax
000018F7  0F94C0            setz al
000018FA  5D                pop ebp
000018FB  C3                ret
000018FC  55                push ebp
000018FD  89E5              mov ebp,esp
000018FF  53                push ebx
00001900  83EC14            sub esp,byte +0x14
00001903  8B4508            mov eax,[ebp+0x8]
00001906  890424            mov [esp],eax
00001909  E860F4FFFF        call 0x100000d6e
0000190E  89442404          mov [esp+0x4],eax
00001912  8B4508            mov eax,[ebp+0x8]
00001915  890424            mov [esp],eax
00001918  E801F4FFFF        call 0x100000d1e
0000191D  8B4508            mov eax,[ebp+0x8]
00001920  890424            mov [esp],eax
00001923  E8E0000000        call 0x1a08
00001928  89C3              mov ebx,eax
0000192A  8B4508            mov eax,[ebp+0x8]
0000192D  890424            mov [esp],eax
00001930  E8B3FBFFFF        call 0x1000014e8
00001935  8903              mov [ebx],eax
00001937  8B4508            mov eax,[ebp+0x8]
0000193A  890424            mov [esp],eax
0000193D  E8D2000000        call 0x1a14
00001942  C70000000000      mov dword [eax],0x0
00001948  8B4508            mov eax,[ebp+0x8]
0000194B  890424            mov [esp],eax
0000194E  E8CD000000        call 0x1a20
00001953  89C3              mov ebx,eax
00001955  8B4508            mov eax,[ebp+0x8]
00001958  890424            mov [esp],eax
0000195B  E888FBFFFF        call 0x1000014e8
00001960  8903              mov [ebx],eax
00001962  8B4508            mov eax,[ebp+0x8]
00001965  C7401400000000    mov dword [eax+0x14],0x0
0000196C  83C414            add esp,byte +0x14
0000196F  5B                pop ebx
00001970  5D                pop ebp
00001971  C3                ret
00001972  55                push ebp
00001973  89E5              mov ebp,esp
00001975  8B4508            mov eax,[ebp+0x8]
00001978  8B10              mov edx,[eax]
0000197A  8B450C            mov eax,[ebp+0xc]
0000197D  8B00              mov eax,[eax]
0000197F  39C2              cmp edx,eax
00001981  0F95C0            setnz al
00001984  5D                pop ebp
00001985  C3                ret
00001986  55                push ebp
00001987  89E5              mov ebp,esp
00001989  83EC18            sub esp,byte +0x18
0000198C  8B4508            mov eax,[ebp+0x8]
0000198F  8B550C            mov edx,[ebp+0xc]
00001992  8B12              mov edx,[edx]
00001994  8910              mov [eax],edx
00001996  8B450C            mov eax,[ebp+0xc]
00001999  8B00              mov eax,[eax]
0000199B  890424            mov [esp],eax
0000199E  E82DEEFFFF        call 0x1000007d0
000019A3  8B550C            mov edx,[ebp+0xc]
000019A6  8902              mov [edx],eax
000019A8  90                nop
000019A9  8B4508            mov eax,[ebp+0x8]
000019AC  C9                leave
000019AD  C20400            ret 0x4
000019B0  55                push ebp
000019B1  89E5              mov ebp,esp
000019B3  83EC18            sub esp,byte +0x18
000019B6  8B450C            mov eax,[ebp+0xc]
000019B9  89442404          mov [esp+0x4],eax
000019BD  8B4508            mov eax,[ebp+0x8]
000019C0  890424            mov [esp],eax
000019C3  E864000000        call 0x1a2c
000019C8  C9                leave
000019C9  C3                ret
000019CA  55                push ebp
000019CB  89E5              mov ebp,esp
000019CD  5D                pop ebp
000019CE  C3                ret
000019CF  90                nop
000019D0  55                push ebp
000019D1  89E5              mov ebp,esp
000019D3  83EC18            sub esp,byte +0x18
000019D6  8B4508            mov eax,[ebp+0x8]
000019D9  890424            mov [esp],eax
000019DC  E88D000000        call 0x1a6e
000019E1  3B450C            cmp eax,[ebp+0xc]
000019E4  0F92C0            setc al
000019E7  84C0              test al,al
000019E9  7405              jz 0x19f0
000019EB  E840EEFFFF        call 0x100000830
000019F0  8B550C            mov edx,[ebp+0xc]
000019F3  89D0              mov eax,edx
000019F5  C1E002            shl eax,0x2
000019F8  01D0              add eax,edx
000019FA  C1E002            shl eax,0x2
000019FD  890424            mov [esp],eax
00001A00  E8EBEDFFFF        call 0x1000007f0
00001A05  C9                leave
00001A06  C3                ret
00001A07  90                nop
00001A08  55                push ebp
00001A09  89E5              mov ebp,esp
00001A0B  8B4508            mov eax,[ebp+0x8]
00001A0E  83C00C            add eax,byte +0xc
00001A11  5D                pop ebp
00001A12  C3                ret
00001A13  90                nop
00001A14  55                push ebp
00001A15  89E5              mov ebp,esp
00001A17  8B4508            mov eax,[ebp+0x8]
00001A1A  83C008            add eax,byte +0x8
00001A1D  5D                pop ebp
00001A1E  C3                ret
00001A1F  90                nop
00001A20  55                push ebp
00001A21  89E5              mov ebp,esp
00001A23  8B4508            mov eax,[ebp+0x8]
00001A26  83C010            add eax,byte +0x10
00001A29  5D                pop ebp
00001A2A  C3                ret
00001A2B  90                nop
00001A2C  55                push ebp
00001A2D  89E5              mov ebp,esp
00001A2F  83EC28            sub esp,byte +0x28
00001A32  8B4508            mov eax,[ebp+0x8]
00001A35  8D5004            lea edx,[eax+0x4]
00001A38  8B450C            mov eax,[ebp+0xc]
00001A3B  89542404          mov [esp+0x4],edx
00001A3F  890424            mov [esp],eax
00001A42  E8C9EDFFFF        call 0x100000810
00001A47  8945F4            mov [ebp-0xc],eax
00001A4A  8B45F4            mov eax,[ebp-0xc]
00001A4D  89442404          mov [esp+0x4],eax
00001A51  8B4508            mov eax,[ebp+0x8]
00001A54  890424            mov [esp],eax
00001A57  E812F5FFFF        call 0x100000f6e
00001A5C  8B4508            mov eax,[ebp+0x8]
00001A5F  8B4014            mov eax,[eax+0x14]
00001A62  8D50FF            lea edx,[eax-0x1]
00001A65  8B4508            mov eax,[ebp+0x8]
00001A68  895014            mov [eax+0x14],edx
00001A6B  C9                leave
00001A6C  C3                ret
00001A6D  90                nop
00001A6E  55                push ebp
00001A6F  89E5              mov ebp,esp
00001A71  B8CCCCCC0C        mov eax,0xccccccc
00001A76  5D                pop ebp
00001A77  C3                ret
00001A78  6690              o16 nop
00001A7A  6690              o16 nop
00001A7C  6690              o16 nop
00001A7E  6690              o16 nop
00001A80  55                push ebp
00001A81  89E5              mov ebp,esp
00001A83  5D                pop ebp
00001A84  C3                ret
00001A85  66                db 0x66
00001A86  66                db 0x66
00001A87  2E                db 0x2E
00001A88  0F                db 0x0F
00001A89  1F                pop ds
00001A8A  8400              test [eax],al
00001A8C  0000              add [eax],al
00001A8E  0000              add [eax],al
00001A90  55                push ebp
00001A91  89E5              mov ebp,esp
00001A93  57                push edi
00001A94  56                push esi
00001A95  53                push ebx
00001A96  E84F000000        call 0x1aea
00001A9B  81C38D1F0000      add ebx,0x1f8d
00001AA1  83EC1C            sub esp,byte +0x1c
00001AA4  E85BECFFFF        call 0x100000704
00001AA9  8DBB03FFFFFF      lea edi,[ebx+0xffffff03]
00001AAF  8D8303FFFFFF      lea eax,[ebx+0xffffff03]
00001AB5  29C7              sub edi,eax
00001AB7  C1FF02            sar edi,0x2
00001ABA  85FF              test edi,edi
00001ABC  7424              jz 0x1ae2
00001ABE  31F6              xor esi,esi
00001AC0  8B4510            mov eax,[ebp+0x10]
00001AC3  89442408          mov [esp+0x8],eax
00001AC7  8B450C            mov eax,[ebp+0xc]
00001ACA  89442404          mov [esp+0x4],eax
00001ACE  8B4508            mov eax,[ebp+0x8]
00001AD1  890424            mov [esp],eax
00001AD4  FF94B303FFFFFF    call near [ebx+esi*4+0xffffff03]
00001ADB  83C601            add esi,byte +0x1
00001ADE  39FE              cmp esi,edi
00001AE0  72DE              jc 0x1ac0
00001AE2  83C41C            add esp,byte +0x1c
00001AE5  5B                pop ebx
00001AE6  5E                pop esi
00001AE7  5F                pop edi
00001AE8  5D                pop ebp
00001AE9  C3                ret
00001AEA  8B1C24            mov ebx,[esp]
00001AED  C3                ret
00001AEE  6690              o16 nop
00001AF0  55                push ebp
00001AF1  89E5              mov ebp,esp
00001AF3  53                push ebx
00001AF4  52                push edx
00001AF5  BB30B90408        mov ebx,0x804b930
00001AFA  A130B90408        mov eax,[0x804b930]
00001AFF  83F8FF            cmp eax,byte -0x1
00001B02  7410              jz 0x1b14
00001B04  8D742600          lea esi,[esi+0x0]
00001B08  83EB04            sub ebx,byte +0x4
00001B0B  FFD0              call eax
00001B0D  8B03              mov eax,[ebx]
00001B0F  83F8FF            cmp eax,byte -0x1
00001B12  75F4              jnz 0x1b08
00001B14  58                pop eax
00001B15  5B                pop ebx
00001B16  5D                pop ebp
00001B17  C3                ret
00001B18  55                push ebp
00001B19  89E5              mov ebp,esp
00001B1B  53                push ebx
00001B1C  83EC04            sub esp,byte +0x4
00001B1F  E800000000        call 0x1b24
00001B24  5B                pop ebx
00001B25  81C3041F0000      add ebx,0x1f04
00001B2B  E8D0EDFFFF        call 0x100000900
00001B30  59                pop ecx
00001B31  5B                pop ebx
00001B32  C9                leave
00001B33  C3                ret
00001B34  0300              add eax,[eax]
00001B36  0000              add [eax],al
00001B38  0100              add [eax],eax
00001B3A  0200              add al,[eax]
00001B3C  2564004361        and eax,0x61430064
00001B41  7365              jnc 0x1ba8
00001B43  2023              and [ebx],ah
00001B45  25643A2000        and eax,0x203a64
00001B4A  25640A0056        and eax,0x56000a64
00001B4F  6F                outsd
00001B50  6C                insb
00001B51  756E              jnz 0x1bc1
00001B53  7465              jz 0x1bba
00001B55  657220            gs jc 0x1b78
00001B58  636865            arpl [eax+0x65],bp
00001B5B  61                popa
00001B5C  7465              jz 0x1bc3
00001B5E  642100            and [fs:eax],eax
00001B61  42                inc edx
00001B62  61                popa
00001B63  64206D61          and [fs:ebp+0x61],ch
00001B67  67696369616E2100  imul esp,[bp+di+0x69],dword 0x216e61
00001B6F  0001              add [ecx],al
00001B71  1B03              sbb eax,[ebx]
00001B73  3B800200004F      cmp eax,[eax+0x4f000002]
00001B79  0000              add [eax],al
00001B7B  00D0              add al,dl
00001B7D  EBFF              jmp short 0x1b7e
00001B7F  FF9C02000010EE    call far [edx+eax+0xee100000]
00001B86  FF                db 0xFF
00001B87  FF20              jmp near [eax]
00001B89  0300              add eax,[eax]
00001B8B  00DB              add bl,bl
00001B8D  EF                out dx,eax
00001B8E  FF                db 0xFF
00001B8F  FFC8              dec eax
00001B91  0C00              or al,0x0
00001B93  001A              add [edx],bl
00001B95  F0                db 0xF0
00001B96  FF                db 0xFF
00001B97  FF                db 0xFF
00001B98  E80C000036        call 0x36001ba9
00001B9D  F0                db 0xF0
00001B9E  FF                db 0xFF
00001B9F  FFC0              inc eax
00001BA1  0200              add al,[eax]
00001BA3  003E              add [esi],bh
00001BA5  F0                db 0xF0
00001BA6  FF                db 0xFF
00001BA7  FFE0              jmp eax
00001BA9  0200              add al,[eax]
00001BAB  0052F0            add [edx-0x10],dl
00001BAE  FF                db 0xFF
00001BAF  FF5C0300          call far [ebx+eax+0x0]
00001BB3  0066F0            add [esi-0x10],ah
00001BB6  FF                db 0xFF
00001BB7  FF                db 0xFF
00001BB8  7C03              jl 0x1bbd
00001BBA  0000              add [eax],al
00001BBC  7AF0              jpe 0x1bae
00001BBE  FF                db 0xFF
00001BBF  FF9C030000C6F0    call far [ebx+eax+0xf0c60000]
00001BC6  FF                db 0xFF
00001BC7  FFC4              inc esp
00001BC9  0300              add eax,[eax]
00001BCB  0028              add [eax],ch
00001BCD  F1                int1
00001BCE  FF                db 0xFF
00001BCF  FF                db 0xFF
00001BD0  E803000042        call 0x42001bd8
00001BD5  F1                int1
00001BD6  FF                db 0xFF
00001BD7  FF08              dec dword [eax]
00001BD9  0400              add al,0x0
00001BDB  0056F1            add [esi-0xf],dl
00001BDE  FF                db 0xFF
00001BDF  FF28              jmp far [eax]
00001BE1  0400              add al,0x0
00001BE3  0078F1            add [eax-0xf],bh
00001BE6  FF                db 0xFF
00001BE7  FF4804            dec dword [eax+0x4]
00001BEA  0000              add [eax],al
00001BEC  86F1              xchg dh,cl
00001BEE  FF                db 0xFF
00001BEF  FF6804            jmp far [eax+0x4]
00001BF2  0000              add [eax],al
00001BF4  9AF1FFFF880400    call 0x4:0x88fffff1
00001BFB  00AEF1FFFFA8      add [esi+0xa8fffff1],ch
00001C01  0400              add al,0x0
00001C03  00FE              add dh,bh
00001C05  F1                int1
00001C06  FF                db 0xFF
00001C07  FFC8              dec eax
00001C09  0400              add al,0x0
00001C0B  000A              add [edx],cl
00001C0D  F2                db 0xF2
00001C0E  FF                db 0xFF
00001C0F  FF                db 0xFF
00001C10  E8040000D2        call 0xd2001c19
00001C15  F2                db 0xF2
00001C16  FF                db 0xFF
00001C17  FF10              call near [eax]
00001C19  050000E2F2        add eax,0xf2e20000
00001C1E  FF                db 0xFF
00001C1F  FF30              push dword [eax]
00001C21  050000FCF2        add eax,0xf2fc0000
00001C26  FF                db 0xFF
00001C27  FF5005            call near [eax+0x5]
00001C2A  0000              add [eax],al
00001C2C  64                db 0x64
00001C2D  F3                db 0xF3
00001C2E  FF                db 0xFF
00001C2F  FF740500          push dword [ebp+eax+0x0]
00001C33  0070F3            add [eax-0xd],dh
00001C36  FF                db 0xFF
00001C37  FF9405000092F3    call near [ebp+eax+0xf3920000]
00001C3E  FF                db 0xFF
00001C3F  FFB4050000E2F3    push dword [ebp+eax+0xf3e20000]
00001C46  FF                db 0xFF
00001C47  FFD4              call esp
00001C49  050000E7F3        add eax,0xf3e70000
00001C4E  FF                db 0xFF
00001C4F  FFF4              push esp
00001C51  050000F2F3        add eax,0xf3f20000
00001C56  FF                db 0xFF
00001C57  FF1406            call near [esi+eax]
00001C5A  0000              add [eax],al
00001C5C  FE                db 0xFE
00001C5D  F3                db 0xF3
00001C5E  FF                db 0xFF
00001C5F  FF3406            push dword [esi+eax]
00001C62  0000              add [eax],al
00001C64  5C                pop esp
00001C65  F4                hlt
00001C66  FF                db 0xFF
00001C67  FF5806            call far [eax+0x6]
00001C6A  0000              add [eax],al
00001C6C  CAF5FF            retf 0xfff5
00001C6F  FF                db 0xFF
00001C70  7C06              jl 0x1c78
00001C72  0000              add [eax],al
00001C74  D2                db 0xD2
00001C75  F5                cmc
00001C76  FF                db 0xFF
00001C77  FF9C060000AEF6    call far [esi+eax+0xf6ae0000]
00001C7E  FF                db 0xFF
00001C7F  FFC8              dec eax
00001C81  06                push es
00001C82  0000              add [eax],al
00001C84  C8F6FFFF          enter 0xfff6,0xff
00001C88  E8060000D6        call 0xd6001c93
00001C8D  F6FF              idiv bh
00001C8F  FF08              dec dword [eax]
00001C91  07                pop es
00001C92  0000              add [eax],al
00001C94  68F8FFFF2C        push dword 0x2cfffff8
00001C99  07                pop es
00001C9A  0000              add [eax],al
00001C9C  B8F8FFFF50        mov eax,0x50fffff8
00001CA1  07                pop es
00001CA2  0000              add [eax],al
00001CA4  C6                db 0xC6
00001CA5  F8                clc
00001CA6  FF                db 0xFF
00001CA7  FF7007            push dword [eax+0x7]
00001CAA  0000              add [eax],al
00001CAC  DA                db 0xDA
00001CAD  F8                clc
00001CAE  FF                db 0xFF
00001CAF  FF900700000C      call near [eax+0xc000007]
00001CB5  F9                stc
00001CB6  FF                db 0xFF
00001CB7  FFB007000034      push dword [eax+0x34000007]
00001CBD  F9                stc
00001CBE  FF                db 0xFF
00001CBF  FFD0              call eax
00001CC1  07                pop es
00001CC2  0000              add [eax],al
00001CC4  47                inc edi
00001CC5  F9                stc
00001CC6  FF                db 0xFF
00001CC7  FFF0              push eax
00001CC9  07                pop es
00001CCA  0000              add [eax],al
00001CCC  50                push eax
00001CCD  F9                stc
00001CCE  FF                db 0xFF
00001CCF  FF10              call near [eax]
00001CD1  0800              or [eax],al
00001CD3  0056F9            add [esi-0x7],dl
00001CD6  FF                db 0xFF
00001CD7  FF30              push dword [eax]
00001CD9  0800              or [eax],al
00001CDB  0078F9            add [eax-0x7],bh
00001CDE  FF                db 0xFF
00001CDF  FF5008            call near [eax+0x8]
00001CE2  0000              add [eax],al
00001CE4  83F9FF            cmp ecx,byte -0x1
00001CE7  FF7008            push dword [eax+0x8]
00001CEA  0000              add [eax],al
00001CEC  A6                cmpsb
00001CED  F9                stc
00001CEE  FF                db 0xFF
00001CEF  FF90080000BA      call near [eax+0xba000008]
00001CF5  F9                stc
00001CF6  FF                db 0xFF
00001CF7  FFB0080000DC      push dword [eax+0xdc000008]
00001CFD  F9                stc
00001CFE  FF                db 0xFF
00001CFF  FFD0              call eax
00001D01  0800              or [eax],al
00001D03  00F0              add al,dh
00001D05  F9                stc
00001D06  FF                db 0xFF
00001D07  FFF0              push eax
00001D09  0800              or [eax],al
00001D0B  000A              add [edx],cl
00001D0D  FA                cli
00001D0E  FF                db 0xFF
00001D0F  FF10              call near [eax]
00001D11  0900              or [eax],eax
00001D13  0027              add [edi],ah
00001D15  FA                cli
00001D16  FF                db 0xFF
00001D17  FF30              push dword [eax]
00001D19  0900              or [eax],eax
00001D1B  004AFA            add [edx-0x6],cl
00001D1E  FF                db 0xFF
00001D1F  FF5009            call near [eax+0x9]
00001D22  0000              add [eax],al
00001D24  AE                scasb
00001D25  FA                cli
00001D26  FF                db 0xFF
00001D27  FF740900          push dword [ecx+ecx+0x0]
00001D2B  0022              add [edx],ah
00001D2D  FB                sti
00001D2E  FF                db 0xFF
00001D2F  FF9409000092FB    call near [ecx+ecx+0xfb920000]
00001D36  FF                db 0xFF
00001D37  FFB4090000ACFB    push dword [ecx+ecx+0xfbac0000]
00001D3E  FF                db 0xFF
00001D3F  FFD4              call esp
00001D41  0900              or [eax],eax
00001D43  00BAFCFFFF04      add [edx+0x4fffffc],bh
00001D49  0A00              or al,[eax]
00001D4B  00C0              add al,al
00001D4D  FC                cld
00001D4E  FF                db 0xFF
00001D4F  FF240A            jmp near [edx+ecx]
00001D52  0000              add [eax],al
00001D54  C8FCFFFF          enter 0xfffc,0xff
00001D58  44                inc esp
00001D59  0A00              or al,[eax]
00001D5B  00DC              add ah,bl
00001D5D  FC                cld
00001D5E  FF                db 0xFF
00001D5F  FF640A00          jmp near [edx+ecx+0x0]
00001D63  00E2              add dl,ah
00001D65  FC                cld
00001D66  FF                db 0xFF
00001D67  FF840A0000F5FC    inc dword [edx+ecx+0xfcf50000]
00001D6E  FF                db 0xFF
00001D6F  FFA40A000000FD    jmp near [edx+ecx+0xfd000000]
00001D76  FF                db 0xFF
00001D77  FFC4              inc esp
00001D79  0A00              or al,[eax]
00001D7B  000CFDFFFFE40A    add [edi*8+0xae4ffff],cl
00001D82  0000              add [eax],al
00001D84  30FD              xor ch,bh
00001D86  FF                db 0xFF
00001D87  FF040B            inc dword [ebx+ecx]
00001D8A  0000              add [eax],al
00001D8C  56                push esi
00001D8D  FD                std
00001D8E  FF                db 0xFF
00001D8F  FF240B            jmp near [ebx+ecx]
00001D92  0000              add [eax],al
00001D94  78FD              js 0x1d93
00001D96  FF                db 0xFF
00001D97  FF440B00          inc dword [ebx+ecx+0x0]
00001D9B  008CFDFFFF640B    add [ebp+edi*8+0xb64ffff],cl
00001DA2  0000              add [eax],al
00001DA4  02FE              add bh,dh
00001DA6  FF                db 0xFF
00001DA7  FF880B000016      dec dword [eax+0x1600000b]
00001DAD  FE                db 0xFE
00001DAE  FF                db 0xFF
00001DAF  FFA80B000040      jmp far [eax+0x4000000b]
00001DB5  FE                db 0xFE
00001DB6  FF                db 0xFF
00001DB7  FFC8              dec eax
00001DB9  0B00              or eax,[eax]
00001DBB  005AFE            add [edx-0x2],bl
00001DBE  FF                db 0xFF
00001DBF  FF                db 0xFF
00001DC0  E80B000060        call 0x60001dd0
00001DC5  FE                db 0xFE
00001DC6  FF                db 0xFF
00001DC7  FF08              dec dword [eax]
00001DC9  0C00              or al,0x0
00001DCB  0098FEFFFF28      add [eax+0x28fffffe],bl
00001DD1  0C00              or al,0x0
00001DD3  00A4FEFFFF480C    add [esi+edi*8+0xc48ffff],ah
00001DDA  0000              add [eax],al
00001DDC  B0FE              mov al,0xfe
00001DDE  FF                db 0xFF
00001DDF  FF680C            jmp far [eax+0xc]
00001DE2  0000              add [eax],al
00001DE4  BCFEFFFF88        mov esp,0x88fffffe
00001DE9  0C00              or al,0x0
00001DEB  00FE              add dh,bh
00001DED  FE                db 0xFE
00001DEE  FF                db 0xFF
00001DEF  FFA80C000014      jmp far [eax+0x1400000c]
00001DF5  0000              add [eax],al
00001DF7  0000              add [eax],al
00001DF9  0000              add [eax],al
00001DFB  0001              add [ecx],al
00001DFD  7A52              jpe 0x1e51
00001DFF  0001              add [ecx],al
00001E01  7C08              jl 0x1e0b
00001E03  011B              add [ebx],ebx
00001E05  0C04              or al,0x4
00001E07  0488              add al,0x88
00001E09  0100              add [eax],eax
00001E0B  0020              add [eax],ah
00001E0D  0000              add [eax],al
00001E0F  001C00            add [eax+eax],bl
00001E12  0000              add [eax],al
00001E14  2CE9              sub al,0xe9
00001E16  FF                db 0xFF
00001E17  FF20              jmp near [eax]
00001E19  0100              add [eax],eax
00001E1B  0000              add [eax],al
00001E1D  0E                push cs
00001E1E  08460E            or [esi+0xe],al
00001E21  0C4A              or al,0x4a
00001E23  0F0B              ud2
00001E25  7404              jz 0x1e2b
00001E27  7800              js 0x1e29
00001E29  3F                aas
00001E2A  1A3B              sbb bh,[ebx]
00001E2C  2A32              sub dh,[edx]
00001E2E  2422              and al,0x22
00001E30  1C00              sbb al,0x0
00001E32  0000              add [eax],al
00001E34  40                inc eax
00001E35  0000              add [eax],al
00001E37  006EED            add [esi-0x13],ch
00001E3A  FF                db 0xFF
00001E3B  FF08              dec dword [eax]
00001E3D  0000              add [eax],al
00001E3F  0000              add [eax],al
00001E41  41                inc ecx
00001E42  0E                push cs
00001E43  088502420D05      or [ebp+0x50d4202],al
00001E49  44                inc esp
00001E4A  C50C04            lds ecx,[esp+eax]
00001E4D  0400              add al,0x0
00001E4F  001C00            add [eax+eax],bl
00001E52  0000              add [eax],al
00001E54  60                pusha
00001E55  0000              add [eax],al
00001E57  0056ED            add [esi-0x13],dl
00001E5A  FF                db 0xFF
00001E5B  FF13              call near [ebx]
00001E5D  0000              add [eax],al
00001E5F  0000              add [eax],al
00001E61  41                inc ecx
00001E62  0E                push cs
00001E63  088502420D05      or [ebp+0x50d4202],al
00001E69  4F                dec edi
00001E6A  C50C04            lds ecx,[esp+eax]
00001E6D  0400              add al,0x0
00001E6F  001C00            add [eax+eax],bl
00001E72  0000              add [eax],al
00001E74  0000              add [eax],al
00001E76  0000              add [eax],al
00001E78  017A50            add [edx+0x50],edi
00001E7B  4C                dec esp
00001E7C  52                push edx
00001E7D  0001              add [ecx],al
00001E7F  7C08              jl 0x1e89
00001E81  07                pop es
00001E82  004088            add [eax-0x78],al
00001E85  0408              add al,0x8
00001E87  001B              add [ebx],bl
00001E89  0C04              or al,0x4
00001E8B  0488              add al,0x88
00001E8D  0100              add [eax],eax
00001E8F  0038              add [eax],bh
00001E91  0000              add [eax],al
00001E93  002400            add [eax+eax],ah
00001E96  0000              add [eax],al
00001E98  E8EAFFFFCB        call 0xcc001e87
00001E9D  0100              add [eax],eax
00001E9F  00047C            add [esp+edi*2],al
00001EA2  A804              test al,0x4
00001EA4  08440C01          or [esp+ecx+0x1],al
00001EA8  004710            add [edi+0x10],al
00001EAB  0502750044        add eax,0x44007502
00001EB0  0F037578          lsl esi,[ebp+0x78]
00001EB4  06                push es
00001EB5  1003              adc [ebx],al
00001EB7  02757C            add dh,[ebp+0x7c]
00001EBA  03B601C10C01      add esi,[esi+0x10cc101]
00001EC0  0041C3            add [ecx-0x3d],al
00001EC3  41                inc ecx
00001EC4  C5430C            lds eax,[ebx+0xc]
00001EC7  0404              add al,0x4
00001EC9  0000              add [eax],al
00001ECB  001C00            add [eax+eax],bl
00001ECE  0000              add [eax],al
00001ED0  DC00              fadd qword [eax]
00001ED2  0000              add [eax],al
00001ED4  EE                out dx,al
00001ED5  EC                in al,dx
00001ED6  FF                db 0xFF
00001ED7  FF13              call near [ebx]
00001ED9  0000              add [eax],al
00001EDB  0000              add [eax],al
00001EDD  41                inc ecx
00001EDE  0E                push cs
00001EDF  088502420D05      or [ebp+0x50d4202],al
00001EE5  4F                dec edi
00001EE6  C50C04            lds ecx,[esp+eax]
00001EE9  0400              add al,0x0
00001EEB  001C00            add [eax+eax],bl
00001EEE  0000              add [eax],al
00001EF0  FC                cld
00001EF1  0000              add [eax],al
00001EF3  00E2              add dl,ah
00001EF5  EC                in al,dx
00001EF6  FF                db 0xFF
00001EF7  FF13              call near [ebx]
00001EF9  0000              add [eax],al
00001EFB  0000              add [eax],al
00001EFD  41                inc ecx
00001EFE  0E                push cs
00001EFF  088502420D05      or [ebp+0x50d4202],al
00001F05  4F                dec edi
00001F06  C50C04            lds ecx,[esp+eax]
00001F09  0400              add al,0x0
00001F0B  002400            add [eax+eax],ah
00001F0E  0000              add [eax],al
00001F10  A0000000D6        mov al,[0xd6000000]
00001F15  EC                in al,dx
00001F16  FF                db 0xFF
00001F17  FF4B00            dec dword [ebx+0x0]
00001F1A  0000              add [eax],al
00001F1C  04B8              add al,0xb8
00001F1E  A804              test al,0x4
00001F20  08410E            or [ecx+0xe],al
00001F23  088502420D05      or [ebp+0x50d4202],al
00001F29  44                inc esp
00001F2A  830302            add dword [ebx],byte +0x2
00001F2D  42                inc edx
00001F2E  C3                ret
00001F2F  41                inc ecx
00001F30  C50C04            lds ecx,[esp+eax]
00001F33  0420              add al,0x20
00001F35  0000              add [eax],al
00001F37  00C8              add al,cl
00001F39  0000              add [eax],al
00001F3B  00FA              add dl,bh
00001F3D  EC                in al,dx
00001F3E  FF                db 0xFF
00001F3F  FF6100            jmp near [ecx+0x0]
00001F42  0000              add [eax],al
00001F44  04C4              add al,0xc4
00001F46  A804              test al,0x4
00001F48  08410E            or [ecx+0xe],al
00001F4B  088502420D05      or [ebp+0x50d4202],al
00001F51  025BC5            add bl,[ebx-0x3b]
00001F54  0C04              or al,0x4
00001F56  0400              add al,0x0
00001F58  1C00              sbb al,0x0
00001F5A  0000              add [eax],al
00001F5C  6801000038        push dword 0x38000001
00001F61  ED                in eax,dx
00001F62  FF                db 0xFF
00001F63  FF1A              call far [edx]
00001F65  0000              add [eax],al
00001F67  0000              add [eax],al
00001F69  41                inc ecx
00001F6A  0E                push cs
00001F6B  088502420D05      or [ebp+0x50d4202],al
00001F71  56                push esi
00001F72  C50C04            lds ecx,[esp+eax]
00001F75  0400              add al,0x0
00001F77  001C00            add [eax+eax],bl
00001F7A  0000              add [eax],al
00001F7C  8801              mov [ecx],al
00001F7E  0000              add [eax],al
00001F80  32ED              xor ch,ch
00001F82  FF                db 0xFF
00001F83  FF13              call near [ebx]
00001F85  0000              add [eax],al
00001F87  0000              add [eax],al
00001F89  41                inc ecx
00001F8A  0E                push cs
00001F8B  088502420D05      or [ebp+0x50d4202],al
00001F91  4F                dec edi
00001F92  C50C04            lds ecx,[esp+eax]
00001F95  0400              add al,0x0
00001F97  001C00            add [eax+eax],bl
00001F9A  0000              add [eax],al
00001F9C  A801              test al,0x1
00001F9E  0000              add [eax],al
00001FA0  26ED              es in eax,dx
00001FA2  FF                db 0xFF
00001FA3  FF22              jmp near [edx]
00001FA5  0000              add [eax],al
00001FA7  0000              add [eax],al
00001FA9  41                inc ecx
00001FAA  0E                push cs
00001FAB  088502420D05      or [ebp+0x50d4202],al
00001FB1  5C                pop esp
00001FB2  C50C04            lds ecx,[esp+eax]
00001FB5  0400              add al,0x0
00001FB7  001C00            add [eax+eax],bl
00001FBA  0000              add [eax],al
00001FBC  C8010000          enter 0x1,0x0
00001FC0  28ED              sub ch,ch
00001FC2  FF                db 0xFF
00001FC3  FF0D00000000      dec dword [0x0]
00001FC9  41                inc ecx
00001FCA  0E                push cs
00001FCB  088502420D05      or [ebp+0x50d4202],al
00001FD1  49                dec ecx
00001FD2  C50C04            lds ecx,[esp+eax]
00001FD5  0400              add al,0x0
00001FD7  001C00            add [eax+eax],bl
00001FDA  0000              add [eax],al
00001FDC  E801000016        call 0x16001fe2
00001FE1  ED                in eax,dx
00001FE2  FF                db 0xFF
00001FE3  FF13              call near [ebx]
00001FE5  0000              add [eax],al
00001FE7  0000              add [eax],al
00001FE9  41                inc ecx
00001FEA  0E                push cs
00001FEB  088502420D05      or [ebp+0x50d4202],al
00001FF1  4F                dec edi
00001FF2  C50C04            lds ecx,[esp+eax]
00001FF5  0400              add al,0x0
00001FF7  001C00            add [eax+eax],bl
00001FFA  0000              add [eax],al
00001FFC  0802              or [edx],al
00001FFE  0000              add [eax],al
00002000  0AED              or ch,ch
00002002  FF                db 0xFF
00002003  FF13              call near [ebx]
00002005  0000              add [eax],al
00002007  0000              add [eax],al
00002009  41                inc ecx
0000200A  0E                push cs
0000200B  088502420D05      or [ebp+0x50d4202],al
00002011  4F                dec edi
00002012  C50C04            lds ecx,[esp+eax]
00002015  0400              add al,0x0
00002017  001C00            add [eax+eax],bl
0000201A  0000              add [eax],al
0000201C  2802              sub [edx],al
0000201E  0000              add [eax],al
00002020  FE                db 0xFE
00002021  EC                in al,dx
00002022  FF                db 0xFF
00002023  FF5000            call near [eax+0x0]
00002026  0000              add [eax],al
00002028  00410E            add [ecx+0xe],al
0000202B  088502420D05      or [ebp+0x50d4202],al
00002031  024CC50C          add cl,[ebp+eax*8+0xc]
00002035  0404              add al,0x4
00002037  001C00            add [eax+eax],bl
0000203A  0000              add [eax],al
0000203C  48                dec eax
0000203D  0200              add al,[eax]
0000203F  002E              add [esi],ch
00002041  ED                in eax,dx
00002042  FF                db 0xFF
00002043  FF0B              dec dword [ebx]
00002045  0000              add [eax],al
00002047  0000              add [eax],al
00002049  41                inc ecx
0000204A  0E                push cs
0000204B  088502420D05      or [ebp+0x50d4202],al
00002051  47                inc edi
00002052  C50C04            lds ecx,[esp+eax]
00002055  0400              add al,0x0
00002057  002400            add [eax+eax],ah
0000205A  0000              add [eax],al
0000205C  EC                in al,dx
0000205D  0100              add [eax],eax
0000205F  001A              add [edx],bl
00002061  ED                in eax,dx
00002062  FF                db 0xFF
00002063  FFC7              inc edi
00002065  0000              add [eax],al
00002067  0004D0            add [eax+edx*8],al
0000206A  A804              test al,0x4
0000206C  08410E            or [ecx+0xe],al
0000206F  088502420D05      or [ebp+0x50d4202],al
00002075  44                inc esp
00002076  830302            add dword [ebx],byte +0x2
00002079  BDC5C30C04        mov ebp,0x40cc3c5
0000207E  0400              add al,0x0
00002080  1C00              sbb al,0x0
00002082  0000              add [eax],al
00002084  90                nop
00002085  0200              add al,[eax]
00002087  00BAEDFFFF0F      add [edx+0xfffffed],bh
0000208D  0000              add [eax],al
0000208F  0000              add [eax],al
00002091  41                inc ecx
00002092  0E                push cs
00002093  088502420D05      or [ebp+0x50d4202],al
00002099  4B                dec ebx
0000209A  C50C04            lds ecx,[esp+eax]
0000209D  0400              add al,0x0
0000209F  001C00            add [eax+eax],bl
000020A2  0000              add [eax],al
000020A4  B002              mov al,0x2
000020A6  0000              add [eax],al
000020A8  AA                stosb
000020A9  ED                in eax,dx
000020AA  FF                db 0xFF
000020AB  FF1A              call far [edx]
000020AD  0000              add [eax],al
000020AF  0000              add [eax],al
000020B1  41                inc ecx
000020B2  0E                push cs
000020B3  088502420D05      or [ebp+0x50d4202],al
000020B9  56                push esi
000020BA  C50C04            lds ecx,[esp+eax]
000020BD  0400              add al,0x0
000020BF  0020              add [eax],ah
000020C1  0000              add [eax],al
000020C3  00540200          add [edx+eax+0x0],dl
000020C7  00A4EDFFFF6700    add [ebp+ebp*8+0x67ffff],ah
000020CE  0000              add [eax],al
000020D0  04E3              add al,0xe3
000020D2  A804              test al,0x4
000020D4  08410E            or [ecx+0xe],al
000020D7  088502420D05      or [ebp+0x50d4202],al
000020DD  0263C5            add ah,[ebx-0x3b]
000020E0  0C04              or al,0x4
000020E2  0400              add al,0x0
000020E4  1C00              sbb al,0x0
000020E6  0000              add [eax],al
000020E8  F4                hlt
000020E9  0200              add al,[eax]
000020EB  00E8              add al,ch
000020ED  ED                in eax,dx
000020EE  FF                db 0xFF
000020EF  FF0B              dec dword [ebx]
000020F1  0000              add [eax],al
000020F3  0000              add [eax],al
000020F5  41                inc ecx
000020F6  0E                push cs
000020F7  088502420D05      or [ebp+0x50d4202],al
000020FD  47                inc edi
000020FE  C50C04            lds ecx,[esp+eax]
00002101  0400              add al,0x0
00002103  001C00            add [eax+eax],bl
00002106  0000              add [eax],al
00002108  1403              adc al,0x3
0000210A  0000              add [eax],al
0000210C  D4ED              aam 0xed
0000210E  FF                db 0xFF
0000210F  FF22              jmp near [edx]
00002111  0000              add [eax],al
00002113  0000              add [eax],al
00002115  41                inc ecx
00002116  0E                push cs
00002117  088502420D05      or [ebp+0x50d4202],al
0000211D  5C                pop esp
0000211E  C50C04            lds ecx,[esp+eax]
00002121  0400              add al,0x0
00002123  001C00            add [eax+eax],bl
00002126  0000              add [eax],al
00002128  3403              xor al,0x3
0000212A  0000              add [eax],al
0000212C  D6                salc
0000212D  ED                in eax,dx
0000212E  FF                db 0xFF
0000212F  FF5000            call near [eax+0x0]
00002132  0000              add [eax],al
00002134  00410E            add [ecx+0xe],al
00002137  088502420D05      or [ebp+0x50d4202],al
0000213D  024CC50C          add cl,[ebp+eax*8+0xc]
00002141  0404              add al,0x4
00002143  001C00            add [eax+eax],bl
00002146  0000              add [eax],al
00002148  54                push esp
00002149  0300              add eax,[eax]
0000214B  0006              add [esi],al
0000214D  EE                out dx,al
0000214E  FF                db 0xFF
0000214F  FF0500000000      inc dword [0x0]
00002155  41                inc ecx
00002156  0E                push cs
00002157  088502420D05      or [ebp+0x50d4202],al
0000215D  41                inc ecx
0000215E  C50C04            lds ecx,[esp+eax]
00002161  0400              add al,0x0
00002163  001C00            add [eax+eax],bl
00002166  0000              add [eax],al
00002168  7403              jz 0x216d
0000216A  0000              add [eax],al
0000216C  EBED              jmp short 0x215b
0000216E  FF                db 0xFF
0000216F  FF0B              dec dword [ebx]
00002171  0000              add [eax],al
00002173  0000              add [eax],al
00002175  41                inc ecx
00002176  0E                push cs
00002177  088502420D05      or [ebp+0x50d4202],al
0000217D  47                inc edi
0000217E  C50C04            lds ecx,[esp+eax]
00002181  0400              add al,0x0
00002183  001C00            add [eax+eax],bl
00002186  0000              add [eax],al
00002188  94                xchg eax,esp
00002189  0300              add eax,[eax]
0000218B  00D6              add dh,dl
0000218D  ED                in eax,dx
0000218E  FF                db 0xFF
0000218F  FF0B              dec dword [ebx]
00002191  0000              add [eax],al
00002193  0000              add [eax],al
00002195  41                inc ecx
00002196  0E                push cs
00002197  088502420D05      or [ebp+0x50d4202],al
0000219D  47                inc edi
0000219E  C50C04            lds ecx,[esp+eax]
000021A1  0400              add al,0x0
000021A3  0020              add [eax],ah
000021A5  0000              add [eax],al
000021A7  00B4030000C2ED    add [ebx+eax+0xedc20000],dh
000021AE  FF                db 0xFF
000021AF  FF5D00            call far [ebp+0x0]
000021B2  0000              add [eax],al
000021B4  00410E            add [ecx+0xe],al
000021B7  088502420D05      or [ebp+0x50d4202],al
000021BD  44                inc esp
000021BE  830302            add dword [ebx],byte +0x2
000021C1  55                push ebp
000021C2  C5                db 0xC5
000021C3  C3                ret
000021C4  0C04              or al,0x4
000021C6  0400              add al,0x0
000021C8  2000              and [eax],al
000021CA  0000              add [eax],al
000021CC  5C                pop esp
000021CD  0300              add eax,[eax]
000021CF  00FC              add ah,bh
000021D1  ED                in eax,dx
000021D2  FF                db 0xFF
000021D3  FF6E01            jmp far [esi+0x1]
000021D6  0000              add [eax],al
000021D8  04EF              add al,0xef
000021DA  A804              test al,0x4
000021DC  08410E            or [ecx+0xe],al
000021DF  088502420D05      or [ebp+0x50d4202],al
000021E5  036801            add ebp,[eax+0x1]
000021E8  C50C04            lds ecx,[esp+eax]
000021EB  041C              add al,0x1c
000021ED  0000              add [eax],al
000021EF  00FC              add ah,bh
000021F1  0300              add eax,[eax]
000021F3  0046EF            add [esi-0x11],al
000021F6  FF                db 0xFF
000021F7  FF08              dec dword [eax]
000021F9  0000              add [eax],al
000021FB  0000              add [eax],al
000021FD  41                inc ecx
000021FE  0E                push cs
000021FF  088502420D05      or [ebp+0x50d4202],al
00002205  44                inc esp
00002206  C50C04            lds ecx,[esp+eax]
00002209  0400              add al,0x0
0000220B  0028              add [eax],ch
0000220D  0000              add [eax],al
0000220F  00A00300002E      add [eax+0x2e000003],ah
00002215  EF                out dx,eax
00002216  FF                db 0xFF
00002217  FF                db 0xFF
00002218  DB00              fild dword [eax]
0000221A  0000              add [eax],al
0000221C  04FE              add al,0xfe
0000221E  A804              test al,0x4
00002220  08410E            or [ecx+0xe],al
00002223  088502420D05      or [ebp+0x50d4202],al
00002229  45                inc ebp
0000222A  8603              xchg al,[ebx]
0000222C  830402CE          add dword [edx+eax],byte -0x32
00002230  C3                ret
00002231  41                inc ecx
00002232  C641C50C          mov byte [ecx-0x3b],0xc
00002236  0404              add al,0x4
00002238  1C00              sbb al,0x0
0000223A  0000              add [eax],al
0000223C  48                dec eax
0000223D  0400              add al,0x0
0000223F  00DE              add dh,bl
00002241  EF                out dx,eax
00002242  FF                db 0xFF
00002243  FF1A              call far [edx]
00002245  0000              add [eax],al
00002247  0000              add [eax],al
00002249  41                inc ecx
0000224A  0E                push cs
0000224B  088502420D05      or [ebp+0x50d4202],al
00002251  56                push esi
00002252  C50C04            lds ecx,[esp+eax]
00002255  0400              add al,0x0
00002257  001C00            add [eax+eax],bl
0000225A  0000              add [eax],al
0000225C  68040000D8        push dword 0xd8000004
00002261  EF                out dx,eax
00002262  FF                db 0xFF
00002263  FF0D00000000      dec dword [0x0]
00002269  41                inc ecx
0000226A  0E                push cs
0000226B  088502420D05      or [ebp+0x50d4202],al
00002271  49                dec ecx
00002272  C50C04            lds ecx,[esp+eax]
00002275  0400              add al,0x0
00002277  0020              add [eax],ah
00002279  0000              add [eax],al
0000227B  000C04            add [esp+eax],cl
0000227E  0000              add [eax],al
00002280  C6                db 0xC6
00002281  EF                out dx,eax
00002282  FF                db 0xFF
00002283  FF9201000004      call near [edx+0x4000001]
00002289  0BA90408410E      or ebp,[ecx+0xe410804]
0000228F  088502420D05      or [ebp+0x50d4202],al
00002295  038C01C50C0404    add ecx,[ecx+eax+0x4040cc5]
0000229C  2000              and [eax],al
0000229E  0000              add [eax],al
000022A0  300400            xor [eax+eax],al
000022A3  0034F1            add [ecx+esi*8],dh
000022A6  FF                db 0xFF
000022A7  FF4F00            dec dword [edi+0x0]
000022AA  0000              add [eax],al
000022AC  041F              add al,0x1f
000022AE  A90408410E        test eax,0xe410804
000022B3  088502420D05      or [ebp+0x50d4202],al
000022B9  024BC5            add cl,[ebx-0x3b]
000022BC  0C04              or al,0x4
000022BE  0400              add al,0x0
000022C0  1C00              sbb al,0x0
000022C2  0000              add [eax],al
000022C4  D00400            rol byte [eax+eax],1
000022C7  0060F1            add [eax-0xf],ah
000022CA  FF                db 0xFF
000022CB  FF0D00000000      dec dword [0x0]
000022D1  41                inc ecx
000022D2  0E                push cs
000022D3  088502420D05      or [ebp+0x50d4202],al
000022D9  49                dec ecx
000022DA  C50C04            lds ecx,[esp+eax]
000022DD  0400              add al,0x0
000022DF  001C00            add [eax+eax],bl
000022E2  0000              add [eax],al
000022E4  F00400            lock add al,0x0
000022E7  004EF1            add [esi-0xf],cl
000022EA  FF                db 0xFF
000022EB  FF13              call near [ebx]
000022ED  0000              add [eax],al
000022EF  0000              add [eax],al
000022F1  41                inc ecx
000022F2  0E                push cs
000022F3  088502420D05      or [ebp+0x50d4202],al
000022F9  4F                dec edi
000022FA  C50C04            lds ecx,[esp+eax]
000022FD  0400              add al,0x0
000022FF  001C00            add [eax+eax],bl
00002302  0000              add [eax],al
00002304  1005000042F1      adc [0xf1420000],al
0000230A  FF                db 0xFF
0000230B  FF31              push dword [ecx]
0000230D  0000              add [eax],al
0000230F  0000              add [eax],al
00002311  41                inc ecx
00002312  0E                push cs
00002313  088502420D05      or [ebp+0x50d4202],al
00002319  6D                insd
0000231A  C50C04            lds ecx,[esp+eax]
0000231D  0400              add al,0x0
0000231F  001C00            add [eax+eax],bl
00002322  0000              add [eax],al
00002324  3005000054F1      xor [0xf1540000],al
0000232A  FF                db 0xFF
0000232B  FF27              jmp near [edi]
0000232D  0000              add [eax],al
0000232F  0000              add [eax],al
00002331  41                inc ecx
00002332  0E                push cs
00002333  088502420D05      or [ebp+0x50d4202],al
00002339  61                popa
0000233A  C50C04            lds ecx,[esp+eax]
0000233D  0400              add al,0x0
0000233F  001C00            add [eax+eax],bl
00002342  0000              add [eax],al
00002344  50                push eax
00002345  0500005CF1        add eax,0xf15c0000
0000234A  FF                db 0xFF
0000234B  FF13              call near [ebx]
0000234D  0000              add [eax],al
0000234F  0000              add [eax],al
00002351  41                inc ecx
00002352  0E                push cs
00002353  088502420D05      or [ebp+0x50d4202],al
00002359  4F                dec edi
0000235A  C50C04            lds ecx,[esp+eax]
0000235D  0400              add al,0x0
0000235F  001C00            add [eax+eax],bl
00002362  0000              add [eax],al
00002364  7005              jo 0x236b
00002366  0000              add [eax],al
00002368  4F                dec edi
00002369  F1                int1
0000236A  FF                db 0xFF
0000236B  FF08              dec dword [eax]
0000236D  0000              add [eax],al
0000236F  0000              add [eax],al
00002371  41                inc ecx
00002372  0E                push cs
00002373  088502420D05      or [ebp+0x50d4202],al
00002379  44                inc esp
0000237A  C50C04            lds ecx,[esp+eax]
0000237D  0400              add al,0x0
0000237F  001C00            add [eax+eax],bl
00002382  0000              add [eax],al
00002384  90                nop
00002385  05000038F1        add eax,0xf1380000
0000238A  FF                db 0xFF
0000238B  FF0500000000      inc dword [0x0]
00002391  41                inc ecx
00002392  0E                push cs
00002393  088502420D05      or [ebp+0x50d4202],al
00002399  41                inc ecx
0000239A  C50C04            lds ecx,[esp+eax]
0000239D  0400              add al,0x0
0000239F  001C00            add [eax+eax],bl
000023A2  0000              add [eax],al
000023A4  B005              mov al,0x5
000023A6  0000              add [eax],al
000023A8  1E                push ds
000023A9  F1                int1
000023AA  FF                db 0xFF
000023AB  FF22              jmp near [edx]
000023AD  0000              add [eax],al
000023AF  0000              add [eax],al
000023B1  41                inc ecx
000023B2  0E                push cs
000023B3  088502420D05      or [ebp+0x50d4202],al
000023B9  5E                pop esi
000023BA  C50C04            lds ecx,[esp+eax]
000023BD  0400              add al,0x0
000023BF  001C00            add [eax+eax],bl
000023C2  0000              add [eax],al
000023C4  D005000020F1      rol byte [0xf1200000],1
000023CA  FF                db 0xFF
000023CB  FF0B              dec dword [ebx]
000023CD  0000              add [eax],al
000023CF  0000              add [eax],al
000023D1  41                inc ecx
000023D2  0E                push cs
000023D3  088502420D05      or [ebp+0x50d4202],al
000023D9  47                inc edi
000023DA  C50C04            lds ecx,[esp+eax]
000023DD  0400              add al,0x0
000023DF  001C00            add [eax+eax],bl
000023E2  0000              add [eax],al
000023E4  F00500000BF1      lock add eax,0xf10b0000
000023EA  FF                db 0xFF
000023EB  FF22              jmp near [edx]
000023ED  0000              add [eax],al
000023EF  0000              add [eax],al
000023F1  41                inc ecx
000023F2  0E                push cs
000023F3  088502420D05      or [ebp+0x50d4202],al
000023F9  5E                pop esi
000023FA  C50C04            lds ecx,[esp+eax]
000023FD  0400              add al,0x0
000023FF  001C00            add [eax+eax],bl
00002402  0000              add [eax],al
00002404  1006              adc [esi],al
00002406  0000              add [eax],al
00002408  0E                push cs
00002409  F1                int1
0000240A  FF                db 0xFF
0000240B  FF1400            call near [eax+eax]
0000240E  0000              add [eax],al
00002410  00410E            add [ecx+0xe],al
00002413  088502420D05      or [ebp+0x50d4202],al
00002419  50                push eax
0000241A  C50C04            lds ecx,[esp+eax]
0000241D  0400              add al,0x0
0000241F  001C00            add [eax+eax],bl
00002422  0000              add [eax],al
00002424  3006              xor [esi],al
00002426  0000              add [eax],al
00002428  02F1              add dh,cl
0000242A  FF                db 0xFF
0000242B  FF22              jmp near [edx]
0000242D  0000              add [eax],al
0000242F  0000              add [eax],al
00002431  41                inc ecx
00002432  0E                push cs
00002433  088502420D05      or [ebp+0x50d4202],al
00002439  5C                pop esp
0000243A  C50C04            lds ecx,[esp+eax]
0000243D  0400              add al,0x0
0000243F  001C00            add [eax+eax],bl
00002442  0000              add [eax],al
00002444  50                push eax
00002445  06                push es
00002446  0000              add [eax],al
00002448  04F1              add al,0xf1
0000244A  FF                db 0xFF
0000244B  FF1400            call near [eax+eax]
0000244E  0000              add [eax],al
00002450  00410E            add [ecx+0xe],al
00002453  088502420D05      or [ebp+0x50d4202],al
00002459  50                push eax
0000245A  C50C04            lds ecx,[esp+eax]
0000245D  0400              add al,0x0
0000245F  001C00            add [eax+eax],bl
00002462  0000              add [eax],al
00002464  7006              jo 0x246c
00002466  0000              add [eax],al
00002468  F8                clc
00002469  F0                db 0xF0
0000246A  FF                db 0xFF
0000246B  FF1A              call far [edx]
0000246D  0000              add [eax],al
0000246F  0000              add [eax],al
00002471  41                inc ecx
00002472  0E                push cs
00002473  088502420D05      or [ebp+0x50d4202],al
00002479  56                push esi
0000247A  C50C04            lds ecx,[esp+eax]
0000247D  0400              add al,0x0
0000247F  001C00            add [eax+eax],bl
00002482  0000              add [eax],al
00002484  90                nop
00002485  06                push es
00002486  0000              add [eax],al
00002488  F2                db 0xF2
00002489  F0                db 0xF0
0000248A  FF                db 0xFF
0000248B  FF1D00000000      call far [0x0]
00002491  41                inc ecx
00002492  0E                push cs
00002493  088502420D05      or [ebp+0x50d4202],al
00002499  59                pop ecx
0000249A  C50C04            lds ecx,[esp+eax]
0000249D  0400              add al,0x0
0000249F  001C00            add [eax+eax],bl
000024A2  0000              add [eax],al
000024A4  B006              mov al,0x6
000024A6  0000              add [eax],al
000024A8  EF                out dx,eax
000024A9  F0                db 0xF0
000024AA  FF                db 0xFF
000024AB  FF22              jmp near [edx]
000024AD  0000              add [eax],al
000024AF  0000              add [eax],al
000024B1  41                inc ecx
000024B2  0E                push cs
000024B3  088502420D05      or [ebp+0x50d4202],al
000024B9  5E                pop esi
000024BA  C50C04            lds ecx,[esp+eax]
000024BD  0400              add al,0x0
000024BF  0020              add [eax],ah
000024C1  0000              add [eax],al
000024C3  00D0              add al,dl
000024C5  06                push es
000024C6  0000              add [eax],al
000024C8  F2                db 0xF2
000024C9  F0                db 0xF0
000024CA  FF                db 0xFF
000024CB  FF6300            jmp near [ebx+0x0]
000024CE  0000              add [eax],al
000024D0  00410E            add [ecx+0xe],al
000024D3  088502420D05      or [ebp+0x50d4202],al
000024D9  44                inc esp
000024DA  830302            add dword [ebx],byte +0x2
000024DD  5B                pop ebx
000024DE  C5                db 0xC5
000024DF  C3                ret
000024E0  0C04              or al,0x4
000024E2  0400              add al,0x0
000024E4  1C00              sbb al,0x0
000024E6  0000              add [eax],al
000024E8  F4                hlt
000024E9  06                push es
000024EA  0000              add [eax],al
000024EC  32F1              xor dh,cl
000024EE  FF                db 0xFF
000024EF  FF7300            push dword [ebx+0x0]
000024F2  0000              add [eax],al
000024F4  00410E            add [ecx+0xe],al
000024F7  088502420D05      or [ebp+0x50d4202],al
000024FD  026DC5            add ch,[ebp-0x3b]
00002500  0C04              or al,0x4
00002502  0400              add al,0x0
00002504  1C00              sbb al,0x0
00002506  0000              add [eax],al
00002508  1407              adc al,0x7
0000250A  0000              add [eax],al
0000250C  86F1              xchg dh,cl
0000250E  FF                db 0xFF
0000250F  FF7000            push dword [eax+0x0]
00002512  0000              add [eax],al
00002514  00410E            add [ecx+0xe],al
00002517  088502420D05      or [ebp+0x50d4202],al
0000251D  026AC5            add ch,[edx-0x3b]
00002520  0C04              or al,0x4
00002522  0400              add al,0x0
00002524  1C00              sbb al,0x0
00002526  0000              add [eax],al
00002528  3407              xor al,0x7
0000252A  0000              add [eax],al
0000252C  D6                salc
0000252D  F1                int1
0000252E  FF                db 0xFF
0000252F  FF1A              call far [edx]
00002531  0000              add [eax],al
00002533  0000              add [eax],al
00002535  41                inc ecx
00002536  0E                push cs
00002537  088502420D05      or [ebp+0x50d4202],al
0000253D  56                push esi
0000253E  C50C04            lds ecx,[esp+eax]
00002541  0400              add al,0x0
00002543  002C00            add [eax+eax],ch
00002546  0000              add [eax],al
00002548  54                push esp
00002549  07                pop es
0000254A  0000              add [eax],al
0000254C  D0                db 0xD0
0000254D  F1                int1
0000254E  FF                db 0xFF
0000254F  FF0E              dec dword [esi]
00002551  0100              add [eax],eax
00002553  0000              add [eax],al
00002555  41                inc ecx
00002556  0E                push cs
00002557  088502420D05      or [ebp+0x50d4202],al
0000255D  46                inc esi
0000255E  8703              xchg eax,[ebx]
00002560  860483            xchg al,[ebx+eax*4]
00002563  05030101C3        add eax,0xc3010103
00002568  41                inc ecx
00002569  C641C741          mov byte [ecx-0x39],0x41
0000256D  C50C04            lds ecx,[esp+eax]
00002570  0400              add al,0x0
00002572  0000              add [eax],al
00002574  1C00              sbb al,0x0
00002576  0000              add [eax],al
00002578  8407              test [edi],al
0000257A  0000              add [eax],al
0000257C  AE                scasb
0000257D  F2                db 0xF2
0000257E  FF                db 0xFF
0000257F  FF0500000000      inc dword [0x0]
00002585  41                inc ecx
00002586  0E                push cs
00002587  088502420D05      or [ebp+0x50d4202],al
0000258D  41                inc ecx
0000258E  C50C04            lds ecx,[esp+eax]
00002591  0400              add al,0x0
00002593  001C00            add [eax+eax],bl
00002596  0000              add [eax],al
00002598  A4                movsb
00002599  07                pop es
0000259A  0000              add [eax],al
0000259C  94                xchg eax,esp
0000259D  F2                db 0xF2
0000259E  FF                db 0xFF
0000259F  FF08              dec dword [eax]
000025A1  0000              add [eax],al
000025A3  0000              add [eax],al
000025A5  41                inc ecx
000025A6  0E                push cs
000025A7  088502420D05      or [ebp+0x50d4202],al
000025AD  44                inc esp
000025AE  C50C04            lds ecx,[esp+eax]
000025B1  0400              add al,0x0
000025B3  001C00            add [eax+eax],bl
000025B6  0000              add [eax],al
000025B8  C407              les eax,[edi]
000025BA  0000              add [eax],al
000025BC  7CF2              jl 0x25b0
000025BE  FF                db 0xFF
000025BF  FF13              call near [ebx]
000025C1  0000              add [eax],al
000025C3  0000              add [eax],al
000025C5  41                inc ecx
000025C6  0E                push cs
000025C7  088502420D05      or [ebp+0x50d4202],al
000025CD  4F                dec edi
000025CE  C50C04            lds ecx,[esp+eax]
000025D1  0400              add al,0x0
000025D3  001C00            add [eax+eax],bl
000025D6  0000              add [eax],al
000025D8  E407              in al,0x7
000025DA  0000              add [eax],al
000025DC  70F2              jo 0x25d0
000025DE  FF                db 0xFF
000025DF  FF0500000000      inc dword [0x0]
000025E5  41                inc ecx
000025E6  0E                push cs
000025E7  088502420D05      or [ebp+0x50d4202],al
000025ED  41                inc ecx
000025EE  C50C04            lds ecx,[esp+eax]
000025F1  0400              add al,0x0
000025F3  001C00            add [eax+eax],bl
000025F6  0000              add [eax],al
000025F8  0408              add al,0x8
000025FA  0000              add [eax],al
000025FC  56                push esi
000025FD  F2                db 0xF2
000025FE  FF                db 0xFF
000025FF  FF13              call near [ebx]
00002601  0000              add [eax],al
00002603  0000              add [eax],al
00002605  41                inc ecx
00002606  0E                push cs
00002607  088502420D05      or [ebp+0x50d4202],al
0000260D  4F                dec edi
0000260E  C50C04            lds ecx,[esp+eax]
00002611  0400              add al,0x0
00002613  001C00            add [eax+eax],bl
00002616  0000              add [eax],al
00002618  2408              and al,0x8
0000261A  0000              add [eax],al
0000261C  49                dec ecx
0000261D  F2                db 0xF2
0000261E  FF                db 0xFF
0000261F  FF0B              dec dword [ebx]
00002621  0000              add [eax],al
00002623  0000              add [eax],al
00002625  41                inc ecx
00002626  0E                push cs
00002627  088502420D05      or [ebp+0x50d4202],al
0000262D  47                inc edi
0000262E  C50C04            lds ecx,[esp+eax]
00002631  0400              add al,0x0
00002633  001C00            add [eax+eax],bl
00002636  0000              add [eax],al
00002638  44                inc esp
00002639  0800              or [eax],al
0000263B  0034F2            add [edx+esi*8],dh
0000263E  FF                db 0xFF
0000263F  FF0B              dec dword [ebx]
00002641  0000              add [eax],al
00002643  0000              add [eax],al
00002645  41                inc ecx
00002646  0E                push cs
00002647  088502420D05      or [ebp+0x50d4202],al
0000264D  47                inc edi
0000264E  C50C04            lds ecx,[esp+eax]
00002651  0400              add al,0x0
00002653  001C00            add [eax+eax],bl
00002656  0000              add [eax],al
00002658  640800            or [fs:eax],al
0000265B  0020              add [eax],ah
0000265D  F2                db 0xF2
0000265E  FF                db 0xFF
0000265F  FF23              jmp near [ebx]
00002661  0000              add [eax],al
00002663  0000              add [eax],al
00002665  41                inc ecx
00002666  0E                push cs
00002667  088502420D05      or [ebp+0x50d4202],al
0000266D  5F                pop edi
0000266E  C50C04            lds ecx,[esp+eax]
00002671  0400              add al,0x0
00002673  001C00            add [eax+eax],bl
00002676  0000              add [eax],al
00002678  8408              test [eax],cl
0000267A  0000              add [eax],al
0000267C  24F2              and al,0xf2
0000267E  FF                db 0xFF
0000267F  FF26              jmp near [esi]
00002681  0000              add [eax],al
00002683  0000              add [eax],al
00002685  41                inc ecx
00002686  0E                push cs
00002687  088502420D05      or [ebp+0x50d4202],al
0000268D  62                db 0x62
0000268E  C50C04            lds ecx,[esp+eax]
00002691  0400              add al,0x0
00002693  001C00            add [eax+eax],bl
00002696  0000              add [eax],al
00002698  A4                movsb
00002699  0800              or [eax],al
0000269B  002A              add [edx],ch
0000269D  F2                db 0xF2
0000269E  FF                db 0xFF
0000269F  FF22              jmp near [edx]
000026A1  0000              add [eax],al
000026A3  0000              add [eax],al
000026A5  41                inc ecx
000026A6  0E                push cs
000026A7  088502420D05      or [ebp+0x50d4202],al
000026AD  5C                pop esp
000026AE  C50C04            lds ecx,[esp+eax]
000026B1  0400              add al,0x0
000026B3  001C00            add [eax+eax],bl
000026B6  0000              add [eax],al
000026B8  C408              les ecx,[eax]
000026BA  0000              add [eax],al
000026BC  2CF2              sub al,0xf2
000026BE  FF                db 0xFF
000026BF  FF1400            call near [eax+eax]
000026C2  0000              add [eax],al
000026C4  00410E            add [ecx+0xe],al
000026C7  088502420D05      or [ebp+0x50d4202],al
000026CD  50                push eax
000026CE  C50C04            lds ecx,[esp+eax]
000026D1  0400              add al,0x0
000026D3  0020              add [eax],ah
000026D5  0000              add [eax],al
000026D7  00E4              add ah,ah
000026D9  0800              or [eax],al
000026DB  0020              add [eax],ah
000026DD  F2                db 0xF2
000026DE  FF                db 0xFF
000026DF  FF7600            push dword [esi+0x0]
000026E2  0000              add [eax],al
000026E4  00410E            add [ecx+0xe],al
000026E7  088502420D05      or [ebp+0x50d4202],al
000026ED  44                inc esp
000026EE  830302            add dword [ebx],byte +0x2
000026F1  6D                insd
000026F2  C3                ret
000026F3  41                inc ecx
000026F4  C50C04            lds ecx,[esp+eax]
000026F7  041C              add al,0x1c
000026F9  0000              add [eax],al
000026FB  0008              add [eax],cl
000026FD  0900              or [eax],eax
000026FF  0072F2            add [edx-0xe],dh
00002702  FF                db 0xFF
00002703  FF1400            call near [eax+eax]
00002706  0000              add [eax],al
00002708  00410E            add [ecx+0xe],al
0000270B  088502420D05      or [ebp+0x50d4202],al
00002711  50                push eax
00002712  C50C04            lds ecx,[esp+eax]
00002715  0400              add al,0x0
00002717  001C00            add [eax+eax],bl
0000271A  0000              add [eax],al
0000271C  2809              sub [ecx],cl
0000271E  0000              add [eax],al
00002720  66                db 0x66
00002721  F2                db 0xF2
00002722  FF                db 0xFF
00002723  FF2A              jmp far [edx]
00002725  0000              add [eax],al
00002727  0000              add [eax],al
00002729  41                inc ecx
0000272A  0E                push cs
0000272B  088502420D05      or [ebp+0x50d4202],al
00002731  64C50C04          lds ecx,[fs:esp+eax]
00002735  0400              add al,0x0
00002737  001C00            add [eax+eax],bl
0000273A  0000              add [eax],al
0000273C  48                dec eax
0000273D  0900              or [eax],eax
0000273F  0070F2            add [eax-0xe],dh
00002742  FF                db 0xFF
00002743  FF1A              call far [edx]
00002745  0000              add [eax],al
00002747  0000              add [eax],al
00002749  41                inc ecx
0000274A  0E                push cs
0000274B  088502420D05      or [ebp+0x50d4202],al
00002751  56                push esi
00002752  C50C04            lds ecx,[esp+eax]
00002755  0400              add al,0x0
00002757  001C00            add [eax+eax],bl
0000275A  0000              add [eax],al
0000275C  680900006A        push dword 0x6a000009
00002761  F2                db 0xF2
00002762  FF                db 0xFF
00002763  FF0500000000      inc dword [0x0]
00002769  41                inc ecx
0000276A  0E                push cs
0000276B  088502420D05      or [ebp+0x50d4202],al
00002771  41                inc ecx
00002772  C50C04            lds ecx,[esp+eax]
00002775  0400              add al,0x0
00002777  001C00            add [eax+eax],bl
0000277A  0000              add [eax],al
0000277C  8809              mov [ecx],cl
0000277E  0000              add [eax],al
00002780  50                push eax
00002781  F2                db 0xF2
00002782  FF                db 0xFF
00002783  FF37              push dword [edi]
00002785  0000              add [eax],al
00002787  0000              add [eax],al
00002789  41                inc ecx
0000278A  0E                push cs
0000278B  088502420D05      or [ebp+0x50d4202],al
00002791  73C5              jnc 0x2758
00002793  0C04              or al,0x4
00002795  0400              add al,0x0
00002797  001C00            add [eax+eax],bl
0000279A  0000              add [eax],al
0000279C  A809              test al,0x9
0000279E  0000              add [eax],al
000027A0  68F2FFFF0B        push dword 0xbfffff2
000027A5  0000              add [eax],al
000027A7  0000              add [eax],al
000027A9  41                inc ecx
000027AA  0E                push cs
000027AB  088502420D05      or [ebp+0x50d4202],al
000027B1  47                inc edi
000027B2  C50C04            lds ecx,[esp+eax]
000027B5  0400              add al,0x0
000027B7  001C00            add [eax+eax],bl
000027BA  0000              add [eax],al
000027BC  C8090000          enter 0x9,0x0
000027C0  54                push esp
000027C1  F2                db 0xF2
000027C2  FF                db 0xFF
000027C3  FF0B              dec dword [ebx]
000027C5  0000              add [eax],al
000027C7  0000              add [eax],al
000027C9  41                inc ecx
000027CA  0E                push cs
000027CB  088502420D05      or [ebp+0x50d4202],al
000027D1  47                inc edi
000027D2  C50C04            lds ecx,[esp+eax]
000027D5  0400              add al,0x0
000027D7  001C00            add [eax+eax],bl
000027DA  0000              add [eax],al
000027DC  E809000040        call 0x400027ea
000027E1  F2                db 0xF2
000027E2  FF                db 0xFF
000027E3  FF0B              dec dword [ebx]
000027E5  0000              add [eax],al
000027E7  0000              add [eax],al
000027E9  41                inc ecx
000027EA  0E                push cs
000027EB  088502420D05      or [ebp+0x50d4202],al
000027F1  47                inc edi
000027F2  C50C04            lds ecx,[esp+eax]
000027F5  0400              add al,0x0
000027F7  001C00            add [eax+eax],bl
000027FA  0000              add [eax],al
000027FC  080A              or [edx],cl
000027FE  0000              add [eax],al
00002800  2CF2              sub al,0xf2
00002802  FF                db 0xFF
00002803  FF4100            inc dword [ecx+0x0]
00002806  0000              add [eax],al
00002808  00410E            add [ecx+0xe],al
0000280B  088502420D05      or [ebp+0x50d4202],al
00002811  7DC5              jnl 0x27d8
00002813  0C04              or al,0x4
00002815  0400              add al,0x0
00002817  001C00            add [eax+eax],bl
0000281A  0000              add [eax],al
0000281C  280A              sub [edx],cl
0000281E  0000              add [eax],al
00002820  4E                dec esi
00002821  F2                db 0xF2
00002822  FF                db 0xFF
00002823  FF0A              dec dword [edx]
00002825  0000              add [eax],al
00002827  0000              add [eax],al
00002829  41                inc ecx
0000282A  0E                push cs
0000282B  088502420D05      or [ebp+0x50d4202],al
00002831  46                inc esi
00002832  C50C04            lds ecx,[esp+eax]
00002835  0400              add al,0x0
00002837  001C00            add [eax+eax],bl
0000283A  0000              add [eax],al
0000283C  48                dec eax
0000283D  0A00              or al,[eax]
0000283F  000B              add [ebx],cl
00002841  E3FF              jecxz 0x2842
00002843  FF                db 0xFF
00002844  3F                aas
00002845  0000              add [eax],al
00002847  0000              add [eax],al
00002849  41                inc ecx
0000284A  0E                push cs
0000284B  088502420D05      or [ebp+0x50d4202],al
00002851  7BC5              jpo 0x2818
00002853  0C04              or al,0x4
00002855  0400              add al,0x0
00002857  001C00            add [eax+eax],bl
0000285A  0000              add [eax],al
0000285C  680A00002A        push dword 0x2a00000a
00002861  E3FF              jecxz 0x2862
00002863  FF1C00            call far [eax+eax]
00002866  0000              add [eax],al
00002868  00410E            add [ecx+0xe],al
0000286B  088502420D05      or [ebp+0x50d4202],al
00002871  58                pop eax
00002872  C50C04            lds ecx,[esp+eax]
00002875  0400              add al,0x0
00002877  0000              add [eax],al
00002879  0000              add [eax],al
0000287B  00FF              add bh,bh
0000287D  FF01              inc dword [ecx]
0000287F  3820              cmp [eax],ah
00002881  05B9030037        add eax,0x370003b9
00002886  05B7030059        add eax,0x590003b7
0000288B  0598030087        add eax,0x87000398
00002890  01059E0300B3      add [0xb300039e],eax
00002896  011F              add [edi],ebx
00002898  9C                pushf
00002899  0300              add eax,[eax]
0000289B  FB                sti
0000289C  012CA6            add [esi],ebp
0000289F  0300              add eax,[eax]
000028A1  C20205            ret 0x502
000028A4  A20300CF02        mov [0x2cf0003],al
000028A9  28A60300FD02      sub [esi+0x2fd0003],ah
000028AF  05B70300BC        add eax,0xbc0003b7
000028B4  03050000FFFF      add eax,[0xffff0000]
000028BA  0108              add [eax],ecx
000028BC  1C05              sbb al,0x5
000028BE  2E004005          add [cs:eax+0x5],al
000028C2  0000              add [eax],al
000028C4  FF                db 0xFF
000028C5  FF01              inc dword [ecx]
000028C7  081A              or [edx],bl
000028C9  0552005505        add eax,0x5550052
000028CE  0000              add [eax],al
000028D0  FF                db 0xFF
000028D1  FF01              inc dword [ecx]
000028D3  0F2A05B301005F    cvtpi2ps xmm0,[0x5f0001b3]
000028DA  05B50100B8        add eax,0xb80001b5
000028DF  01050000FFFF      add [0xffff0000],eax
000028E5  0108              add [eax],ecx
000028E7  1A2F              sbb ch,[edi]
000028E9  5D                pop ebp
000028EA  006005            add [eax+0x5],ah
000028ED  0000              add [eax],al
000028EF  FF                db 0xFF
000028F0  FF01              inc dword [ecx]
000028F2  0B34C8            or esi,[eax+ecx*8]
000028F5  01DF              add edi,ebx
000028F7  0200              add al,[eax]
000028F9  E202              loop 0x28fd
000028FB  050000FFFF        add eax,0xffff0000
00002900  0109              add [ecx],ecx
00002902  2605C4010071      es add eax,0x710001c4
00002908  5E                pop esi
00002909  0000              add [eax],al
0000290B  FF                db 0xFF
0000290C  FF01              inc dword [ecx]
0000290E  102DC5010000      adc [0x1c5],ch
00002914  97                xchg eax,edi
00002915  020583030086      add al,[0x86000383]
0000291B  03050000FFFF      add eax,[0xffff0000]
00002921  0108              add [eax],ecx
00002923  3E0545004805      ds add eax,0x5480045
00002929  0000              add [eax],al
0000292B  00FF              add bh,bh
0000292D  FF                db 0xFF
0000292E  FF                db 0xFF
0000292F  FF8A8B040800      dec dword [edx+0x8048b]
00002935  0000              add [eax],al
00002937  00FF              add bh,bh
00002939  FF                db 0xFF
0000293A  FF                db 0xFF
0000293B  FF00              inc dword [eax]
0000293D  0000              add [eax],al
0000293F  0000              add [eax],al
00002941  0000              add [eax],al
00002943  0001              add [ecx],al
00002945  0000              add [eax],al
00002947  0001              add [ecx],al
00002949  0000              add [eax],al
0000294B  0001              add [ecx],al
0000294D  0000              add [eax],al
0000294F  00B40100000100    add [ecx+eax+0x10000],dh
00002956  0000              add [eax],al
00002958  BE01000001        mov esi,0x1000001
0000295D  0000              add [eax],al
0000295F  00DB              add bl,bl
00002961  0100              add [eax],eax
00002963  000C00            add [eax+eax],cl
00002966  0000              add [eax],al
00002968  0487              add al,0x87
0000296A  0408              add al,0x8
0000296C  0D00000018        or eax,0x18000000
00002971  9B                wait
00002972  0408              add al,0x8
00002974  0400              add al,0x0
00002976  0000              add [eax],al
00002978  6881040805        push dword 0x5080481
0000297D  0000              add [eax],al
0000297F  006C8304          add [ebx+eax*4+0x4],ch
00002983  0806              or [esi],al
00002985  0000              add [eax],al
00002987  000C82            add [edx+eax*4],cl
0000298A  0408              add al,0x8
0000298C  0A00              or al,[eax]
0000298E  0000              add [eax],al
00002990  5A                pop edx
00002991  0200              add al,[eax]
00002993  000B              add [ebx],cl
00002995  0000              add [eax],al
00002997  0010              add [eax],dl
00002999  0000              add [eax],al
0000299B  001500000000      add [0x0],dl
000029A1  0000              add [eax],al
000029A3  0003              add [ebx],al
000029A5  0000              add [eax],al
000029A7  0028              add [eax],ch
000029A9  BA04080200        mov edx,0x20804
000029AE  0000              add [eax],al
000029B0  8800              mov [eax],al
000029B2  0000              add [eax],al
000029B4  1400              adc al,0x0
000029B6  0000              add [eax],al
000029B8  1100              adc [eax],eax
000029BA  0000              add [eax],al
000029BC  17                pop ss
000029BD  0000              add [eax],al
000029BF  007C8604          add [esi+eax*4+0x4],bh
000029C3  0811              or [ecx],dl
000029C5  0000              add [eax],al
000029C7  00748604          add [esi+eax*4+0x4],dh
000029CB  0812              or [edx],dl
000029CD  0000              add [eax],al
000029CF  0008              add [eax],cl
000029D1  0000              add [eax],al
000029D3  0013              add [ebx],dl
000029D5  0000              add [eax],al
000029D7  0008              add [eax],cl
000029D9  0000              add [eax],al
000029DB  00FE              add dh,bh
000029DD  FF                db 0xFF
000029DE  FF6FF4            jmp far [edi-0xc]
000029E1  850408            test [eax+ecx],eax
000029E4  FF                db 0xFF
000029E5  FF                db 0xFF
000029E6  FF6F03            jmp far [edi+0x3]
000029E9  0000              add [eax],al
000029EB  00F0              add al,dh
000029ED  FF                db 0xFF
000029EE  FF6FC6            jmp far [edi-0x3a]
000029F1  850408            test [eax+ecx],eax
000029F4  0000              add [eax],al
000029F6  0000              add [eax],al
000029F8  0000              add [eax],al
000029FA  0000              add [eax],al
000029FC  0000              add [eax],al
000029FE  0000              add [eax],al
00002A00  0000              add [eax],al
00002A02  0000              add [eax],al
00002A04  0000              add [eax],al
00002A06  0000              add [eax],al
00002A08  0000              add [eax],al
00002A0A  0000              add [eax],al
00002A0C  0000              add [eax],al
00002A0E  0000              add [eax],al
00002A10  0000              add [eax],al
00002A12  0000              add [eax],al
00002A14  0000              add [eax],al
00002A16  0000              add [eax],al
00002A18  0000              add [eax],al
00002A1A  0000              add [eax],al
00002A1C  0000              add [eax],al
00002A1E  0000              add [eax],al
00002A20  0000              add [eax],al
00002A22  0000              add [eax],al
00002A24  0000              add [eax],al
00002A26  0000              add [eax],al
00002A28  44                inc esp
00002A29  B904080000        mov ecx,0x804
00002A2E  0000              add [eax],al
00002A30  0000              add [eax],al
00002A32  0000              add [eax],al
00002A34  56                push esi
00002A35  870408            xchg eax,[eax+ecx]
00002A38  66870408          xchg ax,[eax+ecx]
00002A3C  7687              jna 0x29c5
00002A3E  0408              add al,0x8
00002A40  868704089687      xchg al,[edi+0x87960804]
00002A46  0408              add al,0x8
00002A48  A6                cmpsb
00002A49  870408            xchg eax,[eax+ecx]
00002A4C  B687              mov dh,0x87
00002A4E  0408              add al,0x8
00002A50  C6870408D68704    mov byte [edi+0x87d60804],0x4
00002A57  08E6              or dh,ah
00002A59  870408            xchg eax,[eax+ecx]
00002A5C  F6870408068804    test byte [edi+0x88060804],0x4
00002A63  0816              or [esi],dl
00002A65  880408            mov [eax+ecx],al
00002A68  26880408          mov [es:eax+ecx],al
00002A6C  36880408          mov [ss:eax+ecx],al
00002A70  46                inc esi
00002A71  880408            mov [eax+ecx],al
00002A74  56                push esi
00002A75  880408            mov [eax+ecx],al
00002A78  0000              add [eax],al
00002A7A  0000              add [eax],al
00002A7C  0000              add [eax],al
00002A7E  0000              add [eax],al
00002A80  47                inc edi
00002A81  43                inc ebx
00002A82  43                inc ebx
00002A83  3A20              cmp ah,[eax]
00002A85  285562            sub [ebp+0x62],dl
00002A88  756E              jnz 0x2af8
00002A8A  7475              jz 0x2b01
00002A8C  20342E            and [esi+ebp],dh
00002A8F  342E              xor al,0x2e
00002A91  332D34756275      xor ebp,[0x75627534]
00002A97  6E                outsb
00002A98  7475              jz 0x2b0f
00002A9A  352920342E        xor eax,0x2e342029
00002A9F  342E              xor al,0x2e
00002AA1  3300              xor eax,[eax]
00002AA3  47                inc edi
00002AA4  43                inc ebx
00002AA5  43                inc ebx
00002AA6  3A20              cmp ah,[eax]
00002AA8  28474E            sub [edi+0x4e],al
00002AAB  55                push ebp
00002AAC  2920              sub [eax],esp
00002AAE  342E              xor al,0x2e
00002AB0  382E              cmp [esi],ch
00002AB2  3100              xor [eax],eax
00002AB4  0000              add [eax],al
00002AB6  0000              add [eax],al
00002AB8  1C00              sbb al,0x0
00002ABA  0000              add [eax],al
00002ABC  0200              add al,[eax]
00002ABE  0000              add [eax],al
00002AC0  0000              add [eax],al
00002AC2  0400              add al,0x0
00002AC4  0000              add [eax],al
00002AC6  0000              add [eax],al
00002AC8  60                pusha
00002AC9  880408            mov [eax+ecx],al
00002ACC  2200              and al,[eax]
00002ACE  0000              add [eax],al
00002AD0  0000              add [eax],al
00002AD2  0000              add [eax],al
00002AD4  0000              add [eax],al
00002AD6  0000              add [eax],al
00002AD8  1C00              sbb al,0x0
00002ADA  0000              add [eax],al
00002ADC  0200              add al,[eax]
00002ADE  0E                push cs
00002ADF  0100              add [eax],eax
00002AE1  000400            add [eax+eax],al
00002AE4  0000              add [eax],al
00002AE6  0000              add [eax],al
00002AE8  809A04086A0000    sbb byte [edx+0x6a0804],0x0
00002AEF  0000              add [eax],al
00002AF1  0000              add [eax],al
00002AF3  0000              add [eax],al
00002AF5  0000              add [eax],al
00002AF7  0021              add [ecx],ah
00002AF9  0000              add [eax],al
00002AFB  0002              add [edx],al
00002AFD  00810000008D      add [ecx+0x8d000000],al
00002B03  0000              add [eax],al
00002B05  007500            add [ebp+0x0],dh
00002B08  0000              add [eax],al
00002B0A  5F                pop edi
00002B0B  49                dec ecx
00002B0C  4F                dec edi
00002B0D  5F                pop edi
00002B0E  7374              jnc 0x2b84
00002B10  64696E5F75736564  imul ebp,[fs:esi+0x5f],dword 0x64657375
00002B18  0000              add [eax],al
00002B1A  0000              add [eax],al
00002B1C  0036              add [esi],dh
00002B1E  0000              add [eax],al
00002B20  0002              add [edx],al
00002B22  000E              add [esi],cl
00002B24  0100              add [eax],eax
00002B26  0013              add [ebx],dl
00002B28  0100              add [eax],eax
00002B2A  003E              add [esi],bh
00002B2C  0000              add [eax],al
00002B2E  005F5F            add [edi+0x5f],bl
00002B31  6C                insb
00002B32  6962635F637375    imul esp,[edx+0x63],dword 0x7573635f
00002B39  5F                pop edi
00002B3A  66696E690053      imul bp,[esi+0x69],word 0x5300
00002B40  0000              add [eax],al
00002B42  005F5F            add [edi+0x5f],bl
00002B45  6C                insb
00002B46  6962635F637375    imul esp,[edx+0x63],dword 0x7573635f
00002B4D  5F                pop edi
00002B4E  696E6974000000    imul ebp,[esi+0x69],dword 0x74
00002B55  0000              add [eax],al
00002B57  7D00              jnl 0x2b59
00002B59  0000              add [eax],al
00002B5B  0200              add al,[eax]
00002B5D  0000              add [eax],al
00002B5F  0000              add [eax],al
00002B61  0401              add al,0x1
00002B63  0000              add [eax],al
00002B65  0000              add [eax],al
00002B67  60                pusha
00002B68  880408            mov [eax+ecx],al
00002B6B  82                db 0x82
00002B6C  880408            mov [eax+ecx],al
00002B6F  2E2E2F            cs das
00002B72  7379              jnc 0x2bed
00002B74  7364              jnc 0x2bda
00002B76  657073            gs jo 0x2bec
00002B79  2F                das
00002B7A  693338362F65      imul esi,[ebx],dword 0x652f3638
00002B80  6C                insb
00002B81  662F              o16 das
00002B83  7374              jnc 0x2bf9
00002B85  61                popa
00002B86  7274              jc 0x2bfc
00002B88  2E53              cs push ebx
00002B8A  002F              add [edi],ch
00002B8C  686F6D652F        push dword 0x2f656d6f
00002B91  7069              jo 0x2bfc
00002B93  657272            gs jc 0x2c08
00002B96  652F              gs das
00002B98  42                inc edx
00002B99  7572              jnz 0x2c0d
00002B9B  6561              gs popa
00002B9D  752F              jnz 0x2bce
00002B9F  6865616465        push dword 0x65646165
00002BA4  7273              jc 0x2c19
00002BA6  2D676C6962        sub eax,0x62696c67
00002BAB  632D666F722D      arpl [0x2d726f66],bp
00002BB1  6C                insb
00002BB2  696E75782F676C    imul ebp,[esi+0x75],dword 0x6c672f78
00002BB9  6962632D322E31    imul esp,[edx+0x63],dword 0x312e322d
00002BC0  322E              xor ch,[esi]
00002BC2  322F              xor ch,[edi]
00002BC4  637375            arpl [ebx+0x75],si
00002BC7  00474E            add [edi+0x4e],al
00002BCA  55                push ebp
00002BCB  204153            and [ecx+0x53],al
00002BCE  2032              and [edx],dh
00002BD0  2E3230            xor dh,[cs:eax]
00002BD3  2E3100            xor [cs:eax],eax
00002BD6  018089000000      add [eax+0x89],eax
00002BDC  0200              add al,[eax]
00002BDE  1400              adc al,0x0
00002BE0  0000              add [eax],al
00002BE2  0401              add al,0x1
00002BE4  8E00              mov es,[eax]
00002BE6  0000              add [eax],al
00002BE8  01CD              add ebp,ecx
00002BEA  0000              add [eax],al
00002BEC  004300            add [ebx+0x0],al
00002BEF  0000              add [eax],al
00002BF1  848804088488      test [eax+0x88840804],cl
00002BF7  0408              add al,0x8
00002BF9  5B                pop ebx
00002BFA  0000              add [eax],al
00002BFC  0002              add [edx],al
00002BFE  0108              add [eax],ecx
00002C00  800000            add byte [eax],0x0
00002C03  0002              add [edx],al
00002C05  0207              add al,[edi]
00002C07  0000              add [eax],al
00002C09  0000              add [eax],al
00002C0B  020407            add al,[edi+eax]
00002C0E  360000            add [ss:eax],al
00002C11  0002              add [edx],al
00002C13  0407              add al,0x7
00002C15  3100              xor [eax],eax
00002C17  0000              add [eax],al
00002C19  0201              add al,[ecx]
00002C1B  06                push es
00002C1C  82                db 0x82
00002C1D  0000              add [eax],al
00002C1F  0002              add [edx],al
00002C21  020513000000      add al,[0x13]
00002C27  030405696E7400    add eax,[eax+0x746e69]
00002C2E  0208              add cl,[eax]
00002C30  059A000000        add eax,0x9a
00002C35  0208              add cl,[eax]
00002C37  07                pop es
00002C38  2C00              sub al,0x0
00002C3A  0000              add [eax],al
00002C3C  0204059F000000    add al,[eax+0x9f]
00002C43  0404              add al,0x4
00002C45  07                pop es
00002C46  0201              add al,[ecx]
00002C48  06                push es
00002C49  8900              mov [eax],eax
00002C4B  0000              add [eax],al
00002C4D  051D000000        add eax,0x1d
00002C52  0119              add [ecx],ebx
00002C54  8700              xchg eax,[eax]
00002C56  0000              add [eax],al
00002C58  010503389B04      add [0x49b3803],eax
00002C5E  0806              or [esi],al
00002C60  4F                dec edi
00002C61  0000              add [eax],al
00002C63  0000              add [eax],al
00002C65  0F0100            sgdt [eax]
00002C68  0002              add [edx],al
00002C6A  005F00            add [edi+0x0],bl
00002C6D  0000              add [eax],al
00002C6F  0401              add al,0x1
00002C71  8E00              mov es,[eax]
00002C73  0000              add [eax],al
00002C75  01C9              add ecx,ecx
00002C77  0000              add [eax],al
00002C79  004300            add [ebx+0x0],al
00002C7C  0000              add [eax],al
00002C7E  809A0408EA9A04    sbb byte [edx+0x9aea0804],0x4
00002C85  088200000002      or [edx+0x2000000],al
00002C8B  0405              add al,0x5
00002C8D  696E740003AD00    imul ebp,[esi+0x74],dword 0xad0300
00002C94  0000              add [eax],al
00002C96  02D3              add dl,bl
00002C98  37                aaa
00002C99  0000              add [eax],al
00002C9B  000404            add [esp+eax],al
00002C9E  07                pop es
00002C9F  360000            add [ss:eax],al
00002CA2  000501FD0000      add [0xfd01],al
00002CA8  0001              add [ecx],al
00002CAA  830180            add dword [ecx],byte -0x80
00002CAD  9A0408859A0408    call 0x804:0x9a850804
00002CB4  0000              add [eax],al
00002CB6  0000              add [eax],al
00002CB8  06                push es
00002CB9  01B900000001      add [ecx+0x1000000],edi
00002CBF  6901909A0408      imul eax,[ecx],dword 0x8049a90
00002CC5  EA9A04082C0000    jmp 0x0:0x2c08049a
00002CCC  00B900000007      add [ecx+0x7000000],bh
00002CD2  B400              mov ah,0x0
00002CD4  0000              add [eax],al
00002CD6  016925            add [ecx+0x25],ebp
00002CD9  0000              add [eax],al
00002CDB  0002              add [edx],al
00002CDD  91                xchg eax,ecx
00002CDE  0007              add [edi],al
00002CE0  0D01000001        or eax,0x1000001
00002CE5  69B9000000029104  imul edi,[ecx+0x2000000],dword 0xa8070491
         -07A8
00002CEF  0000              add [eax],al
00002CF1  0001              add [ecx],al
00002CF3  69B9000000029108  imul edi,[ecx+0x2000000],dword 0xe7080891
         -08E7
00002CFD  0000              add [eax],al
00002CFF  0001              add [ecx],al
00002D01  7ACC              jpe 0x2ccf
00002D03  0000              add [eax],al
00002D05  0009              add [ecx],cl
00002D07  A99A0408E2        test eax,0xe208049a
00002D0C  9A04080A690001    call 0x100:0x690a0804
00002D13  7B2C              jpo 0x2d41
00002D15  0000              add [eax],al
00002D17  005800            add [eax+0x0],bl
00002D1A  0000              add [eax],al
00002D1C  0000              add [eax],al
00002D1E  0B04BF            or eax,[edi+edi*4]
00002D21  0000              add [eax],al
00002D23  000B              add [ebx],cl
00002D25  04C5              add al,0xc5
00002D27  0000              add [eax],al
00002D29  000401            add [ecx+eax],al
00002D2C  06                push es
00002D2D  8900              mov [eax],eax
00002D2F  0000              add [eax],al
00002D31  0C2C              or al,0x2c
00002D33  0000              add [eax],al
00002D35  000DF2000000      add [0xf2],cl
00002D3B  DC00              fadd qword [eax]
00002D3D  0000              add [eax],al
00002D3F  0E                push cs
00002D40  000F              add [edi],cl
00002D42  01F2              add edx,esi
00002D44  0000              add [eax],al
00002D46  0010              add [eax],dl
00002D48  2500000010        and eax,0x10000000
00002D4D  B900000010        mov ecx,0x10000000
00002D52  B900000000        mov ecx,0x0
00002D57  0B04DC            or eax,[esp+ebx*8]
00002D5A  0000              add [eax],al
00002D5C  0011              add [ecx],dl
00002D5E  D400              aam 0x0
00002D60  0000              add [eax],al
00002D62  013B              add [ebx],edi
00002D64  D100              rol dword [eax],1
00002D66  0000              add [eax],al
00002D68  0101              add [ecx],eax
00002D6A  11EC              adc esp,ebp
00002D6C  0000              add [eax],al
00002D6E  0001              add [ecx],al
00002D70  3DD1000000        cmp eax,0xd1
00002D75  0101              add [ecx],eax
00002D77  0001              add [ecx],al
00002D79  1100              adc [eax],eax
00002D7B  1006              adc [esi],al
00002D7D  1101              adc [ecx],eax
00002D7F  1201              adc al,[ecx]
00002D81  0308              add ecx,[eax]
00002D83  1B08              sbb ecx,[eax]
00002D85  2508130500        and eax,0x51308
00002D8A  0000              add [eax],al
00002D8C  0111              add [ecx],edx
00002D8E  01250E130B03      add [0x30b130e],esp
00002D94  0E                push cs
00002D95  1B0E              sbb ecx,[esi]
00002D97  1101              adc [ecx],eax
00002D99  1201              adc al,[ecx]
00002D9B  1006              adc [esi],al
00002D9D  0000              add [eax],al
00002D9F  022400            add ah,[eax+eax]
00002DA2  0B0B              or ecx,[ebx]
00002DA4  3E0B03            or eax,[ds:ebx]
00002DA7  0E                push cs
00002DA8  0000              add [eax],al
00002DAA  032400            add esp,[eax+eax]
00002DAD  0B0B              or ecx,[ebx]
00002DAF  3E0B03            or eax,[ds:ebx]
00002DB2  0800              or [eax],al
00002DB4  000424            add [esp],al
00002DB7  000B              add [ebx],cl
00002DB9  0B3E              or edi,[esi]
00002DBB  0B00              or eax,[eax]
00002DBD  00053400030E      add [0xe030034],al
00002DC3  3A0B              cmp cl,[ebx]
00002DC5  3B0B              cmp ecx,[ebx]
00002DC7  49                dec ecx
00002DC8  133F              adc edi,[edi]
00002DCA  0C02              or al,0x2
00002DCC  0A00              or al,[eax]
00002DCE  0006              add [esi],al
00002DD0  26004913          add [es:ecx+0x13],cl
00002DD4  0000              add [eax],al
00002DD6  0001              add [ecx],al
00002DD8  1101              adc [ecx],eax
00002DDA  250E130B03        and eax,0x30b130e
00002DDF  0E                push cs
00002DE0  1B0E              sbb ecx,[esi]
00002DE2  1101              adc [ecx],eax
00002DE4  1201              adc al,[ecx]
00002DE6  1006              adc [esi],al
00002DE8  0000              add [eax],al
00002DEA  022400            add ah,[eax+eax]
00002DED  0B0B              or ecx,[ebx]
00002DEF  3E0B03            or eax,[ds:ebx]
00002DF2  0800              or [eax],al
00002DF4  0003              add [ebx],al
00002DF6  16                push ss
00002DF7  0003              add [ebx],al
00002DF9  0E                push cs
00002DFA  3A0B              cmp cl,[ebx]
00002DFC  3B0B              cmp ecx,[ebx]
00002DFE  49                dec ecx
00002DFF  1300              adc eax,[eax]
00002E01  000424            add [esp],al
00002E04  000B              add [ebx],cl
00002E06  0B3E              or edi,[esi]
00002E08  0B03              or eax,[ebx]
00002E0A  0E                push cs
00002E0B  0000              add [eax],al
00002E0D  052E003F0C        add eax,0xc3f002e
00002E12  030E              add ecx,[esi]
00002E14  3A0B              cmp cl,[ebx]
00002E16  3B0B              cmp ecx,[ebx]
00002E18  27                daa
00002E19  0C11              or al,0x11
00002E1B  0112              add [edx],edx
00002E1D  014006            add [eax+0x6],eax
00002E20  0000              add [eax],al
00002E22  06                push es
00002E23  2E013F            add [cs:edi],edi
00002E26  0C03              or al,0x3
00002E28  0E                push cs
00002E29  3A0B              cmp cl,[ebx]
00002E2B  3B0B              cmp ecx,[ebx]
00002E2D  27                daa
00002E2E  0C11              or al,0x11
00002E30  0112              add [edx],edx
00002E32  014006            add [eax+0x6],eax
00002E35  0113              add [ebx],edx
00002E37  0000              add [eax],al
00002E39  07                pop es
00002E3A  0500030E3A        add eax,0x3a0e0300
00002E3F  0B3B              or edi,[ebx]
00002E41  0B4913            or ecx,[ecx+0x13]
00002E44  020A              add cl,[edx]
00002E46  0000              add [eax],al
00002E48  083400            or [eax+eax],dh
00002E4B  030E              add ecx,[esi]
00002E4D  3A0B              cmp cl,[ebx]
00002E4F  3B0B              cmp ecx,[ebx]
00002E51  49                dec ecx
00002E52  1300              adc eax,[eax]
00002E54  0009              add [ecx],cl
00002E56  0B01              or eax,[ecx]
00002E58  1101              adc [ecx],eax
00002E5A  1201              adc al,[ecx]
00002E5C  0000              add [eax],al
00002E5E  0A3400            or dh,[eax+eax]
00002E61  0308              add ecx,[eax]
00002E63  3A0B              cmp cl,[ebx]
00002E65  3B0B              cmp ecx,[ebx]
00002E67  49                dec ecx
00002E68  1302              adc eax,[edx]
00002E6A  06                push es
00002E6B  0000              add [eax],al
00002E6D  0B0F              or ecx,[edi]
00002E6F  000B              add [ebx],cl
00002E71  0B4913            or ecx,[ecx+0x13]
00002E74  0000              add [eax],al
00002E76  0C26              or al,0x26
00002E78  004913            add [ecx+0x13],cl
00002E7B  0000              add [eax],al
00002E7D  0D01014913        or eax,0x13490101
00002E82  0113              add [ebx],edx
00002E84  0000              add [eax],al
00002E86  0E                push cs
00002E87  2100              and [eax],eax
00002E89  0000              add [eax],al
00002E8B  0F1501            unpckhps xmm0,[ecx]
00002E8E  27                daa
00002E8F  0C01              or al,0x1
00002E91  1300              adc eax,[eax]
00002E93  0010              add [eax],dl
00002E95  0500491300        add eax,0x134900
00002E9A  0011              add [ecx],dl
00002E9C  3400              xor al,0x0
00002E9E  030E              add ecx,[esi]
00002EA0  3A0B              cmp cl,[ebx]
00002EA2  3B0B              cmp ecx,[ebx]
00002EA4  49                dec ecx
00002EA5  133F              adc edi,[edi]
00002EA7  0C3C              or al,0x3c
00002EA9  0C00              or al,0x0
00002EAB  0000              add [eax],al
00002EAD  57                push edi
00002EAE  0000              add [eax],al
00002EB0  0002              add [edx],al
00002EB2  0032              add [edx],dh
00002EB4  0000              add [eax],al
00002EB6  0001              add [ecx],al
00002EB8  01FB              add ebx,edi
00002EBA  0E                push cs
00002EBB  0D00010101        or eax,0x1010100
00002EC0  0100              add [eax],eax
00002EC2  0000              add [eax],al
00002EC4  0100              add [eax],eax
00002EC6  0001              add [ecx],al
00002EC8  2E2E2F            cs das
00002ECB  7379              jnc 0x2f46
00002ECD  7364              jnc 0x2f33
00002ECF  657073            gs jo 0x2f45
00002ED2  2F                das
00002ED3  693338362F65      imul esi,[ebx],dword 0x652f3638
00002ED9  6C                insb
00002EDA  660000            o16 add [eax],al
00002EDD  7374              jnc 0x2f53
00002EDF  61                popa
00002EE0  7274              jc 0x2f56
00002EE2  2E53              cs push ebx
00002EE4  0001              add [ecx],al
00002EE6  0000              add [eax],al
00002EE8  0000              add [eax],al
00002EEA  0502608804        add eax,0x4886002
00002EEF  0803              or [ebx],al
00002EF1  C00001            rol byte [eax],0x1
00002EF4  3321              xor esp,[ecx]
00002EF6  343D              xor al,0x3d
00002EF8  2522031820        and eax,0x20180322
00002EFD  59                pop ecx
00002EFE  5A                pop edx
00002EFF  2122              and [edx],esp
00002F01  5C                pop esp
00002F02  5B                pop ebx
00002F03  0201              add al,[ecx]
00002F05  0001              add [ecx],al
00002F07  0123              add [ebx],esp
00002F09  0000              add [eax],al
00002F0B  0002              add [edx],al
00002F0D  001D00000001      add [0x1000000],bl
00002F13  01FB              add ebx,edi
00002F15  0E                push cs
00002F16  0D00010101        or eax,0x1010100
00002F1B  0100              add [eax],eax
00002F1D  0000              add [eax],al
00002F1F  0100              add [eax],eax
00002F21  0001              add [ecx],al
00002F23  00696E            add [ecx+0x6e],ch
00002F26  69742E6300000000  imul esi,[esi+ebp+0x63],dword 0x0
00002F2E  007B00            add [ebx+0x0],bh
00002F31  0000              add [eax],al
00002F33  0200              add al,[eax]
00002F35  57                push edi
00002F36  0000              add [eax],al
00002F38  0001              add [ecx],al
00002F3A  01FB              add ebx,edi
00002F3C  0E                push cs
00002F3D  0D00010101        or eax,0x1010100
00002F42  0100              add [eax],eax
00002F44  0000              add [eax],al
00002F46  0100              add [eax],eax
00002F48  0001              add [ecx],al
00002F4A  2F                das
00002F4B  7573              jnz 0x2fc0
00002F4D  722F              jc 0x2f7e
00002F4F  6C                insb
00002F50  69622F6763632F    imul esp,[edx+0x2f],dword 0x2f636367
00002F57  693438362D6C69    imul esi,[eax+edi],dword 0x696c2d36
00002F5E  6E                outsb
00002F5F  7578              jnz 0x2fd9
00002F61  2D676E752F        sub eax,0x2f756e67
00002F66  342E              xor al,0x2e
00002F68  342E              xor al,0x2e
00002F6A  332F              xor ebp,[edi]
00002F6C  696E636C756465    imul ebp,[esi+0x63],dword 0x6564756c
00002F73  0000              add [eax],al
00002F75  656C              gs insb
00002F77  662D696E          sub ax,0x6e69
00002F7B  69742E6300000000  imul esi,[esi+ebp+0x63],dword 0x0
00002F83  7374              jnc 0x2ff9
00002F85  646465662E680001  cs push word 0x100
00002F8D  0000              add [eax],al
00002F8F  0000              add [eax],al
00002F91  0502809A04        add eax,0x49a8002
00002F96  0803              or [ebx],al
00002F98  830101            add dword [ecx],byte +0x1
00002F9B  44                inc esp
00002F9C  035EC8            add ebx,[esi-0x38]
00002F9F  030E              add ecx,[esi]
00002FA1  083C5B            or [ebx+ebx*2],bh
00002FA4  086708            or [edi+0x8],ah
00002FA7  9D                popf
00002FA8  7602              jna 0x2fac
00002FAA  0800              or [eax],al
00002FAC  0101              add [ecx],eax
00002FAE  0000              add [eax],al
00002FB0  1000              adc [eax],al
00002FB2  0000              add [eax],al
00002FB4  FF                db 0xFF
00002FB5  FF                db 0xFF
00002FB6  FF                db 0xFF
00002FB7  FF01              inc dword [ecx]
00002FB9  0001              add [ecx],al
00002FBB  7C08              jl 0x2fc5
00002FBD  0C04              or al,0x4
00002FBF  0488              add al,0x88
00002FC1  0100              add [eax],eax
00002FC3  001400            add [eax+eax],dl
00002FC6  0000              add [eax],al
00002FC8  0000              add [eax],al
00002FCA  0000              add [eax],al
00002FCC  809A0408050000    sbb byte [edx+0x50804],0x0
00002FD3  00410E            add [ecx+0xe],al
00002FD6  084285            or [edx-0x7b],al
00002FD9  020D051C0000      add cl,[0x1c05]
00002FDF  0000              add [eax],al
00002FE1  0000              add [eax],al
00002FE3  00909A04085A      add [eax+0x5a08049a],dl
00002FE9  0000              add [eax],al
00002FEB  00410E            add [ecx+0xe],al
00002FEE  084285            or [edx-0x7b],al
00002FF1  020D054E8305      add cl,[0x5834e05]
00002FF7  860487            xchg al,[edi+eax*4]
00002FFA  0300              add eax,[eax]
00002FFC  7368              jnc 0x3066
00002FFE  6F                outsd
00002FFF  7274              jc 0x3075
00003001  20756E            and [ebp+0x6e],dh
00003004  7369              jnc 0x306f
00003006  676E              a16 outsb
00003008  656420696E        and [fs:ecx+0x6e],ch
0000300D  7400              jz 0x300f
0000300F  7368              jnc 0x3079
00003011  6F                outsd
00003012  7274              jc 0x3088
00003014  20696E            and [ecx+0x6e],ch
00003017  7400              jz 0x3019
00003019  5F                pop edi
0000301A  49                dec ecx
0000301B  4F                dec edi
0000301C  5F                pop edi
0000301D  7374              jnc 0x3093
0000301F  64696E5F75736564  imul ebp,[fs:esi+0x5f],dword 0x64657375
00003027  006C6F6E          add [edi+ebp*2+0x6e],ch
0000302B  67206C6F          and [si+0x6f],ch
0000302F  6E                outsb
00003030  6720756E          and [di+0x6e],dh
00003034  7369              jnc 0x309f
00003036  676E              a16 outsb
00003038  656420696E        and [fs:ecx+0x6e],ch
0000303D  7400              jz 0x303f
0000303F  2F                das
00003040  686F6D652F        push dword 0x2f656d6f
00003045  7069              jo 0x30b0
00003047  657272            gs jc 0x30bc
0000304A  652F              gs das
0000304C  42                inc edx
0000304D  7572              jnz 0x30c1
0000304F  6561              gs popa
00003051  752F              jnz 0x3082
00003053  6865616465        push dword 0x65646165
00003058  7273              jc 0x30cd
0000305A  2D676C6962        sub eax,0x62696c67
0000305F  632D666F722D      arpl [0x2d726f66],bp
00003065  6C                insb
00003066  696E75782F676C    imul ebp,[esi+0x75],dword 0x6c672f78
0000306D  6962632D322E31    imul esp,[edx+0x63],dword 0x312e322d
00003074  322E              xor ch,[esi]
00003076  322F              xor ch,[edi]
00003078  637375            arpl [ebx+0x75],si
0000307B  00756E            add [ebp+0x6e],dh
0000307E  7369              jnc 0x30e9
00003080  676E              a16 outsb
00003082  6564206368        and [fs:ebx+0x68],ah
00003087  61                popa
00003088  7200              jc 0x308a
0000308A  47                inc edi
0000308B  4E                dec esi
0000308C  55                push ebp
0000308D  204320            and [ebx+0x20],al
00003090  342E              xor al,0x2e
00003092  342E              xor al,0x2e
00003094  3300              xor eax,[eax]
00003096  6C                insb
00003097  6F                outsd
00003098  6E                outsb
00003099  67206C6F          and [si+0x6f],ch
0000309D  6E                outsb
0000309E  6720696E          and [bx+di+0x6e],ch
000030A2  7400              jz 0x30a4
000030A4  656E              gs outsb
000030A6  7670              jna 0x3118
000030A8  007369            add [ebx+0x69],dh
000030AB  7A65              jpe 0x3112
000030AD  5F                pop edi
000030AE  7400              jz 0x30b0
000030B0  61                popa
000030B1  7267              jc 0x311a
000030B3  6300              arpl [eax],ax
000030B5  5F                pop edi
000030B6  5F                pop edi
000030B7  6C                insb
000030B8  6962635F637375    imul esp,[edx+0x63],dword 0x7573635f
000030BF  5F                pop edi
000030C0  696E697400656C    imul ebp,[esi+0x69],dword 0x6c650074
000030C7  662D696E          sub ax,0x6e69
000030CB  69742E63005F5F69  imul esi,[esi+ebp+0x63],dword 0x695f5f00
000030D3  6E                outsb
000030D4  69745F6172726179  imul esi,[edi+ebx*2+0x61],dword 0x79617272
000030DC  5F                pop edi
000030DD  7374              jnc 0x3153
000030DF  61                popa
000030E0  7274              jc 0x3156
000030E2  007369            add [ebx+0x69],dh
000030E5  7A65              jpe 0x314c
000030E7  005F5F            add [edi+0x5f],bl
000030EA  696E69745F6172    imul ebp,[esi+0x69],dword 0x72615f74
000030F1  7261              jc 0x3154
000030F3  795F              jns 0x3154
000030F5  656E              gs outsb
000030F7  64005F5F          add [fs:edi+0x5f],bl
000030FB  6C                insb
000030FC  6962635F637375    imul esp,[edx+0x63],dword 0x7573635f
00003103  5F                pop edi
00003104  66696E690061      imul bp,[esi+0x69],word 0x6100
0000310A  7267              jc 0x3173
0000310C  7600              jna 0x310e
0000310E  0000              add [eax],al
00003110  0000              add [eax],al
00003112  0100              add [eax],eax
00003114  0000              add [eax],al
00003116  0200              add al,[eax]
00003118  7404              jz 0x311e
0000311A  0100              add [eax],eax
0000311C  0000              add [eax],al
0000311E  0300              add eax,[eax]
00003120  0000              add [eax],al
00003122  0200              add al,[eax]
00003124  7408              jz 0x312e
00003126  0300              add eax,[eax]
00003128  0000              add [eax],al
0000312A  0500000002        add eax,0x2000000
0000312F  007508            add [ebp+0x8],dh
00003132  0000              add [eax],al
00003134  0000              add [eax],al
00003136  0000              add [eax],al
00003138  0000              add [eax],al
0000313A  1000              adc [eax],al
0000313C  0000              add [eax],al
0000313E  1100              adc [eax],eax
00003140  0000              add [eax],al
00003142  0200              add al,[eax]
00003144  7404              jz 0x314a
00003146  1100              adc [eax],eax
00003148  0000              add [eax],al
0000314A  1300              adc eax,[eax]
0000314C  0000              add [eax],al
0000314E  0200              add al,[eax]
00003150  7408              jz 0x315a
00003152  1300              adc eax,[eax]
00003154  0000              add [eax],al
00003156  6A00              push byte +0x0
00003158  0000              add [eax],al
0000315A  0200              add al,[eax]
0000315C  7508              jnz 0x3166
0000315E  0000              add [eax],al
00003160  0000              add [eax],al
00003162  0000              add [eax],al
00003164  0000              add [eax],al
00003166  40                inc eax
00003167  0000              add [eax],al
00003169  006700            add [edi+0x0],ah
0000316C  0000              add [eax],al
0000316E  0100              add [eax],eax
00003170  56                push esi
00003171  0000              add [eax],al
00003173  0000              add [eax],al
00003175  0000              add [eax],al
00003177  0000              add [eax],al
00003179  002E              add [esi],ch
0000317B  7379              jnc 0x31f6
0000317D  6D                insd
0000317E  7461              jz 0x31e1
00003180  6200              bound eax,[eax]
00003182  2E7374            cs jnc 0x31f9
00003185  7274              jc 0x31fb
00003187  61                popa
00003188  6200              bound eax,[eax]
0000318A  2E7368            cs jnc 0x31f5
0000318D  7374              jnc 0x3203
0000318F  7274              jc 0x3205
00003191  61                popa
00003192  6200              bound eax,[eax]
00003194  2E696E7465727000  imul ebp,[cs:esi+0x74],dword 0x707265
0000319C  2E6E              cs outsb
0000319E  6F                outsd
0000319F  7465              jz 0x3206
000031A1  2E41              cs inc ecx
000031A3  42                inc edx
000031A4  49                dec ecx
000031A5  2D74616700        sub eax,0x676174
000031AA  2E6861736800      cs push dword 0x687361
000031B0  2E64796E          fs jns 0x3222
000031B4  7379              jnc 0x322f
000031B6  6D                insd
000031B7  002E              add [esi],ch
000031B9  64796E            fs jns 0x322a
000031BC  7374              jnc 0x3232
000031BE  7200              jc 0x31c0
000031C0  2E676E            cs a16 outsb
000031C3  752E              jnz 0x31f3
000031C5  7665              jna 0x322c
000031C7  7273              jc 0x323c
000031C9  696F6E002E676E    imul ebp,[edi+0x6e],dword 0x6e672e00
000031D0  752E              jnz 0x3200
000031D2  7665              jna 0x3239
000031D4  7273              jc 0x3249
000031D6  696F6E5F72002E    imul ebp,[edi+0x6e],dword 0x2e00725f
000031DD  7265              jc 0x3244
000031DF  6C                insb
000031E0  2E64796E          fs jns 0x3252
000031E4  002E              add [esi],ch
000031E6  7265              jc 0x324d
000031E8  6C                insb
000031E9  2E706C            cs jo 0x3258
000031EC  7400              jz 0x31ee
000031EE  2E696E6974002E74  imul ebp,[cs:esi+0x69],dword 0x742e0074
000031F6  657874            gs js 0x326d
000031F9  002E              add [esi],ch
000031FB  66696E69002E      imul bp,[esi+0x69],word 0x2e00
00003201  726F              jc 0x3272
00003203  6461              fs popa
00003205  7461              jz 0x3268
00003207  002E              add [esi],ch
00003209  65685F667261      gs push dword 0x6172665f
0000320F  6D                insd
00003210  655F              gs pop edi
00003212  686472002E        push dword 0x2e007264
00003217  65685F667261      gs push dword 0x6172665f
0000321D  6D                insd
0000321E  65002E            add [gs:esi],ch
00003221  6763635F          arpl [bp+di+0x5f],sp
00003225  657863            gs js 0x328b
00003228  657074            gs jo 0x329f
0000322B  5F                pop edi
0000322C  7461              jz 0x328f
0000322E  626C6500          bound ebp,[ebp+0x0]
00003232  2E63746F72        arpl [cs:edi+ebp*2+0x72],si
00003237  7300              jnc 0x3239
00003239  2E64746F          fs jz 0x32ac
0000323D  7273              jc 0x32b2
0000323F  002E              add [esi],ch
00003241  6A63              push byte +0x63
00003243  7200              jc 0x3245
00003245  2E64796E          fs jns 0x32b7
00003249  61                popa
0000324A  6D                insd
0000324B  6963002E676F74    imul esp,[ebx+0x0],dword 0x746f672e
00003252  002E              add [esi],ch
00003254  676F              a16 outsd
00003256  742E              jz 0x3286
00003258  706C              jo 0x32c6
0000325A  7400              jz 0x325c
0000325C  2E6461            fs popa
0000325F  7461              jz 0x32c2
00003261  002E              add [esi],ch
00003263  627373            bound esi,[ebx+0x73]
00003266  002E              add [esi],ch
00003268  636F6D            arpl [edi+0x6d],bp
0000326B  6D                insd
0000326C  656E              gs outsb
0000326E  7400              jz 0x3270
00003270  2E6465627567      bound esi,[gs:ebp+0x67]
00003276  5F                pop edi
00003277  61                popa
00003278  7261              jc 0x32db
0000327A  6E                outsb
0000327B  67657300          gs a16 jnc 0x327f
0000327F  2E6465627567      bound esi,[gs:ebp+0x67]
00003285  5F                pop edi
00003286  7075              jo 0x32fd
00003288  626E61            bound ebp,[esi+0x61]
0000328B  6D                insd
0000328C  657300            gs jnc 0x328f
0000328F  2E6465627567      bound esi,[gs:ebp+0x67]
00003295  5F                pop edi
00003296  696E666F002E64    imul ebp,[esi+0x66],dword 0x642e006f
0000329D  65627567          bound esi,[gs:ebp+0x67]
000032A1  5F                pop edi
000032A2  61                popa
000032A3  626272            bound esp,[edx+0x72]
000032A6  657600            gs jna 0x32a9
000032A9  2E6465627567      bound esi,[gs:ebp+0x67]
000032AF  5F                pop edi
000032B0  6C                insb
000032B1  696E65002E6465    imul ebp,[esi+0x65],dword 0x65642e00
000032B8  627567            bound esi,[ebp+0x67]
000032BB  5F                pop edi
000032BC  667261            o16 jc 0x3320
000032BF  6D                insd
000032C0  65002E            add [gs:esi],ch
000032C3  6465627567        bound esi,[gs:ebp+0x67]
000032C8  5F                pop edi
000032C9  7374              jnc 0x333f
000032CB  7200              jc 0x32cd
000032CD  2E6465627567      bound esi,[gs:ebp+0x67]
000032D3  5F                pop edi
000032D4  6C                insb
000032D5  6F                outsd
000032D6  6300              arpl [eax],ax
000032D8  0000              add [eax],al
000032DA  0000              add [eax],al
000032DC  0000              add [eax],al
000032DE  0000              add [eax],al
000032E0  0000              add [eax],al
000032E2  0000              add [eax],al
000032E4  0000              add [eax],al
000032E6  0000              add [eax],al
000032E8  0000              add [eax],al
000032EA  0000              add [eax],al
000032EC  0000              add [eax],al
000032EE  0000              add [eax],al
000032F0  0000              add [eax],al
000032F2  0000              add [eax],al
000032F4  0000              add [eax],al
000032F6  0000              add [eax],al
000032F8  0000              add [eax],al
000032FA  0000              add [eax],al
000032FC  0000              add [eax],al
000032FE  0000              add [eax],al
00003300  1B00              sbb eax,[eax]
00003302  0000              add [eax],al
00003304  0100              add [eax],eax
00003306  0000              add [eax],al
00003308  0200              add al,[eax]
0000330A  0000              add [eax],al
0000330C  3481              xor al,0x81
0000330E  0408              add al,0x8
00003310  3401              xor al,0x1
00003312  0000              add [eax],al
00003314  1300              adc eax,[eax]
00003316  0000              add [eax],al
00003318  0000              add [eax],al
0000331A  0000              add [eax],al
0000331C  0000              add [eax],al
0000331E  0000              add [eax],al
00003320  0100              add [eax],eax
00003322  0000              add [eax],al
00003324  0000              add [eax],al
00003326  0000              add [eax],al
00003328  2300              and eax,[eax]
0000332A  0000              add [eax],al
0000332C  07                pop es
0000332D  0000              add [eax],al
0000332F  0002              add [edx],al
00003331  0000              add [eax],al
00003333  004881            add [eax-0x7f],cl
00003336  0408              add al,0x8
00003338  48                dec eax
00003339  0100              add [eax],eax
0000333B  0020              add [eax],ah
0000333D  0000              add [eax],al
0000333F  0000              add [eax],al
00003341  0000              add [eax],al
00003343  0000              add [eax],al
00003345  0000              add [eax],al
00003347  000400            add [eax+eax],al
0000334A  0000              add [eax],al
0000334C  0000              add [eax],al
0000334E  0000              add [eax],al
00003350  3100              xor [eax],eax
00003352  0000              add [eax],al
00003354  0500000002        add eax,0x2000000
00003359  0000              add [eax],al
0000335B  006881            add [eax-0x7f],ch
0000335E  0408              add al,0x8
00003360  68010000A4        push dword 0xa4000001
00003365  0000              add [eax],al
00003367  000400            add [eax+eax],al
0000336A  0000              add [eax],al
0000336C  0000              add [eax],al
0000336E  0000              add [eax],al
00003370  0400              add al,0x0
00003372  0000              add [eax],al
00003374  0400              add al,0x0
00003376  0000              add [eax],al
00003378  37                aaa
00003379  0000              add [eax],al
0000337B  000B              add [ebx],cl
0000337D  0000              add [eax],al
0000337F  0002              add [edx],al
00003381  0000              add [eax],al
00003383  000C82            add [edx+eax*4],cl
00003386  0408              add al,0x8
00003388  0C02              or al,0x2
0000338A  0000              add [eax],al
0000338C  60                pusha
0000338D  0100              add [eax],eax
0000338F  000500000001      add [0x1000000],al
00003395  0000              add [eax],al
00003397  000400            add [eax+eax],al
0000339A  0000              add [eax],al
0000339C  1000              adc [eax],al
0000339E  0000              add [eax],al
000033A0  3F                aas
000033A1  0000              add [eax],al
000033A3  0003              add [ebx],al
000033A5  0000              add [eax],al
000033A7  0002              add [edx],al
000033A9  0000              add [eax],al
000033AB  006C8304          add [ebx+eax*4+0x4],ch
000033AF  086C0300          or [ebx+eax+0x0],ch
000033B3  005A02            add [edx+0x2],bl
000033B6  0000              add [eax],al
000033B8  0000              add [eax],al
000033BA  0000              add [eax],al
000033BC  0000              add [eax],al
000033BE  0000              add [eax],al
000033C0  0100              add [eax],eax
000033C2  0000              add [eax],al
000033C4  0000              add [eax],al
000033C6  0000              add [eax],al
000033C8  47                inc edi
000033C9  0000              add [eax],al
000033CB  00FF              add bh,bh
000033CD  FF                db 0xFF
000033CE  FF6F02            jmp far [edi+0x2]
000033D1  0000              add [eax],al
000033D3  00C6              add dh,al
000033D5  850408            test [eax+ecx],eax
000033D8  C60500002C0000    mov byte [0x2c0000],0x0
000033DF  000400            add [eax+eax],al
000033E2  0000              add [eax],al
000033E4  0000              add [eax],al
000033E6  0000              add [eax],al
000033E8  0200              add al,[eax]
000033EA  0000              add [eax],al
000033EC  0200              add al,[eax]
000033EE  0000              add [eax],al
000033F0  54                push esp
000033F1  0000              add [eax],al
000033F3  00FE              add dh,bh
000033F5  FF                db 0xFF
000033F6  FF6F02            jmp far [edi+0x2]
000033F9  0000              add [eax],al
000033FB  00F4              add ah,dh
000033FD  850408            test [eax+ecx],eax
00003400  F4                hlt
00003401  0500008000        add eax,0x800000
00003406  0000              add [eax],al
00003408  0500000003        add eax,0x3000000
0000340D  0000              add [eax],al
0000340F  000400            add [eax+eax],al
00003412  0000              add [eax],al
00003414  0000              add [eax],al
00003416  0000              add [eax],al
00003418  6300              arpl [eax],ax
0000341A  0000              add [eax],al
0000341C  0900              or [eax],eax
0000341E  0000              add [eax],al
00003420  0200              add al,[eax]
00003422  0000              add [eax],al
00003424  7486              jz 0x33ac
00003426  0408              add al,0x8
00003428  7406              jz 0x3430
0000342A  0000              add [eax],al
0000342C  0800              or [eax],al
0000342E  0000              add [eax],al
00003430  0400              add al,0x0
00003432  0000              add [eax],al
00003434  0000              add [eax],al
00003436  0000              add [eax],al
00003438  0400              add al,0x0
0000343A  0000              add [eax],al
0000343C  0800              or [eax],al
0000343E  0000              add [eax],al
00003440  6C                insb
00003441  0000              add [eax],al
00003443  0009              add [ecx],cl
00003445  0000              add [eax],al
00003447  0002              add [edx],al
00003449  0000              add [eax],al
0000344B  007C8604          add [esi+eax*4+0x4],bh
0000344F  087C0600          or [esi+eax+0x0],bh
00003453  008800000004      add [eax+0x4000000],cl
00003459  0000              add [eax],al
0000345B  000B              add [ebx],cl
0000345D  0000              add [eax],al
0000345F  000400            add [eax+eax],al
00003462  0000              add [eax],al
00003464  0800              or [eax],al
00003466  0000              add [eax],al
00003468  7500              jnz 0x346a
0000346A  0000              add [eax],al
0000346C  0100              add [eax],eax
0000346E  0000              add [eax],al
00003470  06                push es
00003471  0000              add [eax],al
00003473  000487            add [edi+eax*4],al
00003476  0408              add al,0x8
00003478  0407              add al,0x7
0000347A  0000              add [eax],al
0000347C  3000              xor [eax],al
0000347E  0000              add [eax],al
00003480  0000              add [eax],al
00003482  0000              add [eax],al
00003484  0000              add [eax],al
00003486  0000              add [eax],al
00003488  0400              add al,0x0
0000348A  0000              add [eax],al
0000348C  0000              add [eax],al
0000348E  0000              add [eax],al
00003490  7000              jo 0x3492
00003492  0000              add [eax],al
00003494  0100              add [eax],eax
00003496  0000              add [eax],al
00003498  06                push es
00003499  0000              add [eax],al
0000349B  004087            add [eax-0x79],al
0000349E  0408              add al,0x8
000034A0  40                inc eax
000034A1  07                pop es
000034A2  0000              add [eax],al
000034A4  2001              and [ecx],al
000034A6  0000              add [eax],al
000034A8  0000              add [eax],al
000034AA  0000              add [eax],al
000034AC  0000              add [eax],al
000034AE  0000              add [eax],al
000034B0  1000              adc [eax],al
000034B2  0000              add [eax],al
000034B4  0400              add al,0x0
000034B6  0000              add [eax],al
000034B8  7B00              jpo 0x34ba
000034BA  0000              add [eax],al
000034BC  0100              add [eax],eax
000034BE  0000              add [eax],al
000034C0  06                push es
000034C1  0000              add [eax],al
000034C3  006088            add [eax-0x78],ah
000034C6  0408              add al,0x8
000034C8  60                pusha
000034C9  0800              or [eax],al
000034CB  00B812000000      add [eax+0x12],bh
000034D1  0000              add [eax],al
000034D3  0000              add [eax],al
000034D5  0000              add [eax],al
000034D7  0010              add [eax],dl
000034D9  0000              add [eax],al
000034DB  0000              add [eax],al
000034DD  0000              add [eax],al
000034DF  008100000001      add [ecx+0x1000000],al
000034E5  0000              add [eax],al
000034E7  0006              add [esi],al
000034E9  0000              add [eax],al
000034EB  0018              add [eax],bl
000034ED  9B                wait
000034EE  0408              add al,0x8
000034F0  181B              sbb [ebx],bl
000034F2  0000              add [eax],al
000034F4  1C00              sbb al,0x0
000034F6  0000              add [eax],al
000034F8  0000              add [eax],al
000034FA  0000              add [eax],al
000034FC  0000              add [eax],al
000034FE  0000              add [eax],al
00003500  0400              add al,0x0
00003502  0000              add [eax],al
00003504  0000              add [eax],al
00003506  0000              add [eax],al
00003508  8700              xchg eax,[eax]
0000350A  0000              add [eax],al
0000350C  0100              add [eax],eax
0000350E  0000              add [eax],al
00003510  0200              add al,[eax]
00003512  0000              add [eax],al
00003514  349B              xor al,0x9b
00003516  0408              add al,0x8
00003518  341B              xor al,0x1b
0000351A  0000              add [eax],al
0000351C  3B00              cmp eax,[eax]
0000351E  0000              add [eax],al
00003520  0000              add [eax],al
00003522  0000              add [eax],al
00003524  0000              add [eax],al
00003526  0000              add [eax],al
00003528  0400              add al,0x0
0000352A  0000              add [eax],al
0000352C  0000              add [eax],al
0000352E  0000              add [eax],al
00003530  8F00              pop dword [eax]
00003532  0000              add [eax],al
00003534  0100              add [eax],eax
00003536  0000              add [eax],al
00003538  0200              add al,[eax]
0000353A  0000              add [eax],al
0000353C  709B              jo 0x34d9
0000353E  0408              add al,0x8
00003540  701B              jo 0x355d
00003542  0000              add [eax],al
00003544  8402              test [edx],al
00003546  0000              add [eax],al
00003548  0000              add [eax],al
0000354A  0000              add [eax],al
0000354C  0000              add [eax],al
0000354E  0000              add [eax],al
00003550  0400              add al,0x0
00003552  0000              add [eax],al
00003554  0000              add [eax],al
00003556  0000              add [eax],al
00003558  9D                popf
00003559  0000              add [eax],al
0000355B  0001              add [ecx],al
0000355D  0000              add [eax],al
0000355F  0002              add [edx],al
00003561  0000              add [eax],al
00003563  00F4              add ah,dh
00003565  9D                popf
00003566  0408              add al,0x8
00003568  F4                hlt
00003569  1D0000880A        sbb eax,0xa880000
0000356E  0000              add [eax],al
00003570  0000              add [eax],al
00003572  0000              add [eax],al
00003574  0000              add [eax],al
00003576  0000              add [eax],al
00003578  0400              add al,0x0
0000357A  0000              add [eax],al
0000357C  0000              add [eax],al
0000357E  0000              add [eax],al
00003580  A7                cmpsd
00003581  0000              add [eax],al
00003583  0001              add [ecx],al
00003585  0000              add [eax],al
00003587  0002              add [edx],al
00003589  0000              add [eax],al
0000358B  007CA804          add [eax+ebp*4+0x4],bh
0000358F  087C2800          or [eax+ebp+0x0],bh
00003593  00AF00000000      add [edi+0x0],ch
00003599  0000              add [eax],al
0000359B  0000              add [eax],al
0000359D  0000              add [eax],al
0000359F  0001              add [ecx],al
000035A1  0000              add [eax],al
000035A3  0000              add [eax],al
000035A5  0000              add [eax],al
000035A7  00B900000001      add [ecx+0x1000000],bh
000035AD  0000              add [eax],al
000035AF  0003              add [ebx],al
000035B1  0000              add [eax],al
000035B3  002CB9            add [ecx+edi*4],ch
000035B6  0408              add al,0x8
000035B8  2C29              sub al,0x29
000035BA  0000              add [eax],al
000035BC  0C00              or al,0x0
000035BE  0000              add [eax],al
000035C0  0000              add [eax],al
000035C2  0000              add [eax],al
000035C4  0000              add [eax],al
000035C6  0000              add [eax],al
000035C8  0400              add al,0x0
000035CA  0000              add [eax],al
000035CC  0000              add [eax],al
000035CE  0000              add [eax],al
000035D0  C00000            rol byte [eax],0x0
000035D3  0001              add [ecx],al
000035D5  0000              add [eax],al
000035D7  0003              add [ebx],al
000035D9  0000              add [eax],al
000035DB  0038              add [eax],bh
000035DD  B904083829        mov ecx,0x29380804
000035E2  0000              add [eax],al
000035E4  0800              or [eax],al
000035E6  0000              add [eax],al
000035E8  0000              add [eax],al
000035EA  0000              add [eax],al
000035EC  0000              add [eax],al
000035EE  0000              add [eax],al
000035F0  0400              add al,0x0
000035F2  0000              add [eax],al
000035F4  0000              add [eax],al
000035F6  0000              add [eax],al
000035F8  C70000000100      mov dword [eax],0x10000
000035FE  0000              add [eax],al
00003600  0300              add eax,[eax]
00003602  0000              add [eax],al
00003604  40                inc eax
00003605  B904084029        mov ecx,0x29400804
0000360A  0000              add [eax],al
0000360C  0400              add al,0x0
0000360E  0000              add [eax],al
00003610  0000              add [eax],al
00003612  0000              add [eax],al
00003614  0000              add [eax],al
00003616  0000              add [eax],al
00003618  0400              add al,0x0
0000361A  0000              add [eax],al
0000361C  0000              add [eax],al
0000361E  0000              add [eax],al
00003620  CC                int3
00003621  0000              add [eax],al
00003623  0006              add [esi],al
00003625  0000              add [eax],al
00003627  0003              add [ebx],al
00003629  0000              add [eax],al
0000362B  0044B904          add [ecx+edi*4+0x4],al
0000362F  08442900          or [ecx+ebp+0x0],al
00003633  00E0              add al,ah
00003635  0000              add [eax],al
00003637  000500000000      add [0x0],al
0000363D  0000              add [eax],al
0000363F  000400            add [eax+eax],al
00003642  0000              add [eax],al
00003644  0800              or [eax],al
00003646  0000              add [eax],al
00003648  D500              aad 0x0
0000364A  0000              add [eax],al
0000364C  0100              add [eax],eax
0000364E  0000              add [eax],al
00003650  0300              add eax,[eax]
00003652  0000              add [eax],al
00003654  24BA              and al,0xba
00003656  0408              add al,0x8
00003658  242A              and al,0x2a
0000365A  0000              add [eax],al
0000365C  0400              add al,0x0
0000365E  0000              add [eax],al
00003660  0000              add [eax],al
00003662  0000              add [eax],al
00003664  0000              add [eax],al
00003666  0000              add [eax],al
00003668  0400              add al,0x0
0000366A  0000              add [eax],al
0000366C  0400              add al,0x0
0000366E  0000              add [eax],al
00003670  DA00              fiadd dword [eax]
00003672  0000              add [eax],al
00003674  0100              add [eax],eax
00003676  0000              add [eax],al
00003678  0300              add eax,[eax]
0000367A  0000              add [eax],al
0000367C  28BA0408282A      sub [edx+0x2a280804],bh
00003682  0000              add [eax],al
00003684  50                push eax
00003685  0000              add [eax],al
00003687  0000              add [eax],al
00003689  0000              add [eax],al
0000368B  0000              add [eax],al
0000368D  0000              add [eax],al
0000368F  000400            add [eax+eax],al
00003692  0000              add [eax],al
00003694  0400              add al,0x0
00003696  0000              add [eax],al
00003698  E300              jecxz 0x369a
0000369A  0000              add [eax],al
0000369C  0100              add [eax],eax
0000369E  0000              add [eax],al
000036A0  0300              add eax,[eax]
000036A2  0000              add [eax],al
000036A4  78BA              js 0x3660
000036A6  0408              add al,0x8
000036A8  782A              js 0x36d4
000036AA  0000              add [eax],al
000036AC  0800              or [eax],al
000036AE  0000              add [eax],al
000036B0  0000              add [eax],al
000036B2  0000              add [eax],al
000036B4  0000              add [eax],al
000036B6  0000              add [eax],al
000036B8  0400              add al,0x0
000036BA  0000              add [eax],al
000036BC  0000              add [eax],al
000036BE  0000              add [eax],al
000036C0  E900000008        jmp 0x80036c5
000036C5  0000              add [eax],al
000036C7  0003              add [ebx],al
000036C9  0000              add [eax],al
000036CB  0080BA040880      add [eax+0x800804ba],al
000036D1  2A00              sub al,[eax]
000036D3  000C00            add [eax+eax],cl
000036D6  0000              add [eax],al
000036D8  0000              add [eax],al
000036DA  0000              add [eax],al
000036DC  0000              add [eax],al
000036DE  0000              add [eax],al
000036E0  0400              add al,0x0
000036E2  0000              add [eax],al
000036E4  0000              add [eax],al
000036E6  0000              add [eax],al
000036E8  EE                out dx,al
000036E9  0000              add [eax],al
000036EB  0001              add [ecx],al
000036ED  0000              add [eax],al
000036EF  0030              add [eax],dh
000036F1  0000              add [eax],al
000036F3  0000              add [eax],al
000036F5  0000              add [eax],al
000036F7  00802A000034      add [eax+0x3400002a],al
000036FD  0000              add [eax],al
000036FF  0000              add [eax],al
00003701  0000              add [eax],al
00003703  0000              add [eax],al
00003705  0000              add [eax],al
00003707  0001              add [ecx],al
00003709  0000              add [eax],al
0000370B  0001              add [ecx],al
0000370D  0000              add [eax],al
0000370F  00F7              add bh,dh
00003711  0000              add [eax],al
00003713  0001              add [ecx],al
00003715  0000              add [eax],al
00003717  0000              add [eax],al
00003719  0000              add [eax],al
0000371B  0000              add [eax],al
0000371D  0000              add [eax],al
0000371F  00B82A000040      add [eax+0x4000002a],bh
00003725  0000              add [eax],al
00003727  0000              add [eax],al
00003729  0000              add [eax],al
0000372B  0000              add [eax],al
0000372D  0000              add [eax],al
0000372F  0008              add [eax],cl
00003731  0000              add [eax],al
00003733  0000              add [eax],al
00003735  0000              add [eax],al
00003737  0006              add [esi],al
00003739  0100              add [eax],eax
0000373B  0001              add [ecx],al
0000373D  0000              add [eax],al
0000373F  0000              add [eax],al
00003741  0000              add [eax],al
00003743  0000              add [eax],al
00003745  0000              add [eax],al
00003747  00F8              add al,bh
00003749  2A00              sub al,[eax]
0000374B  005F00            add [edi+0x0],bl
0000374E  0000              add [eax],al
00003750  0000              add [eax],al
00003752  0000              add [eax],al
00003754  0000              add [eax],al
00003756  0000              add [eax],al
00003758  0100              add [eax],eax
0000375A  0000              add [eax],al
0000375C  0000              add [eax],al
0000375E  0000              add [eax],al
00003760  16                push ss
00003761  0100              add [eax],eax
00003763  0001              add [ecx],al
00003765  0000              add [eax],al
00003767  0000              add [eax],al
00003769  0000              add [eax],al
0000376B  0000              add [eax],al
0000376D  0000              add [eax],al
0000376F  00572B            add [edi+0x2b],dl
00003772  0000              add [eax],al
00003774  2102              and [edx],eax
00003776  0000              add [eax],al
00003778  0000              add [eax],al
0000377A  0000              add [eax],al
0000377C  0000              add [eax],al
0000377E  0000              add [eax],al
00003780  0100              add [eax],eax
00003782  0000              add [eax],al
00003784  0000              add [eax],al
00003786  0000              add [eax],al
00003788  2201              and al,[ecx]
0000378A  0000              add [eax],al
0000378C  0100              add [eax],eax
0000378E  0000              add [eax],al
00003790  0000              add [eax],al
00003792  0000              add [eax],al
00003794  0000              add [eax],al
00003796  0000              add [eax],al
00003798  782D              js 0x37c7
0000379A  0000              add [eax],al
0000379C  3501000000        xor eax,0x1
000037A1  0000              add [eax],al
000037A3  0000              add [eax],al
000037A5  0000              add [eax],al
000037A7  0001              add [ecx],al
000037A9  0000              add [eax],al
000037AB  0000              add [eax],al
000037AD  0000              add [eax],al
000037AF  0030              add [eax],dh
000037B1  0100              add [eax],eax
000037B3  0001              add [ecx],al
000037B5  0000              add [eax],al
000037B7  0000              add [eax],al
000037B9  0000              add [eax],al
000037BB  0000              add [eax],al
000037BD  0000              add [eax],al
000037BF  00AD2E000001      add [ebp+0x100002e],ch
000037C5  0100              add [eax],eax
000037C7  0000              add [eax],al
000037C9  0000              add [eax],al
000037CB  0000              add [eax],al
000037CD  0000              add [eax],al
000037CF  0001              add [ecx],al
000037D1  0000              add [eax],al
000037D3  0000              add [eax],al
000037D5  0000              add [eax],al
000037D7  003C01            add [ecx+eax],bh
000037DA  0000              add [eax],al
000037DC  0100              add [eax],eax
000037DE  0000              add [eax],al
000037E0  0000              add [eax],al
000037E2  0000              add [eax],al
000037E4  0000              add [eax],al
000037E6  0000              add [eax],al
000037E8  B02F              mov al,0x2f
000037EA  0000              add [eax],al
000037EC  4C                dec esp
000037ED  0000              add [eax],al
000037EF  0000              add [eax],al
000037F1  0000              add [eax],al
000037F3  0000              add [eax],al
000037F5  0000              add [eax],al
000037F7  000400            add [eax+eax],al
000037FA  0000              add [eax],al
000037FC  0000              add [eax],al
000037FE  0000              add [eax],al
00003800  49                dec ecx
00003801  0100              add [eax],eax
00003803  0001              add [ecx],al
00003805  0000              add [eax],al
00003807  0030              add [eax],dh
00003809  0000              add [eax],al
0000380B  0000              add [eax],al
0000380D  0000              add [eax],al
0000380F  00FC              add ah,bh
00003811  2F                das
00003812  0000              add [eax],al
00003814  1201              adc al,[ecx]
00003816  0000              add [eax],al
00003818  0000              add [eax],al
0000381A  0000              add [eax],al
0000381C  0000              add [eax],al
0000381E  0000              add [eax],al
00003820  0100              add [eax],eax
00003822  0000              add [eax],al
00003824  0100              add [eax],eax
00003826  0000              add [eax],al
00003828  54                push esp
00003829  0100              add [eax],eax
0000382B  0001              add [ecx],al
0000382D  0000              add [eax],al
0000382F  0000              add [eax],al
00003831  0000              add [eax],al
00003833  0000              add [eax],al
00003835  0000              add [eax],al
00003837  000E              add [esi],cl
00003839  3100              xor [eax],eax
0000383B  006B00            add [ebx+0x0],ch
0000383E  0000              add [eax],al
00003840  0000              add [eax],al
00003842  0000              add [eax],al
00003844  0000              add [eax],al
00003846  0000              add [eax],al
00003848  0100              add [eax],eax
0000384A  0000              add [eax],al
0000384C  0000              add [eax],al
0000384E  0000              add [eax],al
00003850  1100              adc [eax],eax
00003852  0000              add [eax],al
00003854  0300              add eax,[eax]
00003856  0000              add [eax],al
00003858  0000              add [eax],al
0000385A  0000              add [eax],al
0000385C  0000              add [eax],al
0000385E  0000              add [eax],al
00003860  7931              jns 0x3893
00003862  0000              add [eax],al
00003864  5F                pop edi
00003865  0100              add [eax],eax
00003867  0000              add [eax],al
00003869  0000              add [eax],al
0000386B  0000              add [eax],al
0000386D  0000              add [eax],al
0000386F  0001              add [ecx],al
00003871  0000              add [eax],al
00003873  0000              add [eax],al
00003875  0000              add [eax],al
00003877  0001              add [ecx],al
00003879  0000              add [eax],al
0000387B  0002              add [edx],al
0000387D  0000              add [eax],al
0000387F  0000              add [eax],al
00003881  0000              add [eax],al
00003883  0000              add [eax],al
00003885  0000              add [eax],al
00003887  00C8              add al,cl
00003889  3800              cmp [eax],al
0000388B  00400C            add [eax+0xc],al
0000388E  0000              add [eax],al
00003890  250000003F        and eax,0x3f000000
00003895  0000              add [eax],al
00003897  000400            add [eax+eax],al
0000389A  0000              add [eax],al
0000389C  1000              adc [eax],al
0000389E  0000              add [eax],al
000038A0  0900              or [eax],eax
000038A2  0000              add [eax],al
000038A4  0300              add eax,[eax]
000038A6  0000              add [eax],al
000038A8  0000              add [eax],al
000038AA  0000              add [eax],al
000038AC  0000              add [eax],al
000038AE  0000              add [eax],al
000038B0  084500            or [ebp+0x0],al
000038B3  000B              add [ebx],cl
000038B5  1A00              sbb al,[eax]
000038B7  0000              add [eax],al
000038B9  0000              add [eax],al
000038BB  0000              add [eax],al
000038BD  0000              add [eax],al
000038BF  0001              add [ecx],al
000038C1  0000              add [eax],al
000038C3  0000              add [eax],al
000038C5  0000              add [eax],al
000038C7  0000              add [eax],al
000038C9  0000              add [eax],al
000038CB  0000              add [eax],al
000038CD  0000              add [eax],al
000038CF  0000              add [eax],al
000038D1  0000              add [eax],al
000038D3  0000              add [eax],al
000038D5  0000              add [eax],al
000038D7  0000              add [eax],al
000038D9  0000              add [eax],al
000038DB  003481            add [ecx+eax*4],dh
000038DE  0408              add al,0x8
000038E0  0000              add [eax],al
000038E2  0000              add [eax],al
000038E4  0300              add eax,[eax]
000038E6  0100              add [eax],eax
000038E8  0000              add [eax],al
000038EA  0000              add [eax],al
000038EC  48                dec eax
000038ED  81040800000000    add dword [eax+ecx],0x0
000038F4  0300              add eax,[eax]
000038F6  0200              add al,[eax]
000038F8  0000              add [eax],al
000038FA  0000              add [eax],al
000038FC  6881040800        push dword 0x80481
00003901  0000              add [eax],al
00003903  0003              add [ebx],al
00003905  0003              add [ebx],al
00003907  0000              add [eax],al
00003909  0000              add [eax],al
0000390B  000C82            add [edx+eax*4],cl
0000390E  0408              add al,0x8
00003910  0000              add [eax],al
00003912  0000              add [eax],al
00003914  0300              add eax,[eax]
00003916  0400              add al,0x0
00003918  0000              add [eax],al
0000391A  0000              add [eax],al
0000391C  6C                insb
0000391D  83040800          add dword [eax+ecx],byte +0x0
00003921  0000              add [eax],al
00003923  0003              add [ebx],al
00003925  000500000000      add [0x0],al
0000392B  00C6              add dh,al
0000392D  850408            test [eax+ecx],eax
00003930  0000              add [eax],al
00003932  0000              add [eax],al
00003934  0300              add eax,[eax]
00003936  06                push es
00003937  0000              add [eax],al
00003939  0000              add [eax],al
0000393B  00F4              add ah,dh
0000393D  850408            test [eax+ecx],eax
00003940  0000              add [eax],al
00003942  0000              add [eax],al
00003944  0300              add eax,[eax]
00003946  07                pop es
00003947  0000              add [eax],al
00003949  0000              add [eax],al
0000394B  00748604          add [esi+eax*4+0x4],dh
0000394F  0800              or [eax],al
00003951  0000              add [eax],al
00003953  0003              add [ebx],al
00003955  0008              add [eax],cl
00003957  0000              add [eax],al
00003959  0000              add [eax],al
0000395B  007C8604          add [esi+eax*4+0x4],bh
0000395F  0800              or [eax],al
00003961  0000              add [eax],al
00003963  0003              add [ebx],al
00003965  0009              add [ecx],cl
00003967  0000              add [eax],al
00003969  0000              add [eax],al
0000396B  000487            add [edi+eax*4],al
0000396E  0408              add al,0x8
00003970  0000              add [eax],al
00003972  0000              add [eax],al
00003974  0300              add eax,[eax]
00003976  0A00              or al,[eax]
00003978  0000              add [eax],al
0000397A  0000              add [eax],al
0000397C  40                inc eax
0000397D  870408            xchg eax,[eax+ecx]
00003980  0000              add [eax],al
00003982  0000              add [eax],al
00003984  0300              add eax,[eax]
00003986  0B00              or eax,[eax]
00003988  0000              add [eax],al
0000398A  0000              add [eax],al
0000398C  60                pusha
0000398D  880408            mov [eax+ecx],al
00003990  0000              add [eax],al
00003992  0000              add [eax],al
00003994  0300              add eax,[eax]
00003996  0C00              or al,0x0
00003998  0000              add [eax],al
0000399A  0000              add [eax],al
0000399C  189B04080000      sbb [ebx+0x804],bl
000039A2  0000              add [eax],al
000039A4  0300              add eax,[eax]
000039A6  0D00000000        or eax,0x0
000039AB  00349B            add [ebx+ebx*4],dh
000039AE  0408              add al,0x8
000039B0  0000              add [eax],al
000039B2  0000              add [eax],al
000039B4  0300              add eax,[eax]
000039B6  0E                push cs
000039B7  0000              add [eax],al
000039B9  0000              add [eax],al
000039BB  00709B            add [eax-0x65],dh
000039BE  0408              add al,0x8
000039C0  0000              add [eax],al
000039C2  0000              add [eax],al
000039C4  0300              add eax,[eax]
000039C6  0F0000            sldt [eax]
000039C9  0000              add [eax],al
000039CB  00F4              add ah,dh
000039CD  9D                popf
000039CE  0408              add al,0x8
000039D0  0000              add [eax],al
000039D2  0000              add [eax],al
000039D4  0300              add eax,[eax]
000039D6  1000              adc [eax],al
000039D8  0000              add [eax],al
000039DA  0000              add [eax],al
000039DC  7CA8              jl 0x3986
000039DE  0408              add al,0x8
000039E0  0000              add [eax],al
000039E2  0000              add [eax],al
000039E4  0300              add eax,[eax]
000039E6  1100              adc [eax],eax
000039E8  0000              add [eax],al
000039EA  0000              add [eax],al
000039EC  2CB9              sub al,0xb9
000039EE  0408              add al,0x8
000039F0  0000              add [eax],al
000039F2  0000              add [eax],al
000039F4  0300              add eax,[eax]
000039F6  1200              adc al,[eax]
000039F8  0000              add [eax],al
000039FA  0000              add [eax],al
000039FC  38B904080000      cmp [ecx+0x804],bh
00003A02  0000              add [eax],al
00003A04  0300              add eax,[eax]
00003A06  1300              adc eax,[eax]
00003A08  0000              add [eax],al
00003A0A  0000              add [eax],al
00003A0C  40                inc eax
00003A0D  B904080000        mov ecx,0x804
00003A12  0000              add [eax],al
00003A14  0300              add eax,[eax]
00003A16  1400              adc al,0x0
00003A18  0000              add [eax],al
00003A1A  0000              add [eax],al
00003A1C  44                inc esp
00003A1D  B904080000        mov ecx,0x804
00003A22  0000              add [eax],al
00003A24  0300              add eax,[eax]
00003A26  1500000000        adc eax,0x0
00003A2B  0024BA            add [edx+edi*4],ah
00003A2E  0408              add al,0x8
00003A30  0000              add [eax],al
00003A32  0000              add [eax],al
00003A34  0300              add eax,[eax]
00003A36  16                push ss
00003A37  0000              add [eax],al
00003A39  0000              add [eax],al
00003A3B  0028              add [eax],ch
00003A3D  BA04080000        mov edx,0x804
00003A42  0000              add [eax],al
00003A44  0300              add eax,[eax]
00003A46  17                pop ss
00003A47  0000              add [eax],al
00003A49  0000              add [eax],al
00003A4B  0078BA            add [eax-0x46],bh
00003A4E  0408              add al,0x8
00003A50  0000              add [eax],al
00003A52  0000              add [eax],al
00003A54  0300              add eax,[eax]
00003A56  1800              sbb [eax],al
00003A58  0000              add [eax],al
00003A5A  0000              add [eax],al
00003A5C  80BA0408000000    cmp byte [edx+0x804],0x0
00003A63  0003              add [ebx],al
00003A65  0019              add [ecx],bl
00003A67  0000              add [eax],al
00003A69  0000              add [eax],al
00003A6B  0000              add [eax],al
00003A6D  0000              add [eax],al
00003A6F  0000              add [eax],al
00003A71  0000              add [eax],al
00003A73  0003              add [ebx],al
00003A75  001A              add [edx],bl
00003A77  0000              add [eax],al
00003A79  0000              add [eax],al
00003A7B  0000              add [eax],al
00003A7D  0000              add [eax],al
00003A7F  0000              add [eax],al
00003A81  0000              add [eax],al
00003A83  0003              add [ebx],al
00003A85  001B              add [ebx],bl
00003A87  0000              add [eax],al
00003A89  0000              add [eax],al
00003A8B  0000              add [eax],al
00003A8D  0000              add [eax],al
00003A8F  0000              add [eax],al
00003A91  0000              add [eax],al
00003A93  0003              add [ebx],al
00003A95  001C00            add [eax+eax],bl
00003A98  0000              add [eax],al
00003A9A  0000              add [eax],al
00003A9C  0000              add [eax],al
00003A9E  0000              add [eax],al
00003AA0  0000              add [eax],al
00003AA2  0000              add [eax],al
00003AA4  0300              add eax,[eax]
00003AA6  1D00000000        sbb eax,0x0
00003AAB  0000              add [eax],al
00003AAD  0000              add [eax],al
00003AAF  0000              add [eax],al
00003AB1  0000              add [eax],al
00003AB3  0003              add [ebx],al
00003AB5  001E              add [esi],bl
00003AB7  0000              add [eax],al
00003AB9  0000              add [eax],al
00003ABB  0000              add [eax],al
00003ABD  0000              add [eax],al
00003ABF  0000              add [eax],al
00003AC1  0000              add [eax],al
00003AC3  0003              add [ebx],al
00003AC5  001F              add [edi],bl
00003AC7  0000              add [eax],al
00003AC9  0000              add [eax],al
00003ACB  0000              add [eax],al
00003ACD  0000              add [eax],al
00003ACF  0000              add [eax],al
00003AD1  0000              add [eax],al
00003AD3  0003              add [ebx],al
00003AD5  0020              add [eax],ah
00003AD7  0000              add [eax],al
00003AD9  0000              add [eax],al
00003ADB  0000              add [eax],al
00003ADD  0000              add [eax],al
00003ADF  0000              add [eax],al
00003AE1  0000              add [eax],al
00003AE3  0003              add [ebx],al
00003AE5  0021              add [ecx],ah
00003AE7  0000              add [eax],al
00003AE9  0000              add [eax],al
00003AEB  0000              add [eax],al
00003AED  0000              add [eax],al
00003AEF  0000              add [eax],al
00003AF1  0000              add [eax],al
00003AF3  0003              add [ebx],al
00003AF5  0022              add [edx],ah
00003AF7  0001              add [ecx],al
00003AF9  0000              add [eax],al
00003AFB  0000              add [eax],al
00003AFD  0000              add [eax],al
00003AFF  0000              add [eax],al
00003B01  0000              add [eax],al
00003B03  000400            add [eax+eax],al
00003B06  F1                int1
00003B07  FF08              dec dword [eax]
00003B09  0000              add [eax],al
00003B0B  0000              add [eax],al
00003B0D  0000              add [eax],al
00003B0F  0000              add [eax],al
00003B11  0000              add [eax],al
00003B13  000400            add [eax+eax],al
00003B16  F1                int1
00003B17  FF13              call near [ebx]
00003B19  0000              add [eax],al
00003B1B  0000              add [eax],al
00003B1D  0000              add [eax],al
00003B1F  0000              add [eax],al
00003B21  0000              add [eax],al
00003B23  000400            add [eax+eax],al
00003B26  F1                int1
00003B27  FF1E              call far [esi]
00003B29  0000              add [eax],al
00003B2B  002CB9            add [ecx+edi*4],ch
00003B2E  0408              add al,0x8
00003B30  0000              add [eax],al
00003B32  0000              add [eax],al
00003B34  0100              add [eax],eax
00003B36  1200              adc al,[eax]
00003B38  2C00              sub al,0x0
00003B3A  0000              add [eax],al
00003B3C  38B904080000      cmp [ecx+0x804],bh
00003B42  0000              add [eax],al
00003B44  0100              add [eax],eax
00003B46  1300              adc eax,[eax]
00003B48  3A00              cmp al,[eax]
00003B4A  0000              add [eax],al
00003B4C  40                inc eax
00003B4D  B904080000        mov ecx,0x804
00003B52  0000              add [eax],al
00003B54  0100              add [eax],eax
00003B56  1400              adc al,0x0
00003B58  47                inc edi
00003B59  0000              add [eax],al
00003B5B  009088040800      add [eax+0x80488],dl
00003B61  0000              add [eax],al
00003B63  0002              add [edx],al
00003B65  000C00            add [eax+eax],cl
00003B68  5C                pop esp
00003B69  0000              add [eax],al
00003B6B  00C0              add al,al
00003B6D  880408            mov [eax+ecx],al
00003B70  0000              add [eax],al
00003B72  0000              add [eax],al
00003B74  0200              add al,[eax]
00003B76  0C00              or al,0x0
00003B78  6F                outsd
00003B79  0000              add [eax],al
00003B7B  0000              add [eax],al
00003B7D  890408            mov [eax+ecx],eax
00003B80  0000              add [eax],al
00003B82  0000              add [eax],al
00003B84  0200              add al,[eax]
00003B86  0C00              or al,0x0
00003B88  8500              test [eax],eax
00003B8A  0000              add [eax],al
00003B8C  80BA0408010000    cmp byte [edx+0x10804],0x0
00003B93  0001              add [ecx],al
00003B95  0019              add [ecx],bl
00003B97  009400000084BA    add [eax+eax+0xba840000],dl
00003B9E  0408              add al,0x8
00003BA0  0400              add al,0x0
00003BA2  0000              add [eax],al
00003BA4  0100              add [eax],eax
00003BA6  1900              sbb [eax],eax
00003BA8  A200000050        mov [0x50000000],al
00003BAD  890408            mov [eax+ecx],eax
00003BB0  0000              add [eax],al
00003BB2  0000              add [eax],al
00003BB4  0200              add al,[eax]
00003BB6  0C00              or al,0x0
00003BB8  1300              adc eax,[eax]
00003BBA  0000              add [eax],al
00003BBC  0000              add [eax],al
00003BBE  0000              add [eax],al
00003BC0  0000              add [eax],al
00003BC2  0000              add [eax],al
00003BC4  0400              add al,0x0
00003BC6  F1                int1
00003BC7  FFAE00000034      jmp far [esi+0x34000000]
00003BCD  B904080000        mov ecx,0x804
00003BD2  0000              add [eax],al
00003BD4  0100              add [eax],eax
00003BD6  1200              adc al,[eax]
00003BD8  BB00000078        mov ebx,0x78000000
00003BDD  A804              test al,0x4
00003BDF  0800              or [eax],al
00003BE1  0000              add [eax],al
00003BE3  0001              add [ecx],al
00003BE5  0010              add [eax],dl
00003BE7  00C9              add cl,cl
00003BE9  0000              add [eax],al
00003BEB  0040B9            add [eax-0x47],al
00003BEE  0408              add al,0x8
00003BF0  0000              add [eax],al
00003BF2  0000              add [eax],al
00003BF4  0100              add [eax],eax
00003BF6  1400              adc al,0x0
00003BF8  D500              aad 0x0
00003BFA  0000              add [eax],al
00003BFC  F09A040800000000  lock call 0x0:0x804
00003C04  0200              add al,[eax]
00003C06  0C00              or al,0x0
00003C08  0800              or [eax],al
00003C0A  0000              add [eax],al
00003C0C  0000              add [eax],al
00003C0E  0000              add [eax],al
00003C10  0000              add [eax],al
00003C12  0000              add [eax],al
00003C14  0400              add al,0x0
00003C16  F1                int1
00003C17  FF                db 0xFF
00003C18  EB00              jmp short 0x3c1a
00003C1A  0000              add [eax],al
00003C1C  0000              add [eax],al
00003C1E  0000              add [eax],al
00003C20  0000              add [eax],al
00003C22  0000              add [eax],al
00003C24  0400              add al,0x0
00003C26  F1                int1
00003C27  FF0E              dec dword [esi]
00003C29  0100              add [eax],eax
00003C2B  0088BA040801      add [eax+0x10804ba],cl
00003C31  0000              add [eax],al
00003C33  0001              add [ecx],al
00003C35  0019              add [ecx],bl
00003C37  001D0100004B      add [0x4b000001],bl
00003C3D  8B0408            mov eax,[eax+ecx]
00003C40  3F                aas
00003C41  0000              add [eax],al
00003C43  0002              add [edx],al
00003C45  000C00            add [eax+eax],cl
00003C48  4D                dec ebp
00003C49  0100              add [eax],eax
00003C4B  008A8B04081C      add [edx+0x1c08048b],cl
00003C51  0000              add [eax],al
00003C53  0002              add [edx],al
00003C55  000C00            add [eax+eax],cl
00003C58  61                popa
00003C59  0100              add [eax],eax
00003C5B  0000              add [eax],al
00003C5D  0000              add [eax],al
00003C5F  0000              add [eax],al
00003C61  0000              add [eax],al
00003C63  000400            add [eax+eax],al
00003C66  F1                int1
00003C67  FF00              inc dword [eax]
00003C69  0000              add [eax],al
00003C6B  0000              add [eax],al
00003C6D  0000              add [eax],al
00003C6F  0000              add [eax],al
00003C71  0000              add [eax],al
00003C73  000400            add [eax+eax],al
00003C76  F1                int1
00003C77  FF6C0100          jmp far [ecx+eax+0x0]
00003C7B  0028              add [eax],ch
00003C7D  BA04080000        mov edx,0x804
00003C82  0000              add [eax],al
00003C84  0100              add [eax],eax
00003C86  17                pop ss
00003C87  00820100002B      add [edx+0x2b000001],al
00003C8D  B904080000        mov ecx,0x804
00003C92  0000              add [eax],al
00003C94  0000              add [eax],al
00003C96  1200              adc al,[eax]
00003C98  93                xchg eax,ebx
00003C99  0100              add [eax],eax
00003C9B  002B              add [ebx],ch
00003C9D  B904080000        mov ecx,0x804
00003CA2  0000              add [eax],al
00003CA4  0000              add [eax],al
00003CA6  1200              adc al,[eax]
00003CA8  A6                cmpsb
00003CA9  0100              add [eax],eax
00003CAB  0044B904          add [ecx+edi*4+0x4],al
00003CAF  0800              or [eax],al
00003CB1  0000              add [eax],al
00003CB3  0001              add [ecx],al
00003CB5  001500AF0100      add [0x1af00],dl
00003CBB  0078BA            add [eax-0x46],bh
00003CBE  0408              add al,0x8
00003CC0  0000              add [eax],al
00003CC2  0000              add [eax],al
00003CC4  2000              and [eax],al
00003CC6  1800              sbb [eax],al
00003CC8  BA0100001E        mov edx,0x1e000001
00003CCD  8D0408            lea eax,[eax+ecx]
00003CD0  50                push eax
00003CD1  0000              add [eax],al
00003CD3  0022              add [edx],ah
00003CD5  000C00            add [eax+eax],cl
00003CD8  0A02              or al,[edx]
00003CDA  0000              add [eax],al
00003CDC  869904082A00      xchg bl,[ecx+0x2a0804]
00003CE2  0000              add [eax],al
00003CE4  2200              and al,[eax]
00003CE6  0C00              or al,0x0
00003CE8  3002              xor [edx],al
00003CEA  0000              add [eax],al
00003CEC  2A9804080500      sub bl,[eax+0x50804]
00003CF2  0000              add [eax],al
00003CF4  2200              and al,[eax]
00003CF6  0C00              or al,0x0
00003CF8  670200            add al,[bx+si]
00003CFB  00528F            add [edx-0x71],dl
00003CFE  0408              add al,0x8
00003D00  0500000022        add eax,0x22000000
00003D05  000C00            add [eax+eax],cl
00003D08  9E                sahf
00003D09  0200              add al,[eax]
00003D0B  00AE8B040813      add [esi+0x1308048b],ch
00003D11  0000              add [eax],al
00003D13  0022              add [edx],ah
00003D15  000C00            add [eax+eax],cl
00003D18  BE02000057        mov esi,0x57000002
00003D1D  8F0408            pop dword [eax+ecx]
00003D20  0B00              or eax,[eax]
00003D22  0000              add [eax],al
00003D24  2200              and al,[eax]
00003D26  0C00              or al,0x0
00003D28  1003              adc [ebx],al
00003D2A  0000              add [eax],al
00003D2C  0000              add [eax],al
00003D2E  0000              add [eax],al
00003D30  0000              add [eax],al
00003D32  0000              add [eax],al
00003D34  1200              adc al,[eax]
00003D36  0000              add [eax],al
00003D38  2A03              sub al,[ebx]
00003D3A  0000              add [eax],al
00003D3C  809A0408050000    sbb byte [edx+0x50804],0x0
00003D43  0012              add [edx],dl
00003D45  000C00            add [eax+eax],cl
00003D48  3A03              cmp al,[ebx]
00003D4A  0000              add [eax],al
00003D4C  AE                scasb
00003D4D  8B0408            mov eax,[eax+ecx]
00003D50  1300              adc eax,[eax]
00003D52  0000              add [eax],al
00003D54  2200              and al,[eax]
00003D56  0C00              or al,0x0
00003D58  5A                pop edx
00003D59  0300              add eax,[eax]
00003D5B  00C2              add dl,al
00003D5D  8B0408            mov eax,[eax+ecx]
00003D60  1300              adc eax,[eax]
00003D62  0000              add [eax],al
00003D64  2200              and al,[eax]
00003D66  0C00              or al,0x0
00003D68  7A03              jpe 0x3d6d
00003D6A  0000              add [eax],al
00003D6C  60                pusha
00003D6D  880408            mov [eax+ecx],al
00003D70  0000              add [eax],al
00003D72  0000              add [eax],al
00003D74  1200              adc al,[eax]
00003D76  0C00              or al,0x0
00003D78  810300006E8F      add dword [ebx],0x8f6e0000
00003D7E  0408              add al,0x8
00003D80  5D                pop ebp
00003D81  0000              add [eax],al
00003D83  0022              add [edx],ah
00003D85  000C00            add [eax+eax],cl
00003D88  D903              fld dword [ebx]
00003D8A  0000              add [eax],al
00003D8C  D6                salc
00003D8D  8B0408            mov eax,[eax+ecx]
00003D90  1300              adc eax,[eax]
00003D92  0000              add [eax],al
00003D94  2200              and al,[eax]
00003D96  0C00              or al,0x0
00003D98  260400            es add al,0x0
00003D9B  00F6              add dh,dh
00003D9D  8C0408            mov [eax+ecx],es
00003DA0  1300              adc eax,[eax]
00003DA2  0000              add [eax],al
00003DA4  2200              and al,[eax]
00003DA6  0C00              or al,0x0
00003DA8  5B                pop ebx
00003DA9  0400              add al,0x0
00003DAB  0000              add [eax],al
00003DAD  0000              add [eax],al
00003DAF  0000              add [eax],al
00003DB1  0000              add [eax],al
00003DB3  0020              add [eax],ah
00003DB5  0000              add [eax],al
00003DB7  006A04            add [edx+0x4],ch
00003DBA  0000              add [eax],al
00003DBC  0000              add [eax],al
00003DBE  0000              add [eax],al
00003DC0  0000              add [eax],al
00003DC2  0000              add [eax],al
00003DC4  2000              and [eax],al
00003DC6  0000              add [eax],al
00003DC8  7E04              jng 0x3dce
00003DCA  0000              add [eax],al
00003DCC  349B              xor al,0x9b
00003DCE  0408              add al,0x8
00003DD0  0400              add al,0x0
00003DD2  0000              add [eax],al
00003DD4  1100              adc [eax],eax
00003DD6  0E                push cs
00003DD7  008504000000      add [ebp+0x4],al
00003DDD  0000              add [eax],al
00003DDF  0000              add [eax],al
00003DE1  0000              add [eax],al
00003DE3  0012              add [edx],dl
00003DE5  0000              add [eax],al
00003DE7  00990400004C      add [ecx+0x4c000004],bl
00003DED  98                cwde
00003DEE  0408              add al,0x8
00003DF0  0500000022        add eax,0x22000000
00003DF5  000C00            add [eax+eax],cl
00003DF8  BD04000002        mov ebp,0x2000004
00003DFD  8F0408            pop dword [eax+ecx]
00003E00  50                push eax
00003E01  0000              add [eax],al
00003E03  0022              add [edx],ah
00003E05  000C00            add [eax+eax],cl
00003E08  0A0500003898      or al,[0x98380000]
00003E0E  0408              add al,0x8
00003E10  1300              adc eax,[eax]
00003E12  0000              add [eax],al
00003E14  2200              and al,[eax]
00003E16  0C00              or al,0x0
00003E18  3405              xor al,0x5
00003E1A  0000              add [eax],al
00003E1C  189B04080000      sbb [ebx+0x804],bl
00003E22  0000              add [eax],al
00003E24  1200              adc al,[eax]
00003E26  0D003A0500        or eax,0x53a00
00003E2B  006E8D            add [esi-0x73],ch
00003E2E  0408              add al,0x8
00003E30  0B00              or eax,[eax]
00003E32  0000              add [eax],al
00003E34  2200              and al,[eax]
00003E36  0C00              or al,0x0
00003E38  7605              jna 0x3e3f
00003E3A  0000              add [eax],al
00003E3C  0000              add [eax],al
00003E3E  0000              add [eax],al
00003E40  0000              add [eax],al
00003E42  0000              add [eax],al
00003E44  1200              adc al,[eax]
00003E46  0000              add [eax],al
00003E48  9B                wait
00003E49  0500006E9A        add eax,0x9a6e0000
00003E4E  0408              add al,0x8
00003E50  0A00              or al,[eax]
00003E52  0000              add [eax],al
00003E54  2200              and al,[eax]
00003E56  0C00              or al,0x0
00003E58  DA0500001E96      fiadd dword [0x961e0000]
00003E5E  0408              add al,0x8
00003E60  7300              jnc 0x3e62
00003E62  0000              add [eax],al
00003E64  2200              and al,[eax]
00003E66  0C00              or al,0x0
00003E68  37                aaa
00003E69  06                push es
00003E6A  0000              add [eax],al
00003E6C  7C94              jl 0x3e02
00003E6E  0408              add al,0x8
00003E70  27                daa
00003E71  0000              add [eax],al
00003E73  0022              add [edx],ah
00003E75  000C00            add [eax+eax],cl
00003E78  7A06              jpe 0x3e80
00003E7A  0000              add [eax],al
00003E7C  089A04080B00      or [edx+0xb0804],bl
00003E82  0000              add [eax],al
00003E84  2200              and al,[eax]
00003E86  0C00              or al,0x0
00003E88  BA06000038        mov edx,0x38000006
00003E8D  98                cwde
00003E8E  0408              add al,0x8
00003E90  1300              adc eax,[eax]
00003E92  0000              add [eax],al
00003E94  2200              and al,[eax]
00003E96  0C00              or al,0x0
00003E98  E406              in al,0x6
00003E9A  0000              add [eax],al
00003E9C  0000              add [eax],al
00003E9E  0000              add [eax],al
00003EA0  0000              add [eax],al
00003EA2  0000              add [eax],al
00003EA4  1200              adc al,[eax]
00003EA6  0000              add [eax],al
00003EA8  2107              and [edi],eax
00003EAA  0000              add [eax],al
00003EAC  4C                dec esp
00003EAD  98                cwde
00003EAE  0408              add al,0x8
00003EB0  0500000022        add eax,0x22000000
00003EB5  000C00            add [eax+eax],cl
00003EB8  45                inc ebp
00003EB9  07                pop es
00003EBA  0000              add [eax],al
00003EBC  2C9A              sub al,0x9a
00003EBE  0408              add al,0x8
00003EC0  41                inc ecx
00003EC1  0000              add [eax],al
00003EC3  0022              add [edx],ah
00003EC5  000C00            add [eax+eax],cl
00003EC8  A30700001C        mov [0x1c000007],eax
00003ECD  97                xchg eax,edi
00003ECE  0408              add al,0x8
00003ED0  0E                push cs
00003ED1  0100              add [eax],eax
00003ED3  0022              add [edx],ah
00003ED5  000C00            add [eax+eax],cl
00003ED8  0408              add al,0x8
00003EDA  0000              add [eax],al
00003EDC  0000              add [eax],al
00003EDE  0000              add [eax],al
00003EE0  0000              add [eax],al
00003EE2  0000              add [eax],al
00003EE4  1200              adc al,[eax]
00003EE6  0000              add [eax],al
00003EE8  2108              and [eax],ecx
00003EEA  0000              add [eax],al
00003EEC  CC                int3
00003EED  8F0408            pop dword [eax+ecx]
00003EF0  6E                outsb
00003EF1  0100              add [eax],eax
00003EF3  0022              add [edx],ah
00003EF5  000C00            add [eax+eax],cl
00003EF8  7008              jo 0x3f02
00003EFA  0000              add [eax],al
00003EFC  C6                db 0xC6
00003EFD  8C0408            mov [eax+ecx],es
00003F00  2200              and al,[eax]
00003F02  0000              add [eax],al
00003F04  2200              and al,[eax]
00003F06  0C00              or al,0x0
00003F08  95                xchg eax,ebp
00003F09  0800              or [eax],al
00003F0B  00C2              add dl,al
00003F0D  8B0408            mov eax,[eax+ecx]
00003F10  1300              adc eax,[eax]
00003F12  0000              add [eax],al
00003F14  2200              and al,[eax]
00003F16  0C00              or al,0x0
00003F18  B508              mov ch,0x8
00003F1A  0000              add [eax],al
00003F1C  52                push edx
00003F1D  8E0408            mov es,[eax+ecx]
00003F20  1A00              sbb al,[eax]
00003F22  0000              add [eax],al
00003F24  2200              and al,[eax]
00003F26  0C00              or al,0x0
00003F28  EC                in al,dx
00003F29  0800              or [eax],al
00003F2B  00B087040800      add [eax+0x80487],dh
00003F31  0000              add [eax],al
00003F33  0012              add [edx],dl
00003F35  0000              add [eax],al
00003F37  0011              add [ecx],dl
00003F39  0900              or [eax],eax
00003F3B  0000              add [eax],al
00003F3D  0000              add [eax],al
00003F3F  0000              add [eax],al
00003F41  0000              add [eax],al
00003F43  0020              add [eax],ah
00003F45  0000              add [eax],al
00003F47  002D09000038      add [0x38000009],ch
00003F4D  9B                wait
00003F4E  0408              add al,0x8
00003F50  0400              add al,0x0
00003F52  0000              add [eax],al
00003F54  1100              adc [eax],eax
00003F56  0E                push cs
00003F57  003C09            add [ecx+ecx],bh
00003F5A  0000              add [eax],al
00003F5C  7A95              jpe 0x3ef3
00003F5E  0408              add al,0x8
00003F60  1D00000022        sbb eax,0x22000000
00003F65  000C00            add [eax+eax],cl
00003F68  5C                pop esp
00003F69  0900              or [eax],eax
00003F6B  0036              add [esi],dh
00003F6D  94                xchg eax,esp
00003F6E  0408              add al,0x8
00003F70  1300              adc eax,[eax]
00003F72  0000              add [eax],al
00003F74  2200              and al,[eax]
00003F76  0C00              or al,0x0
00003F78  7C09              jl 0x3f83
00003F7A  0000              add [eax],al
00003F7C  A6                cmpsb
00003F7D  8B0408            mov eax,[eax+ecx]
00003F80  0800              or [eax],al
00003F82  0000              add [eax],al
00003F84  2200              and al,[eax]
00003F86  0C00              or al,0x0
00003F88  8409              test [ecx],cl
00003F8A  0000              add [eax],al
00003F8C  2A9804080500      sub bl,[eax+0x50804]
00003F92  0000              add [eax],al
00003F94  2200              and al,[eax]
00003F96  0C00              or al,0x0
00003F98  BB0900000A        mov ebx,0xa000009
00003F9D  8D0408            lea eax,[eax+ecx]
00003FA0  1300              adc eax,[eax]
00003FA2  0000              add [eax],al
00003FA4  2200              and al,[eax]
00003FA6  0C00              or al,0x0
00003FA8  DB09              fisttp word [ecx]
00003FAA  0000              add [eax],al
00003FAC  0000              add [eax],al
00003FAE  0000              add [eax],al
00003FB0  0000              add [eax],al
00003FB2  0000              add [eax],al
00003FB4  1200              adc al,[eax]
00003FB6  0000              add [eax],al
00003FB8  EC                in al,dx
00003FB9  0900              or [eax],eax
00003FBB  000A              add [edx],cl
00003FBD  8D0408            lea eax,[eax+ecx]
00003FC0  1300              adc eax,[eax]
00003FC2  0000              add [eax],al
00003FC4  2200              and al,[eax]
00003FC6  0C00              or al,0x0
00003FC8  0C0A              or al,0xa
00003FCA  0000              add [eax],al
00003FCC  368C0408          mov [ss:eax+ecx],es
00003FD0  61                popa
00003FD1  0000              add [eax],al
00003FD3  0022              add [edx],ah
00003FD5  000C00            add [eax+eax],cl
00003FD8  330A              xor ecx,[edx]
00003FDA  0000              add [eax],al
00003FDC  1E                push ds
00003FDD  92                xchg eax,edx
00003FDE  0408              add al,0x8
00003FE0  1A00              sbb al,[eax]
00003FE2  0000              add [eax],al
00003FE4  2200              and al,[eax]
00003FE6  0C00              or al,0x0
00003FE8  640A00            or al,[fs:eax]
00003FEB  00B28C040813      add [edx+0x1308048c],dh
00003FF1  0000              add [eax],al
00003FF3  0022              add [edx],ah
00003FF5  000C00            add [eax+eax],cl
00003FF8  880A              mov [edx],cl
00003FFA  0000              add [eax],al
00003FFC  289404080D0000    sub [esp+eax+0xd08],dl
00004003  0022              add [edx],ah
00004005  000C00            add [eax+eax],cl
00004008  C3                ret
00004009  0A00              or al,[eax]
0000400B  0000              add [eax],al
0000400D  0000              add [eax],al
0000400F  0000              add [eax],al
00004011  0000              add [eax],al
00004013  0020              add [eax],ah
00004015  0000              add [eax],al
00004017  00DD              add ch,bl
00004019  0A00              or al,[eax]
0000401B  0078BA            add [eax-0x46],bh
0000401E  0408              add al,0x8
00004020  0000              add [eax],al
00004022  0000              add [eax],al
00004024  1000              adc [eax],al
00004026  1800              sbb [eax],al
00004028  EA0A0000FC9804    jmp 0x498:0xfc00000a
0000402F  087600            or [esi+0x0],dh
00004032  0000              add [eax],al
00004034  2200              and al,[eax]
00004036  0C00              or al,0x0
00004038  230B              and ecx,[ebx]
0000403A  0000              add [eax],al
0000403C  E08E              loopne 0x3fcc
0000403E  0408              add al,0x8
00004040  2200              and al,[eax]
00004042  0000              add [eax],al
00004044  2200              and al,[eax]
00004046  0C00              or al,0x0
00004048  5D                pop ebp
00004049  0B00              or eax,[eax]
0000404B  0016              add [esi],dl
0000404D  95                xchg eax,ebp
0000404E  0408              add al,0x8
00004050  1400              adc al,0x0
00004052  0000              add [eax],al
00004054  2200              and al,[eax]
00004056  0C00              or al,0x0
00004058  750B              jnz 0x4065
0000405A  0000              add [eax],al
0000405C  42                inc edx
0000405D  91                xchg eax,ecx
0000405E  0408              add al,0x8
00004060  DB00              fild dword [eax]
00004062  0000              add [eax],al
00004064  2200              and al,[eax]
00004066  0C00              or al,0x0
00004068  D00B              ror byte [ebx],1
0000406A  0000              add [eax],al
0000406C  389204080D00      cmp [edx+0xd0804],dl
00004072  0000              add [eax],al
00004074  2200              and al,[eax]
00004076  0C00              or al,0x0
00004078  040C              add al,0xc
0000407A  0000              add [eax],al
0000407C  42                inc edx
0000407D  8E0408            mov es,[eax+ecx]
00004080  0F0000            sldt [eax]
00004083  0022              add [edx],ah
00004085  000C00            add [eax+eax],cl
00004088  43                inc ebx
00004089  0C00              or al,0x0
0000408B  00528F            add [edx-0x71],dl
0000408E  0408              add al,0x8
00004090  0500000022        add eax,0x22000000
00004095  000C00            add [eax+eax],cl
00004098  7A0C              jpe 0x40a6
0000409A  0000              add [eax],al
0000409C  CA9904            retf 0x499
0000409F  080500000022      or [0x22000000],al
000040A5  000C00            add [eax+eax],cl
000040A8  9E                sahf
000040A9  0C00              or al,0x0
000040AB  0000              add [eax],al
000040AD  0000              add [eax],al
000040AF  0000              add [eax],al
000040B1  0000              add [eax],al
000040B3  0012              add [edx],dl
000040B5  0000              add [eax],al
000040B7  00DC              add ah,bl
000040B9  0C00              or al,0x0
000040BB  00428E            add [edx-0x72],al
000040BE  0408              add al,0x8
000040C0  0F0000            sldt [eax]
000040C3  0022              add [edx],ah
000040C5  000C00            add [eax+eax],cl
000040C8  1B0D00003098      sbb ecx,[0x98300000]
000040CE  0408              add al,0x8
000040D0  0800              or [eax],al
000040D2  0000              add [eax],al
000040D4  2200              and al,[eax]
000040D6  0C00              or al,0x0
000040D8  660D0000          or ax,0x0
000040DC  80BA0408000000    cmp byte [edx+0x804],0x0
000040E3  0011              add [ecx],dl
000040E5  0218              add bl,[eax]
000040E7  00720D            add [edx+0xd],dh
000040EA  0000              add [eax],al
000040EC  7CBA              jl 0x40a8
000040EE  0408              add al,0x8
000040F0  0000              add [eax],al
000040F2  0000              add [eax],al
000040F4  1102              adc [edx],eax
000040F6  1800              sbb [eax],al
000040F8  7F0D              jg 0x4107
000040FA  0000              add [eax],al
000040FC  B794              mov bh,0x94
000040FE  0408              add al,0x8
00004100  0800              or [eax],al
00004102  0000              add [eax],al
00004104  2200              and al,[eax]
00004106  0C00              or al,0x0
00004108  9B                wait
00004109  0D00003CB9        or eax,0xb93c0000
0000410E  0408              add al,0x8
00004110  0000              add [eax],al
00004112  0000              add [eax],al
00004114  1102              adc [edx],eax
00004116  1300              adc eax,[eax]
00004118  A80D              test al,0xd
0000411A  0000              add [eax],al
0000411C  90                nop
0000411D  9A04085A000000    call 0x0:0x5a0804
00004124  1200              adc al,[eax]
00004126  0C00              or al,0x0
00004128  B80D000000        mov eax,0xd
0000412D  0000              add [eax],al
0000412F  0000              add [eax],al
00004131  0000              add [eax],al
00004133  0012              add [edx],dl
00004135  0000              add [eax],al
00004137  00CA              add dl,cl
00004139  0D0000A494        or eax,0x94a40000
0000413E  0408              add al,0x8
00004140  1300              adc eax,[eax]
00004142  0000              add [eax],al
00004144  2200              and al,[eax]
00004146  0C00              or al,0x0
00004148  D7                xlatb
00004149  0D00005298        or eax,0x98520000
0000414E  0408              add al,0x8
00004150  1300              adc eax,[eax]
00004152  0000              add [eax],al
00004154  2200              and al,[eax]
00004156  0C00              or al,0x0
00004158  1C0E              sbb al,0xe
0000415A  0000              add [eax],al
0000415C  D6                salc
0000415D  8B0408            mov eax,[eax+ecx]
00004160  1300              adc eax,[eax]
00004162  0000              add [eax],al
00004164  2200              and al,[eax]
00004166  0C00              or al,0x0
00004168  690E0000528E      imul ecx,[esi],dword 0x8e520000
0000416E  0408              add al,0x8
00004170  1A00              sbb al,[eax]
00004172  0000              add [eax],al
00004174  2200              and al,[eax]
00004176  0C00              or al,0x0
00004178  A00E000002        mov al,[0x200000e]
0000417D  8F0408            pop dword [eax+ecx]
00004180  50                push eax
00004181  0000              add [eax],al
00004183  0022              add [edx],ah
00004185  000C00            add [eax+eax],cl
00004188  ED                in eax,dx
00004189  0E                push cs
0000418A  0000              add [eax],al
0000418C  4C                dec esp
0000418D  95                xchg eax,ebp
0000418E  0408              add al,0x8
00004190  1400              adc al,0x0
00004192  0000              add [eax],al
00004194  2200              and al,[eax]
00004196  0C00              or al,0x0
00004198  120F              adc cl,[edi]
0000419A  0000              add [eax],al
0000419C  029704081A00      add dl,[edi+0x1a0804]
000041A2  0000              add [eax],al
000041A4  2200              and al,[eax]
000041A6  0C00              or al,0x0
000041A8  45                inc ebp
000041A9  0F0000            sldt [eax]
000041AC  0000              add [eax],al
000041AE  0000              add [eax],al
000041B0  0000              add [eax],al
000041B2  0000              add [eax],al
000041B4  1200              adc al,[eax]
000041B6  0000              add [eax],al
000041B8  58                pop eax
000041B9  0F0000            sldt [eax]
000041BC  2A9504082200      sub dl,[ebp+0x220804]
000041C2  0000              add [eax],al
000041C4  2200              and al,[eax]
000041C6  0C00              or al,0x0
000041C8  91                xchg eax,ecx
000041C9  0F0000            sldt [eax]
000041CC  7A8D              jpe 0x415b
000041CE  0408              add al,0x8
000041D0  C70000002200      mov dword [eax],0x220000
000041D6  0C00              or al,0x0
000041D8  D80F              fmul dword [edi]
000041DA  0000              add [eax],al
000041DC  7C98              jl 0x4176
000041DE  0408              add al,0x8
000041E0  2300              and eax,[eax]
000041E2  0000              add [eax],al
000041E4  2200              and al,[eax]
000041E6  0C00              or al,0x0
000041E8  1810              sbb [eax],dl
000041EA  0000              add [eax],al
000041EC  3A9104080800      cmp dl,[ecx+0x80804]
000041F2  0000              add [eax],al
000041F4  2200              and al,[eax]
000041F6  0C00              or al,0x0
000041F8  3210              xor dl,[eax]
000041FA  0000              add [eax],al
000041FC  E89404080B        call 0xb084695
00004201  0000              add [eax],al
00004203  0022              add [edx],ah
00004205  000C00            add [eax+eax],cl
00004208  6C                insb
00004209  1000              adc [eax],al
0000420B  0080BA040800      add [eax+0x804ba],al
00004211  0000              add [eax],al
00004213  0010              add [eax],dl
00004215  0019              add [ecx],bl
00004217  007810            add [eax+0x10],bh
0000421A  0000              add [eax],al
0000421C  0000              add [eax],al
0000421E  0000              add [eax],al
00004220  0000              add [eax],al
00004222  0000              add [eax],al
00004224  1200              adc al,[eax]
00004226  0000              add [eax],al
00004228  C7                db 0xC7
00004229  1000              adc [eax],al
0000422B  0028              add [eax],ch
0000422D  94                xchg eax,esp
0000422E  0408              add al,0x8
00004230  0D00000022        or eax,0x22000000
00004235  000C00            add [eax+eax],cl
00004238  0211              add dl,[ecx]
0000423A  0000              add [eax],al
0000423C  EA8B04084B0000    jmp 0x0:0x4b08048b
00004243  0022              add [edx],ah
00004245  000C00            add [eax+eax],cl
00004248  37                aaa
00004249  1100              adc [eax],eax
0000424B  00C0              add al,al
0000424D  94                xchg eax,esp
0000424E  0408              add al,0x8
00004250  0500000022        add eax,0x22000000
00004255  000C00            add [eax+eax],cl
00004258  6211              bound edx,[ecx]
0000425A  0000              add [eax],al
0000425C  6C                insb
0000425D  8E0408            mov es,[eax+ecx]
00004260  670000            add [bx+si],al
00004263  0022              add [edx],ah
00004265  000C00            add [eax+eax],cl
00004268  9D                popf
00004269  1100              adc [eax],eax
0000426B  0000              add [eax],al
0000426D  0000              add [eax],al
0000426F  0000              add [eax],al
00004271  0000              add [eax],al
00004273  0012              add [edx],dl
00004275  0000              add [eax],al
00004277  00E7              add bh,ah
00004279  1100              adc [eax],eax
0000427B  0036              add [esi],dh
0000427D  94                xchg eax,esp
0000427E  0408              add al,0x8
00004280  1300              adc eax,[eax]
00004282  0000              add [eax],al
00004284  2200              and al,[eax]
00004286  0C00              or al,0x0
00004288  07                pop es
00004289  1200              adc al,[eax]
0000428B  001E              add [esi],bl
0000428D  92                xchg eax,edx
0000428E  0408              add al,0x8
00004290  1A00              sbb al,[eax]
00004292  0000              add [eax],al
00004294  2200              and al,[eax]
00004296  0C00              or al,0x0
00004298  3812              cmp [edx],dl
0000429A  0000              add [eax],al
0000429C  C6                db 0xC6
0000429D  98                cwde
0000429E  0408              add al,0x8
000042A0  2200              and al,[eax]
000042A2  0000              add [eax],al
000042A4  2200              and al,[eax]
000042A6  0C00              or al,0x0
000042A8  6F                outsd
000042A9  1200              adc al,[eax]
000042AB  006598            add [ebp-0x68],ah
000042AE  0408              add al,0x8
000042B0  0B00              or eax,[eax]
000042B2  0000              add [eax],al
000042B4  2200              and al,[eax]
000042B6  0C00              or al,0x0
000042B8  C01200            rcl byte [edx],0x0
000042BB  00149A            add [edx+ebx*4],dl
000042BE  0408              add al,0x8
000042C0  0B00              or eax,[eax]
000042C2  0000              add [eax],al
000042C4  2200              and al,[eax]
000042C6  0C00              or al,0x0
000042C8  FB                sti
000042C9  1200              adc al,[eax]
000042CB  00D4              add ah,dl
000042CD  8E0408            mov es,[eax+ecx]
000042D0  0B00              or eax,[eax]
000042D2  0000              add [eax],al
000042D4  2200              and al,[eax]
000042D6  0C00              or al,0x0
000042D8  3413              xor al,0x13
000042DA  0000              add [eax],al
000042DC  628F04080B00      bound ecx,[edi+0xb0804]
000042E2  0000              add [eax],al
000042E4  2200              and al,[eax]
000042E6  0C00              or al,0x0
000042E8  8513              test [ebx],edx
000042EA  0000              add [eax],al
000042EC  60                pusha
000042ED  95                xchg eax,ebp
000042EE  0408              add al,0x8
000042F0  1A00              sbb al,[eax]
000042F2  0000              add [eax],al
000042F4  2200              and al,[eax]
000042F6  0C00              or al,0x0
000042F8  B713              mov bh,0x13
000042FA  0000              add [eax],al
000042FC  F6                db 0xF6
000042FD  8C0408            mov [eax+ecx],es
00004300  1300              adc eax,[eax]
00004302  0000              add [eax],al
00004304  2200              and al,[eax]
00004306  0C00              or al,0x0
00004308  EC                in al,dx
00004309  1300              adc eax,[eax]
0000430B  00D0              add al,dl
0000430D  99                cdq
0000430E  0408              add al,0x8
00004310  37                aaa
00004311  0000              add [eax],al
00004313  0022              add [edx],ah
00004315  000C00            add [eax+eax],cl
00004318  2D14000060        sub eax,0x60000014
0000431D  95                xchg eax,ebp
0000431E  0408              add al,0x8
00004320  1A00              sbb al,[eax]
00004322  0000              add [eax],al
00004324  2200              and al,[eax]
00004326  0C00              or al,0x0
00004328  5F                pop edi
00004329  1400              adc al,0x0
0000432B  0020              add [eax],ah
0000432D  9A04080B000000    call 0x0:0xb0804
00004334  2200              and al,[eax]
00004336  0C00              or al,0x0
00004338  A01400008C        mov al,[0x8c000014]
0000433D  BA04080000        mov edx,0x804
00004342  0000              add [eax],al
00004344  1000              adc [eax],al
00004346  1900              sbb [eax],eax
00004348  A5                movsd
00004349  1400              adc al,0x0
0000434B  00B09904081A      add [eax+0x1a080499],dh
00004351  0000              add [eax],al
00004353  0022              add [edx],ah
00004355  000C00            add [eax+eax],cl
00004358  FB                sti
00004359  1400              adc al,0x0
0000435B  00E8              add al,ch
0000435D  8C0408            mov [eax+ecx],es
00004360  0D00000022        or eax,0x22000000
00004365  000C00            add [eax+eax],cl
00004368  221500000000      and dl,[0x0]
0000436E  0000              add [eax],al
00004370  0000              add [eax],al
00004372  0000              add [eax],al
00004374  1200              adc al,[eax]
00004376  0000              add [eax],al
00004378  32150000F394      xor dl,[0x94f30000]
0000437E  0408              add al,0x8
00004380  2200              and al,[eax]
00004382  0000              add [eax],al
00004384  2200              and al,[eax]
00004386  0C00              or al,0x0
00004388  8115000002970408  adc dword [0x97020000],0x1a0804
         -1A00
00004392  0000              add [eax],al
00004394  2200              and al,[eax]
00004396  0C00              or al,0x0
00004398  B415              mov ah,0x15
0000439A  0000              add [eax],al
0000439C  C6                db 0xC6
0000439D  94                xchg eax,esp
0000439E  0408              add al,0x8
000043A0  2200              and al,[eax]
000043A2  0000              add [eax],al
000043A4  2200              and al,[eax]
000043A6  0C00              or al,0x0
000043A8  0816              or [esi],dl
000043AA  0000              add [eax],al
000043AC  0000              add [eax],al
000043AE  0000              add [eax],al
000043B0  0000              add [eax],al
000043B2  0000              add [eax],al
000043B4  1200              adc al,[eax]
000043B6  0000              add [eax],al
000043B8  2E16              cs push ss
000043BA  0000              add [eax],al
000043BC  97                xchg eax,edi
000043BD  95                xchg eax,ebp
000043BE  0408              add al,0x8
000043C0  2200              and al,[eax]
000043C2  0000              add [eax],al
000043C4  2200              and al,[eax]
000043C6  0C00              or al,0x0
000043C8  7F16              jg 0x43e0
000043CA  0000              add [eax],al
000043CC  7299              jc 0x4367
000043CE  0408              add al,0x8
000043D0  1400              adc al,0x0
000043D2  0000              add [eax],al
000043D4  2200              and al,[eax]
000043D6  0C00              or al,0x0
000043D8  AA                stosb
000043D9  16                push ss
000043DA  0000              add [eax],al
000043DC  EA8B04084B0000    jmp 0x0:0x4b08048b
000043E3  0022              add [edx],ah
000043E5  000C00            add [eax+eax],cl
000043E8  DF16              fist word [esi]
000043EA  0000              add [eax],al
000043EC  BA95040863        mov edx,0x63080495
000043F1  0000              add [eax],al
000043F3  0022              add [edx],ah
000043F5  000C00            add [eax+eax],cl
000043F8  2417              and al,0x17
000043FA  0000              add [eax],al
000043FC  A098040826        mov al,[0x26080498]
00004401  0000              add [eax],al
00004403  0022              add [edx],ah
00004405  000C00            add [eax+eax],cl
00004408  54                push esp
00004409  17                pop ss
0000440A  0000              add [eax],al
0000440C  80BA0408000000    cmp byte [edx+0x804],0x0
00004413  0010              add [eax],dl
00004415  0018              add [eax],bl
00004417  005B17            add [ebx+0x17],bl
0000441A  0000              add [eax],al
0000441C  46                inc esi
0000441D  92                xchg eax,edx
0000441E  0408              add al,0x8
00004420  92                xchg eax,edx
00004421  0100              add [eax],eax
00004423  0022              add [edx],ah
00004425  000C00            add [eax+eax],cl
00004428  9D                popf
00004429  17                pop ss
0000442A  0000              add [eax],al
0000442C  40                inc eax
0000442D  880408            mov [eax+ecx],al
00004430  0000              add [eax],al
00004432  0000              add [eax],al
00004434  1200              adc al,[eax]
00004436  0000              add [eax],al
00004438  BE170000A4        mov esi,0xa4000017
0000443D  94                xchg eax,esp
0000443E  0408              add al,0x8
00004440  1300              adc eax,[eax]
00004442  0000              add [eax],al
00004444  2200              and al,[eax]
00004446  0C00              or al,0x0
00004448  CB                retf
00004449  17                pop ss
0000444A  0000              add [eax],al
0000444C  92                xchg eax,edx
0000444D  96                xchg eax,esi
0000444E  0408              add al,0x8
00004450  7000              jo 0x4452
00004452  0000              add [eax],al
00004454  2200              and al,[eax]
00004456  0C00              or al,0x0
00004458  2818              sub [eax],bl
0000445A  0000              add [eax],al
0000445C  0000              add [eax],al
0000445E  0000              add [eax],al
00004460  0000              add [eax],al
00004462  0000              add [eax],al
00004464  1200              adc al,[eax]
00004466  0000              add [eax],al
00004468  40                inc eax
00004469  1800              sbb [eax],al
0000446B  007098            add [eax-0x68],dh
0000446E  0408              add al,0x8
00004470  0B00              or eax,[eax]
00004472  0000              add [eax],al
00004474  2200              and al,[eax]
00004476  0C00              or al,0x0
00004478  93                xchg eax,ebx
00004479  1800              sbb [eax],al
0000447B  0038              add [eax],bh
0000447D  92                xchg eax,edx
0000447E  0408              add al,0x8
00004480  0D00000022        or eax,0x22000000
00004485  000C00            add [eax+eax],cl
00004488  C7                db 0xC7
00004489  1800              sbb [eax],al
0000448B  004A94            add [edx-0x6c],cl
0000448E  0408              add al,0x8
00004490  3100              xor [eax],eax
00004492  0000              add [eax],al
00004494  2200              and al,[eax]
00004496  0C00              or al,0x0
00004498  2119              and [ecx],ebx
0000449A  0000              add [eax],al
0000449C  D89304084F00      fcom dword [ebx+0x4f0804]
000044A2  0000              add [eax],al
000044A4  2200              and al,[eax]
000044A6  0C00              or al,0x0
000044A8  7419              jz 0x44c3
000044AA  0000              add [eax],al
000044AC  E898040814        call 0x14084949
000044B1  0000              add [eax],al
000044B3  0022              add [edx],ah
000044B5  000C00            add [eax+eax],cl
000044B8  9F                lahf
000044B9  1900              sbb [eax],eax
000044BB  00EA              add dl,ch
000044BD  9A040800000000    call 0x0:0x804
000044C4  1202              adc al,[edx]
000044C6  0C00              or al,0x0
000044C8  B619              mov dh,0x19
000044CA  0000              add [eax],al
000044CC  80890408CB0100    or byte [ecx+0x1cb0804],0x0
000044D3  0012              add [edx],dl
000044D5  000C00            add [eax+eax],cl
000044D8  BB19000004        mov ebx,0x4000019
000044DD  870408            xchg eax,[eax+ecx]
000044E0  0000              add [eax],al
000044E2  0000              add [eax],al
000044E4  1200              adc al,[eax]
000044E6  0A00              or al,[eax]
000044E8  C11900            rcr dword [ecx],0x0
000044EB  00CA              add dl,cl
000044ED  99                cdq
000044EE  0408              add al,0x8
000044F0  0500000022        add eax,0x22000000
000044F5  000C00            add [eax+eax],cl
000044F8  E519              in eax,0x19
000044FA  0000              add [eax],al
000044FC  98                cwde
000044FD  8C0408            mov [eax+ecx],es
00004500  1A00              sbb al,[eax]
00004502  0000              add [eax],al
00004504  2200              and al,[eax]
00004506  0C00              or al,0x0
00004508  00696E            add [ecx+0x6e],ch
0000450B  69742E6300696E69  imul esi,[esi+ebp+0x63],dword 0x696e6900
00004513  7466              jz 0x457b
00004515  696E692E630063    imul ebp,[esi+0x69],dword 0x6300632e
0000451C  7274              jc 0x4592
0000451E  7374              jnc 0x4594
00004520  7566              jnz 0x4588
00004522  662E6300          o16 arpl [cs:eax],ax
00004526  5F                pop edi
00004527  5F                pop edi
00004528  43                inc ebx
00004529  54                push esp
0000452A  4F                dec edi
0000452B  52                push edx
0000452C  5F                pop edi
0000452D  4C                dec esp
0000452E  49                dec ecx
0000452F  53                push ebx
00004530  54                push esp
00004531  5F                pop edi
00004532  5F                pop edi
00004533  005F5F            add [edi+0x5f],bl
00004536  44                inc esp
00004537  54                push esp
00004538  4F                dec edi
00004539  52                push edx
0000453A  5F                pop edi
0000453B  4C                dec esp
0000453C  49                dec ecx
0000453D  53                push ebx
0000453E  54                push esp
0000453F  5F                pop edi
00004540  5F                pop edi
00004541  005F5F            add [edi+0x5f],bl
00004544  4A                dec edx
00004545  43                inc ebx
00004546  52                push edx
00004547  5F                pop edi
00004548  4C                dec esp
00004549  49                dec ecx
0000454A  53                push ebx
0000454B  54                push esp
0000454C  5F                pop edi
0000454D  5F                pop edi
0000454E  00646572          add [ebp+0x72],ah
00004552  656769737465725F  imul esi,[gs:bp+di+0x74],dword 0x745f7265
         -74
0000455B  6D                insd
0000455C  5F                pop edi
0000455D  636C6F6E          arpl [edi+ebp*2+0x6e],bp
00004561  657300            gs jnc 0x4564
00004564  7265              jc 0x45cb
00004566  6769737465725F74  imul esi,[bp+di+0x74],dword 0x745f7265
0000456E  6D                insd
0000456F  5F                pop edi
00004570  636C6F6E          arpl [edi+ebp*2+0x6e],bp
00004574  657300            gs jnc 0x4577
00004577  5F                pop edi
00004578  5F                pop edi
00004579  646F              fs outsd
0000457B  5F                pop edi
0000457C  676C              a16 insb
0000457E  6F                outsd
0000457F  62616C            bound esp,[ecx+0x6c]
00004582  5F                pop edi
00004583  64746F            fs jz 0x45f5
00004586  7273              jc 0x45fb
00004588  5F                pop edi
00004589  61                popa
0000458A  7578              jnz 0x4604
0000458C  00636F            add [ebx+0x6f],ah
0000458F  6D                insd
00004590  706C              jo 0x45fe
00004592  657465            gs jz 0x45fa
00004595  642E3333          xor esi,[cs:ebx]
00004599  3238              xor bh,[eax]
0000459B  0064746F          add [esp+esi*2+0x6f],ah
0000459F  725F              jc 0x4600
000045A1  6964782E33333330  imul esp,[eax+edi*2+0x2e],dword 0x30333333
000045A9  006672            add [esi+0x72],ah
000045AC  61                popa
000045AD  6D                insd
000045AE  655F              gs pop edi
000045B0  64756D            fs jnz 0x4620
000045B3  6D                insd
000045B4  7900              jns 0x45b6
000045B6  5F                pop edi
000045B7  5F                pop edi
000045B8  43                inc ebx
000045B9  54                push esp
000045BA  4F                dec edi
000045BB  52                push edx
000045BC  5F                pop edi
000045BD  45                inc ebp
000045BE  4E                dec esi
000045BF  44                inc esp
000045C0  5F                pop edi
000045C1  5F                pop edi
000045C2  005F5F            add [edi+0x5f],bl
000045C5  46                inc esi
000045C6  52                push edx
000045C7  41                inc ecx
000045C8  4D                dec ebp
000045C9  45                inc ebp
000045CA  5F                pop edi
000045CB  45                inc ebp
000045CC  4E                dec esi
000045CD  44                inc esp
000045CE  5F                pop edi
000045CF  5F                pop edi
000045D0  005F5F            add [edi+0x5f],bl
000045D3  4A                dec edx
000045D4  43                inc ebx
000045D5  52                push edx
000045D6  5F                pop edi
000045D7  45                inc ebp
000045D8  4E                dec esi
000045D9  44                inc esp
000045DA  5F                pop edi
000045DB  5F                pop edi
000045DC  005F5F            add [edi+0x5f],bl
000045DF  646F              fs outsd
000045E1  5F                pop edi
000045E2  676C              a16 insb
000045E4  6F                outsd
000045E5  62616C            bound esp,[ecx+0x6c]
000045E8  5F                pop edi
000045E9  63746F72          arpl [edi+ebp*2+0x72],si
000045ED  735F              jnc 0x464e
000045EF  61                popa
000045F0  7578              jnz 0x466a
000045F2  0032              add [edx],dh
000045F4  3937              cmp [edi],esi
000045F6  3434              xor al,0x34
000045F8  3836              cmp [esi],dh
000045FA  5F                pop edi
000045FB  3537353634        xor eax,0x34363537
00004600  3037              xor [edi],dh
00004602  3839              cmp [ecx],bh
00004604  3839              cmp [ecx],bh
00004606  363339            xor edi,[ss:ecx]
00004609  36385F42          cmp [ss:edi+0x42],bl
0000460D  6F                outsd
0000460E  62696B            bound ebp,[ecx+0x6b]
00004611  2E637070          arpl [cs:eax+0x70],si
00004615  005F5A            add [edi+0x5a],bl
00004618  53                push ebx
00004619  744C              jz 0x4667
0000461B  385F5F            cmp [edi+0x5f],bl
0000461E  696F696E697400    imul ebp,[edi+0x69],dword 0x74696e
00004625  5F                pop edi
00004626  5A                pop edx
00004627  3431              xor al,0x31
00004629  5F                pop edi
0000462A  5F                pop edi
0000462B  7374              jnc 0x46a1
0000462D  61                popa
0000462E  7469              jz 0x4699
00004630  635F69            arpl [edi+0x69],bx
00004633  6E                outsb
00004634  697469616C697A61  imul esi,[ecx+ebp*2+0x61],dword 0x617a696c
0000463C  7469              jz 0x46a7
0000463E  6F                outsd
0000463F  6E                outsb
00004640  5F                pop edi
00004641  61                popa
00004642  6E                outsb
00004643  645F              fs pop edi
00004645  64657374          gs jnc 0x46bd
00004649  7275              jc 0x46c0
0000464B  6374696F          arpl [ecx+ebp*2+0x6f],si
0000464F  6E                outsb
00004650  5F                pop edi
00004651  306969            xor [ecx+0x69],ch
00004654  005F47            add [edi+0x47],bl
00004657  4C                dec esp
00004658  4F                dec edi
00004659  42                inc edx
0000465A  41                inc ecx
0000465B  4C                dec esp
0000465C  5F                pop edi
0000465D  5F                pop edi
0000465E  7375              jnc 0x46d5
00004660  625F49            bound ebx,[edi+0x49]
00004663  5F                pop edi
00004664  6D                insd
00004665  61                popa
00004666  696E00656C662D    imul ebp,[esi+0x0],dword 0x2d666c65
0000466D  696E69742E6300    imul ebp,[esi+0x69],dword 0x632e74
00004674  5F                pop edi
00004675  47                inc edi
00004676  4C                dec esp
00004677  4F                dec edi
00004678  42                inc edx
00004679  41                inc ecx
0000467A  4C                dec esp
0000467B  5F                pop edi
0000467C  4F                dec edi
0000467D  46                inc esi
0000467E  46                inc esi
0000467F  53                push ebx
00004680  45                inc ebp
00004681  54                push esp
00004682  5F                pop edi
00004683  54                push esp
00004684  41                inc ecx
00004685  42                inc edx
00004686  4C                dec esp
00004687  45                inc ebp
00004688  5F                pop edi
00004689  005F5F            add [edi+0x5f],bl
0000468C  696E69745F6172    imul ebp,[esi+0x69],dword 0x72615f74
00004693  7261              jc 0x46f6
00004695  795F              jns 0x46f6
00004697  656E              gs outsb
00004699  64005F5F          add [fs:edi+0x5f],bl
0000469D  696E69745F6172    imul ebp,[esi+0x69],dword 0x72615f74
000046A4  7261              jc 0x4707
000046A6  795F              jns 0x4707
000046A8  7374              jnc 0x471e
000046AA  61                popa
000046AB  7274              jc 0x4721
000046AD  005F44            add [edi+0x44],bl
000046B0  59                pop ecx
000046B1  4E                dec esi
000046B2  41                inc ecx
000046B3  4D                dec ebp
000046B4  49                dec ecx
000046B5  43                inc ebx
000046B6  00646174          add [ecx+0x74],ah
000046BA  61                popa
000046BB  5F                pop edi
000046BC  7374              jnc 0x4732
000046BE  61                popa
000046BF  7274              jc 0x4735
000046C1  005F5A            add [edi+0x5a],bl
000046C4  4E                dec esi
000046C5  53                push ebx
000046C6  7438              jz 0x4700
000046C8  5F                pop edi
000046C9  52                push edx
000046CA  625F74            bound ebx,[edi+0x74]
000046CD  7265              jc 0x4734
000046CF  6549              gs dec ecx
000046D1  69695374395F49    imul ebp,[ecx+0x53],dword 0x495f3974
000046D8  64656E            gs outsb
000046DB  7469              jz 0x4746
000046DD  7479              jz 0x4758
000046DF  49                dec ecx
000046E0  69455374346C65    imul eax,[ebp+0x53],dword 0x656c3474
000046E7  7373              jnc 0x475c
000046E9  49                dec ecx
000046EA  69455361496945    imul eax,[ebp+0x53],dword 0x45694961
000046F1  45                inc ebp
000046F2  385F4D            cmp [edi+0x4d],bl
000046F5  5F                pop edi
000046F6  657261            gs jc 0x475a
000046F9  7365              jnc 0x4760
000046FB  45                inc ebp
000046FC  50                push eax
000046FD  53                push ebx
000046FE  7431              jz 0x4731
00004700  335F52            xor ebx,[edi+0x52]
00004703  625F74            bound ebx,[edi+0x74]
00004706  7265              jc 0x476d
00004708  655F              gs pop edi
0000470A  6E                outsb
0000470B  6F                outsd
0000470C  646549            gs dec ecx
0000470F  6945005F5A4E53    imul eax,[ebp+0x0],dword 0x534e5a5f
00004716  7432              jz 0x474a
00004718  335F52            xor ebx,[edi+0x52]
0000471B  625F74            bound ebx,[edi+0x74]
0000471E  7265              jc 0x4785
00004720  655F              gs pop edi
00004722  636F6E            arpl [edi+0x6e],bp
00004725  7374              jnc 0x479b
00004727  5F                pop edi
00004728  6974657261746F72  imul esi,[ebp+0x72],dword 0x726f7461
00004730  49                dec ecx
00004731  69457070456900    imul eax,[ebp+0x70],dword 0x694570
00004738  5F                pop edi
00004739  5A                pop edx
0000473A  4E                dec esi
0000473B  395F5F            cmp [edi+0x5f],ebx
0000473E  676E              a16 outsb
00004740  755F              jnz 0x47a1
00004742  637878            arpl [eax+0x78],di
00004745  3133              xor [ebx],esi
00004747  6E                outsb
00004748  65775F            gs ja 0x47aa
0000474B  61                popa
0000474C  6C                insb
0000474D  6C                insb
0000474E  6F                outsd
0000474F  636174            arpl [ecx+0x74],sp
00004752  6F                outsd
00004753  7249              jc 0x479e
00004755  53                push ebx
00004756  7431              jz 0x4789
00004758  335F52            xor ebx,[edi+0x52]
0000475B  625F74            bound ebx,[edi+0x74]
0000475E  7265              jc 0x47c5
00004760  655F              gs pop edi
00004762  6E                outsb
00004763  6F                outsd
00004764  646549            gs dec ecx
00004767  69454543324576    imul eax,[ebp+0x45],dword 0x76453243
0000476E  005F5A            add [edi+0x5a],bl
00004771  4E                dec esi
00004772  395F5F            cmp [edi+0x5f],ebx
00004775  676E              a16 outsb
00004777  755F              jnz 0x47d8
00004779  637878            arpl [eax+0x78],di
0000477C  3133              xor [ebx],esi
0000477E  6E                outsb
0000477F  65775F            gs ja 0x47e1
00004782  61                popa
00004783  6C                insb
00004784  6C                insb
00004785  6F                outsd
00004786  636174            arpl [ecx+0x74],sp
00004789  6F                outsd
0000478A  7249              jc 0x47d5
0000478C  53                push ebx
0000478D  7431              jz 0x47c0
0000478F  335F52            xor ebx,[edi+0x52]
00004792  625F74            bound ebx,[edi+0x74]
00004795  7265              jc 0x47fc
00004797  655F              gs pop edi
00004799  6E                outsb
0000479A  6F                outsd
0000479B  646549            gs dec ecx
0000479E  69454544314576    imul eax,[ebp+0x45],dword 0x76453144
000047A5  005F5A            add [edi+0x5a],bl
000047A8  4E                dec esi
000047A9  53                push ebx
000047AA  7433              jz 0x47df
000047AC  7365              jnc 0x4813
000047AE  7449              jz 0x47f9
000047B0  695374346C6573    imul edx,[ebx+0x74],dword 0x73656c34
000047B7  7349              jnc 0x4802
000047B9  69455361496945    imul eax,[ebp+0x53],dword 0x45694961
000047C0  45                inc ebp
000047C1  44                inc esp
000047C2  314576            xor [ebp+0x76],eax
000047C5  005F5A            add [edi+0x5a],bl
000047C8  4E                dec esi
000047C9  53                push ebx
000047CA  7438              jz 0x4804
000047CC  5F                pop edi
000047CD  52                push edx
000047CE  625F74            bound ebx,[edi+0x74]
000047D1  7265              jc 0x4838
000047D3  6549              gs dec ecx
000047D5  69695374395F49    imul ebp,[ecx+0x53],dword 0x495f3974
000047DC  64656E            gs outsb
000047DF  7469              jz 0x484a
000047E1  7479              jz 0x485c
000047E3  49                dec ecx
000047E4  69455374346C65    imul eax,[ebp+0x53],dword 0x656c3474
000047EB  7373              jnc 0x4860
000047ED  49                dec ecx
000047EE  69455361496945    imul eax,[ebp+0x53],dword 0x45694961
000047F5  45                inc ebp
000047F6  385F53            cmp [edi+0x53],bl
000047F9  5F                pop edi
000047FA  7269              jc 0x4865
000047FC  676874455053      a16 push dword 0x53504574
00004802  7431              jz 0x4835
00004804  385F52            cmp [edi+0x52],bl
00004807  625F74            bound ebx,[edi+0x74]
0000480A  7265              jc 0x4871
0000480C  655F              gs pop edi
0000480E  6E                outsb
0000480F  6F                outsd
00004810  64655F            gs pop edi
00004813  626173            bound esp,[ecx+0x73]
00004816  65005F5F          add [gs:edi+0x5f],bl
0000481A  637861            arpl [eax+0x61],di
0000481D  5F                pop edi
0000481E  61                popa
0000481F  7465              jz 0x4886
00004821  7869              js 0x488c
00004823  7440              jz 0x4865
00004825  40                inc eax
00004826  47                inc edi
00004827  4C                dec esp
00004828  49                dec ecx
00004829  42                inc edx
0000482A  43                inc ebx
0000482B  5F                pop edi
0000482C  322E              xor ch,[esi]
0000482E  312E              xor [esi],ebp
00004830  3300              xor eax,[eax]
00004832  5F                pop edi
00004833  5F                pop edi
00004834  6C                insb
00004835  6962635F637375    imul esp,[edx+0x63],dword 0x7573635f
0000483C  5F                pop edi
0000483D  66696E69005F      imul bp,[esi+0x69],word 0x5f00
00004843  5A                pop edx
00004844  4E                dec esi
00004845  53                push ebx
00004846  7433              jz 0x487b
00004848  7365              jnc 0x48af
0000484A  7449              jz 0x4895
0000484C  695374346C6573    imul edx,[ebx+0x74],dword 0x73656c34
00004853  7349              jnc 0x489e
00004855  69455361496945    imul eax,[ebp+0x53],dword 0x45694961
0000485C  45                inc ebp
0000485D  44                inc esp
0000485E  324576            xor al,[ebp+0x76]
00004861  005F5A            add [edi+0x5a],bl
00004864  4E                dec esi
00004865  53                push ebx
00004866  7433              jz 0x489b
00004868  7365              jnc 0x48cf
0000486A  7449              jz 0x48b5
0000486C  695374346C6573    imul edx,[ebx+0x74],dword 0x73656c34
00004873  7349              jnc 0x48be
00004875  69455361496945    imul eax,[ebp+0x53],dword 0x45694961
0000487C  45                inc ebp
0000487D  43                inc ebx
0000487E  314576            xor [ebp+0x76],eax
00004881  005F73            add [edi+0x73],bl
00004884  7461              jz 0x48e7
00004886  7274              jc 0x48fc
00004888  005F5A            add [edi+0x5a],bl
0000488B  4E                dec esi
0000488C  53                push ebx
0000488D  7438              jz 0x48c7
0000488F  5F                pop edi
00004890  52                push edx
00004891  625F74            bound ebx,[edi+0x74]
00004894  7265              jc 0x48fb
00004896  6549              gs dec ecx
00004898  69695374395F49    imul ebp,[ecx+0x53],dword 0x495f3974
0000489F  64656E            gs outsb
000048A2  7469              jz 0x490d
000048A4  7479              jz 0x491f
000048A6  49                dec ecx
000048A7  69455374346C65    imul eax,[ebp+0x53],dword 0x656c3474
000048AE  7373              jnc 0x4923
000048B0  49                dec ecx
000048B1  69455361496945    imul eax,[ebp+0x53],dword 0x45694961
000048B8  45                inc ebp
000048B9  31355F4D5F64      xor [0x645f4d5f],esi
000048BF  657374            gs jnc 0x4936
000048C2  726F              jc 0x4933
000048C4  795F              jns 0x4925
000048C6  6E                outsb
000048C7  6F                outsd
000048C8  646545            gs inc ebp
000048CB  50                push eax
000048CC  53                push ebx
000048CD  7431              jz 0x4900
000048CF  335F52            xor ebx,[edi+0x52]
000048D2  625F74            bound ebx,[edi+0x74]
000048D5  7265              jc 0x493c
000048D7  655F              gs pop edi
000048D9  6E                outsb
000048DA  6F                outsd
000048DB  646549            gs dec ecx
000048DE  6945005F5A4E53    imul eax,[ebp+0x0],dword 0x534e5a5f
000048E5  7438              jz 0x491f
000048E7  5F                pop edi
000048E8  52                push edx
000048E9  625F74            bound ebx,[edi+0x74]
000048EC  7265              jc 0x4953
000048EE  6549              gs dec ecx
000048F0  69695374395F49    imul ebp,[ecx+0x53],dword 0x495f3974
000048F7  64656E            gs outsb
000048FA  7469              jz 0x4965
000048FC  7479              jz 0x4977
000048FE  49                dec ecx
000048FF  69455374346C65    imul eax,[ebp+0x53],dword 0x656c3474
00004906  7373              jnc 0x497b
00004908  49                dec ecx
00004909  69455361496945    imul eax,[ebp+0x53],dword 0x45694961
00004910  45                inc ebp
00004911  3133              xor [ebx],esi
00004913  5F                pop edi
00004914  52                push edx
00004915  625F74            bound ebx,[edi+0x74]
00004918  7265              jc 0x497f
0000491A  655F              gs pop edi
0000491C  696D706C495333    imul ebp,[ebp+0x70],dword 0x3353496c
00004923  5F                pop edi
00004924  4C                dec esp
00004925  6230              bound esi,[eax]
00004927  45                inc ebp
00004928  45                inc ebp
00004929  44                inc esp
0000492A  324576            xor al,[ebp+0x76]
0000492D  005F5A            add [edi+0x5a],bl
00004930  4E                dec esi
00004931  53                push ebx
00004932  7438              jz 0x496c
00004934  5F                pop edi
00004935  52                push edx
00004936  625F74            bound ebx,[edi+0x74]
00004939  7265              jc 0x49a0
0000493B  6549              gs dec ecx
0000493D  69695374395F49    imul ebp,[ecx+0x53],dword 0x495f3974
00004944  64656E            gs outsb
00004947  7469              jz 0x49b2
00004949  7479              jz 0x49c4
0000494B  49                dec ecx
0000494C  69455374346C65    imul eax,[ebp+0x53],dword 0x656c3474
00004953  7373              jnc 0x49c8
00004955  49                dec ecx
00004956  69455361496945    imul eax,[ebp+0x53],dword 0x45694961
0000495D  45                inc ebp
0000495E  43                inc ebx
0000495F  314576            xor [ebp+0x76],eax
00004962  005F5F            add [edi+0x5f],bl
00004965  676D              a16 insd
00004967  6F                outsd
00004968  6E                outsb
00004969  5F                pop edi
0000496A  7374              jnc 0x49e0
0000496C  61                popa
0000496D  7274              jc 0x49e3
0000496F  5F                pop edi
00004970  5F                pop edi
00004971  005F4A            add [edi+0x4a],bl
00004974  765F              jna 0x49d5
00004976  52                push edx
00004977  6567697374657243  imul esi,[gs:bp+di+0x74],dword 0x6c437265
         -6C
00004980  61                popa
00004981  7373              jnc 0x49f6
00004983  657300            gs jnc 0x4986
00004986  5F                pop edi
00004987  66705F            o16 jo 0x49e9
0000498A  6877005F5A        push dword 0x5a5f0077
0000498F  646C              fs insb
00004991  50                push eax
00004992  7640              jna 0x49d4
00004994  40                inc eax
00004995  47                inc edi
00004996  4C                dec esp
00004997  49                dec ecx
00004998  42                inc edx
00004999  43                inc ebx
0000499A  58                pop eax
0000499B  58                pop eax
0000499C  5F                pop edi
0000499D  332E              xor ebp,[esi]
0000499F  3400              xor al,0x0
000049A1  5F                pop edi
000049A2  5A                pop edx
000049A3  4E                dec esi
000049A4  395F5F            cmp [edi+0x5f],ebx
000049A7  676E              a16 outsb
000049A9  755F              jnz 0x4a0a
000049AB  637878            arpl [eax+0x78],di
000049AE  3133              xor [ebx],esi
000049B0  6E                outsb
000049B1  65775F            gs ja 0x4a13
000049B4  61                popa
000049B5  6C                insb
000049B6  6C                insb
000049B7  6F                outsd
000049B8  636174            arpl [ecx+0x74],sp
000049BB  6F                outsd
000049BC  7249              jc 0x4a07
000049BE  69454431457600    imul eax,[ebp+0x44],dword 0x764531
000049C5  5F                pop edi
000049C6  5A                pop edx
000049C7  4E                dec esi
000049C8  53                push ebx
000049C9  7438              jz 0x4a03
000049CB  5F                pop edi
000049CC  52                push edx
000049CD  625F74            bound ebx,[edi+0x74]
000049D0  7265              jc 0x4a37
000049D2  6549              gs dec ecx
000049D4  69695374395F49    imul ebp,[ecx+0x53],dword 0x495f3974
000049DB  64656E            gs outsb
000049DE  7469              jz 0x4a49
000049E0  7479              jz 0x4a5b
000049E2  49                dec ecx
000049E3  69455374346C65    imul eax,[ebp+0x53],dword 0x656c3474
000049EA  7373              jnc 0x4a5f
000049EC  49                dec ecx
000049ED  69455361496945    imul eax,[ebp+0x53],dword 0x45694961
000049F4  45                inc ebp
000049F5  3133              xor [ebx],esi
000049F7  5F                pop edi
000049F8  52                push edx
000049F9  625F74            bound ebx,[edi+0x74]
000049FC  7265              jc 0x4a63
000049FE  655F              gs pop edi
00004A00  696D706C495333    imul ebp,[ebp+0x70],dword 0x3353496c
00004A07  5F                pop edi
00004A08  4C                dec esp
00004A09  6230              bound esi,[eax]
00004A0B  45                inc ebp
00004A0C  45                inc ebp
00004A0D  43                inc ebx
00004A0E  314576            xor [ebp+0x76],eax
00004A11  005F5A            add [edi+0x5a],bl
00004A14  4E                dec esi
00004A15  53                push ebx
00004A16  61                popa
00004A17  49                dec ecx
00004A18  69454331495374    imul eax,[ebp+0x43],dword 0x74534931
00004A1F  3133              xor [ebx],esi
00004A21  5F                pop edi
00004A22  52                push edx
00004A23  625F74            bound ebx,[edi+0x74]
00004A26  7265              jc 0x4a8d
00004A28  655F              gs pop edi
00004A2A  6E                outsb
00004A2B  6F                outsd
00004A2C  646549            gs dec ecx
00004A2F  69454545524B53    imul eax,[ebp+0x45],dword 0x534b5245
00004A36  61                popa
00004A37  49                dec ecx
00004A38  54                push esp
00004A39  5F                pop edi
00004A3A  45                inc ebp
00004A3B  005F66            add [edi+0x66],bl
00004A3E  696E69005F5A4E    imul ebp,[esi+0x69],dword 0x4e5a5f00
00004A45  53                push ebx
00004A46  7438              jz 0x4a80
00004A48  5F                pop edi
00004A49  52                push edx
00004A4A  625F74            bound ebx,[edi+0x74]
00004A4D  7265              jc 0x4ab4
00004A4F  6549              gs dec ecx
00004A51  69695374395F49    imul ebp,[ecx+0x53],dword 0x495f3974
00004A58  64656E            gs outsb
00004A5B  7469              jz 0x4ac6
00004A5D  7479              jz 0x4ad8
00004A5F  49                dec ecx
00004A60  69455374346C65    imul eax,[ebp+0x53],dword 0x656c3474
00004A67  7373              jnc 0x4adc
00004A69  49                dec ecx
00004A6A  69455361496945    imul eax,[ebp+0x53],dword 0x45694961
00004A71  45                inc ebp
00004A72  385F4D            cmp [edi+0x4d],bl
00004A75  5F                pop edi
00004A76  626567            bound esp,[ebp+0x67]
00004A79  696E4576005F5A    imul ebp,[esi+0x45],dword 0x5a5f0076
00004A80  4E                dec esi
00004A81  53                push ebx
00004A82  7438              jz 0x4abc
00004A84  696F735F626173    imul ebp,[edi+0x73],dword 0x7361625f
00004A8B  653449            gs xor al,0x49
00004A8E  6E                outsb
00004A8F  6974433145764040  imul esi,[ebx+eax*2+0x31],dword 0x40407645
00004A97  47                inc edi
00004A98  4C                dec esp
00004A99  49                dec ecx
00004A9A  42                inc edx
00004A9B  43                inc ebx
00004A9C  58                pop eax
00004A9D  58                pop eax
00004A9E  5F                pop edi
00004A9F  332E              xor ebp,[esi]
00004AA1  3400              xor al,0x0
00004AA3  5F                pop edi
00004AA4  5A                pop edx
00004AA5  4E                dec esi
00004AA6  4B                dec ebx
00004AA7  395F5F            cmp [edi+0x5f],ebx
00004AAA  676E              a16 outsb
00004AAC  755F              jnz 0x4b0d
00004AAE  637878            arpl [eax+0x78],di
00004AB1  3133              xor [ebx],esi
00004AB3  6E                outsb
00004AB4  65775F            gs ja 0x4b16
00004AB7  61                popa
00004AB8  6C                insb
00004AB9  6C                insb
00004ABA  6F                outsd
00004ABB  636174            arpl [ecx+0x74],sp
00004ABE  6F                outsd
00004ABF  7249              jc 0x4b0a
00004AC1  53                push ebx
00004AC2  7431              jz 0x4af5
00004AC4  335F52            xor ebx,[edi+0x52]
00004AC7  625F74            bound ebx,[edi+0x74]
00004ACA  7265              jc 0x4b31
00004ACC  655F              gs pop edi
00004ACE  6E                outsb
00004ACF  6F                outsd
00004AD0  646549            gs dec ecx
00004AD3  694545386D6178    imul eax,[ebp+0x45],dword 0x78616d38
00004ADA  5F                pop edi
00004ADB  7369              jnc 0x4b46
00004ADD  7A65              jpe 0x4b44
00004ADF  45                inc ebp
00004AE0  7600              jna 0x4ae2
00004AE2  5F                pop edi
00004AE3  5A                pop edx
00004AE4  4E                dec esi
00004AE5  53                push ebx
00004AE6  7438              jz 0x4b20
00004AE8  5F                pop edi
00004AE9  52                push edx
00004AEA  625F74            bound ebx,[edi+0x74]
00004AED  7265              jc 0x4b54
00004AEF  6549              gs dec ecx
00004AF1  69695374395F49    imul ebp,[ecx+0x53],dword 0x495f3974
00004AF8  64656E            gs outsb
00004AFB  7469              jz 0x4b66
00004AFD  7479              jz 0x4b78
00004AFF  49                dec ecx
00004B00  69455374346C65    imul eax,[ebp+0x53],dword 0x656c3474
00004B07  7373              jnc 0x4b7c
00004B09  49                dec ecx
00004B0A  69455361496945    imul eax,[ebp+0x53],dword 0x45694961
00004B11  45                inc ebp
00004B12  31345F            xor [edi+ebx*2],esi
00004B15  4D                dec ebp
00004B16  5F                pop edi
00004B17  6C                insb
00004B18  6F                outsd
00004B19  7765              ja 0x4b80
00004B1B  725F              jc 0x4b7c
00004B1D  626F75            bound ebp,[edi+0x75]
00004B20  6E                outsb
00004B21  6445              fs inc ebp
00004B23  50                push eax
00004B24  53                push ebx
00004B25  7431              jz 0x4b58
00004B27  335F52            xor ebx,[edi+0x52]
00004B2A  625F74            bound ebx,[edi+0x74]
00004B2D  7265              jc 0x4b94
00004B2F  655F              gs pop edi
00004B31  6E                outsb
00004B32  6F                outsd
00004B33  646549            gs dec ecx
00004B36  694553385F524B    imul eax,[ebp+0x53],dword 0x4b525f38
00004B3D  69005F5A4E4B      imul eax,[eax],dword 0x4b4e5a5f
00004B43  53                push ebx
00004B44  7438              jz 0x4b7e
00004B46  5F                pop edi
00004B47  52                push edx
00004B48  625F74            bound ebx,[edi+0x74]
00004B4B  7265              jc 0x4bb2
00004B4D  6549              gs dec ecx
00004B4F  69695374395F49    imul ebp,[ecx+0x53],dword 0x495f3974
00004B56  64656E            gs outsb
00004B59  7469              jz 0x4bc4
00004B5B  7479              jz 0x4bd6
00004B5D  49                dec ecx
00004B5E  69455374346C65    imul eax,[ebp+0x53],dword 0x656c3474
00004B65  7373              jnc 0x4bda
00004B67  49                dec ecx
00004B68  69455361496945    imul eax,[ebp+0x53],dword 0x45694961
00004B6F  45                inc ebp
00004B70  3133              xor [ebx],esi
00004B72  6765745F          gs a16 jz 0x4bd5
00004B76  61                popa
00004B77  6C                insb
00004B78  6C                insb
00004B79  6F                outsd
00004B7A  636174            arpl [ecx+0x74],sp
00004B7D  6F                outsd
00004B7E  7245              jc 0x4bc5
00004B80  7600              jna 0x4b82
00004B82  5F                pop edi
00004B83  5A                pop edx
00004B84  4E                dec esi
00004B85  53                push ebx
00004B86  7438              jz 0x4bc0
00004B88  5F                pop edi
00004B89  52                push edx
00004B8A  625F74            bound ebx,[edi+0x74]
00004B8D  7265              jc 0x4bf4
00004B8F  6549              gs dec ecx
00004B91  69695374395F49    imul ebp,[ecx+0x53],dword 0x495f3974
00004B98  64656E            gs outsb
00004B9B  7469              jz 0x4c06
00004B9D  7479              jz 0x4c18
00004B9F  49                dec ecx
00004BA0  69455374346C65    imul eax,[ebp+0x53],dword 0x656c3474
00004BA7  7373              jnc 0x4c1c
00004BA9  49                dec ecx
00004BAA  69455361496945    imul eax,[ebp+0x53],dword 0x45694961
00004BB1  45                inc ebp
00004BB2  3131              xor [ecx],esi
00004BB4  5F                pop edi
00004BB5  4D                dec ebp
00004BB6  5F                pop edi
00004BB7  6C                insb
00004BB8  6566746D          gs o16 jz 0x4c29
00004BBC  6F                outsd
00004BBD  7374              jnc 0x4c33
00004BBF  45                inc ebp
00004BC0  7600              jna 0x4bc2
00004BC2  5F                pop edi
00004BC3  5A                pop edx
00004BC4  4E                dec esi
00004BC5  53                push ebx
00004BC6  61                popa
00004BC7  49                dec ecx
00004BC8  69454332495374    imul eax,[ebp+0x43],dword 0x74534932
00004BCF  3133              xor [ebx],esi
00004BD1  5F                pop edi
00004BD2  52                push edx
00004BD3  625F74            bound ebx,[edi+0x74]
00004BD6  7265              jc 0x4c3d
00004BD8  655F              gs pop edi
00004BDA  6E                outsb
00004BDB  6F                outsd
00004BDC  646549            gs dec ecx
00004BDF  69454545524B53    imul eax,[ebp+0x45],dword 0x534b5245
00004BE6  61                popa
00004BE7  49                dec ecx
00004BE8  54                push esp
00004BE9  5F                pop edi
00004BEA  45                inc ebp
00004BEB  005F5A            add [edi+0x5a],bl
00004BEE  53                push ebx
00004BEF  7431              jz 0x4c22
00004BF1  385F52            cmp [edi+0x52],bl
00004BF4  625F74            bound ebx,[edi+0x74]
00004BF7  7265              jc 0x4c5e
00004BF9  655F              gs pop edi
00004BFB  6465637265        arpl [gs:edx+0x65],si
00004C00  6D                insd
00004C01  656E              gs outsb
00004C03  7450              jz 0x4c55
00004C05  53                push ebx
00004C06  7431              jz 0x4c39
00004C08  385F52            cmp [edi+0x52],bl
00004C0B  625F74            bound ebx,[edi+0x74]
00004C0E  7265              jc 0x4c75
00004C10  655F              gs pop edi
00004C12  6E                outsb
00004C13  6F                outsd
00004C14  64655F            gs pop edi
00004C17  626173            bound esp,[ecx+0x73]
00004C1A  6540              gs inc eax
00004C1C  40                inc eax
00004C1D  47                inc edi
00004C1E  4C                dec esp
00004C1F  49                dec ecx
00004C20  42                inc edx
00004C21  43                inc ebx
00004C22  58                pop eax
00004C23  58                pop eax
00004C24  5F                pop edi
00004C25  332E              xor ebp,[esi]
00004C27  3400              xor al,0x0
00004C29  5F                pop edi
00004C2A  5A                pop edx
00004C2B  4E                dec esi
00004C2C  395F5F            cmp [edi+0x5f],ebx
00004C2F  676E              a16 outsb
00004C31  755F              jnz 0x4c92
00004C33  637878            arpl [eax+0x78],di
00004C36  3133              xor [ebx],esi
00004C38  6E                outsb
00004C39  65775F            gs ja 0x4c9b
00004C3C  61                popa
00004C3D  6C                insb
00004C3E  6C                insb
00004C3F  6F                outsd
00004C40  636174            arpl [ecx+0x74],sp
00004C43  6F                outsd
00004C44  7249              jc 0x4c8f
00004C46  69454432457600    imul eax,[ebp+0x44],dword 0x764532
00004C4D  5F                pop edi
00004C4E  5A                pop edx
00004C4F  4E                dec esi
00004C50  53                push ebx
00004C51  7438              jz 0x4c8b
00004C53  5F                pop edi
00004C54  52                push edx
00004C55  625F74            bound ebx,[edi+0x74]
00004C58  7265              jc 0x4cbf
00004C5A  6549              gs dec ecx
00004C5C  69695374395F49    imul ebp,[ecx+0x53],dword 0x495f3974
00004C63  64656E            gs outsb
00004C66  7469              jz 0x4cd1
00004C68  7479              jz 0x4ce3
00004C6A  49                dec ecx
00004C6B  69455374346C65    imul eax,[ebp+0x53],dword 0x656c3474
00004C72  7373              jnc 0x4ce7
00004C74  49                dec ecx
00004C75  69455361496945    imul eax,[ebp+0x53],dword 0x45694961
00004C7C  45                inc ebp
00004C7D  3132              xor [edx],esi
00004C7F  5F                pop edi
00004C80  4D                dec ebp
00004C81  5F                pop edi
00004C82  657261            gs jc 0x4ce6
00004C85  7365              jnc 0x4cec
00004C87  5F                pop edi
00004C88  61                popa
00004C89  7578              jnz 0x4d03
00004C8B  45                inc ebp
00004C8C  53                push ebx
00004C8D  7432              jz 0x4cc1
00004C8F  335F52            xor ebx,[edi+0x52]
00004C92  625F74            bound ebx,[edi+0x74]
00004C95  7265              jc 0x4cfc
00004C97  655F              gs pop edi
00004C99  636F6E            arpl [edi+0x6e],bp
00004C9C  7374              jnc 0x4d12
00004C9E  5F                pop edi
00004C9F  6974657261746F72  imul esi,[ebp+0x72],dword 0x726f7461
00004CA7  49                dec ecx
00004CA8  6945005F5A4E53    imul eax,[ebp+0x0],dword 0x534e5a5f
00004CAF  7438              jz 0x4ce9
00004CB1  5F                pop edi
00004CB2  52                push edx
00004CB3  625F74            bound ebx,[edi+0x74]
00004CB6  7265              jc 0x4d1d
00004CB8  6549              gs dec ecx
00004CBA  69695374395F49    imul ebp,[ecx+0x53],dword 0x495f3974
00004CC1  64656E            gs outsb
00004CC4  7469              jz 0x4d2f
00004CC6  7479              jz 0x4d41
00004CC8  49                dec ecx
00004CC9  69455374346C65    imul eax,[ebp+0x53],dword 0x656c3474
00004CD0  7373              jnc 0x4d45
00004CD2  49                dec ecx
00004CD3  69455361496945    imul eax,[ebp+0x53],dword 0x45694961
00004CDA  45                inc ebp
00004CDB  3132              xor [edx],esi
00004CDD  5F                pop edi
00004CDE  4D                dec ebp
00004CDF  5F                pop edi
00004CE0  657261            gs jc 0x4d44
00004CE3  7365              jnc 0x4d4a
00004CE5  5F                pop edi
00004CE6  61                popa
00004CE7  7578              jnz 0x4d61
00004CE9  45                inc ebp
00004CEA  53                push ebx
00004CEB  7432              jz 0x4d1f
00004CED  335F52            xor ebx,[edi+0x52]
00004CF0  625F74            bound ebx,[edi+0x74]
00004CF3  7265              jc 0x4d5a
00004CF5  655F              gs pop edi
00004CF7  636F6E            arpl [edi+0x6e],bp
00004CFA  7374              jnc 0x4d70
00004CFC  5F                pop edi
00004CFD  6974657261746F72  imul esi,[ebp+0x72],dword 0x726f7461
00004D05  49                dec ecx
00004D06  694553375F005F    imul eax,[ebp+0x53],dword 0x5f005f37
00004D0D  5F                pop edi
00004D0E  6C                insb
00004D0F  6962635F737461    imul esp,[edx+0x63],dword 0x6174735f
00004D16  7274              jc 0x4d8c
00004D18  5F                pop edi
00004D19  6D                insd
00004D1A  61                popa
00004D1B  696E4040474C49    imul ebp,[esi+0x40],dword 0x494c4740
00004D22  42                inc edx
00004D23  43                inc ebx
00004D24  5F                pop edi
00004D25  322E              xor ch,[esi]
00004D27  3000              xor [eax],al
00004D29  5F                pop edi
00004D2A  5A                pop edx
00004D2B  4E                dec esi
00004D2C  53                push ebx
00004D2D  7438              jz 0x4d67
00004D2F  5F                pop edi
00004D30  52                push edx
00004D31  625F74            bound ebx,[edi+0x74]
00004D34  7265              jc 0x4d9b
00004D36  6549              gs dec ecx
00004D38  69695374395F49    imul ebp,[ecx+0x53],dword 0x495f3974
00004D3F  64656E            gs outsb
00004D42  7469              jz 0x4dad
00004D44  7479              jz 0x4dbf
00004D46  49                dec ecx
00004D47  69455374346C65    imul eax,[ebp+0x53],dword 0x656c3474
00004D4E  7373              jnc 0x4dc3
00004D50  49                dec ecx
00004D51  69455361496945    imul eax,[ebp+0x53],dword 0x45694961
00004D58  45                inc ebp
00004D59  32345F            xor dh,[edi+ebx*2]
00004D5C  4D                dec ebp
00004D5D  5F                pop edi
00004D5E  6765745F          gs a16 jz 0x4dc1
00004D62  696E736572745F    imul ebp,[esi+0x73],dword 0x5f747265
00004D69  756E              jnz 0x4dd9
00004D6B  697175655F706F    imul esi,[ecx+0x75],dword 0x6f705f65
00004D72  7345              jnc 0x4db9
00004D74  52                push edx
00004D75  4B                dec ebx
00004D76  69005F5A4E4B      imul eax,[eax],dword 0x4b4e5a5f
00004D7C  53                push ebx
00004D7D  7433              jz 0x4db2
00004D7F  7365              jnc 0x4de6
00004D81  7449              jz 0x4dcc
00004D83  695374346C6573    imul edx,[ebx+0x74],dword 0x73656c34
00004D8A  7349              jnc 0x4dd5
00004D8C  69455361496945    imul eax,[ebp+0x53],dword 0x45694961
00004D93  45                inc ebp
00004D94  3562656769        xor eax,0x69676562
00004D99  6E                outsb
00004D9A  45                inc ebp
00004D9B  7600              jna 0x4d9d
00004D9D  5F                pop edi
00004D9E  5A                pop edx
00004D9F  4E                dec esi
00004DA0  53                push ebx
00004DA1  7433              jz 0x4dd6
00004DA3  7365              jnc 0x4e0a
00004DA5  7449              jz 0x4df0
00004DA7  695374346C6573    imul edx,[ebx+0x74],dword 0x73656c34
00004DAE  7349              jnc 0x4df9
00004DB0  69455361496945    imul eax,[ebp+0x53],dword 0x45694961
00004DB7  45                inc ebp
00004DB8  43                inc ebx
00004DB9  324576            xor al,[ebp+0x76]
00004DBC  005F5A            add [edi+0x5a],bl
00004DBF  4E                dec esi
00004DC0  53                push ebx
00004DC1  7434              jz 0x4df7
00004DC3  7061              jo 0x4e26
00004DC5  69724953743233    imul esi,[edx+0x49],dword 0x33327453
00004DCC  5F                pop edi
00004DCD  52                push edx
00004DCE  625F74            bound ebx,[edi+0x74]
00004DD1  7265              jc 0x4e38
00004DD3  655F              gs pop edi
00004DD5  636F6E            arpl [edi+0x6e],bp
00004DD8  7374              jnc 0x4e4e
00004DDA  5F                pop edi
00004DDB  6974657261746F72  imul esi,[ebp+0x72],dword 0x726f7461
00004DE3  49                dec ecx
00004DE4  69456245433145    imul eax,[ebp+0x62],dword 0x45314345
00004DEB  52                push edx
00004DEC  4B                dec ebx
00004DED  53                push ebx
00004DEE  315F52            xor [edi+0x52],ebx
00004DF1  4B                dec ebx
00004DF2  6200              bound eax,[eax]
00004DF4  5F                pop edi
00004DF5  5A                pop edx
00004DF6  4E                dec esi
00004DF7  53                push ebx
00004DF8  7438              jz 0x4e32
00004DFA  696F735F626173    imul ebp,[edi+0x73],dword 0x7361625f
00004E01  653449            gs xor al,0x49
00004E04  6E                outsb
00004E05  6974443145764040  imul esi,[esp+eax*2+0x31],dword 0x40407645
00004E0D  47                inc edi
00004E0E  4C                dec esp
00004E0F  49                dec ecx
00004E10  42                inc edx
00004E11  43                inc ebx
00004E12  58                pop eax
00004E13  58                pop eax
00004E14  5F                pop edi
00004E15  332E              xor ebp,[esi]
00004E17  3400              xor al,0x0
00004E19  5F                pop edi
00004E1A  49                dec ecx
00004E1B  54                push esp
00004E1C  4D                dec ebp
00004E1D  5F                pop edi
00004E1E  64657265          gs jc 0x4e87
00004E22  676973746572544D  imul esi,[bp+di+0x74],dword 0x4d547265
00004E2A  43                inc ebx
00004E2B  6C                insb
00004E2C  6F                outsd
00004E2D  6E                outsb
00004E2E  6554              gs push esp
00004E30  61                popa
00004E31  626C6500          bound ebp,[ebp+0x0]
00004E35  5F                pop edi
00004E36  49                dec ecx
00004E37  4F                dec edi
00004E38  5F                pop edi
00004E39  7374              jnc 0x4eaf
00004E3B  64696E5F75736564  imul ebp,[fs:esi+0x5f],dword 0x64657375
00004E43  005F5A            add [edi+0x5a],bl
00004E46  4E                dec esi
00004E47  53                push ebx
00004E48  7431              jz 0x4e7b
00004E4A  37                aaa
00004E4B  5F                pop edi
00004E4C  52                push edx
00004E4D  625F74            bound ebx,[edi+0x74]
00004E50  7265              jc 0x4eb7
00004E52  655F              gs pop edi
00004E54  6974657261746F72  imul esi,[ebp+0x72],dword 0x726f7461
00004E5C  49                dec ecx
00004E5D  69456D6D457600    imul eax,[ebp+0x6d],dword 0x76456d
00004E64  5F                pop edi
00004E65  5A                pop edx
00004E66  4E                dec esi
00004E67  53                push ebx
00004E68  61                popa
00004E69  49                dec ecx
00004E6A  53                push ebx
00004E6B  7431              jz 0x4e9e
00004E6D  335F52            xor ebx,[edi+0x52]
00004E70  625F74            bound ebx,[edi+0x74]
00004E73  7265              jc 0x4eda
00004E75  655F              gs pop edi
00004E77  6E                outsb
00004E78  6F                outsd
00004E79  646549            gs dec ecx
00004E7C  69454543324576    imul eax,[ebp+0x45],dword 0x76453243
00004E83  005F5A            add [edi+0x5a],bl
00004E86  6E                outsb
00004E87  776A              ja 0x4ef3
00004E89  50                push eax
00004E8A  7600              jna 0x4e8c
00004E8C  5F                pop edi
00004E8D  5A                pop edx
00004E8E  4E                dec esi
00004E8F  395F5F            cmp [edi+0x5f],ebx
00004E92  676E              a16 outsb
00004E94  755F              jnz 0x4ef5
00004E96  637878            arpl [eax+0x78],di
00004E99  3133              xor [ebx],esi
00004E9B  6E                outsb
00004E9C  65775F            gs ja 0x4efe
00004E9F  61                popa
00004EA0  6C                insb
00004EA1  6C                insb
00004EA2  6F                outsd
00004EA3  636174            arpl [ecx+0x74],sp
00004EA6  6F                outsd
00004EA7  7249              jc 0x4ef2
00004EA9  53                push ebx
00004EAA  7431              jz 0x4edd
00004EAC  335F52            xor ebx,[edi+0x52]
00004EAF  625F74            bound ebx,[edi+0x74]
00004EB2  7265              jc 0x4f19
00004EB4  655F              gs pop edi
00004EB6  6E                outsb
00004EB7  6F                outsd
00004EB8  646549            gs dec ecx
00004EBB  69454543314576    imul eax,[ebp+0x45],dword 0x76453143
00004EC2  005F5A            add [edi+0x5a],bl
00004EC5  4E                dec esi
00004EC6  53                push ebx
00004EC7  61                popa
00004EC8  49                dec ecx
00004EC9  53                push ebx
00004ECA  7431              jz 0x4efd
00004ECC  335F52            xor ebx,[edi+0x52]
00004ECF  625F74            bound ebx,[edi+0x74]
00004ED2  7265              jc 0x4f39
00004ED4  655F              gs pop edi
00004ED6  6E                outsb
00004ED7  6F                outsd
00004ED8  646549            gs dec ecx
00004EDB  69454544314576    imul eax,[ebp+0x45],dword 0x76453144
00004EE2  007363            add [ebx+0x63],dh
00004EE5  61                popa
00004EE6  6E                outsb
00004EE7  6640              inc ax
00004EE9  40                inc eax
00004EEA  47                inc edi
00004EEB  4C                dec esp
00004EEC  49                dec ecx
00004EED  42                inc edx
00004EEE  43                inc ebx
00004EEF  5F                pop edi
00004EF0  322E              xor ch,[esi]
00004EF2  3000              xor [eax],al
00004EF4  5F                pop edi
00004EF5  5A                pop edx
00004EF6  4E                dec esi
00004EF7  53                push ebx
00004EF8  61                popa
00004EF9  49                dec ecx
00004EFA  53                push ebx
00004EFB  7431              jz 0x4f2e
00004EFD  335F52            xor ebx,[edi+0x52]
00004F00  625F74            bound ebx,[edi+0x74]
00004F03  7265              jc 0x4f6a
00004F05  655F              gs pop edi
00004F07  6E                outsb
00004F08  6F                outsd
00004F09  646549            gs dec ecx
00004F0C  69454544324576    imul eax,[ebp+0x45],dword 0x76453244
00004F13  005F5A            add [edi+0x5a],bl
00004F16  4E                dec esi
00004F17  53                push ebx
00004F18  7433              jz 0x4f4d
00004F1A  7365              jnc 0x4f81
00004F1C  7449              jz 0x4f67
00004F1E  695374346C6573    imul edx,[ebx+0x74],dword 0x73656c34
00004F25  7349              jnc 0x4f70
00004F27  69455361496945    imul eax,[ebp+0x53],dword 0x45694961
00004F2E  45                inc ebp
00004F2F  36696E7365727445  imul ebp,[ss:esi+0x73],dword 0x45747265
00004F37  52                push edx
00004F38  4B                dec ebx
00004F39  69005F5A4E53      imul eax,[eax],dword 0x534e5a5f
00004F3F  7434              jz 0x4f75
00004F41  7061              jo 0x4fa4
00004F43  69724953743137    imul esi,[edx+0x49],dword 0x37317453
00004F4A  5F                pop edi
00004F4B  52                push edx
00004F4C  625F74            bound ebx,[edi+0x74]
00004F4F  7265              jc 0x4fb6
00004F51  655F              gs pop edi
00004F53  6974657261746F72  imul esi,[ebp+0x72],dword 0x726f7461
00004F5B  49                dec ecx
00004F5C  69456245433145    imul eax,[ebp+0x62],dword 0x45314345
00004F63  52                push edx
00004F64  4B                dec ebx
00004F65  53                push ebx
00004F66  315F52            xor [edi+0x52],ebx
00004F69  4B                dec ebx
00004F6A  6200              bound eax,[eax]
00004F6C  5F                pop edi
00004F6D  5A                pop edx
00004F6E  4E                dec esi
00004F6F  4B                dec ebx
00004F70  53                push ebx
00004F71  7433              jz 0x4fa6
00004F73  7365              jnc 0x4fda
00004F75  7449              jz 0x4fc0
00004F77  695374346C6573    imul edx,[ebx+0x74],dword 0x73656c34
00004F7E  7349              jnc 0x4fc9
00004F80  69455361496945    imul eax,[ebp+0x53],dword 0x45694961
00004F87  45                inc ebp
00004F88  3473              xor al,0x73
00004F8A  697A654576005F    imul edi,[edx+0x65],dword 0x5f007645
00004F91  5A                pop edx
00004F92  4E                dec esi
00004F93  53                push ebx
00004F94  7432              jz 0x4fc8
00004F96  335F52            xor ebx,[edi+0x52]
00004F99  625F74            bound ebx,[edi+0x74]
00004F9C  7265              jc 0x5003
00004F9E  655F              gs pop edi
00004FA0  636F6E            arpl [edi+0x6e],bp
00004FA3  7374              jnc 0x5019
00004FA5  5F                pop edi
00004FA6  6974657261746F72  imul esi,[ebp+0x72],dword 0x726f7461
00004FAE  49                dec ecx
00004FAF  6945433245504B    imul eax,[ebp+0x43],dword 0x4b504532
00004FB6  53                push ebx
00004FB7  7431              jz 0x4fea
00004FB9  335F52            xor ebx,[edi+0x52]
00004FBC  625F74            bound ebx,[edi+0x74]
00004FBF  7265              jc 0x5026
00004FC1  655F              gs pop edi
00004FC3  6E                outsb
00004FC4  6F                outsd
00004FC5  646549            gs dec ecx
00004FC8  6945005F49544D    imul eax,[ebp+0x0],dword 0x4d54495f
00004FCF  5F                pop edi
00004FD0  7265              jc 0x5037
00004FD2  676973746572544D  imul esi,[bp+di+0x74],dword 0x4d547265
00004FDA  43                inc ebx
00004FDB  6C                insb
00004FDC  6F                outsd
00004FDD  6E                outsb
00004FDE  6554              gs push esp
00004FE0  61                popa
00004FE1  626C6500          bound ebp,[ebp+0x0]
00004FE5  5F                pop edi
00004FE6  5F                pop edi
00004FE7  6461              fs popa
00004FE9  7461              jz 0x504c
00004FEB  5F                pop edi
00004FEC  7374              jnc 0x5062
00004FEE  61                popa
00004FEF  7274              jc 0x5065
00004FF1  005F5A            add [edi+0x5a],bl
00004FF4  4E                dec esi
00004FF5  53                push ebx
00004FF6  7438              jz 0x5030
00004FF8  5F                pop edi
00004FF9  52                push edx
00004FFA  625F74            bound ebx,[edi+0x74]
00004FFD  7265              jc 0x5064
00004FFF  6549              gs dec ecx
00005001  69695374395F49    imul ebp,[ecx+0x53],dword 0x495f3974
00005008  64656E            gs outsb
0000500B  7469              jz 0x5076
0000500D  7479              jz 0x5088
0000500F  49                dec ecx
00005010  69455374346C65    imul eax,[ebp+0x53],dword 0x656c3474
00005017  7373              jnc 0x508c
00005019  49                dec ecx
0000501A  69455361496945    imul eax,[ebp+0x53],dword 0x45694961
00005021  45                inc ebp
00005022  35636C6561        xor eax,0x61656c63
00005027  7245              jc 0x506e
00005029  7600              jna 0x502b
0000502B  5F                pop edi
0000502C  5A                pop edx
0000502D  4E                dec esi
0000502E  4B                dec ebx
0000502F  53                push ebx
00005030  7438              jz 0x506a
00005032  5F                pop edi
00005033  52                push edx
00005034  625F74            bound ebx,[edi+0x74]
00005037  7265              jc 0x509e
00005039  6549              gs dec ecx
0000503B  69695374395F49    imul ebp,[ecx+0x53],dword 0x495f3974
00005042  64656E            gs outsb
00005045  7469              jz 0x50b0
00005047  7479              jz 0x50c2
00005049  49                dec ecx
0000504A  69455374346C65    imul eax,[ebp+0x53],dword 0x656c3474
00005051  7373              jnc 0x50c6
00005053  49                dec ecx
00005054  69455361496945    imul eax,[ebp+0x53],dword 0x45694961
0000505B  45                inc ebp
0000505C  3562656769        xor eax,0x69676562
00005061  6E                outsb
00005062  45                inc ebp
00005063  7600              jna 0x5065
00005065  5F                pop edi
00005066  5A                pop edx
00005067  4E                dec esi
00005068  4B                dec ebx
00005069  53                push ebx
0000506A  7434              jz 0x50a0
0000506C  6C                insb
0000506D  657373            gs jnc 0x50e3
00005070  49                dec ecx
00005071  6945636C45524B    imul eax,[ebp+0x63],dword 0x4b52456c
00005078  6953325F005F5A    imul edx,[ebx+0x32],dword 0x5a5f005f
0000507F  4E                dec esi
00005080  53                push ebx
00005081  7438              jz 0x50bb
00005083  5F                pop edi
00005084  52                push edx
00005085  625F74            bound ebx,[edi+0x74]
00005088  7265              jc 0x50ef
0000508A  6549              gs dec ecx
0000508C  69695374395F49    imul ebp,[ecx+0x53],dword 0x495f3974
00005093  64656E            gs outsb
00005096  7469              jz 0x5101
00005098  7479              jz 0x5113
0000509A  49                dec ecx
0000509B  69455374346C65    imul eax,[ebp+0x53],dword 0x656c3474
000050A2  7373              jnc 0x5117
000050A4  49                dec ecx
000050A5  69455361496945    imul eax,[ebp+0x53],dword 0x45694961
000050AC  45                inc ebp
000050AD  3130              xor [eax],esi
000050AF  5F                pop edi
000050B0  4D                dec ebp
000050B1  5F                pop edi
000050B2  696E736572745F    imul ebp,[esi+0x73],dword 0x5f747265
000050B9  45                inc ebp
000050BA  50                push eax
000050BB  53                push ebx
000050BC  7431              jz 0x50ef
000050BE  385F52            cmp [edi+0x52],bl
000050C1  625F74            bound ebx,[edi+0x74]
000050C4  7265              jc 0x512b
000050C6  655F              gs pop edi
000050C8  6E                outsb
000050C9  6F                outsd
000050CA  64655F            gs pop edi
000050CD  626173            bound esp,[ecx+0x73]
000050D0  6553              gs push ebx
000050D2  37                aaa
000050D3  5F                pop edi
000050D4  52                push edx
000050D5  4B                dec ebx
000050D6  69005F5A4E53      imul eax,[eax],dword 0x534e5a5f
000050DC  7431              jz 0x510f
000050DE  37                aaa
000050DF  5F                pop edi
000050E0  52                push edx
000050E1  625F74            bound ebx,[edi+0x74]
000050E4  7265              jc 0x514b
000050E6  655F              gs pop edi
000050E8  6974657261746F72  imul esi,[ebp+0x72],dword 0x726f7461
000050F0  49                dec ecx
000050F1  69454332455053    imul eax,[ebp+0x43],dword 0x53504532
000050F8  7431              jz 0x512b
000050FA  335F52            xor ebx,[edi+0x52]
000050FD  625F74            bound ebx,[edi+0x74]
00005100  7265              jc 0x5167
00005102  655F              gs pop edi
00005104  6E                outsb
00005105  6F                outsd
00005106  646549            gs dec ecx
00005109  6945005F5A4E53    imul eax,[ebp+0x0],dword 0x534e5a5f
00005110  7432              jz 0x5144
00005112  335F52            xor ebx,[edi+0x52]
00005115  625F74            bound ebx,[edi+0x74]
00005118  7265              jc 0x517f
0000511A  655F              gs pop edi
0000511C  636F6E            arpl [edi+0x6e],bp
0000511F  7374              jnc 0x5195
00005121  5F                pop edi
00005122  6974657261746F72  imul esi,[ebp+0x72],dword 0x726f7461
0000512A  49                dec ecx
0000512B  6945433245524B    imul eax,[ebp+0x43],dword 0x4b524532
00005132  53                push ebx
00005133  7431              jz 0x5166
00005135  37                aaa
00005136  5F                pop edi
00005137  52                push edx
00005138  625F74            bound ebx,[edi+0x74]
0000513B  7265              jc 0x51a2
0000513D  655F              gs pop edi
0000513F  6974657261746F72  imul esi,[ebp+0x72],dword 0x726f7461
00005147  49                dec ecx
00005148  6945005F5A4E39    imul eax,[ebp+0x0],dword 0x394e5a5f
0000514F  5F                pop edi
00005150  5F                pop edi
00005151  676E              a16 outsb
00005153  755F              jnz 0x51b4
00005155  637878            arpl [eax+0x78],di
00005158  3133              xor [ebx],esi
0000515A  6E                outsb
0000515B  65775F            gs ja 0x51bd
0000515E  61                popa
0000515F  6C                insb
00005160  6C                insb
00005161  6F                outsd
00005162  636174            arpl [ecx+0x74],sp
00005165  6F                outsd
00005166  7249              jc 0x51b1
00005168  53                push ebx
00005169  7431              jz 0x519c
0000516B  335F52            xor ebx,[edi+0x52]
0000516E  625F74            bound ebx,[edi+0x74]
00005171  7265              jc 0x51d8
00005173  655F              gs pop edi
00005175  6E                outsb
00005176  6F                outsd
00005177  646549            gs dec ecx
0000517A  69454544324576    imul eax,[ebp+0x45],dword 0x76453244
00005181  005F5A            add [edi+0x5a],bl
00005184  4E                dec esi
00005185  395F5F            cmp [edi+0x5f],ebx
00005188  676E              a16 outsb
0000518A  755F              jnz 0x51eb
0000518C  637878            arpl [eax+0x78],di
0000518F  3133              xor [ebx],esi
00005191  6E                outsb
00005192  65775F            gs ja 0x51f4
00005195  61                popa
00005196  6C                insb
00005197  6C                insb
00005198  6F                outsd
00005199  636174            arpl [ecx+0x74],sp
0000519C  6F                outsd
0000519D  7249              jc 0x51e8
0000519F  69454331457600    imul eax,[ebp+0x43],dword 0x764531
000051A6  5F                pop edi
000051A7  5A                pop edx
000051A8  53                push ebx
000051A9  7431              jz 0x51dc
000051AB  385F52            cmp [edi+0x52],bl
000051AE  625F74            bound ebx,[edi+0x74]
000051B1  7265              jc 0x5218
000051B3  655F              gs pop edi
000051B5  696E6372656D65    imul ebp,[esi+0x63],dword 0x656d6572
000051BC  6E                outsb
000051BD  7450              jz 0x520f
000051BF  4B                dec ebx
000051C0  53                push ebx
000051C1  7431              jz 0x51f4
000051C3  385F52            cmp [edi+0x52],bl
000051C6  625F74            bound ebx,[edi+0x74]
000051C9  7265              jc 0x5230
000051CB  655F              gs pop edi
000051CD  6E                outsb
000051CE  6F                outsd
000051CF  64655F            gs pop edi
000051D2  626173            bound esp,[ecx+0x73]
000051D5  6540              gs inc eax
000051D7  40                inc eax
000051D8  47                inc edi
000051D9  4C                dec esp
000051DA  49                dec ecx
000051DB  42                inc edx
000051DC  43                inc ebx
000051DD  58                pop eax
000051DE  58                pop eax
000051DF  5F                pop edi
000051E0  332E              xor ebp,[esi]
000051E2  3400              xor al,0x0
000051E4  5F                pop edi
000051E5  5A                pop edx
000051E6  4E                dec esi
000051E7  53                push ebx
000051E8  7432              jz 0x521c
000051EA  335F52            xor ebx,[edi+0x52]
000051ED  625F74            bound ebx,[edi+0x74]
000051F0  7265              jc 0x5257
000051F2  655F              gs pop edi
000051F4  636F6E            arpl [edi+0x6e],bp
000051F7  7374              jnc 0x526d
000051F9  5F                pop edi
000051FA  6974657261746F72  imul esi,[ebp+0x72],dword 0x726f7461
00005202  49                dec ecx
00005203  6945433145524B    imul eax,[ebp+0x43],dword 0x4b524531
0000520A  53                push ebx
0000520B  7431              jz 0x523e
0000520D  37                aaa
0000520E  5F                pop edi
0000520F  52                push edx
00005210  625F74            bound ebx,[edi+0x74]
00005213  7265              jc 0x527a
00005215  655F              gs pop edi
00005217  6974657261746F72  imul esi,[ebp+0x72],dword 0x726f7461
0000521F  49                dec ecx
00005220  6945005F5A4E4B    imul eax,[ebp+0x0],dword 0x4b4e5a5f
00005227  53                push ebx
00005228  7438              jz 0x5262
0000522A  5F                pop edi
0000522B  52                push edx
0000522C  625F74            bound ebx,[edi+0x74]
0000522F  7265              jc 0x5296
00005231  6549              gs dec ecx
00005233  69695374395F49    imul ebp,[ecx+0x53],dword 0x495f3974
0000523A  64656E            gs outsb
0000523D  7469              jz 0x52a8
0000523F  7479              jz 0x52ba
00005241  49                dec ecx
00005242  69455374346C65    imul eax,[ebp+0x53],dword 0x656c3474
00005249  7373              jnc 0x52be
0000524B  49                dec ecx
0000524C  69455361496945    imul eax,[ebp+0x53],dword 0x45694961
00005253  45                inc ebp
00005254  3231              xor dh,[ecx]
00005256  5F                pop edi
00005257  4D                dec ebp
00005258  5F                pop edi
00005259  6765745F          gs a16 jz 0x52bc
0000525D  4E                dec esi
0000525E  6F                outsd
0000525F  64655F            gs pop edi
00005262  61                popa
00005263  6C                insb
00005264  6C                insb
00005265  6F                outsd
00005266  636174            arpl [ecx+0x74],sp
00005269  6F                outsd
0000526A  7245              jc 0x52b1
0000526C  7600              jna 0x526e
0000526E  5F                pop edi
0000526F  5F                pop edi
00005270  54                push esp
00005271  4D                dec ebp
00005272  43                inc ebx
00005273  5F                pop edi
00005274  45                inc ebp
00005275  4E                dec esi
00005276  44                inc esp
00005277  5F                pop edi
00005278  5F                pop edi
00005279  005F5F            add [edi+0x5f],bl
0000527C  64736F            fs jnc 0x52ee
0000527F  5F                pop edi
00005280  68616E646C        push dword 0x6c646e61
00005285  65005F5A          add [gs:edi+0x5a],bl
00005289  53                push ebx
0000528A  7431              jz 0x52bd
0000528C  315F5F            xor [edi+0x5f],ebx
0000528F  61                popa
00005290  64647265          fs jc 0x52f9
00005294  7373              jnc 0x5309
00005296  6F                outsd
00005297  6649              dec cx
00005299  694550545F5253    imul eax,[ebp+0x50],dword 0x53525f54
000052A0  305F00            xor [edi+0x0],bl
000052A3  5F                pop edi
000052A4  5F                pop edi
000052A5  44                inc esp
000052A6  54                push esp
000052A7  4F                dec edi
000052A8  52                push edx
000052A9  5F                pop edi
000052AA  45                inc ebp
000052AB  4E                dec esi
000052AC  44                inc esp
000052AD  5F                pop edi
000052AE  5F                pop edi
000052AF  005F5F            add [edi+0x5f],bl
000052B2  6C                insb
000052B3  6962635F637375    imul esp,[edx+0x63],dword 0x7573635f
000052BA  5F                pop edi
000052BB  696E6974007072    imul ebp,[esi+0x69],dword 0x72700074
000052C2  696E7466404047    imul ebp,[esi+0x74],dword 0x47404066
000052C9  4C                dec esp
000052CA  49                dec ecx
000052CB  42                inc edx
000052CC  43                inc ebx
000052CD  5F                pop edi
000052CE  322E              xor ch,[esi]
000052D0  3000              xor [eax],al
000052D2  5F                pop edi
000052D3  5A                pop edx
000052D4  4E                dec esi
000052D5  53                push ebx
000052D6  61                popa
000052D7  49                dec ecx
000052D8  69454432457600    imul eax,[ebp+0x44],dword 0x764532
000052DF  5F                pop edi
000052E0  5A                pop edx
000052E1  4E                dec esi
000052E2  395F5F            cmp [edi+0x5f],ebx
000052E5  676E              a16 outsb
000052E7  755F              jnz 0x5348
000052E9  637878            arpl [eax+0x78],di
000052EC  3133              xor [ebx],esi
000052EE  6E                outsb
000052EF  65775F            gs ja 0x5351
000052F2  61                popa
000052F3  6C                insb
000052F4  6C                insb
000052F5  6F                outsd
000052F6  636174            arpl [ecx+0x74],sp
000052F9  6F                outsd
000052FA  7249              jc 0x5345
000052FC  53                push ebx
000052FD  7431              jz 0x5330
000052FF  335F52            xor ebx,[edi+0x52]
00005302  625F74            bound ebx,[edi+0x74]
00005305  7265              jc 0x536c
00005307  655F              gs pop edi
00005309  6E                outsb
0000530A  6F                outsd
0000530B  646549            gs dec ecx
0000530E  69454531306465    imul eax,[ebp+0x45],dword 0x65643031
00005315  61                popa
00005316  6C                insb
00005317  6C                insb
00005318  6F                outsd
00005319  636174            arpl [ecx+0x74],sp
0000531C  6545              gs inc ebp
0000531E  50                push eax
0000531F  53                push ebx
00005320  325F6A            xor bl,[edi+0x6a]
00005323  005F5A            add [edi+0x5a],bl
00005326  4E                dec esi
00005327  53                push ebx
00005328  7438              jz 0x5362
0000532A  5F                pop edi
0000532B  52                push edx
0000532C  625F74            bound ebx,[edi+0x74]
0000532F  7265              jc 0x5396
00005331  6549              gs dec ecx
00005333  69695374395F49    imul ebp,[ecx+0x53],dword 0x495f3974
0000533A  64656E            gs outsb
0000533D  7469              jz 0x53a8
0000533F  7479              jz 0x53ba
00005341  49                dec ecx
00005342  69455374346C65    imul eax,[ebp+0x53],dword 0x656c3474
00005349  7373              jnc 0x53be
0000534B  49                dec ecx
0000534C  69455361496945    imul eax,[ebp+0x53],dword 0x45694961
00005353  45                inc ebp
00005354  3133              xor [ebx],esi
00005356  5F                pop edi
00005357  52                push edx
00005358  625F74            bound ebx,[edi+0x74]
0000535B  7265              jc 0x53c2
0000535D  655F              gs pop edi
0000535F  696D706C495333    imul ebp,[ebp+0x70],dword 0x3353496c
00005366  5F                pop edi
00005367  4C                dec esp
00005368  6230              bound esi,[eax]
0000536A  45                inc ebp
0000536B  45                inc ebp
0000536C  44                inc esp
0000536D  314576            xor [ebp+0x76],eax
00005370  005F5A            add [edi+0x5a],bl
00005373  4E                dec esi
00005374  53                push ebx
00005375  7434              jz 0x53ab
00005377  7061              jo 0x53da
00005379  69724953743233    imul esi,[edx+0x49],dword 0x33327453
00005380  5F                pop edi
00005381  52                push edx
00005382  625F74            bound ebx,[edi+0x74]
00005385  7265              jc 0x53ec
00005387  655F              gs pop edi
00005389  636F6E            arpl [edi+0x6e],bp
0000538C  7374              jnc 0x5402
0000538E  5F                pop edi
0000538F  6974657261746F72  imul esi,[ebp+0x72],dword 0x726f7461
00005397  49                dec ecx
00005398  69456245433245    imul eax,[ebp+0x62],dword 0x45324345
0000539F  52                push edx
000053A0  4B                dec ebx
000053A1  53                push ebx
000053A2  315F52            xor [edi+0x52],ebx
000053A5  4B                dec ebx
000053A6  6200              bound eax,[eax]
000053A8  5F                pop edi
000053A9  5A                pop edx
000053AA  4E                dec esi
000053AB  53                push ebx
000053AC  7438              jz 0x53e6
000053AE  5F                pop edi
000053AF  52                push edx
000053B0  625F74            bound ebx,[edi+0x74]
000053B3  7265              jc 0x541a
000053B5  6549              gs dec ecx
000053B7  69695374395F49    imul ebp,[ecx+0x53],dword 0x495f3974
000053BE  64656E            gs outsb
000053C1  7469              jz 0x542c
000053C3  7479              jz 0x543e
000053C5  49                dec ecx
000053C6  69455374346C65    imul eax,[ebp+0x53],dword 0x656c3474
000053CD  7373              jnc 0x5442
000053CF  49                dec ecx
000053D0  69455361496945    imul eax,[ebp+0x53],dword 0x45694961
000053D7  45                inc ebp
000053D8  3133              xor [ebx],esi
000053DA  5F                pop edi
000053DB  52                push edx
000053DC  625F74            bound ebx,[edi+0x74]
000053DF  7265              jc 0x5446
000053E1  655F              gs pop edi
000053E3  696D706C495333    imul ebp,[ebp+0x70],dword 0x3353496c
000053EA  5F                pop edi
000053EB  4C                dec esp
000053EC  6230              bound esi,[eax]
000053EE  45                inc ebp
000053EF  45                inc ebp
000053F0  43                inc ebx
000053F1  324576            xor al,[ebp+0x76]
000053F4  005F5A            add [edi+0x5a],bl
000053F7  4E                dec esi
000053F8  4B                dec ebx
000053F9  53                push ebx
000053FA  7431              jz 0x542d
000053FC  37                aaa
000053FD  5F                pop edi
000053FE  52                push edx
000053FF  625F74            bound ebx,[edi+0x74]
00005402  7265              jc 0x5469
00005404  655F              gs pop edi
00005406  6974657261746F72  imul esi,[ebp+0x72],dword 0x726f7461
0000540E  49                dec ecx
0000540F  6945657145524B    imul eax,[ebp+0x65],dword 0x4b524571
00005416  53                push ebx
00005417  305F00            xor [edi+0x0],bl
0000541A  5F                pop edi
0000541B  5A                pop edx
0000541C  4E                dec esi
0000541D  53                push ebx
0000541E  7434              jz 0x5454
00005420  7061              jo 0x5483
00005422  69724953743137    imul esi,[edx+0x49],dword 0x37317453
00005429  5F                pop edi
0000542A  52                push edx
0000542B  625F74            bound ebx,[edi+0x74]
0000542E  7265              jc 0x5495
00005430  655F              gs pop edi
00005432  6974657261746F72  imul esi,[ebp+0x72],dword 0x726f7461
0000543A  49                dec ecx
0000543B  694553315F4543    imul eax,[ebp+0x53],dword 0x43455f31
00005442  314552            xor [ebp+0x52],eax
00005445  4B                dec ebx
00005446  53                push ebx
00005447  315F53            xor [edi+0x53],ebx
0000544A  345F              xor al,0x5f
0000544C  005F5A            add [edi+0x5a],bl
0000544F  6E                outsb
00005450  776A              ja 0x54bc
00005452  40                inc eax
00005453  40                inc eax
00005454  47                inc edi
00005455  4C                dec esp
00005456  49                dec ecx
00005457  42                inc edx
00005458  43                inc ebx
00005459  58                pop eax
0000545A  58                pop eax
0000545B  5F                pop edi
0000545C  332E              xor ebp,[esi]
0000545E  3400              xor al,0x0
00005460  5F                pop edi
00005461  5A                pop edx
00005462  4E                dec esi
00005463  53                push ebx
00005464  7438              jz 0x549e
00005466  5F                pop edi
00005467  52                push edx
00005468  625F74            bound ebx,[edi+0x74]
0000546B  7265              jc 0x54d2
0000546D  6549              gs dec ecx
0000546F  69695374395F49    imul ebp,[ecx+0x53],dword 0x495f3974
00005476  64656E            gs outsb
00005479  7469              jz 0x54e4
0000547B  7479              jz 0x54f6
0000547D  49                dec ecx
0000547E  69455374346C65    imul eax,[ebp+0x53],dword 0x656c3474
00005485  7373              jnc 0x54fa
00005487  49                dec ecx
00005488  69455361496945    imul eax,[ebp+0x53],dword 0x45694961
0000548F  45                inc ebp
00005490  3562656769        xor eax,0x69676562
00005495  6E                outsb
00005496  45                inc ebp
00005497  7600              jna 0x5499
00005499  5F                pop edi
0000549A  5A                pop edx
0000549B  4E                dec esi
0000549C  53                push ebx
0000549D  7438              jz 0x54d7
0000549F  5F                pop edi
000054A0  52                push edx
000054A1  625F74            bound ebx,[edi+0x74]
000054A4  7265              jc 0x550b
000054A6  6549              gs dec ecx
000054A8  69695374395F49    imul ebp,[ecx+0x53],dword 0x495f3974
000054AF  64656E            gs outsb
000054B2  7469              jz 0x551d
000054B4  7479              jz 0x552f
000054B6  49                dec ecx
000054B7  69455374346C65    imul eax,[ebp+0x53],dword 0x656c3474
000054BE  7373              jnc 0x5533
000054C0  49                dec ecx
000054C1  69455361496945    imul eax,[ebp+0x53],dword 0x45694961
000054C8  45                inc ebp
000054C9  3136              xor [esi],esi
000054CB  5F                pop edi
000054CC  4D                dec ebp
000054CD  5F                pop edi
000054CE  696E736572745F    imul ebp,[esi+0x73],dword 0x5f747265
000054D5  756E              jnz 0x5545
000054D7  6971756545524B    imul esi,[ecx+0x75],dword 0x4b524565
000054DE  69005F5A4E53      imul eax,[eax],dword 0x534e5a5f
000054E4  7438              jz 0x551e
000054E6  5F                pop edi
000054E7  52                push edx
000054E8  625F74            bound ebx,[edi+0x74]
000054EB  7265              jc 0x5552
000054ED  6549              gs dec ecx
000054EF  69695374395F49    imul ebp,[ecx+0x53],dword 0x495f3974
000054F6  64656E            gs outsb
000054F9  7469              jz 0x5564
000054FB  7479              jz 0x5576
000054FD  49                dec ecx
000054FE  69455374346C65    imul eax,[ebp+0x53],dword 0x656c3474
00005505  7373              jnc 0x557a
00005507  49                dec ecx
00005508  69455361496945    imul eax,[ebp+0x53],dword 0x45694961
0000550F  45                inc ebp
00005510  3131              xor [ecx],esi
00005512  5F                pop edi
00005513  4D                dec ebp
00005514  5F                pop edi
00005515  6765745F          gs a16 jz 0x5578
00005519  6E                outsb
0000551A  6F                outsd
0000551B  646545            gs inc ebp
0000551E  7600              jna 0x5520
00005520  5F                pop edi
00005521  5A                pop edx
00005522  4E                dec esi
00005523  4B                dec ebx
00005524  53                push ebx
00005525  7439              jz 0x5560
00005527  5F                pop edi
00005528  49                dec ecx
00005529  64656E            gs outsb
0000552C  7469              jz 0x5597
0000552E  7479              jz 0x55a9
00005530  49                dec ecx
00005531  6945636C45524B    imul eax,[ebp+0x63],dword 0x4b52456c
00005538  69005F5A4E53      imul eax,[eax],dword 0x534e5a5f
0000553E  7438              jz 0x5578
00005540  5F                pop edi
00005541  52                push edx
00005542  625F74            bound ebx,[edi+0x74]
00005545  7265              jc 0x55ac
00005547  6549              gs dec ecx
00005549  69695374395F49    imul ebp,[ecx+0x53],dword 0x495f3974
00005550  64656E            gs outsb
00005553  7469              jz 0x55be
00005555  7479              jz 0x55d0
00005557  49                dec ecx
00005558  69455374346C65    imul eax,[ebp+0x53],dword 0x656c3474
0000555F  7373              jnc 0x55d4
00005561  49                dec ecx
00005562  69455361496945    imul eax,[ebp+0x53],dword 0x45694961
00005569  45                inc ebp
0000556A  365F              ss pop edi
0000556C  4D                dec ebp
0000556D  5F                pop edi
0000556E  656E              gs outsb
00005570  6445              fs inc ebp
00005572  7600              jna 0x5574
00005574  5F                pop edi
00005575  5F                pop edi
00005576  627373            bound esi,[ebx+0x73]
00005579  5F                pop edi
0000557A  7374              jnc 0x55f0
0000557C  61                popa
0000557D  7274              jc 0x55f3
0000557F  005F5A            add [edi+0x5a],bl
00005582  53                push ebx
00005583  7432              jz 0x55b7
00005585  395F52            cmp [edi+0x52],ebx
00005588  625F74            bound ebx,[edi+0x74]
0000558B  7265              jc 0x55f2
0000558D  655F              gs pop edi
0000558F  696E736572745F    imul ebp,[esi+0x73],dword 0x5f747265
00005596  61                popa
00005597  6E                outsb
00005598  645F              fs pop edi
0000559A  7265              jc 0x5601
0000559C  62616C            bound esp,[ecx+0x6c]
0000559F  61                popa
000055A0  6E                outsb
000055A1  636562            arpl [ebp+0x62],sp
000055A4  50                push eax
000055A5  53                push ebx
000055A6  7431              jz 0x55d9
000055A8  385F52            cmp [edi+0x52],bl
000055AB  625F74            bound ebx,[edi+0x74]
000055AE  7265              jc 0x5615
000055B0  655F              gs pop edi
000055B2  6E                outsb
000055B3  6F                outsd
000055B4  64655F            gs pop edi
000055B7  626173            bound esp,[ecx+0x73]
000055BA  6553              gs push ebx
000055BC  305F52            xor [edi+0x52],bl
000055BF  53                push ebx
000055C0  5F                pop edi
000055C1  40                inc eax
000055C2  40                inc eax
000055C3  47                inc edi
000055C4  4C                dec esp
000055C5  49                dec ecx
000055C6  42                inc edx
000055C7  43                inc ebx
000055C8  58                pop eax
000055C9  58                pop eax
000055CA  5F                pop edi
000055CB  332E              xor ebp,[esi]
000055CD  3400              xor al,0x0
000055CF  5F                pop edi
000055D0  5A                pop edx
000055D1  4E                dec esi
000055D2  53                push ebx
000055D3  7432              jz 0x5607
000055D5  335F52            xor ebx,[edi+0x52]
000055D8  625F74            bound ebx,[edi+0x74]
000055DB  7265              jc 0x5642
000055DD  655F              gs pop edi
000055DF  636F6E            arpl [edi+0x6e],bp
000055E2  7374              jnc 0x5658
000055E4  5F                pop edi
000055E5  6974657261746F72  imul esi,[ebp+0x72],dword 0x726f7461
000055ED  49                dec ecx
000055EE  6945433145504B    imul eax,[ebp+0x43],dword 0x4b504531
000055F5  53                push ebx
000055F6  7431              jz 0x5629
000055F8  335F52            xor ebx,[edi+0x52]
000055FB  625F74            bound ebx,[edi+0x74]
000055FE  7265              jc 0x5665
00005600  655F              gs pop edi
00005602  6E                outsb
00005603  6F                outsd
00005604  646549            gs dec ecx
00005607  6945005F5A4E53    imul eax,[ebp+0x0],dword 0x534e5a5f
0000560E  7438              jz 0x5648
00005610  5F                pop edi
00005611  52                push edx
00005612  625F74            bound ebx,[edi+0x74]
00005615  7265              jc 0x567c
00005617  6549              gs dec ecx
00005619  69695374395F49    imul ebp,[ecx+0x53],dword 0x495f3974
00005620  64656E            gs outsb
00005623  7469              jz 0x568e
00005625  7479              jz 0x56a0
00005627  49                dec ecx
00005628  69455374346C65    imul eax,[ebp+0x53],dword 0x656c3474
0000562F  7373              jnc 0x56a4
00005631  49                dec ecx
00005632  69455361496945    imul eax,[ebp+0x53],dword 0x45694961
00005639  45                inc ebp
0000563A  44                inc esp
0000563B  324576            xor al,[ebp+0x76]
0000563E  005F5A            add [edi+0x5a],bl
00005641  4E                dec esi
00005642  395F5F            cmp [edi+0x5f],ebx
00005645  676E              a16 outsb
00005647  755F              jnz 0x56a8
00005649  637878            arpl [eax+0x78],di
0000564C  3133              xor [ebx],esi
0000564E  6E                outsb
0000564F  65775F            gs ja 0x56b1
00005652  61                popa
00005653  6C                insb
00005654  6C                insb
00005655  6F                outsd
00005656  636174            arpl [ecx+0x74],sp
00005659  6F                outsd
0000565A  7249              jc 0x56a5
0000565C  69453764657374    imul eax,[ebp+0x37],dword 0x74736564
00005663  726F              jc 0x56d4
00005665  7945              jns 0x56ac
00005667  50                push eax
00005668  69005F5A4E53      imul eax,[eax],dword 0x534e5a5f
0000566E  7438              jz 0x56a8
00005670  5F                pop edi
00005671  52                push edx
00005672  625F74            bound ebx,[edi+0x74]
00005675  7265              jc 0x56dc
00005677  6549              gs dec ecx
00005679  69695374395F49    imul ebp,[ecx+0x53],dword 0x495f3974
00005680  64656E            gs outsb
00005683  7469              jz 0x56ee
00005685  7479              jz 0x5700
00005687  49                dec ecx
00005688  69455374346C65    imul eax,[ebp+0x53],dword 0x656c3474
0000568F  7373              jnc 0x5704
00005691  49                dec ecx
00005692  69455361496945    imul eax,[ebp+0x53],dword 0x45694961
00005699  45                inc ebp
0000569A  3565726173        xor eax,0x73617265
0000569F  6545              gs inc ebp
000056A1  52                push edx
000056A2  4B                dec ebx
000056A3  69005F5A5374      imul eax,[eax],dword 0x74535a5f
000056A9  3238              xor bh,[eax]
000056AB  5F                pop edi
000056AC  52                push edx
000056AD  625F74            bound ebx,[edi+0x74]
000056B0  7265              jc 0x5717
000056B2  655F              gs pop edi
000056B4  7265              jc 0x571b
000056B6  62616C            bound esp,[ecx+0x6c]
000056B9  61                popa
000056BA  6E                outsb
000056BB  63655F            arpl [ebp+0x5f],sp
000056BE  666F              outsw
000056C0  725F              jc 0x5721
000056C2  657261            gs jc 0x5726
000056C5  7365              jnc 0x572c
000056C7  50                push eax
000056C8  53                push ebx
000056C9  7431              jz 0x56fc
000056CB  385F52            cmp [edi+0x52],bl
000056CE  625F74            bound ebx,[edi+0x74]
000056D1  7265              jc 0x5738
000056D3  655F              gs pop edi
000056D5  6E                outsb
000056D6  6F                outsd
000056D7  64655F            gs pop edi
000056DA  626173            bound esp,[ecx+0x73]
000056DD  6552              gs push edx
000056DF  53                push ebx
000056E0  5F                pop edi
000056E1  40                inc eax
000056E2  40                inc eax
000056E3  47                inc edi
000056E4  4C                dec esp
000056E5  49                dec ecx
000056E6  42                inc edx
000056E7  43                inc ebx
000056E8  58                pop eax
000056E9  58                pop eax
000056EA  5F                pop edi
000056EB  332E              xor ebp,[esi]
000056ED  3400              xor al,0x0
000056EF  5F                pop edi
000056F0  5A                pop edx
000056F1  4E                dec esi
000056F2  53                push ebx
000056F3  61                popa
000056F4  49                dec ecx
000056F5  53                push ebx
000056F6  7431              jz 0x5729
000056F8  335F52            xor ebx,[edi+0x52]
000056FB  625F74            bound ebx,[edi+0x74]
000056FE  7265              jc 0x5765
00005700  655F              gs pop edi
00005702  6E                outsb
00005703  6F                outsd
00005704  646549            gs dec ecx
00005707  69454543314576    imul eax,[ebp+0x45],dword 0x76453143
0000570E  005F5A            add [edi+0x5a],bl
00005711  4E                dec esi
00005712  53                push ebx
00005713  7434              jz 0x5749
00005715  7061              jo 0x5778
00005717  69724953743137    imul esi,[edx+0x49],dword 0x37317453
0000571E  5F                pop edi
0000571F  52                push edx
00005720  625F74            bound ebx,[edi+0x74]
00005723  7265              jc 0x578a
00005725  655F              gs pop edi
00005727  6974657261746F72  imul esi,[ebp+0x72],dword 0x726f7461
0000572F  49                dec ecx
00005730  69456245433245    imul eax,[ebp+0x62],dword 0x45324345
00005737  52                push edx
00005738  4B                dec ebx
00005739  53                push ebx
0000573A  315F52            xor [edi+0x52],ebx
0000573D  4B                dec ebx
0000573E  6200              bound eax,[eax]
00005740  5F                pop edi
00005741  5A                pop edx
00005742  4E                dec esi
00005743  53                push ebx
00005744  7438              jz 0x577e
00005746  5F                pop edi
00005747  52                push edx
00005748  625F74            bound ebx,[edi+0x74]
0000574B  7265              jc 0x57b2
0000574D  6549              gs dec ecx
0000574F  69695374395F49    imul ebp,[ecx+0x53],dword 0x495f3974
00005756  64656E            gs outsb
00005759  7469              jz 0x57c4
0000575B  7479              jz 0x57d6
0000575D  49                dec ecx
0000575E  69455374346C65    imul eax,[ebp+0x53],dword 0x656c3474
00005765  7373              jnc 0x57da
00005767  49                dec ecx
00005768  69455361496945    imul eax,[ebp+0x53],dword 0x45694961
0000576F  45                inc ebp
00005770  33656E            xor esp,[ebp+0x6e]
00005773  6445              fs inc ebp
00005775  7600              jna 0x5777
00005777  5F                pop edi
00005778  5A                pop edx
00005779  4E                dec esi
0000577A  53                push ebx
0000577B  7438              jz 0x57b5
0000577D  5F                pop edi
0000577E  52                push edx
0000577F  625F74            bound ebx,[edi+0x74]
00005782  7265              jc 0x57e9
00005784  6549              gs dec ecx
00005786  69695374395F49    imul ebp,[ecx+0x53],dword 0x495f3974
0000578D  64656E            gs outsb
00005790  7469              jz 0x57fb
00005792  7479              jz 0x580d
00005794  49                dec ecx
00005795  69455374346C65    imul eax,[ebp+0x53],dword 0x656c3474
0000579C  7373              jnc 0x5811
0000579E  49                dec ecx
0000579F  69455361496945    imul eax,[ebp+0x53],dword 0x45694961
000057A6  45                inc ebp
000057A7  385F53            cmp [edi+0x53],bl
000057AA  5F                pop edi
000057AB  7661              jna 0x580e
000057AD  6C                insb
000057AE  7565              jnz 0x5815
000057B0  45                inc ebp
000057B1  50                push eax
000057B2  4B                dec ebx
000057B3  53                push ebx
000057B4  7431              jz 0x57e7
000057B6  335F52            xor ebx,[edi+0x52]
000057B9  625F74            bound ebx,[edi+0x74]
000057BC  7265              jc 0x5823
000057BE  655F              gs pop edi
000057C0  6E                outsb
000057C1  6F                outsd
000057C2  646549            gs dec ecx
000057C5  6945005F5A4E53    imul eax,[ebp+0x0],dword 0x534e5a5f
000057CC  7438              jz 0x5806
000057CE  5F                pop edi
000057CF  52                push edx
000057D0  625F74            bound ebx,[edi+0x74]
000057D3  7265              jc 0x583a
000057D5  6549              gs dec ecx
000057D7  69695374395F49    imul ebp,[ecx+0x53],dword 0x495f3974
000057DE  64656E            gs outsb
000057E1  7469              jz 0x584c
000057E3  7479              jz 0x585e
000057E5  49                dec ecx
000057E6  69455374346C65    imul eax,[ebp+0x53],dword 0x656c3474
000057ED  7373              jnc 0x5862
000057EF  49                dec ecx
000057F0  69455361496945    imul eax,[ebp+0x53],dword 0x45694961
000057F7  45                inc ebp
000057F8  37                aaa
000057F9  5F                pop edi
000057FA  4D                dec ebp
000057FB  5F                pop edi
000057FC  726F              jc 0x586d
000057FE  6F                outsd
000057FF  7445              jz 0x5846
00005801  7600              jna 0x5803
00005803  5F                pop edi
00005804  5A                pop edx
00005805  4E                dec esi
00005806  4B                dec ebx
00005807  53                push ebx
00005808  7438              jz 0x5842
0000580A  5F                pop edi
0000580B  52                push edx
0000580C  625F74            bound ebx,[edi+0x74]
0000580F  7265              jc 0x5876
00005811  6549              gs dec ecx
00005813  69695374395F49    imul ebp,[ecx+0x53],dword 0x495f3974
0000581A  64656E            gs outsb
0000581D  7469              jz 0x5888
0000581F  7479              jz 0x589a
00005821  49                dec ecx
00005822  69455374346C65    imul eax,[ebp+0x53],dword 0x656c3474
00005829  7373              jnc 0x589e
0000582B  49                dec ecx
0000582C  69455361496945    imul eax,[ebp+0x53],dword 0x45694961
00005833  45                inc ebp
00005834  3473              xor al,0x73
00005836  697A654576005F    imul edi,[edx+0x65],dword 0x5f007645
0000583D  5A                pop edx
0000583E  4E                dec esi
0000583F  53                push ebx
00005840  7438              jz 0x587a
00005842  5F                pop edi
00005843  52                push edx
00005844  625F74            bound ebx,[edi+0x74]
00005847  7265              jc 0x58ae
00005849  6549              gs dec ecx
0000584B  69695374395F49    imul ebp,[ecx+0x53],dword 0x495f3974
00005852  64656E            gs outsb
00005855  7469              jz 0x58c0
00005857  7479              jz 0x58d2
00005859  49                dec ecx
0000585A  69455374346C65    imul eax,[ebp+0x53],dword 0x656c3474
00005861  7373              jnc 0x58d6
00005863  49                dec ecx
00005864  69455361496945    imul eax,[ebp+0x53],dword 0x45694961
0000586B  45                inc ebp
0000586C  37                aaa
0000586D  5F                pop edi
0000586E  53                push ebx
0000586F  5F                pop edi
00005870  6C                insb
00005871  65667445          gs o16 jz 0x58ba
00005875  50                push eax
00005876  53                push ebx
00005877  7431              jz 0x58aa
00005879  385F52            cmp [edi+0x52],bl
0000587C  625F74            bound ebx,[edi+0x74]
0000587F  7265              jc 0x58e6
00005881  655F              gs pop edi
00005883  6E                outsb
00005884  6F                outsd
00005885  64655F            gs pop edi
00005888  626173            bound esp,[ecx+0x73]
0000588B  65005F5A          add [gs:edi+0x5a],bl
0000588F  4E                dec esi
00005890  53                push ebx
00005891  7434              jz 0x58c7
00005893  7061              jo 0x58f6
00005895  69724950537431    imul esi,[edx+0x49],dword 0x31745350
0000589C  385F52            cmp [edi+0x52],bl
0000589F  625F74            bound ebx,[edi+0x74]
000058A2  7265              jc 0x5909
000058A4  655F              gs pop edi
000058A6  6E                outsb
000058A7  6F                outsd
000058A8  64655F            gs pop edi
000058AB  626173            bound esp,[ecx+0x73]
000058AE  6553              gs push ebx
000058B0  315F45            xor [edi+0x45],ebx
000058B3  43                inc ebx
000058B4  314552            xor [ebp+0x52],eax
000058B7  4B                dec ebx
000058B8  53                push ebx
000058B9  315F53            xor [edi+0x53],ebx
000058BC  345F              xor al,0x5f
000058BE  005F5A            add [edi+0x5a],bl
000058C1  4E                dec esi
000058C2  53                push ebx
000058C3  7438              jz 0x58fd
000058C5  5F                pop edi
000058C6  52                push edx
000058C7  625F74            bound ebx,[edi+0x74]
000058CA  7265              jc 0x5931
000058CC  6549              gs dec ecx
000058CE  69695374395F49    imul ebp,[ecx+0x53],dword 0x495f3974
000058D5  64656E            gs outsb
000058D8  7469              jz 0x5943
000058DA  7479              jz 0x5955
000058DC  49                dec ecx
000058DD  69455374346C65    imul eax,[ebp+0x53],dword 0x656c3474
000058E4  7373              jnc 0x5959
000058E6  49                dec ecx
000058E7  69455361496945    imul eax,[ebp+0x53],dword 0x45694961
000058EE  45                inc ebp
000058EF  43                inc ebx
000058F0  324576            xor al,[ebp+0x76]
000058F3  005F5A            add [edi+0x5a],bl
000058F6  4E                dec esi
000058F7  395F5F            cmp [edi+0x5f],ebx
000058FA  676E              a16 outsb
000058FC  755F              jnz 0x595d
000058FE  637878            arpl [eax+0x78],di
00005901  3133              xor [ebx],esi
00005903  6E                outsb
00005904  65775F            gs ja 0x5966
00005907  61                popa
00005908  6C                insb
00005909  6C                insb
0000590A  6F                outsd
0000590B  636174            arpl [ecx+0x74],sp
0000590E  6F                outsd
0000590F  7249              jc 0x595a
00005911  53                push ebx
00005912  7431              jz 0x5945
00005914  335F52            xor ebx,[edi+0x52]
00005917  625F74            bound ebx,[edi+0x74]
0000591A  7265              jc 0x5981
0000591C  655F              gs pop edi
0000591E  6E                outsb
0000591F  6F                outsd
00005920  646549            gs dec ecx
00005923  69454538616C6C    imul eax,[ebp+0x45],dword 0x6c6c6138
0000592A  6F                outsd
0000592B  636174            arpl [ecx+0x74],sp
0000592E  6545              gs inc ebp
00005930  6A50              push byte +0x50
00005932  4B                dec ebx
00005933  7600              jna 0x5935
00005935  5F                pop edi
00005936  5A                pop edx
00005937  4E                dec esi
00005938  53                push ebx
00005939  7434              jz 0x596f
0000593B  7061              jo 0x599e
0000593D  69724950537431    imul esi,[edx+0x49],dword 0x31745350
00005944  385F52            cmp [edi+0x52],bl
00005947  625F74            bound ebx,[edi+0x74]
0000594A  7265              jc 0x59b1
0000594C  655F              gs pop edi
0000594E  6E                outsb
0000594F  6F                outsd
00005950  64655F            gs pop edi
00005953  626173            bound esp,[ecx+0x73]
00005956  6553              gs push ebx
00005958  315F45            xor [edi+0x45],ebx
0000595B  43                inc ebx
0000595C  324552            xor al,[ebp+0x52]
0000595F  4B                dec ebx
00005960  53                push ebx
00005961  315F53            xor [edi+0x53],ebx
00005964  345F              xor al,0x5f
00005966  005F5A            add [edi+0x5a],bl
00005969  4E                dec esi
0000596A  53                push ebx
0000596B  7438              jz 0x59a5
0000596D  5F                pop edi
0000596E  52                push edx
0000596F  625F74            bound ebx,[edi+0x74]
00005972  7265              jc 0x59d9
00005974  6549              gs dec ecx
00005976  69695374395F49    imul ebp,[ecx+0x53],dword 0x495f3974
0000597D  64656E            gs outsb
00005980  7469              jz 0x59eb
00005982  7479              jz 0x59fd
00005984  49                dec ecx
00005985  69455374346C65    imul eax,[ebp+0x53],dword 0x656c3474
0000598C  7373              jnc 0x5a01
0000598E  49                dec ecx
0000598F  69455361496945    imul eax,[ebp+0x53],dword 0x45694961
00005996  45                inc ebp
00005997  3132              xor [edx],esi
00005999  5F                pop edi
0000599A  4D                dec ebp
0000599B  5F                pop edi
0000599C  7269              jc 0x5a07
0000599E  6768746D6F73      a16 push dword 0x736f6d74
000059A4  7445              jz 0x59eb
000059A6  7600              jna 0x59a8
000059A8  5F                pop edi
000059A9  656E              gs outsb
000059AB  64005F5A          add [fs:edi+0x5a],bl
000059AF  4E                dec esi
000059B0  53                push ebx
000059B1  7438              jz 0x59eb
000059B3  5F                pop edi
000059B4  52                push edx
000059B5  625F74            bound ebx,[edi+0x74]
000059B8  7265              jc 0x5a1f
000059BA  6549              gs dec ecx
000059BC  69695374395F49    imul ebp,[ecx+0x53],dword 0x495f3974
000059C3  64656E            gs outsb
000059C6  7469              jz 0x5a31
000059C8  7479              jz 0x5a43
000059CA  49                dec ecx
000059CB  69455374346C65    imul eax,[ebp+0x53],dword 0x656c3474
000059D2  7373              jnc 0x5a47
000059D4  49                dec ecx
000059D5  69455361496945    imul eax,[ebp+0x53],dword 0x45694961
000059DC  45                inc ebp
000059DD  3565726173        xor eax,0x73617265
000059E2  6545              gs inc ebp
000059E4  53                push ebx
000059E5  7432              jz 0x5a19
000059E7  335F52            xor ebx,[edi+0x52]
000059EA  625F74            bound ebx,[edi+0x74]
000059ED  7265              jc 0x5a54
000059EF  655F              gs pop edi
000059F1  636F6E            arpl [edi+0x6e],bp
000059F4  7374              jnc 0x5a6a
000059F6  5F                pop edi
000059F7  6974657261746F72  imul esi,[ebp+0x72],dword 0x726f7461
000059FF  49                dec ecx
00005A00  6945005F5A4E4B    imul eax,[ebp+0x0],dword 0x4b4e5a5f
00005A07  53                push ebx
00005A08  7432              jz 0x5a3c
00005A0A  335F52            xor ebx,[edi+0x52]
00005A0D  625F74            bound ebx,[edi+0x74]
00005A10  7265              jc 0x5a77
00005A12  655F              gs pop edi
00005A14  636F6E            arpl [edi+0x6e],bp
00005A17  7374              jnc 0x5a8d
00005A19  5F                pop edi
00005A1A  6974657261746F72  imul esi,[ebp+0x72],dword 0x726f7461
00005A22  49                dec ecx
00005A23  69456465457600    imul eax,[ebp+0x64],dword 0x764565
00005A2A  7075              jo 0x5aa1
00005A2C  7473              jz 0x5aa1
00005A2E  40                inc eax
00005A2F  40                inc eax
00005A30  47                inc edi
00005A31  4C                dec esp
00005A32  49                dec ecx
00005A33  42                inc edx
00005A34  43                inc ebx
00005A35  5F                pop edi
00005A36  322E              xor ch,[esi]
00005A38  3000              xor [eax],al
00005A3A  5F                pop edi
00005A3B  5A                pop edx
00005A3C  4E                dec esi
00005A3D  53                push ebx
00005A3E  7438              jz 0x5a78
00005A40  5F                pop edi
00005A41  52                push edx
00005A42  625F74            bound ebx,[edi+0x74]
00005A45  7265              jc 0x5aac
00005A47  6549              gs dec ecx
00005A49  69695374395F49    imul ebp,[ecx+0x53],dword 0x495f3974
00005A50  64656E            gs outsb
00005A53  7469              jz 0x5abe
00005A55  7479              jz 0x5ad0
00005A57  49                dec ecx
00005A58  69455374346C65    imul eax,[ebp+0x53],dword 0x656c3474
00005A5F  7373              jnc 0x5ad4
00005A61  49                dec ecx
00005A62  69455361496945    imul eax,[ebp+0x53],dword 0x45694961
00005A69  45                inc ebp
00005A6A  365F              ss pop edi
00005A6C  53                push ebx
00005A6D  5F                pop edi
00005A6E  6B657945          imul esp,[ebp+0x79],byte +0x45
00005A72  50                push eax
00005A73  4B                dec ebx
00005A74  53                push ebx
00005A75  7431              jz 0x5aa8
00005A77  335F52            xor ebx,[edi+0x52]
00005A7A  625F74            bound ebx,[edi+0x74]
00005A7D  7265              jc 0x5ae4
00005A7F  655F              gs pop edi
00005A81  6E                outsb
00005A82  6F                outsd
00005A83  646549            gs dec ecx
00005A86  6945005F5A4E53    imul eax,[ebp+0x0],dword 0x534e5a5f
00005A8D  7434              jz 0x5ac3
00005A8F  7061              jo 0x5af2
00005A91  69724953743137    imul esi,[edx+0x49],dword 0x37317453
00005A98  5F                pop edi
00005A99  52                push edx
00005A9A  625F74            bound ebx,[edi+0x74]
00005A9D  7265              jc 0x5b04
00005A9F  655F              gs pop edi
00005AA1  6974657261746F72  imul esi,[ebp+0x72],dword 0x726f7461
00005AA9  49                dec ecx
00005AAA  694553315F4543    imul eax,[ebp+0x53],dword 0x43455f31
00005AB1  324552            xor al,[ebp+0x52]
00005AB4  4B                dec ebx
00005AB5  53                push ebx
00005AB6  315F53            xor [edi+0x53],ebx
00005AB9  345F              xor al,0x5f
00005ABB  005F5A            add [edi+0x5a],bl
00005ABE  4E                dec esi
00005ABF  53                push ebx
00005AC0  7438              jz 0x5afa
00005AC2  5F                pop edi
00005AC3  52                push edx
00005AC4  625F74            bound ebx,[edi+0x74]
00005AC7  7265              jc 0x5b2e
00005AC9  6549              gs dec ecx
00005ACB  69695374395F49    imul ebp,[ecx+0x53],dword 0x495f3974
00005AD2  64656E            gs outsb
00005AD5  7469              jz 0x5b40
00005AD7  7479              jz 0x5b52
00005AD9  49                dec ecx
00005ADA  69455374346C65    imul eax,[ebp+0x53],dword 0x656c3474
00005AE1  7373              jnc 0x5b56
00005AE3  49                dec ecx
00005AE4  69455361496945    imul eax,[ebp+0x53],dword 0x45694961
00005AEB  45                inc ebp
00005AEC  3131              xor [ecx],esi
00005AEE  5F                pop edi
00005AEF  4D                dec ebp
00005AF0  5F                pop edi
00005AF1  7075              jo 0x5b68
00005AF3  745F              jz 0x5b54
00005AF5  6E                outsb
00005AF6  6F                outsd
00005AF7  646545            gs inc ebp
00005AFA  50                push eax
00005AFB  53                push ebx
00005AFC  7431              jz 0x5b2f
00005AFE  335F52            xor ebx,[edi+0x52]
00005B01  625F74            bound ebx,[edi+0x74]
00005B04  7265              jc 0x5b6b
00005B06  655F              gs pop edi
00005B08  6E                outsb
00005B09  6F                outsd
00005B0A  646549            gs dec ecx
00005B0D  6945005F5A5374    imul eax,[ebp+0x0],dword 0x74535a5f
00005B14  3137              xor [edi],esi
00005B16  5F                pop edi
00005B17  5F                pop edi
00005B18  7468              jz 0x5b82
00005B1A  726F              jc 0x5b8b
00005B1C  775F              ja 0x5b7d
00005B1E  626164            bound esp,[ecx+0x64]
00005B21  5F                pop edi
00005B22  61                popa
00005B23  6C                insb
00005B24  6C                insb
00005B25  6F                outsd
00005B26  637640            arpl [esi+0x40],si
00005B29  40                inc eax
00005B2A  47                inc edi
00005B2B  4C                dec esp
00005B2C  49                dec ecx
00005B2D  42                inc edx
00005B2E  43                inc ebx
00005B2F  58                pop eax
00005B30  58                pop eax
00005B31  5F                pop edi
00005B32  332E              xor ebp,[esi]
00005B34  3400              xor al,0x0
00005B36  5F                pop edi
00005B37  5A                pop edx
00005B38  4E                dec esi
00005B39  53                push ebx
00005B3A  7438              jz 0x5b74
00005B3C  5F                pop edi
00005B3D  52                push edx
00005B3E  625F74            bound ebx,[edi+0x74]
00005B41  7265              jc 0x5ba8
00005B43  6549              gs dec ecx
00005B45  69695374395F49    imul ebp,[ecx+0x53],dword 0x495f3974
00005B4C  64656E            gs outsb
00005B4F  7469              jz 0x5bba
00005B51  7479              jz 0x5bcc
00005B53  49                dec ecx
00005B54  69455374346C65    imul eax,[ebp+0x53],dword 0x656c3474
00005B5B  7373              jnc 0x5bd0
00005B5D  49                dec ecx
00005B5E  69455361496945    imul eax,[ebp+0x53],dword 0x45694961
00005B65  45                inc ebp
00005B66  365F              ss pop edi
00005B68  53                push ebx
00005B69  5F                pop edi
00005B6A  6B657945          imul esp,[ebp+0x79],byte +0x45
00005B6E  50                push eax
00005B6F  4B                dec ebx
00005B70  53                push ebx
00005B71  7431              jz 0x5ba4
00005B73  385F52            cmp [edi+0x52],bl
00005B76  625F74            bound ebx,[edi+0x74]
00005B79  7265              jc 0x5be0
00005B7B  655F              gs pop edi
00005B7D  6E                outsb
00005B7E  6F                outsd
00005B7F  64655F            gs pop edi
00005B82  626173            bound esp,[ecx+0x73]
00005B85  65005F5A          add [gs:edi+0x5a],bl
00005B89  4E                dec esi
00005B8A  4B                dec ebx
00005B8B  53                push ebx
00005B8C  7432              jz 0x5bc0
00005B8E  335F52            xor ebx,[edi+0x52]
00005B91  625F74            bound ebx,[edi+0x74]
00005B94  7265              jc 0x5bfb
00005B96  655F              gs pop edi
00005B98  636F6E            arpl [edi+0x6e],bp
00005B9B  7374              jnc 0x5c11
00005B9D  5F                pop edi
00005B9E  6974657261746F72  imul esi,[ebp+0x72],dword 0x726f7461
00005BA6  49                dec ecx
00005BA7  69456E6545524B    imul eax,[ebp+0x6e],dword 0x4b524565
00005BAE  53                push ebx
00005BAF  305F00            xor [edi+0x0],bl
00005BB2  5F                pop edi
00005BB3  5A                pop edx
00005BB4  4E                dec esi
00005BB5  53                push ebx
00005BB6  7438              jz 0x5bf0
00005BB8  5F                pop edi
00005BB9  52                push edx
00005BBA  625F74            bound ebx,[edi+0x74]
00005BBD  7265              jc 0x5c24
00005BBF  6549              gs dec ecx
00005BC1  69695374395F49    imul ebp,[ecx+0x53],dword 0x495f3974
00005BC8  64656E            gs outsb
00005BCB  7469              jz 0x5c36
00005BCD  7479              jz 0x5c48
00005BCF  49                dec ecx
00005BD0  69455374346C65    imul eax,[ebp+0x53],dword 0x656c3474
00005BD7  7373              jnc 0x5c4c
00005BD9  49                dec ecx
00005BDA  69455361496945    imul eax,[ebp+0x53],dword 0x45694961
00005BE1  45                inc ebp
00005BE2  44                inc esp
00005BE3  314576            xor [ebp+0x76],eax
00005BE6  005F5A            add [edi+0x5a],bl
00005BE9  4E                dec esi
00005BEA  53                push ebx
00005BEB  7438              jz 0x5c25
00005BED  5F                pop edi
00005BEE  52                push edx
00005BEF  625F74            bound ebx,[edi+0x74]
00005BF2  7265              jc 0x5c59
00005BF4  6549              gs dec ecx
00005BF6  69695374395F49    imul ebp,[ecx+0x53],dword 0x495f3974
00005BFD  64656E            gs outsb
00005C00  7469              jz 0x5c6b
00005C02  7479              jz 0x5c7d
00005C04  49                dec ecx
00005C05  69455374346C65    imul eax,[ebp+0x53],dword 0x656c3474
00005C0C  7373              jnc 0x5c81
00005C0E  49                dec ecx
00005C0F  69455361496945    imul eax,[ebp+0x53],dword 0x45694961
00005C16  45                inc ebp
00005C17  31345F            xor [edi+ebx*2],esi
00005C1A  4D                dec ebp
00005C1B  5F                pop edi
00005C1C  637265            arpl [edx+0x65],si
00005C1F  61                popa
00005C20  7465              jz 0x5c87
00005C22  5F                pop edi
00005C23  6E                outsb
00005C24  6F                outsd
00005C25  646545            gs inc ebp
00005C28  52                push edx
00005C29  4B                dec ebx
00005C2A  69005F5A4E39      imul eax,[eax],dword 0x394e5a5f
00005C30  5F                pop edi
00005C31  5F                pop edi
00005C32  676E              a16 outsb
00005C34  755F              jnz 0x5c95
00005C36  637878            arpl [eax+0x78],di
00005C39  3133              xor [ebx],esi
00005C3B  6E                outsb
00005C3C  65775F            gs ja 0x5c9e
00005C3F  61                popa
00005C40  6C                insb
00005C41  6C                insb
00005C42  6F                outsd
00005C43  636174            arpl [ecx+0x74],sp
00005C46  6F                outsd
00005C47  7249              jc 0x5c92
00005C49  694539636F6E73    imul eax,[ebp+0x39],dword 0x736e6f63
00005C50  7472              jz 0x5cc4
00005C52  7563              jnz 0x5cb7
00005C54  7445              jz 0x5c9b
00005C56  50                push eax
00005C57  69524B69005F65    imul edx,[edx+0x4b],dword 0x655f0069
00005C5E  6461              fs popa
00005C60  7461              jz 0x5cc3
00005C62  005F5A            add [edi+0x5a],bl
00005C65  4E                dec esi
00005C66  53                push ebx
00005C67  7438              jz 0x5ca1
00005C69  5F                pop edi
00005C6A  52                push edx
00005C6B  625F74            bound ebx,[edi+0x74]
00005C6E  7265              jc 0x5cd5
00005C70  6549              gs dec ecx
00005C72  69695374395F49    imul ebp,[ecx+0x53],dword 0x495f3974
00005C79  64656E            gs outsb
00005C7C  7469              jz 0x5ce7
00005C7E  7479              jz 0x5cf9
00005C80  49                dec ecx
00005C81  69455374346C65    imul eax,[ebp+0x53],dword 0x656c3474
00005C88  7373              jnc 0x5cfd
00005C8A  49                dec ecx
00005C8B  69455361496945    imul eax,[ebp+0x53],dword 0x45694961
00005C92  45                inc ebp
00005C93  3131              xor [ecx],esi
00005C95  657175            gs jno 0x5d0d
00005C98  61                popa
00005C99  6C                insb
00005C9A  5F                pop edi
00005C9B  7261              jc 0x5cfe
00005C9D  6E                outsb
00005C9E  676545            gs a16 inc ebp
00005CA1  52                push edx
00005CA2  4B                dec ebx
00005CA3  69005F5F6778      imul eax,[eax],dword 0x78675f5f
00005CA9  785F              js 0x5d0a
00005CAB  7065              jo 0x5d12
00005CAD  7273              jc 0x5d22
00005CAF  6F                outsd
00005CB0  6E                outsb
00005CB1  61                popa
00005CB2  6C                insb
00005CB3  6974795F76304040  imul esi,[ecx+edi*2+0x5f],dword 0x40403076
00005CBB  43                inc ebx
00005CBC  58                pop eax
00005CBD  58                pop eax
00005CBE  41                inc ecx
00005CBF  42                inc edx
00005CC0  49                dec ecx
00005CC1  5F                pop edi
00005CC2  312E              xor [esi],ebp
00005CC4  3300              xor eax,[eax]
00005CC6  5F                pop edi
00005CC7  5A                pop edx
00005CC8  4E                dec esi
00005CC9  53                push ebx
00005CCA  61                popa
00005CCB  49                dec ecx
00005CCC  69454431457600    imul eax,[ebp+0x44],dword 0x764531
00005CD3  5F                pop edi
00005CD4  5A                pop edx
00005CD5  4E                dec esi
00005CD6  53                push ebx
00005CD7  7438              jz 0x5d11
00005CD9  5F                pop edi
00005CDA  52                push edx
00005CDB  625F74            bound ebx,[edi+0x74]
00005CDE  7265              jc 0x5d45
00005CE0  6549              gs dec ecx
00005CE2  69695374395F49    imul ebp,[ecx+0x53],dword 0x495f3974
00005CE9  64656E            gs outsb
00005CEC  7469              jz 0x5d57
00005CEE  7479              jz 0x5d69
00005CF0  49                dec ecx
00005CF1  69455374346C65    imul eax,[ebp+0x53],dword 0x656c3474
00005CF8  7373              jnc 0x5d6d
00005CFA  49                dec ecx
00005CFB  69455361496945    imul eax,[ebp+0x53],dword 0x45694961
00005D02  45                inc ebp
00005D03  31345F            xor [edi+ebx*2],esi
00005D06  4D                dec ebp
00005D07  5F                pop edi
00005D08  7570              jnz 0x5d7a
00005D0A  7065              jo 0x5d71
00005D0C  725F              jc 0x5d6d
00005D0E  626F75            bound ebp,[edi+0x75]
00005D11  6E                outsb
00005D12  6445              fs inc ebp
00005D14  50                push eax
00005D15  53                push ebx
00005D16  7431              jz 0x5d49
00005D18  335F52            xor ebx,[edi+0x52]
00005D1B  625F74            bound ebx,[edi+0x74]
00005D1E  7265              jc 0x5d85
00005D20  655F              gs pop edi
00005D22  6E                outsb
00005D23  6F                outsd
00005D24  646549            gs dec ecx
00005D27  694553385F524B    imul eax,[ebp+0x53],dword 0x4b525f38
00005D2E  69005F556E77      imul eax,[eax],dword 0x776e555f
00005D34  696E645F526573    imul ebp,[esi+0x64],dword 0x7365525f
00005D3B  756D              jnz 0x5daa
00005D3D  6540              gs inc eax
00005D3F  40                inc eax
00005D40  47                inc edi
00005D41  43                inc ebx
00005D42  43                inc ebx
00005D43  5F                pop edi
00005D44  332E              xor ebp,[esi]
00005D46  3000              xor [eax],al
00005D48  5F                pop edi
00005D49  5A                pop edx
00005D4A  4E                dec esi
00005D4B  53                push ebx
00005D4C  7438              jz 0x5d86
00005D4E  5F                pop edi
00005D4F  52                push edx
00005D50  625F74            bound ebx,[edi+0x74]
00005D53  7265              jc 0x5dba
00005D55  6549              gs dec ecx
00005D57  69695374395F49    imul ebp,[ecx+0x53],dword 0x495f3974
00005D5E  64656E            gs outsb
00005D61  7469              jz 0x5dcc
00005D63  7479              jz 0x5dde
00005D65  49                dec ecx
00005D66  69455374346C65    imul eax,[ebp+0x53],dword 0x656c3474
00005D6D  7373              jnc 0x5de2
00005D6F  49                dec ecx
00005D70  69455361496945    imul eax,[ebp+0x53],dword 0x45694961
00005D77  45                inc ebp
00005D78  385F53            cmp [edi+0x53],bl
00005D7B  5F                pop edi
00005D7C  7661              jna 0x5ddf
00005D7E  6C                insb
00005D7F  7565              jnz 0x5de6
00005D81  45                inc ebp
00005D82  50                push eax
00005D83  4B                dec ebx
00005D84  53                push ebx
00005D85  7431              jz 0x5db8
00005D87  385F52            cmp [edi+0x52],bl
00005D8A  625F74            bound ebx,[edi+0x74]
00005D8D  7265              jc 0x5df4
00005D8F  655F              gs pop edi
00005D91  6E                outsb
00005D92  6F                outsd
00005D93  64655F            gs pop edi
00005D96  626173            bound esp,[ecx+0x73]
00005D99  65005F5A          add [gs:edi+0x5a],bl
00005D9D  4E                dec esi
00005D9E  53                push ebx
00005D9F  7431              jz 0x5dd2
00005DA1  37                aaa
00005DA2  5F                pop edi
00005DA3  52                push edx
00005DA4  625F74            bound ebx,[edi+0x74]
00005DA7  7265              jc 0x5e0e
00005DA9  655F              gs pop edi
00005DAB  6974657261746F72  imul esi,[ebp+0x72],dword 0x726f7461
00005DB3  49                dec ecx
00005DB4  69454331455053    imul eax,[ebp+0x43],dword 0x53504531
00005DBB  7431              jz 0x5dee
00005DBD  335F52            xor ebx,[edi+0x52]
00005DC0  625F74            bound ebx,[edi+0x74]
00005DC3  7265              jc 0x5e2a
00005DC5  655F              gs pop edi
00005DC7  6E                outsb
00005DC8  6F                outsd
00005DC9  646549            gs dec ecx
00005DCC  6945005F5A4E53    imul eax,[ebp+0x0],dword 0x534e5a5f
00005DD3  7438              jz 0x5e0d
00005DD5  5F                pop edi
00005DD6  52                push edx
00005DD7  625F74            bound ebx,[edi+0x74]
00005DDA  7265              jc 0x5e41
00005DDC  6549              gs dec ecx
00005DDE  69695374395F49    imul ebp,[ecx+0x53],dword 0x495f3974
00005DE5  64656E            gs outsb
00005DE8  7469              jz 0x5e53
00005DEA  7479              jz 0x5e65
00005DEC  49                dec ecx
00005DED  69455374346C65    imul eax,[ebp+0x53],dword 0x656c3474
00005DF4  7373              jnc 0x5e69
00005DF6  49                dec ecx
00005DF7  69455361496945    imul eax,[ebp+0x53],dword 0x45694961
00005DFE  45                inc ebp
00005DFF  3133              xor [ebx],esi
00005E01  5F                pop edi
00005E02  52                push edx
00005E03  625F74            bound ebx,[edi+0x74]
00005E06  7265              jc 0x5e6d
00005E08  655F              gs pop edi
00005E0A  696D706C495333    imul ebp,[ebp+0x70],dword 0x3353496c
00005E11  5F                pop edi
00005E12  4C                dec esp
00005E13  6230              bound esi,[eax]
00005E15  45                inc ebp
00005E16  45                inc ebp
00005E17  3133              xor [ebx],esi
00005E19  5F                pop edi
00005E1A  4D                dec ebp
00005E1B  5F                pop edi
00005E1C  696E697469616C    imul ebp,[esi+0x69],dword 0x6c616974
00005E23  697A654576005F    imul edi,[edx+0x65],dword 0x5f007645
00005E2A  5A                pop edx
00005E2B  4E                dec esi
00005E2C  53                push ebx
00005E2D  7438              jz 0x5e67
00005E2F  5F                pop edi
00005E30  52                push edx
00005E31  625F74            bound ebx,[edi+0x74]
00005E34  7265              jc 0x5e9b
00005E36  6549              gs dec ecx
00005E38  69695374395F49    imul ebp,[ecx+0x53],dword 0x495f3974
00005E3F  64656E            gs outsb
00005E42  7469              jz 0x5ead
00005E44  7479              jz 0x5ebf
00005E46  49                dec ecx
00005E47  69455374346C65    imul eax,[ebp+0x53],dword 0x656c3474
00005E4E  7373              jnc 0x5ec3
00005E50  49                dec ecx
00005E51  69455361496945    imul eax,[ebp+0x53],dword 0x45694961
00005E58  45                inc ebp
00005E59  3565726173        xor eax,0x73617265
00005E5E  6545              gs inc ebp
00005E60  53                push ebx
00005E61  7431              jz 0x5e94
00005E63  37                aaa
00005E64  5F                pop edi
00005E65  52                push edx
00005E66  625F74            bound ebx,[edi+0x74]
00005E69  7265              jc 0x5ed0
00005E6B  655F              gs pop edi
00005E6D  6974657261746F72  imul esi,[ebp+0x72],dword 0x726f7461
00005E75  49                dec ecx
00005E76  694553375F005F    imul eax,[ebp+0x53],dword 0x5f005f37
00005E7D  5A                pop edx
00005E7E  4E                dec esi
00005E7F  4B                dec ebx
00005E80  53                push ebx
00005E81  7432              jz 0x5eb5
00005E83  335F52            xor ebx,[edi+0x52]
00005E86  625F74            bound ebx,[edi+0x74]
00005E89  7265              jc 0x5ef0
00005E8B  655F              gs pop edi
00005E8D  636F6E            arpl [edi+0x6e],bp
00005E90  7374              jnc 0x5f06
00005E92  5F                pop edi
00005E93  6974657261746F72  imul esi,[ebp+0x72],dword 0x726f7461
00005E9B  49                dec ecx
00005E9C  6945657145524B    imul eax,[ebp+0x65],dword 0x4b524571
00005EA3  53                push ebx
00005EA4  305F00            xor [edi+0x0],bl
00005EA7  5F                pop edi
00005EA8  5F                pop edi
00005EA9  693638362E67      imul esi,[esi],dword 0x672e3638
00005EAF  65745F            gs jz 0x5f11
00005EB2  7063              jo 0x5f17
00005EB4  5F                pop edi
00005EB5  7468              jz 0x5f1f
00005EB7  756E              jnz 0x5f27
00005EB9  6B2E62            imul ebp,[esi],byte +0x62
00005EBC  7800              js 0x5ebe
00005EBE  6D                insd
00005EBF  61                popa
00005EC0  696E005F696E69    imul ebp,[esi+0x0],dword 0x696e695f
00005EC7  7400              jz 0x5ec9
00005EC9  5F                pop edi
00005ECA  5A                pop edx
00005ECB  4E                dec esi
00005ECC  395F5F            cmp [edi+0x5f],ebx
00005ECF  676E              a16 outsb
00005ED1  755F              jnz 0x5f32
00005ED3  637878            arpl [eax+0x78],di
00005ED6  3133              xor [ebx],esi
00005ED8  6E                outsb
00005ED9  65775F            gs ja 0x5f3b
00005EDC  61                popa
00005EDD  6C                insb
00005EDE  6C                insb
00005EDF  6F                outsd
00005EE0  636174            arpl [ecx+0x74],sp
00005EE3  6F                outsd
00005EE4  7249              jc 0x5f2f
00005EE6  69454332457600    imul eax,[ebp+0x43],dword 0x764532
00005EED  5F                pop edi
00005EEE  5A                pop edx
00005EEF  4E                dec esi
00005EF0  53                push ebx
00005EF1  7433              jz 0x5f26
00005EF3  7365              jnc 0x5f5a
00005EF5  7449              jz 0x5f40
00005EF7  695374346C6573    imul edx,[ebx+0x74],dword 0x73656c34
00005EFE  7349              jnc 0x5f49
00005F00  69455361496945    imul eax,[ebp+0x53],dword 0x45694961
00005F07  45                inc ebp
00005F08  3565726173        xor eax,0x73617265
00005F0D  6545              gs inc ebp
00005F0F  52                push edx
00005F10  4B                dec ebx
00005F11  69                db 0x69
00005F12  00                db 0x00
