00000000  7F45              jg 0x47
00000002  4C                dec esp
00000003  46                inc esi
00000004  0101              add [ecx],eax
00000006  0100              add [eax],eax
00000008  0000              add [eax],al
0000000A  0000              add [eax],al
0000000C  0000              add [eax],al
0000000E  0000              add [eax],al
00000010  0200              add al,[eax]
00000012  0300              add eax,[eax]
00000014  0100              add [eax],eax
00000016  0000              add [eax],al
00000018  008804083400      add [eax+0x340804],cl
0000001E  0000              add [eax],al
00000020  98                cwde
00000021  7000              jo 0x23
00000023  0000              add [eax],al
00000025  0000              add [eax],al
00000027  003400            add [eax+eax],dh
0000002A  2000              and [eax],al
0000002C  0800              or [eax],al
0000002E  2800              sub [eax],al
00000030  260023            add [es:ebx],ah
00000033  0006              add [esi],al
00000035  0000              add [eax],al
00000037  003400            add [eax+eax],dh
0000003A  0000              add [eax],al
0000003C  3480              xor al,0x80
0000003E  0408              add al,0x8
00000040  3480              xor al,0x80
00000042  0408              add al,0x8
00000044  0001              add [ecx],al
00000046  0000              add [eax],al
00000048  0001              add [ecx],al
0000004A  0000              add [eax],al
0000004C  0500000004        add eax,0x4000000
00000051  0000              add [eax],al
00000053  0003              add [ebx],al
00000055  0000              add [eax],al
00000057  003401            add [ecx+eax],dh
0000005A  0000              add [eax],al
0000005C  3481              xor al,0x81
0000005E  0408              add al,0x8
00000060  3481              xor al,0x81
00000062  0408              add al,0x8
00000064  1300              adc eax,[eax]
00000066  0000              add [eax],al
00000068  1300              adc eax,[eax]
0000006A  0000              add [eax],al
0000006C  0400              add al,0x0
0000006E  0000              add [eax],al
00000070  0100              add [eax],eax
00000072  0000              add [eax],al
00000074  0100              add [eax],eax
00000076  0000              add [eax],al
00000078  0000              add [eax],al
0000007A  0000              add [eax],al
0000007C  008004080080      add [eax+0x80000804],al
00000082  0408              add al,0x8
00000084  EC                in al,dx
00000085  660000            o16 add [eax],al
00000088  EC                in al,dx
00000089  660000            o16 add [eax],al
0000008C  0500000000        add eax,0x0
00000091  1000              adc [eax],al
00000093  0001              add [ecx],al
00000095  0000              add [eax],al
00000097  00EC              add ah,ch
00000099  660000            o16 add [eax],al
0000009C  EC                in al,dx
0000009D  F60408EC          test byte [eax+ecx],0xec
000000A1  F6040858          test byte [eax+ecx],0x58
000000A5  0100              add [eax],eax
000000A7  00640100          add [ecx+eax+0x0],ah
000000AB  0006              add [esi],al
000000AD  0000              add [eax],al
000000AF  0000              add [eax],al
000000B1  1000              adc [eax],al
000000B3  0002              add [edx],al
000000B5  0000              add [eax],al
000000B7  000467            add [edi],al
000000BA  0000              add [eax],al
000000BC  04F7              add al,0xf7
000000BE  0408              add al,0x8
000000C0  04F7              add al,0xf7
000000C2  0408              add al,0x8
000000C4  E000              loopne 0xc6
000000C6  0000              add [eax],al
000000C8  E000              loopne 0xca
000000CA  0000              add [eax],al
000000CC  06                push es
000000CD  0000              add [eax],al
000000CF  000400            add [eax+eax],al
000000D2  0000              add [eax],al
000000D4  0400              add al,0x0
000000D6  0000              add [eax],al
000000D8  48                dec eax
000000D9  0100              add [eax],eax
000000DB  004881            add [eax-0x7f],cl
000000DE  0408              add al,0x8
000000E0  48                dec eax
000000E1  81040820000000    add dword [eax+ecx],0x20
000000E8  2000              and [eax],al
000000EA  0000              add [eax],al
000000EC  0400              add al,0x0
000000EE  0000              add [eax],al
000000F0  0400              add al,0x0
000000F2  0000              add [eax],al
000000F4  50                push eax
000000F5  E574              in eax,0x74
000000F7  64643E0000        add [ds:eax],al
000000FC  64BE040864BE      fs mov esi,0xbe640804
00000102  0408              add al,0x8
00000104  4C                dec esp
00000105  07                pop es
00000106  0000              add [eax],al
00000108  4C                dec esp
00000109  07                pop es
0000010A  0000              add [eax],al
0000010C  0400              add al,0x0
0000010E  0000              add [eax],al
00000110  0400              add al,0x0
00000112  0000              add [eax],al
00000114  51                push ecx
00000115  E574              in eax,0x74
00000117  640000            add [fs:eax],al
0000011A  0000              add [eax],al
0000011C  0000              add [eax],al
0000011E  0000              add [eax],al
00000120  0000              add [eax],al
00000122  0000              add [eax],al
00000124  0000              add [eax],al
00000126  0000              add [eax],al
00000128  0000              add [eax],al
0000012A  0000              add [eax],al
0000012C  06                push es
0000012D  0000              add [eax],al
0000012F  000400            add [eax+eax],al
00000132  0000              add [eax],al
00000134  2F                das
00000135  6C                insb
00000136  69622F6C642D6C    imul esp,[edx+0x2f],dword 0x6c2d646c
0000013D  696E75782E736F    imul ebp,[esi+0x75],dword 0x6f732e78
00000144  2E3200            xor al,[cs:eax]
00000147  000400            add [eax+eax],al
0000014A  0000              add [eax],al
0000014C  1000              adc [eax],al
0000014E  0000              add [eax],al
00000150  0100              add [eax],eax
00000152  0000              add [eax],al
00000154  47                inc edi
00000155  4E                dec esi
00000156  55                push ebp
00000157  0000              add [eax],al
00000159  0000              add [eax],al
0000015B  0002              add [edx],al
0000015D  0000              add [eax],al
0000015F  0000              add [eax],al
00000161  0000              add [eax],al
00000163  0000              add [eax],al
00000165  0000              add [eax],al
00000167  0011              add [ecx],dl
00000169  0000              add [eax],al
0000016B  0017              add [edi],dl
0000016D  0000              add [eax],al
0000016F  000F              add [edi],cl
00000171  0000              add [eax],al
00000173  0012              add [edx],dl
00000175  0000              add [eax],al
00000177  0000              add [eax],al
00000179  0000              add [eax],al
0000017B  0013              add [ebx],dl
0000017D  0000              add [eax],al
0000017F  001500000000      add [0x0],dl
00000185  0000              add [eax],al
00000187  0016              add [esi],dl
00000189  0000              add [eax],al
0000018B  001400            add [eax+eax],dl
0000018E  0000              add [eax],al
00000190  1000              adc [eax],al
00000192  0000              add [eax],al
00000194  0100              add [eax],eax
00000196  0000              add [eax],al
00000198  0E                push cs
00000199  0000              add [eax],al
0000019B  0000              add [eax],al
0000019D  0000              add [eax],al
0000019F  000A              add [edx],cl
000001A1  0000              add [eax],al
000001A3  000B              add [ebx],cl
000001A5  0000              add [eax],al
000001A7  0002              add [edx],al
000001A9  0000              add [eax],al
000001AB  0003              add [ebx],al
000001AD  0000              add [eax],al
000001AF  0000              add [eax],al
000001B1  0000              add [eax],al
000001B3  0000              add [eax],al
000001B5  0000              add [eax],al
000001B7  0000              add [eax],al
000001B9  0000              add [eax],al
000001BB  0000              add [eax],al
000001BD  0000              add [eax],al
000001BF  0000              add [eax],al
000001C1  0000              add [eax],al
000001C3  0000              add [eax],al
000001C5  0000              add [eax],al
000001C7  0000              add [eax],al
000001C9  0000              add [eax],al
000001CB  000400            add [eax+eax],al
000001CE  0000              add [eax],al
000001D0  0000              add [eax],al
000001D2  0000              add [eax],al
000001D4  0500000000        add eax,0x0
000001D9  0000              add [eax],al
000001DB  0007              add [edi],al
000001DD  0000              add [eax],al
000001DF  0009              add [ecx],cl
000001E1  0000              add [eax],al
000001E3  0006              add [esi],al
000001E5  0000              add [eax],al
000001E7  000C00            add [eax+eax],cl
000001EA  0000              add [eax],al
000001EC  0000              add [eax],al
000001EE  0000              add [eax],al
000001F0  0000              add [eax],al
000001F2  0000              add [eax],al
000001F4  0000              add [eax],al
000001F6  0000              add [eax],al
000001F8  0000              add [eax],al
000001FA  0000              add [eax],al
000001FC  0000              add [eax],al
000001FE  0000              add [eax],al
00000200  0D00000008        or eax,0x8000000
00000205  0000              add [eax],al
00000207  0011              add [ecx],dl
00000209  0000              add [eax],al
0000020B  0000              add [eax],al
0000020D  0000              add [eax],al
0000020F  0000              add [eax],al
00000211  0000              add [eax],al
00000213  0000              add [eax],al
00000215  0000              add [eax],al
00000217  0000              add [eax],al
00000219  0000              add [eax],al
0000021B  0000              add [eax],al
0000021D  0000              add [eax],al
0000021F  00EB              add bl,ch
00000221  0000              add [eax],al
00000223  0000              add [eax],al
00000225  0000              add [eax],al
00000227  0000              add [eax],al
00000229  0000              add [eax],al
0000022B  0012              add [edx],dl
0000022D  0000              add [eax],al
0000022F  006E01            add [esi+0x1],ch
00000232  0000              add [eax],al
00000234  0000              add [eax],al
00000236  0000              add [eax],al
00000238  0000              add [eax],al
0000023A  0000              add [eax],al
0000023C  1200              adc al,[eax]
0000023E  0000              add [eax],al
00000240  61                popa
00000241  0000              add [eax],al
00000243  0000              add [eax],al
00000245  0000              add [eax],al
00000247  0000              add [eax],al
00000249  0000              add [eax],al
0000024B  0020              add [eax],ah
0000024D  0000              add [eax],al
0000024F  00BD00000000      add [ebp+0x0],bh
00000255  0000              add [eax],al
00000257  0000              add [eax],al
00000259  0000              add [eax],al
0000025B  0020              add [eax],ah
0000025D  0000              add [eax],al
0000025F  0010              add [eax],dl
00000261  0000              add [eax],al
00000263  0000              add [eax],al
00000265  0000              add [eax],al
00000267  0000              add [eax],al
00000269  0000              add [eax],al
0000026B  0012              add [edx],dl
0000026D  0000              add [eax],al
0000026F  009700000000      add [edi+0x0],dl
00000275  0000              add [eax],al
00000277  0000              add [eax],al
00000279  0000              add [eax],al
0000027B  0012              add [edx],dl
0000027D  0000              add [eax],al
0000027F  00A500000000      add [ebp+0x0],ah
00000285  0000              add [eax],al
00000287  0000              add [eax],al
00000289  0000              add [eax],al
0000028B  0012              add [edx],dl
0000028D  0000              add [eax],al
0000028F  008901000000      add [ecx+0x1],cl
00000295  0000              add [eax],al
00000297  0000              add [eax],al
00000299  0000              add [eax],al
0000029B  0012              add [edx],dl
0000029D  0000              add [eax],al
0000029F  004300            add [ebx+0x0],al
000002A2  0000              add [eax],al
000002A4  50                push eax
000002A5  870408            xchg eax,[eax+ecx]
000002A8  0000              add [eax],al
000002AA  0000              add [eax],al
000002AC  1200              adc al,[eax]
000002AE  0000              add [eax],al
000002B0  17                pop ss
000002B1  0000              add [eax],al
000002B3  0000              add [eax],al
000002B5  0000              add [eax],al
000002B7  0000              add [eax],al
000002B9  0000              add [eax],al
000002BB  0020              add [eax],ah
000002BD  0000              add [eax],al
000002BF  005301            add [ebx+0x1],dl
000002C2  0000              add [eax],al
000002C4  28BE04080400      sub [esi+0x40804],bh
000002CA  0000              add [eax],al
000002CC  1100              adc [eax],eax
000002CE  0E                push cs
000002CF  007B01            add [ebx+0x1],bh
000002D2  0000              add [eax],al
000002D4  0000              add [eax],al
000002D6  0000              add [eax],al
000002D8  0000              add [eax],al
000002DA  0000              add [eax],al
000002DC  1200              adc al,[eax]
000002DE  0000              add [eax],al
000002E0  D100              rol dword [eax],1
000002E2  0000              add [eax],al
000002E4  0000              add [eax],al
000002E6  0000              add [eax],al
000002E8  0000              add [eax],al
000002EA  0000              add [eax],al
000002EC  2000              and [eax],al
000002EE  0000              add [eax],al
000002F0  670100            add [bx+si],eax
000002F3  0000              add [eax],al
000002F5  0000              add [eax],al
000002F7  0000              add [eax],al
000002F9  0000              add [eax],al
000002FB  0012              add [edx],dl
000002FD  0000              add [eax],al
000002FF  005B00            add [ebx+0x0],bl
00000302  0000              add [eax],al
00000304  0000              add [eax],al
00000306  0000              add [eax],al
00000308  0000              add [eax],al
0000030A  0000              add [eax],al
0000030C  1200              adc al,[eax]
0000030E  0000              add [eax],al
00000310  810100000000      add dword [ecx],0x0
00000316  0000              add [eax],al
00000318  0000              add [eax],al
0000031A  0000              add [eax],al
0000031C  1200              adc al,[eax]
0000031E  0000              add [eax],al
00000320  6201              bound eax,[ecx]
00000322  0000              add [eax],al
00000324  0000              add [eax],al
00000326  0000              add [eax],al
00000328  0000              add [eax],al
0000032A  0000              add [eax],al
0000032C  1200              adc al,[eax]
0000032E  0000              add [eax],al
00000330  3300              xor eax,[eax]
00000332  0000              add [eax],al
00000334  0000              add [eax],al
00000336  0000              add [eax],al
00000338  0000              add [eax],al
0000033A  0000              add [eax],al
0000033C  1200              adc al,[eax]
0000033E  0000              add [eax],al
00000340  0901              or [ecx],eax
00000342  0000              add [eax],al
00000344  0000              add [eax],al
00000346  0000              add [eax],al
00000348  0000              add [eax],al
0000034A  0000              add [eax],al
0000034C  1200              adc al,[eax]
0000034E  0000              add [eax],al
00000350  8500              test [eax],eax
00000352  0000              add [eax],al
00000354  0000              add [eax],al
00000356  0000              add [eax],al
00000358  0000              add [eax],al
0000035A  0000              add [eax],al
0000035C  1200              adc al,[eax]
0000035E  0000              add [eax],al
00000360  7000              jo 0x362
00000362  0000              add [eax],al
00000364  E087              loopne 0x2ed
00000366  0408              add al,0x8
00000368  0000              add [eax],al
0000036A  0000              add [eax],al
0000036C  1200              adc al,[eax]
0000036E  0000              add [eax],al
00000370  3A01              cmp al,[ecx]
00000372  0000              add [eax],al
00000374  0000              add [eax],al
00000376  0000              add [eax],al
00000378  0000              add [eax],al
0000037A  0000              add [eax],al
0000037C  1200              adc al,[eax]
0000037E  0000              add [eax],al
00000380  006C6962          add [ecx+ebp*2+0x62],ch
00000384  7374              jnc 0x3fa
00000386  64632B            arpl [fs:ebx],bp
00000389  2B2E              sub ebp,[esi]
0000038B  736F              jnc 0x3fc
0000038D  2E36005F5A        add [ss:edi+0x5a],bl
00000392  646C              fs insb
00000394  50                push eax
00000395  7600              jna 0x397
00000397  5F                pop edi
00000398  49                dec ecx
00000399  54                push esp
0000039A  4D                dec ebp
0000039B  5F                pop edi
0000039C  64657265          gs jc 0x405
000003A0  676973746572544D  imul esi,[bp+di+0x74],dword 0x4d547265
000003A8  43                inc ebx
000003A9  6C                insb
000003AA  6F                outsd
000003AB  6E                outsb
000003AC  6554              gs push esp
000003AE  61                popa
000003AF  626C6500          bound ebp,[ebp+0x0]
000003B3  5F                pop edi
000003B4  5F                pop edi
000003B5  637861            arpl [eax+0x61],di
000003B8  5F                pop edi
000003B9  656E              gs outsb
000003BB  645F              fs pop edi
000003BD  636174            arpl [ecx+0x74],sp
000003C0  636800            arpl [eax+0x0],bp
000003C3  5F                pop edi
000003C4  5A                pop edx
000003C5  4E                dec esi
000003C6  53                push ebx
000003C7  7438              jz 0x401
000003C9  696F735F626173    imul ebp,[edi+0x73],dword 0x7361625f
000003D0  653449            gs xor al,0x49
000003D3  6E                outsb
000003D4  697444314576005F  imul esi,[esp+eax*2+0x31],dword 0x5f007645
000003DC  5A                pop edx
000003DD  6E                outsb
000003DE  776A              ja 0x44a
000003E0  005F5F            add [edi+0x5f],bl
000003E3  676D              a16 insd
000003E5  6F                outsd
000003E6  6E                outsb
000003E7  5F                pop edi
000003E8  7374              jnc 0x45e
000003EA  61                popa
000003EB  7274              jc 0x461
000003ED  5F                pop edi
000003EE  5F                pop edi
000003EF  005F5F            add [edi+0x5f],bl
000003F2  677878            a16 js 0x46d
000003F5  5F                pop edi
000003F6  7065              jo 0x45d
000003F8  7273              jc 0x46d
000003FA  6F                outsd
000003FB  6E                outsb
000003FC  61                popa
000003FD  6C                insb
000003FE  6974795F7630005F  imul esi,[ecx+edi*2+0x5f],dword 0x5f003076
00000406  5F                pop edi
00000407  637861            arpl [eax+0x61],di
0000040A  5F                pop edi
0000040B  626567            bound esp,[ebp+0x67]
0000040E  696E5F63617463    imul ebp,[esi+0x5f],dword 0x63746163
00000415  68005F5F63        push dword 0x635f5f00
0000041A  7861              js 0x47d
0000041C  5F                pop edi
0000041D  7265              jc 0x484
0000041F  7468              jz 0x489
00000421  726F              jc 0x492
00000423  7700              ja 0x425
00000425  5F                pop edi
00000426  5A                pop edx
00000427  4E                dec esi
00000428  53                push ebx
00000429  7438              jz 0x463
0000042B  696F735F626173    imul ebp,[edi+0x73],dword 0x7361625f
00000432  653449            gs xor al,0x49
00000435  6E                outsb
00000436  697443314576005F  imul esi,[ebx+eax*2+0x31],dword 0x5f007645
0000043E  4A                dec edx
0000043F  765F              jna 0x4a0
00000441  52                push edx
00000442  6567697374657243  imul esi,[gs:bp+di+0x74],dword 0x6c437265
         -6C
0000044B  61                popa
0000044C  7373              jnc 0x4c1
0000044E  657300            gs jnc 0x451
00000451  5F                pop edi
00000452  49                dec ecx
00000453  54                push esp
00000454  4D                dec ebp
00000455  5F                pop edi
00000456  7265              jc 0x4bd
00000458  676973746572544D  imul esi,[bp+di+0x74],dword 0x4d547265
00000460  43                inc ebx
00000461  6C                insb
00000462  6F                outsd
00000463  6E                outsb
00000464  6554              gs push esp
00000466  61                popa
00000467  626C6500          bound ebp,[ebp+0x0]
0000046B  5F                pop edi
0000046C  5A                pop edx
0000046D  53                push ebx
0000046E  7432              jz 0x4a2
00000470  305F5F            xor [edi+0x5f],bl
00000473  7468              jz 0x4dd
00000475  726F              jc 0x4e6
00000477  775F              ja 0x4d8
00000479  6C                insb
0000047A  656E              gs outsb
0000047C  677468            a16 jz 0x4e7
0000047F  5F                pop edi
00000480  657272            gs jc 0x4f5
00000483  6F                outsd
00000484  7250              jc 0x4d6
00000486  4B                dec ebx
00000487  6300              arpl [eax],ax
00000489  5F                pop edi
0000048A  5A                pop edx
0000048B  53                push ebx
0000048C  7431              jz 0x4bf
0000048E  37                aaa
0000048F  5F                pop edi
00000490  5F                pop edi
00000491  7468              jz 0x4fb
00000493  726F              jc 0x504
00000495  775F              ja 0x4f6
00000497  626164            bound esp,[ecx+0x64]
0000049A  5F                pop edi
0000049B  61                popa
0000049C  6C                insb
0000049D  6C                insb
0000049E  6F                outsd
0000049F  637600            arpl [esi+0x0],si
000004A2  6C                insb
000004A3  69626D2E736F2E    imul esp,[edx+0x6d],dword 0x2e6f732e
000004AA  36006C6962        add [ss:ecx+ebp*2+0x62],ch
000004AF  6763635F          arpl [bp+di+0x5f],sp
000004B3  732E              jnc 0x4e3
000004B5  736F              jnc 0x526
000004B7  2E3100            xor [cs:eax],eax
000004BA  5F                pop edi
000004BB  55                push ebp
000004BC  6E                outsb
000004BD  7769              ja 0x528
000004BF  6E                outsb
000004C0  645F              fs pop edi
000004C2  52                push edx
000004C3  657375            gs jnc 0x53b
000004C6  6D                insd
000004C7  65006C6962        add [gs:ecx+ebp*2+0x62],ch
000004CC  632E              arpl [esi],bp
000004CE  736F              jnc 0x53f
000004D0  2E36005F49        add [ss:edi+0x49],bl
000004D5  4F                dec edi
000004D6  5F                pop edi
000004D7  7374              jnc 0x54d
000004D9  64696E5F75736564  imul ebp,[fs:esi+0x5f],dword 0x64657375
000004E1  007075            add [eax+0x75],dh
000004E4  7473              jz 0x559
000004E6  007072            add [eax+0x72],dh
000004E9  696E7466005F5F    imul ebp,[esi+0x74],dword 0x5f5f0066
000004F0  637861            arpl [eax+0x61],di
000004F3  5F                pop edi
000004F4  61                popa
000004F5  7465              jz 0x55c
000004F7  7869              js 0x562
000004F9  7400              jz 0x4fb
000004FB  7363              jnc 0x560
000004FD  61                popa
000004FE  6E                outsb
000004FF  66006D65          o16 add [ebp+0x65],ch
00000503  6D                insd
00000504  6D                insd
00000505  6F                outsd
00000506  7665              jna 0x56d
00000508  005F5F            add [edi+0x5f],bl
0000050B  6C                insb
0000050C  6962635F737461    imul esp,[edx+0x63],dword 0x6174735f
00000513  7274              jc 0x589
00000515  5F                pop edi
00000516  6D                insd
00000517  61                popa
00000518  696E004743435F    imul ebp,[esi+0x0],dword 0x5f434347
0000051F  332E              xor ebp,[esi]
00000521  3000              xor [eax],al
00000523  47                inc edi
00000524  4C                dec esp
00000525  49                dec ecx
00000526  42                inc edx
00000527  43                inc ebx
00000528  5F                pop edi
00000529  322E              xor ch,[esi]
0000052B  3000              xor [eax],al
0000052D  47                inc edi
0000052E  4C                dec esp
0000052F  49                dec ecx
00000530  42                inc edx
00000531  43                inc ebx
00000532  5F                pop edi
00000533  322E              xor ch,[esi]
00000535  312E              xor [esi],ebp
00000537  3300              xor eax,[eax]
00000539  43                inc ebx
0000053A  58                pop eax
0000053B  58                pop eax
0000053C  41                inc ecx
0000053D  42                inc edx
0000053E  49                dec ecx
0000053F  5F                pop edi
00000540  312E              xor [esi],ebp
00000542  3300              xor eax,[eax]
00000544  47                inc edi
00000545  4C                dec esp
00000546  49                dec ecx
00000547  42                inc edx
00000548  43                inc ebx
00000549  58                pop eax
0000054A  58                pop eax
0000054B  5F                pop edi
0000054C  332E              xor ebp,[esi]
0000054E  3400              xor al,0x0
00000550  0000              add [eax],al
00000552  0200              add al,[eax]
00000554  0300              add eax,[eax]
00000556  0000              add [eax],al
00000558  0000              add [eax],al
0000055A  0200              add al,[eax]
0000055C  0400              add al,0x0
0000055E  0200              add al,[eax]
00000560  0500020000        add eax,0x200
00000565  0001              add [ecx],al
00000567  000500000005      add [0x5000000],al
0000056D  0002              add [edx],al
0000056F  000500050004      add [0x4000500],al
00000575  0002              add [edx],al
00000577  000400            add [eax+eax],al
0000057A  0400              add al,0x0
0000057C  06                push es
0000057D  0000              add [eax],al
0000057F  0001              add [ecx],al
00000581  0001              add [ecx],al
00000583  002C01            add [ecx+eax],ch
00000586  0000              add [eax],al
00000588  1000              adc [eax],al
0000058A  0000              add [eax],al
0000058C  2000              and [eax],al
0000058E  0000              add [eax],al
00000590  50                push eax
00000591  26790B            es jns 0x59f
00000594  0000              add [eax],al
00000596  06                push es
00000597  009B01000000      add [ebx+0x1],bl
0000059D  0000              add [eax],al
0000059F  0001              add [ecx],al
000005A1  0002              add [edx],al
000005A3  004901            add [ecx+0x1],cl
000005A6  0000              add [eax],al
000005A8  1000              adc [eax],al
000005AA  0000              add [eax],al
000005AC  3000              xor [eax],al
000005AE  0000              add [eax],al
000005B0  106969            adc [ecx+0x69],ch
000005B3  0D00000500        or eax,0x50000
000005B8  A301000010        mov [0x10000001],eax
000005BD  0000              add [eax],al
000005BF  00731F            add [ebx+0x1f],dh
000005C2  690900000300      imul ecx,[ecx],dword 0x30000
000005C8  AD                lodsd
000005C9  0100              add [eax],eax
000005CB  0000              add [eax],al
000005CD  0000              add [eax],al
000005CF  0001              add [ecx],al
000005D1  0002              add [edx],al
000005D3  0001              add [ecx],al
000005D5  0000              add [eax],al
000005D7  0010              add [eax],dl
000005D9  0000              add [eax],al
000005DB  0000              add [eax],al
000005DD  0000              add [eax],al
000005DF  00D3              add bl,dl
000005E1  AF                scasd
000005E2  6B0500000400B9    imul eax,[0x40000],byte -0x47
000005E9  0100              add [eax],eax
000005EB  0010              add [eax],dl
000005ED  0000              add [eax],al
000005EF  00742992          add [ecx+ebp-0x6e],dh
000005F3  0800              or [eax],al
000005F5  0002              add [edx],al
000005F7  00C4              add ah,al
000005F9  0100              add [eax],eax
000005FB  0000              add [eax],al
000005FD  0000              add [eax],al
000005FF  00E4              add ah,ah
00000601  F7040806030000    test dword [eax+ecx],0x306
00000608  F4                hlt
00000609  F7040807010000    test dword [eax+ecx],0x107
00000610  F8                clc
00000611  F7040807020000    test dword [eax+ecx],0x207
00000618  FC                cld
00000619  F7040807030000    test dword [eax+ecx],0x307
00000620  00F8              add al,bh
00000622  0408              add al,0x8
00000624  07                pop es
00000625  05000004F8        add eax,0xf8040000
0000062A  0408              add al,0x8
0000062C  07                pop es
0000062D  06                push es
0000062E  0000              add [eax],al
00000630  08F8              or al,bh
00000632  0408              add al,0x8
00000634  07                pop es
00000635  07                pop es
00000636  0000              add [eax],al
00000638  0CF8              or al,0xf8
0000063A  0408              add al,0x8
0000063C  07                pop es
0000063D  0800              or [eax],al
0000063F  0010              add [eax],dl
00000641  F8                clc
00000642  0408              add al,0x8
00000644  07                pop es
00000645  0900              or [eax],eax
00000647  0014F8            add [eax+edi*8],dl
0000064A  0408              add al,0x8
0000064C  07                pop es
0000064D  0C00              or al,0x0
0000064F  0018              add [eax],bl
00000651  F8                clc
00000652  0408              add al,0x8
00000654  07                pop es
00000655  0E                push cs
00000656  0000              add [eax],al
00000658  1CF8              sbb al,0xf8
0000065A  0408              add al,0x8
0000065C  07                pop es
0000065D  0F0000            sldt [eax]
00000660  20F8              and al,bh
00000662  0408              add al,0x8
00000664  07                pop es
00000665  1000              adc [eax],al
00000667  0024F8            add [eax+edi*8],ah
0000066A  0408              add al,0x8
0000066C  07                pop es
0000066D  1100              adc [eax],eax
0000066F  0028              add [eax],ch
00000671  F8                clc
00000672  0408              add al,0x8
00000674  07                pop es
00000675  1200              adc al,[eax]
00000677  002CF8            add [eax+edi*8],ch
0000067A  0408              add al,0x8
0000067C  07                pop es
0000067D  1300              adc eax,[eax]
0000067F  0030              add [eax],dh
00000681  F8                clc
00000682  0408              add al,0x8
00000684  07                pop es
00000685  1400              adc al,0x0
00000687  0034F8            add [eax+edi*8],dh
0000068A  0408              add al,0x8
0000068C  07                pop es
0000068D  15000038F8        adc eax,0xf8380000
00000692  0408              add al,0x8
00000694  07                pop es
00000695  16                push ss
00000696  0000              add [eax],al
00000698  55                push ebp
00000699  89E5              mov ebp,esp
0000069B  53                push ebx
0000069C  83EC04            sub esp,byte +0x4
0000069F  E800000000        call 0x6a4
000006A4  5B                pop ebx
000006A5  81C344710000      add ebx,0x7144
000006AB  8B93FCFFFFFF      mov edx,[ebx+0xfffffffc]
000006B1  85D2              test edx,edx
000006B3  7405              jz 0x6ba
000006B5  E846000000        call 0x700
000006BA  E831020000        call 0x8f0
000006BF  E81C370000        call 0x3de0
000006C4  58                pop eax
000006C5  5B                pop ebx
000006C6  C9                leave
000006C7  C3                ret
000006C8  0000              add [eax],al
000006CA  0000              add [eax],al
000006CC  0000              add [eax],al
000006CE  0000              add [eax],al
000006D0  FF35ECF70408      push dword [0x804f7ec]
000006D6  FF25F0F70408      jmp near [0x804f7f0]
000006DC  0000              add [eax],al
000006DE  0000              add [eax],al
000006E0  FF25F4F70408      jmp near [0x804f7f4]
000006E6  6800000000        push dword 0x0
000006EB  E9E0FFFFFF        jmp 0x1000006d0
000006F0  FF25F8F70408      jmp near [0x804f7f8]
000006F6  6808000000        push dword 0x8
000006FB  E9D0FFFFFF        jmp 0x1000006d0
00000700  FF25FCF70408      jmp near [0x804f7fc]
00000706  6810000000        push dword 0x10
0000070B  E9C0FFFFFF        jmp 0x1000006d0
00000710  FF2500F80408      jmp near [0x804f800]
00000716  6818000000        push dword 0x18
0000071B  E9B0FFFFFF        jmp 0x1000006d0
00000720  FF2504F80408      jmp near [0x804f804]
00000726  6820000000        push dword 0x20
0000072B  E9A0FFFFFF        jmp 0x1000006d0
00000730  FF2508F80408      jmp near [0x804f808]
00000736  6828000000        push dword 0x28
0000073B  E990FFFFFF        jmp 0x1000006d0
00000740  FF250CF80408      jmp near [0x804f80c]
00000746  6830000000        push dword 0x30
0000074B  E980FFFFFF        jmp 0x1000006d0
00000750  FF2510F80408      jmp near [0x804f810]
00000756  6838000000        push dword 0x38
0000075B  E970FFFFFF        jmp 0x1000006d0
00000760  FF2514F80408      jmp near [0x804f814]
00000766  6840000000        push dword 0x40
0000076B  E960FFFFFF        jmp 0x1000006d0
00000770  FF2518F80408      jmp near [0x804f818]
00000776  6848000000        push dword 0x48
0000077B  E950FFFFFF        jmp 0x1000006d0
00000780  FF251CF80408      jmp near [0x804f81c]
00000786  6850000000        push dword 0x50
0000078B  E940FFFFFF        jmp 0x1000006d0
00000790  FF2520F80408      jmp near [0x804f820]
00000796  6858000000        push dword 0x58
0000079B  E930FFFFFF        jmp 0x1000006d0
000007A0  FF2524F80408      jmp near [0x804f824]
000007A6  6860000000        push dword 0x60
000007AB  E920FFFFFF        jmp 0x1000006d0
000007B0  FF2528F80408      jmp near [0x804f828]
000007B6  6868000000        push dword 0x68
000007BB  E910FFFFFF        jmp 0x1000006d0
000007C0  FF252CF80408      jmp near [0x804f82c]
000007C6  6870000000        push dword 0x70
000007CB  E900FFFFFF        jmp 0x1000006d0
000007D0  FF2530F80408      jmp near [0x804f830]
000007D6  6878000000        push dword 0x78
000007DB  E9F0FEFFFF        jmp 0x1000006d0
000007E0  FF2534F80408      jmp near [0x804f834]
000007E6  6880000000        push dword 0x80
000007EB  E9E0FEFFFF        jmp 0x1000006d0
000007F0  FF2538F80408      jmp near [0x804f838]
000007F6  6888000000        push dword 0x88
000007FB  E9D0FEFFFF        jmp 0x1000006d0
00000800  31ED              xor ebp,ebp
00000802  5E                pop esi
00000803  89E1              mov ecx,esp
00000805  83E4F0            and esp,byte -0x10
00000808  50                push eax
00000809  54                push esp
0000080A  52                push edx
0000080B  6870BD0408        push dword 0x804bd70
00000810  6880BD0408        push dword 0x804bd80
00000815  51                push ecx
00000816  56                push esi
00000817  6820890408        push dword 0x8048920
0000081C  E81FFFFFFF        call 0x100000740
00000821  F4                hlt
00000822  90                nop
00000823  90                nop
00000824  6690              o16 nop
00000826  6690              o16 nop
00000828  6690              o16 nop
0000082A  6690              o16 nop
0000082C  6690              o16 nop
0000082E  6690              o16 nop
00000830  B847F80408        mov eax,0x804f847
00000835  2D44F80408        sub eax,0x804f844
0000083A  83F806            cmp eax,byte +0x6
0000083D  7701              ja 0x840
0000083F  C3                ret
00000840  B800000000        mov eax,0x0
00000845  85C0              test eax,eax
00000847  74F6              jz 0x83f
00000849  55                push ebp
0000084A  89E5              mov ebp,esp
0000084C  83EC18            sub esp,byte +0x18
0000084F  C7042444F80408    mov dword [esp],0x804f844
00000856  FFD0              call eax
00000858  C9                leave
00000859  C3                ret
0000085A  8DB600000000      lea esi,[esi+0x0]
00000860  B844F80408        mov eax,0x804f844
00000865  2D44F80408        sub eax,0x804f844
0000086A  C1F802            sar eax,0x2
0000086D  89C2              mov edx,eax
0000086F  C1EA1F            shr edx,0x1f
00000872  01D0              add eax,edx
00000874  D1F8              sar eax,1
00000876  7501              jnz 0x879
00000878  C3                ret
00000879  BA00000000        mov edx,0x0
0000087E  85D2              test edx,edx
00000880  74F6              jz 0x878
00000882  55                push ebp
00000883  89E5              mov ebp,esp
00000885  83EC18            sub esp,byte +0x18
00000888  89442404          mov [esp+0x4],eax
0000088C  C7042444F80408    mov dword [esp],0x804f844
00000893  FFD2              call edx
00000895  C9                leave
00000896  C3                ret
00000897  89F6              mov esi,esi
00000899  8DBC2700000000    lea edi,[edi+0x0]
000008A0  803D44F8040800    cmp byte [0x804f844],0x0
000008A7  7544              jnz 0x8ed
000008A9  55                push ebp
000008AA  89E5              mov ebp,esp
000008AC  53                push ebx
000008AD  BBFCF60408        mov ebx,0x804f6fc
000008B2  52                push edx
000008B3  81EBF8F60408      sub ebx,0x804f6f8
000008B9  A148F80408        mov eax,[0x804f848]
000008BE  C1FB02            sar ebx,0x2
000008C1  4B                dec ebx
000008C2  39D8              cmp eax,ebx
000008C4  7318              jnc 0x8de
000008C6  6690              o16 nop
000008C8  40                inc eax
000008C9  A348F80408        mov [0x804f848],eax
000008CE  FF1485F8F60408    call near [eax*4+0x804f6f8]
000008D5  A148F80408        mov eax,[0x804f848]
000008DA  39D8              cmp eax,ebx
000008DC  72EA              jc 0x8c8
000008DE  E84DFFFFFF        call 0x100000830
000008E3  C60544F8040801    mov byte [0x804f844],0x1
000008EA  58                pop eax
000008EB  5B                pop ebx
000008EC  5D                pop ebp
000008ED  C3                ret
000008EE  6690              o16 nop
000008F0  8B0D00F70408      mov ecx,[0x804f700]
000008F6  85C9              test ecx,ecx
000008F8  741E              jz 0x918
000008FA  B800000000        mov eax,0x0
000008FF  85C0              test eax,eax
00000901  7415              jz 0x918
00000903  55                push ebp
00000904  89E5              mov ebp,esp
00000906  83EC18            sub esp,byte +0x18
00000909  C7042400F70408    mov dword [esp],0x804f700
00000910  FFD0              call eax
00000912  C9                leave
00000913  E948FFFFFF        jmp 0x100000860
00000918  E943FFFFFF        jmp 0x100000860
0000091D  6690              o16 nop
0000091F  90                nop
00000920  8D4C2404          lea ecx,[esp+0x4]
00000924  83E4F0            and esp,byte -0x10
00000927  FF71FC            push dword [ecx-0x4]
0000092A  55                push ebp
0000092B  89E5              mov ebp,esp
0000092D  56                push esi
0000092E  53                push ebx
0000092F  51                push ecx
00000930  81EC2C010000      sub esp,0x12c
00000936  8D4584            lea eax,[ebp-0x7c]
00000939  89442404          mov [esp+0x4],eax
0000093D  C704242CBE0408    mov dword [esp],0x804be2c
00000944  E817FEFFFF        call 0x100000760
00000949  C745E401000000    mov dword [ebp-0x1c],0x1
00000950  E9F8040000        jmp 0xe4d
00000955  8D4580            lea eax,[ebp-0x80]
00000958  89442404          mov [esp+0x4],eax
0000095C  C704242CBE0408    mov dword [esp],0x804be2c
00000963  E8F8FDFFFF        call 0x100000760
00000968  8D458B            lea eax,[ebp-0x75]
0000096B  890424            mov [esp],eax
0000096E  E88D060000        call 0x1000
00000973  8D458C            lea eax,[ebp-0x74]
00000976  890424            mov [esp],eax
00000979  E816060000        call 0xf94
0000097E  8B4580            mov eax,[ebp-0x80]
00000981  8D558B            lea edx,[ebp-0x75]
00000984  8954240C          mov [esp+0xc],edx
00000988  8D558C            lea edx,[ebp-0x74]
0000098B  89542408          mov [esp+0x8],edx
0000098F  89442404          mov [esp+0x4],eax
00000993  8D8574FFFFFF      lea eax,[ebp+0xffffff74]
00000999  890424            mov [esp],eax
0000099C  E887060000        call 0x1028
000009A1  8D458C            lea eax,[ebp-0x74]
000009A4  890424            mov [esp],eax
000009A7  E8FC050000        call 0xfa8
000009AC  8D458B            lea eax,[ebp-0x75]
000009AF  890424            mov [esp],eax
000009B2  E85D060000        call 0x1014
000009B7  C745E000000000    mov dword [ebp-0x20],0x0
000009BE  E90C010000        jmp 0xacf
000009C3  8D85E8FEFFFF      lea eax,[ebp+0xfffffee8]
000009C9  89442404          mov [esp+0x4],eax
000009CD  C704242FBE0408    mov dword [esp],0x804be2f
000009D4  E887FDFFFF        call 0x100000760
000009D9  C745DC00000000    mov dword [ebp-0x24],0x0
000009E0  E9D2000000        jmp 0xab7
000009E5  8B45E0            mov eax,[ebp-0x20]
000009E8  89442404          mov [esp+0x4],eax
000009EC  8D8574FFFFFF      lea eax,[ebp+0xffffff74]
000009F2  890424            mov [esp],eax
000009F5  E8DE060000        call 0x10d8
000009FA  890424            mov [esp],eax
000009FD  E8EE060000        call 0x10f0
00000A02  84C0              test al,al
00000A04  7530              jnz 0xa36
00000A06  8B45E0            mov eax,[ebp-0x20]
00000A09  89442404          mov [esp+0x4],eax
00000A0D  8D8574FFFFFF      lea eax,[ebp+0xffffff74]
00000A13  890424            mov [esp],eax
00000A16  E8BD060000        call 0x10d8
00000A1B  890424            mov [esp],eax
00000A1E  E81D070000        call 0x1140
00000A23  8A10              mov dl,[eax]
00000A25  8D8DE8FEFFFF      lea ecx,[ebp+0xfffffee8]
00000A2B  8B45DC            mov eax,[ebp-0x24]
00000A2E  01C8              add eax,ecx
00000A30  8A00              mov al,[eax]
00000A32  38C2              cmp dl,al
00000A34  7404              jz 0xa3a
00000A36  B001              mov al,0x1
00000A38  EB02              jmp short 0xa3c
00000A3A  B000              mov al,0x0
00000A3C  84C0              test al,al
00000A3E  7450              jz 0xa90
00000A40  8D95E8FEFFFF      lea edx,[ebp+0xfffffee8]
00000A46  8B45DC            mov eax,[ebp-0x24]
00000A49  01D0              add eax,edx
00000A4B  8A00              mov al,[eax]
00000A4D  0FBED0            movsx edx,al
00000A50  8D4598            lea eax,[ebp-0x68]
00000A53  C744240801000000  mov dword [esp+0x8],0x1
00000A5B  89542404          mov [esp+0x4],edx
00000A5F  890424            mov [esp],eax
00000A62  E830070000        call 0x1197
00000A67  83EC04            sub esp,byte +0x4
00000A6A  8B45E0            mov eax,[ebp-0x20]
00000A6D  89442404          mov [esp+0x4],eax
00000A71  8D8574FFFFFF      lea eax,[ebp+0xffffff74]
00000A77  890424            mov [esp],eax
00000A7A  E859060000        call 0x10d8
00000A7F  8D5598            lea edx,[ebp-0x68]
00000A82  89542404          mov [esp+0x4],edx
00000A86  890424            mov [esp],eax
00000A89  E836070000        call 0x11c4
00000A8E  EB24              jmp short 0xab4
00000A90  8B45E0            mov eax,[ebp-0x20]
00000A93  89442404          mov [esp+0x4],eax
00000A97  8D8574FFFFFF      lea eax,[ebp+0xffffff74]
00000A9D  890424            mov [esp],eax
00000AA0  E833060000        call 0x10d8
00000AA5  890424            mov [esp],eax
00000AA8  E893060000        call 0x1140
00000AAD  8B5004            mov edx,[eax+0x4]
00000AB0  42                inc edx
00000AB1  895004            mov [eax+0x4],edx
00000AB4  FF45DC            inc dword [ebp-0x24]
00000AB7  8D95E8FEFFFF      lea edx,[ebp+0xfffffee8]
00000ABD  8B45DC            mov eax,[ebp-0x24]
00000AC0  01D0              add eax,edx
00000AC2  8A00              mov al,[eax]
00000AC4  84C0              test al,al
00000AC6  0F8519FFFFFF      jnz near 0x1000009e5
00000ACC  FF45E0            inc dword [ebp-0x20]
00000ACF  8B4580            mov eax,[ebp-0x80]
00000AD2  3945E0            cmp [ebp-0x20],eax
00000AD5  0F8CE8FEFFFF      jl near 0x1000009c3
00000ADB  8B45E4            mov eax,[ebp-0x1c]
00000ADE  89442404          mov [esp+0x4],eax
00000AE2  C7042432BE0408    mov dword [esp],0x804be32
00000AE9  E882FCFFFF        call 0x100000770
00000AEE  C645DB01          mov byte [ebp-0x25],0x1
00000AF2  8D45A3            lea eax,[ebp-0x5d]
00000AF5  890424            mov [esp],eax
00000AF8  E82D080000        call 0x132a
00000AFD  8D45B3            lea eax,[ebp-0x4d]
00000B00  890424            mov [esp],eax
00000B03  E84A070000        call 0x1252
00000B08  C745B400000000    mov dword [ebp-0x4c],0x0
00000B0F  8B4580            mov eax,[ebp-0x80]
00000B12  8D55B3            lea edx,[ebp-0x4d]
00000B15  8954240C          mov [esp+0xc],edx
00000B19  8D55B4            lea edx,[ebp-0x4c]
00000B1C  89542408          mov [esp+0x8],edx
00000B20  89442404          mov [esp+0x4],eax
00000B24  8D45A4            lea eax,[ebp-0x5c]
00000B27  890424            mov [esp],eax
00000B2A  E84B070000        call 0x127a
00000B2F  C744240400000000  mov dword [esp+0x4],0x0
00000B37  8D8574FFFFFF      lea eax,[ebp+0xffffff74]
00000B3D  890424            mov [esp],eax
00000B40  E893050000        call 0x10d8
00000B45  890424            mov [esp],eax
00000B48  E8EB060000        call 0x1238
00000B4D  8D55A3            lea edx,[ebp-0x5d]
00000B50  8954240C          mov [esp+0xc],edx
00000B54  8D55A4            lea edx,[ebp-0x5c]
00000B57  89542408          mov [esp+0x8],edx
00000B5B  89442404          mov [esp+0x4],eax
00000B5F  8D8568FFFFFF      lea eax,[ebp+0xffffff68]
00000B65  890424            mov [esp],eax
00000B68  E8E5070000        call 0x1352
00000B6D  8D45A4            lea eax,[ebp-0x5c]
00000B70  890424            mov [esp],eax
00000B73  E85A070000        call 0x12d2
00000B78  8D45B3            lea eax,[ebp-0x4d]
00000B7B  890424            mov [esp],eax
00000B7E  E8E3060000        call 0x1266
00000B83  8D45A3            lea eax,[ebp-0x5d]
00000B86  890424            mov [esp],eax
00000B89  E8B0070000        call 0x133e
00000B8E  C745D400000000    mov dword [ebp-0x2c],0x0
00000B95  E94E010000        jmp 0xce8
00000B9A  8B45D4            mov eax,[ebp-0x2c]
00000B9D  89442404          mov [esp+0x4],eax
00000BA1  8D8574FFFFFF      lea eax,[ebp+0xffffff74]
00000BA7  890424            mov [esp],eax
00000BAA  E829050000        call 0x10d8
00000BAF  890424            mov [esp],eax
00000BB2  E881060000        call 0x1238
00000BB7  89C3              mov ebx,eax
00000BB9  C744240400000000  mov dword [esp+0x4],0x0
00000BC1  8D8574FFFFFF      lea eax,[ebp+0xffffff74]
00000BC7  890424            mov [esp],eax
00000BCA  E809050000        call 0x10d8
00000BCF  890424            mov [esp],eax
00000BD2  E861060000        call 0x1238
00000BD7  39C3              cmp ebx,eax
00000BD9  0F95C0            setnz al
00000BDC  84C0              test al,al
00000BDE  7409              jz 0xbe9
00000BE0  C645DB00          mov byte [ebp-0x25],0x0
00000BE4  E90B010000        jmp 0xcf4
00000BE9  C745D000000000    mov dword [ebp-0x30],0x0
00000BF0  E9B8000000        jmp 0xcad
00000BF5  8B5DD0            mov ebx,[ebp-0x30]
00000BF8  8B45D4            mov eax,[ebp-0x2c]
00000BFB  89442404          mov [esp+0x4],eax
00000BFF  8D8574FFFFFF      lea eax,[ebp+0xffffff74]
00000C05  890424            mov [esp],eax
00000C08  E8CB040000        call 0x10d8
00000C0D  895C2404          mov [esp+0x4],ebx
00000C11  890424            mov [esp],eax
00000C14  E8E9070000        call 0x1402
00000C19  8A00              mov al,[eax]
00000C1B  8885E7FEFFFF      mov [ebp+0xfffffee7],al
00000C21  8B5DD0            mov ebx,[ebp-0x30]
00000C24  C744240400000000  mov dword [esp+0x4],0x0
00000C2C  8D8574FFFFFF      lea eax,[ebp+0xffffff74]
00000C32  890424            mov [esp],eax
00000C35  E89E040000        call 0x10d8
00000C3A  895C2404          mov [esp+0x4],ebx
00000C3E  890424            mov [esp],eax
00000C41  E8BC070000        call 0x1402
00000C46  8A00              mov al,[eax]
00000C48  3885E7FEFFFF      cmp [ebp+0xfffffee7],al
00000C4E  0F95C0            setnz al
00000C51  84C0              test al,al
00000C53  7406              jz 0xc5b
00000C55  C645DB00          mov byte [ebp-0x25],0x0
00000C59  EB7E              jmp short 0xcd9
00000C5B  8B5DD4            mov ebx,[ebp-0x2c]
00000C5E  8B45D0            mov eax,[ebp-0x30]
00000C61  89442404          mov [esp+0x4],eax
00000C65  8D8568FFFFFF      lea eax,[ebp+0xffffff68]
00000C6B  890424            mov [esp],eax
00000C6E  E8A1070000        call 0x1414
00000C73  895C2404          mov [esp+0x4],ebx
00000C77  890424            mov [esp],eax
00000C7A  E8AD070000        call 0x142c
00000C7F  89C3              mov ebx,eax
00000C81  8B75D0            mov esi,[ebp-0x30]
00000C84  8B45D4            mov eax,[ebp-0x2c]
00000C87  89442404          mov [esp+0x4],eax
00000C8B  8D8574FFFFFF      lea eax,[ebp+0xffffff74]
00000C91  890424            mov [esp],eax
00000C94  E83F040000        call 0x10d8
00000C99  89742404          mov [esp+0x4],esi
00000C9D  890424            mov [esp],eax
00000CA0  E85D070000        call 0x1402
00000CA5  8B4004            mov eax,[eax+0x4]
00000CA8  8903              mov [ebx],eax
00000CAA  FF45D0            inc dword [ebp-0x30]
00000CAD  C744240400000000  mov dword [esp+0x4],0x0
00000CB5  8D8574FFFFFF      lea eax,[ebp+0xffffff74]
00000CBB  890424            mov [esp],eax
00000CBE  E815040000        call 0x10d8
00000CC3  890424            mov [esp],eax
00000CC6  E86D050000        call 0x1238
00000CCB  3B45D0            cmp eax,[ebp-0x30]
00000CCE  0F9FC0            setg al
00000CD1  84C0              test al,al
00000CD3  0F851CFFFFFF      jnz near 0x100000bf5
00000CD9  8A45DB            mov al,[ebp-0x25]
00000CDC  83F001            xor eax,byte +0x1
00000CDF  84C0              test al,al
00000CE1  7402              jz 0xce5
00000CE3  EB0F              jmp short 0xcf4
00000CE5  FF45D4            inc dword [ebp-0x2c]
00000CE8  8B4580            mov eax,[ebp-0x80]
00000CEB  3945D4            cmp [ebp-0x2c],eax
00000CEE  0F8CA6FEFFFF      jl near 0x100000b9a
00000CF4  807DDB00          cmp byte [ebp-0x25],0x0
00000CF8  0F8424010000      jz near 0xe22
00000CFE  C745CC00000000    mov dword [ebp-0x34],0x0
00000D05  C745C800000000    mov dword [ebp-0x38],0x0
00000D0C  E9E0000000        jmp 0xdf1
00000D11  8B45C8            mov eax,[ebp-0x38]
00000D14  89442404          mov [esp+0x4],eax
00000D18  8D8568FFFFFF      lea eax,[ebp+0xffffff68]
00000D1E  890424            mov [esp],eax
00000D21  E8EE060000        call 0x1414
00000D26  8D55B8            lea edx,[ebp-0x48]
00000D29  89442404          mov [esp+0x4],eax
00000D2D  891424            mov [esp],edx
00000D30  E865070000        call 0x149a
00000D35  83EC04            sub esp,byte +0x4
00000D38  8B45C8            mov eax,[ebp-0x38]
00000D3B  89442404          mov [esp+0x4],eax
00000D3F  8D8568FFFFFF      lea eax,[ebp+0xffffff68]
00000D45  890424            mov [esp],eax
00000D48  E8C7060000        call 0x1414
00000D4D  8D55BC            lea edx,[ebp-0x44]
00000D50  89442404          mov [esp+0x4],eax
00000D54  891424            mov [esp],edx
00000D57  E81E070000        call 0x147a
00000D5C  83EC04            sub esp,byte +0x4
00000D5F  8B45B8            mov eax,[ebp-0x48]
00000D62  89442404          mov [esp+0x4],eax
00000D66  8B45BC            mov eax,[ebp-0x44]
00000D69  890424            mov [esp],eax
00000D6C  E84B070000        call 0x14bc
00000D71  8B4580            mov eax,[ebp-0x80]
00000D74  89C2              mov edx,eax
00000D76  C1EA1F            shr edx,0x1f
00000D79  01D0              add eax,edx
00000D7B  D1F8              sar eax,1
00000D7D  89C3              mov ebx,eax
00000D7F  8B45C8            mov eax,[ebp-0x38]
00000D82  89442404          mov [esp+0x4],eax
00000D86  8D8568FFFFFF      lea eax,[ebp+0xffffff68]
00000D8C  890424            mov [esp],eax
00000D8F  E880060000        call 0x1414
00000D94  895C2404          mov [esp+0x4],ebx
00000D98  890424            mov [esp],eax
00000D9B  E88C060000        call 0x142c
00000DA0  8B00              mov eax,[eax]
00000DA2  8945C0            mov [ebp-0x40],eax
00000DA5  C745C400000000    mov dword [ebp-0x3c],0x0
00000DAC  EB38              jmp short 0xde6
00000DAE  8B5DC4            mov ebx,[ebp-0x3c]
00000DB1  8B45C8            mov eax,[ebp-0x38]
00000DB4  89442404          mov [esp+0x4],eax
00000DB8  8D8568FFFFFF      lea eax,[ebp+0xffffff68]
00000DBE  890424            mov [esp],eax
00000DC1  E84E060000        call 0x1414
00000DC6  895C2404          mov [esp+0x4],ebx
00000DCA  890424            mov [esp],eax
00000DCD  E85A060000        call 0x142c
00000DD2  8B00              mov eax,[eax]
00000DD4  2B45C0            sub eax,[ebp-0x40]
00000DD7  89C2              mov edx,eax
00000DD9  C1FA1F            sar edx,0x1f
00000DDC  31D0              xor eax,edx
00000DDE  29D0              sub eax,edx
00000DE0  0145CC            add [ebp-0x34],eax
00000DE3  FF45C4            inc dword [ebp-0x3c]
00000DE6  8B4580            mov eax,[ebp-0x80]
00000DE9  3945C4            cmp [ebp-0x3c],eax
00000DEC  7CC0              jl 0xdae
00000DEE  FF45C8            inc dword [ebp-0x38]
00000DF1  8D8568FFFFFF      lea eax,[ebp+0xffffff68]
00000DF7  890424            mov [esp],eax
00000DFA  E83F060000        call 0x143e
00000DFF  3B45C8            cmp eax,[ebp-0x38]
00000E02  0F9FC0            setg al
00000E05  84C0              test al,al
00000E07  0F8504FFFFFF      jnz near 0x100000d11
00000E0D  8B45CC            mov eax,[ebp-0x34]
00000E10  89442404          mov [esp+0x4],eax
00000E14  C704243DBE0408    mov dword [esp],0x804be3d
00000E1B  E850F9FFFF        call 0x100000770
00000E20  EB0C              jmp short 0xe2e
00000E22  C7042441BE0408    mov dword [esp],0x804be41
00000E29  E872F9FFFF        call 0x1000007a0
00000E2E  8D8568FFFFFF      lea eax,[ebp+0xffffff68]
00000E34  890424            mov [esp],eax
00000E37  E86E050000        call 0x13aa
00000E3C  8D8574FFFFFF      lea eax,[ebp+0xffffff74]
00000E42  890424            mov [esp],eax
00000E45  E836020000        call 0x1080
00000E4A  FF45E4            inc dword [ebp-0x1c]
00000E4D  8B4584            mov eax,[ebp-0x7c]
00000E50  3945E4            cmp [ebp-0x1c],eax
00000E53  0F8EFCFAFFFF      jng near 0x100000955
00000E59  B800000000        mov eax,0x0
00000E5E  E9A5000000        jmp 0xf08
00000E63  89C3              mov ebx,eax
00000E65  8D458C            lea eax,[ebp-0x74]
00000E68  890424            mov [esp],eax
00000E6B  E838010000        call 0xfa8
00000E70  EB14              jmp short 0xe86
00000E72  89C3              mov ebx,eax
00000E74  8D8574FFFFFF      lea eax,[ebp+0xffffff74]
00000E7A  890424            mov [esp],eax
00000E7D  E8FE010000        call 0x1080
00000E82  EB02              jmp short 0xe86
00000E84  89C3              mov ebx,eax
00000E86  8D458B            lea eax,[ebp-0x75]
00000E89  890424            mov [esp],eax
00000E8C  E883010000        call 0x1014
00000E91  89D8              mov eax,ebx
00000E93  EB6B              jmp short 0xf00
00000E95  89C3              mov ebx,eax
00000E97  EB53              jmp short 0xeec
00000E99  89C3              mov ebx,eax
00000E9B  8D45A4            lea eax,[ebp-0x5c]
00000E9E  890424            mov [esp],eax
00000EA1  E82C040000        call 0x12d2
00000EA6  89D8              mov eax,ebx
00000EA8  EB14              jmp short 0xebe
00000EAA  89C3              mov ebx,eax
00000EAC  8D8568FFFFFF      lea eax,[ebp+0xffffff68]
00000EB2  890424            mov [esp],eax
00000EB5  E8F0040000        call 0x13aa
00000EBA  89D8              mov eax,ebx
00000EBC  EB00              jmp short 0xebe
00000EBE  89C3              mov ebx,eax
00000EC0  8D45B3            lea eax,[ebp-0x4d]
00000EC3  890424            mov [esp],eax
00000EC6  E89B030000        call 0x1266
00000ECB  8D45A3            lea eax,[ebp-0x5d]
00000ECE  890424            mov [esp],eax
00000ED1  E868040000        call 0x133e
00000ED6  EB14              jmp short 0xeec
00000ED8  89C3              mov ebx,eax
00000EDA  8D8568FFFFFF      lea eax,[ebp+0xffffff68]
00000EE0  890424            mov [esp],eax
00000EE3  E8C2040000        call 0x13aa
00000EE8  EB02              jmp short 0xeec
00000EEA  89C3              mov ebx,eax
00000EEC  8D8574FFFFFF      lea eax,[ebp+0xffffff74]
00000EF2  890424            mov [esp],eax
00000EF5  E886010000        call 0x1080
00000EFA  89D8              mov eax,ebx
00000EFC  EB02              jmp short 0xf00
00000EFE  EB00              jmp short 0xf00
00000F00  890424            mov [esp],eax
00000F03  E8E8F8FFFF        call 0x1000007f0
00000F08  8D65F4            lea esp,[ebp-0xc]
00000F0B  59                pop ecx
00000F0C  5B                pop ebx
00000F0D  5E                pop esi
00000F0E  5D                pop ebp
00000F0F  8D61FC            lea esp,[ecx-0x4]
00000F12  C3                ret
00000F13  55                push ebp
00000F14  89E5              mov ebp,esp
00000F16  83EC18            sub esp,byte +0x18
00000F19  837D0801          cmp dword [ebp+0x8],byte +0x1
00000F1D  7531              jnz 0xf50
00000F1F  817D0CFFFF0000    cmp dword [ebp+0xc],0xffff
00000F26  7528              jnz 0xf50
00000F28  C704244CF80408    mov dword [esp],0x804f84c
00000F2F  E8FCF7FFFF        call 0x100000730
00000F34  C744240840F80408  mov dword [esp+0x8],0x804f840
00000F3C  C74424044CF80408  mov dword [esp+0x4],0x804f84c
00000F44  C7042450870408    mov dword [esp],0x8048750
00000F4B  E8A0F7FFFF        call 0x1000006f0
00000F50  C9                leave
00000F51  C3                ret
00000F52  55                push ebp
00000F53  89E5              mov ebp,esp
00000F55  83EC18            sub esp,byte +0x18
00000F58  C7442404FFFF0000  mov dword [esp+0x4],0xffff
00000F60  C7042401000000    mov dword [esp],0x1
00000F67  E8A7FFFFFF        call 0x100000f13
00000F6C  C9                leave
00000F6D  C3                ret
00000F6E  55                push ebp
00000F6F  89E5              mov ebp,esp
00000F71  BA20000000        mov edx,0x20
00000F76  8B4508            mov eax,[ebp+0x8]
00000F79  0FBDC0            bsr eax,eax
00000F7C  83F01F            xor eax,byte +0x1f
00000F7F  29C2              sub edx,eax
00000F81  89D0              mov eax,edx
00000F83  48                dec eax
00000F84  5D                pop ebp
00000F85  C3                ret
00000F86  55                push ebp
00000F87  89E5              mov ebp,esp
00000F89  8B450C            mov eax,[ebp+0xc]
00000F8C  5D                pop ebp
00000F8D  C3                ret
00000F8E  55                push ebp
00000F8F  89E5              mov ebp,esp
00000F91  5D                pop ebp
00000F92  C3                ret
00000F93  90                nop
00000F94  55                push ebp
00000F95  89E5              mov ebp,esp
00000F97  83EC18            sub esp,byte +0x18
00000F9A  8B4508            mov eax,[ebp+0x8]
00000F9D  890424            mov [esp],eax
00000FA0  E88D050000        call 0x1532
00000FA5  C9                leave
00000FA6  C3                ret
00000FA7  90                nop
00000FA8  55                push ebp
00000FA9  89E5              mov ebp,esp
00000FAB  53                push ebx
00000FAC  83EC14            sub esp,byte +0x14
00000FAF  8B4508            mov eax,[ebp+0x8]
00000FB2  890424            mov [esp],eax
00000FB5  E8EC050000        call 0x15a6
00000FBA  8B5508            mov edx,[ebp+0x8]
00000FBD  8B4A04            mov ecx,[edx+0x4]
00000FC0  8B5508            mov edx,[ebp+0x8]
00000FC3  8B12              mov edx,[edx]
00000FC5  89442408          mov [esp+0x8],eax
00000FC9  894C2404          mov [esp+0x4],ecx
00000FCD  891424            mov [esp],edx
00000FD0  E8D9050000        call 0x15ae
00000FD5  8B4508            mov eax,[ebp+0x8]
00000FD8  890424            mov [esp],eax
00000FDB  E866050000        call 0x1546
00000FE0  EB17              jmp short 0xff9
00000FE2  89C3              mov ebx,eax
00000FE4  8B4508            mov eax,[ebp+0x8]
00000FE7  890424            mov [esp],eax
00000FEA  E857050000        call 0x1546
00000FEF  89D8              mov eax,ebx
00000FF1  890424            mov [esp],eax
00000FF4  E8F7F7FFFF        call 0x1000007f0
00000FF9  83C414            add esp,byte +0x14
00000FFC  5B                pop ebx
00000FFD  5D                pop ebp
00000FFE  C3                ret
00000FFF  90                nop
00001000  55                push ebp
00001001  89E5              mov ebp,esp
00001003  83EC18            sub esp,byte +0x18
00001006  8B4508            mov eax,[ebp+0x8]
00001009  890424            mov [esp],eax
0000100C  E8B7050000        call 0x15c8
00001011  C9                leave
00001012  C3                ret
00001013  90                nop
00001014  55                push ebp
00001015  89E5              mov ebp,esp
00001017  83EC18            sub esp,byte +0x18
0000101A  8B4508            mov eax,[ebp+0x8]
0000101D  890424            mov [esp],eax
00001020  E8A9050000        call 0x15ce
00001025  C9                leave
00001026  C3                ret
00001027  90                nop
00001028  55                push ebp
00001029  89E5              mov ebp,esp
0000102B  53                push ebx
0000102C  83EC14            sub esp,byte +0x14
0000102F  8B4508            mov eax,[ebp+0x8]
00001032  8B5514            mov edx,[ebp+0x14]
00001035  89542408          mov [esp+0x8],edx
00001039  8B550C            mov edx,[ebp+0xc]
0000103C  89542404          mov [esp+0x4],edx
00001040  890424            mov [esp],eax
00001043  E8A0050000        call 0x15e8
00001048  8B4510            mov eax,[ebp+0x10]
0000104B  89442408          mov [esp+0x8],eax
0000104F  8B450C            mov eax,[ebp+0xc]
00001052  89442404          mov [esp+0x4],eax
00001056  8B4508            mov eax,[ebp+0x8]
00001059  890424            mov [esp],eax
0000105C  E853060000        call 0x16b4
00001061  EB17              jmp short 0x107a
00001063  89C3              mov ebx,eax
00001065  8B4508            mov eax,[ebp+0x8]
00001068  890424            mov [esp],eax
0000106B  E8C2050000        call 0x1632
00001070  89D8              mov eax,ebx
00001072  890424            mov [esp],eax
00001075  E876F7FFFF        call 0x1000007f0
0000107A  83C414            add esp,byte +0x14
0000107D  5B                pop ebx
0000107E  5D                pop ebp
0000107F  C3                ret
00001080  55                push ebp
00001081  89E5              mov ebp,esp
00001083  53                push ebx
00001084  83EC14            sub esp,byte +0x14
00001087  8B4508            mov eax,[ebp+0x8]
0000108A  890424            mov [esp],eax
0000108D  E860060000        call 0x16f2
00001092  8B5508            mov edx,[ebp+0x8]
00001095  8B4A04            mov ecx,[edx+0x4]
00001098  8B5508            mov edx,[ebp+0x8]
0000109B  8B12              mov edx,[edx]
0000109D  89442408          mov [esp+0x8],eax
000010A1  894C2404          mov [esp+0x4],ecx
000010A5  891424            mov [esp],edx
000010A8  E84D060000        call 0x16fa
000010AD  8B4508            mov eax,[ebp+0x8]
000010B0  890424            mov [esp],eax
000010B3  E87A050000        call 0x1632
000010B8  EB17              jmp short 0x10d1
000010BA  89C3              mov ebx,eax
000010BC  8B4508            mov eax,[ebp+0x8]
000010BF  890424            mov [esp],eax
000010C2  E86B050000        call 0x1632
000010C7  89D8              mov eax,ebx
000010C9  890424            mov [esp],eax
000010CC  E81FF7FFFF        call 0x1000007f0
000010D1  83C414            add esp,byte +0x14
000010D4  5B                pop ebx
000010D5  5D                pop ebp
000010D6  C3                ret
000010D7  90                nop
000010D8  55                push ebp
000010D9  89E5              mov ebp,esp
000010DB  8B4508            mov eax,[ebp+0x8]
000010DE  8B08              mov ecx,[eax]
000010E0  8B550C            mov edx,[ebp+0xc]
000010E3  89D0              mov eax,edx
000010E5  01C0              add eax,eax
000010E7  01D0              add eax,edx
000010E9  C1E002            shl eax,0x2
000010EC  01C8              add eax,ecx
000010EE  5D                pop ebp
000010EF  C3                ret
000010F0  55                push ebp
000010F1  89E5              mov ebp,esp
000010F3  83EC28            sub esp,byte +0x28
000010F6  8D45F0            lea eax,[ebp-0x10]
000010F9  8B5508            mov edx,[ebp+0x8]
000010FC  89542404          mov [esp+0x4],edx
00001100  890424            mov [esp],eax
00001103  E80C060000        call 0x1714
00001108  83EC04            sub esp,byte +0x4
0000110B  8D45F4            lea eax,[ebp-0xc]
0000110E  8B5508            mov edx,[ebp+0x8]
00001111  89542404          mov [esp+0x4],edx
00001115  890424            mov [esp],eax
00001118  E81F060000        call 0x173c
0000111D  83EC04            sub esp,byte +0x4
00001120  8D45F0            lea eax,[ebp-0x10]
00001123  89442404          mov [esp+0x4],eax
00001127  8D45F4            lea eax,[ebp-0xc]
0000112A  890424            mov [esp],eax
0000112D  E831060000        call 0x1763
00001132  EB0A              jmp short 0x113e
00001134  EB00              jmp short 0x1136
00001136  890424            mov [esp],eax
00001139  E8B2F6FFFF        call 0x1000007f0
0000113E  C9                leave
0000113F  C3                ret
00001140  55                push ebp
00001141  89E5              mov ebp,esp
00001143  83EC28            sub esp,byte +0x28
00001146  C745F001000000    mov dword [ebp-0x10],0x1
0000114D  8D45F4            lea eax,[ebp-0xc]
00001150  8B5508            mov edx,[ebp+0x8]
00001153  89542404          mov [esp+0x4],edx
00001157  890424            mov [esp],eax
0000115A  E831060000        call 0x1790
0000115F  83EC04            sub esp,byte +0x4
00001162  8D45EC            lea eax,[ebp-0x14]
00001165  8D55F0            lea edx,[ebp-0x10]
00001168  89542408          mov [esp+0x8],edx
0000116C  8D55F4            lea edx,[ebp-0xc]
0000116F  89542404          mov [esp+0x4],edx
00001173  890424            mov [esp],eax
00001176  E837060000        call 0x17b2
0000117B  83EC04            sub esp,byte +0x4
0000117E  8D45EC            lea eax,[ebp-0x14]
00001181  890424            mov [esp],eax
00001184  E85D060000        call 0x17e6
00001189  EB0A              jmp short 0x1195
0000118B  EB00              jmp short 0x118d
0000118D  890424            mov [esp],eax
00001190  E85BF6FFFF        call 0x1000007f0
00001195  C9                leave
00001196  C3                ret
00001197  55                push ebp
00001198  89E5              mov ebp,esp
0000119A  83EC18            sub esp,byte +0x18
0000119D  8B450C            mov eax,[ebp+0xc]
000011A0  8845F4            mov [ebp-0xc],al
000011A3  8D4510            lea eax,[ebp+0x10]
000011A6  89442408          mov [esp+0x8],eax
000011AA  8D45F4            lea eax,[ebp-0xc]
000011AD  89442404          mov [esp+0x4],eax
000011B1  8B4508            mov eax,[ebp+0x8]
000011B4  890424            mov [esp],eax
000011B7  E834060000        call 0x17f0
000011BC  8B4508            mov eax,[ebp+0x8]
000011BF  C9                leave
000011C0  C20400            ret 0x4
000011C3  90                nop
000011C4  55                push ebp
000011C5  89E5              mov ebp,esp
000011C7  83EC28            sub esp,byte +0x28
000011CA  8B4508            mov eax,[ebp+0x8]
000011CD  8B5004            mov edx,[eax+0x4]
000011D0  8B4508            mov eax,[ebp+0x8]
000011D3  8B4008            mov eax,[eax+0x8]
000011D6  39C2              cmp edx,eax
000011D8  742D              jz 0x1207
000011DA  8B4508            mov eax,[ebp+0x8]
000011DD  8B5004            mov edx,[eax+0x4]
000011E0  8B4508            mov eax,[ebp+0x8]
000011E3  8B4D0C            mov ecx,[ebp+0xc]
000011E6  894C2408          mov [esp+0x8],ecx
000011EA  89542404          mov [esp+0x4],edx
000011EE  890424            mov [esp],eax
000011F1  E814060000        call 0x180a
000011F6  8B4508            mov eax,[ebp+0x8]
000011F9  8B4004            mov eax,[eax+0x4]
000011FC  8D5008            lea edx,[eax+0x8]
000011FF  8B4508            mov eax,[ebp+0x8]
00001202  895004            mov [eax+0x4],edx
00001205  EB2E              jmp short 0x1235
00001207  8D45F4            lea eax,[ebp-0xc]
0000120A  8B5508            mov edx,[ebp+0x8]
0000120D  89542404          mov [esp+0x4],edx
00001211  890424            mov [esp],eax
00001214  E877050000        call 0x1790
00001219  83EC04            sub esp,byte +0x4
0000121C  8B450C            mov eax,[ebp+0xc]
0000121F  89442408          mov [esp+0x8],eax
00001223  8B45F4            mov eax,[ebp-0xc]
00001226  89442404          mov [esp+0x4],eax
0000122A  8B4508            mov eax,[ebp+0x8]
0000122D  890424            mov [esp],eax
00001230  E8F7050000        call 0x182c
00001235  C9                leave
00001236  C3                ret
00001237  90                nop
00001238  55                push ebp
00001239  89E5              mov ebp,esp
0000123B  8B4508            mov eax,[ebp+0x8]
0000123E  8B4004            mov eax,[eax+0x4]
00001241  89C2              mov edx,eax
00001243  8B4508            mov eax,[ebp+0x8]
00001246  8B00              mov eax,[eax]
00001248  29C2              sub edx,eax
0000124A  89D0              mov eax,edx
0000124C  C1F803            sar eax,0x3
0000124F  5D                pop ebp
00001250  C3                ret
00001251  90                nop
00001252  55                push ebp
00001253  89E5              mov ebp,esp
00001255  83EC18            sub esp,byte +0x18
00001258  8B4508            mov eax,[ebp+0x8]
0000125B  890424            mov [esp],eax
0000125E  E883080000        call 0x1ae6
00001263  C9                leave
00001264  C3                ret
00001265  90                nop
00001266  55                push ebp
00001267  89E5              mov ebp,esp
00001269  83EC18            sub esp,byte +0x18
0000126C  8B4508            mov eax,[ebp+0x8]
0000126F  890424            mov [esp],eax
00001272  E875080000        call 0x1aec
00001277  C9                leave
00001278  C3                ret
00001279  90                nop
0000127A  55                push ebp
0000127B  89E5              mov ebp,esp
0000127D  53                push ebx
0000127E  83EC14            sub esp,byte +0x14
00001281  8B4508            mov eax,[ebp+0x8]
00001284  8B5514            mov edx,[ebp+0x14]
00001287  89542408          mov [esp+0x8],edx
0000128B  8B550C            mov edx,[ebp+0xc]
0000128E  89542404          mov [esp+0x4],edx
00001292  890424            mov [esp],eax
00001295  E86C080000        call 0x1b06
0000129A  8B4510            mov eax,[ebp+0x10]
0000129D  89442408          mov [esp+0x8],eax
000012A1  8B450C            mov eax,[ebp+0xc]
000012A4  89442404          mov [esp+0x4],eax
000012A8  8B4508            mov eax,[ebp+0x8]
000012AB  890424            mov [esp],eax
000012AE  E8FD080000        call 0x1bb0
000012B3  EB17              jmp short 0x12cc
000012B5  89C3              mov ebx,eax
000012B7  8B4508            mov eax,[ebp+0x8]
000012BA  890424            mov [esp],eax
000012BD  E88E080000        call 0x1b50
000012C2  89D8              mov eax,ebx
000012C4  890424            mov [esp],eax
000012C7  E824F5FFFF        call 0x1000007f0
000012CC  83C414            add esp,byte +0x14
000012CF  5B                pop ebx
000012D0  5D                pop ebp
000012D1  C3                ret
000012D2  55                push ebp
000012D3  89E5              mov ebp,esp
000012D5  53                push ebx
000012D6  83EC14            sub esp,byte +0x14
000012D9  8B4508            mov eax,[ebp+0x8]
000012DC  890424            mov [esp],eax
000012DF  E80A090000        call 0x1bee
000012E4  8B5508            mov edx,[ebp+0x8]
000012E7  8B4A04            mov ecx,[edx+0x4]
000012EA  8B5508            mov edx,[ebp+0x8]
000012ED  8B12              mov edx,[edx]
000012EF  89442408          mov [esp+0x8],eax
000012F3  894C2404          mov [esp+0x4],ecx
000012F7  891424            mov [esp],edx
000012FA  E8F7080000        call 0x1bf6
000012FF  8B4508            mov eax,[ebp+0x8]
00001302  890424            mov [esp],eax
00001305  E846080000        call 0x1b50
0000130A  EB17              jmp short 0x1323
0000130C  89C3              mov ebx,eax
0000130E  8B4508            mov eax,[ebp+0x8]
00001311  890424            mov [esp],eax
00001314  E837080000        call 0x1b50
00001319  89D8              mov eax,ebx
0000131B  890424            mov [esp],eax
0000131E  E8CDF4FFFF        call 0x1000007f0
00001323  83C414            add esp,byte +0x14
00001326  5B                pop ebx
00001327  5D                pop ebp
00001328  C3                ret
00001329  90                nop
0000132A  55                push ebp
0000132B  89E5              mov ebp,esp
0000132D  83EC18            sub esp,byte +0x18
00001330  8B4508            mov eax,[ebp+0x8]
00001333  890424            mov [esp],eax
00001336  E8D5080000        call 0x1c10
0000133B  C9                leave
0000133C  C3                ret
0000133D  90                nop
0000133E  55                push ebp
0000133F  89E5              mov ebp,esp
00001341  83EC18            sub esp,byte +0x18
00001344  8B4508            mov eax,[ebp+0x8]
00001347  890424            mov [esp],eax
0000134A  E8C7080000        call 0x1c16
0000134F  C9                leave
00001350  C3                ret
00001351  90                nop
00001352  55                push ebp
00001353  89E5              mov ebp,esp
00001355  53                push ebx
00001356  83EC14            sub esp,byte +0x14
00001359  8B4508            mov eax,[ebp+0x8]
0000135C  8B5514            mov edx,[ebp+0x14]
0000135F  89542408          mov [esp+0x8],edx
00001363  8B550C            mov edx,[ebp+0xc]
00001366  89542404          mov [esp+0x4],edx
0000136A  890424            mov [esp],eax
0000136D  E8BE080000        call 0x1c30
00001372  8B4510            mov eax,[ebp+0x10]
00001375  89442408          mov [esp+0x8],eax
00001379  8B450C            mov eax,[ebp+0xc]
0000137C  89442404          mov [esp+0x4],eax
00001380  8B4508            mov eax,[ebp+0x8]
00001383  890424            mov [esp],eax
00001386  E871090000        call 0x1cfc
0000138B  EB17              jmp short 0x13a4
0000138D  89C3              mov ebx,eax
0000138F  8B4508            mov eax,[ebp+0x8]
00001392  890424            mov [esp],eax
00001395  E8E0080000        call 0x1c7a
0000139A  89D8              mov eax,ebx
0000139C  890424            mov [esp],eax
0000139F  E84CF4FFFF        call 0x1000007f0
000013A4  83C414            add esp,byte +0x14
000013A7  5B                pop ebx
000013A8  5D                pop ebp
000013A9  C3                ret
000013AA  55                push ebp
000013AB  89E5              mov ebp,esp
000013AD  53                push ebx
000013AE  83EC14            sub esp,byte +0x14
000013B1  8B4508            mov eax,[ebp+0x8]
000013B4  890424            mov [esp],eax
000013B7  E87E090000        call 0x1d3a
000013BC  8B5508            mov edx,[ebp+0x8]
000013BF  8B4A04            mov ecx,[edx+0x4]
000013C2  8B5508            mov edx,[ebp+0x8]
000013C5  8B12              mov edx,[edx]
000013C7  89442408          mov [esp+0x8],eax
000013CB  894C2404          mov [esp+0x4],ecx
000013CF  891424            mov [esp],edx
000013D2  E86B090000        call 0x1d42
000013D7  8B4508            mov eax,[ebp+0x8]
000013DA  890424            mov [esp],eax
000013DD  E898080000        call 0x1c7a
000013E2  EB17              jmp short 0x13fb
000013E4  89C3              mov ebx,eax
000013E6  8B4508            mov eax,[ebp+0x8]
000013E9  890424            mov [esp],eax
000013EC  E889080000        call 0x1c7a
000013F1  89D8              mov eax,ebx
000013F3  890424            mov [esp],eax
000013F6  E8F5F3FFFF        call 0x1000007f0
000013FB  83C414            add esp,byte +0x14
000013FE  5B                pop ebx
000013FF  5D                pop ebp
00001400  C3                ret
00001401  90                nop
00001402  55                push ebp
00001403  89E5              mov ebp,esp
00001405  8B4508            mov eax,[ebp+0x8]
00001408  8B00              mov eax,[eax]
0000140A  8B550C            mov edx,[ebp+0xc]
0000140D  C1E203            shl edx,0x3
00001410  01D0              add eax,edx
00001412  5D                pop ebp
00001413  C3                ret
00001414  55                push ebp
00001415  89E5              mov ebp,esp
00001417  8B4508            mov eax,[ebp+0x8]
0000141A  8B08              mov ecx,[eax]
0000141C  8B550C            mov edx,[ebp+0xc]
0000141F  89D0              mov eax,edx
00001421  01C0              add eax,eax
00001423  01D0              add eax,edx
00001425  C1E002            shl eax,0x2
00001428  01C8              add eax,ecx
0000142A  5D                pop ebp
0000142B  C3                ret
0000142C  55                push ebp
0000142D  89E5              mov ebp,esp
0000142F  8B4508            mov eax,[ebp+0x8]
00001432  8B00              mov eax,[eax]
00001434  8B550C            mov edx,[ebp+0xc]
00001437  C1E202            shl edx,0x2
0000143A  01D0              add eax,edx
0000143C  5D                pop ebp
0000143D  C3                ret
0000143E  55                push ebp
0000143F  89E5              mov ebp,esp
00001441  8B4508            mov eax,[ebp+0x8]
00001444  8B4004            mov eax,[eax+0x4]
00001447  89C2              mov edx,eax
00001449  8B4508            mov eax,[ebp+0x8]
0000144C  8B00              mov eax,[eax]
0000144E  29C2              sub edx,eax
00001450  89D0              mov eax,edx
00001452  C1F802            sar eax,0x2
00001455  89C2              mov edx,eax
00001457  89D0              mov eax,edx
00001459  C1E002            shl eax,0x2
0000145C  01D0              add eax,edx
0000145E  89C1              mov ecx,eax
00001460  C1E104            shl ecx,0x4
00001463  01C8              add eax,ecx
00001465  89C1              mov ecx,eax
00001467  C1E108            shl ecx,0x8
0000146A  01C8              add eax,ecx
0000146C  89C1              mov ecx,eax
0000146E  C1E110            shl ecx,0x10
00001471  01C8              add eax,ecx
00001473  01C0              add eax,eax
00001475  01D0              add eax,edx
00001477  5D                pop ebp
00001478  C3                ret
00001479  90                nop
0000147A  55                push ebp
0000147B  89E5              mov ebp,esp
0000147D  83EC18            sub esp,byte +0x18
00001480  8B450C            mov eax,[ebp+0xc]
00001483  89442404          mov [esp+0x4],eax
00001487  8B4508            mov eax,[ebp+0x8]
0000148A  890424            mov [esp],eax
0000148D  E8CA080000        call 0x1d5c
00001492  8B4508            mov eax,[ebp+0x8]
00001495  C9                leave
00001496  C20400            ret 0x4
00001499  90                nop
0000149A  55                push ebp
0000149B  89E5              mov ebp,esp
0000149D  83EC18            sub esp,byte +0x18
000014A0  8B450C            mov eax,[ebp+0xc]
000014A3  83C004            add eax,byte +0x4
000014A6  89442404          mov [esp+0x4],eax
000014AA  8B4508            mov eax,[ebp+0x8]
000014AD  890424            mov [esp],eax
000014B0  E8A7080000        call 0x1d5c
000014B5  8B4508            mov eax,[ebp+0x8]
000014B8  C9                leave
000014B9  C20400            ret 0x4
000014BC  55                push ebp
000014BD  89E5              mov ebp,esp
000014BF  83EC18            sub esp,byte +0x18
000014C2  8D450C            lea eax,[ebp+0xc]
000014C5  89442404          mov [esp+0x4],eax
000014C9  8D4508            lea eax,[ebp+0x8]
000014CC  890424            mov [esp],eax
000014CF  E897080000        call 0x1d6b
000014D4  84C0              test al,al
000014D6  7444              jz 0x151c
000014D8  8D4508            lea eax,[ebp+0x8]
000014DB  89442404          mov [esp+0x4],eax
000014DF  8D450C            lea eax,[ebp+0xc]
000014E2  890424            mov [esp],eax
000014E5  E8AD080000        call 0x1d97
000014EA  890424            mov [esp],eax
000014ED  E87CFAFFFF        call 0x100000f6e
000014F2  01C0              add eax,eax
000014F4  89442408          mov [esp+0x8],eax
000014F8  8B450C            mov eax,[ebp+0xc]
000014FB  89442404          mov [esp+0x4],eax
000014FF  8B4508            mov eax,[ebp+0x8]
00001502  890424            mov [esp],eax
00001505  E8BD080000        call 0x1dc7
0000150A  8B450C            mov eax,[ebp+0xc]
0000150D  89442404          mov [esp+0x4],eax
00001511  8B4508            mov eax,[ebp+0x8]
00001514  890424            mov [esp],eax
00001517  E83A090000        call 0x1e56
0000151C  C9                leave
0000151D  C3                ret
0000151E  55                push ebp
0000151F  89E5              mov ebp,esp
00001521  83EC18            sub esp,byte +0x18
00001524  8B4508            mov eax,[ebp+0x8]
00001527  890424            mov [esp],eax
0000152A  E80F0A0000        call 0x1f3e
0000152F  C9                leave
00001530  C3                ret
00001531  90                nop
00001532  55                push ebp
00001533  89E5              mov ebp,esp
00001535  83EC18            sub esp,byte +0x18
00001538  8B4508            mov eax,[ebp+0x8]
0000153B  890424            mov [esp],eax
0000153E  E8CB090000        call 0x1f0e
00001543  C9                leave
00001544  C3                ret
00001545  90                nop
00001546  55                push ebp
00001547  89E5              mov ebp,esp
00001549  53                push ebx
0000154A  83EC14            sub esp,byte +0x14
0000154D  8B4508            mov eax,[ebp+0x8]
00001550  8B4008            mov eax,[eax+0x8]
00001553  89C2              mov edx,eax
00001555  8B4508            mov eax,[ebp+0x8]
00001558  8B00              mov eax,[eax]
0000155A  29C2              sub edx,eax
0000155C  89D0              mov eax,edx
0000155E  C1F803            sar eax,0x3
00001561  89C2              mov edx,eax
00001563  8B4508            mov eax,[ebp+0x8]
00001566  8B00              mov eax,[eax]
00001568  89542408          mov [esp+0x8],edx
0000156C  89442404          mov [esp+0x4],eax
00001570  8B4508            mov eax,[ebp+0x8]
00001573  890424            mov [esp],eax
00001576  E8D7090000        call 0x1f52
0000157B  8B4508            mov eax,[ebp+0x8]
0000157E  890424            mov [esp],eax
00001581  E898FFFFFF        call 0x10000151e
00001586  EB17              jmp short 0x159f
00001588  89C3              mov ebx,eax
0000158A  8B4508            mov eax,[ebp+0x8]
0000158D  890424            mov [esp],eax
00001590  E889FFFFFF        call 0x10000151e
00001595  89D8              mov eax,ebx
00001597  890424            mov [esp],eax
0000159A  E851F2FFFF        call 0x1000007f0
0000159F  83C414            add esp,byte +0x14
000015A2  5B                pop ebx
000015A3  5D                pop ebp
000015A4  C3                ret
000015A5  90                nop
000015A6  55                push ebp
000015A7  89E5              mov ebp,esp
000015A9  8B4508            mov eax,[ebp+0x8]
000015AC  5D                pop ebp
000015AD  C3                ret
000015AE  55                push ebp
000015AF  89E5              mov ebp,esp
000015B1  83EC18            sub esp,byte +0x18
000015B4  8B450C            mov eax,[ebp+0xc]
000015B7  89442404          mov [esp+0x4],eax
000015BB  8B4508            mov eax,[ebp+0x8]
000015BE  890424            mov [esp],eax
000015C1  E8B3090000        call 0x1f79
000015C6  C9                leave
000015C7  C3                ret
000015C8  55                push ebp
000015C9  89E5              mov ebp,esp
000015CB  5D                pop ebp
000015CC  C3                ret
000015CD  90                nop
000015CE  55                push ebp
000015CF  89E5              mov ebp,esp
000015D1  5D                pop ebp
000015D2  C3                ret
000015D3  90                nop
000015D4  55                push ebp
000015D5  89E5              mov ebp,esp
000015D7  83EC18            sub esp,byte +0x18
000015DA  8B4508            mov eax,[ebp+0x8]
000015DD  890424            mov [esp],eax
000015E0  E82FFAFFFF        call 0x100001014
000015E5  C9                leave
000015E6  C3                ret
000015E7  90                nop
000015E8  55                push ebp
000015E9  89E5              mov ebp,esp
000015EB  53                push ebx
000015EC  83EC14            sub esp,byte +0x14
000015EF  8B4508            mov eax,[ebp+0x8]
000015F2  8B5510            mov edx,[ebp+0x10]
000015F5  89542404          mov [esp+0x4],edx
000015F9  890424            mov [esp],eax
000015FC  E893090000        call 0x1f94
00001601  8B450C            mov eax,[ebp+0xc]
00001604  89442404          mov [esp+0x4],eax
00001608  8B4508            mov eax,[ebp+0x8]
0000160B  890424            mov [esp],eax
0000160E  E8B9090000        call 0x1fcc
00001613  EB17              jmp short 0x162c
00001615  89C3              mov ebx,eax
00001617  8B4508            mov eax,[ebp+0x8]
0000161A  890424            mov [esp],eax
0000161D  E8B2FFFFFF        call 0x1000015d4
00001622  89D8              mov eax,ebx
00001624  890424            mov [esp],eax
00001627  E8C4F1FFFF        call 0x1000007f0
0000162C  83C414            add esp,byte +0x14
0000162F  5B                pop ebx
00001630  5D                pop ebp
00001631  C3                ret
00001632  55                push ebp
00001633  89E5              mov ebp,esp
00001635  53                push ebx
00001636  83EC14            sub esp,byte +0x14
00001639  8B4508            mov eax,[ebp+0x8]
0000163C  8B4008            mov eax,[eax+0x8]
0000163F  89C2              mov edx,eax
00001641  8B4508            mov eax,[ebp+0x8]
00001644  8B00              mov eax,[eax]
00001646  29C2              sub edx,eax
00001648  89D0              mov eax,edx
0000164A  C1F802            sar eax,0x2
0000164D  89C2              mov edx,eax
0000164F  89D0              mov eax,edx
00001651  C1E002            shl eax,0x2
00001654  01D0              add eax,edx
00001656  89C1              mov ecx,eax
00001658  C1E104            shl ecx,0x4
0000165B  01C8              add eax,ecx
0000165D  89C1              mov ecx,eax
0000165F  C1E108            shl ecx,0x8
00001662  01C8              add eax,ecx
00001664  89C1              mov ecx,eax
00001666  C1E110            shl ecx,0x10
00001669  01C8              add eax,ecx
0000166B  01C0              add eax,eax
0000166D  01D0              add eax,edx
0000166F  89C2              mov edx,eax
00001671  8B4508            mov eax,[ebp+0x8]
00001674  8B00              mov eax,[eax]
00001676  89542408          mov [esp+0x8],edx
0000167A  89442404          mov [esp+0x4],eax
0000167E  8B4508            mov eax,[ebp+0x8]
00001681  890424            mov [esp],eax
00001684  E887090000        call 0x2010
00001689  8B4508            mov eax,[ebp+0x8]
0000168C  890424            mov [esp],eax
0000168F  E840FFFFFF        call 0x1000015d4
00001694  EB17              jmp short 0x16ad
00001696  89C3              mov ebx,eax
00001698  8B4508            mov eax,[ebp+0x8]
0000169B  890424            mov [esp],eax
0000169E  E831FFFFFF        call 0x1000015d4
000016A3  89D8              mov eax,ebx
000016A5  890424            mov [esp],eax
000016A8  E843F1FFFF        call 0x1000007f0
000016AD  83C414            add esp,byte +0x14
000016B0  5B                pop ebx
000016B1  5D                pop ebp
000016B2  C3                ret
000016B3  90                nop
000016B4  55                push ebp
000016B5  89E5              mov ebp,esp
000016B7  83EC18            sub esp,byte +0x18
000016BA  8B4508            mov eax,[ebp+0x8]
000016BD  890424            mov [esp],eax
000016C0  E82D000000        call 0x16f2
000016C5  8B5508            mov edx,[ebp+0x8]
000016C8  8B12              mov edx,[edx]
000016CA  8944240C          mov [esp+0xc],eax
000016CE  8B4510            mov eax,[ebp+0x10]
000016D1  89442408          mov [esp+0x8],eax
000016D5  8B450C            mov eax,[ebp+0xc]
000016D8  89442404          mov [esp+0x4],eax
000016DC  891424            mov [esp],edx
000016DF  E853090000        call 0x2037
000016E4  8B4508            mov eax,[ebp+0x8]
000016E7  8B5008            mov edx,[eax+0x8]
000016EA  8B4508            mov eax,[ebp+0x8]
000016ED  895004            mov [eax+0x4],edx
000016F0  C9                leave
000016F1  C3                ret
000016F2  55                push ebp
000016F3  89E5              mov ebp,esp
000016F5  8B4508            mov eax,[ebp+0x8]
000016F8  5D                pop ebp
000016F9  C3                ret
000016FA  55                push ebp
000016FB  89E5              mov ebp,esp
000016FD  83EC18            sub esp,byte +0x18
00001700  8B450C            mov eax,[ebp+0xc]
00001703  89442404          mov [esp+0x4],eax
00001707  8B4508            mov eax,[ebp+0x8]
0000170A  890424            mov [esp],eax
0000170D  E846090000        call 0x2058
00001712  C9                leave
00001713  C3                ret
00001714  55                push ebp
00001715  89E5              mov ebp,esp
00001717  83EC28            sub esp,byte +0x28
0000171A  8B450C            mov eax,[ebp+0xc]
0000171D  8B4004            mov eax,[eax+0x4]
00001720  8945F4            mov [ebp-0xc],eax
00001723  8D45F4            lea eax,[ebp-0xc]
00001726  89442404          mov [esp+0x4],eax
0000172A  8B4508            mov eax,[ebp+0x8]
0000172D  890424            mov [esp],eax
00001730  E83D090000        call 0x2072
00001735  8B4508            mov eax,[ebp+0x8]
00001738  C9                leave
00001739  C20400            ret 0x4
0000173C  55                push ebp
0000173D  89E5              mov ebp,esp
0000173F  83EC28            sub esp,byte +0x28
00001742  8B450C            mov eax,[ebp+0xc]
00001745  8B00              mov eax,[eax]
00001747  8945F4            mov [ebp-0xc],eax
0000174A  8D45F4            lea eax,[ebp-0xc]
0000174D  89442404          mov [esp+0x4],eax
00001751  8B4508            mov eax,[ebp+0x8]
00001754  890424            mov [esp],eax
00001757  E816090000        call 0x2072
0000175C  8B4508            mov eax,[ebp+0x8]
0000175F  C9                leave
00001760  C20400            ret 0x4
00001763  55                push ebp
00001764  89E5              mov ebp,esp
00001766  53                push ebx
00001767  83EC14            sub esp,byte +0x14
0000176A  8B4508            mov eax,[ebp+0x8]
0000176D  890424            mov [esp],eax
00001770  E80D090000        call 0x2082
00001775  8B18              mov ebx,[eax]
00001777  8B450C            mov eax,[ebp+0xc]
0000177A  890424            mov [esp],eax
0000177D  E800090000        call 0x2082
00001782  8B00              mov eax,[eax]
00001784  39C3              cmp ebx,eax
00001786  0F94C0            setz al
00001789  83C414            add esp,byte +0x14
0000178C  5B                pop ebx
0000178D  5D                pop ebp
0000178E  C3                ret
0000178F  90                nop
00001790  55                push ebp
00001791  89E5              mov ebp,esp
00001793  83EC18            sub esp,byte +0x18
00001796  8B450C            mov eax,[ebp+0xc]
00001799  83C004            add eax,byte +0x4
0000179C  89442404          mov [esp+0x4],eax
000017A0  8B4508            mov eax,[ebp+0x8]
000017A3  890424            mov [esp],eax
000017A6  E8DF080000        call 0x208a
000017AB  8B4508            mov eax,[ebp+0x8]
000017AE  C9                leave
000017AF  C20400            ret 0x4
000017B2  55                push ebp
000017B3  89E5              mov ebp,esp
000017B5  83EC28            sub esp,byte +0x28
000017B8  8B450C            mov eax,[ebp+0xc]
000017BB  8B10              mov edx,[eax]
000017BD  8B4510            mov eax,[ebp+0x10]
000017C0  8B00              mov eax,[eax]
000017C2  C1E003            shl eax,0x3
000017C5  F7D8              neg eax
000017C7  01D0              add eax,edx
000017C9  8945F4            mov [ebp-0xc],eax
000017CC  8D45F4            lea eax,[ebp-0xc]
000017CF  89442404          mov [esp+0x4],eax
000017D3  8B4508            mov eax,[ebp+0x8]
000017D6  890424            mov [esp],eax
000017D9  E8AC080000        call 0x208a
000017DE  8B4508            mov eax,[ebp+0x8]
000017E1  C9                leave
000017E2  C20400            ret 0x4
000017E5  90                nop
000017E6  55                push ebp
000017E7  89E5              mov ebp,esp
000017E9  8B4508            mov eax,[ebp+0x8]
000017EC  8B00              mov eax,[eax]
000017EE  5D                pop ebp
000017EF  C3                ret
000017F0  55                push ebp
000017F1  89E5              mov ebp,esp
000017F3  8B450C            mov eax,[ebp+0xc]
000017F6  8A10              mov dl,[eax]
000017F8  8B4508            mov eax,[ebp+0x8]
000017FB  8810              mov [eax],dl
000017FD  8B4510            mov eax,[ebp+0x10]
00001800  8B10              mov edx,[eax]
00001802  8B4508            mov eax,[ebp+0x8]
00001805  895004            mov [eax+0x4],edx
00001808  5D                pop ebp
00001809  C3                ret
0000180A  55                push ebp
0000180B  89E5              mov ebp,esp
0000180D  83EC18            sub esp,byte +0x18
00001810  8B4510            mov eax,[ebp+0x10]
00001813  89442408          mov [esp+0x8],eax
00001817  8B450C            mov eax,[ebp+0xc]
0000181A  89442404          mov [esp+0x4],eax
0000181E  8B4508            mov eax,[ebp+0x8]
00001821  890424            mov [esp],eax
00001824  E871080000        call 0x209a
00001829  C9                leave
0000182A  C3                ret
0000182B  90                nop
0000182C  55                push ebp
0000182D  89E5              mov ebp,esp
0000182F  56                push esi
00001830  53                push ebx
00001831  83EC30            sub esp,byte +0x30
00001834  8B4508            mov eax,[ebp+0x8]
00001837  8B5004            mov edx,[eax+0x4]
0000183A  8B4508            mov eax,[ebp+0x8]
0000183D  8B4008            mov eax,[eax+0x8]
00001840  39C2              cmp edx,eax
00001842  0F848B000000      jz near 0x18d3
00001848  8B4508            mov eax,[ebp+0x8]
0000184B  8B4004            mov eax,[eax+0x4]
0000184E  8D48F8            lea ecx,[eax-0x8]
00001851  8B4508            mov eax,[ebp+0x8]
00001854  8B5004            mov edx,[eax+0x4]
00001857  8B4508            mov eax,[ebp+0x8]
0000185A  894C2408          mov [esp+0x8],ecx
0000185E  89542404          mov [esp+0x4],edx
00001862  890424            mov [esp],eax
00001865  E8A0FFFFFF        call 0x10000180a
0000186A  8B4508            mov eax,[ebp+0x8]
0000186D  8B4004            mov eax,[eax+0x4]
00001870  8D5008            lea edx,[eax+0x8]
00001873  8B4508            mov eax,[ebp+0x8]
00001876  895004            mov [eax+0x4],edx
00001879  8B4510            mov eax,[ebp+0x10]
0000187C  8B5004            mov edx,[eax+0x4]
0000187F  8B00              mov eax,[eax]
00001881  8945DC            mov [ebp-0x24],eax
00001884  8955E0            mov [ebp-0x20],edx
00001887  8B4508            mov eax,[ebp+0x8]
0000188A  8B4004            mov eax,[eax+0x4]
0000188D  8D70F8            lea esi,[eax-0x8]
00001890  8B4508            mov eax,[ebp+0x8]
00001893  8B4004            mov eax,[eax+0x4]
00001896  8D58F0            lea ebx,[eax-0x10]
00001899  8D450C            lea eax,[ebp+0xc]
0000189C  890424            mov [esp],eax
0000189F  E824080000        call 0x20c8
000018A4  8B00              mov eax,[eax]
000018A6  89742408          mov [esp+0x8],esi
000018AA  895C2404          mov [esp+0x4],ebx
000018AE  890424            mov [esp],eax
000018B1  E81A080000        call 0x20d0
000018B6  8D450C            lea eax,[ebp+0xc]
000018B9  890424            mov [esp],eax
000018BC  E825FFFFFF        call 0x1000017e6
000018C1  89C1              mov ecx,eax
000018C3  8B45DC            mov eax,[ebp-0x24]
000018C6  8B55E0            mov edx,[ebp-0x20]
000018C9  8901              mov [ecx],eax
000018CB  895104            mov [ecx+0x4],edx
000018CE  E90C020000        jmp 0x1adf
000018D3  C74424084BBE0408  mov dword [esp+0x8],0x804be4b
000018DB  C744240401000000  mov dword [esp+0x4],0x1
000018E3  8B4508            mov eax,[ebp+0x8]
000018E6  890424            mov [esp],eax
000018E9  E81A080000        call 0x2108
000018EE  8945F0            mov [ebp-0x10],eax
000018F1  8D45E4            lea eax,[ebp-0x1c]
000018F4  8B5508            mov edx,[ebp+0x8]
000018F7  89542404          mov [esp+0x4],edx
000018FB  890424            mov [esp],eax
000018FE  E8A9080000        call 0x21ac
00001903  83EC04            sub esp,byte +0x4
00001906  8D45E4            lea eax,[ebp-0x1c]
00001909  89442404          mov [esp+0x4],eax
0000190D  8D450C            lea eax,[ebp+0xc]
00001910  890424            mov [esp],eax
00001913  E8B3080000        call 0x21cb
00001918  8945EC            mov [ebp-0x14],eax
0000191B  8B4508            mov eax,[ebp+0x8]
0000191E  8B55F0            mov edx,[ebp-0x10]
00001921  89542404          mov [esp+0x4],edx
00001925  890424            mov [esp],eax
00001928  E8CF080000        call 0x21fc
0000192D  8945E8            mov [ebp-0x18],eax
00001930  8B45E8            mov eax,[ebp-0x18]
00001933  8945F4            mov [ebp-0xc],eax
00001936  8B45EC            mov eax,[ebp-0x14]
00001939  8D14C500000000    lea edx,[eax*8+0x0]
00001940  8B45E8            mov eax,[ebp-0x18]
00001943  8D0C02            lea ecx,[edx+eax]
00001946  8B4508            mov eax,[ebp+0x8]
00001949  8B5510            mov edx,[ebp+0x10]
0000194C  89542408          mov [esp+0x8],edx
00001950  894C2404          mov [esp+0x4],ecx
00001954  890424            mov [esp],eax
00001957  E8AEFEFFFF        call 0x10000180a
0000195C  C745F400000000    mov dword [ebp-0xc],0x0
00001963  8B4508            mov eax,[ebp+0x8]
00001966  890424            mov [esp],eax
00001969  E838FCFFFF        call 0x1000015a6
0000196E  89C3              mov ebx,eax
00001970  8D450C            lea eax,[ebp+0xc]
00001973  890424            mov [esp],eax
00001976  E84D070000        call 0x20c8
0000197B  8B10              mov edx,[eax]
0000197D  8B4508            mov eax,[ebp+0x8]
00001980  8B00              mov eax,[eax]
00001982  895C240C          mov [esp+0xc],ebx
00001986  8B4DE8            mov ecx,[ebp-0x18]
00001989  894C2408          mov [esp+0x8],ecx
0000198D  89542404          mov [esp+0x4],edx
00001991  890424            mov [esp],eax
00001994  E892080000        call 0x222b
00001999  8945F4            mov [ebp-0xc],eax
0000199C  8345F408          add dword [ebp-0xc],byte +0x8
000019A0  8B4508            mov eax,[ebp+0x8]
000019A3  890424            mov [esp],eax
000019A6  E8FBFBFFFF        call 0x1000015a6
000019AB  89C3              mov ebx,eax
000019AD  8B4508            mov eax,[ebp+0x8]
000019B0  8B7004            mov esi,[eax+0x4]
000019B3  8D450C            lea eax,[ebp+0xc]
000019B6  890424            mov [esp],eax
000019B9  E80A070000        call 0x20c8
000019BE  8B00              mov eax,[eax]
000019C0  895C240C          mov [esp+0xc],ebx
000019C4  8B55F4            mov edx,[ebp-0xc]
000019C7  89542408          mov [esp+0x8],edx
000019CB  89742404          mov [esp+0x4],esi
000019CF  890424            mov [esp],eax
000019D2  E854080000        call 0x222b
000019D7  8945F4            mov [ebp-0xc],eax
000019DA  8B4508            mov eax,[ebp+0x8]
000019DD  890424            mov [esp],eax
000019E0  E8C1FBFFFF        call 0x1000015a6
000019E5  8B5508            mov edx,[ebp+0x8]
000019E8  8B4A04            mov ecx,[edx+0x4]
000019EB  8B5508            mov edx,[ebp+0x8]
000019EE  8B12              mov edx,[edx]
000019F0  89442408          mov [esp+0x8],eax
000019F4  894C2404          mov [esp+0x4],ecx
000019F8  891424            mov [esp],edx
000019FB  E8AEFBFFFF        call 0x1000015ae
00001A00  8B4508            mov eax,[ebp+0x8]
00001A03  8B4008            mov eax,[eax+0x8]
00001A06  89C2              mov edx,eax
00001A08  8B4508            mov eax,[ebp+0x8]
00001A0B  8B00              mov eax,[eax]
00001A0D  29C2              sub edx,eax
00001A0F  89D0              mov eax,edx
00001A11  C1F803            sar eax,0x3
00001A14  89C1              mov ecx,eax
00001A16  8B4508            mov eax,[ebp+0x8]
00001A19  8B10              mov edx,[eax]
00001A1B  8B4508            mov eax,[ebp+0x8]
00001A1E  894C2408          mov [esp+0x8],ecx
00001A22  89542404          mov [esp+0x4],edx
00001A26  890424            mov [esp],eax
00001A29  E824050000        call 0x1f52
00001A2E  8B4508            mov eax,[ebp+0x8]
00001A31  8B55E8            mov edx,[ebp-0x18]
00001A34  8910              mov [eax],edx
00001A36  8B4508            mov eax,[ebp+0x8]
00001A39  8B55F4            mov edx,[ebp-0xc]
00001A3C  895004            mov [eax+0x4],edx
00001A3F  8B45F0            mov eax,[ebp-0x10]
00001A42  8D14C500000000    lea edx,[eax*8+0x0]
00001A49  8B45E8            mov eax,[ebp-0x18]
00001A4C  01C2              add edx,eax
00001A4E  8B4508            mov eax,[ebp+0x8]
00001A51  895008            mov [eax+0x8],edx
00001A54  E986000000        jmp 0x1adf
00001A59  890424            mov [esp],eax
00001A5C  E88FEDFFFF        call 0x1000007f0
00001A61  89C3              mov ebx,eax
00001A63  E848EDFFFF        call 0x1000007b0
00001A68  89D8              mov eax,ebx
00001A6A  890424            mov [esp],eax
00001A6D  E87EEDFFFF        call 0x1000007f0
00001A72  890424            mov [esp],eax
00001A75  E856EDFFFF        call 0x1000007d0
00001A7A  837DF400          cmp dword [ebp-0xc],byte +0x0
00001A7E  7520              jnz 0x1aa0
00001A80  8B45EC            mov eax,[ebp-0x14]
00001A83  8D14C500000000    lea edx,[eax*8+0x0]
00001A8A  8B45E8            mov eax,[ebp-0x18]
00001A8D  01C2              add edx,eax
00001A8F  8B4508            mov eax,[ebp+0x8]
00001A92  89542404          mov [esp+0x4],edx
00001A96  890424            mov [esp],eax
00001A99  E8B5070000        call 0x2253
00001A9E  EB21              jmp short 0x1ac1
00001AA0  8B4508            mov eax,[ebp+0x8]
00001AA3  890424            mov [esp],eax
00001AA6  E8FBFAFFFF        call 0x1000015a6
00001AAB  89442408          mov [esp+0x8],eax
00001AAF  8B45F4            mov eax,[ebp-0xc]
00001AB2  89442404          mov [esp+0x4],eax
00001AB6  8B45E8            mov eax,[ebp-0x18]
00001AB9  890424            mov [esp],eax
00001ABC  E8EDFAFFFF        call 0x1000015ae
00001AC1  8B4508            mov eax,[ebp+0x8]
00001AC4  8B55F0            mov edx,[ebp-0x10]
00001AC7  89542408          mov [esp+0x8],edx
00001ACB  8B55E8            mov edx,[ebp-0x18]
00001ACE  89542404          mov [esp+0x4],edx
00001AD2  890424            mov [esp],eax
00001AD5  E878040000        call 0x1f52
00001ADA  E841ECFFFF        call 0x100000720
00001ADF  8D65F8            lea esp,[ebp-0x8]
00001AE2  5B                pop ebx
00001AE3  5E                pop esi
00001AE4  5D                pop ebp
00001AE5  C3                ret
00001AE6  55                push ebp
00001AE7  89E5              mov ebp,esp
00001AE9  5D                pop ebp
00001AEA  C3                ret
00001AEB  90                nop
00001AEC  55                push ebp
00001AED  89E5              mov ebp,esp
00001AEF  5D                pop ebp
00001AF0  C3                ret
00001AF1  90                nop
00001AF2  55                push ebp
00001AF3  89E5              mov ebp,esp
00001AF5  83EC18            sub esp,byte +0x18
00001AF8  8B4508            mov eax,[ebp+0x8]
00001AFB  890424            mov [esp],eax
00001AFE  E863F7FFFF        call 0x100001266
00001B03  C9                leave
00001B04  C3                ret
00001B05  90                nop
00001B06  55                push ebp
00001B07  89E5              mov ebp,esp
00001B09  53                push ebx
00001B0A  83EC14            sub esp,byte +0x14
00001B0D  8B4508            mov eax,[ebp+0x8]
00001B10  8B5510            mov edx,[ebp+0x10]
00001B13  89542404          mov [esp+0x4],edx
00001B17  890424            mov [esp],eax
00001B1A  E84F070000        call 0x226e
00001B1F  8B450C            mov eax,[ebp+0xc]
00001B22  89442404          mov [esp+0x4],eax
00001B26  8B4508            mov eax,[ebp+0x8]
00001B29  890424            mov [esp],eax
00001B2C  E875070000        call 0x22a6
00001B31  EB17              jmp short 0x1b4a
00001B33  89C3              mov ebx,eax
00001B35  8B4508            mov eax,[ebp+0x8]
00001B38  890424            mov [esp],eax
00001B3B  E8B2FFFFFF        call 0x100001af2
00001B40  89D8              mov eax,ebx
00001B42  890424            mov [esp],eax
00001B45  E8A6ECFFFF        call 0x1000007f0
00001B4A  83C414            add esp,byte +0x14
00001B4D  5B                pop ebx
00001B4E  5D                pop ebp
00001B4F  C3                ret
00001B50  55                push ebp
00001B51  89E5              mov ebp,esp
00001B53  53                push ebx
00001B54  83EC14            sub esp,byte +0x14
00001B57  8B4508            mov eax,[ebp+0x8]
00001B5A  8B4008            mov eax,[eax+0x8]
00001B5D  89C2              mov edx,eax
00001B5F  8B4508            mov eax,[ebp+0x8]
00001B62  8B00              mov eax,[eax]
00001B64  29C2              sub edx,eax
00001B66  89D0              mov eax,edx
00001B68  C1F802            sar eax,0x2
00001B6B  89C2              mov edx,eax
00001B6D  8B4508            mov eax,[ebp+0x8]
00001B70  8B00              mov eax,[eax]
00001B72  89542408          mov [esp+0x8],edx
00001B76  89442404          mov [esp+0x4],eax
00001B7A  8B4508            mov eax,[ebp+0x8]
00001B7D  890424            mov [esp],eax
00001B80  E85F070000        call 0x22e4
00001B85  8B4508            mov eax,[ebp+0x8]
00001B88  890424            mov [esp],eax
00001B8B  E862FFFFFF        call 0x100001af2
00001B90  EB17              jmp short 0x1ba9
00001B92  89C3              mov ebx,eax
00001B94  8B4508            mov eax,[ebp+0x8]
00001B97  890424            mov [esp],eax
00001B9A  E853FFFFFF        call 0x100001af2
00001B9F  89D8              mov eax,ebx
00001BA1  890424            mov [esp],eax
00001BA4  E847ECFFFF        call 0x1000007f0
00001BA9  83C414            add esp,byte +0x14
00001BAC  5B                pop ebx
00001BAD  5D                pop ebp
00001BAE  C3                ret
00001BAF  90                nop
00001BB0  55                push ebp
00001BB1  89E5              mov ebp,esp
00001BB3  83EC18            sub esp,byte +0x18
00001BB6  8B4508            mov eax,[ebp+0x8]
00001BB9  890424            mov [esp],eax
00001BBC  E82D000000        call 0x1bee
00001BC1  8B5508            mov edx,[ebp+0x8]
00001BC4  8B12              mov edx,[edx]
00001BC6  8944240C          mov [esp+0xc],eax
00001BCA  8B4510            mov eax,[ebp+0x10]
00001BCD  89442408          mov [esp+0x8],eax
00001BD1  8B450C            mov eax,[ebp+0xc]
00001BD4  89442404          mov [esp+0x4],eax
00001BD8  891424            mov [esp],edx
00001BDB  E82B070000        call 0x230b
00001BE0  8B4508            mov eax,[ebp+0x8]
00001BE3  8B5008            mov edx,[eax+0x8]
00001BE6  8B4508            mov eax,[ebp+0x8]
00001BE9  895004            mov [eax+0x4],edx
00001BEC  C9                leave
00001BED  C3                ret
00001BEE  55                push ebp
00001BEF  89E5              mov ebp,esp
00001BF1  8B4508            mov eax,[ebp+0x8]
00001BF4  5D                pop ebp
00001BF5  C3                ret
00001BF6  55                push ebp
00001BF7  89E5              mov ebp,esp
00001BF9  83EC18            sub esp,byte +0x18
00001BFC  8B450C            mov eax,[ebp+0xc]
00001BFF  89442404          mov [esp+0x4],eax
00001C03  8B4508            mov eax,[ebp+0x8]
00001C06  890424            mov [esp],eax
00001C09  E81E070000        call 0x232c
00001C0E  C9                leave
00001C0F  C3                ret
00001C10  55                push ebp
00001C11  89E5              mov ebp,esp
00001C13  5D                pop ebp
00001C14  C3                ret
00001C15  90                nop
00001C16  55                push ebp
00001C17  89E5              mov ebp,esp
00001C19  5D                pop ebp
00001C1A  C3                ret
00001C1B  90                nop
00001C1C  55                push ebp
00001C1D  89E5              mov ebp,esp
00001C1F  83EC18            sub esp,byte +0x18
00001C22  8B4508            mov eax,[ebp+0x8]
00001C25  890424            mov [esp],eax
00001C28  E811F7FFFF        call 0x10000133e
00001C2D  C9                leave
00001C2E  C3                ret
00001C2F  90                nop
00001C30  55                push ebp
00001C31  89E5              mov ebp,esp
00001C33  53                push ebx
00001C34  83EC14            sub esp,byte +0x14
00001C37  8B4508            mov eax,[ebp+0x8]
00001C3A  8B5510            mov edx,[ebp+0x10]
00001C3D  89542404          mov [esp+0x4],edx
00001C41  890424            mov [esp],eax
00001C44  E8FD060000        call 0x2346
00001C49  8B450C            mov eax,[ebp+0xc]
00001C4C  89442404          mov [esp+0x4],eax
00001C50  8B4508            mov eax,[ebp+0x8]
00001C53  890424            mov [esp],eax
00001C56  E823070000        call 0x237e
00001C5B  EB17              jmp short 0x1c74
00001C5D  89C3              mov ebx,eax
00001C5F  8B4508            mov eax,[ebp+0x8]
00001C62  890424            mov [esp],eax
00001C65  E8B2FFFFFF        call 0x100001c1c
00001C6A  89D8              mov eax,ebx
00001C6C  890424            mov [esp],eax
00001C6F  E87CEBFFFF        call 0x1000007f0
00001C74  83C414            add esp,byte +0x14
00001C77  5B                pop ebx
00001C78  5D                pop ebp
00001C79  C3                ret
00001C7A  55                push ebp
00001C7B  89E5              mov ebp,esp
00001C7D  53                push ebx
00001C7E  83EC14            sub esp,byte +0x14
00001C81  8B4508            mov eax,[ebp+0x8]
00001C84  8B4008            mov eax,[eax+0x8]
00001C87  89C2              mov edx,eax
00001C89  8B4508            mov eax,[ebp+0x8]
00001C8C  8B00              mov eax,[eax]
00001C8E  29C2              sub edx,eax
00001C90  89D0              mov eax,edx
00001C92  C1F802            sar eax,0x2
00001C95  89C2              mov edx,eax
00001C97  89D0              mov eax,edx
00001C99  C1E002            shl eax,0x2
00001C9C  01D0              add eax,edx
00001C9E  89C1              mov ecx,eax
00001CA0  C1E104            shl ecx,0x4
00001CA3  01C8              add eax,ecx
00001CA5  89C1              mov ecx,eax
00001CA7  C1E108            shl ecx,0x8
00001CAA  01C8              add eax,ecx
00001CAC  89C1              mov ecx,eax
00001CAE  C1E110            shl ecx,0x10
00001CB1  01C8              add eax,ecx
00001CB3  01C0              add eax,eax
00001CB5  01D0              add eax,edx
00001CB7  89C2              mov edx,eax
00001CB9  8B4508            mov eax,[ebp+0x8]
00001CBC  8B00              mov eax,[eax]
00001CBE  89542408          mov [esp+0x8],edx
00001CC2  89442404          mov [esp+0x4],eax
00001CC6  8B4508            mov eax,[ebp+0x8]
00001CC9  890424            mov [esp],eax
00001CCC  E8F1060000        call 0x23c2
00001CD1  8B4508            mov eax,[ebp+0x8]
00001CD4  890424            mov [esp],eax
00001CD7  E840FFFFFF        call 0x100001c1c
00001CDC  EB17              jmp short 0x1cf5
00001CDE  89C3              mov ebx,eax
00001CE0  8B4508            mov eax,[ebp+0x8]
00001CE3  890424            mov [esp],eax
00001CE6  E831FFFFFF        call 0x100001c1c
00001CEB  89D8              mov eax,ebx
00001CED  890424            mov [esp],eax
00001CF0  E8FBEAFFFF        call 0x1000007f0
00001CF5  83C414            add esp,byte +0x14
00001CF8  5B                pop ebx
00001CF9  5D                pop ebp
00001CFA  C3                ret
00001CFB  90                nop
00001CFC  55                push ebp
00001CFD  89E5              mov ebp,esp
00001CFF  83EC18            sub esp,byte +0x18
00001D02  8B4508            mov eax,[ebp+0x8]
00001D05  890424            mov [esp],eax
00001D08  E82D000000        call 0x1d3a
00001D0D  8B5508            mov edx,[ebp+0x8]
00001D10  8B12              mov edx,[edx]
00001D12  8944240C          mov [esp+0xc],eax
00001D16  8B4510            mov eax,[ebp+0x10]
00001D19  89442408          mov [esp+0x8],eax
00001D1D  8B450C            mov eax,[ebp+0xc]
00001D20  89442404          mov [esp+0x4],eax
00001D24  891424            mov [esp],edx
00001D27  E8BD060000        call 0x23e9
00001D2C  8B4508            mov eax,[ebp+0x8]
00001D2F  8B5008            mov edx,[eax+0x8]
00001D32  8B4508            mov eax,[ebp+0x8]
00001D35  895004            mov [eax+0x4],edx
00001D38  C9                leave
00001D39  C3                ret
00001D3A  55                push ebp
00001D3B  89E5              mov ebp,esp
00001D3D  8B4508            mov eax,[ebp+0x8]
00001D40  5D                pop ebp
00001D41  C3                ret
00001D42  55                push ebp
00001D43  89E5              mov ebp,esp
00001D45  83EC18            sub esp,byte +0x18
00001D48  8B450C            mov eax,[ebp+0xc]
00001D4B  89442404          mov [esp+0x4],eax
00001D4F  8B4508            mov eax,[ebp+0x8]
00001D52  890424            mov [esp],eax
00001D55  E8B0060000        call 0x240a
00001D5A  C9                leave
00001D5B  C3                ret
00001D5C  55                push ebp
00001D5D  89E5              mov ebp,esp
00001D5F  8B450C            mov eax,[ebp+0xc]
00001D62  8B10              mov edx,[eax]
00001D64  8B4508            mov eax,[ebp+0x8]
00001D67  8910              mov [eax],edx
00001D69  5D                pop ebp
00001D6A  C3                ret
00001D6B  55                push ebp
00001D6C  89E5              mov ebp,esp
00001D6E  53                push ebx
00001D6F  83EC14            sub esp,byte +0x14
00001D72  8B4508            mov eax,[ebp+0x8]
00001D75  890424            mov [esp],eax
00001D78  E8A7060000        call 0x2424
00001D7D  8B18              mov ebx,[eax]
00001D7F  8B450C            mov eax,[ebp+0xc]
00001D82  890424            mov [esp],eax
00001D85  E89A060000        call 0x2424
00001D8A  8B00              mov eax,[eax]
00001D8C  39C3              cmp ebx,eax
00001D8E  0F95C0            setnz al
00001D91  83C414            add esp,byte +0x14
00001D94  5B                pop ebx
00001D95  5D                pop ebp
00001D96  C3                ret
00001D97  55                push ebp
00001D98  89E5              mov ebp,esp
00001D9A  53                push ebx
00001D9B  83EC14            sub esp,byte +0x14
00001D9E  8B4508            mov eax,[ebp+0x8]
00001DA1  890424            mov [esp],eax
00001DA4  E87B060000        call 0x2424
00001DA9  8B00              mov eax,[eax]
00001DAB  89C3              mov ebx,eax
00001DAD  8B450C            mov eax,[ebp+0xc]
00001DB0  890424            mov [esp],eax
00001DB3  E86C060000        call 0x2424
00001DB8  8B00              mov eax,[eax]
00001DBA  29C3              sub ebx,eax
00001DBC  89D8              mov eax,ebx
00001DBE  C1F802            sar eax,0x2
00001DC1  83C414            add esp,byte +0x14
00001DC4  5B                pop ebx
00001DC5  5D                pop ebp
00001DC6  C3                ret
00001DC7  55                push ebp
00001DC8  89E5              mov ebp,esp
00001DCA  83EC28            sub esp,byte +0x28
00001DCD  EB5F              jmp short 0x1e2e
00001DCF  837D1000          cmp dword [ebp+0x10],byte +0x0
00001DD3  751B              jnz 0x1df0
00001DD5  8B450C            mov eax,[ebp+0xc]
00001DD8  89442408          mov [esp+0x8],eax
00001DDC  8B450C            mov eax,[ebp+0xc]
00001DDF  89442404          mov [esp+0x4],eax
00001DE3  8B4508            mov eax,[ebp+0x8]
00001DE6  890424            mov [esp],eax
00001DE9  E83E060000        call 0x242c
00001DEE  EB64              jmp short 0x1e54
00001DF0  FF4D10            dec dword [ebp+0x10]
00001DF3  8D45F4            lea eax,[ebp-0xc]
00001DF6  8B550C            mov edx,[ebp+0xc]
00001DF9  89542408          mov [esp+0x8],edx
00001DFD  8B5508            mov edx,[ebp+0x8]
00001E00  89542404          mov [esp+0x4],edx
00001E04  890424            mov [esp],eax
00001E07  E853060000        call 0x245f
00001E0C  83EC04            sub esp,byte +0x4
00001E0F  8B4510            mov eax,[ebp+0x10]
00001E12  89442408          mov [esp+0x8],eax
00001E16  8B450C            mov eax,[ebp+0xc]
00001E19  89442404          mov [esp+0x4],eax
00001E1D  8B45F4            mov eax,[ebp-0xc]
00001E20  890424            mov [esp],eax
00001E23  E89FFFFFFF        call 0x100001dc7
00001E28  8B45F4            mov eax,[ebp-0xc]
00001E2B  89450C            mov [ebp+0xc],eax
00001E2E  8D4508            lea eax,[ebp+0x8]
00001E31  89442404          mov [esp+0x4],eax
00001E35  8D450C            lea eax,[ebp+0xc]
00001E38  890424            mov [esp],eax
00001E3B  E857FFFFFF        call 0x100001d97
00001E40  83F810            cmp eax,byte +0x10
00001E43  0F9FC0            setg al
00001E46  84C0              test al,al
00001E48  7585              jnz 0x1dcf
00001E4A  EB08              jmp short 0x1e54
00001E4C  890424            mov [esp],eax
00001E4F  E89CE9FFFF        call 0x1000007f0
00001E54  C9                leave
00001E55  C3                ret
00001E56  55                push ebp
00001E57  89E5              mov ebp,esp
00001E59  53                push ebx
00001E5A  83EC24            sub esp,byte +0x24
00001E5D  8D4508            lea eax,[ebp+0x8]
00001E60  89442404          mov [esp+0x4],eax
00001E64  8D450C            lea eax,[ebp+0xc]
00001E67  890424            mov [esp],eax
00001E6A  E828FFFFFF        call 0x100001d97
00001E6F  83F810            cmp eax,byte +0x10
00001E72  0F9FC0            setg al
00001E75  84C0              test al,al
00001E77  746C              jz 0x1ee5
00001E79  C745E810000000    mov dword [ebp-0x18],0x10
00001E80  8D45EC            lea eax,[ebp-0x14]
00001E83  8D55E8            lea edx,[ebp-0x18]
00001E86  89542408          mov [esp+0x8],edx
00001E8A  8D4D08            lea ecx,[ebp+0x8]
00001E8D  894C2404          mov [esp+0x4],ecx
00001E91  890424            mov [esp],eax
00001E94  E8A9060000        call 0x2542
00001E99  83EC04            sub esp,byte +0x4
00001E9C  8B45EC            mov eax,[ebp-0x14]
00001E9F  89442404          mov [esp+0x4],eax
00001EA3  8B4508            mov eax,[ebp+0x8]
00001EA6  890424            mov [esp],eax
00001EA9  E8C5060000        call 0x2573
00001EAE  C745F010000000    mov dword [ebp-0x10],0x10
00001EB5  8D45F4            lea eax,[ebp-0xc]
00001EB8  8D55F0            lea edx,[ebp-0x10]
00001EBB  89542408          mov [esp+0x8],edx
00001EBF  8D5D08            lea ebx,[ebp+0x8]
00001EC2  895C2404          mov [esp+0x4],ebx
00001EC6  890424            mov [esp],eax
00001EC9  E874060000        call 0x2542
00001ECE  83EC04            sub esp,byte +0x4
00001ED1  8B450C            mov eax,[ebp+0xc]
00001ED4  89442404          mov [esp+0x4],eax
00001ED8  8B45F4            mov eax,[ebp-0xc]
00001EDB  890424            mov [esp],eax
00001EDE  E8A6070000        call 0x2689
00001EE3  EB24              jmp short 0x1f09
00001EE5  8B450C            mov eax,[ebp+0xc]
00001EE8  89442404          mov [esp+0x4],eax
00001EEC  8B4508            mov eax,[ebp+0x8]
00001EEF  890424            mov [esp],eax
00001EF2  E87C060000        call 0x2573
00001EF7  EB10              jmp short 0x1f09
00001EF9  890424            mov [esp],eax
00001EFC  E8EFE8FFFF        call 0x1000007f0
00001F01  890424            mov [esp],eax
00001F04  E8E7E8FFFF        call 0x1000007f0
00001F09  8B5DFC            mov ebx,[ebp-0x4]
00001F0C  C9                leave
00001F0D  C3                ret
00001F0E  55                push ebp
00001F0F  89E5              mov ebp,esp
00001F11  83EC18            sub esp,byte +0x18
00001F14  8B4508            mov eax,[ebp+0x8]
00001F17  890424            mov [esp],eax
00001F1A  E8B1070000        call 0x26d0
00001F1F  8B4508            mov eax,[ebp+0x8]
00001F22  C70000000000      mov dword [eax],0x0
00001F28  8B4508            mov eax,[ebp+0x8]
00001F2B  C7400400000000    mov dword [eax+0x4],0x0
00001F32  8B4508            mov eax,[ebp+0x8]
00001F35  C7400800000000    mov dword [eax+0x8],0x0
00001F3C  C9                leave
00001F3D  C3                ret
00001F3E  55                push ebp
00001F3F  89E5              mov ebp,esp
00001F41  83EC18            sub esp,byte +0x18
00001F44  8B4508            mov eax,[ebp+0x8]
00001F47  890424            mov [esp],eax
00001F4A  E895070000        call 0x26e4
00001F4F  C9                leave
00001F50  C3                ret
00001F51  90                nop
00001F52  55                push ebp
00001F53  89E5              mov ebp,esp
00001F55  83EC18            sub esp,byte +0x18
00001F58  837D0C00          cmp dword [ebp+0xc],byte +0x0
00001F5C  7419              jz 0x1f77
00001F5E  8B4508            mov eax,[ebp+0x8]
00001F61  8B5510            mov edx,[ebp+0x10]
00001F64  89542408          mov [esp+0x8],edx
00001F68  8B550C            mov edx,[ebp+0xc]
00001F6B  89542404          mov [esp+0x4],edx
00001F6F  890424            mov [esp],eax
00001F72  E873070000        call 0x26ea
00001F77  C9                leave
00001F78  C3                ret
00001F79  55                push ebp
00001F7A  89E5              mov ebp,esp
00001F7C  83EC18            sub esp,byte +0x18
00001F7F  8B450C            mov eax,[ebp+0xc]
00001F82  89442404          mov [esp+0x4],eax
00001F86  8B4508            mov eax,[ebp+0x8]
00001F89  890424            mov [esp],eax
00001F8C  E86C070000        call 0x26fd
00001F91  C9                leave
00001F92  C3                ret
00001F93  90                nop
00001F94  55                push ebp
00001F95  89E5              mov ebp,esp
00001F97  83EC18            sub esp,byte +0x18
00001F9A  8B450C            mov eax,[ebp+0xc]
00001F9D  89442404          mov [esp+0x4],eax
00001FA1  8B4508            mov eax,[ebp+0x8]
00001FA4  890424            mov [esp],eax
00001FA7  E856070000        call 0x2702
00001FAC  8B4508            mov eax,[ebp+0x8]
00001FAF  C70000000000      mov dword [eax],0x0
00001FB5  8B4508            mov eax,[ebp+0x8]
00001FB8  C7400400000000    mov dword [eax+0x4],0x0
00001FBF  8B4508            mov eax,[ebp+0x8]
00001FC2  C7400800000000    mov dword [eax+0x8],0x0
00001FC9  C9                leave
00001FCA  C3                ret
00001FCB  90                nop
00001FCC  55                push ebp
00001FCD  89E5              mov ebp,esp
00001FCF  83EC18            sub esp,byte +0x18
00001FD2  8B450C            mov eax,[ebp+0xc]
00001FD5  89442404          mov [esp+0x4],eax
00001FD9  8B4508            mov eax,[ebp+0x8]
00001FDC  890424            mov [esp],eax
00001FDF  E838070000        call 0x271c
00001FE4  8B5508            mov edx,[ebp+0x8]
00001FE7  8902              mov [edx],eax
00001FE9  8B4508            mov eax,[ebp+0x8]
00001FEC  8B10              mov edx,[eax]
00001FEE  8B4508            mov eax,[ebp+0x8]
00001FF1  895004            mov [eax+0x4],edx
00001FF4  8B4508            mov eax,[ebp+0x8]
00001FF7  8B08              mov ecx,[eax]
00001FF9  8B550C            mov edx,[ebp+0xc]
00001FFC  89D0              mov eax,edx
00001FFE  01C0              add eax,eax
00002000  01D0              add eax,edx
00002002  C1E002            shl eax,0x2
00002005  8D1401            lea edx,[ecx+eax]
00002008  8B4508            mov eax,[ebp+0x8]
0000200B  895008            mov [eax+0x8],edx
0000200E  C9                leave
0000200F  C3                ret
00002010  55                push ebp
00002011  89E5              mov ebp,esp
00002013  83EC18            sub esp,byte +0x18
00002016  837D0C00          cmp dword [ebp+0xc],byte +0x0
0000201A  7419              jz 0x2035
0000201C  8B4508            mov eax,[ebp+0x8]
0000201F  8B5510            mov edx,[ebp+0x10]
00002022  89542408          mov [esp+0x8],edx
00002026  8B550C            mov edx,[ebp+0xc]
00002029  89542404          mov [esp+0x4],edx
0000202D  890424            mov [esp],eax
00002030  E817070000        call 0x274c
00002035  C9                leave
00002036  C3                ret
00002037  55                push ebp
00002038  89E5              mov ebp,esp
0000203A  83EC18            sub esp,byte +0x18
0000203D  8B4510            mov eax,[ebp+0x10]
00002040  89442408          mov [esp+0x8],eax
00002044  8B450C            mov eax,[ebp+0xc]
00002047  89442404          mov [esp+0x4],eax
0000204B  8B4508            mov eax,[ebp+0x8]
0000204E  890424            mov [esp],eax
00002051  E809070000        call 0x275f
00002056  C9                leave
00002057  C3                ret
00002058  55                push ebp
00002059  89E5              mov ebp,esp
0000205B  83EC18            sub esp,byte +0x18
0000205E  8B450C            mov eax,[ebp+0xc]
00002061  89442404          mov [esp+0x4],eax
00002065  8B4508            mov eax,[ebp+0x8]
00002068  890424            mov [esp],eax
0000206B  E810070000        call 0x2780
00002070  C9                leave
00002071  C3                ret
00002072  55                push ebp
00002073  89E5              mov ebp,esp
00002075  8B450C            mov eax,[ebp+0xc]
00002078  8B10              mov edx,[eax]
0000207A  8B4508            mov eax,[ebp+0x8]
0000207D  8910              mov [eax],edx
0000207F  5D                pop ebp
00002080  C3                ret
00002081  90                nop
00002082  55                push ebp
00002083  89E5              mov ebp,esp
00002085  8B4508            mov eax,[ebp+0x8]
00002088  5D                pop ebp
00002089  C3                ret
0000208A  55                push ebp
0000208B  89E5              mov ebp,esp
0000208D  8B450C            mov eax,[ebp+0xc]
00002090  8B10              mov edx,[eax]
00002092  8B4508            mov eax,[ebp+0x8]
00002095  8910              mov [eax],edx
00002097  5D                pop ebp
00002098  C3                ret
00002099  90                nop
0000209A  55                push ebp
0000209B  89E5              mov ebp,esp
0000209D  83EC18            sub esp,byte +0x18
000020A0  8B450C            mov eax,[ebp+0xc]
000020A3  89442404          mov [esp+0x4],eax
000020A7  C7042408000000    mov dword [esp],0x8
000020AE  E8D3EEFFFF        call 0x100000f86
000020B3  89C1              mov ecx,eax
000020B5  85C9              test ecx,ecx
000020B7  740D              jz 0x20c6
000020B9  8B4510            mov eax,[ebp+0x10]
000020BC  8B5004            mov edx,[eax+0x4]
000020BF  8B00              mov eax,[eax]
000020C1  8901              mov [ecx],eax
000020C3  895104            mov [ecx+0x4],edx
000020C6  C9                leave
000020C7  C3                ret
000020C8  55                push ebp
000020C9  89E5              mov ebp,esp
000020CB  8B4508            mov eax,[ebp+0x8]
000020CE  5D                pop ebp
000020CF  C3                ret
000020D0  55                push ebp
000020D1  89E5              mov ebp,esp
000020D3  53                push ebx
000020D4  83EC14            sub esp,byte +0x14
000020D7  8B450C            mov eax,[ebp+0xc]
000020DA  890424            mov [esp],eax
000020DD  E8C7060000        call 0x27a9
000020E2  89C3              mov ebx,eax
000020E4  8B4508            mov eax,[ebp+0x8]
000020E7  890424            mov [esp],eax
000020EA  E8BA060000        call 0x27a9
000020EF  8B5510            mov edx,[ebp+0x10]
000020F2  89542408          mov [esp+0x8],edx
000020F6  895C2404          mov [esp+0x4],ebx
000020FA  890424            mov [esp],eax
000020FD  E8BA060000        call 0x27bc
00002102  83C414            add esp,byte +0x14
00002105  5B                pop ebx
00002106  5D                pop ebp
00002107  C3                ret
00002108  55                push ebp
00002109  89E5              mov ebp,esp
0000210B  53                push ebx
0000210C  83EC24            sub esp,byte +0x24
0000210F  8B4508            mov eax,[ebp+0x8]
00002112  890424            mov [esp],eax
00002115  E8E6060000        call 0x2800
0000211A  89C3              mov ebx,eax
0000211C  8B4508            mov eax,[ebp+0x8]
0000211F  890424            mov [esp],eax
00002122  E811F1FFFF        call 0x100001238
00002127  89DA              mov edx,ebx
00002129  29C2              sub edx,eax
0000212B  8B450C            mov eax,[ebp+0xc]
0000212E  39C2              cmp edx,eax
00002130  0F92C0            setc al
00002133  84C0              test al,al
00002135  740B              jz 0x2142
00002137  8B4510            mov eax,[ebp+0x10]
0000213A  890424            mov [esp],eax
0000213D  E89EE5FFFF        call 0x1000006e0
00002142  8B4508            mov eax,[ebp+0x8]
00002145  890424            mov [esp],eax
00002148  E8EBF0FFFF        call 0x100001238
0000214D  89C3              mov ebx,eax
0000214F  8B4508            mov eax,[ebp+0x8]
00002152  890424            mov [esp],eax
00002155  E8DEF0FFFF        call 0x100001238
0000215A  8945F0            mov [ebp-0x10],eax
0000215D  8D450C            lea eax,[ebp+0xc]
00002160  89442404          mov [esp+0x4],eax
00002164  8D45F0            lea eax,[ebp-0x10]
00002167  890424            mov [esp],eax
0000216A  E8AC060000        call 0x281b
0000216F  8B00              mov eax,[eax]
00002171  01D8              add eax,ebx
00002173  8945F4            mov [ebp-0xc],eax
00002176  8B4508            mov eax,[ebp+0x8]
00002179  890424            mov [esp],eax
0000217C  E8B7F0FFFF        call 0x100001238
00002181  3B45F4            cmp eax,[ebp-0xc]
00002184  7710              ja 0x2196
00002186  8B4508            mov eax,[ebp+0x8]
00002189  890424            mov [esp],eax
0000218C  E86F060000        call 0x2800
00002191  3B45F4            cmp eax,[ebp-0xc]
00002194  730D              jnc 0x21a3
00002196  8B4508            mov eax,[ebp+0x8]
00002199  890424            mov [esp],eax
0000219C  E85F060000        call 0x2800
000021A1  EB03              jmp short 0x21a6
000021A3  8B45F4            mov eax,[ebp-0xc]
000021A6  83C424            add esp,byte +0x24
000021A9  5B                pop ebx
000021AA  5D                pop ebp
000021AB  C3                ret
000021AC  55                push ebp
000021AD  89E5              mov ebp,esp
000021AF  83EC18            sub esp,byte +0x18
000021B2  8B450C            mov eax,[ebp+0xc]
000021B5  89442404          mov [esp+0x4],eax
000021B9  8B4508            mov eax,[ebp+0x8]
000021BC  890424            mov [esp],eax
000021BF  E8C6FEFFFF        call 0x10000208a
000021C4  8B4508            mov eax,[ebp+0x8]
000021C7  C9                leave
000021C8  C20400            ret 0x4
000021CB  55                push ebp
000021CC  89E5              mov ebp,esp
000021CE  53                push ebx
000021CF  83EC14            sub esp,byte +0x14
000021D2  8B4508            mov eax,[ebp+0x8]
000021D5  890424            mov [esp],eax
000021D8  E8EBFEFFFF        call 0x1000020c8
000021DD  8B00              mov eax,[eax]
000021DF  89C3              mov ebx,eax
000021E1  8B450C            mov eax,[ebp+0xc]
000021E4  890424            mov [esp],eax
000021E7  E8DCFEFFFF        call 0x1000020c8
000021EC  8B00              mov eax,[eax]
000021EE  29C3              sub ebx,eax
000021F0  89D8              mov eax,ebx
000021F2  C1F803            sar eax,0x3
000021F5  83C414            add esp,byte +0x14
000021F8  5B                pop ebx
000021F9  5D                pop ebp
000021FA  C3                ret
000021FB  90                nop
000021FC  55                push ebp
000021FD  89E5              mov ebp,esp
000021FF  83EC18            sub esp,byte +0x18
00002202  837D0C00          cmp dword [ebp+0xc],byte +0x0
00002206  741C              jz 0x2224
00002208  8B4508            mov eax,[ebp+0x8]
0000220B  C744240800000000  mov dword [esp+0x8],0x0
00002213  8B550C            mov edx,[ebp+0xc]
00002216  89542404          mov [esp+0x4],edx
0000221A  890424            mov [esp],eax
0000221D  E814060000        call 0x2836
00002222  EB05              jmp short 0x2229
00002224  B800000000        mov eax,0x0
00002229  C9                leave
0000222A  C3                ret
0000222B  55                push ebp
0000222C  89E5              mov ebp,esp
0000222E  83EC18            sub esp,byte +0x18
00002231  8B4514            mov eax,[ebp+0x14]
00002234  8944240C          mov [esp+0xc],eax
00002238  8B4510            mov eax,[ebp+0x10]
0000223B  89442408          mov [esp+0x8],eax
0000223F  8B450C            mov eax,[ebp+0xc]
00002242  89442404          mov [esp+0x4],eax
00002246  8B4508            mov eax,[ebp+0x8]
00002249  890424            mov [esp],eax
0000224C  E815060000        call 0x2866
00002251  C9                leave
00002252  C3                ret
00002253  55                push ebp
00002254  89E5              mov ebp,esp
00002256  83EC18            sub esp,byte +0x18
00002259  8B450C            mov eax,[ebp+0xc]
0000225C  89442404          mov [esp+0x4],eax
00002260  8B4508            mov eax,[ebp+0x8]
00002263  890424            mov [esp],eax
00002266  E81D060000        call 0x2888
0000226B  C9                leave
0000226C  C3                ret
0000226D  90                nop
0000226E  55                push ebp
0000226F  89E5              mov ebp,esp
00002271  83EC18            sub esp,byte +0x18
00002274  8B450C            mov eax,[ebp+0xc]
00002277  89442404          mov [esp+0x4],eax
0000227B  8B4508            mov eax,[ebp+0x8]
0000227E  890424            mov [esp],eax
00002281  E808060000        call 0x288e
00002286  8B4508            mov eax,[ebp+0x8]
00002289  C70000000000      mov dword [eax],0x0
0000228F  8B4508            mov eax,[ebp+0x8]
00002292  C7400400000000    mov dword [eax+0x4],0x0
00002299  8B4508            mov eax,[ebp+0x8]
0000229C  C7400800000000    mov dword [eax+0x8],0x0
000022A3  C9                leave
000022A4  C3                ret
000022A5  90                nop
000022A6  55                push ebp
000022A7  89E5              mov ebp,esp
000022A9  83EC18            sub esp,byte +0x18
000022AC  8B450C            mov eax,[ebp+0xc]
000022AF  89442404          mov [esp+0x4],eax
000022B3  8B4508            mov eax,[ebp+0x8]
000022B6  890424            mov [esp],eax
000022B9  E8EA050000        call 0x28a8
000022BE  8B5508            mov edx,[ebp+0x8]
000022C1  8902              mov [edx],eax
000022C3  8B4508            mov eax,[ebp+0x8]
000022C6  8B10              mov edx,[eax]
000022C8  8B4508            mov eax,[ebp+0x8]
000022CB  895004            mov [eax+0x4],edx
000022CE  8B4508            mov eax,[ebp+0x8]
000022D1  8B00              mov eax,[eax]
000022D3  8B550C            mov edx,[ebp+0xc]
000022D6  C1E202            shl edx,0x2
000022D9  01C2              add edx,eax
000022DB  8B4508            mov eax,[ebp+0x8]
000022DE  895008            mov [eax+0x8],edx
000022E1  C9                leave
000022E2  C3                ret
000022E3  90                nop
000022E4  55                push ebp
000022E5  89E5              mov ebp,esp
000022E7  83EC18            sub esp,byte +0x18
000022EA  837D0C00          cmp dword [ebp+0xc],byte +0x0
000022EE  7419              jz 0x2309
000022F0  8B4508            mov eax,[ebp+0x8]
000022F3  8B5510            mov edx,[ebp+0x10]
000022F6  89542408          mov [esp+0x8],edx
000022FA  8B550C            mov edx,[ebp+0xc]
000022FD  89542404          mov [esp+0x4],edx
00002301  890424            mov [esp],eax
00002304  E8CF050000        call 0x28d8
00002309  C9                leave
0000230A  C3                ret
0000230B  55                push ebp
0000230C  89E5              mov ebp,esp
0000230E  83EC18            sub esp,byte +0x18
00002311  8B4510            mov eax,[ebp+0x10]
00002314  89442408          mov [esp+0x8],eax
00002318  8B450C            mov eax,[ebp+0xc]
0000231B  89442404          mov [esp+0x4],eax
0000231F  8B4508            mov eax,[ebp+0x8]
00002322  890424            mov [esp],eax
00002325  E8C1050000        call 0x28eb
0000232A  C9                leave
0000232B  C3                ret
0000232C  55                push ebp
0000232D  89E5              mov ebp,esp
0000232F  83EC18            sub esp,byte +0x18
00002332  8B450C            mov eax,[ebp+0xc]
00002335  89442404          mov [esp+0x4],eax
00002339  8B4508            mov eax,[ebp+0x8]
0000233C  890424            mov [esp],eax
0000233F  E8C8050000        call 0x290c
00002344  C9                leave
00002345  C3                ret
00002346  55                push ebp
00002347  89E5              mov ebp,esp
00002349  83EC18            sub esp,byte +0x18
0000234C  8B450C            mov eax,[ebp+0xc]
0000234F  89442404          mov [esp+0x4],eax
00002353  8B4508            mov eax,[ebp+0x8]
00002356  890424            mov [esp],eax
00002359  E8B4050000        call 0x2912
0000235E  8B4508            mov eax,[ebp+0x8]
00002361  C70000000000      mov dword [eax],0x0
00002367  8B4508            mov eax,[ebp+0x8]
0000236A  C7400400000000    mov dword [eax+0x4],0x0
00002371  8B4508            mov eax,[ebp+0x8]
00002374  C7400800000000    mov dword [eax+0x8],0x0
0000237B  C9                leave
0000237C  C3                ret
0000237D  90                nop
0000237E  55                push ebp
0000237F  89E5              mov ebp,esp
00002381  83EC18            sub esp,byte +0x18
00002384  8B450C            mov eax,[ebp+0xc]
00002387  89442404          mov [esp+0x4],eax
0000238B  8B4508            mov eax,[ebp+0x8]
0000238E  890424            mov [esp],eax
00002391  E896050000        call 0x292c
00002396  8B5508            mov edx,[ebp+0x8]
00002399  8902              mov [edx],eax
0000239B  8B4508            mov eax,[ebp+0x8]
0000239E  8B10              mov edx,[eax]
000023A0  8B4508            mov eax,[ebp+0x8]
000023A3  895004            mov [eax+0x4],edx
000023A6  8B4508            mov eax,[ebp+0x8]
000023A9  8B08              mov ecx,[eax]
000023AB  8B550C            mov edx,[ebp+0xc]
000023AE  89D0              mov eax,edx
000023B0  01C0              add eax,eax
000023B2  01D0              add eax,edx
000023B4  C1E002            shl eax,0x2
000023B7  8D1401            lea edx,[ecx+eax]
000023BA  8B4508            mov eax,[ebp+0x8]
000023BD  895008            mov [eax+0x8],edx
000023C0  C9                leave
000023C1  C3                ret
000023C2  55                push ebp
000023C3  89E5              mov ebp,esp
000023C5  83EC18            sub esp,byte +0x18
000023C8  837D0C00          cmp dword [ebp+0xc],byte +0x0
000023CC  7419              jz 0x23e7
000023CE  8B4508            mov eax,[ebp+0x8]
000023D1  8B5510            mov edx,[ebp+0x10]
000023D4  89542408          mov [esp+0x8],edx
000023D8  8B550C            mov edx,[ebp+0xc]
000023DB  89542404          mov [esp+0x4],edx
000023DF  890424            mov [esp],eax
000023E2  E875050000        call 0x295c
000023E7  C9                leave
000023E8  C3                ret
000023E9  55                push ebp
000023EA  89E5              mov ebp,esp
000023EC  83EC18            sub esp,byte +0x18
000023EF  8B4510            mov eax,[ebp+0x10]
000023F2  89442408          mov [esp+0x8],eax
000023F6  8B450C            mov eax,[ebp+0xc]
000023F9  89442404          mov [esp+0x4],eax
000023FD  8B4508            mov eax,[ebp+0x8]
00002400  890424            mov [esp],eax
00002403  E867050000        call 0x296f
00002408  C9                leave
00002409  C3                ret
0000240A  55                push ebp
0000240B  89E5              mov ebp,esp
0000240D  83EC18            sub esp,byte +0x18
00002410  8B450C            mov eax,[ebp+0xc]
00002413  89442404          mov [esp+0x4],eax
00002417  8B4508            mov eax,[ebp+0x8]
0000241A  890424            mov [esp],eax
0000241D  E86E050000        call 0x2990
00002422  C9                leave
00002423  C3                ret
00002424  55                push ebp
00002425  89E5              mov ebp,esp
00002427  8B4508            mov eax,[ebp+0x8]
0000242A  5D                pop ebp
0000242B  C3                ret
0000242C  55                push ebp
0000242D  89E5              mov ebp,esp
0000242F  83EC18            sub esp,byte +0x18
00002432  8B4510            mov eax,[ebp+0x10]
00002435  89442408          mov [esp+0x8],eax
00002439  8B450C            mov eax,[ebp+0xc]
0000243C  89442404          mov [esp+0x4],eax
00002440  8B4508            mov eax,[ebp+0x8]
00002443  890424            mov [esp],eax
00002446  E86E050000        call 0x29b9
0000244B  8B450C            mov eax,[ebp+0xc]
0000244E  89442404          mov [esp+0x4],eax
00002452  8B4508            mov eax,[ebp+0x8]
00002455  890424            mov [esp],eax
00002458  E8EA050000        call 0x2a47
0000245D  C9                leave
0000245E  C3                ret
0000245F  55                push ebp
00002460  89E5              mov ebp,esp
00002462  53                push ebx
00002463  83EC34            sub esp,byte +0x34
00002466  8D450C            lea eax,[ebp+0xc]
00002469  89442404          mov [esp+0x4],eax
0000246D  8D4510            lea eax,[ebp+0x10]
00002470  890424            mov [esp],eax
00002473  E81FF9FFFF        call 0x100001d97
00002478  89C2              mov edx,eax
0000247A  C1EA1F            shr edx,0x1f
0000247D  01D0              add eax,edx
0000247F  D1F8              sar eax,1
00002481  8945E4            mov [ebp-0x1c],eax
00002484  8D45E0            lea eax,[ebp-0x20]
00002487  8D55E4            lea edx,[ebp-0x1c]
0000248A  89542408          mov [esp+0x8],edx
0000248E  8D550C            lea edx,[ebp+0xc]
00002491  89542404          mov [esp+0x4],edx
00002495  890424            mov [esp],eax
00002498  E8A5000000        call 0x2542
0000249D  83EC04            sub esp,byte +0x4
000024A0  C745E801000000    mov dword [ebp-0x18],0x1
000024A7  8D45EC            lea eax,[ebp-0x14]
000024AA  8D55E8            lea edx,[ebp-0x18]
000024AD  89542408          mov [esp+0x8],edx
000024B1  8D5510            lea edx,[ebp+0x10]
000024B4  89542404          mov [esp+0x4],edx
000024B8  890424            mov [esp],eax
000024BB  E8D2050000        call 0x2a92
000024C0  83EC04            sub esp,byte +0x4
000024C3  8B45EC            mov eax,[ebp-0x14]
000024C6  89442408          mov [esp+0x8],eax
000024CA  8B45E0            mov eax,[ebp-0x20]
000024CD  89442404          mov [esp+0x4],eax
000024D1  8B450C            mov eax,[ebp+0xc]
000024D4  890424            mov [esp],eax
000024D7  E8E9050000        call 0x2ac5
000024DC  8D450C            lea eax,[ebp+0xc]
000024DF  890424            mov [esp],eax
000024E2  E8F1060000        call 0x2bd8
000024E7  89C3              mov ebx,eax
000024E9  C745F001000000    mov dword [ebp-0x10],0x1
000024F0  8D45F4            lea eax,[ebp-0xc]
000024F3  8D55F0            lea edx,[ebp-0x10]
000024F6  89542408          mov [esp+0x8],edx
000024FA  8D550C            lea edx,[ebp+0xc]
000024FD  89542404          mov [esp+0x4],edx
00002501  890424            mov [esp],eax
00002504  E839000000        call 0x2542
00002509  83EC04            sub esp,byte +0x4
0000250C  8B4508            mov eax,[ebp+0x8]
0000250F  895C240C          mov [esp+0xc],ebx
00002513  8B5510            mov edx,[ebp+0x10]
00002516  89542408          mov [esp+0x8],edx
0000251A  8B55F4            mov edx,[ebp-0xc]
0000251D  89542404          mov [esp+0x4],edx
00002521  890424            mov [esp],eax
00002524  E8B9060000        call 0x2be2
00002529  83EC04            sub esp,byte +0x4
0000252C  EB0A              jmp short 0x2538
0000252E  EB00              jmp short 0x2530
00002530  890424            mov [esp],eax
00002533  E8B8E2FFFF        call 0x1000007f0
00002538  8B4508            mov eax,[ebp+0x8]
0000253B  8B5DFC            mov ebx,[ebp-0x4]
0000253E  C9                leave
0000253F  C20400            ret 0x4
00002542  55                push ebp
00002543  89E5              mov ebp,esp
00002545  83EC28            sub esp,byte +0x28
00002548  8B450C            mov eax,[ebp+0xc]
0000254B  8B10              mov edx,[eax]
0000254D  8B4510            mov eax,[ebp+0x10]
00002550  8B00              mov eax,[eax]
00002552  C1E002            shl eax,0x2
00002555  01D0              add eax,edx
00002557  8945F4            mov [ebp-0xc],eax
0000255A  8D45F4            lea eax,[ebp-0xc]
0000255D  89442404          mov [esp+0x4],eax
00002561  8B4508            mov eax,[ebp+0x8]
00002564  890424            mov [esp],eax
00002567  E8F0F7FFFF        call 0x100001d5c
0000256C  8B4508            mov eax,[ebp+0x8]
0000256F  C9                leave
00002570  C20400            ret 0x4
00002573  55                push ebp
00002574  89E5              mov ebp,esp
00002576  53                push ebx
00002577  83EC34            sub esp,byte +0x34
0000257A  8D450C            lea eax,[ebp+0xc]
0000257D  89442404          mov [esp+0x4],eax
00002581  8D4508            lea eax,[ebp+0x8]
00002584  890424            mov [esp],eax
00002587  E809070000        call 0x2c95
0000258C  84C0              test al,al
0000258E  7405              jz 0x2595
00002590  E9EF000000        jmp 0x2684
00002595  C745E401000000    mov dword [ebp-0x1c],0x1
0000259C  8D45E0            lea eax,[ebp-0x20]
0000259F  8D55E4            lea edx,[ebp-0x1c]
000025A2  89542408          mov [esp+0x8],edx
000025A6  8D4D08            lea ecx,[ebp+0x8]
000025A9  894C2404          mov [esp+0x4],ecx
000025AD  890424            mov [esp],eax
000025B0  E88DFFFFFF        call 0x100002542
000025B5  83EC04            sub esp,byte +0x4
000025B8  E9A1000000        jmp 0x265e
000025BD  8D45E0            lea eax,[ebp-0x20]
000025C0  890424            mov [esp],eax
000025C3  E810060000        call 0x2bd8
000025C8  8B18              mov ebx,[eax]
000025CA  8D4508            lea eax,[ebp+0x8]
000025CD  890424            mov [esp],eax
000025D0  E803060000        call 0x2bd8
000025D5  8B00              mov eax,[eax]
000025D7  39C3              cmp ebx,eax
000025D9  0F9CC0            setl al
000025DC  84C0              test al,al
000025DE  7468              jz 0x2648
000025E0  8D45E0            lea eax,[ebp-0x20]
000025E3  890424            mov [esp],eax
000025E6  E8ED050000        call 0x2bd8
000025EB  8B00              mov eax,[eax]
000025ED  8945F4            mov [ebp-0xc],eax
000025F0  C745EC01000000    mov dword [ebp-0x14],0x1
000025F7  8D45F0            lea eax,[ebp-0x10]
000025FA  8D55EC            lea edx,[ebp-0x14]
000025FD  89542408          mov [esp+0x8],edx
00002601  8D55E0            lea edx,[ebp-0x20]
00002604  89542404          mov [esp+0x4],edx
00002608  890424            mov [esp],eax
0000260B  E832FFFFFF        call 0x100002542
00002610  83EC04            sub esp,byte +0x4
00002613  8D45E8            lea eax,[ebp-0x18]
00002616  8B55F0            mov edx,[ebp-0x10]
00002619  8954240C          mov [esp+0xc],edx
0000261D  8B55E0            mov edx,[ebp-0x20]
00002620  89542408          mov [esp+0x8],edx
00002624  8B5508            mov edx,[ebp+0x8]
00002627  89542404          mov [esp+0x4],edx
0000262B  890424            mov [esp],eax
0000262E  E8A4060000        call 0x2cd7
00002633  83EC04            sub esp,byte +0x4
00002636  8D4508            lea eax,[ebp+0x8]
00002639  890424            mov [esp],eax
0000263C  E897050000        call 0x2bd8
00002641  8B55F4            mov edx,[ebp-0xc]
00002644  8910              mov [eax],edx
00002646  EB0B              jmp short 0x2653
00002648  8B45E0            mov eax,[ebp-0x20]
0000264B  890424            mov [esp],eax
0000264E  E8DE060000        call 0x2d31
00002653  8D45E0            lea eax,[ebp-0x20]
00002656  890424            mov [esp],eax
00002659  E864060000        call 0x2cc2
0000265E  8D450C            lea eax,[ebp+0xc]
00002661  89442404          mov [esp+0x4],eax
00002665  8D45E0            lea eax,[ebp-0x20]
00002668  890424            mov [esp],eax
0000266B  E8FBF6FFFF        call 0x100001d6b
00002670  84C0              test al,al
00002672  0F8545FFFFFF      jnz near 0x1000025bd
00002678  EB0A              jmp short 0x2684
0000267A  EB00              jmp short 0x267c
0000267C  890424            mov [esp],eax
0000267F  E86CE1FFFF        call 0x1000007f0
00002684  8B5DFC            mov ebx,[ebp-0x4]
00002687  C9                leave
00002688  C3                ret
00002689  55                push ebp
0000268A  89E5              mov ebp,esp
0000268C  83EC28            sub esp,byte +0x28
0000268F  8B4508            mov eax,[ebp+0x8]
00002692  8945F4            mov [ebp-0xc],eax
00002695  EB16              jmp short 0x26ad
00002697  8B45F4            mov eax,[ebp-0xc]
0000269A  890424            mov [esp],eax
0000269D  E88F060000        call 0x2d31
000026A2  8D45F4            lea eax,[ebp-0xc]
000026A5  890424            mov [esp],eax
000026A8  E815060000        call 0x2cc2
000026AD  8D450C            lea eax,[ebp+0xc]
000026B0  89442404          mov [esp+0x4],eax
000026B4  8D45F4            lea eax,[ebp-0xc]
000026B7  890424            mov [esp],eax
000026BA  E8ACF6FFFF        call 0x100001d6b
000026BF  84C0              test al,al
000026C1  75D4              jnz 0x2697
000026C3  EB08              jmp short 0x26cd
000026C5  890424            mov [esp],eax
000026C8  E823E1FFFF        call 0x1000007f0
000026CD  C9                leave
000026CE  C3                ret
000026CF  90                nop
000026D0  55                push ebp
000026D1  89E5              mov ebp,esp
000026D3  83EC18            sub esp,byte +0x18
000026D6  8B4508            mov eax,[ebp+0x8]
000026D9  890424            mov [esp],eax
000026DC  E8D5060000        call 0x2db6
000026E1  C9                leave
000026E2  C3                ret
000026E3  90                nop
000026E4  55                push ebp
000026E5  89E5              mov ebp,esp
000026E7  5D                pop ebp
000026E8  C3                ret
000026E9  90                nop
000026EA  55                push ebp
000026EB  89E5              mov ebp,esp
000026ED  83EC18            sub esp,byte +0x18
000026F0  8B450C            mov eax,[ebp+0xc]
000026F3  890424            mov [esp],eax
000026F6  E815E0FFFF        call 0x100000710
000026FB  C9                leave
000026FC  C3                ret
000026FD  55                push ebp
000026FE  89E5              mov ebp,esp
00002700  5D                pop ebp
00002701  C3                ret
00002702  55                push ebp
00002703  89E5              mov ebp,esp
00002705  83EC18            sub esp,byte +0x18
00002708  8B450C            mov eax,[ebp+0xc]
0000270B  89442404          mov [esp+0x4],eax
0000270F  8B4508            mov eax,[ebp+0x8]
00002712  890424            mov [esp],eax
00002715  E8A2060000        call 0x2dbc
0000271A  C9                leave
0000271B  C3                ret
0000271C  55                push ebp
0000271D  89E5              mov ebp,esp
0000271F  83EC18            sub esp,byte +0x18
00002722  837D0C00          cmp dword [ebp+0xc],byte +0x0
00002726  741C              jz 0x2744
00002728  8B4508            mov eax,[ebp+0x8]
0000272B  C744240800000000  mov dword [esp+0x8],0x0
00002733  8B550C            mov edx,[ebp+0xc]
00002736  89542404          mov [esp+0x4],edx
0000273A  890424            mov [esp],eax
0000273D  E880060000        call 0x2dc2
00002742  EB05              jmp short 0x2749
00002744  B800000000        mov eax,0x0
00002749  C9                leave
0000274A  C3                ret
0000274B  90                nop
0000274C  55                push ebp
0000274D  89E5              mov ebp,esp
0000274F  83EC18            sub esp,byte +0x18
00002752  8B450C            mov eax,[ebp+0xc]
00002755  890424            mov [esp],eax
00002758  E8B3DFFFFF        call 0x100000710
0000275D  C9                leave
0000275E  C3                ret
0000275F  55                push ebp
00002760  89E5              mov ebp,esp
00002762  83EC18            sub esp,byte +0x18
00002765  8B4510            mov eax,[ebp+0x10]
00002768  89442408          mov [esp+0x8],eax
0000276C  8B450C            mov eax,[ebp+0xc]
0000276F  89442404          mov [esp+0x4],eax
00002773  8B4508            mov eax,[ebp+0x8]
00002776  890424            mov [esp],eax
00002779  E87A060000        call 0x2df8
0000277E  C9                leave
0000277F  C3                ret
00002780  55                push ebp
00002781  89E5              mov ebp,esp
00002783  83EC18            sub esp,byte +0x18
00002786  EB17              jmp short 0x279f
00002788  8B4508            mov eax,[ebp+0x8]
0000278B  890424            mov [esp],eax
0000278E  E8D3060000        call 0x2e66
00002793  890424            mov [esp],eax
00002796  E8D3060000        call 0x2e6e
0000279B  8345080C          add dword [ebp+0x8],byte +0xc
0000279F  8B4508            mov eax,[ebp+0x8]
000027A2  3B450C            cmp eax,[ebp+0xc]
000027A5  75E1              jnz 0x2788
000027A7  C9                leave
000027A8  C3                ret
000027A9  55                push ebp
000027AA  89E5              mov ebp,esp
000027AC  83EC18            sub esp,byte +0x18
000027AF  8B4508            mov eax,[ebp+0x8]
000027B2  890424            mov [esp],eax
000027B5  E8C7060000        call 0x2e81
000027BA  C9                leave
000027BB  C3                ret
000027BC  55                push ebp
000027BD  89E5              mov ebp,esp
000027BF  56                push esi
000027C0  53                push ebx
000027C1  83EC10            sub esp,byte +0x10
000027C4  8B4510            mov eax,[ebp+0x10]
000027C7  890424            mov [esp],eax
000027CA  E8BA060000        call 0x2e89
000027CF  89C6              mov esi,eax
000027D1  8B450C            mov eax,[ebp+0xc]
000027D4  890424            mov [esp],eax
000027D7  E8AD060000        call 0x2e89
000027DC  89C3              mov ebx,eax
000027DE  8B4508            mov eax,[ebp+0x8]
000027E1  890424            mov [esp],eax
000027E4  E8A0060000        call 0x2e89
000027E9  89742408          mov [esp+0x8],esi
000027ED  895C2404          mov [esp+0x4],ebx
000027F1  890424            mov [esp],eax
000027F4  E8A3060000        call 0x2e9c
000027F9  83C410            add esp,byte +0x10
000027FC  5B                pop ebx
000027FD  5E                pop esi
000027FE  5D                pop ebp
000027FF  C3                ret
00002800  55                push ebp
00002801  89E5              mov ebp,esp
00002803  83EC18            sub esp,byte +0x18
00002806  8B4508            mov eax,[ebp+0x8]
00002809  890424            mov [esp],eax
0000280C  E8C3060000        call 0x2ed4
00002811  890424            mov [esp],eax
00002814  E8A8060000        call 0x2ec1
00002819  C9                leave
0000281A  C3                ret
0000281B  55                push ebp
0000281C  89E5              mov ebp,esp
0000281E  8B4508            mov eax,[ebp+0x8]
00002821  8B10              mov edx,[eax]
00002823  8B450C            mov eax,[ebp+0xc]
00002826  8B00              mov eax,[eax]
00002828  39C2              cmp edx,eax
0000282A  7305              jnc 0x2831
0000282C  8B450C            mov eax,[ebp+0xc]
0000282F  EB03              jmp short 0x2834
00002831  8B4508            mov eax,[ebp+0x8]
00002834  5D                pop ebp
00002835  C3                ret
00002836  55                push ebp
00002837  89E5              mov ebp,esp
00002839  83EC18            sub esp,byte +0x18
0000283C  8B4508            mov eax,[ebp+0x8]
0000283F  890424            mov [esp],eax
00002842  E895060000        call 0x2edc
00002847  3B450C            cmp eax,[ebp+0xc]
0000284A  0F92C0            setc al
0000284D  84C0              test al,al
0000284F  7405              jz 0x2856
00002851  E86ADFFFFF        call 0x1000007c0
00002856  8B450C            mov eax,[ebp+0xc]
00002859  C1E003            shl eax,0x3
0000285C  890424            mov [esp],eax
0000285F  E81CDFFFFF        call 0x100000780
00002864  C9                leave
00002865  C3                ret
00002866  55                push ebp
00002867  89E5              mov ebp,esp
00002869  83EC18            sub esp,byte +0x18
0000286C  8B4510            mov eax,[ebp+0x10]
0000286F  89442408          mov [esp+0x8],eax
00002873  8B450C            mov eax,[ebp+0xc]
00002876  89442404          mov [esp+0x4],eax
0000287A  8B4508            mov eax,[ebp+0x8]
0000287D  890424            mov [esp],eax
00002880  E861060000        call 0x2ee6
00002885  C9                leave
00002886  C3                ret
00002887  90                nop
00002888  55                push ebp
00002889  89E5              mov ebp,esp
0000288B  5D                pop ebp
0000288C  C3                ret
0000288D  90                nop
0000288E  55                push ebp
0000288F  89E5              mov ebp,esp
00002891  83EC18            sub esp,byte +0x18
00002894  8B450C            mov eax,[ebp+0xc]
00002897  89442404          mov [esp+0x4],eax
0000289B  8B4508            mov eax,[ebp+0x8]
0000289E  890424            mov [esp],eax
000028A1  E862060000        call 0x2f08
000028A6  C9                leave
000028A7  C3                ret
000028A8  55                push ebp
000028A9  89E5              mov ebp,esp
000028AB  83EC18            sub esp,byte +0x18
000028AE  837D0C00          cmp dword [ebp+0xc],byte +0x0
000028B2  741C              jz 0x28d0
000028B4  8B4508            mov eax,[ebp+0x8]
000028B7  C744240800000000  mov dword [esp+0x8],0x0
000028BF  8B550C            mov edx,[ebp+0xc]
000028C2  89542404          mov [esp+0x4],edx
000028C6  890424            mov [esp],eax
000028C9  E840060000        call 0x2f0e
000028CE  EB05              jmp short 0x28d5
000028D0  B800000000        mov eax,0x0
000028D5  C9                leave
000028D6  C3                ret
000028D7  90                nop
000028D8  55                push ebp
000028D9  89E5              mov ebp,esp
000028DB  83EC18            sub esp,byte +0x18
000028DE  8B450C            mov eax,[ebp+0xc]
000028E1  890424            mov [esp],eax
000028E4  E827DEFFFF        call 0x100000710
000028E9  C9                leave
000028EA  C3                ret
000028EB  55                push ebp
000028EC  89E5              mov ebp,esp
000028EE  83EC18            sub esp,byte +0x18
000028F1  8B4510            mov eax,[ebp+0x10]
000028F4  89442408          mov [esp+0x8],eax
000028F8  8B450C            mov eax,[ebp+0xc]
000028FB  89442404          mov [esp+0x4],eax
000028FF  8B4508            mov eax,[ebp+0x8]
00002902  890424            mov [esp],eax
00002905  E834060000        call 0x2f3e
0000290A  C9                leave
0000290B  C3                ret
0000290C  55                push ebp
0000290D  89E5              mov ebp,esp
0000290F  5D                pop ebp
00002910  C3                ret
00002911  90                nop
00002912  55                push ebp
00002913  89E5              mov ebp,esp
00002915  83EC18            sub esp,byte +0x18
00002918  8B450C            mov eax,[ebp+0xc]
0000291B  89442404          mov [esp+0x4],eax
0000291F  8B4508            mov eax,[ebp+0x8]
00002922  890424            mov [esp],eax
00002925  E836060000        call 0x2f60
0000292A  C9                leave
0000292B  C3                ret
0000292C  55                push ebp
0000292D  89E5              mov ebp,esp
0000292F  83EC18            sub esp,byte +0x18
00002932  837D0C00          cmp dword [ebp+0xc],byte +0x0
00002936  741C              jz 0x2954
00002938  8B4508            mov eax,[ebp+0x8]
0000293B  C744240800000000  mov dword [esp+0x8],0x0
00002943  8B550C            mov edx,[ebp+0xc]
00002946  89542404          mov [esp+0x4],edx
0000294A  890424            mov [esp],eax
0000294D  E814060000        call 0x2f66
00002952  EB05              jmp short 0x2959
00002954  B800000000        mov eax,0x0
00002959  C9                leave
0000295A  C3                ret
0000295B  90                nop
0000295C  55                push ebp
0000295D  89E5              mov ebp,esp
0000295F  83EC18            sub esp,byte +0x18
00002962  8B450C            mov eax,[ebp+0xc]
00002965  890424            mov [esp],eax
00002968  E8A3DDFFFF        call 0x100000710
0000296D  C9                leave
0000296E  C3                ret
0000296F  55                push ebp
00002970  89E5              mov ebp,esp
00002972  83EC18            sub esp,byte +0x18
00002975  8B4510            mov eax,[ebp+0x10]
00002978  89442408          mov [esp+0x8],eax
0000297C  8B450C            mov eax,[ebp+0xc]
0000297F  89442404          mov [esp+0x4],eax
00002983  8B4508            mov eax,[ebp+0x8]
00002986  890424            mov [esp],eax
00002989  E80E060000        call 0x2f9c
0000298E  C9                leave
0000298F  C3                ret
00002990  55                push ebp
00002991  89E5              mov ebp,esp
00002993  83EC18            sub esp,byte +0x18
00002996  EB17              jmp short 0x29af
00002998  8B4508            mov eax,[ebp+0x8]
0000299B  890424            mov [esp],eax
0000299E  E867060000        call 0x300a
000029A3  890424            mov [esp],eax
000029A6  E867060000        call 0x3012
000029AB  8345080C          add dword [ebp+0x8],byte +0xc
000029AF  8B4508            mov eax,[ebp+0x8]
000029B2  3B450C            cmp eax,[ebp+0xc]
000029B5  75E1              jnz 0x2998
000029B7  C9                leave
000029B8  C3                ret
000029B9  55                push ebp
000029BA  89E5              mov ebp,esp
000029BC  53                push ebx
000029BD  83EC24            sub esp,byte +0x24
000029C0  8B450C            mov eax,[ebp+0xc]
000029C3  89442404          mov [esp+0x4],eax
000029C7  8B4508            mov eax,[ebp+0x8]
000029CA  890424            mov [esp],eax
000029CD  E853060000        call 0x3025
000029D2  8B450C            mov eax,[ebp+0xc]
000029D5  8945F4            mov [ebp-0xc],eax
000029D8  EB47              jmp short 0x2a21
000029DA  8D45F4            lea eax,[ebp-0xc]
000029DD  890424            mov [esp],eax
000029E0  E8F3010000        call 0x2bd8
000029E5  8B18              mov ebx,[eax]
000029E7  8D4508            lea eax,[ebp+0x8]
000029EA  890424            mov [esp],eax
000029ED  E8E6010000        call 0x2bd8
000029F2  8B00              mov eax,[eax]
000029F4  39C3              cmp ebx,eax
000029F6  0F9CC0            setl al
000029F9  84C0              test al,al
000029FB  7419              jz 0x2a16
000029FD  8B45F4            mov eax,[ebp-0xc]
00002A00  89442408          mov [esp+0x8],eax
00002A04  8B450C            mov eax,[ebp+0xc]
00002A07  89442404          mov [esp+0x4],eax
00002A0B  8B4508            mov eax,[ebp+0x8]
00002A0E  890424            mov [esp],eax
00002A11  E8F1060000        call 0x3107
00002A16  8D45F4            lea eax,[ebp-0xc]
00002A19  890424            mov [esp],eax
00002A1C  E8A1020000        call 0x2cc2
00002A21  8D4510            lea eax,[ebp+0x10]
00002A24  89442404          mov [esp+0x4],eax
00002A28  8D45F4            lea eax,[ebp-0xc]
00002A2B  890424            mov [esp],eax
00002A2E  E8A8060000        call 0x30db
00002A33  84C0              test al,al
00002A35  75A3              jnz 0x29da
00002A37  EB08              jmp short 0x2a41
00002A39  890424            mov [esp],eax
00002A3C  E8AFDDFFFF        call 0x1000007f0
00002A41  83C424            add esp,byte +0x24
00002A44  5B                pop ebx
00002A45  5D                pop ebp
00002A46  C3                ret
00002A47  55                push ebp
00002A48  89E5              mov ebp,esp
00002A4A  83EC18            sub esp,byte +0x18
00002A4D  EB24              jmp short 0x2a73
00002A4F  8D450C            lea eax,[ebp+0xc]
00002A52  890424            mov [esp],eax
00002A55  E816070000        call 0x3170
00002A5A  8B450C            mov eax,[ebp+0xc]
00002A5D  89442408          mov [esp+0x8],eax
00002A61  8B450C            mov eax,[ebp+0xc]
00002A64  89442404          mov [esp+0x4],eax
00002A68  8B4508            mov eax,[ebp+0x8]
00002A6B  890424            mov [esp],eax
00002A6E  E894060000        call 0x3107
00002A73  8D4508            lea eax,[ebp+0x8]
00002A76  89442404          mov [esp+0x4],eax
00002A7A  8D450C            lea eax,[ebp+0xc]
00002A7D  890424            mov [esp],eax
00002A80  E812F3FFFF        call 0x100001d97
00002A85  83F801            cmp eax,byte +0x1
00002A88  0F9FC0            setg al
00002A8B  84C0              test al,al
00002A8D  75C0              jnz 0x2a4f
00002A8F  C9                leave
00002A90  C3                ret
00002A91  90                nop
00002A92  55                push ebp
00002A93  89E5              mov ebp,esp
00002A95  83EC28            sub esp,byte +0x28
00002A98  8B450C            mov eax,[ebp+0xc]
00002A9B  8B10              mov edx,[eax]
00002A9D  8B4510            mov eax,[ebp+0x10]
00002AA0  8B00              mov eax,[eax]
00002AA2  C1E002            shl eax,0x2
00002AA5  F7D8              neg eax
00002AA7  01D0              add eax,edx
00002AA9  8945F4            mov [ebp-0xc],eax
00002AAC  8D45F4            lea eax,[ebp-0xc]
00002AAF  89442404          mov [esp+0x4],eax
00002AB3  8B4508            mov eax,[ebp+0x8]
00002AB6  890424            mov [esp],eax
00002AB9  E89EF2FFFF        call 0x100001d5c
00002ABE  8B4508            mov eax,[ebp+0x8]
00002AC1  C9                leave
00002AC2  C20400            ret 0x4
00002AC5  55                push ebp
00002AC6  89E5              mov ebp,esp
00002AC8  53                push ebx
00002AC9  83EC14            sub esp,byte +0x14
00002ACC  8D4508            lea eax,[ebp+0x8]
00002ACF  890424            mov [esp],eax
00002AD2  E801010000        call 0x2bd8
00002AD7  8B18              mov ebx,[eax]
00002AD9  8D450C            lea eax,[ebp+0xc]
00002ADC  890424            mov [esp],eax
00002ADF  E8F4000000        call 0x2bd8
00002AE4  8B00              mov eax,[eax]
00002AE6  39C3              cmp ebx,eax
00002AE8  0F9CC0            setl al
00002AEB  84C0              test al,al
00002AED  7475              jz 0x2b64
00002AEF  8D450C            lea eax,[ebp+0xc]
00002AF2  890424            mov [esp],eax
00002AF5  E8DE000000        call 0x2bd8
00002AFA  8B18              mov ebx,[eax]
00002AFC  8D4510            lea eax,[ebp+0x10]
00002AFF  890424            mov [esp],eax
00002B02  E8D1000000        call 0x2bd8
00002B07  8B00              mov eax,[eax]
00002B09  39C3              cmp ebx,eax
00002B0B  0F9CC0            setl al
00002B0E  84C0              test al,al
00002B10  7417              jz 0x2b29
00002B12  8B450C            mov eax,[ebp+0xc]
00002B15  89442404          mov [esp+0x4],eax
00002B19  8B4508            mov eax,[ebp+0x8]
00002B1C  890424            mov [esp],eax
00002B1F  E861060000        call 0x3185
00002B24  E9A9000000        jmp 0x2bd2
00002B29  8D4508            lea eax,[ebp+0x8]
00002B2C  890424            mov [esp],eax
00002B2F  E8A4000000        call 0x2bd8
00002B34  8B18              mov ebx,[eax]
00002B36  8D4510            lea eax,[ebp+0x10]
00002B39  890424            mov [esp],eax
00002B3C  E897000000        call 0x2bd8
00002B41  8B00              mov eax,[eax]
00002B43  39C3              cmp ebx,eax
00002B45  0F9CC0            setl al
00002B48  84C0              test al,al
00002B4A  0F8482000000      jz near 0x2bd2
00002B50  8B4510            mov eax,[ebp+0x10]
00002B53  89442404          mov [esp+0x4],eax
00002B57  8B4508            mov eax,[ebp+0x8]
00002B5A  890424            mov [esp],eax
00002B5D  E823060000        call 0x3185
00002B62  EB6E              jmp short 0x2bd2
00002B64  8D4508            lea eax,[ebp+0x8]
00002B67  890424            mov [esp],eax
00002B6A  E869000000        call 0x2bd8
00002B6F  8B18              mov ebx,[eax]
00002B71  8D4510            lea eax,[ebp+0x10]
00002B74  890424            mov [esp],eax
00002B77  E85C000000        call 0x2bd8
00002B7C  8B00              mov eax,[eax]
00002B7E  39C3              cmp ebx,eax
00002B80  0F9CC0            setl al
00002B83  84C0              test al,al
00002B85  7402              jz 0x2b89
00002B87  EB49              jmp short 0x2bd2
00002B89  8D450C            lea eax,[ebp+0xc]
00002B8C  890424            mov [esp],eax
00002B8F  E844000000        call 0x2bd8
00002B94  8B18              mov ebx,[eax]
00002B96  8D4510            lea eax,[ebp+0x10]
00002B99  890424            mov [esp],eax
00002B9C  E837000000        call 0x2bd8
00002BA1  8B00              mov eax,[eax]
00002BA3  39C3              cmp ebx,eax
00002BA5  0F9CC0            setl al
00002BA8  84C0              test al,al
00002BAA  7414              jz 0x2bc0
00002BAC  8B4510            mov eax,[ebp+0x10]
00002BAF  89442404          mov [esp+0x4],eax
00002BB3  8B4508            mov eax,[ebp+0x8]
00002BB6  890424            mov [esp],eax
00002BB9  E8C7050000        call 0x3185
00002BBE  EB12              jmp short 0x2bd2
00002BC0  8B450C            mov eax,[ebp+0xc]
00002BC3  89442404          mov [esp+0x4],eax
00002BC7  8B4508            mov eax,[ebp+0x8]
00002BCA  890424            mov [esp],eax
00002BCD  E8B3050000        call 0x3185
00002BD2  83C414            add esp,byte +0x14
00002BD5  5B                pop ebx
00002BD6  5D                pop ebp
00002BD7  C3                ret
00002BD8  55                push ebp
00002BD9  89E5              mov ebp,esp
00002BDB  8B4508            mov eax,[ebp+0x8]
00002BDE  8B00              mov eax,[eax]
00002BE0  5D                pop ebp
00002BE1  C3                ret
00002BE2  55                push ebp
00002BE3  89E5              mov ebp,esp
00002BE5  53                push ebx
00002BE6  83EC14            sub esp,byte +0x14
00002BE9  EB0B              jmp short 0x2bf6
00002BEB  8D450C            lea eax,[ebp+0xc]
00002BEE  890424            mov [esp],eax
00002BF1  E8CC000000        call 0x2cc2
00002BF6  8D450C            lea eax,[ebp+0xc]
00002BF9  890424            mov [esp],eax
00002BFC  E8D7FFFFFF        call 0x100002bd8
00002C01  8B10              mov edx,[eax]
00002C03  8B4514            mov eax,[ebp+0x14]
00002C06  8B00              mov eax,[eax]
00002C08  39C2              cmp edx,eax
00002C0A  0F9CC0            setl al
00002C0D  84C0              test al,al
00002C0F  75DA              jnz 0x2beb
00002C11  8D4510            lea eax,[ebp+0x10]
00002C14  890424            mov [esp],eax
00002C17  E854050000        call 0x3170
00002C1C  EB0B              jmp short 0x2c29
00002C1E  8D4510            lea eax,[ebp+0x10]
00002C21  890424            mov [esp],eax
00002C24  E847050000        call 0x3170
00002C29  8B4514            mov eax,[ebp+0x14]
00002C2C  8B18              mov ebx,[eax]
00002C2E  8D4510            lea eax,[ebp+0x10]
00002C31  890424            mov [esp],eax
00002C34  E89FFFFFFF        call 0x100002bd8
00002C39  8B00              mov eax,[eax]
00002C3B  39C3              cmp ebx,eax
00002C3D  0F9CC0            setl al
00002C40  84C0              test al,al
00002C42  75DA              jnz 0x2c1e
00002C44  8D4510            lea eax,[ebp+0x10]
00002C47  89442404          mov [esp+0x4],eax
00002C4B  8D450C            lea eax,[ebp+0xc]
00002C4E  890424            mov [esp],eax
00002C51  E885040000        call 0x30db
00002C56  83F001            xor eax,byte +0x1
00002C59  84C0              test al,al
00002C5B  740A              jz 0x2c67
00002C5D  8B4508            mov eax,[ebp+0x8]
00002C60  8B550C            mov edx,[ebp+0xc]
00002C63  8910              mov [eax],edx
00002C65  EB23              jmp short 0x2c8a
00002C67  8B4510            mov eax,[ebp+0x10]
00002C6A  89442404          mov [esp+0x4],eax
00002C6E  8B450C            mov eax,[ebp+0xc]
00002C71  890424            mov [esp],eax
00002C74  E80C050000        call 0x3185
00002C79  8D450C            lea eax,[ebp+0xc]
00002C7C  890424            mov [esp],eax
00002C7F  E83E000000        call 0x2cc2
00002C84  90                nop
00002C85  E96CFFFFFF        jmp 0x100002bf6
00002C8A  8B4508            mov eax,[ebp+0x8]
00002C8D  83C414            add esp,byte +0x14
00002C90  5B                pop ebx
00002C91  5D                pop ebp
00002C92  C20400            ret 0x4
00002C95  55                push ebp
00002C96  89E5              mov ebp,esp
00002C98  53                push ebx
00002C99  83EC14            sub esp,byte +0x14
00002C9C  8B4508            mov eax,[ebp+0x8]
00002C9F  890424            mov [esp],eax
00002CA2  E87DF7FFFF        call 0x100002424
00002CA7  8B18              mov ebx,[eax]
00002CA9  8B450C            mov eax,[ebp+0xc]
00002CAC  890424            mov [esp],eax
00002CAF  E870F7FFFF        call 0x100002424
00002CB4  8B00              mov eax,[eax]
00002CB6  39C3              cmp ebx,eax
00002CB8  0F94C0            setz al
00002CBB  83C414            add esp,byte +0x14
00002CBE  5B                pop ebx
00002CBF  5D                pop ebp
00002CC0  C3                ret
00002CC1  90                nop
00002CC2  55                push ebp
00002CC3  89E5              mov ebp,esp
00002CC5  8B4508            mov eax,[ebp+0x8]
00002CC8  8B00              mov eax,[eax]
00002CCA  8D5004            lea edx,[eax+0x4]
00002CCD  8B4508            mov eax,[ebp+0x8]
00002CD0  8910              mov [eax],edx
00002CD2  8B4508            mov eax,[ebp+0x8]
00002CD5  5D                pop ebp
00002CD6  C3                ret
00002CD7  55                push ebp
00002CD8  89E5              mov ebp,esp
00002CDA  83EC28            sub esp,byte +0x28
00002CDD  8D45F0            lea eax,[ebp-0x10]
00002CE0  8B5510            mov edx,[ebp+0x10]
00002CE3  89542404          mov [esp+0x4],edx
00002CE7  890424            mov [esp],eax
00002CEA  E8B0040000        call 0x319f
00002CEF  83EC04            sub esp,byte +0x4
00002CF2  8D45F4            lea eax,[ebp-0xc]
00002CF5  8B550C            mov edx,[ebp+0xc]
00002CF8  89542404          mov [esp+0x4],edx
00002CFC  890424            mov [esp],eax
00002CFF  E89B040000        call 0x319f
00002D04  83EC04            sub esp,byte +0x4
00002D07  8B4508            mov eax,[ebp+0x8]
00002D0A  8B5514            mov edx,[ebp+0x14]
00002D0D  8954240C          mov [esp+0xc],edx
00002D11  8B55F0            mov edx,[ebp-0x10]
00002D14  89542408          mov [esp+0x8],edx
00002D18  8B55F4            mov edx,[ebp-0xc]
00002D1B  89542404          mov [esp+0x4],edx
00002D1F  890424            mov [esp],eax
00002D22  E89A040000        call 0x31c1
00002D27  83EC04            sub esp,byte +0x4
00002D2A  8B4508            mov eax,[ebp+0x8]
00002D2D  C9                leave
00002D2E  C20400            ret 0x4
00002D31  55                push ebp
00002D32  89E5              mov ebp,esp
00002D34  53                push ebx
00002D35  83EC24            sub esp,byte +0x24
00002D38  8D4508            lea eax,[ebp+0x8]
00002D3B  890424            mov [esp],eax
00002D3E  E895FEFFFF        call 0x100002bd8
00002D43  8B00              mov eax,[eax]
00002D45  8945F4            mov [ebp-0xc],eax
00002D48  8B4508            mov eax,[ebp+0x8]
00002D4B  8945F0            mov [ebp-0x10],eax
00002D4E  8D45F0            lea eax,[ebp-0x10]
00002D51  890424            mov [esp],eax
00002D54  E817040000        call 0x3170
00002D59  EB2D              jmp short 0x2d88
00002D5B  8D4508            lea eax,[ebp+0x8]
00002D5E  890424            mov [esp],eax
00002D61  E872FEFFFF        call 0x100002bd8
00002D66  89C3              mov ebx,eax
00002D68  8D45F0            lea eax,[ebp-0x10]
00002D6B  890424            mov [esp],eax
00002D6E  E865FEFFFF        call 0x100002bd8
00002D73  8B00              mov eax,[eax]
00002D75  8903              mov [ebx],eax
00002D77  8B45F0            mov eax,[ebp-0x10]
00002D7A  894508            mov [ebp+0x8],eax
00002D7D  8D45F0            lea eax,[ebp-0x10]
00002D80  890424            mov [esp],eax
00002D83  E8E8030000        call 0x3170
00002D88  8D45F0            lea eax,[ebp-0x10]
00002D8B  890424            mov [esp],eax
00002D8E  E845FEFFFF        call 0x100002bd8
00002D93  8B00              mov eax,[eax]
00002D95  3B45F4            cmp eax,[ebp-0xc]
00002D98  0F9FC0            setg al
00002D9B  84C0              test al,al
00002D9D  75BC              jnz 0x2d5b
00002D9F  8D4508            lea eax,[ebp+0x8]
00002DA2  890424            mov [esp],eax
00002DA5  E82EFEFFFF        call 0x100002bd8
00002DAA  8B55F4            mov edx,[ebp-0xc]
00002DAD  8910              mov [eax],edx
00002DAF  83C424            add esp,byte +0x24
00002DB2  5B                pop ebx
00002DB3  5D                pop ebp
00002DB4  C3                ret
00002DB5  90                nop
00002DB6  55                push ebp
00002DB7  89E5              mov ebp,esp
00002DB9  5D                pop ebp
00002DBA  C3                ret
00002DBB  90                nop
00002DBC  55                push ebp
00002DBD  89E5              mov ebp,esp
00002DBF  5D                pop ebp
00002DC0  C3                ret
00002DC1  90                nop
00002DC2  55                push ebp
00002DC3  89E5              mov ebp,esp
00002DC5  83EC18            sub esp,byte +0x18
00002DC8  8B4508            mov eax,[ebp+0x8]
00002DCB  890424            mov [esp],eax
00002DCE  E84D040000        call 0x3220
00002DD3  3B450C            cmp eax,[ebp+0xc]
00002DD6  0F92C0            setc al
00002DD9  84C0              test al,al
00002DDB  7405              jz 0x2de2
00002DDD  E8DED9FFFF        call 0x1000007c0
00002DE2  8B550C            mov edx,[ebp+0xc]
00002DE5  89D0              mov eax,edx
00002DE7  01C0              add eax,eax
00002DE9  01D0              add eax,edx
00002DEB  C1E002            shl eax,0x2
00002DEE  890424            mov [esp],eax
00002DF1  E88AD9FFFF        call 0x100000780
00002DF6  C9                leave
00002DF7  C3                ret
00002DF8  55                push ebp
00002DF9  89E5              mov ebp,esp
00002DFB  53                push ebx
00002DFC  83EC24            sub esp,byte +0x24
00002DFF  8B4508            mov eax,[ebp+0x8]
00002E02  8945F4            mov [ebp-0xc],eax
00002E05  EB21              jmp short 0x2e28
00002E07  8B45F4            mov eax,[ebp-0xc]
00002E0A  890424            mov [esp],eax
00002E0D  E854000000        call 0x2e66
00002E12  8B5510            mov edx,[ebp+0x10]
00002E15  89542404          mov [esp+0x4],edx
00002E19  890424            mov [esp],eax
00002E1C  E809040000        call 0x322a
00002E21  FF4D0C            dec dword [ebp+0xc]
00002E24  8345F40C          add dword [ebp-0xc],byte +0xc
00002E28  837D0C00          cmp dword [ebp+0xc],byte +0x0
00002E2C  75D9              jnz 0x2e07
00002E2E  EB30              jmp short 0x2e60
00002E30  89C3              mov ebx,eax
00002E32  E879D9FFFF        call 0x1000007b0
00002E37  89D8              mov eax,ebx
00002E39  890424            mov [esp],eax
00002E3C  E8AFD9FFFF        call 0x1000007f0
00002E41  890424            mov [esp],eax
00002E44  E887D9FFFF        call 0x1000007d0
00002E49  8B45F4            mov eax,[ebp-0xc]
00002E4C  89442404          mov [esp+0x4],eax
00002E50  8B4508            mov eax,[ebp+0x8]
00002E53  890424            mov [esp],eax
00002E56  E8FDF1FFFF        call 0x100002058
00002E5B  E8C0D8FFFF        call 0x100000720
00002E60  83C424            add esp,byte +0x24
00002E63  5B                pop ebx
00002E64  5D                pop ebp
00002E65  C3                ret
00002E66  55                push ebp
00002E67  89E5              mov ebp,esp
00002E69  8B4508            mov eax,[ebp+0x8]
00002E6C  5D                pop ebp
00002E6D  C3                ret
00002E6E  55                push ebp
00002E6F  89E5              mov ebp,esp
00002E71  83EC18            sub esp,byte +0x18
00002E74  8B4508            mov eax,[ebp+0x8]
00002E77  890424            mov [esp],eax
00002E7A  E829E1FFFF        call 0x100000fa8
00002E7F  C9                leave
00002E80  C3                ret
00002E81  55                push ebp
00002E82  89E5              mov ebp,esp
00002E84  8B4508            mov eax,[ebp+0x8]
00002E87  5D                pop ebp
00002E88  C3                ret
00002E89  55                push ebp
00002E8A  89E5              mov ebp,esp
00002E8C  83EC18            sub esp,byte +0x18
00002E8F  8B4508            mov eax,[ebp+0x8]
00002E92  890424            mov [esp],eax
00002E95  E8E7FFFFFF        call 0x100002e81
00002E9A  C9                leave
00002E9B  C3                ret
00002E9C  55                push ebp
00002E9D  89E5              mov ebp,esp
00002E9F  83EC28            sub esp,byte +0x28
00002EA2  C645F700          mov byte [ebp-0x9],0x0
00002EA6  8B4510            mov eax,[ebp+0x10]
00002EA9  89442408          mov [esp+0x8],eax
00002EAD  8B450C            mov eax,[ebp+0xc]
00002EB0  89442404          mov [esp+0x4],eax
00002EB4  8B4508            mov eax,[ebp+0x8]
00002EB7  890424            mov [esp],eax
00002EBA  E8C0030000        call 0x327f
00002EBF  C9                leave
00002EC0  C3                ret
00002EC1  55                push ebp
00002EC2  89E5              mov ebp,esp
00002EC4  83EC18            sub esp,byte +0x18
00002EC7  8B4508            mov eax,[ebp+0x8]
00002ECA  890424            mov [esp],eax
00002ECD  E80A000000        call 0x2edc
00002ED2  C9                leave
00002ED3  C3                ret
00002ED4  55                push ebp
00002ED5  89E5              mov ebp,esp
00002ED7  8B4508            mov eax,[ebp+0x8]
00002EDA  5D                pop ebp
00002EDB  C3                ret
00002EDC  55                push ebp
00002EDD  89E5              mov ebp,esp
00002EDF  B8FFFFFF1F        mov eax,0x1fffffff
00002EE4  5D                pop ebp
00002EE5  C3                ret
00002EE6  55                push ebp
00002EE7  89E5              mov ebp,esp
00002EE9  83EC18            sub esp,byte +0x18
00002EEC  8B4510            mov eax,[ebp+0x10]
00002EEF  89442408          mov [esp+0x8],eax
00002EF3  8B450C            mov eax,[ebp+0xc]
00002EF6  89442404          mov [esp+0x4],eax
00002EFA  8B4508            mov eax,[ebp+0x8]
00002EFD  890424            mov [esp],eax
00002F00  E8B8030000        call 0x32bd
00002F05  C9                leave
00002F06  C3                ret
00002F07  90                nop
00002F08  55                push ebp
00002F09  89E5              mov ebp,esp
00002F0B  5D                pop ebp
00002F0C  C3                ret
00002F0D  90                nop
00002F0E  55                push ebp
00002F0F  89E5              mov ebp,esp
00002F11  83EC18            sub esp,byte +0x18
00002F14  8B4508            mov eax,[ebp+0x8]
00002F17  890424            mov [esp],eax
00002F1A  E8DB030000        call 0x32fa
00002F1F  3B450C            cmp eax,[ebp+0xc]
00002F22  0F92C0            setc al
00002F25  84C0              test al,al
00002F27  7405              jz 0x2f2e
00002F29  E892D8FFFF        call 0x1000007c0
00002F2E  8B450C            mov eax,[ebp+0xc]
00002F31  C1E002            shl eax,0x2
00002F34  890424            mov [esp],eax
00002F37  E844D8FFFF        call 0x100000780
00002F3C  C9                leave
00002F3D  C3                ret
00002F3E  55                push ebp
00002F3F  89E5              mov ebp,esp
00002F41  83EC18            sub esp,byte +0x18
00002F44  8B4510            mov eax,[ebp+0x10]
00002F47  89442408          mov [esp+0x8],eax
00002F4B  8B450C            mov eax,[ebp+0xc]
00002F4E  89442404          mov [esp+0x4],eax
00002F52  8B4508            mov eax,[ebp+0x8]
00002F55  890424            mov [esp],eax
00002F58  E8A7030000        call 0x3304
00002F5D  C9                leave
00002F5E  C3                ret
00002F5F  90                nop
00002F60  55                push ebp
00002F61  89E5              mov ebp,esp
00002F63  5D                pop ebp
00002F64  C3                ret
00002F65  90                nop
00002F66  55                push ebp
00002F67  89E5              mov ebp,esp
00002F69  83EC18            sub esp,byte +0x18
00002F6C  8B4508            mov eax,[ebp+0x8]
00002F6F  890424            mov [esp],eax
00002F72  E8B7030000        call 0x332e
00002F77  3B450C            cmp eax,[ebp+0xc]
00002F7A  0F92C0            setc al
00002F7D  84C0              test al,al
00002F7F  7405              jz 0x2f86
00002F81  E83AD8FFFF        call 0x1000007c0
00002F86  8B550C            mov edx,[ebp+0xc]
00002F89  89D0              mov eax,edx
00002F8B  01C0              add eax,eax
00002F8D  01D0              add eax,edx
00002F8F  C1E002            shl eax,0x2
00002F92  890424            mov [esp],eax
00002F95  E8E6D7FFFF        call 0x100000780
00002F9A  C9                leave
00002F9B  C3                ret
00002F9C  55                push ebp
00002F9D  89E5              mov ebp,esp
00002F9F  53                push ebx
00002FA0  83EC24            sub esp,byte +0x24
00002FA3  8B4508            mov eax,[ebp+0x8]
00002FA6  8945F4            mov [ebp-0xc],eax
00002FA9  EB21              jmp short 0x2fcc
00002FAB  8B45F4            mov eax,[ebp-0xc]
00002FAE  890424            mov [esp],eax
00002FB1  E854000000        call 0x300a
00002FB6  8B5510            mov edx,[ebp+0x10]
00002FB9  89542404          mov [esp+0x4],edx
00002FBD  890424            mov [esp],eax
00002FC0  E873030000        call 0x3338
00002FC5  FF4D0C            dec dword [ebp+0xc]
00002FC8  8345F40C          add dword [ebp-0xc],byte +0xc
00002FCC  837D0C00          cmp dword [ebp+0xc],byte +0x0
00002FD0  75D9              jnz 0x2fab
00002FD2  EB30              jmp short 0x3004
00002FD4  89C3              mov ebx,eax
00002FD6  E8D5D7FFFF        call 0x1000007b0
00002FDB  89D8              mov eax,ebx
00002FDD  890424            mov [esp],eax
00002FE0  E80BD8FFFF        call 0x1000007f0
00002FE5  890424            mov [esp],eax
00002FE8  E8E3D7FFFF        call 0x1000007d0
00002FED  8B45F4            mov eax,[ebp-0xc]
00002FF0  89442404          mov [esp+0x4],eax
00002FF4  8B4508            mov eax,[ebp+0x8]
00002FF7  890424            mov [esp],eax
00002FFA  E80BF4FFFF        call 0x10000240a
00002FFF  E81CD7FFFF        call 0x100000720
00003004  83C424            add esp,byte +0x24
00003007  5B                pop ebx
00003008  5D                pop ebp
00003009  C3                ret
0000300A  55                push ebp
0000300B  89E5              mov ebp,esp
0000300D  8B4508            mov eax,[ebp+0x8]
00003010  5D                pop ebp
00003011  C3                ret
00003012  55                push ebp
00003013  89E5              mov ebp,esp
00003015  83EC18            sub esp,byte +0x18
00003018  8B4508            mov eax,[ebp+0x8]
0000301B  890424            mov [esp],eax
0000301E  E8AFE2FFFF        call 0x1000012d2
00003023  C9                leave
00003024  C3                ret
00003025  55                push ebp
00003026  89E5              mov ebp,esp
00003028  83EC28            sub esp,byte +0x28
0000302B  8D4508            lea eax,[ebp+0x8]
0000302E  89442404          mov [esp+0x4],eax
00003032  8D450C            lea eax,[ebp+0xc]
00003035  890424            mov [esp],eax
00003038  E85AEDFFFF        call 0x100001d97
0000303D  83F801            cmp eax,byte +0x1
00003040  0F9EC0            setng al
00003043  84C0              test al,al
00003045  7405              jz 0x304c
00003047  E98D000000        jmp 0x30d9
0000304C  8D4508            lea eax,[ebp+0x8]
0000304F  89442404          mov [esp+0x4],eax
00003053  8D450C            lea eax,[ebp+0xc]
00003056  890424            mov [esp],eax
00003059  E839EDFFFF        call 0x100001d97
0000305E  8945F4            mov [ebp-0xc],eax
00003061  8B45F4            mov eax,[ebp-0xc]
00003064  83E802            sub eax,byte +0x2
00003067  89C2              mov edx,eax
00003069  C1EA1F            shr edx,0x1f
0000306C  01D0              add eax,edx
0000306E  D1F8              sar eax,1
00003070  8945E8            mov [ebp-0x18],eax
00003073  8D45EC            lea eax,[ebp-0x14]
00003076  8D55E8            lea edx,[ebp-0x18]
00003079  89542408          mov [esp+0x8],edx
0000307D  8D4D08            lea ecx,[ebp+0x8]
00003080  894C2404          mov [esp+0x4],ecx
00003084  890424            mov [esp],eax
00003087  E8B6F4FFFF        call 0x100002542
0000308C  83EC04            sub esp,byte +0x4
0000308F  8D45EC            lea eax,[ebp-0x14]
00003092  890424            mov [esp],eax
00003095  E83EFBFFFF        call 0x100002bd8
0000309A  8B00              mov eax,[eax]
0000309C  8945F0            mov [ebp-0x10],eax
0000309F  8B45E8            mov eax,[ebp-0x18]
000030A2  8B55F0            mov edx,[ebp-0x10]
000030A5  8954240C          mov [esp+0xc],edx
000030A9  8B55F4            mov edx,[ebp-0xc]
000030AC  89542408          mov [esp+0x8],edx
000030B0  89442404          mov [esp+0x4],eax
000030B4  8B4508            mov eax,[ebp+0x8]
000030B7  890424            mov [esp],eax
000030BA  E8CE020000        call 0x338d
000030BF  8B45E8            mov eax,[ebp-0x18]
000030C2  85C0              test eax,eax
000030C4  7502              jnz 0x30c8
000030C6  EB11              jmp short 0x30d9
000030C8  8B45E8            mov eax,[ebp-0x18]
000030CB  48                dec eax
000030CC  8945E8            mov [ebp-0x18],eax
000030CF  EBA2              jmp short 0x3073
000030D1  890424            mov [esp],eax
000030D4  E817D7FFFF        call 0x1000007f0
000030D9  C9                leave
000030DA  C3                ret
000030DB  55                push ebp
000030DC  89E5              mov ebp,esp
000030DE  53                push ebx
000030DF  83EC14            sub esp,byte +0x14
000030E2  8B4508            mov eax,[ebp+0x8]
000030E5  890424            mov [esp],eax
000030E8  E837F3FFFF        call 0x100002424
000030ED  8B18              mov ebx,[eax]
000030EF  8B450C            mov eax,[ebp+0xc]
000030F2  890424            mov [esp],eax
000030F5  E82AF3FFFF        call 0x100002424
000030FA  8B00              mov eax,[eax]
000030FC  39C3              cmp ebx,eax
000030FE  0F92C0            setc al
00003101  83C414            add esp,byte +0x14
00003104  5B                pop ebx
00003105  5D                pop ebp
00003106  C3                ret
00003107  55                push ebp
00003108  89E5              mov ebp,esp
0000310A  53                push ebx
0000310B  83EC24            sub esp,byte +0x24
0000310E  8D4510            lea eax,[ebp+0x10]
00003111  890424            mov [esp],eax
00003114  E8BFFAFFFF        call 0x100002bd8
00003119  8B00              mov eax,[eax]
0000311B  8945F4            mov [ebp-0xc],eax
0000311E  8D4510            lea eax,[ebp+0x10]
00003121  890424            mov [esp],eax
00003124  E8AFFAFFFF        call 0x100002bd8
00003129  89C3              mov ebx,eax
0000312B  8D4508            lea eax,[ebp+0x8]
0000312E  890424            mov [esp],eax
00003131  E8A2FAFFFF        call 0x100002bd8
00003136  8B00              mov eax,[eax]
00003138  8903              mov [ebx],eax
0000313A  8D4508            lea eax,[ebp+0x8]
0000313D  89442404          mov [esp+0x4],eax
00003141  8D450C            lea eax,[ebp+0xc]
00003144  890424            mov [esp],eax
00003147  E84BECFFFF        call 0x100001d97
0000314C  8B55F4            mov edx,[ebp-0xc]
0000314F  8954240C          mov [esp+0xc],edx
00003153  89442408          mov [esp+0x8],eax
00003157  C744240400000000  mov dword [esp+0x4],0x0
0000315F  8B4508            mov eax,[ebp+0x8]
00003162  890424            mov [esp],eax
00003165  E823020000        call 0x338d
0000316A  83C424            add esp,byte +0x24
0000316D  5B                pop ebx
0000316E  5D                pop ebp
0000316F  C3                ret
00003170  55                push ebp
00003171  89E5              mov ebp,esp
00003173  8B4508            mov eax,[ebp+0x8]
00003176  8B00              mov eax,[eax]
00003178  8D50FC            lea edx,[eax-0x4]
0000317B  8B4508            mov eax,[ebp+0x8]
0000317E  8910              mov [eax],edx
00003180  8B4508            mov eax,[ebp+0x8]
00003183  5D                pop ebp
00003184  C3                ret
00003185  55                push ebp
00003186  89E5              mov ebp,esp
00003188  83EC18            sub esp,byte +0x18
0000318B  8B450C            mov eax,[ebp+0xc]
0000318E  89442404          mov [esp+0x4],eax
00003192  8B4508            mov eax,[ebp+0x8]
00003195  890424            mov [esp],eax
00003198  E8A9030000        call 0x3546
0000319D  C9                leave
0000319E  C3                ret
0000319F  55                push ebp
000031A0  89E5              mov ebp,esp
000031A2  83EC18            sub esp,byte +0x18
000031A5  8B4508            mov eax,[ebp+0x8]
000031A8  8B550C            mov edx,[ebp+0xc]
000031AB  89542404          mov [esp+0x4],edx
000031AF  890424            mov [esp],eax
000031B2  E8C0030000        call 0x3577
000031B7  83EC04            sub esp,byte +0x4
000031BA  8B4508            mov eax,[ebp+0x8]
000031BD  C9                leave
000031BE  C20400            ret 0x4
000031C1  55                push ebp
000031C2  89E5              mov ebp,esp
000031C4  56                push esi
000031C5  53                push ebx
000031C6  83EC20            sub esp,byte +0x20
000031C9  8B4514            mov eax,[ebp+0x14]
000031CC  890424            mov [esp],eax
000031CF  E8B5030000        call 0x3589
000031D4  89C6              mov esi,eax
000031D6  8B4510            mov eax,[ebp+0x10]
000031D9  890424            mov [esp],eax
000031DC  E8A8030000        call 0x3589
000031E1  89C3              mov ebx,eax
000031E3  8B450C            mov eax,[ebp+0xc]
000031E6  890424            mov [esp],eax
000031E9  E89B030000        call 0x3589
000031EE  89742408          mov [esp+0x8],esi
000031F2  895C2404          mov [esp+0x4],ebx
000031F6  890424            mov [esp],eax
000031F9  E89E030000        call 0x359c
000031FE  8945F4            mov [ebp-0xc],eax
00003201  8D45F4            lea eax,[ebp-0xc]
00003204  89442404          mov [esp+0x4],eax
00003208  8B4508            mov eax,[ebp+0x8]
0000320B  890424            mov [esp],eax
0000320E  E849EBFFFF        call 0x100001d5c
00003213  8B4508            mov eax,[ebp+0x8]
00003216  83C420            add esp,byte +0x20
00003219  5B                pop ebx
0000321A  5E                pop esi
0000321B  5D                pop ebp
0000321C  C20400            ret 0x4
0000321F  90                nop
00003220  55                push ebp
00003221  89E5              mov ebp,esp
00003223  B855555515        mov eax,0x15555555
00003228  5D                pop ebp
00003229  C3                ret
0000322A  55                push ebp
0000322B  89E5              mov ebp,esp
0000322D  57                push edi
0000322E  56                push esi
0000322F  53                push ebx
00003230  83EC1C            sub esp,byte +0x1c
00003233  8B7508            mov esi,[ebp+0x8]
00003236  89742404          mov [esp+0x4],esi
0000323A  C704240C000000    mov dword [esp],0xc
00003241  E840DDFFFF        call 0x100000f86
00003246  89C3              mov ebx,eax
00003248  85DB              test ebx,ebx
0000324A  7411              jz 0x325d
0000324C  8B450C            mov eax,[ebp+0xc]
0000324F  89442404          mov [esp+0x4],eax
00003253  891C24            mov [esp],ebx
00003256  E867030000        call 0x35c2
0000325B  EB1A              jmp short 0x3277
0000325D  EB18              jmp short 0x3277
0000325F  89C7              mov edi,eax
00003261  89742404          mov [esp+0x4],esi
00003265  891C24            mov [esp],ebx
00003268  E821DDFFFF        call 0x100000f8e
0000326D  89F8              mov eax,edi
0000326F  890424            mov [esp],eax
00003272  E879D5FFFF        call 0x1000007f0
00003277  83C41C            add esp,byte +0x1c
0000327A  5B                pop ebx
0000327B  5E                pop esi
0000327C  5F                pop edi
0000327D  5D                pop ebp
0000327E  C3                ret
0000327F  55                push ebp
00003280  89E5              mov ebp,esp
00003282  83EC10            sub esp,byte +0x10
00003285  8B550C            mov edx,[ebp+0xc]
00003288  8B4508            mov eax,[ebp+0x8]
0000328B  29C2              sub edx,eax
0000328D  89D0              mov eax,edx
0000328F  C1F803            sar eax,0x3
00003292  8945FC            mov [ebp-0x4],eax
00003295  EB1B              jmp short 0x32b2
00003297  836D1008          sub dword [ebp+0x10],byte +0x8
0000329B  8B4D10            mov ecx,[ebp+0x10]
0000329E  836D0C08          sub dword [ebp+0xc],byte +0x8
000032A2  8B450C            mov eax,[ebp+0xc]
000032A5  8B5004            mov edx,[eax+0x4]
000032A8  8B00              mov eax,[eax]
000032AA  8901              mov [ecx],eax
000032AC  895104            mov [ecx+0x4],edx
000032AF  FF4DFC            dec dword [ebp-0x4]
000032B2  837DFC00          cmp dword [ebp-0x4],byte +0x0
000032B6  7FDF              jg 0x3297
000032B8  8B4510            mov eax,[ebp+0x10]
000032BB  C9                leave
000032BC  C3                ret
000032BD  55                push ebp
000032BE  89E5              mov ebp,esp
000032C0  83EC28            sub esp,byte +0x28
000032C3  8B4510            mov eax,[ebp+0x10]
000032C6  8945F4            mov [ebp-0xc],eax
000032C9  EB22              jmp short 0x32ed
000032CB  8B45F4            mov eax,[ebp-0xc]
000032CE  890424            mov [esp],eax
000032D1  E8A3030000        call 0x3679
000032D6  8B5508            mov edx,[ebp+0x8]
000032D9  89542404          mov [esp+0x4],edx
000032DD  890424            mov [esp],eax
000032E0  E89C030000        call 0x3681
000032E5  83450808          add dword [ebp+0x8],byte +0x8
000032E9  8345F408          add dword [ebp-0xc],byte +0x8
000032ED  8B4508            mov eax,[ebp+0x8]
000032F0  3B450C            cmp eax,[ebp+0xc]
000032F3  75D6              jnz 0x32cb
000032F5  8B45F4            mov eax,[ebp-0xc]
000032F8  C9                leave
000032F9  C3                ret
000032FA  55                push ebp
000032FB  89E5              mov ebp,esp
000032FD  B8FFFFFF3F        mov eax,0x3fffffff
00003302  5D                pop ebp
00003303  C3                ret
00003304  55                push ebp
00003305  89E5              mov ebp,esp
00003307  83EC18            sub esp,byte +0x18
0000330A  8B4508            mov eax,[ebp+0x8]
0000330D  890424            mov [esp],eax
00003310  E89A030000        call 0x36af
00003315  8B5510            mov edx,[ebp+0x10]
00003318  89542408          mov [esp+0x8],edx
0000331C  8B550C            mov edx,[ebp+0xc]
0000331F  89542404          mov [esp+0x4],edx
00003323  890424            mov [esp],eax
00003326  E897030000        call 0x36c2
0000332B  C9                leave
0000332C  C3                ret
0000332D  90                nop
0000332E  55                push ebp
0000332F  89E5              mov ebp,esp
00003331  B855555515        mov eax,0x15555555
00003336  5D                pop ebp
00003337  C3                ret
00003338  55                push ebp
00003339  89E5              mov ebp,esp
0000333B  57                push edi
0000333C  56                push esi
0000333D  53                push ebx
0000333E  83EC1C            sub esp,byte +0x1c
00003341  8B7508            mov esi,[ebp+0x8]
00003344  89742404          mov [esp+0x4],esi
00003348  C704240C000000    mov dword [esp],0xc
0000334F  E832DCFFFF        call 0x100000f86
00003354  89C3              mov ebx,eax
00003356  85DB              test ebx,ebx
00003358  7411              jz 0x336b
0000335A  8B450C            mov eax,[ebp+0xc]
0000335D  89442404          mov [esp+0x4],eax
00003361  891C24            mov [esp],ebx
00003364  E889030000        call 0x36f2
00003369  EB1A              jmp short 0x3385
0000336B  EB18              jmp short 0x3385
0000336D  89C7              mov edi,eax
0000336F  89742404          mov [esp+0x4],esi
00003373  891C24            mov [esp],ebx
00003376  E813DCFFFF        call 0x100000f8e
0000337B  89F8              mov eax,edi
0000337D  890424            mov [esp],eax
00003380  E86BD4FFFF        call 0x1000007f0
00003385  83C41C            add esp,byte +0x1c
00003388  5B                pop ebx
00003389  5E                pop esi
0000338A  5F                pop edi
0000338B  5D                pop ebp
0000338C  C3                ret
0000338D  55                push ebp
0000338E  89E5              mov ebp,esp
00003390  57                push edi
00003391  56                push esi
00003392  53                push ebx
00003393  83EC4C            sub esp,byte +0x4c
00003396  8B450C            mov eax,[ebp+0xc]
00003399  8945E4            mov [ebp-0x1c],eax
0000339C  8B450C            mov eax,[ebp+0xc]
0000339F  8945C0            mov [ebp-0x40],eax
000033A2  E9CC000000        jmp 0x3473
000033A7  8B45C0            mov eax,[ebp-0x40]
000033AA  40                inc eax
000033AB  01C0              add eax,eax
000033AD  8945C0            mov [ebp-0x40],eax
000033B0  8D45C4            lea eax,[ebp-0x3c]
000033B3  8D55C0            lea edx,[ebp-0x40]
000033B6  89542408          mov [esp+0x8],edx
000033BA  8D4D08            lea ecx,[ebp+0x8]
000033BD  894C2404          mov [esp+0x4],ecx
000033C1  890424            mov [esp],eax
000033C4  E879F1FFFF        call 0x100002542
000033C9  83EC04            sub esp,byte +0x4
000033CC  8D45C4            lea eax,[ebp-0x3c]
000033CF  890424            mov [esp],eax
000033D2  E801F8FFFF        call 0x100002bd8
000033D7  8B18              mov ebx,[eax]
000033D9  8B45C0            mov eax,[ebp-0x40]
000033DC  48                dec eax
000033DD  8945CC            mov [ebp-0x34],eax
000033E0  8D45C8            lea eax,[ebp-0x38]
000033E3  8D55CC            lea edx,[ebp-0x34]
000033E6  89542408          mov [esp+0x8],edx
000033EA  8D7508            lea esi,[ebp+0x8]
000033ED  89742404          mov [esp+0x4],esi
000033F1  890424            mov [esp],eax
000033F4  E849F1FFFF        call 0x100002542
000033F9  83EC04            sub esp,byte +0x4
000033FC  8D45C8            lea eax,[ebp-0x38]
000033FF  890424            mov [esp],eax
00003402  E8D1F7FFFF        call 0x100002bd8
00003407  8B00              mov eax,[eax]
00003409  39C3              cmp ebx,eax
0000340B  0F9CC0            setl al
0000340E  84C0              test al,al
00003410  7407              jz 0x3419
00003412  8B45C0            mov eax,[ebp-0x40]
00003415  48                dec eax
00003416  8945C0            mov [ebp-0x40],eax
00003419  8D45D0            lea eax,[ebp-0x30]
0000341C  8D550C            lea edx,[ebp+0xc]
0000341F  89542408          mov [esp+0x8],edx
00003423  8D7D08            lea edi,[ebp+0x8]
00003426  897C2404          mov [esp+0x4],edi
0000342A  890424            mov [esp],eax
0000342D  E810F1FFFF        call 0x100002542
00003432  83EC04            sub esp,byte +0x4
00003435  8D45D0            lea eax,[ebp-0x30]
00003438  890424            mov [esp],eax
0000343B  E898F7FFFF        call 0x100002bd8
00003440  89C3              mov ebx,eax
00003442  8D45D4            lea eax,[ebp-0x2c]
00003445  8D55C0            lea edx,[ebp-0x40]
00003448  89542408          mov [esp+0x8],edx
0000344C  8D4D08            lea ecx,[ebp+0x8]
0000344F  894C2404          mov [esp+0x4],ecx
00003453  890424            mov [esp],eax
00003456  E8E7F0FFFF        call 0x100002542
0000345B  83EC04            sub esp,byte +0x4
0000345E  8D45D4            lea eax,[ebp-0x2c]
00003461  890424            mov [esp],eax
00003464  E86FF7FFFF        call 0x100002bd8
00003469  8B00              mov eax,[eax]
0000346B  8903              mov [ebx],eax
0000346D  8B45C0            mov eax,[ebp-0x40]
00003470  89450C            mov [ebp+0xc],eax
00003473  8B4510            mov eax,[ebp+0x10]
00003476  48                dec eax
00003477  89C2              mov edx,eax
00003479  C1EA1F            shr edx,0x1f
0000347C  01D0              add eax,edx
0000347E  D1F8              sar eax,1
00003480  89C2              mov edx,eax
00003482  8B45C0            mov eax,[ebp-0x40]
00003485  39C2              cmp edx,eax
00003487  0F8F1AFFFFFF      jg near 0x1000033a7
0000348D  8B4510            mov eax,[ebp+0x10]
00003490  83E001            and eax,byte +0x1
00003493  85C0              test eax,eax
00003495  0F8583000000      jnz near 0x351e
0000349B  8B4510            mov eax,[ebp+0x10]
0000349E  83E802            sub eax,byte +0x2
000034A1  89C2              mov edx,eax
000034A3  C1EA1F            shr edx,0x1f
000034A6  01D0              add eax,edx
000034A8  D1F8              sar eax,1
000034AA  89C2              mov edx,eax
000034AC  8B45C0            mov eax,[ebp-0x40]
000034AF  39C2              cmp edx,eax
000034B1  756B              jnz 0x351e
000034B3  8B45C0            mov eax,[ebp-0x40]
000034B6  40                inc eax
000034B7  01C0              add eax,eax
000034B9  8945C0            mov [ebp-0x40],eax
000034BC  8D45D8            lea eax,[ebp-0x28]
000034BF  8D550C            lea edx,[ebp+0xc]
000034C2  89542408          mov [esp+0x8],edx
000034C6  8D7508            lea esi,[ebp+0x8]
000034C9  89742404          mov [esp+0x4],esi
000034CD  890424            mov [esp],eax
000034D0  E86DF0FFFF        call 0x100002542
000034D5  83EC04            sub esp,byte +0x4
000034D8  8D45D8            lea eax,[ebp-0x28]
000034DB  890424            mov [esp],eax
000034DE  E8F5F6FFFF        call 0x100002bd8
000034E3  89C3              mov ebx,eax
000034E5  8B45C0            mov eax,[ebp-0x40]
000034E8  48                dec eax
000034E9  8945E0            mov [ebp-0x20],eax
000034EC  8D45DC            lea eax,[ebp-0x24]
000034EF  8D55E0            lea edx,[ebp-0x20]
000034F2  89542408          mov [esp+0x8],edx
000034F6  8D7D08            lea edi,[ebp+0x8]
000034F9  897C2404          mov [esp+0x4],edi
000034FD  890424            mov [esp],eax
00003500  E83DF0FFFF        call 0x100002542
00003505  83EC04            sub esp,byte +0x4
00003508  8D45DC            lea eax,[ebp-0x24]
0000350B  890424            mov [esp],eax
0000350E  E8C5F6FFFF        call 0x100002bd8
00003513  8B00              mov eax,[eax]
00003515  8903              mov [ebx],eax
00003517  8B45C0            mov eax,[ebp-0x40]
0000351A  48                dec eax
0000351B  89450C            mov [ebp+0xc],eax
0000351E  8B450C            mov eax,[ebp+0xc]
00003521  8B5514            mov edx,[ebp+0x14]
00003524  8954240C          mov [esp+0xc],edx
00003528  8B55E4            mov edx,[ebp-0x1c]
0000352B  89542408          mov [esp+0x8],edx
0000352F  89442404          mov [esp+0x4],eax
00003533  8B4508            mov eax,[ebp+0x8]
00003536  890424            mov [esp],eax
00003539  E86B020000        call 0x37a9
0000353E  8D65F4            lea esp,[ebp-0xc]
00003541  5B                pop ebx
00003542  5E                pop esi
00003543  5F                pop edi
00003544  5D                pop ebp
00003545  C3                ret
00003546  55                push ebp
00003547  89E5              mov ebp,esp
00003549  53                push ebx
0000354A  83EC14            sub esp,byte +0x14
0000354D  8D450C            lea eax,[ebp+0xc]
00003550  890424            mov [esp],eax
00003553  E880F6FFFF        call 0x100002bd8
00003558  89C3              mov ebx,eax
0000355A  8D4508            lea eax,[ebp+0x8]
0000355D  890424            mov [esp],eax
00003560  E873F6FFFF        call 0x100002bd8
00003565  895C2404          mov [esp+0x4],ebx
00003569  890424            mov [esp],eax
0000356C  E83B030000        call 0x38ac
00003571  83C414            add esp,byte +0x14
00003574  5B                pop ebx
00003575  5D                pop ebp
00003576  C3                ret
00003577  55                push ebp
00003578  89E5              mov ebp,esp
0000357A  8B4508            mov eax,[ebp+0x8]
0000357D  8B550C            mov edx,[ebp+0xc]
00003580  8910              mov [eax],edx
00003582  8B4508            mov eax,[ebp+0x8]
00003585  5D                pop ebp
00003586  C20400            ret 0x4
00003589  55                push ebp
0000358A  89E5              mov ebp,esp
0000358C  83EC18            sub esp,byte +0x18
0000358F  8B4508            mov eax,[ebp+0x8]
00003592  890424            mov [esp],eax
00003595  E834030000        call 0x38ce
0000359A  C9                leave
0000359B  C3                ret
0000359C  55                push ebp
0000359D  89E5              mov ebp,esp
0000359F  83EC28            sub esp,byte +0x28
000035A2  C645F701          mov byte [ebp-0x9],0x1
000035A6  8B4510            mov eax,[ebp+0x10]
000035A9  89442408          mov [esp+0x8],eax
000035AD  8B450C            mov eax,[ebp+0xc]
000035B0  89442404          mov [esp+0x4],eax
000035B4  8B4508            mov eax,[ebp+0x8]
000035B7  890424            mov [esp],eax
000035BA  E824030000        call 0x38e3
000035BF  C9                leave
000035C0  C3                ret
000035C1  90                nop
000035C2  55                push ebp
000035C3  89E5              mov ebp,esp
000035C5  56                push esi
000035C6  53                push ebx
000035C7  83EC20            sub esp,byte +0x20
000035CA  8B450C            mov eax,[ebp+0xc]
000035CD  890424            mov [esp],eax
000035D0  E8FFF8FFFF        call 0x100002ed4
000035D5  890424            mov [esp],eax
000035D8  E85B030000        call 0x3938
000035DD  89C3              mov ebx,eax
000035DF  8B450C            mov eax,[ebp+0xc]
000035E2  890424            mov [esp],eax
000035E5  E84EDCFFFF        call 0x100001238
000035EA  8B5508            mov edx,[ebp+0x8]
000035ED  895C2408          mov [esp+0x8],ebx
000035F1  89442404          mov [esp+0x4],eax
000035F5  891424            mov [esp],edx
000035F8  E843030000        call 0x3940
000035FD  8B4508            mov eax,[ebp+0x8]
00003600  890424            mov [esp],eax
00003603  E89EDFFFFF        call 0x1000015a6
00003608  89C3              mov ebx,eax
0000360A  8B4508            mov eax,[ebp+0x8]
0000360D  8B30              mov esi,[eax]
0000360F  8D45F0            lea eax,[ebp-0x10]
00003612  8B550C            mov edx,[ebp+0xc]
00003615  89542404          mov [esp+0x4],edx
00003619  890424            mov [esp],eax
0000361C  E8F3E0FFFF        call 0x100001714
00003621  83EC04            sub esp,byte +0x4
00003624  8D45F4            lea eax,[ebp-0xc]
00003627  8B550C            mov edx,[ebp+0xc]
0000362A  89542404          mov [esp+0x4],edx
0000362E  890424            mov [esp],eax
00003631  E806E1FFFF        call 0x10000173c
00003636  83EC04            sub esp,byte +0x4
00003639  895C240C          mov [esp+0xc],ebx
0000363D  89742408          mov [esp+0x8],esi
00003641  8B45F0            mov eax,[ebp-0x10]
00003644  89442404          mov [esp+0x4],eax
00003648  8B45F4            mov eax,[ebp-0xc]
0000364B  890424            mov [esp],eax
0000364E  E837030000        call 0x398a
00003653  8B5508            mov edx,[ebp+0x8]
00003656  894204            mov [edx+0x4],eax
00003659  EB17              jmp short 0x3672
0000365B  89C3              mov ebx,eax
0000365D  8B4508            mov eax,[ebp+0x8]
00003660  890424            mov [esp],eax
00003663  E8DEDEFFFF        call 0x100001546
00003668  89D8              mov eax,ebx
0000366A  890424            mov [esp],eax
0000366D  E87ED1FFFF        call 0x1000007f0
00003672  8D65F8            lea esp,[ebp-0x8]
00003675  5B                pop ebx
00003676  5E                pop esi
00003677  5D                pop ebp
00003678  C3                ret
00003679  55                push ebp
0000367A  89E5              mov ebp,esp
0000367C  8B4508            mov eax,[ebp+0x8]
0000367F  5D                pop ebp
00003680  C3                ret
00003681  55                push ebp
00003682  89E5              mov ebp,esp
00003684  83EC18            sub esp,byte +0x18
00003687  8B4508            mov eax,[ebp+0x8]
0000368A  89442404          mov [esp+0x4],eax
0000368E  C7042408000000    mov dword [esp],0x8
00003695  E8ECD8FFFF        call 0x100000f86
0000369A  89C1              mov ecx,eax
0000369C  85C9              test ecx,ecx
0000369E  740D              jz 0x36ad
000036A0  8B450C            mov eax,[ebp+0xc]
000036A3  8B5004            mov edx,[eax+0x4]
000036A6  8B00              mov eax,[eax]
000036A8  8901              mov [ecx],eax
000036AA  895104            mov [ecx+0x4],edx
000036AD  C9                leave
000036AE  C3                ret
000036AF  55                push ebp
000036B0  89E5              mov ebp,esp
000036B2  83EC18            sub esp,byte +0x18
000036B5  8B4508            mov eax,[ebp+0x8]
000036B8  890424            mov [esp],eax
000036BB  E8EB020000        call 0x39ab
000036C0  C9                leave
000036C1  C3                ret
000036C2  55                push ebp
000036C3  89E5              mov ebp,esp
000036C5  83EC10            sub esp,byte +0x10
000036C8  8B4510            mov eax,[ebp+0x10]
000036CB  8B00              mov eax,[eax]
000036CD  8945F8            mov [ebp-0x8],eax
000036D0  8B450C            mov eax,[ebp+0xc]
000036D3  8945FC            mov [ebp-0x4],eax
000036D6  EB0F              jmp short 0x36e7
000036D8  8B4508            mov eax,[ebp+0x8]
000036DB  8B55F8            mov edx,[ebp-0x8]
000036DE  8910              mov [eax],edx
000036E0  FF4DFC            dec dword [ebp-0x4]
000036E3  83450804          add dword [ebp+0x8],byte +0x4
000036E7  837DFC00          cmp dword [ebp-0x4],byte +0x0
000036EB  75EB              jnz 0x36d8
000036ED  8B4508            mov eax,[ebp+0x8]
000036F0  C9                leave
000036F1  C3                ret
000036F2  55                push ebp
000036F3  89E5              mov ebp,esp
000036F5  56                push esi
000036F6  53                push ebx
000036F7  83EC20            sub esp,byte +0x20
000036FA  8B450C            mov eax,[ebp+0xc]
000036FD  890424            mov [esp],eax
00003700  E8D1020000        call 0x39d6
00003705  890424            mov [esp],eax
00003708  E8C0020000        call 0x39cd
0000370D  89C3              mov ebx,eax
0000370F  8B450C            mov eax,[ebp+0xc]
00003712  890424            mov [esp],eax
00003715  E89A020000        call 0x39b4
0000371A  8B5508            mov edx,[ebp+0x8]
0000371D  895C2408          mov [esp+0x8],ebx
00003721  89442404          mov [esp+0x4],eax
00003725  891424            mov [esp],edx
00003728  E8D9E3FFFF        call 0x100001b06
0000372D  8B4508            mov eax,[ebp+0x8]
00003730  890424            mov [esp],eax
00003733  E8B6E4FFFF        call 0x100001bee
00003738  89C3              mov ebx,eax
0000373A  8B4508            mov eax,[ebp+0x8]
0000373D  8B30              mov esi,[eax]
0000373F  8D45F0            lea eax,[ebp-0x10]
00003742  8B550C            mov edx,[ebp+0xc]
00003745  89542404          mov [esp+0x4],edx
00003749  890424            mov [esp],eax
0000374C  E8B5020000        call 0x3a06
00003751  83EC04            sub esp,byte +0x4
00003754  8D45F4            lea eax,[ebp-0xc]
00003757  8B550C            mov edx,[ebp+0xc]
0000375A  89542404          mov [esp+0x4],edx
0000375E  890424            mov [esp],eax
00003761  E878020000        call 0x39de
00003766  83EC04            sub esp,byte +0x4
00003769  895C240C          mov [esp+0xc],ebx
0000376D  89742408          mov [esp+0x8],esi
00003771  8B45F0            mov eax,[ebp-0x10]
00003774  89442404          mov [esp+0x4],eax
00003778  8B45F4            mov eax,[ebp-0xc]
0000377B  890424            mov [esp],eax
0000377E  E8AB020000        call 0x3a2e
00003783  8B5508            mov edx,[ebp+0x8]
00003786  894204            mov [edx+0x4],eax
00003789  EB17              jmp short 0x37a2
0000378B  89C3              mov ebx,eax
0000378D  8B4508            mov eax,[ebp+0x8]
00003790  890424            mov [esp],eax
00003793  E8B8E3FFFF        call 0x100001b50
00003798  89D8              mov eax,ebx
0000379A  890424            mov [esp],eax
0000379D  E84ED0FFFF        call 0x1000007f0
000037A2  8D65F8            lea esp,[ebp-0x8]
000037A5  5B                pop ebx
000037A6  5E                pop esi
000037A7  5D                pop ebp
000037A8  C3                ret
000037A9  55                push ebp
000037AA  89E5              mov ebp,esp
000037AC  57                push edi
000037AD  56                push esi
000037AE  53                push ebx
000037AF  83EC3C            sub esp,byte +0x3c
000037B2  8B450C            mov eax,[ebp+0xc]
000037B5  48                dec eax
000037B6  89C2              mov edx,eax
000037B8  C1EA1F            shr edx,0x1f
000037BB  01D0              add eax,edx
000037BD  D1F8              sar eax,1
000037BF  8945D4            mov [ebp-0x2c],eax
000037C2  EB6A              jmp short 0x382e
000037C4  8D45D8            lea eax,[ebp-0x28]
000037C7  8D550C            lea edx,[ebp+0xc]
000037CA  89542408          mov [esp+0x8],edx
000037CE  8D4D08            lea ecx,[ebp+0x8]
000037D1  894C2404          mov [esp+0x4],ecx
000037D5  890424            mov [esp],eax
000037D8  E865EDFFFF        call 0x100002542
000037DD  83EC04            sub esp,byte +0x4
000037E0  8D45D8            lea eax,[ebp-0x28]
000037E3  890424            mov [esp],eax
000037E6  E8EDF3FFFF        call 0x100002bd8
000037EB  89C3              mov ebx,eax
000037ED  8D45DC            lea eax,[ebp-0x24]
000037F0  8D55D4            lea edx,[ebp-0x2c]
000037F3  89542408          mov [esp+0x8],edx
000037F7  8D7508            lea esi,[ebp+0x8]
000037FA  89742404          mov [esp+0x4],esi
000037FE  890424            mov [esp],eax
00003801  E83CEDFFFF        call 0x100002542
00003806  83EC04            sub esp,byte +0x4
00003809  8D45DC            lea eax,[ebp-0x24]
0000380C  890424            mov [esp],eax
0000380F  E8C4F3FFFF        call 0x100002bd8
00003814  8B00              mov eax,[eax]
00003816  8903              mov [ebx],eax
00003818  8B45D4            mov eax,[ebp-0x2c]
0000381B  89450C            mov [ebp+0xc],eax
0000381E  8B450C            mov eax,[ebp+0xc]
00003821  48                dec eax
00003822  89C2              mov edx,eax
00003824  C1EA1F            shr edx,0x1f
00003827  01D0              add eax,edx
00003829  D1F8              sar eax,1
0000382B  8945D4            mov [ebp-0x2c],eax
0000382E  B300              mov bl,0x0
00003830  8B450C            mov eax,[ebp+0xc]
00003833  3B4510            cmp eax,[ebp+0x10]
00003836  7E34              jng 0x386c
00003838  8D45E0            lea eax,[ebp-0x20]
0000383B  8D55D4            lea edx,[ebp-0x2c]
0000383E  89542408          mov [esp+0x8],edx
00003842  8D7D08            lea edi,[ebp+0x8]
00003845  897C2404          mov [esp+0x4],edi
00003849  890424            mov [esp],eax
0000384C  E8F1ECFFFF        call 0x100002542
00003851  83EC04            sub esp,byte +0x4
00003854  B301              mov bl,0x1
00003856  8D45E0            lea eax,[ebp-0x20]
00003859  890424            mov [esp],eax
0000385C  E877F3FFFF        call 0x100002bd8
00003861  8B00              mov eax,[eax]
00003863  3B4514            cmp eax,[ebp+0x14]
00003866  7D04              jnl 0x386c
00003868  B001              mov al,0x1
0000386A  EB02              jmp short 0x386e
0000386C  B000              mov al,0x0
0000386E  84DB              test bl,bl
00003870  84C0              test al,al
00003872  0F854CFFFFFF      jnz near 0x1000037c4
00003878  8D45E4            lea eax,[ebp-0x1c]
0000387B  8D550C            lea edx,[ebp+0xc]
0000387E  89542408          mov [esp+0x8],edx
00003882  8D4D08            lea ecx,[ebp+0x8]
00003885  894C2404          mov [esp+0x4],ecx
00003889  890424            mov [esp],eax
0000388C  E8B1ECFFFF        call 0x100002542
00003891  83EC04            sub esp,byte +0x4
00003894  8D45E4            lea eax,[ebp-0x1c]
00003897  890424            mov [esp],eax
0000389A  E839F3FFFF        call 0x100002bd8
0000389F  8B5514            mov edx,[ebp+0x14]
000038A2  8910              mov [eax],edx
000038A4  8D65F4            lea esp,[ebp-0xc]
000038A7  5B                pop ebx
000038A8  5E                pop esi
000038A9  5F                pop edi
000038AA  5D                pop ebp
000038AB  C3                ret
000038AC  55                push ebp
000038AD  89E5              mov ebp,esp
000038AF  83EC10            sub esp,byte +0x10
000038B2  8B4508            mov eax,[ebp+0x8]
000038B5  8B00              mov eax,[eax]
000038B7  8945FC            mov [ebp-0x4],eax
000038BA  8B450C            mov eax,[ebp+0xc]
000038BD  8B10              mov edx,[eax]
000038BF  8B4508            mov eax,[ebp+0x8]
000038C2  8910              mov [eax],edx
000038C4  8B450C            mov eax,[ebp+0xc]
000038C7  8B55FC            mov edx,[ebp-0x4]
000038CA  8910              mov [eax],edx
000038CC  C9                leave
000038CD  C3                ret
000038CE  55                push ebp
000038CF  89E5              mov ebp,esp
000038D1  83EC18            sub esp,byte +0x18
000038D4  8D4508            lea eax,[ebp+0x8]
000038D7  890424            mov [esp],eax
000038DA  E845EBFFFF        call 0x100002424
000038DF  8B00              mov eax,[eax]
000038E1  C9                leave
000038E2  C3                ret
000038E3  55                push ebp
000038E4  89E5              mov ebp,esp
000038E6  83EC28            sub esp,byte +0x28
000038E9  8B550C            mov edx,[ebp+0xc]
000038EC  8B4508            mov eax,[ebp+0x8]
000038EF  29C2              sub edx,eax
000038F1  89D0              mov eax,edx
000038F3  C1F802            sar eax,0x2
000038F6  8945F4            mov [ebp-0xc],eax
000038F9  837DF400          cmp dword [ebp-0xc],byte +0x0
000038FD  7428              jz 0x3927
000038FF  8B45F4            mov eax,[ebp-0xc]
00003902  C1E002            shl eax,0x2
00003905  8B55F4            mov edx,[ebp-0xc]
00003908  C1E202            shl edx,0x2
0000390B  89D1              mov ecx,edx
0000390D  F7D9              neg ecx
0000390F  8B5510            mov edx,[ebp+0x10]
00003912  01CA              add edx,ecx
00003914  89442408          mov [esp+0x8],eax
00003918  8B4508            mov eax,[ebp+0x8]
0000391B  89442404          mov [esp+0x4],eax
0000391F  891424            mov [esp],edx
00003922  E869CEFFFF        call 0x100000790
00003927  8B45F4            mov eax,[ebp-0xc]
0000392A  C1E002            shl eax,0x2
0000392D  F7D8              neg eax
0000392F  89C2              mov edx,eax
00003931  8B4510            mov eax,[ebp+0x10]
00003934  01D0              add eax,edx
00003936  C9                leave
00003937  C3                ret
00003938  55                push ebp
00003939  89E5              mov ebp,esp
0000393B  8B4508            mov eax,[ebp+0x8]
0000393E  5D                pop ebp
0000393F  C3                ret
00003940  55                push ebp
00003941  89E5              mov ebp,esp
00003943  53                push ebx
00003944  83EC14            sub esp,byte +0x14
00003947  8B4508            mov eax,[ebp+0x8]
0000394A  8B5510            mov edx,[ebp+0x10]
0000394D  89542404          mov [esp+0x4],edx
00003951  890424            mov [esp],eax
00003954  E8F7000000        call 0x3a50
00003959  8B450C            mov eax,[ebp+0xc]
0000395C  89442404          mov [esp+0x4],eax
00003960  8B4508            mov eax,[ebp+0x8]
00003963  890424            mov [esp],eax
00003966  E81D010000        call 0x3a88
0000396B  EB17              jmp short 0x3984
0000396D  89C3              mov ebx,eax
0000396F  8B4508            mov eax,[ebp+0x8]
00003972  890424            mov [esp],eax
00003975  E8A4DBFFFF        call 0x10000151e
0000397A  89D8              mov eax,ebx
0000397C  890424            mov [esp],eax
0000397F  E86CCEFFFF        call 0x1000007f0
00003984  83C414            add esp,byte +0x14
00003987  5B                pop ebx
00003988  5D                pop ebp
00003989  C3                ret
0000398A  55                push ebp
0000398B  89E5              mov ebp,esp
0000398D  83EC18            sub esp,byte +0x18
00003990  8B4510            mov eax,[ebp+0x10]
00003993  89442408          mov [esp+0x8],eax
00003997  8B450C            mov eax,[ebp+0xc]
0000399A  89442404          mov [esp+0x4],eax
0000399E  8B4508            mov eax,[ebp+0x8]
000039A1  890424            mov [esp],eax
000039A4  E81C010000        call 0x3ac5
000039A9  C9                leave
000039AA  C3                ret
000039AB  55                push ebp
000039AC  89E5              mov ebp,esp
000039AE  8B4508            mov eax,[ebp+0x8]
000039B1  5D                pop ebp
000039B2  C3                ret
000039B3  90                nop
000039B4  55                push ebp
000039B5  89E5              mov ebp,esp
000039B7  8B4508            mov eax,[ebp+0x8]
000039BA  8B4004            mov eax,[eax+0x4]
000039BD  89C2              mov edx,eax
000039BF  8B4508            mov eax,[ebp+0x8]
000039C2  8B00              mov eax,[eax]
000039C4  29C2              sub edx,eax
000039C6  89D0              mov eax,edx
000039C8  C1F802            sar eax,0x2
000039CB  5D                pop ebp
000039CC  C3                ret
000039CD  55                push ebp
000039CE  89E5              mov ebp,esp
000039D0  8B4508            mov eax,[ebp+0x8]
000039D3  5D                pop ebp
000039D4  C3                ret
000039D5  90                nop
000039D6  55                push ebp
000039D7  89E5              mov ebp,esp
000039D9  8B4508            mov eax,[ebp+0x8]
000039DC  5D                pop ebp
000039DD  C3                ret
000039DE  55                push ebp
000039DF  89E5              mov ebp,esp
000039E1  83EC28            sub esp,byte +0x28
000039E4  8B450C            mov eax,[ebp+0xc]
000039E7  8B00              mov eax,[eax]
000039E9  8945F4            mov [ebp-0xc],eax
000039EC  8D45F4            lea eax,[ebp-0xc]
000039EF  89442404          mov [esp+0x4],eax
000039F3  8B4508            mov eax,[ebp+0x8]
000039F6  890424            mov [esp],eax
000039F9  E8E8000000        call 0x3ae6
000039FE  8B4508            mov eax,[ebp+0x8]
00003A01  C9                leave
00003A02  C20400            ret 0x4
00003A05  90                nop
00003A06  55                push ebp
00003A07  89E5              mov ebp,esp
00003A09  83EC28            sub esp,byte +0x28
00003A0C  8B450C            mov eax,[ebp+0xc]
00003A0F  8B4004            mov eax,[eax+0x4]
00003A12  8945F4            mov [ebp-0xc],eax
00003A15  8D45F4            lea eax,[ebp-0xc]
00003A18  89442404          mov [esp+0x4],eax
00003A1C  8B4508            mov eax,[ebp+0x8]
00003A1F  890424            mov [esp],eax
00003A22  E8BF000000        call 0x3ae6
00003A27  8B4508            mov eax,[ebp+0x8]
00003A2A  C9                leave
00003A2B  C20400            ret 0x4
00003A2E  55                push ebp
00003A2F  89E5              mov ebp,esp
00003A31  83EC18            sub esp,byte +0x18
00003A34  8B4510            mov eax,[ebp+0x10]
00003A37  89442408          mov [esp+0x8],eax
00003A3B  8B450C            mov eax,[ebp+0xc]
00003A3E  89442404          mov [esp+0x4],eax
00003A42  8B4508            mov eax,[ebp+0x8]
00003A45  890424            mov [esp],eax
00003A48  E8A8000000        call 0x3af5
00003A4D  C9                leave
00003A4E  C3                ret
00003A4F  90                nop
00003A50  55                push ebp
00003A51  89E5              mov ebp,esp
00003A53  83EC18            sub esp,byte +0x18
00003A56  8B450C            mov eax,[ebp+0xc]
00003A59  89442404          mov [esp+0x4],eax
00003A5D  8B4508            mov eax,[ebp+0x8]
00003A60  890424            mov [esp],eax
00003A63  E8AE000000        call 0x3b16
00003A68  8B4508            mov eax,[ebp+0x8]
00003A6B  C70000000000      mov dword [eax],0x0
00003A71  8B4508            mov eax,[ebp+0x8]
00003A74  C7400400000000    mov dword [eax+0x4],0x0
00003A7B  8B4508            mov eax,[ebp+0x8]
00003A7E  C7400800000000    mov dword [eax+0x8],0x0
00003A85  C9                leave
00003A86  C3                ret
00003A87  90                nop
00003A88  55                push ebp
00003A89  89E5              mov ebp,esp
00003A8B  83EC18            sub esp,byte +0x18
00003A8E  8B450C            mov eax,[ebp+0xc]
00003A91  89442404          mov [esp+0x4],eax
00003A95  8B4508            mov eax,[ebp+0x8]
00003A98  890424            mov [esp],eax
00003A9B  E85CE7FFFF        call 0x1000021fc
00003AA0  8B5508            mov edx,[ebp+0x8]
00003AA3  8902              mov [edx],eax
00003AA5  8B4508            mov eax,[ebp+0x8]
00003AA8  8B10              mov edx,[eax]
00003AAA  8B4508            mov eax,[ebp+0x8]
00003AAD  895004            mov [eax+0x4],edx
00003AB0  8B4508            mov eax,[ebp+0x8]
00003AB3  8B00              mov eax,[eax]
00003AB5  8B550C            mov edx,[ebp+0xc]
00003AB8  C1E203            shl edx,0x3
00003ABB  01C2              add edx,eax
00003ABD  8B4508            mov eax,[ebp+0x8]
00003AC0  895008            mov [eax+0x8],edx
00003AC3  C9                leave
00003AC4  C3                ret
00003AC5  55                push ebp
00003AC6  89E5              mov ebp,esp
00003AC8  83EC18            sub esp,byte +0x18
00003ACB  8B4510            mov eax,[ebp+0x10]
00003ACE  89442408          mov [esp+0x8],eax
00003AD2  8B450C            mov eax,[ebp+0xc]
00003AD5  89442404          mov [esp+0x4],eax
00003AD9  8B4508            mov eax,[ebp+0x8]
00003ADC  890424            mov [esp],eax
00003ADF  E84C000000        call 0x3b30
00003AE4  C9                leave
00003AE5  C3                ret
00003AE6  55                push ebp
00003AE7  89E5              mov ebp,esp
00003AE9  8B450C            mov eax,[ebp+0xc]
00003AEC  8B10              mov edx,[eax]
00003AEE  8B4508            mov eax,[ebp+0x8]
00003AF1  8910              mov [eax],edx
00003AF3  5D                pop ebp
00003AF4  C3                ret
00003AF5  55                push ebp
00003AF6  89E5              mov ebp,esp
00003AF8  83EC18            sub esp,byte +0x18
00003AFB  8B4510            mov eax,[ebp+0x10]
00003AFE  89442408          mov [esp+0x8],eax
00003B02  8B450C            mov eax,[ebp+0xc]
00003B05  89442404          mov [esp+0x4],eax
00003B09  8B4508            mov eax,[ebp+0x8]
00003B0C  890424            mov [esp],eax
00003B0F  E87D000000        call 0x3b91
00003B14  C9                leave
00003B15  C3                ret
00003B16  55                push ebp
00003B17  89E5              mov ebp,esp
00003B19  83EC18            sub esp,byte +0x18
00003B1C  8B450C            mov eax,[ebp+0xc]
00003B1F  89442404          mov [esp+0x4],eax
00003B23  8B4508            mov eax,[ebp+0x8]
00003B26  890424            mov [esp],eax
00003B29  E884000000        call 0x3bb2
00003B2E  C9                leave
00003B2F  C3                ret
00003B30  55                push ebp
00003B31  89E5              mov ebp,esp
00003B33  53                push ebx
00003B34  83EC24            sub esp,byte +0x24
00003B37  8B4510            mov eax,[ebp+0x10]
00003B3A  8945F4            mov [ebp-0xc],eax
00003B3D  EB33              jmp short 0x3b72
00003B3F  8D4508            lea eax,[ebp+0x8]
00003B42  890424            mov [esp],eax
00003B45  E8B0000000        call 0x3bfa
00003B4A  89C3              mov ebx,eax
00003B4C  8B45F4            mov eax,[ebp-0xc]
00003B4F  890424            mov [esp],eax
00003B52  E822FBFFFF        call 0x100003679
00003B57  895C2404          mov [esp+0x4],ebx
00003B5B  890424            mov [esp],eax
00003B5E  E81EFBFFFF        call 0x100003681
00003B63  8D4508            lea eax,[ebp+0x8]
00003B66  890424            mov [esp],eax
00003B69  E876000000        call 0x3be4
00003B6E  8345F408          add dword [ebp-0xc],byte +0x8
00003B72  8D450C            lea eax,[ebp+0xc]
00003B75  89442404          mov [esp+0x4],eax
00003B79  8D4508            lea eax,[ebp+0x8]
00003B7C  890424            mov [esp],eax
00003B7F  E833000000        call 0x3bb7
00003B84  84C0              test al,al
00003B86  75B7              jnz 0x3b3f
00003B88  8B45F4            mov eax,[ebp-0xc]
00003B8B  83C424            add esp,byte +0x24
00003B8E  5B                pop ebx
00003B8F  5D                pop ebp
00003B90  C3                ret
00003B91  55                push ebp
00003B92  89E5              mov ebp,esp
00003B94  83EC18            sub esp,byte +0x18
00003B97  8B4510            mov eax,[ebp+0x10]
00003B9A  89442408          mov [esp+0x8],eax
00003B9E  8B450C            mov eax,[ebp+0xc]
00003BA1  89442404          mov [esp+0x4],eax
00003BA5  8B4508            mov eax,[ebp+0x8]
00003BA8  890424            mov [esp],eax
00003BAB  E854000000        call 0x3c04
00003BB0  C9                leave
00003BB1  C3                ret
00003BB2  55                push ebp
00003BB3  89E5              mov ebp,esp
00003BB5  5D                pop ebp
00003BB6  C3                ret
00003BB7  55                push ebp
00003BB8  89E5              mov ebp,esp
00003BBA  53                push ebx
00003BBB  83EC14            sub esp,byte +0x14
00003BBE  8B4508            mov eax,[ebp+0x8]
00003BC1  890424            mov [esp],eax
00003BC4  E8B9E4FFFF        call 0x100002082
00003BC9  8B18              mov ebx,[eax]
00003BCB  8B450C            mov eax,[ebp+0xc]
00003BCE  890424            mov [esp],eax
00003BD1  E8ACE4FFFF        call 0x100002082
00003BD6  8B00              mov eax,[eax]
00003BD8  39C3              cmp ebx,eax
00003BDA  0F95C0            setnz al
00003BDD  83C414            add esp,byte +0x14
00003BE0  5B                pop ebx
00003BE1  5D                pop ebp
00003BE2  C3                ret
00003BE3  90                nop
00003BE4  55                push ebp
00003BE5  89E5              mov ebp,esp
00003BE7  8B4508            mov eax,[ebp+0x8]
00003BEA  8B00              mov eax,[eax]
00003BEC  8D5008            lea edx,[eax+0x8]
00003BEF  8B4508            mov eax,[ebp+0x8]
00003BF2  8910              mov [eax],edx
00003BF4  8B4508            mov eax,[ebp+0x8]
00003BF7  5D                pop ebp
00003BF8  C3                ret
00003BF9  90                nop
00003BFA  55                push ebp
00003BFB  89E5              mov ebp,esp
00003BFD  8B4508            mov eax,[ebp+0x8]
00003C00  8B00              mov eax,[eax]
00003C02  5D                pop ebp
00003C03  C3                ret
00003C04  55                push ebp
00003C05  89E5              mov ebp,esp
00003C07  83EC28            sub esp,byte +0x28
00003C0A  8D45F0            lea eax,[ebp-0x10]
00003C0D  8B550C            mov edx,[ebp+0xc]
00003C10  89542404          mov [esp+0x4],edx
00003C14  890424            mov [esp],eax
00003C17  E833000000        call 0x3c4f
00003C1C  83EC04            sub esp,byte +0x4
00003C1F  8D45F4            lea eax,[ebp-0xc]
00003C22  8B5508            mov edx,[ebp+0x8]
00003C25  89542404          mov [esp+0x4],edx
00003C29  890424            mov [esp],eax
00003C2C  E81E000000        call 0x3c4f
00003C31  83EC04            sub esp,byte +0x4
00003C34  8B4510            mov eax,[ebp+0x10]
00003C37  89442408          mov [esp+0x8],eax
00003C3B  8B45F0            mov eax,[ebp-0x10]
00003C3E  89442404          mov [esp+0x4],eax
00003C42  8B45F4            mov eax,[ebp-0xc]
00003C45  890424            mov [esp],eax
00003C48  E824000000        call 0x3c71
00003C4D  C9                leave
00003C4E  C3                ret
00003C4F  55                push ebp
00003C50  89E5              mov ebp,esp
00003C52  83EC18            sub esp,byte +0x18
00003C55  8B4508            mov eax,[ebp+0x8]
00003C58  8B550C            mov edx,[ebp+0xc]
00003C5B  89542404          mov [esp+0x4],edx
00003C5F  890424            mov [esp],eax
00003C62  E84E000000        call 0x3cb5
00003C67  83EC04            sub esp,byte +0x4
00003C6A  8B4508            mov eax,[ebp+0x8]
00003C6D  C9                leave
00003C6E  C20400            ret 0x4
00003C71  55                push ebp
00003C72  89E5              mov ebp,esp
00003C74  56                push esi
00003C75  53                push ebx
00003C76  83EC10            sub esp,byte +0x10
00003C79  8B4510            mov eax,[ebp+0x10]
00003C7C  890424            mov [esp],eax
00003C7F  E82BFAFFFF        call 0x1000036af
00003C84  89C6              mov esi,eax
00003C86  8B450C            mov eax,[ebp+0xc]
00003C89  890424            mov [esp],eax
00003C8C  E836000000        call 0x3cc7
00003C91  89C3              mov ebx,eax
00003C93  8B4508            mov eax,[ebp+0x8]
00003C96  890424            mov [esp],eax
00003C99  E829000000        call 0x3cc7
00003C9E  89742408          mov [esp+0x8],esi
00003CA2  895C2404          mov [esp+0x4],ebx
00003CA6  890424            mov [esp],eax
00003CA9  E82C000000        call 0x3cda
00003CAE  83C410            add esp,byte +0x10
00003CB1  5B                pop ebx
00003CB2  5E                pop esi
00003CB3  5D                pop ebp
00003CB4  C3                ret
00003CB5  55                push ebp
00003CB6  89E5              mov ebp,esp
00003CB8  8B4508            mov eax,[ebp+0x8]
00003CBB  8B550C            mov edx,[ebp+0xc]
00003CBE  8910              mov [eax],edx
00003CC0  8B4508            mov eax,[ebp+0x8]
00003CC3  5D                pop ebp
00003CC4  C20400            ret 0x4
00003CC7  55                push ebp
00003CC8  89E5              mov ebp,esp
00003CCA  83EC18            sub esp,byte +0x18
00003CCD  8B4508            mov eax,[ebp+0x8]
00003CD0  890424            mov [esp],eax
00003CD3  E827000000        call 0x3cff
00003CD8  C9                leave
00003CD9  C3                ret
00003CDA  55                push ebp
00003CDB  89E5              mov ebp,esp
00003CDD  83EC28            sub esp,byte +0x28
00003CE0  C645F701          mov byte [ebp-0x9],0x1
00003CE4  8B4510            mov eax,[ebp+0x10]
00003CE7  89442408          mov [esp+0x8],eax
00003CEB  8B450C            mov eax,[ebp+0xc]
00003CEE  89442404          mov [esp+0x4],eax
00003CF2  8B4508            mov eax,[ebp+0x8]
00003CF5  890424            mov [esp],eax
00003CF8  E817000000        call 0x3d14
00003CFD  C9                leave
00003CFE  C3                ret
00003CFF  55                push ebp
00003D00  89E5              mov ebp,esp
00003D02  83EC18            sub esp,byte +0x18
00003D05  8D4508            lea eax,[ebp+0x8]
00003D08  890424            mov [esp],eax
00003D0B  E84E000000        call 0x3d5e
00003D10  8B00              mov eax,[eax]
00003D12  C9                leave
00003D13  C3                ret
00003D14  55                push ebp
00003D15  89E5              mov ebp,esp
00003D17  83EC28            sub esp,byte +0x28
00003D1A  8B550C            mov edx,[ebp+0xc]
00003D1D  8B4508            mov eax,[ebp+0x8]
00003D20  29C2              sub edx,eax
00003D22  89D0              mov eax,edx
00003D24  C1F802            sar eax,0x2
00003D27  8945F4            mov [ebp-0xc],eax
00003D2A  837DF400          cmp dword [ebp-0xc],byte +0x0
00003D2E  741C              jz 0x3d4c
00003D30  8B45F4            mov eax,[ebp-0xc]
00003D33  C1E002            shl eax,0x2
00003D36  89442408          mov [esp+0x8],eax
00003D3A  8B4508            mov eax,[ebp+0x8]
00003D3D  89442404          mov [esp+0x4],eax
00003D41  8B4510            mov eax,[ebp+0x10]
00003D44  890424            mov [esp],eax
00003D47  E844CAFFFF        call 0x100000790
00003D4C  8B45F4            mov eax,[ebp-0xc]
00003D4F  8D148500000000    lea edx,[eax*4+0x0]
00003D56  8B4510            mov eax,[ebp+0x10]
00003D59  01D0              add eax,edx
00003D5B  C9                leave
00003D5C  C3                ret
00003D5D  90                nop
00003D5E  55                push ebp
00003D5F  89E5              mov ebp,esp
00003D61  8B4508            mov eax,[ebp+0x8]
00003D64  5D                pop ebp
00003D65  C3                ret
00003D66  6690              o16 nop
00003D68  6690              o16 nop
00003D6A  6690              o16 nop
00003D6C  6690              o16 nop
00003D6E  6690              o16 nop
00003D70  55                push ebp
00003D71  89E5              mov ebp,esp
00003D73  5D                pop ebp
00003D74  C3                ret
00003D75  66                db 0x66
00003D76  66                db 0x66
00003D77  2E                db 0x2E
00003D78  0F                db 0x0F
00003D79  1F                pop ds
00003D7A  8400              test [eax],al
00003D7C  0000              add [eax],al
00003D7E  0000              add [eax],al
00003D80  55                push ebp
00003D81  89E5              mov ebp,esp
00003D83  57                push edi
00003D84  56                push esi
00003D85  53                push ebx
00003D86  E84F000000        call 0x3dda
00003D8B  81C35D3A0000      add ebx,0x3a5d
00003D91  83EC1C            sub esp,byte +0x1c
00003D94  E8FFC8FFFF        call 0x100000698
00003D99  8DBB04FFFFFF      lea edi,[ebx+0xffffff04]
00003D9F  8D8304FFFFFF      lea eax,[ebx+0xffffff04]
00003DA5  29C7              sub edi,eax
00003DA7  C1FF02            sar edi,0x2
00003DAA  85FF              test edi,edi
00003DAC  7424              jz 0x3dd2
00003DAE  31F6              xor esi,esi
00003DB0  8B4510            mov eax,[ebp+0x10]
00003DB3  89442408          mov [esp+0x8],eax
00003DB7  8B450C            mov eax,[ebp+0xc]
00003DBA  89442404          mov [esp+0x4],eax
00003DBE  8B4508            mov eax,[ebp+0x8]
00003DC1  890424            mov [esp],eax
00003DC4  FF94B304FFFFFF    call near [ebx+esi*4+0xffffff04]
00003DCB  83C601            add esi,byte +0x1
00003DCE  39FE              cmp esi,edi
00003DD0  72DE              jc 0x3db0
00003DD2  83C41C            add esp,byte +0x1c
00003DD5  5B                pop ebx
00003DD6  5E                pop esi
00003DD7  5F                pop edi
00003DD8  5D                pop ebp
00003DD9  C3                ret
00003DDA  8B1C24            mov ebx,[esp]
00003DDD  C3                ret
00003DDE  6690              o16 nop
00003DE0  55                push ebp
00003DE1  89E5              mov ebp,esp
00003DE3  53                push ebx
00003DE4  52                push edx
00003DE5  BBF0F60408        mov ebx,0x804f6f0
00003DEA  A1F0F60408        mov eax,[0x804f6f0]
00003DEF  83F8FF            cmp eax,byte -0x1
00003DF2  7410              jz 0x3e04
00003DF4  8D742600          lea esi,[esi+0x0]
00003DF8  83EB04            sub ebx,byte +0x4
00003DFB  FFD0              call eax
00003DFD  8B03              mov eax,[ebx]
00003DFF  83F8FF            cmp eax,byte -0x1
00003E02  75F4              jnz 0x3df8
00003E04  58                pop eax
00003E05  5B                pop ebx
00003E06  5D                pop ebp
00003E07  C3                ret
00003E08  55                push ebp
00003E09  89E5              mov ebp,esp
00003E0B  53                push ebx
00003E0C  83EC04            sub esp,byte +0x4
00003E0F  E800000000        call 0x3e14
00003E14  5B                pop ebx
00003E15  81C3D4390000      add ebx,0x39d4
00003E1B  E880CAFFFF        call 0x1000008a0
00003E20  59                pop ecx
00003E21  5B                pop ebx
00003E22  C9                leave
00003E23  C3                ret
00003E24  0300              add eax,[eax]
00003E26  0000              add [eax],al
00003E28  0100              add [eax],eax
00003E2A  0200              add al,[eax]
00003E2C  2564002573        and eax,0x73250064
00003E31  004361            add [ebx+0x61],al
00003E34  7365              jnc 0x3e9b
00003E36  2023              and [ebx],ah
00003E38  25643A2000        and eax,0x203a64
00003E3D  25640A0046        and eax,0x46000a64
00003E42  65676C            gs a16 insb
00003E45  61                popa
00003E46  20576F            and [edi+0x6f],dl
00003E49  6E                outsb
00003E4A  007665            add [esi+0x65],dh
00003E4D  63746F72          arpl [edi+ebp*2+0x72],si
00003E51  3A3A              cmp bh,[edx]
00003E53  5F                pop edi
00003E54  4D                dec ebp
00003E55  5F                pop edi
00003E56  696E736572745F    imul ebp,[esi+0x73],dword 0x5f747265
00003E5D  61                popa
00003E5E  7578              jnz 0x3ed8
00003E60  0000              add [eax],al
00003E62  0000              add [eax],al
00003E64  011B              add [ebx],ebx
00003E66  033B              add edi,[ebx]
00003E68  48                dec eax
00003E69  07                pop es
00003E6A  0000              add [eax],al
00003E6C  E80000006C        call 0x6c003e71
00003E71  C8FFFF64          enter 0xffff,0x64
00003E75  07                pop es
00003E76  0000              add [eax],al
00003E78  BCCAFFFF08        mov esp,0x8ffffca
00003E7D  0800              or [eax],al
00003E7F  00AFD0FFFFE0      add [edi+0xe0ffffd0],ch
00003E85  250000EED0        and eax,0xd0ee0000
00003E8A  FF                db 0xFF
00003E8B  FF00              inc dword [eax]
00003E8D  260000            add [es:eax],al
00003E90  0AD1              or dl,cl
00003E92  FF                db 0xFF
00003E93  FF8807000022      dec dword [eax+0x22000007]
00003E99  D1FF              sar edi,1
00003E9B  FFA80700002A      jmp far [eax+0x2a000007]
00003EA1  D1FF              sar edi,1
00003EA3  FFC8              dec eax
00003EA5  07                pop es
00003EA6  0000              add [eax],al
00003EA8  30D1              xor cl,dl
00003EAA  FF                db 0xFF
00003EAB  FF4808            dec dword [eax+0x8]
00003EAE  0000              add [eax],al
00003EB0  44                inc esp
00003EB1  D1FF              sar edi,1
00003EB3  FF6808            jmp far [eax+0x8]
00003EB6  0000              add [eax],al
00003EB8  9C                pushf
00003EB9  D1FF              sar edi,1
00003EBB  FF90080000B0      call near [eax+0xb0000008]
00003EC1  D1FF              sar edi,1
00003EC3  FFB0080000C4      push dword [eax+0xc4000008]
00003EC9  D1FF              sar edi,1
00003ECB  FFD0              call eax
00003ECD  0800              or [eax],al
00003ECF  001CD2            add [edx+edx*8],bl
00003ED2  FF                db 0xFF
00003ED3  FF                db 0xFF
00003ED4  F8                clc
00003ED5  0800              or [eax],al
00003ED7  0074D2FF          add [edx+edx*8-0x1],dh
00003EDB  FF20              jmp near [eax]
00003EDD  0900              or [eax],eax
00003EDF  008CD2FFFF4009    add [edx+edx*8+0x940ffff],cl
00003EE6  0000              add [eax],al
00003EE8  DC                db 0xDC
00003EE9  D2FF              sar bh,cl
00003EEB  FF640900          jmp near [ecx+ecx+0x0]
00003EEF  0033              add [ebx],dh
00003EF1  D3FF              sar edi,cl
00003EF3  FF8809000060      dec dword [eax+0x60000009]
00003EF9  D3FF              sar edi,cl
00003EFB  FFA8090000D4      jmp far [eax+0xd4000009]
00003F01  D3FF              sar edi,cl
00003F03  FFC8              dec eax
00003F05  0900              or [eax],eax
00003F07  00EE              add dh,ch
00003F09  D3FF              sar edi,cl
00003F0B  FF                db 0xFF
00003F0C  E809000002        call 0x2003f1a
00003F11  D4FF              aam 0xff
00003F13  FF08              dec dword [eax]
00003F15  0A00              or al,[eax]
00003F17  0016              add [esi],dl
00003F19  D4FF              aam 0xff
00003F1B  FF28              jmp far [eax]
00003F1D  0A00              or al,[eax]
00003F1F  006ED4            add [esi-0x2c],ch
00003F22  FF                db 0xFF
00003F23  FF500A            call near [eax+0xa]
00003F26  0000              add [eax],al
00003F28  C6                db 0xC6
00003F29  D4FF              aam 0xff
00003F2B  FF                db 0xFF
00003F2C  780A              js 0x3f38
00003F2E  0000              add [eax],al
00003F30  DAD4              fcmovbe st4
00003F32  FF                db 0xFF
00003F33  FF980A0000EE      call far [eax+0xee00000a]
00003F39  D4FF              aam 0xff
00003F3B  FF                db 0xFF
00003F3C  B80A000046        mov eax,0x4600000a
00003F41  D5FF              aad 0xff
00003F43  FFE0              jmp eax
00003F45  0A00              or al,[eax]
00003F47  009ED5FFFF08      add [esi+0x8ffffd5],bl
00003F4D  0B00              or eax,[eax]
00003F4F  00B0D5FFFF28      add [eax+0x28ffffd5],dh
00003F55  0B00              or eax,[eax]
00003F57  00C8              add al,cl
00003F59  D5FF              aad 0xff
00003F5B  FF480B            dec dword [eax+0xb]
00003F5E  0000              add [eax],al
00003F60  DAD5              fcmovbe st5
00003F62  FF                db 0xFF
00003F63  FF680B            jmp far [eax+0xb]
00003F66  0000              add [eax],al
00003F68  16                push ss
00003F69  D6                salc
00003F6A  FF                db 0xFF
00003F6B  FF880B000036      dec dword [eax+0x3600000b]
00003F71  D6                salc
00003F72  FF                db 0xFF
00003F73  FFA80B000058      jmp far [eax+0x5800000b]
00003F79  D6                salc
00003F7A  FF                db 0xFF
00003F7B  FFC8              dec eax
00003F7D  0B00              or eax,[eax]
00003F7F  00BAD6FFFFE8      add [edx+0xe8ffffd6],bh
00003F85  0B00              or eax,[eax]
00003F87  00CE              add dh,cl
00003F89  D6                salc
00003F8A  FF                db 0xFF
00003F8B  FF08              dec dword [eax]
00003F8D  0C00              or al,0x0
00003F8F  00E2              add dl,ah
00003F91  D6                salc
00003F92  FF                db 0xFF
00003F93  FF28              jmp far [eax]
00003F95  0C00              or al,0x0
00003F97  0042D7            add [edx-0x29],al
00003F9A  FF                db 0xFF
00003F9B  FF500C            call near [eax+0xc]
00003F9E  0000              add [eax],al
00003FA0  4A                dec edx
00003FA1  D7                xlatb
00003FA2  FF                db 0xFF
00003FA3  FF700C            push dword [eax+0xc]
00003FA6  0000              add [eax],al
00003FA8  64D7              fs xlatb
00003FAA  FF                db 0xFF
00003FAB  FF900C00006A      call near [eax+0x6a00000c]
00003FB1  D7                xlatb
00003FB2  FF                db 0xFF
00003FB3  FFB00C000070      push dword [eax+0x7000000c]
00003FB9  D7                xlatb
00003FBA  FF                db 0xFF
00003FBB  FFD0              call eax
00003FBD  0C00              or al,0x0
00003FBF  0084D7FFFFF00C    add [edi+edx*8+0xcf0ffff],al
00003FC6  0000              add [eax],al
00003FC8  CE                into
00003FC9  D7                xlatb
00003FCA  FF                db 0xFF
00003FCB  FF18              call far [eax]
00003FCD  0D000050D8        or eax,0xd8500000
00003FD2  FF                db 0xFF
00003FD3  FF400D            inc dword [eax+0xd]
00003FD6  0000              add [eax],al
00003FD8  8ED8              mov ds,ax
00003FDA  FF                db 0xFF
00003FDB  FF600D            jmp near [eax+0xd]
00003FDE  0000              add [eax],al
00003FE0  96                xchg eax,esi
00003FE1  D8FF              fdivr st7
00003FE3  FF800D0000B0      inc dword [eax+0xb000000d]
00003FE9  D8FF              fdivr st7
00003FEB  FFA00D0000D8      jmp near [eax+0xd800000d]
00003FF1  D8FF              fdivr st7
00003FF3  FFC0              inc eax
00003FF5  0D0000FFD8        or eax,0xd8ff0000
00003FFA  FF                db 0xFF
00003FFB  FFE0              jmp eax
00003FFD  0D00002CD9        or eax,0xd92c0000
00004002  FF                db 0xFF
00004003  FF040E            inc dword [esi+ecx]
00004006  0000              add [eax],al
00004008  4E                dec esi
00004009  D9FF              fcos
0000400B  FF240E            jmp near [esi+ecx]
0000400E  0000              add [eax],al
00004010  82                db 0x82
00004011  D9FF              fcos
00004013  FF440E00          inc dword [esi+ecx+0x0]
00004017  008CD9FFFF640E    add [ecx+ebx*8+0xe64ffff],cl
0000401E  0000              add [eax],al
00004020  A6                cmpsb
00004021  D9FF              fcos
00004023  FF840E0000C8D9    inc dword [esi+ecx+0xd9c80000]
0000402A  FF                db 0xFF
0000402B  FFA40E000082DC    jmp near [esi+ecx+0xdc820000]
00004032  FF                db 0xFF
00004033  FFD4              call esp
00004035  0E                push cs
00004036  0000              add [eax],al
00004038  88DC              mov ah,bl
0000403A  FF                db 0xFF
0000403B  FFF4              push esp
0000403D  0E                push cs
0000403E  0000              add [eax],al
00004040  8EDC              mov ds,sp
00004042  FF                db 0xFF
00004043  FF140F            call near [edi+ecx]
00004046  0000              add [eax],al
00004048  A2DCFFFF34        mov [0x34ffffdc],al
0000404D  0F0000            sldt [eax]
00004050  EC                in al,dx
00004051  DCFF              fdiv to st7
00004053  FF5C0F00          call far [edi+ecx+0x0]
00004057  004CDDFF          add [ebp+ebx*8-0x1],cl
0000405B  FF840F00008ADD    inc dword [edi+ecx+0xdd8a0000]
00004062  FF                db 0xFF
00004063  FFA40F000092DD    jmp near [edi+ecx+0xdd920000]
0000406A  FF                db 0xFF
0000406B  FFC4              inc esp
0000406D  0F0000            sldt [eax]
00004070  AC                lodsb
00004071  DD                db 0xDD
00004072  FF                db 0xFF
00004073  FFE4              jmp esp
00004075  0F0000            sldt [eax]
00004078  B2DD              mov dl,0xdd
0000407A  FF                db 0xFF
0000407B  FF0410            inc dword [eax+edx]
0000407E  0000              add [eax],al
00004080  B8DDFFFF24        mov eax,0x24ffffdd
00004085  1000              adc [eax],al
00004087  00CC              add ah,cl
00004089  DD                db 0xDD
0000408A  FF                db 0xFF
0000408B  FF441000          inc dword [eax+edx+0x0]
0000408F  0016              add [esi],dl
00004091  DEFF              fdivp st7,st0
00004093  FF6C1000          jmp far [eax+edx+0x0]
00004097  0098DEFFFF94      add [eax+0x94ffffde],bl
0000409D  1000              adc [eax],al
0000409F  00D6              add dh,dl
000040A1  DEFF              fdivp st7,st0
000040A3  FFB4100000DEDE    push dword [eax+edx+0xdede0000]
000040AA  FF                db 0xFF
000040AB  FFD4              call esp
000040AD  1000              adc [eax],al
000040AF  00F8              add al,bh
000040B1  DEFF              fdivp st7,st0
000040B3  FFF4              push esp
000040B5  1000              adc [eax],al
000040B7  0007              add [edi],al
000040B9  DF                db 0xDF
000040BA  FF                db 0xFF
000040BB  FF1411            call near [ecx+edx]
000040BE  0000              add [eax],al
000040C0  33DF              xor ebx,edi
000040C2  FF                db 0xFF
000040C3  FF                db 0xFF
000040C4  3811              cmp [ecx],dl
000040C6  0000              add [eax],al
000040C8  63DF              arpl di,bx
000040CA  FF                db 0xFF
000040CB  FF5C1100          call far [ecx+edx+0x0]
000040CF  00F2              add dl,dh
000040D1  DF                db 0xDF
000040D2  FF                db 0xFF
000040D3  FF80110000AA      inc dword [eax+0xaa000011]
000040D9  E0FF              loopne 0x40da
000040DB  FFA8110000DA      jmp far [eax+0xda000011]
000040E1  E0FF              loopne 0x40e2
000040E3  FFC8              dec eax
000040E5  1100              adc [eax],eax
000040E7  00EE              add dh,ch
000040E9  E0FF              loopne 0x40ea
000040EB  FF                db 0xFF
000040EC  E811000015        call 0x15004102
000040F1  E1FF              loope 0x40f2
000040F3  FF08              dec dword [eax]
000040F5  1200              adc al,[eax]
000040F7  0030              add [eax],dh
000040F9  E1FF              loope 0x40fa
000040FB  FF28              jmp far [eax]
000040FD  1200              adc al,[eax]
000040FF  0068E1            add [eax-0x1f],ch
00004102  FF                db 0xFF
00004103  FF4812            dec dword [eax+0x12]
00004106  0000              add [eax],al
00004108  AC                lodsb
00004109  E1FF              loope 0x410a
0000410B  FF6812            jmp far [eax+0x12]
0000410E  0000              add [eax],al
00004110  D3E1              shl ecx,cl
00004112  FF                db 0xFF
00004113  FF88120000F4      dec dword [eax+0xf4000012]
00004119  E1FF              loope 0x411a
0000411B  FFA81200000E      jmp far [eax+0xe000012]
00004121  E2FF              loop 0x4122
00004123  FFC8              dec eax
00004125  1200              adc al,[eax]
00004127  001E              add [esi],bl
00004129  E2FF              loop 0x412a
0000412B  FF                db 0xFF
0000412C  E812000026        call 0x26004143
00004131  E2FF              loop 0x4132
00004133  FF08              dec dword [eax]
00004135  1300              adc eax,[eax]
00004137  0036              add [esi],dh
00004139  E2FF              loop 0x413a
0000413B  FF28              jmp far [eax]
0000413D  1300              adc eax,[eax]
0000413F  0064E2FF          add [edx-0x1],ah
00004143  FF4813            dec dword [eax+0x13]
00004146  0000              add [eax],al
00004148  6C                insb
00004149  E2FF              loop 0x414a
0000414B  FF6813            jmp far [eax+0x13]
0000414E  0000              add [eax],al
00004150  A4                movsb
00004151  E2FF              loop 0x4152
00004153  FF8C13000048E3    dec dword [ebx+edx+0xe3480000]
0000415A  FF                db 0xFF
0000415B  FFB013000067      push dword [eax+0x67000013]
00004161  E3FF              jecxz 0x4162
00004163  FFD0              call eax
00004165  1300              adc eax,[eax]
00004167  0098E3FFFFF4      add [eax+0xf4ffffe3],bl
0000416D  1300              adc eax,[eax]
0000416F  00C7              add bh,al
00004171  E3FF              jecxz 0x4172
00004173  FF1414            call near [esp+edx]
00004176  0000              add [eax],al
00004178  EF                out dx,eax
00004179  E3FF              jecxz 0x417a
0000417B  FF3414            push dword [esp+edx]
0000417E  0000              add [eax],al
00004180  0AE4              or ah,ah
00004182  FF                db 0xFF
00004183  FF541400          call near [esp+edx+0x0]
00004187  0042E4            add [edx-0x1c],al
0000418A  FF                db 0xFF
0000418B  FF741400          push dword [esp+edx+0x0]
0000418F  0080E4FFFF94      add [eax+0x94ffffe4],al
00004195  1400              adc al,0x0
00004197  00A7E4FFFFB4      add [edi+0xb4ffffe4],ah
0000419D  1400              adc al,0x0
0000419F  00C8              add al,cl
000041A1  E4FF              in al,0xff
000041A3  FFD4              call esp
000041A5  1400              adc al,0x0
000041A7  00E2              add dl,ah
000041A9  E4FF              in al,0xff
000041AB  FFF4              push esp
000041AD  1400              adc al,0x0
000041AF  001A              add [edx],bl
000041B1  E5FF              in eax,0xff
000041B3  FF141500005EE5    call near [edx+0xe55e0000]
000041BA  FF                db 0xFF
000041BB  FF3415000085E5    push dword [edx+0xe5850000]
000041C2  FF                db 0xFF
000041C3  FF541500          call near [ebp+edx+0x0]
000041C7  00A6E5FFFF74      add [esi+0x74ffffe5],ah
000041CD  150000C0E5        adc eax,0xe5c00000
000041D2  FF                db 0xFF
000041D3  FF94150000C8E5    call near [ebp+edx+0xe5c80000]
000041DA  FF                db 0xFF
000041DB  FFB4150000FBE5    push dword [ebp+edx+0xe5fb0000]
000041E2  FF                db 0xFF
000041E3  FFD4              call esp
000041E5  150000DEE6        adc eax,0xe6de0000
000041EA  FF                db 0xFF
000041EB  FF                db 0xFF
000041EC  FC                cld
000041ED  1500000FE7        adc eax,0xe70f0000
000041F2  FF                db 0xFF
000041F3  FF1C16            call far [esi+edx]
000041F6  0000              add [eax],al
000041F8  25E8FFFF44        and eax,0x44ffffe8
000041FD  16                push ss
000041FE  0000              add [eax],al
00004200  6C                insb
00004201  E8FFFF6816        call 0x16694205
00004206  0000              add [eax],al
00004208  80E8FF            sub al,0xff
0000420B  FF8816000086      dec dword [eax+0x86000016]
00004211  E8FFFFA816        call 0x16a94215
00004216  0000              add [eax],al
00004218  99                cdq
00004219  E8FFFFC816        call 0x16c9421d
0000421E  0000              add [eax],al
00004220  9E                sahf
00004221  E8FFFFE816        call 0x16e94225
00004226  0000              add [eax],al
00004228  B8E8FFFF08        mov eax,0x8ffffe8
0000422D  17                pop ss
0000422E  0000              add [eax],al
00004230  E8E8FFFF28        call 0x2900421d
00004235  17                pop ss
00004236  0000              add [eax],al
00004238  FB                sti
00004239  E8FFFF4817        call 0x1749423d
0000423E  0000              add [eax],al
00004240  1CE9              sbb al,0xe9
00004242  FF                db 0xFF
00004243  FF6817            jmp far [eax+0x17]
00004246  0000              add [eax],al
00004248  45                inc ebp
00004249  E9FFFF8817        jmp 0x1789424d
0000424E  0000              add [eax],al
00004250  58                pop eax
00004251  E9FFFFA817        jmp 0x17a94255
00004256  0000              add [eax],al
00004258  9C                pushf
00004259  E9FFFFD017        jmp 0x17d1425d
0000425E  0000              add [eax],al
00004260  B7E9              mov bh,0xe9
00004262  FF                db 0xFF
00004263  FFF0              push eax
00004265  17                pop ss
00004266  0000              add [eax],al
00004268  D2E9              shr cl,cl
0000426A  FF                db 0xFF
0000426B  FF10              call near [eax]
0000426D  1800              sbb [eax],al
0000426F  0002              add [edx],al
00004271  EAFFFF30180000    jmp 0x0:0x1830ffff
00004278  24EA              and al,0xea
0000427A  FF                db 0xFF
0000427B  FF5018            call near [eax+0x18]
0000427E  0000              add [eax],al
00004280  2AEA              sub ch,dl
00004282  FF                db 0xFF
00004283  FF7018            push dword [eax+0x18]
00004286  0000              add [eax],al
00004288  44                inc esp
00004289  EAFFFF90180000    jmp 0x0:0x1890ffff
00004290  74EA              jz 0x427c
00004292  FF                db 0xFF
00004293  FFB018000087      push dword [eax+0x87000018]
00004299  EAFFFFD0180000    jmp 0x0:0x18d0ffff
000042A0  A8EA              test al,0xea
000042A2  FF                db 0xFF
000042A3  FFF0              push eax
000042A5  1800              sbb [eax],al
000042A7  00AEEAFFFF10      add [esi+0x10ffffea],ch
000042AD  1900              sbb [eax],eax
000042AF  00C8              add al,cl
000042B1  EAFFFF30190000    jmp 0x0:0x1930ffff
000042B8  F8                clc
000042B9  EAFFFF50190000    jmp 0x0:0x1950ffff
000042C0  0BEB              or ebp,ebx
000042C2  FF                db 0xFF
000042C3  FF7019            push dword [eax+0x19]
000042C6  0000              add [eax],al
000042C8  2CEB              sub al,0xeb
000042CA  FF                db 0xFF
000042CB  FF9019000055      call near [eax+0x55000019]
000042D1  EBFF              jmp short 0x42d2
000042D3  FFB0190000E3      push dword [eax+0xe3000019]
000042D9  EBFF              jmp short 0x42da
000042DB  FF                db 0xFF
000042DC  D819              fcomp dword [ecx]
000042DE  0000              add [eax],al
000042E0  2EEC              cs in al,dx
000042E2  FF                db 0xFF
000042E3  FF                db 0xFF
000042E4  F8                clc
000042E5  1900              sbb [eax],eax
000042E7  0061EC            add [ecx-0x14],ah
000042EA  FF                db 0xFF
000042EB  FF18              call far [eax]
000042ED  1A00              sbb al,[eax]
000042EF  0074EDFF          add [ebp+ebp*8-0x1],dh
000042F3  FF401A            inc dword [eax+0x1a]
000042F6  0000              add [eax],al
000042F8  7EED              jng 0x42e7
000042FA  FF                db 0xFF
000042FB  FF601A            jmp near [eax+0x1a]
000042FE  0000              add [eax],al
00004300  31EE              xor esi,ebp
00004302  FF                db 0xFF
00004303  FF841A00005EEE    inc dword [edx+ebx+0xee5e0000]
0000430A  FF                db 0xFF
0000430B  FFA81A000073      jmp far [eax+0x7300001a]
00004311  EE                out dx,al
00004312  FF                db 0xFF
00004313  FFC8              dec eax
00004315  1A00              sbb al,[eax]
00004317  00CD              add ch,cl
00004319  EE                out dx,al
0000431A  FF                db 0xFF
0000431B  FF                db 0xFF
0000431C  E81A000052        call 0x5200433b
00004321  EF                out dx,eax
00004322  FF                db 0xFF
00004323  FF0C1B            dec dword [ebx+ebx]
00004326  0000              add [eax],al
00004328  58                pop eax
00004329  EF                out dx,eax
0000432A  FF                db 0xFF
0000432B  FF2C1B            jmp far [ebx+ebx]
0000432E  0000              add [eax],al
00004330  5E                pop esi
00004331  EF                out dx,eax
00004332  FF                db 0xFF
00004333  FF4C1B00          dec dword [ebx+ebx+0x0]
00004337  0094EFFFFF6C1B    add [edi+ebp*8+0x1b6cffff],dl
0000433E  0000              add [eax],al
00004340  02F0              add dh,al
00004342  FF                db 0xFF
00004343  FF941B00000AF0    call near [ebx+ebx+0xf00a0000]
0000434A  FF                db 0xFF
0000434B  FFB41B00001DF0    push dword [ebx+ebx+0xf01d0000]
00004352  FF                db 0xFF
00004353  FFD4              call esp
00004355  1B00              sbb eax,[eax]
00004357  0025F0FFFFF4      add [0xf4fffff0],ah
0000435D  1B00              sbb eax,[eax]
0000435F  0038              add [eax],bh
00004361  F0                db 0xF0
00004362  FF                db 0xFF
00004363  FF141C            call near [esp+ebx]
00004366  0000              add [eax],al
00004368  5D                pop ebp
00004369  F0                db 0xF0
0000436A  FF                db 0xFF
0000436B  FF341C            push dword [esp+ebx]
0000436E  0000              add [eax],al
00004370  70F0              jo 0x4362
00004372  FF                db 0xFF
00004373  FF541C00          call near [esp+ebx+0x0]
00004377  0078F0            add [eax-0x10],bh
0000437A  FF                db 0xFF
0000437B  FF741C00          push dword [esp+ebx+0x0]
0000437F  0082F0FFFF94      add [edx+0x94fffff0],al
00004385  1C00              sbb al,0x0
00004387  00A4F0FFFFB41C    add [eax+esi*8+0x1cb4ffff],ah
0000438E  0000              add [eax],al
00004390  AA                stosb
00004391  F0                db 0xF0
00004392  FF                db 0xFF
00004393  FFD4              call esp
00004395  1C00              sbb al,0x0
00004397  00DA              add dl,bl
00004399  F0                db 0xF0
0000439A  FF                db 0xFF
0000439B  FFF4              push esp
0000439D  1C00              sbb al,0x0
0000439F  00FC              add ah,bh
000043A1  F0                db 0xF0
000043A2  FF                db 0xFF
000043A3  FF141D000002F1    call near [ebx+0xf1020000]
000043AA  FF                db 0xFF
000043AB  FF341D000038F1    push dword [ebx+0xf1380000]
000043B2  FF                db 0xFF
000043B3  FF541D00          call near [ebp+ebx+0x0]
000043B7  00A6F1FFFF7C      add [esi+0x7cfffff1],ah
000043BD  1D0000AEF1        sbb eax,0xf1ae0000
000043C2  FF                db 0xFF
000043C3  FF9C1D0000C1F1    call far [ebp+ebx+0xf1c10000]
000043CA  FF                db 0xFF
000043CB  FF                db 0xFF
000043CC  BC1D000077        mov esp,0x7700001d
000043D1  F2                db 0xF2
000043D2  FF                db 0xFF
000043D3  FFE0              jmp eax
000043D5  1D0000A3F2        sbb eax,0xf2a30000
000043DA  FF                db 0xFF
000043DB  FF041E            inc dword [esi+ebx]
000043DE  0000              add [eax],al
000043E0  0CF3              or al,0xf3
000043E2  FF                db 0xFF
000043E3  FF28              jmp far [eax]
000043E5  1E                push ds
000043E6  0000              add [eax],al
000043E8  21F3              and ebx,esi
000043EA  FF                db 0xFF
000043EB  FF481E            dec dword [eax+0x1e]
000043EE  0000              add [eax],al
000043F0  3BF3              cmp esi,ebx
000043F2  FF                db 0xFF
000043F3  FF681E            jmp far [eax+0x1e]
000043F6  0000              add [eax],al
000043F8  5D                pop ebp
000043F9  F3                db 0xF3
000043FA  FF                db 0xFF
000043FB  FF881E0000BC      dec dword [eax+0xbc00001e]
00004401  F3                db 0xF3
00004402  FF                db 0xFF
00004403  FFB01E0000C6      push dword [eax+0xc600001e]
00004409  F3                db 0xF3
0000440A  FF                db 0xFF
0000440B  FFD0              call eax
0000440D  1E                push ds
0000440E  0000              add [eax],al
00004410  1BF4              sbb esi,esp
00004412  FF                db 0xFF
00004413  FF00              inc dword [eax]
00004415  1F                pop ds
00004416  0000              add [eax],al
00004418  59                pop ecx
00004419  F4                hlt
0000441A  FF                db 0xFF
0000441B  FF20              jmp near [eax]
0000441D  1F                pop ds
0000441E  0000              add [eax],al
00004420  96                xchg eax,esi
00004421  F4                hlt
00004422  FF                db 0xFF
00004423  FF401F            inc dword [eax+0x1f]
00004426  0000              add [eax],al
00004428  A0F4FFFF60        mov al,[0x60fffff4]
0000442D  1F                pop ds
0000442E  0000              add [eax],al
00004430  CAF4FF            retf 0xfff4
00004433  FF801F0000D4      inc dword [eax+0xd400001f]
00004439  F4                hlt
0000443A  FF                db 0xFF
0000443B  FFA01F000029      jmp near [eax+0x2900001f]
00004441  F5                cmc
00004442  FF                db 0xFF
00004443  FFD0              call eax
00004445  1F                pop ds
00004446  0000              add [eax],al
00004448  E2F6              loop 0x4440
0000444A  FF                db 0xFF
0000444B  FF00              inc dword [eax]
0000444D  2000              and [eax],al
0000444F  0013              add [ebx],dl
00004451  F7FF              idiv edi
00004453  FF2420            jmp near [eax]
00004456  0000              add [eax],al
00004458  25F7FFFF44        and eax,0x44fffff7
0000445D  2000              and [eax],al
0000445F  0038              add [eax],bh
00004461  F7FF              idiv edi
00004463  FF642000          jmp near [eax+0x0]
00004467  005EF7            add [esi-0x9],bl
0000446A  FF                db 0xFF
0000446B  FF8420000015F8    inc dword [eax+0xf8150000]
00004472  FF                db 0xFF
00004473  FFB02000001D      push dword [eax+0x1d000020]
00004479  F8                clc
0000447A  FF                db 0xFF
0000447B  FFD0              call eax
0000447D  2000              and [eax],al
0000447F  004BF8            add [ebx-0x8],cl
00004482  FF                db 0xFF
00004483  FFF0              push eax
00004485  2000              and [eax],al
00004487  005EF8            add [esi-0x8],bl
0000448A  FF                db 0xFF
0000448B  FF10              call near [eax]
0000448D  2100              and [eax],eax
0000448F  008EF8FFFF30      add [esi+0x30fffff8],cl
00004495  2100              and [eax],eax
00004497  0045F9            add [ebp-0x7],al
0000449A  FF                db 0xFF
0000449B  FF5C2100          call far [ecx+0x0]
0000449F  0048FA            add [eax-0x6],cl
000044A2  FF                db 0xFF
000044A3  FF882100006A      dec dword [eax+0x6a000021]
000044A9  FA                cli
000044AA  FF                db 0xFF
000044AB  FFA82100007F      jmp far [eax+0x7f000021]
000044B1  FA                cli
000044B2  FF                db 0xFF
000044B3  FFC8              dec eax
000044B5  2100              and [eax],eax
000044B7  00D4              add ah,dl
000044B9  FA                cli
000044BA  FF                db 0xFF
000044BB  FF                db 0xFF
000044BC  E8210000DC        call 0xdc0044e2
000044C1  FA                cli
000044C2  FF                db 0xFF
000044C3  FF08              dec dword [eax]
000044C5  2200              and al,[eax]
000044C7  0026              add [esi],ah
000044C9  FB                sti
000044CA  FF                db 0xFF
000044CB  FF30              push dword [eax]
000044CD  2200              and al,[eax]
000044CF  0047FB            add [edi-0x5],al
000044D2  FF                db 0xFF
000044D3  FF5022            call near [eax+0x22]
000044D6  0000              add [eax],al
000044D8  50                push eax
000044D9  FB                sti
000044DA  FF                db 0xFF
000044DB  FF7022            push dword [eax+0x22]
000044DE  0000              add [eax],al
000044E0  69FBFFFF9022      imul edi,ebx,dword 0x2290ffff
000044E6  0000              add [eax],al
000044E8  72FB              jc 0x44e5
000044EA  FF                db 0xFF
000044EB  FFB02200007A      push dword [eax+0x7a000022]
000044F1  FB                sti
000044F2  FF                db 0xFF
000044F3  FFD0              call eax
000044F5  2200              and al,[eax]
000044F7  00A2FBFFFFF0      add [edx+0xf0fffffb],ah
000044FD  2200              and al,[eax]
000044FF  00CA              add dl,cl
00004501  FB                sti
00004502  FF                db 0xFF
00004503  FF10              call near [eax]
00004505  2300              and eax,[eax]
00004507  00EC              add ah,ch
00004509  FB                sti
0000450A  FF                db 0xFF
0000450B  FF30              push dword [eax]
0000450D  2300              and eax,[eax]
0000450F  0024FC            add [esp+edi*8],ah
00004512  FF                db 0xFF
00004513  FF5023            call near [eax+0x23]
00004516  0000              add [eax],al
00004518  61                popa
00004519  FC                cld
0000451A  FF                db 0xFF
0000451B  FF7023            push dword [eax+0x23]
0000451E  0000              add [eax],al
00004520  82                db 0x82
00004521  FC                cld
00004522  FF                db 0xFF
00004523  FF9023000091      call near [eax+0x91000023]
00004529  FC                cld
0000452A  FF                db 0xFF
0000452B  FFB0230000B2      push dword [eax+0xb2000023]
00004531  FC                cld
00004532  FF                db 0xFF
00004533  FFD0              call eax
00004535  2300              and eax,[eax]
00004537  00CC              add ah,cl
00004539  FC                cld
0000453A  FF                db 0xFF
0000453B  FFF0              push eax
0000453D  2300              and eax,[eax]
0000453F  002DFDFFFF14      add [0x14fffffd],ch
00004545  2400              and al,0x0
00004547  004EFD            add [esi-0x3],cl
0000454A  FF                db 0xFF
0000454B  FF3424            push dword [esp]
0000454E  0000              add [eax],al
00004550  53                push ebx
00004551  FD                std
00004552  FF                db 0xFF
00004553  FF542400          call near [esp+0x0]
00004557  0080FDFFFF78      add [eax+0x78fffffd],al
0000455D  2400              and al,0x0
0000455F  0096FDFFFF98      add [esi+0x98fffffd],dl
00004565  2400              and al,0x0
00004567  00A0FDFFFFB8      add [eax+0xb8fffffd],ah
0000456D  2400              and al,0x0
0000456F  00EB              add bl,ch
00004571  FD                std
00004572  FF                db 0xFF
00004573  FF                db 0xFF
00004574  D82400            fsub dword [eax+eax]
00004577  000DFEFFFFF8      add [0xf8fffffe],cl
0000457D  2400              and al,0x0
0000457F  0051FE            add [ecx-0x2],dl
00004582  FF                db 0xFF
00004583  FF20              jmp near [eax]
00004585  25000063FE        and eax,0xfe630000
0000458A  FF                db 0xFF
0000458B  FF4025            inc dword [eax+0x25]
0000458E  0000              add [eax],al
00004590  76FE              jna 0x4590
00004592  FF                db 0xFF
00004593  FF6025            jmp near [eax+0x25]
00004596  0000              add [eax],al
00004598  9B                wait
00004599  FE                db 0xFE
0000459A  FF                db 0xFF
0000459B  FF80250000B0      inc dword [eax+0xb0000025]
000045A1  FE                db 0xFE
000045A2  FF                db 0xFF
000045A3  FFA0250000FA      jmp near [eax+0xfa000025]
000045A9  FE                db 0xFE
000045AA  FF                db 0xFF
000045AB  FFC0              inc eax
000045AD  2500001400        and eax,0x140000
000045B2  0000              add [eax],al
000045B4  0000              add [eax],al
000045B6  0000              add [eax],al
000045B8  017A52            add [edx+0x52],edi
000045BB  0001              add [ecx],al
000045BD  7C08              jl 0x45c7
000045BF  011B              add [ebx],ebx
000045C1  0C04              or al,0x4
000045C3  0488              add al,0x88
000045C5  0100              add [eax],eax
000045C7  0020              add [eax],ah
000045C9  0000              add [eax],al
000045CB  001C00            add [eax+eax],bl
000045CE  0000              add [eax],al
000045D0  00C1              add cl,al
000045D2  FF                db 0xFF
000045D3  FF30              push dword [eax]
000045D5  0100              add [eax],eax
000045D7  0000              add [eax],al
000045D9  0E                push cs
000045DA  08460E            or [esi+0xe],al
000045DD  0C4A              or al,0x4a
000045DF  0F0B              ud2
000045E1  7404              jz 0x45e7
000045E3  7800              js 0x45e5
000045E5  3F                aas
000045E6  1A3B              sbb bh,[ebx]
000045E8  2A32              sub dh,[edx]
000045EA  2422              and al,0x22
000045EC  1C00              sbb al,0x0
000045EE  0000              add [eax],al
000045F0  40                inc eax
000045F1  0000              add [eax],al
000045F3  007AC9            add [edx-0x37],bh
000045F6  FF                db 0xFF
000045F7  FF18              call far [eax]
000045F9  0000              add [eax],al
000045FB  0000              add [eax],al
000045FD  41                inc ecx
000045FE  0E                push cs
000045FF  088502420D05      or [ebp+0x50d4202],al
00004605  54                push esp
00004606  C50C04            lds ecx,[esp+eax]
00004609  0400              add al,0x0
0000460B  001C00            add [eax+eax],bl
0000460E  0000              add [eax],al
00004610  60                pusha
00004611  0000              add [eax],al
00004613  0072C9            add [edx-0x37],dh
00004616  FF                db 0xFF
00004617  FF08              dec dword [eax]
00004619  0000              add [eax],al
0000461B  0000              add [eax],al
0000461D  41                inc ecx
0000461E  0E                push cs
0000461F  088502420D05      or [ebp+0x50d4202],al
00004625  44                inc esp
00004626  C50C04            lds ecx,[esp+eax]
00004629  0400              add al,0x0
0000462B  001C00            add [eax+eax],bl
0000462E  0000              add [eax],al
00004630  800000            add byte [eax],0x0
00004633  005AC9            add [edx-0x37],bl
00004636  FF                db 0xFF
00004637  FF0500000000      inc dword [0x0]
0000463D  41                inc ecx
0000463E  0E                push cs
0000463F  088502420D05      or [ebp+0x50d4202],al
00004645  41                inc ecx
00004646  C50C04            lds ecx,[esp+eax]
00004649  0400              add al,0x0
0000464B  001C00            add [eax+eax],bl
0000464E  0000              add [eax],al
00004650  0000              add [eax],al
00004652  0000              add [eax],al
00004654  017A50            add [edx+0x50],edi
00004657  4C                dec esp
00004658  52                push edx
00004659  0001              add [ecx],al
0000465B  7C08              jl 0x4665
0000465D  07                pop es
0000465E  00E0              add al,ah
00004660  870408            xchg eax,[eax+ecx]
00004663  001B              add [ebx],bl
00004665  0C04              or al,0x4
00004667  0488              add al,0x88
00004669  0100              add [eax],eax
0000466B  003C00            add [eax+eax],bh
0000466E  0000              add [eax],al
00004670  2400              and al,0x0
00004672  0000              add [eax],al
00004674  AC                lodsb
00004675  C2FFFF            ret 0xffff
00004678  F30500000488      rep add eax,0x88040000
0000467E  E404              in al,0x4
00004680  08440C01          or [esp+ecx+0x1],al
00004684  004710            add [edi+0x10],al
00004687  0502750045        add eax,0x45007502
0000468C  0F037574          lsl esi,[ebp+0x74]
00004690  06                push es
00004691  1006              adc [esi],al
00004693  02757C            add dh,[ebp+0x7c]
00004696  1003              adc [ebx],al
00004698  027578            add dh,[ebp+0x78]
0000469B  03DC              add ebx,esp
0000469D  05C10C0100        add eax,0x10cc1
000046A2  41                inc ecx
000046A3  C3                ret
000046A4  41                inc ecx
000046A5  C641C543          mov byte [ecx-0x3b],0x43
000046A9  0C04              or al,0x4
000046AB  041C              add al,0x1c
000046AD  0000              add [eax],al
000046AF  0000              add [eax],al
000046B1  0100              add [eax],eax
000046B3  00E0              add al,ah
000046B5  C8FFFF13          enter 0xffff,0x13
000046B9  0000              add [eax],al
000046BB  0000              add [eax],al
000046BD  41                inc ecx
000046BE  0E                push cs
000046BF  088502420D05      or [ebp+0x50d4202],al
000046C5  4F                dec edi
000046C6  C50C04            lds ecx,[esp+eax]
000046C9  0400              add al,0x0
000046CB  002400            add [eax+eax],ah
000046CE  0000              add [eax],al
000046D0  8400              test [eax],al
000046D2  0000              add [eax],al
000046D4  D4C8              aam 0xc8
000046D6  FF                db 0xFF
000046D7  FF5700            call near [edi+0x0]
000046DA  0000              add [eax],al
000046DC  04E3              add al,0xe3
000046DE  E404              in al,0x4
000046E0  08410E            or [ecx+0xe],al
000046E3  088502420D05      or [ebp+0x50d4202],al
000046E9  44                inc esp
000046EA  830302            add dword [ebx],byte +0x2
000046ED  4E                dec esi
000046EE  C3                ret
000046EF  41                inc ecx
000046F0  C50C04            lds ecx,[esp+eax]
000046F3  041C              add al,0x1c
000046F5  0000              add [eax],al
000046F7  004801            add [eax+0x1],cl
000046FA  0000              add [eax],al
000046FC  04C9              add al,0xc9
000046FE  FF                db 0xFF
000046FF  FF13              call near [ebx]
00004701  0000              add [eax],al
00004703  0000              add [eax],al
00004705  41                inc ecx
00004706  0E                push cs
00004707  088502420D05      or [ebp+0x50d4202],al
0000470D  4F                dec edi
0000470E  C50C04            lds ecx,[esp+eax]
00004711  0400              add al,0x0
00004713  001C00            add [eax+eax],bl
00004716  0000              add [eax],al
00004718  68010000F8        push dword 0xf8000001
0000471D  C8FFFF13          enter 0xffff,0x13
00004721  0000              add [eax],al
00004723  0000              add [eax],al
00004725  41                inc ecx
00004726  0E                push cs
00004727  088502420D05      or [ebp+0x50d4202],al
0000472D  4F                dec edi
0000472E  C50C04            lds ecx,[esp+eax]
00004731  0400              add al,0x0
00004733  002400            add [eax+eax],ah
00004736  0000              add [eax],al
00004738  EC                in al,dx
00004739  0000              add [eax],al
0000473B  00EC              add ah,ch
0000473D  C8FFFF58          enter 0xffff,0x58
00004741  0000              add [eax],al
00004743  0004F3            add [ebx+esi*8],al
00004746  E404              in al,0x4
00004748  08410E            or [ecx+0xe],al
0000474B  088502420D05      or [ebp+0x50d4202],al
00004751  44                inc esp
00004752  830302            add dword [ebx],byte +0x2
00004755  4F                dec edi
00004756  C3                ret
00004757  41                inc ecx
00004758  C50C04            lds ecx,[esp+eax]
0000475B  0424              add al,0x24
0000475D  0000              add [eax],al
0000475F  001401            add [ecx+eax],dl
00004762  0000              add [eax],al
00004764  1CC9              sbb al,0xc9
00004766  FF                db 0xFF
00004767  FF5700            call near [edi+0x0]
0000476A  0000              add [eax],al
0000476C  0403              add al,0x3
0000476E  E504              in eax,0x4
00004770  08410E            or [ecx+0xe],al
00004773  088502420D05      or [ebp+0x50d4202],al
00004779  44                inc esp
0000477A  830302            add dword [ebx],byte +0x2
0000477D  4E                dec esi
0000477E  C3                ret
0000477F  41                inc ecx
00004780  C50C04            lds ecx,[esp+eax]
00004783  041C              add al,0x1c
00004785  0000              add [eax],al
00004787  00D8              add al,bl
00004789  0100              add [eax],eax
0000478B  004CC9FF          add [ecx+ecx*8-0x1],cl
0000478F  FF18              call far [eax]
00004791  0000              add [eax],al
00004793  0000              add [eax],al
00004795  41                inc ecx
00004796  0E                push cs
00004797  088502420D05      or [ebp+0x50d4202],al
0000479D  54                push esp
0000479E  C50C04            lds ecx,[esp+eax]
000047A1  0400              add al,0x0
000047A3  0020              add [eax],ah
000047A5  0000              add [eax],al
000047A7  005C0100          add [ecx+eax+0x0],bl
000047AB  0044C9FF          add [ecx+ecx*8-0x1],al
000047AF  FF5000            call near [eax+0x0]
000047B2  0000              add [eax],al
000047B4  0413              add al,0x13
000047B6  E504              in eax,0x4
000047B8  08410E            or [ecx+0xe],al
000047BB  088502420D05      or [ebp+0x50d4202],al
000047C1  024CC50C          add cl,[ebp+eax*8+0xc]
000047C5  0404              add al,0x4
000047C7  0020              add [eax],ah
000047C9  0000              add [eax],al
000047CB  008001000070      add [eax+0x70000001],al
000047D1  C9                leave
000047D2  FF                db 0xFF
000047D3  FF5700            call near [edi+0x0]
000047D6  0000              add [eax],al
000047D8  0427              add al,0x27
000047DA  E504              in eax,0x4
000047DC  08410E            or [ecx+0xe],al
000047DF  088502420D05      or [ebp+0x50d4202],al
000047E5  0253C5            add dl,[ebx-0x3b]
000047E8  0C04              or al,0x4
000047EA  0400              add al,0x0
000047EC  1C00              sbb al,0x0
000047EE  0000              add [eax],al
000047F0  40                inc eax
000047F1  0200              add al,[eax]
000047F3  00A3C9FFFF2C      add [ebx+0x2cffffc9],ah
000047F9  0000              add [eax],al
000047FB  0000              add [eax],al
000047FD  41                inc ecx
000047FE  0E                push cs
000047FF  088502420D05      or [ebp+0x50d4202],al
00004805  66C50C04          lds cx,[esp+eax]
00004809  0400              add al,0x0
0000480B  001C00            add [eax+eax],bl
0000480E  0000              add [eax],al
00004810  60                pusha
00004811  0200              add al,[eax]
00004813  00B0C9FFFF73      add [eax+0x73ffffc9],dh
00004819  0000              add [eax],al
0000481B  0000              add [eax],al
0000481D  41                inc ecx
0000481E  0E                push cs
0000481F  088502420D05      or [ebp+0x50d4202],al
00004825  026FC5            add ch,[edi-0x3b]
00004828  0C04              or al,0x4
0000482A  0400              add al,0x0
0000482C  1C00              sbb al,0x0
0000482E  0000              add [eax],al
00004830  800200            add byte [edx],0x0
00004833  0004CA            add [edx+ecx*8],al
00004836  FF                db 0xFF
00004837  FF19              call far [ecx]
00004839  0000              add [eax],al
0000483B  0000              add [eax],al
0000483D  41                inc ecx
0000483E  0E                push cs
0000483F  088502420D05      or [ebp+0x50d4202],al
00004845  55                push ebp
00004846  C50C04            lds ecx,[esp+eax]
00004849  0400              add al,0x0
0000484B  001C00            add [eax+eax],bl
0000484E  0000              add [eax],al
00004850  A0020000FE        mov al,[0xfe000002]
00004855  C9                leave
00004856  FF                db 0xFF
00004857  FF13              call near [ebx]
00004859  0000              add [eax],al
0000485B  0000              add [eax],al
0000485D  41                inc ecx
0000485E  0E                push cs
0000485F  088502420D05      or [ebp+0x50d4202],al
00004865  4F                dec edi
00004866  C50C04            lds ecx,[esp+eax]
00004869  0400              add al,0x0
0000486B  001C00            add [eax+eax],bl
0000486E  0000              add [eax],al
00004870  C00200            rol byte [edx],0x0
00004873  00F2              add dl,dh
00004875  C9                leave
00004876  FF                db 0xFF
00004877  FF13              call near [ebx]
00004879  0000              add [eax],al
0000487B  0000              add [eax],al
0000487D  41                inc ecx
0000487E  0E                push cs
0000487F  088502420D05      or [ebp+0x50d4202],al
00004885  4F                dec edi
00004886  C50C04            lds ecx,[esp+eax]
00004889  0400              add al,0x0
0000488B  002400            add [eax+eax],ah
0000488E  0000              add [eax],al
00004890  44                inc esp
00004891  0200              add al,[eax]
00004893  00E6              add dh,ah
00004895  C9                leave
00004896  FF                db 0xFF
00004897  FF5800            call far [eax+0x0]
0000489A  0000              add [eax],al
0000489C  0437              add al,0x37
0000489E  E504              in eax,0x4
000048A0  08410E            or [ecx+0xe],al
000048A3  088502420D05      or [ebp+0x50d4202],al
000048A9  44                inc esp
000048AA  830302            add dword [ebx],byte +0x2
000048AD  4F                dec edi
000048AE  C3                ret
000048AF  41                inc ecx
000048B0  C50C04            lds ecx,[esp+eax]
000048B3  0424              add al,0x24
000048B5  0000              add [eax],al
000048B7  006C0200          add [edx+eax+0x0],ch
000048BB  0016              add [esi],dl
000048BD  CAFFFF            retf 0xffff
000048C0  57                push edi
000048C1  0000              add [eax],al
000048C3  000447            add [edi+eax*2],al
000048C6  E504              in eax,0x4
000048C8  08410E            or [ecx+0xe],al
000048CB  088502420D05      or [ebp+0x50d4202],al
000048D1  44                inc esp
000048D2  830302            add dword [ebx],byte +0x2
000048D5  4E                dec esi
000048D6  C3                ret
000048D7  41                inc ecx
000048D8  C50C04            lds ecx,[esp+eax]
000048DB  041C              add al,0x1c
000048DD  0000              add [eax],al
000048DF  0030              add [eax],dh
000048E1  0300              add eax,[eax]
000048E3  0046CA            add [esi-0x36],al
000048E6  FF                db 0xFF
000048E7  FF13              call near [ebx]
000048E9  0000              add [eax],al
000048EB  0000              add [eax],al
000048ED  41                inc ecx
000048EE  0E                push cs
000048EF  088502420D05      or [ebp+0x50d4202],al
000048F5  4F                dec edi
000048F6  C50C04            lds ecx,[esp+eax]
000048F9  0400              add al,0x0
000048FB  001C00            add [eax+eax],bl
000048FE  0000              add [eax],al
00004900  50                push eax
00004901  0300              add eax,[eax]
00004903  003A              add [edx],bh
00004905  CAFFFF            retf 0xffff
00004908  1300              adc eax,[eax]
0000490A  0000              add [eax],al
0000490C  00410E            add [ecx+0xe],al
0000490F  088502420D05      or [ebp+0x50d4202],al
00004915  4F                dec edi
00004916  C50C04            lds ecx,[esp+eax]
00004919  0400              add al,0x0
0000491B  002400            add [eax+eax],ah
0000491E  0000              add [eax],al
00004920  D402              aam 0x2
00004922  0000              add [eax],al
00004924  2ECAFFFF          cs retf 0xffff
00004928  58                pop eax
00004929  0000              add [eax],al
0000492B  000457            add [edi+edx*2],al
0000492E  E504              in eax,0x4
00004930  08410E            or [ecx+0xe],al
00004933  088502420D05      or [ebp+0x50d4202],al
00004939  44                inc esp
0000493A  830302            add dword [ebx],byte +0x2
0000493D  4F                dec edi
0000493E  C3                ret
0000493F  41                inc ecx
00004940  C50C04            lds ecx,[esp+eax]
00004943  0424              add al,0x24
00004945  0000              add [eax],al
00004947  00FC              add ah,bh
00004949  0200              add al,[eax]
0000494B  005ECA            add [esi-0x36],bl
0000494E  FF                db 0xFF
0000494F  FF5700            call near [edi+0x0]
00004952  0000              add [eax],al
00004954  0467              add al,0x67
00004956  E504              in eax,0x4
00004958  08410E            or [ecx+0xe],al
0000495B  088502420D05      or [ebp+0x50d4202],al
00004961  44                inc esp
00004962  830302            add dword [ebx],byte +0x2
00004965  4E                dec esi
00004966  C3                ret
00004967  41                inc ecx
00004968  C50C04            lds ecx,[esp+eax]
0000496B  041C              add al,0x1c
0000496D  0000              add [eax],al
0000496F  00C0              add al,al
00004971  0300              add eax,[eax]
00004973  008ECAFFFF12      add [esi+0x12ffffca],cl
00004979  0000              add [eax],al
0000497B  0000              add [eax],al
0000497D  41                inc ecx
0000497E  0E                push cs
0000497F  088502420D05      or [ebp+0x50d4202],al
00004985  4E                dec esi
00004986  C50C04            lds ecx,[esp+eax]
00004989  0400              add al,0x0
0000498B  001C00            add [eax+eax],bl
0000498E  0000              add [eax],al
00004990  E003              loopne 0x4995
00004992  0000              add [eax],al
00004994  80CAFF            or dl,0xff
00004997  FF18              call far [eax]
00004999  0000              add [eax],al
0000499B  0000              add [eax],al
0000499D  41                inc ecx
0000499E  0E                push cs
0000499F  088502420D05      or [ebp+0x50d4202],al
000049A5  54                push esp
000049A6  C50C04            lds ecx,[esp+eax]
000049A9  0400              add al,0x0
000049AB  001C00            add [eax+eax],bl
000049AE  0000              add [eax],al
000049B0  000400            add [eax+eax],al
000049B3  0078CA            add [eax-0x36],bh
000049B6  FF                db 0xFF
000049B7  FF12              call near [edx]
000049B9  0000              add [eax],al
000049BB  0000              add [eax],al
000049BD  41                inc ecx
000049BE  0E                push cs
000049BF  088502420D05      or [ebp+0x50d4202],al
000049C5  4E                dec esi
000049C6  C50C04            lds ecx,[esp+eax]
000049C9  0400              add al,0x0
000049CB  001C00            add [eax+eax],bl
000049CE  0000              add [eax],al
000049D0  200400            and [eax+eax],al
000049D3  006ACA            add [edx-0x36],ch
000049D6  FF                db 0xFF
000049D7  FF                db 0xFF
000049D8  3B00              cmp eax,[eax]
000049DA  0000              add [eax],al
000049DC  00410E            add [ecx+0xe],al
000049DF  088502420D05      or [ebp+0x50d4202],al
000049E5  77C5              ja 0x49ac
000049E7  0C04              or al,0x4
000049E9  0400              add al,0x0
000049EB  001C00            add [eax+eax],bl
000049EE  0000              add [eax],al
000049F0  40                inc eax
000049F1  0400              add al,0x0
000049F3  0086CAFFFF1F      add [esi+0x1fffffca],al
000049F9  0000              add [eax],al
000049FB  0000              add [eax],al
000049FD  41                inc ecx
000049FE  0E                push cs
000049FF  088502420D05      or [ebp+0x50d4202],al
00004A05  59                pop ecx
00004A06  C50C04            lds ecx,[esp+eax]
00004A09  0400              add al,0x0
00004A0B  001C00            add [eax+eax],bl
00004A0E  0000              add [eax],al
00004A10  60                pusha
00004A11  0400              add al,0x0
00004A13  0086CAFFFF22      add [esi+0x22ffffca],al
00004A19  0000              add [eax],al
00004A1B  0000              add [eax],al
00004A1D  41                inc ecx
00004A1E  0E                push cs
00004A1F  088502420D05      or [ebp+0x50d4202],al
00004A25  5C                pop esp
00004A26  C50C04            lds ecx,[esp+eax]
00004A29  0400              add al,0x0
00004A2B  001C00            add [eax+eax],bl
00004A2E  0000              add [eax],al
00004A30  80040000          add byte [eax+eax],0x0
00004A34  88CA              mov dl,cl
00004A36  FF                db 0xFF
00004A37  FF6200            jmp near [edx+0x0]
00004A3A  0000              add [eax],al
00004A3C  00410E            add [ecx+0xe],al
00004A3F  088502420D05      or [ebp+0x50d4202],al
00004A45  025EC5            add bl,[esi-0x3b]
00004A48  0C04              or al,0x4
00004A4A  0400              add al,0x0
00004A4C  1C00              sbb al,0x0
00004A4E  0000              add [eax],al
00004A50  A0040000CA        mov al,[0xca000004]
00004A55  CAFFFF            retf 0xffff
00004A58  1300              adc eax,[eax]
00004A5A  0000              add [eax],al
00004A5C  00410E            add [ecx+0xe],al
00004A5F  088502420D05      or [ebp+0x50d4202],al
00004A65  4F                dec edi
00004A66  C50C04            lds ecx,[esp+eax]
00004A69  0400              add al,0x0
00004A6B  001C00            add [eax+eax],bl
00004A6E  0000              add [eax],al
00004A70  C0040000          rol byte [eax+eax],0x0
00004A74  BECAFFFF13        mov esi,0x13ffffca
00004A79  0000              add [eax],al
00004A7B  0000              add [eax],al
00004A7D  41                inc ecx
00004A7E  0E                push cs
00004A7F  088502420D05      or [ebp+0x50d4202],al
00004A85  4F                dec edi
00004A86  C50C04            lds ecx,[esp+eax]
00004A89  0400              add al,0x0
00004A8B  002400            add [eax+eax],ah
00004A8E  0000              add [eax],al
00004A90  44                inc esp
00004A91  0400              add al,0x0
00004A93  00B2CAFFFF5F      add [edx+0x5fffffca],dh
00004A99  0000              add [eax],al
00004A9B  000477            add [edi+esi*2],al
00004A9E  E504              in eax,0x4
00004AA0  08410E            or [ecx+0xe],al
00004AA3  088502420D05      or [ebp+0x50d4202],al
00004AA9  44                inc esp
00004AAA  830302            add dword [ebx],byte +0x2
00004AAD  56                push esi
00004AAE  C3                ret
00004AAF  41                inc ecx
00004AB0  C50C04            lds ecx,[esp+eax]
00004AB3  041C              add al,0x1c
00004AB5  0000              add [eax],al
00004AB7  0008              add [eax],cl
00004AB9  050000EACA        add eax,0xcaea0000
00004ABE  FF                db 0xFF
00004ABF  FF08              dec dword [eax]
00004AC1  0000              add [eax],al
00004AC3  0000              add [eax],al
00004AC5  41                inc ecx
00004AC6  0E                push cs
00004AC7  088502420D05      or [ebp+0x50d4202],al
00004ACD  44                inc esp
00004ACE  C50C04            lds ecx,[esp+eax]
00004AD1  0400              add al,0x0
00004AD3  001C00            add [eax+eax],bl
00004AD6  0000              add [eax],al
00004AD8  28050000D2CA      sub [0xcad20000],al
00004ADE  FF                db 0xFF
00004ADF  FF1A              call far [edx]
00004AE1  0000              add [eax],al
00004AE3  0000              add [eax],al
00004AE5  41                inc ecx
00004AE6  0E                push cs
00004AE7  088502420D05      or [ebp+0x50d4202],al
00004AED  56                push esi
00004AEE  C50C04            lds ecx,[esp+eax]
00004AF1  0400              add al,0x0
00004AF3  001C00            add [eax+eax],bl
00004AF6  0000              add [eax],al
00004AF8  48                dec eax
00004AF9  050000CCCA        add eax,0xcacc0000
00004AFE  FF                db 0xFF
00004AFF  FF0500000000      inc dword [0x0]
00004B05  41                inc ecx
00004B06  0E                push cs
00004B07  088502420D05      or [ebp+0x50d4202],al
00004B0D  41                inc ecx
00004B0E  C50C04            lds ecx,[esp+eax]
00004B11  0400              add al,0x0
00004B13  001C00            add [eax+eax],bl
00004B16  0000              add [eax],al
00004B18  68050000B2        push dword 0xb2000005
00004B1D  CAFFFF            retf 0xffff
00004B20  0500000000        add eax,0x0
00004B25  41                inc ecx
00004B26  0E                push cs
00004B27  088502420D05      or [ebp+0x50d4202],al
00004B2D  41                inc ecx
00004B2E  C50C04            lds ecx,[esp+eax]
00004B31  0400              add al,0x0
00004B33  001C00            add [eax+eax],bl
00004B36  0000              add [eax],al
00004B38  8805000098CA      mov [0xca980000],al
00004B3E  FF                db 0xFF
00004B3F  FF13              call near [ebx]
00004B41  0000              add [eax],al
00004B43  0000              add [eax],al
00004B45  41                inc ecx
00004B46  0E                push cs
00004B47  088502420D05      or [ebp+0x50d4202],al
00004B4D  4F                dec edi
00004B4E  C50C04            lds ecx,[esp+eax]
00004B51  0400              add al,0x0
00004B53  002400            add [eax+eax],ah
00004B56  0000              add [eax],al
00004B58  0C05              or al,0x5
00004B5A  0000              add [eax],al
00004B5C  8CCA              mov edx,cs
00004B5E  FF                db 0xFF
00004B5F  FF4A00            dec dword [edx+0x0]
00004B62  0000              add [eax],al
00004B64  0483              add al,0x83
00004B66  E504              in eax,0x4
00004B68  08410E            or [ecx+0xe],al
00004B6B  088502420D05      or [ebp+0x50d4202],al
00004B71  44                inc esp
00004B72  830302            add dword [ebx],byte +0x2
00004B75  41                inc ecx
00004B76  C3                ret
00004B77  41                inc ecx
00004B78  C50C04            lds ecx,[esp+eax]
00004B7B  0424              add al,0x24
00004B7D  0000              add [eax],al
00004B7F  0034050000AECA    add [eax+0xcaae0000],dh
00004B86  FF                db 0xFF
00004B87  FF8100000004      inc dword [ecx+0x4000000]
00004B8D  8F                db 0x8F
00004B8E  E504              in eax,0x4
00004B90  08410E            or [ecx+0xe],al
00004B93  088502420D05      or [ebp+0x50d4202],al
00004B99  44                inc esp
00004B9A  830302            add dword [ebx],byte +0x2
00004B9D  78C3              js 0x4b62
00004B9F  41                inc ecx
00004BA0  C50C04            lds ecx,[esp+eax]
00004BA3  041C              add al,0x1c
00004BA5  0000              add [eax],al
00004BA7  00F8              add al,bh
00004BA9  05000008CB        add eax,0xcb080000
00004BAE  FF                db 0xFF
00004BAF  FF                db 0xFF
00004BB0  3E0000            add [ds:eax],al
00004BB3  0000              add [eax],al
00004BB5  41                inc ecx
00004BB6  0E                push cs
00004BB7  088502420D05      or [ebp+0x50d4202],al
00004BBD  7AC5              jpe 0x4b84
00004BBF  0C04              or al,0x4
00004BC1  0400              add al,0x0
00004BC3  001C00            add [eax+eax],bl
00004BC6  0000              add [eax],al
00004BC8  1806              sbb [esi],al
00004BCA  0000              add [eax],al
00004BCC  26CB              es retf
00004BCE  FF                db 0xFF
00004BCF  FF08              dec dword [eax]
00004BD1  0000              add [eax],al
00004BD3  0000              add [eax],al
00004BD5  41                inc ecx
00004BD6  0E                push cs
00004BD7  088502420D05      or [ebp+0x50d4202],al
00004BDD  44                inc esp
00004BDE  C50C04            lds ecx,[esp+eax]
00004BE1  0400              add al,0x0
00004BE3  001C00            add [eax+eax],bl
00004BE6  0000              add [eax],al
00004BE8  3806              cmp [esi],al
00004BEA  0000              add [eax],al
00004BEC  0E                push cs
00004BED  CB                retf
00004BEE  FF                db 0xFF
00004BEF  FF1A              call far [edx]
00004BF1  0000              add [eax],al
00004BF3  0000              add [eax],al
00004BF5  41                inc ecx
00004BF6  0E                push cs
00004BF7  088502420D05      or [ebp+0x50d4202],al
00004BFD  56                push esi
00004BFE  C50C04            lds ecx,[esp+eax]
00004C01  0400              add al,0x0
00004C03  001C00            add [eax+eax],bl
00004C06  0000              add [eax],al
00004C08  58                pop eax
00004C09  06                push es
00004C0A  0000              add [eax],al
00004C0C  08CB              or bl,cl
00004C0E  FF                db 0xFF
00004C0F  FF28              jmp far [eax]
00004C11  0000              add [eax],al
00004C13  0000              add [eax],al
00004C15  41                inc ecx
00004C16  0E                push cs
00004C17  088502420D05      or [ebp+0x50d4202],al
00004C1D  62                db 0x62
00004C1E  C50C04            lds ecx,[esp+eax]
00004C21  0400              add al,0x0
00004C23  001C00            add [eax+eax],bl
00004C26  0000              add [eax],al
00004C28  7806              js 0x4c30
00004C2A  0000              add [eax],al
00004C2C  10CB              adc bl,cl
00004C2E  FF                db 0xFF
00004C2F  FF27              jmp near [edi]
00004C31  0000              add [eax],al
00004C33  0000              add [eax],al
00004C35  41                inc ecx
00004C36  0E                push cs
00004C37  088502420D05      or [ebp+0x50d4202],al
00004C3D  61                popa
00004C3E  C50C04            lds ecx,[esp+eax]
00004C41  0400              add al,0x0
00004C43  0020              add [eax],ah
00004C45  0000              add [eax],al
00004C47  009806000017      add [eax+0x17000006],bl
00004C4D  CB                retf
00004C4E  FF                db 0xFF
00004C4F  FF2C00            jmp far [eax+eax]
00004C52  0000              add [eax],al
00004C54  00410E            add [ecx+0xe],al
00004C57  088502420D05      or [ebp+0x50d4202],al
00004C5D  44                inc esp
00004C5E  830363            add dword [ebx],byte +0x63
00004C61  C3                ret
00004C62  41                inc ecx
00004C63  C50C04            lds ecx,[esp+eax]
00004C66  0400              add al,0x0
00004C68  1C00              sbb al,0x0
00004C6A  0000              add [eax],al
00004C6C  BC06000020        mov esp,0x20000006
00004C71  CB                retf
00004C72  FF                db 0xFF
00004C73  FF22              jmp near [edx]
00004C75  0000              add [eax],al
00004C77  0000              add [eax],al
00004C79  41                inc ecx
00004C7A  0E                push cs
00004C7B  088502420D05      or [ebp+0x50d4202],al
00004C81  5C                pop esp
00004C82  C50C04            lds ecx,[esp+eax]
00004C85  0400              add al,0x0
00004C87  001C00            add [eax+eax],bl
00004C8A  0000              add [eax],al
00004C8C  DC06              fadd qword [esi]
00004C8E  0000              add [eax],al
00004C90  22CB              and cl,bl
00004C92  FF                db 0xFF
00004C93  FF33              push dword [ebx]
00004C95  0000              add [eax],al
00004C97  0000              add [eax],al
00004C99  41                inc ecx
00004C9A  0E                push cs
00004C9B  088502420D05      or [ebp+0x50d4202],al
00004CA1  6D                insd
00004CA2  C50C04            lds ecx,[esp+eax]
00004CA5  0400              add al,0x0
00004CA7  001C00            add [eax+eax],bl
00004CAA  0000              add [eax],al
00004CAC  FC                cld
00004CAD  06                push es
00004CAE  0000              add [eax],al
00004CB0  36CB              ss retf
00004CB2  FF                db 0xFF
00004CB3  FF0A              dec dword [edx]
00004CB5  0000              add [eax],al
00004CB7  0000              add [eax],al
00004CB9  41                inc ecx
00004CBA  0E                push cs
00004CBB  088502420D05      or [ebp+0x50d4202],al
00004CC1  46                inc esi
00004CC2  C50C04            lds ecx,[esp+eax]
00004CC5  0400              add al,0x0
00004CC7  001C00            add [eax+eax],bl
00004CCA  0000              add [eax],al
00004CCC  1C07              sbb al,0x7
00004CCE  0000              add [eax],al
00004CD0  20CB              and bl,cl
00004CD2  FF                db 0xFF
00004CD3  FF1A              call far [edx]
00004CD5  0000              add [eax],al
00004CD7  0000              add [eax],al
00004CD9  41                inc ecx
00004CDA  0E                push cs
00004CDB  088502420D05      or [ebp+0x50d4202],al
00004CE1  56                push esi
00004CE2  C50C04            lds ecx,[esp+eax]
00004CE5  0400              add al,0x0
00004CE7  001C00            add [eax+eax],bl
00004CEA  0000              add [eax],al
00004CEC  3C07              cmp al,0x7
00004CEE  0000              add [eax],al
00004CF0  1ACB              sbb cl,bl
00004CF2  FF                db 0xFF
00004CF3  FF21              jmp near [ecx]
00004CF5  0000              add [eax],al
00004CF7  0000              add [eax],al
00004CF9  41                inc ecx
00004CFA  0E                push cs
00004CFB  088502420D05      or [ebp+0x50d4202],al
00004D01  5D                pop ebp
00004D02  C50C04            lds ecx,[esp+eax]
00004D05  0400              add al,0x0
00004D07  002C00            add [eax+eax],ch
00004D0A  0000              add [eax],al
00004D0C  C00600            rol byte [esi],0x0
00004D0F  001CCB            add [ebx+ecx*8],bl
00004D12  FF                db 0xFF
00004D13  FF                db 0xFF
00004D14  BA02000004        mov edx,0x4000002
00004D19  9C                pushf
00004D1A  E504              in eax,0x4
00004D1C  08410E            or [ecx+0xe],al
00004D1F  088502420D05      or [ebp+0x50d4202],al
00004D25  45                inc ebp
00004D26  8603              xchg al,[ebx]
00004D28  830403AF          add dword [ebx+eax],byte -0x51
00004D2C  02C3              add al,bl
00004D2E  41                inc ecx
00004D2F  C641C50C          mov byte [ecx-0x3b],0xc
00004D33  0404              add al,0x4
00004D35  0000              add [eax],al
00004D37  001C00            add [eax+eax],bl
00004D3A  0000              add [eax],al
00004D3C  8C07              mov [edi],es
00004D3E  0000              add [eax],al
00004D40  A6                cmpsb
00004D41  CDFF              int 0xff
00004D43  FF0500000000      inc dword [0x0]
00004D49  41                inc ecx
00004D4A  0E                push cs
00004D4B  088502420D05      or [ebp+0x50d4202],al
00004D51  41                inc ecx
00004D52  C50C04            lds ecx,[esp+eax]
00004D55  0400              add al,0x0
00004D57  001C00            add [eax+eax],bl
00004D5A  0000              add [eax],al
00004D5C  AC                lodsb
00004D5D  07                pop es
00004D5E  0000              add [eax],al
00004D60  8CCD              mov ebp,cs
00004D62  FF                db 0xFF
00004D63  FF0500000000      inc dword [0x0]
00004D69  41                inc ecx
00004D6A  0E                push cs
00004D6B  088502420D05      or [ebp+0x50d4202],al
00004D71  41                inc ecx
00004D72  C50C04            lds ecx,[esp+eax]
00004D75  0400              add al,0x0
00004D77  001C00            add [eax+eax],bl
00004D7A  0000              add [eax],al
00004D7C  CC                int3
00004D7D  07                pop es
00004D7E  0000              add [eax],al
00004D80  72CD              jc 0x4d4f
00004D82  FF                db 0xFF
00004D83  FF13              call near [ebx]
00004D85  0000              add [eax],al
00004D87  0000              add [eax],al
00004D89  41                inc ecx
00004D8A  0E                push cs
00004D8B  088502420D05      or [ebp+0x50d4202],al
00004D91  4F                dec edi
00004D92  C50C04            lds ecx,[esp+eax]
00004D95  0400              add al,0x0
00004D97  002400            add [eax+eax],ah
00004D9A  0000              add [eax],al
00004D9C  50                push eax
00004D9D  07                pop es
00004D9E  0000              add [eax],al
00004DA0  66CDFF            o16 int 0xff
00004DA3  FF4A00            dec dword [edx+0x0]
00004DA6  0000              add [eax],al
00004DA8  04C8              add al,0xc8
00004DAA  E504              in eax,0x4
00004DAC  08410E            or [ecx+0xe],al
00004DAF  088502420D05      or [ebp+0x50d4202],al
00004DB5  44                inc esp
00004DB6  830302            add dword [ebx],byte +0x2
00004DB9  41                inc ecx
00004DBA  C3                ret
00004DBB  41                inc ecx
00004DBC  C50C04            lds ecx,[esp+eax]
00004DBF  0424              add al,0x24
00004DC1  0000              add [eax],al
00004DC3  007807            add [eax+0x7],bh
00004DC6  0000              add [eax],al
00004DC8  88CD              mov ch,cl
00004DCA  FF                db 0xFF
00004DCB  FF5F00            call far [edi+0x0]
00004DCE  0000              add [eax],al
00004DD0  04D4              add al,0xd4
00004DD2  E504              in eax,0x4
00004DD4  08410E            or [ecx+0xe],al
00004DD7  088502420D05      or [ebp+0x50d4202],al
00004DDD  44                inc esp
00004DDE  830302            add dword [ebx],byte +0x2
00004DE1  56                push esi
00004DE2  C3                ret
00004DE3  41                inc ecx
00004DE4  C50C04            lds ecx,[esp+eax]
00004DE7  041C              add al,0x1c
00004DE9  0000              add [eax],al
00004DEB  003C08            add [eax+ecx],bh
00004DEE  0000              add [eax],al
00004DF0  C0CDFF            ror ch,0xff
00004DF3  FF                db 0xFF
00004DF4  3E0000            add [ds:eax],al
00004DF7  0000              add [eax],al
00004DF9  41                inc ecx
00004DFA  0E                push cs
00004DFB  088502420D05      or [ebp+0x50d4202],al
00004E01  7AC5              jpe 0x4dc8
00004E03  0C04              or al,0x4
00004E05  0400              add al,0x0
00004E07  001C00            add [eax+eax],bl
00004E0A  0000              add [eax],al
00004E0C  5C                pop esp
00004E0D  0800              or [eax],al
00004E0F  00DE              add dh,bl
00004E11  CDFF              int 0xff
00004E13  FF08              dec dword [eax]
00004E15  0000              add [eax],al
00004E17  0000              add [eax],al
00004E19  41                inc ecx
00004E1A  0E                push cs
00004E1B  088502420D05      or [ebp+0x50d4202],al
00004E21  44                inc esp
00004E22  C50C04            lds ecx,[esp+eax]
00004E25  0400              add al,0x0
00004E27  001C00            add [eax+eax],bl
00004E2A  0000              add [eax],al
00004E2C  7C08              jl 0x4e36
00004E2E  0000              add [eax],al
00004E30  C6                db 0xC6
00004E31  CDFF              int 0xff
00004E33  FF1A              call far [edx]
00004E35  0000              add [eax],al
00004E37  0000              add [eax],al
00004E39  41                inc ecx
00004E3A  0E                push cs
00004E3B  088502420D05      or [ebp+0x50d4202],al
00004E41  56                push esi
00004E42  C50C04            lds ecx,[esp+eax]
00004E45  0400              add al,0x0
00004E47  001C00            add [eax+eax],bl
00004E4A  0000              add [eax],al
00004E4C  9C                pushf
00004E4D  0800              or [eax],al
00004E4F  00C0              add al,al
00004E51  CDFF              int 0xff
00004E53  FF0500000000      inc dword [0x0]
00004E59  41                inc ecx
00004E5A  0E                push cs
00004E5B  088502420D05      or [ebp+0x50d4202],al
00004E61  41                inc ecx
00004E62  C50C04            lds ecx,[esp+eax]
00004E65  0400              add al,0x0
00004E67  001C00            add [eax+eax],bl
00004E6A  0000              add [eax],al
00004E6C  BC080000A6        mov esp,0xa6000008
00004E71  CDFF              int 0xff
00004E73  FF0500000000      inc dword [0x0]
00004E79  41                inc ecx
00004E7A  0E                push cs
00004E7B  088502420D05      or [ebp+0x50d4202],al
00004E81  41                inc ecx
00004E82  C50C04            lds ecx,[esp+eax]
00004E85  0400              add al,0x0
00004E87  001C00            add [eax+eax],bl
00004E8A  0000              add [eax],al
00004E8C  DC08              fmul qword [eax]
00004E8E  0000              add [eax],al
00004E90  8CCD              mov ebp,cs
00004E92  FF                db 0xFF
00004E93  FF13              call near [ebx]
00004E95  0000              add [eax],al
00004E97  0000              add [eax],al
00004E99  41                inc ecx
00004E9A  0E                push cs
00004E9B  088502420D05      or [ebp+0x50d4202],al
00004EA1  4F                dec edi
00004EA2  C50C04            lds ecx,[esp+eax]
00004EA5  0400              add al,0x0
00004EA7  002400            add [eax+eax],ah
00004EAA  0000              add [eax],al
00004EAC  60                pusha
00004EAD  0800              or [eax],al
00004EAF  0080CDFFFF4A      add [eax+0x4affffcd],al
00004EB5  0000              add [eax],al
00004EB7  0004E0            add [eax],al
00004EBA  E504              in eax,0x4
00004EBC  08410E            or [ecx+0xe],al
00004EBF  088502420D05      or [ebp+0x50d4202],al
00004EC5  44                inc esp
00004EC6  830302            add dword [ebx],byte +0x2
00004EC9  41                inc ecx
00004ECA  C3                ret
00004ECB  41                inc ecx
00004ECC  C50C04            lds ecx,[esp+eax]
00004ECF  0424              add al,0x24
00004ED1  0000              add [eax],al
00004ED3  0088080000A2      add [eax+0xa2000008],cl
00004ED9  CDFF              int 0xff
00004EDB  FF8100000004      inc dword [ecx+0x4000000]
00004EE1  EC                in al,dx
00004EE2  E504              in eax,0x4
00004EE4  08410E            or [ecx+0xe],al
00004EE7  088502420D05      or [ebp+0x50d4202],al
00004EED  44                inc esp
00004EEE  830302            add dword [ebx],byte +0x2
00004EF1  78C3              js 0x4eb6
00004EF3  41                inc ecx
00004EF4  C50C04            lds ecx,[esp+eax]
00004EF7  041C              add al,0x1c
00004EF9  0000              add [eax],al
00004EFB  004C0900          add [ecx+ecx+0x0],cl
00004EFF  00FC              add ah,bh
00004F01  CDFF              int 0xff
00004F03  FF                db 0xFF
00004F04  3E0000            add [ds:eax],al
00004F07  0000              add [eax],al
00004F09  41                inc ecx
00004F0A  0E                push cs
00004F0B  088502420D05      or [ebp+0x50d4202],al
00004F11  7AC5              jpe 0x4ed8
00004F13  0C04              or al,0x4
00004F15  0400              add al,0x0
00004F17  001C00            add [eax+eax],bl
00004F1A  0000              add [eax],al
00004F1C  6C                insb
00004F1D  0900              or [eax],eax
00004F1F  001A              add [edx],bl
00004F21  CE                into
00004F22  FF                db 0xFF
00004F23  FF08              dec dword [eax]
00004F25  0000              add [eax],al
00004F27  0000              add [eax],al
00004F29  41                inc ecx
00004F2A  0E                push cs
00004F2B  088502420D05      or [ebp+0x50d4202],al
00004F31  44                inc esp
00004F32  C50C04            lds ecx,[esp+eax]
00004F35  0400              add al,0x0
00004F37  001C00            add [eax+eax],bl
00004F3A  0000              add [eax],al
00004F3C  8C09              mov [ecx],cs
00004F3E  0000              add [eax],al
00004F40  02CE              add cl,dh
00004F42  FF                db 0xFF
00004F43  FF1A              call far [edx]
00004F45  0000              add [eax],al
00004F47  0000              add [eax],al
00004F49  41                inc ecx
00004F4A  0E                push cs
00004F4B  088502420D05      or [ebp+0x50d4202],al
00004F51  56                push esi
00004F52  C50C04            lds ecx,[esp+eax]
00004F55  0400              add al,0x0
00004F57  001C00            add [eax+eax],bl
00004F5A  0000              add [eax],al
00004F5C  AC                lodsb
00004F5D  0900              or [eax],eax
00004F5F  00FC              add ah,bh
00004F61  CDFF              int 0xff
00004F63  FF0F              dec dword [edi]
00004F65  0000              add [eax],al
00004F67  0000              add [eax],al
00004F69  41                inc ecx
00004F6A  0E                push cs
00004F6B  088502420D05      or [ebp+0x50d4202],al
00004F71  4B                dec ebx
00004F72  C50C04            lds ecx,[esp+eax]
00004F75  0400              add al,0x0
00004F77  0020              add [eax],ah
00004F79  0000              add [eax],al
00004F7B  00CC              add ah,cl
00004F7D  0900              or [eax],eax
00004F7F  00EB              add bl,ch
00004F81  CDFF              int 0xff
00004F83  FF2C00            jmp far [eax+eax]
00004F86  0000              add [eax],al
00004F88  00410E            add [ecx+0xe],al
00004F8B  088502420D05      or [ebp+0x50d4202],al
00004F91  44                inc esp
00004F92  830363            add dword [ebx],byte +0x63
00004F95  C3                ret
00004F96  41                inc ecx
00004F97  C50C04            lds ecx,[esp+eax]
00004F9A  0400              add al,0x0
00004F9C  2000              and [eax],al
00004F9E  0000              add [eax],al
00004FA0  F00900            lock or [eax],eax
00004FA3  00F3              add bl,dh
00004FA5  CDFF              int 0xff
00004FA7  FF30              push dword [eax]
00004FA9  0000              add [eax],al
00004FAB  0000              add [eax],al
00004FAD  41                inc ecx
00004FAE  0E                push cs
00004FAF  088502420D05      or [ebp+0x50d4202],al
00004FB5  44                inc esp
00004FB6  830367            add dword [ebx],byte +0x67
00004FB9  C3                ret
00004FBA  41                inc ecx
00004FBB  C50C04            lds ecx,[esp+eax]
00004FBE  0400              add al,0x0
00004FC0  2000              and [eax],al
00004FC2  0000              add [eax],al
00004FC4  7809              js 0x4fcf
00004FC6  0000              add [eax],al
00004FC8  FFCD              dec ebp
00004FCA  FF                db 0xFF
00004FCB  FF8F00000004      dec dword [edi+0x4000000]
00004FD1  F8                clc
00004FD2  E504              in eax,0x4
00004FD4  08410E            or [ecx+0xe],al
00004FD7  088502420D05      or [ebp+0x50d4202],al
00004FDD  028BC50C0404      add cl,[ebx+0x4040cc5]
00004FE3  002400            add [eax+eax],ah
00004FE6  0000              add [eax],al
00004FE8  9C                pushf
00004FE9  0900              or [eax],eax
00004FEB  006ACE            add [edx-0x32],ch
00004FEE  FF                db 0xFF
00004FEF  FF                db 0xFF
00004FF0  B800000004        mov eax,0x4000000
00004FF5  06                push es
00004FF6  E604              out 0x4,al
00004FF8  08410E            or [ecx+0xe],al
00004FFB  088502420D05      or [ebp+0x50d4202],al
00005001  44                inc esp
00005002  830302            add dword [ebx],byte +0x2
00005005  B0C5              mov al,0xc5
00005007  C3                ret
00005008  0C04              or al,0x4
0000500A  0400              add al,0x0
0000500C  1C00              sbb al,0x0
0000500E  0000              add [eax],al
00005010  60                pusha
00005011  0A00              or al,[eax]
00005013  00FA              add dl,bh
00005015  CE                into
00005016  FF                db 0xFF
00005017  FF30              push dword [eax]
00005019  0000              add [eax],al
0000501B  0000              add [eax],al
0000501D  41                inc ecx
0000501E  0E                push cs
0000501F  088502420D05      or [ebp+0x50d4202],al
00005025  6C                insb
00005026  C50C04            lds ecx,[esp+eax]
00005029  0400              add al,0x0
0000502B  001C00            add [eax+eax],bl
0000502E  0000              add [eax],al
00005030  800A00            or byte [edx],0x0
00005033  000A              add [edx],cl
00005035  CF                iret
00005036  FF                db 0xFF
00005037  FF13              call near [ebx]
00005039  0000              add [eax],al
0000503B  0000              add [eax],al
0000503D  41                inc ecx
0000503E  0E                push cs
0000503F  088502420D05      or [ebp+0x50d4202],al
00005045  4F                dec edi
00005046  C50C04            lds ecx,[esp+eax]
00005049  0400              add al,0x0
0000504B  001C00            add [eax+eax],bl
0000504E  0000              add [eax],al
00005050  A00A0000FE        mov al,[0xfe00000a]
00005055  CE                into
00005056  FF                db 0xFF
00005057  FF27              jmp near [edi]
00005059  0000              add [eax],al
0000505B  0000              add [eax],al
0000505D  41                inc ecx
0000505E  0E                push cs
0000505F  088502420D05      or [ebp+0x50d4202],al
00005065  63C5              arpl bp,ax
00005067  0C04              or al,0x4
00005069  0400              add al,0x0
0000506B  001C00            add [eax+eax],bl
0000506E  0000              add [eax],al
00005070  C00A00            ror byte [edx],0x0
00005073  0005CFFFFF1A      add [0x1affffcf],al
00005079  0000              add [eax],al
0000507B  0000              add [eax],al
0000507D  41                inc ecx
0000507E  0E                push cs
0000507F  088502420D05      or [ebp+0x50d4202],al
00005085  56                push esi
00005086  C50C04            lds ecx,[esp+eax]
00005089  0400              add al,0x0
0000508B  001C00            add [eax+eax],bl
0000508E  0000              add [eax],al
00005090  E00A              loopne 0x509c
00005092  0000              add [eax],al
00005094  00CF              add bh,cl
00005096  FF                db 0xFF
00005097  FF37              push dword [edi]
00005099  0000              add [eax],al
0000509B  0000              add [eax],al
0000509D  41                inc ecx
0000509E  0E                push cs
0000509F  088502420D05      or [ebp+0x50d4202],al
000050A5  73C5              jnc 0x506c
000050A7  0C04              or al,0x4
000050A9  0400              add al,0x0
000050AB  001C00            add [eax+eax],bl
000050AE  0000              add [eax],al
000050B0  000B              add [ebx],cl
000050B2  0000              add [eax],al
000050B4  18CF              sbb bh,cl
000050B6  FF                db 0xFF
000050B7  FF440000          inc dword [eax+eax+0x0]
000050BB  0000              add [eax],al
000050BD  41                inc ecx
000050BE  0E                push cs
000050BF  088502420D05      or [ebp+0x50d4202],al
000050C5  0240C5            add al,[eax-0x3b]
000050C8  0C04              or al,0x4
000050CA  0400              add al,0x0
000050CC  1C00              sbb al,0x0
000050CE  0000              add [eax],al
000050D0  200B              and [ebx],cl
000050D2  0000              add [eax],al
000050D4  3CCF              cmp al,0xcf
000050D6  FF                db 0xFF
000050D7  FF27              jmp near [edi]
000050D9  0000              add [eax],al
000050DB  0000              add [eax],al
000050DD  41                inc ecx
000050DE  0E                push cs
000050DF  088502420D05      or [ebp+0x50d4202],al
000050E5  63C5              arpl bp,ax
000050E7  0C04              or al,0x4
000050E9  0400              add al,0x0
000050EB  001C00            add [eax+eax],bl
000050EE  0000              add [eax],al
000050F0  40                inc eax
000050F1  0B00              or eax,[eax]
000050F3  0043CF            add [ebx-0x31],al
000050F6  FF                db 0xFF
000050F7  FF21              jmp near [ecx]
000050F9  0000              add [eax],al
000050FB  0000              add [eax],al
000050FD  41                inc ecx
000050FE  0E                push cs
000050FF  088502420D05      or [ebp+0x50d4202],al
00005105  5D                pop ebp
00005106  C50C04            lds ecx,[esp+eax]
00005109  0400              add al,0x0
0000510B  001C00            add [eax+eax],bl
0000510E  0000              add [eax],al
00005110  60                pusha
00005111  0B00              or eax,[eax]
00005113  0044CFFF          add [edi+ecx*8-0x1],al
00005117  FF1A              call far [edx]
00005119  0000              add [eax],al
0000511B  0000              add [eax],al
0000511D  41                inc ecx
0000511E  0E                push cs
0000511F  088502420D05      or [ebp+0x50d4202],al
00005125  56                push esi
00005126  C50C04            lds ecx,[esp+eax]
00005129  0400              add al,0x0
0000512B  001C00            add [eax+eax],bl
0000512E  0000              add [eax],al
00005130  800B00            or byte [ebx],0x0
00005133  003E              add [esi],bh
00005135  CF                iret
00005136  FF                db 0xFF
00005137  FF0F              dec dword [edi]
00005139  0000              add [eax],al
0000513B  0000              add [eax],al
0000513D  41                inc ecx
0000513E  0E                push cs
0000513F  088502420D05      or [ebp+0x50d4202],al
00005145  4B                dec ebx
00005146  C50C04            lds ecx,[esp+eax]
00005149  0400              add al,0x0
0000514B  001C00            add [eax+eax],bl
0000514E  0000              add [eax],al
00005150  A00B00002E        mov al,[0x2e00000b]
00005155  CF                iret
00005156  FF                db 0xFF
00005157  FF08              dec dword [eax]
00005159  0000              add [eax],al
0000515B  0000              add [eax],al
0000515D  41                inc ecx
0000515E  0E                push cs
0000515F  088502420D05      or [ebp+0x50d4202],al
00005165  44                inc esp
00005166  C50C04            lds ecx,[esp+eax]
00005169  0400              add al,0x0
0000516B  001C00            add [eax+eax],bl
0000516E  0000              add [eax],al
00005170  C00B00            ror byte [ebx],0x0
00005173  0016              add [esi],dl
00005175  CF                iret
00005176  FF                db 0xFF
00005177  FF0F              dec dword [edi]
00005179  0000              add [eax],al
0000517B  0000              add [eax],al
0000517D  41                inc ecx
0000517E  0E                push cs
0000517F  088502420D05      or [ebp+0x50d4202],al
00005185  4B                dec ebx
00005186  C50C04            lds ecx,[esp+eax]
00005189  0400              add al,0x0
0000518B  001C00            add [eax+eax],bl
0000518E  0000              add [eax],al
00005190  E00B              loopne 0x519d
00005192  0000              add [eax],al
00005194  06                push es
00005195  CF                iret
00005196  FF                db 0xFF
00005197  FF2E              jmp far [esi]
00005199  0000              add [eax],al
0000519B  0000              add [eax],al
0000519D  41                inc ecx
0000519E  0E                push cs
0000519F  088502420D05      or [ebp+0x50d4202],al
000051A5  6AC5              push byte -0x3b
000051A7  0C04              or al,0x4
000051A9  0400              add al,0x0
000051AB  001C00            add [eax+eax],bl
000051AE  0000              add [eax],al
000051B0  000C00            add [eax+eax],cl
000051B3  0014CF            add [edi+ecx*8],dl
000051B6  FF                db 0xFF
000051B7  FF08              dec dword [eax]
000051B9  0000              add [eax],al
000051BB  0000              add [eax],al
000051BD  41                inc ecx
000051BE  0E                push cs
000051BF  088502420D05      or [ebp+0x50d4202],al
000051C5  44                inc esp
000051C6  C50C04            lds ecx,[esp+eax]
000051C9  0400              add al,0x0
000051CB  0020              add [eax],ah
000051CD  0000              add [eax],al
000051CF  0020              add [eax],ah
000051D1  0C00              or al,0x0
000051D3  00FC              add ah,bh
000051D5  CE                into
000051D6  FF                db 0xFF
000051D7  FF                db 0xFF
000051D8  3800              cmp [eax],al
000051DA  0000              add [eax],al
000051DC  00410E            add [ecx+0xe],al
000051DF  088502420D05      or [ebp+0x50d4202],al
000051E5  44                inc esp
000051E6  83036F            add dword [ebx],byte +0x6f
000051E9  C3                ret
000051EA  41                inc ecx
000051EB  C50C04            lds ecx,[esp+eax]
000051EE  0400              add al,0x0
000051F0  2000              and [eax],al
000051F2  0000              add [eax],al
000051F4  44                inc esp
000051F5  0C00              or al,0x0
000051F7  0010              add [eax],dl
000051F9  CF                iret
000051FA  FF                db 0xFF
000051FB  FFA40000000041    jmp near [eax+eax+0x41000000]
00005202  0E                push cs
00005203  088502420D05      or [ebp+0x50d4202],al
00005209  44                inc esp
0000520A  830302            add dword [ebx],byte +0x2
0000520D  9B                wait
0000520E  C3                ret
0000520F  41                inc ecx
00005210  C50C04            lds ecx,[esp+eax]
00005213  041C              add al,0x1c
00005215  0000              add [eax],al
00005217  00680C            add [eax+0xc],ch
0000521A  0000              add [eax],al
0000521C  90                nop
0000521D  CF                iret
0000521E  FF                db 0xFF
0000521F  FF1F              call far [edi]
00005221  0000              add [eax],al
00005223  0000              add [eax],al
00005225  41                inc ecx
00005226  0E                push cs
00005227  088502420D05      or [ebp+0x50d4202],al
0000522D  59                pop ecx
0000522E  C50C04            lds ecx,[esp+eax]
00005231  0400              add al,0x0
00005233  0020              add [eax],ah
00005235  0000              add [eax],al
00005237  00880C00008F      add [eax+0x8f00000c],cl
0000523D  CF                iret
0000523E  FF                db 0xFF
0000523F  FF30              push dword [eax]
00005241  0000              add [eax],al
00005243  0000              add [eax],al
00005245  41                inc ecx
00005246  0E                push cs
00005247  088502420D05      or [ebp+0x50d4202],al
0000524D  44                inc esp
0000524E  830367            add dword [ebx],byte +0x67
00005251  C3                ret
00005252  41                inc ecx
00005253  C50C04            lds ecx,[esp+eax]
00005256  0400              add al,0x0
00005258  1C00              sbb al,0x0
0000525A  0000              add [eax],al
0000525C  AC                lodsb
0000525D  0C00              or al,0x0
0000525F  009CCFFFFF2F00    add [edi+ecx*8+0x2fffff],bl
00005266  0000              add [eax],al
00005268  00410E            add [ecx+0xe],al
0000526B  088502420D05      or [ebp+0x50d4202],al
00005271  6BC50C            imul eax,ebp,byte +0xc
00005274  0404              add al,0x4
00005276  0000              add [eax],al
00005278  1C00              sbb al,0x0
0000527A  0000              add [eax],al
0000527C  CC                int3
0000527D  0C00              or al,0x0
0000527F  00ABCFFFFF28      add [ebx+0x28ffffcf],ch
00005285  0000              add [eax],al
00005287  0000              add [eax],al
00005289  41                inc ecx
0000528A  0E                push cs
0000528B  088502420D05      or [ebp+0x50d4202],al
00005291  64C50C04          lds ecx,[fs:esp+eax]
00005295  0400              add al,0x0
00005297  001C00            add [eax+eax],bl
0000529A  0000              add [eax],al
0000529C  EC                in al,dx
0000529D  0C00              or al,0x0
0000529F  00B3CFFFFF1A      add [ebx+0x1affffcf],dh
000052A5  0000              add [eax],al
000052A7  0000              add [eax],al
000052A9  41                inc ecx
000052AA  0E                push cs
000052AB  088502420D05      or [ebp+0x50d4202],al
000052B1  56                push esi
000052B2  C50C04            lds ecx,[esp+eax]
000052B5  0400              add al,0x0
000052B7  001C00            add [eax+eax],bl
000052BA  0000              add [eax],al
000052BC  0C0D              or al,0xd
000052BE  0000              add [eax],al
000052C0  AE                scasb
000052C1  CF                iret
000052C2  FF                db 0xFF
000052C3  FF37              push dword [edi]
000052C5  0000              add [eax],al
000052C7  0000              add [eax],al
000052C9  41                inc ecx
000052CA  0E                push cs
000052CB  088502420D05      or [ebp+0x50d4202],al
000052D1  73C5              jnc 0x5298
000052D3  0C04              or al,0x4
000052D5  0400              add al,0x0
000052D7  001C00            add [eax+eax],bl
000052DA  0000              add [eax],al
000052DC  2C0D              sub al,0xd
000052DE  0000              add [eax],al
000052E0  C6                db 0xC6
000052E1  CF                iret
000052E2  FF                db 0xFF
000052E3  FF                db 0xFF
000052E4  3D00000000        cmp eax,0x0
000052E9  41                inc ecx
000052EA  0E                push cs
000052EB  088502420D05      or [ebp+0x50d4202],al
000052F1  79C5              jns 0x52b8
000052F3  0C04              or al,0x4
000052F5  0400              add al,0x0
000052F7  001C00            add [eax+eax],bl
000052FA  0000              add [eax],al
000052FC  4C                dec esp
000052FD  0D0000E4CF        or eax,0xcfe40000
00005302  FF                db 0xFF
00005303  FF27              jmp near [edi]
00005305  0000              add [eax],al
00005307  0000              add [eax],al
00005309  41                inc ecx
0000530A  0E                push cs
0000530B  088502420D05      or [ebp+0x50d4202],al
00005311  63C5              arpl bp,ax
00005313  0C04              or al,0x4
00005315  0400              add al,0x0
00005317  001C00            add [eax+eax],bl
0000531A  0000              add [eax],al
0000531C  6C                insb
0000531D  0D0000EBCF        or eax,0xcfeb0000
00005322  FF                db 0xFF
00005323  FF21              jmp near [ecx]
00005325  0000              add [eax],al
00005327  0000              add [eax],al
00005329  41                inc ecx
0000532A  0E                push cs
0000532B  088502420D05      or [ebp+0x50d4202],al
00005331  5D                pop ebp
00005332  C50C04            lds ecx,[esp+eax]
00005335  0400              add al,0x0
00005337  001C00            add [eax+eax],bl
0000533A  0000              add [eax],al
0000533C  8C0D0000ECCF      mov [0xcfec0000],cs
00005342  FF                db 0xFF
00005343  FF1A              call far [edx]
00005345  0000              add [eax],al
00005347  0000              add [eax],al
00005349  41                inc ecx
0000534A  0E                push cs
0000534B  088502420D05      or [ebp+0x50d4202],al
00005351  56                push esi
00005352  C50C04            lds ecx,[esp+eax]
00005355  0400              add al,0x0
00005357  001C00            add [eax+eax],bl
0000535A  0000              add [eax],al
0000535C  AC                lodsb
0000535D  0D0000E6CF        or eax,0xcfe60000
00005362  FF                db 0xFF
00005363  FF37              push dword [edi]
00005365  0000              add [eax],al
00005367  0000              add [eax],al
00005369  41                inc ecx
0000536A  0E                push cs
0000536B  088502420D05      or [ebp+0x50d4202],al
00005371  73C5              jnc 0x5338
00005373  0C04              or al,0x4
00005375  0400              add al,0x0
00005377  001C00            add [eax+eax],bl
0000537A  0000              add [eax],al
0000537C  CC                int3
0000537D  0D0000FECF        or eax,0xcffe0000
00005382  FF                db 0xFF
00005383  FF440000          inc dword [eax+eax+0x0]
00005387  0000              add [eax],al
00005389  41                inc ecx
0000538A  0E                push cs
0000538B  088502420D05      or [ebp+0x50d4202],al
00005391  0240C5            add al,[eax-0x3b]
00005394  0C04              or al,0x4
00005396  0400              add al,0x0
00005398  1C00              sbb al,0x0
0000539A  0000              add [eax],al
0000539C  EC                in al,dx
0000539D  0D000022D0        or eax,0xd0220000
000053A2  FF                db 0xFF
000053A3  FF27              jmp near [edi]
000053A5  0000              add [eax],al
000053A7  0000              add [eax],al
000053A9  41                inc ecx
000053AA  0E                push cs
000053AB  088502420D05      or [ebp+0x50d4202],al
000053B1  63C5              arpl bp,ax
000053B3  0C04              or al,0x4
000053B5  0400              add al,0x0
000053B7  001C00            add [eax+eax],bl
000053BA  0000              add [eax],al
000053BC  0C0E              or al,0xe
000053BE  0000              add [eax],al
000053C0  29D0              sub eax,edx
000053C2  FF                db 0xFF
000053C3  FF21              jmp near [ecx]
000053C5  0000              add [eax],al
000053C7  0000              add [eax],al
000053C9  41                inc ecx
000053CA  0E                push cs
000053CB  088502420D05      or [ebp+0x50d4202],al
000053D1  5D                pop ebp
000053D2  C50C04            lds ecx,[esp+eax]
000053D5  0400              add al,0x0
000053D7  001C00            add [eax+eax],bl
000053DA  0000              add [eax],al
000053DC  2C0E              sub al,0xe
000053DE  0000              add [eax],al
000053E0  2AD0              sub dl,al
000053E2  FF                db 0xFF
000053E3  FF1A              call far [edx]
000053E5  0000              add [eax],al
000053E7  0000              add [eax],al
000053E9  41                inc ecx
000053EA  0E                push cs
000053EB  088502420D05      or [ebp+0x50d4202],al
000053F1  56                push esi
000053F2  C50C04            lds ecx,[esp+eax]
000053F5  0400              add al,0x0
000053F7  001C00            add [eax+eax],bl
000053FA  0000              add [eax],al
000053FC  4C                dec esp
000053FD  0E                push cs
000053FE  0000              add [eax],al
00005400  24D0              and al,0xd0
00005402  FF                db 0xFF
00005403  FF08              dec dword [eax]
00005405  0000              add [eax],al
00005407  0000              add [eax],al
00005409  41                inc ecx
0000540A  0E                push cs
0000540B  088502420D05      or [ebp+0x50d4202],al
00005411  44                inc esp
00005412  C50C04            lds ecx,[esp+eax]
00005415  0400              add al,0x0
00005417  001C00            add [eax+eax],bl
0000541A  0000              add [eax],al
0000541C  6C                insb
0000541D  0E                push cs
0000541E  0000              add [eax],al
00005420  0CD0              or al,0xd0
00005422  FF                db 0xFF
00005423  FF33              push dword [ebx]
00005425  0000              add [eax],al
00005427  0000              add [eax],al
00005429  41                inc ecx
0000542A  0E                push cs
0000542B  088502420D05      or [ebp+0x50d4202],al
00005431  6F                outsd
00005432  C50C04            lds ecx,[esp+eax]
00005435  0400              add al,0x0
00005437  002400            add [eax+eax],ah
0000543A  0000              add [eax],al
0000543C  F00D00001FD0      lock or eax,0xd01f0000
00005442  FF                db 0xFF
00005443  FFE3              jmp ebx
00005445  0000              add [eax],al
00005447  00041A            add [edx+ebx],al
0000544A  E604              out 0x4,al
0000544C  08410E            or [ecx+0xe],al
0000544F  088502420D05      or [ebp+0x50d4202],al
00005455  44                inc esp
00005456  830302            add dword [ebx],byte +0x2
00005459  D9C5              fld st5
0000545B  C3                ret
0000545C  0C04              or al,0x4
0000545E  0400              add al,0x0
00005460  1C00              sbb al,0x0
00005462  0000              add [eax],al
00005464  B40E              mov ah,0xe
00005466  0000              add [eax],al
00005468  DAD0              fcmovbe st0
0000546A  FF                db 0xFF
0000546B  FF31              push dword [ecx]
0000546D  0000              add [eax],al
0000546F  0000              add [eax],al
00005471  41                inc ecx
00005472  0E                push cs
00005473  088502420D05      or [ebp+0x50d4202],al
00005479  6BC50C            imul eax,ebp,byte +0xc
0000547C  0404              add al,0x4
0000547E  0000              add [eax],al
00005480  2400              and al,0x0
00005482  0000              add [eax],al
00005484  380E              cmp [esi],cl
00005486  0000              add [eax],al
00005488  EBD0              jmp short 0x545a
0000548A  FF                db 0xFF
0000548B  FF16              call near [esi]
0000548D  0100              add [eax],eax
0000548F  00042E            add [esi+ebp],al
00005492  E604              out 0x4,al
00005494  08410E            or [ecx+0xe],al
00005497  088502420D05      or [ebp+0x50d4202],al
0000549D  44                inc esp
0000549E  830303            add dword [ebx],byte +0x3
000054A1  0E                push cs
000054A2  01C5              add ebp,eax
000054A4  C3                ret
000054A5  0C04              or al,0x4
000054A7  0420              add al,0x20
000054A9  0000              add [eax],al
000054AB  00600E            add [eax+0xe],ah
000054AE  0000              add [eax],al
000054B0  D9                db 0xD9
000054B1  D1FF              sar edi,1
000054B3  FF4600            inc dword [esi+0x0]
000054B6  0000              add [eax],al
000054B8  0443              add al,0x43
000054BA  E604              out 0x4,al
000054BC  08410E            or [ecx+0xe],al
000054BF  088502420D05      or [ebp+0x50d4202],al
000054C5  0242C5            add al,[edx-0x3b]
000054C8  0C04              or al,0x4
000054CA  0400              add al,0x0
000054CC  1C00              sbb al,0x0
000054CE  0000              add [eax],al
000054D0  200F              and [edi],cl
000054D2  0000              add [eax],al
000054D4  FC                cld
000054D5  D1FF              sar edi,1
000054D7  FF13              call near [ebx]
000054D9  0000              add [eax],al
000054DB  0000              add [eax],al
000054DD  41                inc ecx
000054DE  0E                push cs
000054DF  088502420D05      or [ebp+0x50d4202],al
000054E5  4F                dec edi
000054E6  C50C04            lds ecx,[esp+eax]
000054E9  0400              add al,0x0
000054EB  001C00            add [eax+eax],bl
000054EE  0000              add [eax],al
000054F0  40                inc eax
000054F1  0F0000            sldt [eax]
000054F4  F0D1FF            lock sar edi,1
000054F7  FF0500000000      inc dword [0x0]
000054FD  41                inc ecx
000054FE  0E                push cs
000054FF  088502420D05      or [ebp+0x50d4202],al
00005505  41                inc ecx
00005506  C50C04            lds ecx,[esp+eax]
00005509  0400              add al,0x0
0000550B  001C00            add [eax+eax],bl
0000550E  0000              add [eax],al
00005510  60                pusha
00005511  0F0000            sldt [eax]
00005514  D6                salc
00005515  D1FF              sar edi,1
00005517  FF13              call near [ebx]
00005519  0000              add [eax],al
0000551B  0000              add [eax],al
0000551D  41                inc ecx
0000551E  0E                push cs
0000551F  088502420D05      or [ebp+0x50d4202],al
00005525  4F                dec edi
00005526  C50C04            lds ecx,[esp+eax]
00005529  0400              add al,0x0
0000552B  001C00            add [eax+eax],bl
0000552E  0000              add [eax],al
00005530  800F00            or byte [edi],0x0
00005533  00C9              add cl,cl
00005535  D1FF              sar edi,1
00005537  FF0500000000      inc dword [0x0]
0000553D  41                inc ecx
0000553E  0E                push cs
0000553F  088502420D05      or [ebp+0x50d4202],al
00005545  41                inc ecx
00005546  C50C04            lds ecx,[esp+eax]
00005549  0400              add al,0x0
0000554B  001C00            add [eax+eax],bl
0000554E  0000              add [eax],al
00005550  A00F0000AE        mov al,[0xae00000f]
00005555  D1FF              sar edi,1
00005557  FF1A              call far [edx]
00005559  0000              add [eax],al
0000555B  0000              add [eax],al
0000555D  41                inc ecx
0000555E  0E                push cs
0000555F  088502420D05      or [ebp+0x50d4202],al
00005565  56                push esi
00005566  C50C04            lds ecx,[esp+eax]
00005569  0400              add al,0x0
0000556B  001C00            add [eax+eax],bl
0000556E  0000              add [eax],al
00005570  C00F00            ror byte [edi],0x0
00005573  00A8D1FFFF2F      add [eax+0x2fffffd1],ch
00005579  0000              add [eax],al
0000557B  0000              add [eax],al
0000557D  41                inc ecx
0000557E  0E                push cs
0000557F  088502420D05      or [ebp+0x50d4202],al
00005585  6BC50C            imul eax,ebp,byte +0xc
00005588  0404              add al,0x4
0000558A  0000              add [eax],al
0000558C  1C00              sbb al,0x0
0000558E  0000              add [eax],al
00005590  E00F              loopne 0x55a1
00005592  0000              add [eax],al
00005594  B8D1FFFF13        mov eax,0x13ffffd1
00005599  0000              add [eax],al
0000559B  0000              add [eax],al
0000559D  41                inc ecx
0000559E  0E                push cs
0000559F  088502420D05      or [ebp+0x50d4202],al
000055A5  4F                dec edi
000055A6  C50C04            lds ecx,[esp+eax]
000055A9  0400              add al,0x0
000055AB  001C00            add [eax+eax],bl
000055AE  0000              add [eax],al
000055B0  0010              add [eax],dl
000055B2  0000              add [eax],al
000055B4  AB                stosd
000055B5  D1FF              sar edi,1
000055B7  FF21              jmp near [ecx]
000055B9  0000              add [eax],al
000055BB  0000              add [eax],al
000055BD  41                inc ecx
000055BE  0E                push cs
000055BF  088502420D05      or [ebp+0x50d4202],al
000055C5  5D                pop ebp
000055C6  C50C04            lds ecx,[esp+eax]
000055C9  0400              add al,0x0
000055CB  001C00            add [eax+eax],bl
000055CE  0000              add [eax],al
000055D0  2010              and [eax],dl
000055D2  0000              add [eax],al
000055D4  AC                lodsb
000055D5  D1FF              sar edi,1
000055D7  FF29              jmp far [ecx]
000055D9  0000              add [eax],al
000055DB  0000              add [eax],al
000055DD  41                inc ecx
000055DE  0E                push cs
000055DF  088502420D05      or [ebp+0x50d4202],al
000055E5  65C50C04          lds ecx,[gs:esp+eax]
000055E9  0400              add al,0x0
000055EB  001C00            add [eax+eax],bl
000055EE  0000              add [eax],al
000055F0  40                inc eax
000055F1  1000              adc [eax],al
000055F3  00B5D1FFFF13      add [ebp+0x13ffffd1],dh
000055F9  0000              add [eax],al
000055FB  0000              add [eax],al
000055FD  41                inc ecx
000055FE  0E                push cs
000055FF  088502420D05      or [ebp+0x50d4202],al
00005605  4F                dec edi
00005606  C50C04            lds ecx,[esp+eax]
00005609  0400              add al,0x0
0000560B  002400            add [eax+eax],ah
0000560E  0000              add [eax],al
00005610  60                pusha
00005611  1000              adc [eax],al
00005613  00A8D1FFFF44      add [eax+0x44ffffd1],ch
00005619  0000              add [eax],al
0000561B  0000              add [eax],al
0000561D  41                inc ecx
0000561E  0E                push cs
0000561F  088502420D05      or [ebp+0x50d4202],al
00005625  45                inc ebp
00005626  8603              xchg al,[ebx]
00005628  830479C3          add dword [ecx+edi*2],byte -0x3d
0000562C  41                inc ecx
0000562D  C641C50C          mov byte [ecx-0x3b],0xc
00005631  0404              add al,0x4
00005633  001C00            add [eax+eax],bl
00005636  0000              add [eax],al
00005638  8810              mov [eax],dl
0000563A  0000              add [eax],al
0000563C  C4                db 0xC4
0000563D  D1FF              sar edi,1
0000563F  FF1B              call far [ebx]
00005641  0000              add [eax],al
00005643  0000              add [eax],al
00005645  41                inc ecx
00005646  0E                push cs
00005647  088502420D05      or [ebp+0x50d4202],al
0000564D  57                push edi
0000564E  C50C04            lds ecx,[esp+eax]
00005651  0400              add al,0x0
00005653  001C00            add [eax+eax],bl
00005656  0000              add [eax],al
00005658  A810              test al,0x10
0000565A  0000              add [eax],al
0000565C  BFD1FFFF1B        mov edi,0x1bffffd1
00005661  0000              add [eax],al
00005663  0000              add [eax],al
00005665  41                inc ecx
00005666  0E                push cs
00005667  088502420D05      or [ebp+0x50d4202],al
0000566D  57                push edi
0000566E  C50C04            lds ecx,[esp+eax]
00005671  0400              add al,0x0
00005673  001C00            add [eax+eax],bl
00005676  0000              add [eax],al
00005678  C8100000          enter 0x10,0x0
0000567C  BAD1FFFF30        mov edx,0x30ffffd1
00005681  0000              add [eax],al
00005683  0000              add [eax],al
00005685  41                inc ecx
00005686  0E                push cs
00005687  088502420D05      or [ebp+0x50d4202],al
0000568D  6C                insb
0000568E  C50C04            lds ecx,[esp+eax]
00005691  0400              add al,0x0
00005693  001C00            add [eax+eax],bl
00005696  0000              add [eax],al
00005698  E8100000CA        call 0xca0056ad
0000569D  D1FF              sar edi,1
0000569F  FF21              jmp near [ecx]
000056A1  0000              add [eax],al
000056A3  0000              add [eax],al
000056A5  41                inc ecx
000056A6  0E                push cs
000056A7  088502420D05      or [ebp+0x50d4202],al
000056AD  5D                pop ebp
000056AE  C50C04            lds ecx,[esp+eax]
000056B1  0400              add al,0x0
000056B3  001C00            add [eax+eax],bl
000056B6  0000              add [eax],al
000056B8  0811              or [ecx],dl
000056BA  0000              add [eax],al
000056BC  CC                int3
000056BD  D1FF              sar edi,1
000056BF  FF0500000000      inc dword [0x0]
000056C5  41                inc ecx
000056C6  0E                push cs
000056C7  088502420D05      or [ebp+0x50d4202],al
000056CD  41                inc ecx
000056CE  C50C04            lds ecx,[esp+eax]
000056D1  0400              add al,0x0
000056D3  001C00            add [eax+eax],bl
000056D6  0000              add [eax],al
000056D8  2811              sub [ecx],dl
000056DA  0000              add [eax],al
000056DC  B2D1              mov dl,0xd1
000056DE  FF                db 0xFF
000056DF  FF1A              call far [edx]
000056E1  0000              add [eax],al
000056E3  0000              add [eax],al
000056E5  41                inc ecx
000056E6  0E                push cs
000056E7  088502420D05      or [ebp+0x50d4202],al
000056ED  56                push esi
000056EE  C50C04            lds ecx,[esp+eax]
000056F1  0400              add al,0x0
000056F3  001C00            add [eax+eax],bl
000056F6  0000              add [eax],al
000056F8  48                dec eax
000056F9  1100              adc [eax],eax
000056FB  00ACD1FFFF2F00    add [ecx+edx*8+0x2fffff],ch
00005702  0000              add [eax],al
00005704  00410E            add [ecx+0xe],al
00005707  088502420D05      or [ebp+0x50d4202],al
0000570D  6BC50C            imul eax,ebp,byte +0xc
00005710  0404              add al,0x4
00005712  0000              add [eax],al
00005714  1C00              sbb al,0x0
00005716  0000              add [eax],al
00005718  68110000BC        push dword 0xbc000011
0000571D  D1FF              sar edi,1
0000571F  FF13              call near [ebx]
00005721  0000              add [eax],al
00005723  0000              add [eax],al
00005725  41                inc ecx
00005726  0E                push cs
00005727  088502420D05      or [ebp+0x50d4202],al
0000572D  4F                dec edi
0000572E  C50C04            lds ecx,[esp+eax]
00005731  0400              add al,0x0
00005733  001C00            add [eax+eax],bl
00005736  0000              add [eax],al
00005738  8811              mov [ecx],dl
0000573A  0000              add [eax],al
0000573C  AF                scasd
0000573D  D1FF              sar edi,1
0000573F  FF21              jmp near [ecx]
00005741  0000              add [eax],al
00005743  0000              add [eax],al
00005745  41                inc ecx
00005746  0E                push cs
00005747  088502420D05      or [ebp+0x50d4202],al
0000574D  5D                pop ebp
0000574E  C50C04            lds ecx,[esp+eax]
00005751  0400              add al,0x0
00005753  001C00            add [eax+eax],bl
00005756  0000              add [eax],al
00005758  A811              test al,0x11
0000575A  0000              add [eax],al
0000575C  B0D1              mov al,0xd1
0000575E  FF                db 0xFF
0000575F  FF0500000000      inc dword [0x0]
00005765  41                inc ecx
00005766  0E                push cs
00005767  088502420D05      or [ebp+0x50d4202],al
0000576D  41                inc ecx
0000576E  C50C04            lds ecx,[esp+eax]
00005771  0400              add al,0x0
00005773  001C00            add [eax+eax],bl
00005776  0000              add [eax],al
00005778  C8110000          enter 0x11,0x0
0000577C  96                xchg eax,esi
0000577D  D1FF              sar edi,1
0000577F  FF1A              call far [edx]
00005781  0000              add [eax],al
00005783  0000              add [eax],al
00005785  41                inc ecx
00005786  0E                push cs
00005787  088502420D05      or [ebp+0x50d4202],al
0000578D  56                push esi
0000578E  C50C04            lds ecx,[esp+eax]
00005791  0400              add al,0x0
00005793  001C00            add [eax+eax],bl
00005796  0000              add [eax],al
00005798  E811000090        call 0x900057ae
0000579D  D1FF              sar edi,1
0000579F  FF2F              jmp far [edi]
000057A1  0000              add [eax],al
000057A3  0000              add [eax],al
000057A5  41                inc ecx
000057A6  0E                push cs
000057A7  088502420D05      or [ebp+0x50d4202],al
000057AD  6BC50C            imul eax,ebp,byte +0xc
000057B0  0404              add al,0x4
000057B2  0000              add [eax],al
000057B4  1C00              sbb al,0x0
000057B6  0000              add [eax],al
000057B8  0812              or [edx],dl
000057BA  0000              add [eax],al
000057BC  A0D1FFFF13        mov al,[0x13ffffd1]
000057C1  0000              add [eax],al
000057C3  0000              add [eax],al
000057C5  41                inc ecx
000057C6  0E                push cs
000057C7  088502420D05      or [ebp+0x50d4202],al
000057CD  4F                dec edi
000057CE  C50C04            lds ecx,[esp+eax]
000057D1  0400              add al,0x0
000057D3  001C00            add [eax+eax],bl
000057D6  0000              add [eax],al
000057D8  2812              sub [edx],dl
000057DA  0000              add [eax],al
000057DC  93                xchg eax,ebx
000057DD  D1FF              sar edi,1
000057DF  FF21              jmp near [ecx]
000057E1  0000              add [eax],al
000057E3  0000              add [eax],al
000057E5  41                inc ecx
000057E6  0E                push cs
000057E7  088502420D05      or [ebp+0x50d4202],al
000057ED  5D                pop ebp
000057EE  C50C04            lds ecx,[esp+eax]
000057F1  0400              add al,0x0
000057F3  001C00            add [eax+eax],bl
000057F6  0000              add [eax],al
000057F8  48                dec eax
000057F9  1200              adc al,[eax]
000057FB  0094D1FFFF2900    add [ecx+edx*8+0x29ffff],dl
00005802  0000              add [eax],al
00005804  00410E            add [ecx+0xe],al
00005807  088502420D05      or [ebp+0x50d4202],al
0000580D  65C50C04          lds ecx,[gs:esp+eax]
00005811  0400              add al,0x0
00005813  002400            add [eax+eax],ah
00005816  0000              add [eax],al
00005818  CC                int3
00005819  1100              adc [eax],eax
0000581B  009DD1FFFF8E      add [ebp+0x8effffd1],bl
00005821  0000              add [eax],al
00005823  00044F            add [edi+ecx*2],al
00005826  E604              out 0x4,al
00005828  08410E            or [ecx+0xe],al
0000582B  088502420D05      or [ebp+0x50d4202],al
00005831  44                inc esp
00005832  830302            add dword [ebx],byte +0x2
00005835  85C3              test ebx,eax
00005837  41                inc ecx
00005838  C50C04            lds ecx,[esp+eax]
0000583B  041C              add al,0x1c
0000583D  0000              add [eax],al
0000583F  009012000003      add [eax+0x3000012],dl
00005845  D2FF              sar bh,cl
00005847  FF4A00            dec dword [edx+0x0]
0000584A  0000              add [eax],al
0000584C  00410E            add [ecx+0xe],al
0000584F  088502420D05      or [ebp+0x50d4202],al
00005855  0246C5            add al,[esi-0x3b]
00005858  0C04              or al,0x4
0000585A  0400              add al,0x0
0000585C  1C00              sbb al,0x0
0000585E  0000              add [eax],al
00005860  B012              mov al,0x12
00005862  0000              add [eax],al
00005864  2ED2FF            cs sar bh,cl
00005867  FF33              push dword [ebx]
00005869  0000              add [eax],al
0000586B  0000              add [eax],al
0000586D  41                inc ecx
0000586E  0E                push cs
0000586F  088502420D05      or [ebp+0x50d4202],al
00005875  6D                insd
00005876  C50C04            lds ecx,[esp+eax]
00005879  0400              add al,0x0
0000587B  002400            add [eax+eax],ah
0000587E  0000              add [eax],al
00005880  D012              rcl byte [edx],1
00005882  0000              add [eax],al
00005884  41                inc ecx
00005885  D2FF              sar bh,cl
00005887  FF13              call near [ebx]
00005889  0100              add [eax],eax
0000588B  0000              add [eax],al
0000588D  41                inc ecx
0000588E  0E                push cs
0000588F  088502420D05      or [ebp+0x50d4202],al
00005895  44                inc esp
00005896  830303            add dword [ebx],byte +0x3
00005899  0A01              or al,[ecx]
0000589B  C3                ret
0000589C  41                inc ecx
0000589D  C50C04            lds ecx,[esp+eax]
000058A0  0400              add al,0x0
000058A2  0000              add [eax],al
000058A4  1C00              sbb al,0x0
000058A6  0000              add [eax],al
000058A8  F8                clc
000058A9  1200              adc al,[eax]
000058AB  002CD3            add [ebx+edx*8],ch
000058AE  FF                db 0xFF
000058AF  FF0A              dec dword [edx]
000058B1  0000              add [eax],al
000058B3  0000              add [eax],al
000058B5  41                inc ecx
000058B6  0E                push cs
000058B7  088502420D05      or [ebp+0x50d4202],al
000058BD  46                inc esi
000058BE  C50C04            lds ecx,[esp+eax]
000058C1  0400              add al,0x0
000058C3  0020              add [eax],ah
000058C5  0000              add [eax],al
000058C7  0018              add [eax],bl
000058C9  1300              adc eax,[eax]
000058CB  0016              add [esi],dl
000058CD  D3FF              sar edi,cl
000058CF  FFB300000000      push dword [ebx+0x0]
000058D5  41                inc ecx
000058D6  0E                push cs
000058D7  088502420D05      or [ebp+0x50d4202],al
000058DD  44                inc esp
000058DE  830302            add dword [ebx],byte +0x2
000058E1  A8C3              test al,0xc3
000058E3  41                inc ecx
000058E4  C50C04            lds ecx,[esp+eax]
000058E7  0420              add al,0x20
000058E9  0000              add [eax],al
000058EB  003C13            add [ebx+edx],bh
000058EE  0000              add [eax],al
000058F0  A5                movsd
000058F1  D3FF              sar edi,cl
000058F3  FF2C00            jmp far [eax+eax]
000058F6  0000              add [eax],al
000058F8  00410E            add [ecx+0xe],al
000058FB  088502420D05      or [ebp+0x50d4202],al
00005901  44                inc esp
00005902  830363            add dword [ebx],byte +0x63
00005905  C3                ret
00005906  41                inc ecx
00005907  C50C04            lds ecx,[esp+eax]
0000590A  0400              add al,0x0
0000590C  1C00              sbb al,0x0
0000590E  0000              add [eax],al
00005910  60                pusha
00005911  1300              adc eax,[eax]
00005913  00AED3FFFF15      add [esi+0x15ffffd3],ch
00005919  0000              add [eax],al
0000591B  0000              add [eax],al
0000591D  41                inc ecx
0000591E  0E                push cs
0000591F  088502420D05      or [ebp+0x50d4202],al
00005925  51                push ecx
00005926  C50C04            lds ecx,[esp+eax]
00005929  0400              add al,0x0
0000592B  001C00            add [eax+eax],bl
0000592E  0000              add [eax],al
00005930  801300            adc byte [ebx],0x0
00005933  00A3D3FFFF5A      add [ebx+0x5affffd3],ah
00005939  0000              add [eax],al
0000593B  0000              add [eax],al
0000593D  41                inc ecx
0000593E  0E                push cs
0000593F  088502420D05      or [ebp+0x50d4202],al
00005945  0254C50C          add dl,[ebp+eax*8+0xc]
00005949  0404              add al,0x4
0000594B  0020              add [eax],ah
0000594D  0000              add [eax],al
0000594F  00A0130000DD      add [eax+0xdd000013],ah
00005955  D3FF              sar edi,cl
00005957  FF840000000041    inc dword [eax+eax+0x41000000]
0000595E  0E                push cs
0000595F  088502420D05      or [ebp+0x50d4202],al
00005965  44                inc esp
00005966  830302            add dword [ebx],byte +0x2
00005969  7BC3              jpo 0x592e
0000596B  41                inc ecx
0000596C  C50C04            lds ecx,[esp+eax]
0000596F  041C              add al,0x1c
00005971  0000              add [eax],al
00005973  00C4              add ah,al
00005975  1300              adc eax,[eax]
00005977  003E              add [esi],bh
00005979  D4FF              aam 0xff
0000597B  FF0500000000      inc dword [0x0]
00005981  41                inc ecx
00005982  0E                push cs
00005983  088502420D05      or [ebp+0x50d4202],al
00005989  41                inc ecx
0000598A  C50C04            lds ecx,[esp+eax]
0000598D  0400              add al,0x0
0000598F  001C00            add [eax+eax],bl
00005992  0000              add [eax],al
00005994  E413              in al,0x13
00005996  0000              add [eax],al
00005998  24D4              and al,0xd4
0000599A  FF                db 0xFF
0000599B  FF0500000000      inc dword [0x0]
000059A1  41                inc ecx
000059A2  0E                push cs
000059A3  088502420D05      or [ebp+0x50d4202],al
000059A9  41                inc ecx
000059AA  C50C04            lds ecx,[esp+eax]
000059AD  0400              add al,0x0
000059AF  001C00            add [eax+eax],bl
000059B2  0000              add [eax],al
000059B4  0414              add al,0x14
000059B6  0000              add [eax],al
000059B8  0AD4              or dl,ah
000059BA  FF                db 0xFF
000059BB  FF36              push dword [esi]
000059BD  0000              add [eax],al
000059BF  0000              add [eax],al
000059C1  41                inc ecx
000059C2  0E                push cs
000059C3  088502420D05      or [ebp+0x50d4202],al
000059C9  72C5              jc 0x5990
000059CB  0C04              or al,0x4
000059CD  0400              add al,0x0
000059CF  002400            add [eax+eax],ah
000059D2  0000              add [eax],al
000059D4  8813              mov [ebx],dl
000059D6  0000              add [eax],al
000059D8  20D4              and ah,dl
000059DA  FF                db 0xFF
000059DB  FF6E00            jmp far [esi+0x0]
000059DE  0000              add [eax],al
000059E0  0464              add al,0x64
000059E2  E604              out 0x4,al
000059E4  08410E            or [ecx+0xe],al
000059E7  088502420D05      or [ebp+0x50d4202],al
000059ED  44                inc esp
000059EE  830302            add dword [ebx],byte +0x2
000059F1  65C3              gs ret
000059F3  41                inc ecx
000059F4  C50C04            lds ecx,[esp+eax]
000059F7  041C              add al,0x1c
000059F9  0000              add [eax],al
000059FB  004C1400          add [esp+edx+0x0],cl
000059FF  0066D4            add [esi-0x2c],ah
00005A02  FF                db 0xFF
00005A03  FF08              dec dword [eax]
00005A05  0000              add [eax],al
00005A07  0000              add [eax],al
00005A09  41                inc ecx
00005A0A  0E                push cs
00005A0B  088502420D05      or [ebp+0x50d4202],al
00005A11  44                inc esp
00005A12  C50C04            lds ecx,[esp+eax]
00005A15  0400              add al,0x0
00005A17  001C00            add [eax+eax],bl
00005A1A  0000              add [eax],al
00005A1C  6C                insb
00005A1D  1400              adc al,0x0
00005A1F  004ED4            add [esi-0x2c],cl
00005A22  FF                db 0xFF
00005A23  FF13              call near [ebx]
00005A25  0000              add [eax],al
00005A27  0000              add [eax],al
00005A29  41                inc ecx
00005A2A  0E                push cs
00005A2B  088502420D05      or [ebp+0x50d4202],al
00005A31  4F                dec edi
00005A32  C50C04            lds ecx,[esp+eax]
00005A35  0400              add al,0x0
00005A37  001C00            add [eax+eax],bl
00005A3A  0000              add [eax],al
00005A3C  8C1400            mov [eax+eax],ss
00005A3F  0041D4            add [ecx-0x2c],al
00005A42  FF                db 0xFF
00005A43  FF08              dec dword [eax]
00005A45  0000              add [eax],al
00005A47  0000              add [eax],al
00005A49  41                inc ecx
00005A4A  0E                push cs
00005A4B  088502420D05      or [ebp+0x50d4202],al
00005A51  44                inc esp
00005A52  C50C04            lds ecx,[esp+eax]
00005A55  0400              add al,0x0
00005A57  001C00            add [eax+eax],bl
00005A5A  0000              add [eax],al
00005A5C  AC                lodsb
00005A5D  1400              adc al,0x0
00005A5F  0029              add [ecx],ch
00005A61  D4FF              aam 0xff
00005A63  FF13              call near [ebx]
00005A65  0000              add [eax],al
00005A67  0000              add [eax],al
00005A69  41                inc ecx
00005A6A  0E                push cs
00005A6B  088502420D05      or [ebp+0x50d4202],al
00005A71  4F                dec edi
00005A72  C50C04            lds ecx,[esp+eax]
00005A75  0400              add al,0x0
00005A77  001C00            add [eax+eax],bl
00005A7A  0000              add [eax],al
00005A7C  CC                int3
00005A7D  1400              adc al,0x0
00005A7F  001CD4            add [esp+edx*8],bl
00005A82  FF                db 0xFF
00005A83  FF2500000000      jmp near [0x0]
00005A89  41                inc ecx
00005A8A  0E                push cs
00005A8B  088502420D05      or [ebp+0x50d4202],al
00005A91  61                popa
00005A92  C50C04            lds ecx,[esp+eax]
00005A95  0400              add al,0x0
00005A97  001C00            add [eax+eax],bl
00005A9A  0000              add [eax],al
00005A9C  EC                in al,dx
00005A9D  1400              adc al,0x0
00005A9F  0021              add [ecx],ah
00005AA1  D4FF              aam 0xff
00005AA3  FF13              call near [ebx]
00005AA5  0000              add [eax],al
00005AA7  0000              add [eax],al
00005AA9  41                inc ecx
00005AAA  0E                push cs
00005AAB  088502420D05      or [ebp+0x50d4202],al
00005AB1  4F                dec edi
00005AB2  C50C04            lds ecx,[esp+eax]
00005AB5  0400              add al,0x0
00005AB7  001C00            add [eax+eax],bl
00005ABA  0000              add [eax],al
00005ABC  0C15              or al,0x15
00005ABE  0000              add [eax],al
00005AC0  14D4              adc al,0xd4
00005AC2  FF                db 0xFF
00005AC3  FF08              dec dword [eax]
00005AC5  0000              add [eax],al
00005AC7  0000              add [eax],al
00005AC9  41                inc ecx
00005ACA  0E                push cs
00005ACB  088502420D05      or [ebp+0x50d4202],al
00005AD1  44                inc esp
00005AD2  C50C04            lds ecx,[esp+eax]
00005AD5  0400              add al,0x0
00005AD7  001C00            add [eax+eax],bl
00005ADA  0000              add [eax],al
00005ADC  2C15              sub al,0x15
00005ADE  0000              add [eax],al
00005AE0  FC                cld
00005AE1  D3FF              sar edi,cl
00005AE3  FF0A              dec dword [edx]
00005AE5  0000              add [eax],al
00005AE7  0000              add [eax],al
00005AE9  41                inc ecx
00005AEA  0E                push cs
00005AEB  088502420D05      or [ebp+0x50d4202],al
00005AF1  46                inc esi
00005AF2  C50C04            lds ecx,[esp+eax]
00005AF5  0400              add al,0x0
00005AF7  001C00            add [eax+eax],bl
00005AFA  0000              add [eax],al
00005AFC  4C                dec esp
00005AFD  150000E6D3        adc eax,0xd3e60000
00005B02  FF                db 0xFF
00005B03  FF21              jmp near [ecx]
00005B05  0000              add [eax],al
00005B07  0000              add [eax],al
00005B09  41                inc ecx
00005B0A  0E                push cs
00005B0B  088502420D05      or [ebp+0x50d4202],al
00005B11  5D                pop ebp
00005B12  C50C04            lds ecx,[esp+eax]
00005B15  0400              add al,0x0
00005B17  001C00            add [eax+eax],bl
00005B1A  0000              add [eax],al
00005B1C  6C                insb
00005B1D  150000E8D3        adc eax,0xd3e80000
00005B22  FF                db 0xFF
00005B23  FF0500000000      inc dword [0x0]
00005B29  41                inc ecx
00005B2A  0E                push cs
00005B2B  088502420D05      or [ebp+0x50d4202],al
00005B31  41                inc ecx
00005B32  C50C04            lds ecx,[esp+eax]
00005B35  0400              add al,0x0
00005B37  001C00            add [eax+eax],bl
00005B3A  0000              add [eax],al
00005B3C  8C150000CED3      mov [0xd3ce0000],ss
00005B42  FF                db 0xFF
00005B43  FF30              push dword [eax]
00005B45  0000              add [eax],al
00005B47  0000              add [eax],al
00005B49  41                inc ecx
00005B4A  0E                push cs
00005B4B  088502420D05      or [ebp+0x50d4202],al
00005B51  6C                insb
00005B52  C50C04            lds ecx,[esp+eax]
00005B55  0400              add al,0x0
00005B57  001C00            add [eax+eax],bl
00005B5A  0000              add [eax],al
00005B5C  AC                lodsb
00005B5D  150000DED3        adc eax,0xd3de0000
00005B62  FF                db 0xFF
00005B63  FF21              jmp near [ecx]
00005B65  0000              add [eax],al
00005B67  0000              add [eax],al
00005B69  41                inc ecx
00005B6A  0E                push cs
00005B6B  088502420D05      or [ebp+0x50d4202],al
00005B71  5D                pop ebp
00005B72  C50C04            lds ecx,[esp+eax]
00005B75  0400              add al,0x0
00005B77  001C00            add [eax+eax],bl
00005B7A  0000              add [eax],al
00005B7C  CC                int3
00005B7D  150000E0D3        adc eax,0xd3e00000
00005B82  FF                db 0xFF
00005B83  FF0500000000      inc dword [0x0]
00005B89  41                inc ecx
00005B8A  0E                push cs
00005B8B  088502420D05      or [ebp+0x50d4202],al
00005B91  41                inc ecx
00005B92  C50C04            lds ecx,[esp+eax]
00005B95  0400              add al,0x0
00005B97  001C00            add [eax+eax],bl
00005B9A  0000              add [eax],al
00005B9C  EC                in al,dx
00005B9D  150000C6D3        adc eax,0xd3c60000
00005BA2  FF                db 0xFF
00005BA3  FF36              push dword [esi]
00005BA5  0000              add [eax],al
00005BA7  0000              add [eax],al
00005BA9  41                inc ecx
00005BAA  0E                push cs
00005BAB  088502420D05      or [ebp+0x50d4202],al
00005BB1  72C5              jc 0x5b78
00005BB3  0C04              or al,0x4
00005BB5  0400              add al,0x0
00005BB7  002400            add [eax+eax],ah
00005BBA  0000              add [eax],al
00005BBC  7015              jo 0x5bd3
00005BBE  0000              add [eax],al
00005BC0  DC                db 0xDC
00005BC1  D3FF              sar edi,cl
00005BC3  FF6E00            jmp far [esi+0x0]
00005BC6  0000              add [eax],al
00005BC8  047C              add al,0x7c
00005BCA  E604              out 0x4,al
00005BCC  08410E            or [ecx+0xe],al
00005BCF  088502420D05      or [ebp+0x50d4202],al
00005BD5  44                inc esp
00005BD6  830302            add dword [ebx],byte +0x2
00005BD9  65C3              gs ret
00005BDB  41                inc ecx
00005BDC  C50C04            lds ecx,[esp+eax]
00005BDF  041C              add al,0x1c
00005BE1  0000              add [eax],al
00005BE3  003416            add [esi+edx],dh
00005BE6  0000              add [eax],al
00005BE8  22D4              and dl,ah
00005BEA  FF                db 0xFF
00005BEB  FF08              dec dword [eax]
00005BED  0000              add [eax],al
00005BEF  0000              add [eax],al
00005BF1  41                inc ecx
00005BF2  0E                push cs
00005BF3  088502420D05      or [ebp+0x50d4202],al
00005BF9  44                inc esp
00005BFA  C50C04            lds ecx,[esp+eax]
00005BFD  0400              add al,0x0
00005BFF  001C00            add [eax+eax],bl
00005C02  0000              add [eax],al
00005C04  54                push esp
00005C05  16                push ss
00005C06  0000              add [eax],al
00005C08  0AD4              or dl,ah
00005C0A  FF                db 0xFF
00005C0B  FF13              call near [ebx]
00005C0D  0000              add [eax],al
00005C0F  0000              add [eax],al
00005C11  41                inc ecx
00005C12  0E                push cs
00005C13  088502420D05      or [ebp+0x50d4202],al
00005C19  4F                dec edi
00005C1A  C50C04            lds ecx,[esp+eax]
00005C1D  0400              add al,0x0
00005C1F  0020              add [eax],ah
00005C21  0000              add [eax],al
00005C23  00D8              add al,bl
00005C25  150000FDD3        adc eax,0xd3fd0000
00005C2A  FF                db 0xFF
00005C2B  FFB600000004      push dword [esi+0x4000000]
00005C31  94                xchg eax,esp
00005C32  E604              out 0x4,al
00005C34  08410E            or [ecx+0xe],al
00005C37  088502420D05      or [ebp+0x50d4202],al
00005C3D  02B2C50C0404      add dh,[edx+0x4040cc5]
00005C43  0020              add [eax],ah
00005C45  0000              add [eax],al
00005C47  00981600008F      add [eax+0x8f000016],bl
00005C4D  D4FF              aam 0xff
00005C4F  FF2C00            jmp far [eax+eax]
00005C52  0000              add [eax],al
00005C54  00410E            add [ecx+0xe],al
00005C57  088502420D05      or [ebp+0x50d4202],al
00005C5D  44                inc esp
00005C5E  830363            add dword [ebx],byte +0x63
00005C61  C3                ret
00005C62  41                inc ecx
00005C63  C50C04            lds ecx,[esp+eax]
00005C66  0400              add al,0x0
00005C68  2000              and [eax],al
00005C6A  0000              add [eax],al
00005C6C  BC16000097        mov esp,0x97000016
00005C71  D4FF              aam 0xff
00005C73  FF6900            jmp far [ecx+0x0]
00005C76  0000              add [eax],al
00005C78  00410E            add [ecx+0xe],al
00005C7B  088502420D05      or [ebp+0x50d4202],al
00005C81  44                inc esp
00005C82  830302            add dword [ebx],byte +0x2
00005C85  60                pusha
00005C86  C3                ret
00005C87  41                inc ecx
00005C88  C50C04            lds ecx,[esp+eax]
00005C8B  041C              add al,0x1c
00005C8D  0000              add [eax],al
00005C8F  00E0              add al,ah
00005C91  16                push ss
00005C92  0000              add [eax],al
00005C94  DC                db 0xDC
00005C95  D4FF              aam 0xff
00005C97  FF1500000000      call near [0x0]
00005C9D  41                inc ecx
00005C9E  0E                push cs
00005C9F  088502420D05      or [ebp+0x50d4202],al
00005CA5  51                push ecx
00005CA6  C50C04            lds ecx,[esp+eax]
00005CA9  0400              add al,0x0
00005CAB  001C00            add [eax+eax],bl
00005CAE  0000              add [eax],al
00005CB0  0017              add [edi],dl
00005CB2  0000              add [eax],al
00005CB4  D1D4              rcl esp,1
00005CB6  FF                db 0xFF
00005CB7  FF1A              call far [edx]
00005CB9  0000              add [eax],al
00005CBB  0000              add [eax],al
00005CBD  41                inc ecx
00005CBE  0E                push cs
00005CBF  088502420D05      or [ebp+0x50d4202],al
00005CC5  56                push esi
00005CC6  C50C04            lds ecx,[esp+eax]
00005CC9  0400              add al,0x0
00005CCB  001C00            add [eax+eax],bl
00005CCE  0000              add [eax],al
00005CD0  2017              and [edi],dl
00005CD2  0000              add [eax],al
00005CD4  CB                retf
00005CD5  D4FF              aam 0xff
00005CD7  FF22              jmp near [edx]
00005CD9  0000              add [eax],al
00005CDB  0000              add [eax],al
00005CDD  41                inc ecx
00005CDE  0E                push cs
00005CDF  088502420D05      or [ebp+0x50d4202],al
00005CE5  5C                pop esp
00005CE6  C50C04            lds ecx,[esp+eax]
00005CE9  0400              add al,0x0
00005CEB  002400            add [eax+eax],ah
00005CEE  0000              add [eax],al
00005CF0  40                inc eax
00005CF1  17                pop ss
00005CF2  0000              add [eax],al
00005CF4  CDD4              int 0xd4
00005CF6  FF                db 0xFF
00005CF7  FF5E00            call far [esi+0x0]
00005CFA  0000              add [eax],al
00005CFC  00410E            add [ecx+0xe],al
00005CFF  088502420D05      or [ebp+0x50d4202],al
00005D05  45                inc ebp
00005D06  8603              xchg al,[ebx]
00005D08  83040251          add dword [edx+eax],byte +0x51
00005D0C  C3                ret
00005D0D  41                inc ecx
00005D0E  C641C50C          mov byte [ecx-0x3b],0xc
00005D12  0404              add al,0x4
00005D14  1C00              sbb al,0x0
00005D16  0000              add [eax],al
00005D18  6817000004        push dword 0x4000017
00005D1D  D5FF              aad 0xff
00005D1F  FF0A              dec dword [edx]
00005D21  0000              add [eax],al
00005D23  0000              add [eax],al
00005D25  41                inc ecx
00005D26  0E                push cs
00005D27  088502420D05      or [ebp+0x50d4202],al
00005D2D  46                inc esi
00005D2E  C50C04            lds ecx,[esp+eax]
00005D31  0400              add al,0x0
00005D33  002C00            add [eax+eax],ch
00005D36  0000              add [eax],al
00005D38  EC                in al,dx
00005D39  16                push ss
00005D3A  0000              add [eax],al
00005D3C  EE                out dx,al
00005D3D  D4FF              aam 0xff
00005D3F  FF5500            call near [ebp+0x0]
00005D42  0000              add [eax],al
00005D44  04A3              add al,0xa3
00005D46  E604              out 0x4,al
00005D48  08410E            or [ecx+0xe],al
00005D4B  088502420D05      or [ebp+0x50d4202],al
00005D51  46                inc esi
00005D52  8703              xchg eax,[ebx]
00005D54  860483            xchg al,[ebx+eax*4]
00005D57  050248C341        add eax,0x41c34802
00005D5C  C641C741          mov byte [ecx-0x39],0x41
00005D60  C50C04            lds ecx,[esp+eax]
00005D63  041C              add al,0x1c
00005D65  0000              add [eax],al
00005D67  00B817000013      add [eax+0x13000017],bh
00005D6D  D5FF              aad 0xff
00005D6F  FF                db 0xFF
00005D70  3E0000            add [ds:eax],al
00005D73  0000              add [eax],al
00005D75  41                inc ecx
00005D76  0E                push cs
00005D77  088502420D05      or [ebp+0x50d4202],al
00005D7D  7AC5              jpe 0x5d44
00005D7F  0C04              or al,0x4
00005D81  0400              add al,0x0
00005D83  001C00            add [eax+eax],bl
00005D86  0000              add [eax],al
00005D88  D817              fcom dword [edi]
00005D8A  0000              add [eax],al
00005D8C  31D5              xor ebp,edx
00005D8E  FF                db 0xFF
00005D8F  FF                db 0xFF
00005D90  3D00000000        cmp eax,0x0
00005D95  41                inc ecx
00005D96  0E                push cs
00005D97  088502420D05      or [ebp+0x50d4202],al
00005D9D  79C5              jns 0x5d64
00005D9F  0C04              or al,0x4
00005DA1  0400              add al,0x0
00005DA3  001C00            add [eax+eax],bl
00005DA6  0000              add [eax],al
00005DA8  F8                clc
00005DA9  17                pop ss
00005DAA  0000              add [eax],al
00005DAC  4E                dec esi
00005DAD  D5FF              aad 0xff
00005DAF  FF0A              dec dword [edx]
00005DB1  0000              add [eax],al
00005DB3  0000              add [eax],al
00005DB5  41                inc ecx
00005DB6  0E                push cs
00005DB7  088502420D05      or [ebp+0x50d4202],al
00005DBD  46                inc esi
00005DBE  C50C04            lds ecx,[esp+eax]
00005DC1  0400              add al,0x0
00005DC3  001C00            add [eax+eax],bl
00005DC6  0000              add [eax],al
00005DC8  1818              sbb [eax],bl
00005DCA  0000              add [eax],al
00005DCC  38D5              cmp ch,dl
00005DCE  FF                db 0xFF
00005DCF  FF29              jmp far [ecx]
00005DD1  0000              add [eax],al
00005DD3  0000              add [eax],al
00005DD5  41                inc ecx
00005DD6  0E                push cs
00005DD7  088502420D05      or [ebp+0x50d4202],al
00005DDD  65C50C04          lds ecx,[gs:esp+eax]
00005DE1  0400              add al,0x0
00005DE3  001C00            add [eax+eax],bl
00005DE6  0000              add [eax],al
00005DE8  3818              cmp [eax],bl
00005DEA  0000              add [eax],al
00005DEC  42                inc edx
00005DED  D5FF              aad 0xff
00005DEF  FF0A              dec dword [edx]
00005DF1  0000              add [eax],al
00005DF3  0000              add [eax],al
00005DF5  41                inc ecx
00005DF6  0E                push cs
00005DF7  088502420D05      or [ebp+0x50d4202],al
00005DFD  46                inc esi
00005DFE  C50C04            lds ecx,[esp+eax]
00005E01  0400              add al,0x0
00005E03  002C00            add [eax+eax],ch
00005E06  0000              add [eax],al
00005E08  BC1700002C        mov esp,0x2c000017
00005E0D  D5FF              aad 0xff
00005E0F  FF5500            call near [ebp+0x0]
00005E12  0000              add [eax],al
00005E14  04AF              add al,0xaf
00005E16  E604              out 0x4,al
00005E18  08410E            or [ecx+0xe],al
00005E1B  088502420D05      or [ebp+0x50d4202],al
00005E21  46                inc esi
00005E22  8703              xchg eax,[ebx]
00005E24  860483            xchg al,[ebx+eax*4]
00005E27  050248C341        add eax,0x41c34802
00005E2C  C641C741          mov byte [ecx-0x39],0x41
00005E30  C50C04            lds ecx,[esp+eax]
00005E33  042C              add al,0x2c
00005E35  0000              add [eax],al
00005E37  008818000051      add [eax+0x51000018],cl
00005E3D  D5FF              aad 0xff
00005E3F  FF                db 0xFF
00005E40  B901000000        mov ecx,0x1
00005E45  41                inc ecx
00005E46  0E                push cs
00005E47  088502420D05      or [ebp+0x50d4202],al
00005E4D  46                inc esi
00005E4E  8703              xchg eax,[ebx]
00005E50  860483            xchg al,[ebx+eax*4]
00005E53  0503AC01C3        add eax,0xc301ac03
00005E58  41                inc ecx
00005E59  C641C741          mov byte [ecx-0x39],0x41
00005E5D  C50C04            lds ecx,[esp+eax]
00005E60  0400              add al,0x0
00005E62  0000              add [eax],al
00005E64  2000              and [eax],al
00005E66  0000              add [eax],al
00005E68  B8180000DA        mov eax,0xda000018
00005E6D  D6                salc
00005E6E  FF                db 0xFF
00005E6F  FF31              push dword [ecx]
00005E71  0000              add [eax],al
00005E73  0000              add [eax],al
00005E75  41                inc ecx
00005E76  0E                push cs
00005E77  088502420D05      or [ebp+0x50d4202],al
00005E7D  44                inc esp
00005E7E  830368            add dword [ebx],byte +0x68
00005E81  C3                ret
00005E82  41                inc ecx
00005E83  C50C04            lds ecx,[esp+eax]
00005E86  0400              add al,0x0
00005E88  1C00              sbb al,0x0
00005E8A  0000              add [eax],al
00005E8C  DC18              fcomp qword [eax]
00005E8E  0000              add [eax],al
00005E90  E7D6              out 0xd6,eax
00005E92  FF                db 0xFF
00005E93  FF12              call near [edx]
00005E95  0000              add [eax],al
00005E97  0000              add [eax],al
00005E99  41                inc ecx
00005E9A  0E                push cs
00005E9B  088502420D05      or [ebp+0x50d4202],al
00005EA1  4C                dec esp
00005EA2  C50C04            lds ecx,[esp+eax]
00005EA5  0400              add al,0x0
00005EA7  001C00            add [eax+eax],bl
00005EAA  0000              add [eax],al
00005EAC  FC                cld
00005EAD  1800              sbb [eax],al
00005EAF  00D9              add cl,bl
00005EB1  D6                salc
00005EB2  FF                db 0xFF
00005EB3  FF13              call near [ebx]
00005EB5  0000              add [eax],al
00005EB7  0000              add [eax],al
00005EB9  41                inc ecx
00005EBA  0E                push cs
00005EBB  088502420D05      or [ebp+0x50d4202],al
00005EC1  4F                dec edi
00005EC2  C50C04            lds ecx,[esp+eax]
00005EC5  0400              add al,0x0
00005EC7  001C00            add [eax+eax],bl
00005ECA  0000              add [eax],al
00005ECC  1C19              sbb al,0x19
00005ECE  0000              add [eax],al
00005ED0  CC                int3
00005ED1  D6                salc
00005ED2  FF                db 0xFF
00005ED3  FF2500000000      jmp near [0x0]
00005ED9  41                inc ecx
00005EDA  0E                push cs
00005EDB  088502420D05      or [ebp+0x50d4202],al
00005EE1  61                popa
00005EE2  C50C04            lds ecx,[esp+eax]
00005EE5  0400              add al,0x0
00005EE7  0028              add [eax],ch
00005EE9  0000              add [eax],al
00005EEB  00A0180000D2      add [eax+0xd2000018],ah
00005EF1  D6                salc
00005EF2  FF                db 0xFF
00005EF3  FFB700000004      push dword [edi+0x4000000]
00005EF9  BBE6040841        mov ebx,0x410804e6
00005EFE  0E                push cs
00005EFF  088502420D05      or [ebp+0x50d4202],al
00005F05  45                inc ebp
00005F06  8603              xchg al,[ebx]
00005F08  830402AC          add dword [edx+eax],byte -0x54
00005F0C  C3                ret
00005F0D  41                inc ecx
00005F0E  C641C50C          mov byte [ecx-0x3b],0xc
00005F12  0404              add al,0x4
00005F14  1C00              sbb al,0x0
00005F16  0000              add [eax],al
00005F18  681900005D        push dword 0x5d000019
00005F1D  D7                xlatb
00005F1E  FF                db 0xFF
00005F1F  FF08              dec dword [eax]
00005F21  0000              add [eax],al
00005F23  0000              add [eax],al
00005F25  41                inc ecx
00005F26  0E                push cs
00005F27  088502420D05      or [ebp+0x50d4202],al
00005F2D  44                inc esp
00005F2E  C50C04            lds ecx,[esp+eax]
00005F31  0400              add al,0x0
00005F33  001C00            add [eax+eax],bl
00005F36  0000              add [eax],al
00005F38  8819              mov [ecx],bl
00005F3A  0000              add [eax],al
00005F3C  45                inc ebp
00005F3D  D7                xlatb
00005F3E  FF                db 0xFF
00005F3F  FF2E              jmp far [esi]
00005F41  0000              add [eax],al
00005F43  0000              add [eax],al
00005F45  41                inc ecx
00005F46  0E                push cs
00005F47  088502420D05      or [ebp+0x50d4202],al
00005F4D  6AC5              push byte -0x3b
00005F4F  0C04              or al,0x4
00005F51  0400              add al,0x0
00005F53  001C00            add [eax+eax],bl
00005F56  0000              add [eax],al
00005F58  A819              test al,0x19
00005F5A  0000              add [eax],al
00005F5C  53                push ebx
00005F5D  D7                xlatb
00005F5E  FF                db 0xFF
00005F5F  FF13              call near [ebx]
00005F61  0000              add [eax],al
00005F63  0000              add [eax],al
00005F65  41                inc ecx
00005F66  0E                push cs
00005F67  088502420D05      or [ebp+0x50d4202],al
00005F6D  4F                dec edi
00005F6E  C50C04            lds ecx,[esp+eax]
00005F71  0400              add al,0x0
00005F73  001C00            add [eax+eax],bl
00005F76  0000              add [eax],al
00005F78  C8190000          enter 0x19,0x0
00005F7C  46                inc esi
00005F7D  D7                xlatb
00005F7E  FF                db 0xFF
00005F7F  FF30              push dword [eax]
00005F81  0000              add [eax],al
00005F83  0000              add [eax],al
00005F85  41                inc ecx
00005F86  0E                push cs
00005F87  088502420D05      or [ebp+0x50d4202],al
00005F8D  6C                insb
00005F8E  C50C04            lds ecx,[esp+eax]
00005F91  0400              add al,0x0
00005F93  0028              add [eax],ch
00005F95  0000              add [eax],al
00005F97  004C1900          add [ecx+ebx+0x0],cl
00005F9B  0056D7            add [esi-0x29],dl
00005F9E  FF                db 0xFF
00005F9F  FFB700000004      push dword [edi+0x4000000]
00005FA5  CE                into
00005FA6  E604              out 0x4,al
00005FA8  08410E            or [ecx+0xe],al
00005FAB  088502420D05      or [ebp+0x50d4202],al
00005FB1  45                inc ebp
00005FB2  8603              xchg al,[ebx]
00005FB4  830402AC          add dword [edx+eax],byte -0x54
00005FB8  C3                ret
00005FB9  41                inc ecx
00005FBA  C641C50C          mov byte [ecx-0x3b],0xc
00005FBE  0404              add al,0x4
00005FC0  2800              sub [eax],al
00005FC2  0000              add [eax],al
00005FC4  141A              adc al,0x1a
00005FC6  0000              add [eax],al
00005FC8  E1D7              loope 0x5fa1
00005FCA  FF                db 0xFF
00005FCB  FF03              inc dword [ebx]
00005FCD  0100              add [eax],eax
00005FCF  0000              add [eax],al
00005FD1  41                inc ecx
00005FD2  0E                push cs
00005FD3  088502420D05      or [ebp+0x50d4202],al
00005FD9  46                inc esi
00005FDA  8703              xchg eax,[ebx]
00005FDC  860483            xchg al,[ebx+eax*4]
00005FDF  0502F6C341        add eax,0x41c3f602
00005FE4  C641C741          mov byte [ecx-0x39],0x41
00005FE8  C50C04            lds ecx,[esp+eax]
00005FEB  041C              add al,0x1c
00005FED  0000              add [eax],al
00005FEF  00401A            add [eax+0x1a],al
00005FF2  0000              add [eax],al
00005FF4  B8D8FFFF22        mov eax,0x22ffffd8
00005FF9  0000              add [eax],al
00005FFB  0000              add [eax],al
00005FFD  41                inc ecx
00005FFE  0E                push cs
00005FFF  088502420D05      or [ebp+0x50d4202],al
00006005  5E                pop esi
00006006  C50C04            lds ecx,[esp+eax]
00006009  0400              add al,0x0
0000600B  001C00            add [eax+eax],bl
0000600E  0000              add [eax],al
00006010  60                pusha
00006011  1A00              sbb al,[eax]
00006013  00BAD8FFFF15      add [edx+0x15ffffd8],bh
00006019  0000              add [eax],al
0000601B  0000              add [eax],al
0000601D  41                inc ecx
0000601E  0E                push cs
0000601F  088502420D05      or [ebp+0x50d4202],al
00006025  51                push ecx
00006026  C50C04            lds ecx,[esp+eax]
00006029  0400              add al,0x0
0000602B  001C00            add [eax+eax],bl
0000602E  0000              add [eax],al
00006030  801A00            sbb byte [edx],0x0
00006033  00AFD8FFFF55      add [edi+0x55ffffd8],ch
00006039  0000              add [eax],al
0000603B  0000              add [eax],al
0000603D  41                inc ecx
0000603E  0E                push cs
0000603F  088502420D05      or [ebp+0x50d4202],al
00006045  0251C5            add dl,[ecx-0x3b]
00006048  0C04              or al,0x4
0000604A  0400              add al,0x0
0000604C  1C00              sbb al,0x0
0000604E  0000              add [eax],al
00006050  A01A0000E4        mov al,[0xe400001a]
00006055  D8FF              fdivr st7
00006057  FF08              dec dword [eax]
00006059  0000              add [eax],al
0000605B  0000              add [eax],al
0000605D  41                inc ecx
0000605E  0E                push cs
0000605F  088502420D05      or [ebp+0x50d4202],al
00006065  44                inc esp
00006066  C50C04            lds ecx,[esp+eax]
00006069  0400              add al,0x0
0000606B  002400            add [eax+eax],ah
0000606E  0000              add [eax],al
00006070  241A              and al,0x1a
00006072  0000              add [eax],al
00006074  CC                int3
00006075  D8FF              fdivr st7
00006077  FF4A00            dec dword [edx+0x0]
0000607A  0000              add [eax],al
0000607C  04E0              add al,0xe0
0000607E  E604              out 0x4,al
00006080  08410E            or [ecx+0xe],al
00006083  088502420D05      or [ebp+0x50d4202],al
00006089  44                inc esp
0000608A  830302            add dword [ebx],byte +0x2
0000608D  41                inc ecx
0000608E  C3                ret
0000608F  41                inc ecx
00006090  C50C04            lds ecx,[esp+eax]
00006093  041C              add al,0x1c
00006095  0000              add [eax],al
00006097  00E8              add al,ch
00006099  1A00              sbb al,[eax]
0000609B  00EE              add dh,ch
0000609D  D8FF              fdivr st7
0000609F  FF21              jmp near [ecx]
000060A1  0000              add [eax],al
000060A3  0000              add [eax],al
000060A5  41                inc ecx
000060A6  0E                push cs
000060A7  088502420D05      or [ebp+0x50d4202],al
000060AD  5D                pop ebp
000060AE  C50C04            lds ecx,[esp+eax]
000060B1  0400              add al,0x0
000060B3  001C00            add [eax+eax],bl
000060B6  0000              add [eax],al
000060B8  081B              or [ebx],bl
000060BA  0000              add [eax],al
000060BC  EF                out dx,eax
000060BD  D8FF              fdivr st7
000060BF  FF08              dec dword [eax]
000060C1  0000              add [eax],al
000060C3  0000              add [eax],al
000060C5  41                inc ecx
000060C6  0E                push cs
000060C7  088502420D05      or [ebp+0x50d4202],al
000060CD  44                inc esp
000060CE  C50C04            lds ecx,[esp+eax]
000060D1  0400              add al,0x0
000060D3  001C00            add [eax+eax],bl
000060D6  0000              add [eax],al
000060D8  281B              sub [ebx],bl
000060DA  0000              add [eax],al
000060DC  D8D8              fcomp st0
000060DE  FF                db 0xFF
000060DF  FF19              call far [ecx]
000060E1  0000              add [eax],al
000060E3  0000              add [eax],al
000060E5  41                inc ecx
000060E6  0E                push cs
000060E7  088502420D05      or [ebp+0x50d4202],al
000060ED  55                push ebp
000060EE  C50C04            lds ecx,[esp+eax]
000060F1  0400              add al,0x0
000060F3  001C00            add [eax+eax],bl
000060F6  0000              add [eax],al
000060F8  48                dec eax
000060F9  1B00              sbb eax,[eax]
000060FB  00D1              add cl,dl
000060FD  D8FF              fdivr st7
000060FF  FF08              dec dword [eax]
00006101  0000              add [eax],al
00006103  0000              add [eax],al
00006105  41                inc ecx
00006106  0E                push cs
00006107  088502420D05      or [ebp+0x50d4202],al
0000610D  44                inc esp
0000610E  C50C04            lds ecx,[esp+eax]
00006111  0400              add al,0x0
00006113  001C00            add [eax+eax],bl
00006116  0000              add [eax],al
00006118  681B0000BA        push dword 0xba00001b
0000611D  D8FF              fdivr st7
0000611F  FF08              dec dword [eax]
00006121  0000              add [eax],al
00006123  0000              add [eax],al
00006125  41                inc ecx
00006126  0E                push cs
00006127  088502420D05      or [ebp+0x50d4202],al
0000612D  44                inc esp
0000612E  C50C04            lds ecx,[esp+eax]
00006131  0400              add al,0x0
00006133  001C00            add [eax+eax],bl
00006136  0000              add [eax],al
00006138  881B              mov [ebx],bl
0000613A  0000              add [eax],al
0000613C  A2D8FFFF27        mov [0x27ffffd8],al
00006141  0000              add [eax],al
00006143  0000              add [eax],al
00006145  41                inc ecx
00006146  0E                push cs
00006147  088502420D05      or [ebp+0x50d4202],al
0000614D  61                popa
0000614E  C50C04            lds ecx,[esp+eax]
00006151  0400              add al,0x0
00006153  001C00            add [eax+eax],bl
00006156  0000              add [eax],al
00006158  A81B              test al,0x1b
0000615A  0000              add [eax],al
0000615C  AA                stosb
0000615D  D8FF              fdivr st7
0000615F  FF28              jmp far [eax]
00006161  0000              add [eax],al
00006163  0000              add [eax],al
00006165  41                inc ecx
00006166  0E                push cs
00006167  088502420D05      or [ebp+0x50d4202],al
0000616D  62                db 0x62
0000616E  C50C04            lds ecx,[esp+eax]
00006171  0400              add al,0x0
00006173  001C00            add [eax+eax],bl
00006176  0000              add [eax],al
00006178  C81B0000          enter 0x1b,0x0
0000617C  B2D8              mov dl,0xd8
0000617E  FF                db 0xFF
0000617F  FF21              jmp near [ecx]
00006181  0000              add [eax],al
00006183  0000              add [eax],al
00006185  41                inc ecx
00006186  0E                push cs
00006187  088502420D05      or [ebp+0x50d4202],al
0000618D  5D                pop ebp
0000618E  C50C04            lds ecx,[esp+eax]
00006191  0400              add al,0x0
00006193  001C00            add [eax+eax],bl
00006196  0000              add [eax],al
00006198  E81B0000B4        call 0xb40061b8
0000619D  D8FF              fdivr st7
0000619F  FF37              push dword [edi]
000061A1  0000              add [eax],al
000061A3  0000              add [eax],al
000061A5  41                inc ecx
000061A6  0E                push cs
000061A7  088502420D05      or [ebp+0x50d4202],al
000061AD  73C5              jnc 0x6174
000061AF  0C04              or al,0x4
000061B1  0400              add al,0x0
000061B3  001C00            add [eax+eax],bl
000061B6  0000              add [eax],al
000061B8  081C00            or [eax+eax],bl
000061BB  00CC              add ah,cl
000061BD  D8FF              fdivr st7
000061BF  FF                db 0xFF
000061C0  3D00000000        cmp eax,0x0
000061C5  41                inc ecx
000061C6  0E                push cs
000061C7  088502420D05      or [ebp+0x50d4202],al
000061CD  79C5              jns 0x6194
000061CF  0C04              or al,0x4
000061D1  0400              add al,0x0
000061D3  001C00            add [eax+eax],bl
000061D6  0000              add [eax],al
000061D8  281C00            sub [eax+eax],bl
000061DB  00E9              add cl,ch
000061DD  D8FF              fdivr st7
000061DF  FF21              jmp near [ecx]
000061E1  0000              add [eax],al
000061E3  0000              add [eax],al
000061E5  41                inc ecx
000061E6  0E                push cs
000061E7  088502420D05      or [ebp+0x50d4202],al
000061ED  5D                pop ebp
000061EE  C50C04            lds ecx,[esp+eax]
000061F1  0400              add al,0x0
000061F3  001C00            add [eax+eax],bl
000061F6  0000              add [eax],al
000061F8  48                dec eax
000061F9  1C00              sbb al,0x0
000061FB  00EA              add dl,ch
000061FD  D8FF              fdivr st7
000061FF  FF0F              dec dword [edi]
00006201  0000              add [eax],al
00006203  0000              add [eax],al
00006205  41                inc ecx
00006206  0E                push cs
00006207  088502420D05      or [ebp+0x50d4202],al
0000620D  4B                dec ebx
0000620E  C50C04            lds ecx,[esp+eax]
00006211  0400              add al,0x0
00006213  001C00            add [eax+eax],bl
00006216  0000              add [eax],al
00006218  681C0000D9        push dword 0xd900001c
0000621D  D8FF              fdivr st7
0000621F  FF21              jmp near [ecx]
00006221  0000              add [eax],al
00006223  0000              add [eax],al
00006225  41                inc ecx
00006226  0E                push cs
00006227  088502420D05      or [ebp+0x50d4202],al
0000622D  5D                pop ebp
0000622E  C50C04            lds ecx,[esp+eax]
00006231  0400              add al,0x0
00006233  001C00            add [eax+eax],bl
00006236  0000              add [eax],al
00006238  881C00            mov [eax+eax],bl
0000623B  00DA              add dl,bl
0000623D  D8FF              fdivr st7
0000623F  FF1A              call far [edx]
00006241  0000              add [eax],al
00006243  0000              add [eax],al
00006245  41                inc ecx
00006246  0E                push cs
00006247  088502420D05      or [ebp+0x50d4202],al
0000624D  56                push esi
0000624E  C50C04            lds ecx,[esp+eax]
00006251  0400              add al,0x0
00006253  0020              add [eax],ah
00006255  0000              add [eax],al
00006257  00A81C0000D4      add [eax+0xd400001c],ch
0000625D  D8FF              fdivr st7
0000625F  FF6100            jmp near [ecx+0x0]
00006262  0000              add [eax],al
00006264  00410E            add [ecx+0xe],al
00006267  088502420D05      or [ebp+0x50d4202],al
0000626D  44                inc esp
0000626E  830302            add dword [ebx],byte +0x2
00006271  58                pop eax
00006272  C3                ret
00006273  41                inc ecx
00006274  C50C04            lds ecx,[esp+eax]
00006277  041C              add al,0x1c
00006279  0000              add [eax],al
0000627B  00CC              add ah,cl
0000627D  1C00              sbb al,0x0
0000627F  0011              add [ecx],dl
00006281  D9FF              fcos
00006283  FF21              jmp near [ecx]
00006285  0000              add [eax],al
00006287  0000              add [eax],al
00006289  41                inc ecx
0000628A  0E                push cs
0000628B  088502420D05      or [ebp+0x50d4202],al
00006291  5D                pop ebp
00006292  C50C04            lds ecx,[esp+eax]
00006295  0400              add al,0x0
00006297  001C00            add [eax+eax],bl
0000629A  0000              add [eax],al
0000629C  EC                in al,dx
0000629D  1C00              sbb al,0x0
0000629F  0012              add [edx],dl
000062A1  D9FF              fcos
000062A3  FF0500000000      inc dword [0x0]
000062A9  41                inc ecx
000062AA  0E                push cs
000062AB  088502420D05      or [ebp+0x50d4202],al
000062B1  41                inc ecx
000062B2  C50C04            lds ecx,[esp+eax]
000062B5  0400              add al,0x0
000062B7  0020              add [eax],ah
000062B9  0000              add [eax],al
000062BB  000C1D0000F7D8    add [ebx+0xd8f70000],cl
000062C2  FF                db 0xFF
000062C3  FF2C00            jmp far [eax+eax]
000062C6  0000              add [eax],al
000062C8  00410E            add [ecx+0xe],al
000062CB  088502420D05      or [ebp+0x50d4202],al
000062D1  44                inc esp
000062D2  830363            add dword [ebx],byte +0x63
000062D5  C3                ret
000062D6  41                inc ecx
000062D7  C50C04            lds ecx,[esp+eax]
000062DA  0400              add al,0x0
000062DC  1C00              sbb al,0x0
000062DE  0000              add [eax],al
000062E0  301D000000D9      xor [0xd9000000],bl
000062E6  FF                db 0xFF
000062E7  FF1500000000      call near [0x0]
000062ED  41                inc ecx
000062EE  0E                push cs
000062EF  088502420D05      or [ebp+0x50d4202],al
000062F5  51                push ecx
000062F6  C50C04            lds ecx,[esp+eax]
000062F9  0400              add al,0x0
000062FB  001C00            add [eax+eax],bl
000062FE  0000              add [eax],al
00006300  50                push eax
00006301  1D0000F6D8        sbb eax,0xd8f60000
00006306  FF                db 0xFF
00006307  FF0A              dec dword [edx]
00006309  0000              add [eax],al
0000630B  0000              add [eax],al
0000630D  41                inc ecx
0000630E  0E                push cs
0000630F  088502420D05      or [ebp+0x50d4202],al
00006315  46                inc esi
00006316  C50C04            lds ecx,[esp+eax]
00006319  0400              add al,0x0
0000631B  001C00            add [eax+eax],bl
0000631E  0000              add [eax],al
00006320  701D              jo 0x633f
00006322  0000              add [eax],al
00006324  E0D8              loopne 0x62fe
00006326  FF                db 0xFF
00006327  FF4B00            dec dword [ebx+0x0]
0000632A  0000              add [eax],al
0000632C  00410E            add [ecx+0xe],al
0000632F  088502420D05      or [ebp+0x50d4202],al
00006335  0247C5            add al,[edi-0x3b]
00006338  0C04              or al,0x4
0000633A  0400              add al,0x0
0000633C  1C00              sbb al,0x0
0000633E  0000              add [eax],al
00006340  90                nop
00006341  1D00000BD9        sbb eax,0xd90b0000
00006346  FF                db 0xFF
00006347  FF22              jmp near [edx]
00006349  0000              add [eax],al
0000634B  0000              add [eax],al
0000634D  41                inc ecx
0000634E  0E                push cs
0000634F  088502420D05      or [ebp+0x50d4202],al
00006355  5C                pop esp
00006356  C50C04            lds ecx,[esp+eax]
00006359  0400              add al,0x0
0000635B  002400            add [eax+eax],ah
0000635E  0000              add [eax],al
00006360  B01D              mov al,0x1d
00006362  0000              add [eax],al
00006364  0DD9FFFF44        or eax,0x44ffffd9
00006369  0000              add [eax],al
0000636B  0000              add [eax],al
0000636D  41                inc ecx
0000636E  0E                push cs
0000636F  088502420D05      or [ebp+0x50d4202],al
00006375  45                inc ebp
00006376  8603              xchg al,[ebx]
00006378  830479C3          add dword [ecx+edi*2],byte -0x3d
0000637C  41                inc ecx
0000637D  C641C50C          mov byte [ecx-0x3b],0xc
00006381  0404              add al,0x4
00006383  001C00            add [eax+eax],bl
00006386  0000              add [eax],al
00006388  D81D000029D9      fcomp dword [0xd9290000]
0000638E  FF                db 0xFF
0000638F  FF12              call near [edx]
00006391  0000              add [eax],al
00006393  0000              add [eax],al
00006395  41                inc ecx
00006396  0E                push cs
00006397  088502420D05      or [ebp+0x50d4202],al
0000639D  4C                dec esp
0000639E  C50C04            lds ecx,[esp+eax]
000063A1  0400              add al,0x0
000063A3  001C00            add [eax+eax],bl
000063A6  0000              add [eax],al
000063A8  F8                clc
000063A9  1D00001BD9        sbb eax,0xd91b0000
000063AE  FF                db 0xFF
000063AF  FF13              call near [ebx]
000063B1  0000              add [eax],al
000063B3  0000              add [eax],al
000063B5  41                inc ecx
000063B6  0E                push cs
000063B7  088502420D05      or [ebp+0x50d4202],al
000063BD  4F                dec edi
000063BE  C50C04            lds ecx,[esp+eax]
000063C1  0400              add al,0x0
000063C3  001C00            add [eax+eax],bl
000063C6  0000              add [eax],al
000063C8  181E              sbb [esi],bl
000063CA  0000              add [eax],al
000063CC  0E                push cs
000063CD  D9FF              fcos
000063CF  FF2500000000      jmp near [0x0]
000063D5  41                inc ecx
000063D6  0E                push cs
000063D7  088502420D05      or [ebp+0x50d4202],al
000063DD  61                popa
000063DE  C50C04            lds ecx,[esp+eax]
000063E1  0400              add al,0x0
000063E3  001C00            add [eax+eax],bl
000063E6  0000              add [eax],al
000063E8  381E              cmp [esi],bl
000063EA  0000              add [eax],al
000063EC  13D9              adc ebx,ecx
000063EE  FF                db 0xFF
000063EF  FF1500000000      call near [0x0]
000063F5  41                inc ecx
000063F6  0E                push cs
000063F7  088502420D05      or [ebp+0x50d4202],al
000063FD  51                push ecx
000063FE  C50C04            lds ecx,[esp+eax]
00006401  0400              add al,0x0
00006403  001C00            add [eax+eax],bl
00006406  0000              add [eax],al
00006408  58                pop eax
00006409  1E                push ds
0000640A  0000              add [eax],al
0000640C  08D9              or cl,bl
0000640E  FF                db 0xFF
0000640F  FF4900            dec dword [ecx+0x0]
00006412  0000              add [eax],al
00006414  00410E            add [ecx+0xe],al
00006417  088502420D05      or [ebp+0x50d4202],al
0000641D  0245C5            add al,[ebp-0x3b]
00006420  0C04              or al,0x4
00006422  0400              add al,0x0
00006424  1C00              sbb al,0x0
00006426  0000              add [eax],al
00006428  781E              js 0x6448
0000642A  0000              add [eax],al
0000642C  32D9              xor bl,cl
0000642E  FF                db 0xFF
0000642F  FF08              dec dword [eax]
00006431  0000              add [eax],al
00006433  0000              add [eax],al
00006435  41                inc ecx
00006436  0E                push cs
00006437  088502420D05      or [ebp+0x50d4202],al
0000643D  44                inc esp
0000643E  C50C04            lds ecx,[esp+eax]
00006441  0400              add al,0x0
00006443  001C00            add [eax+eax],bl
00006446  0000              add [eax],al
00006448  98                cwde
00006449  1E                push ds
0000644A  0000              add [eax],al
0000644C  C7                db 0xC7
0000644D  AA                stosb
0000644E  FF                db 0xFF
0000644F  FF                db 0xFF
00006450  3F                aas
00006451  0000              add [eax],al
00006453  0000              add [eax],al
00006455  41                inc ecx
00006456  0E                push cs
00006457  088502420D05      or [ebp+0x50d4202],al
0000645D  7BC5              jpo 0x6424
0000645F  0C04              or al,0x4
00006461  0400              add al,0x0
00006463  001C00            add [eax+eax],bl
00006466  0000              add [eax],al
00006468  B81E0000E6        mov eax,0xe600001e
0000646D  AA                stosb
0000646E  FF                db 0xFF
0000646F  FF1C00            call far [eax+eax]
00006472  0000              add [eax],al
00006474  00410E            add [ecx+0xe],al
00006477  088502420D05      or [ebp+0x50d4202],al
0000647D  58                pop eax
0000647E  C50C04            lds ecx,[esp+eax]
00006481  0400              add al,0x0
00006483  0000              add [eax],al
00006485  0000              add [eax],al
00006487  00FF              add bh,bh
00006489  FF01              inc dword [ecx]
0000648B  57                push edi
0000648C  2405              and al,0x5
0000648E  E00B              loopne 0x649b
00006490  004305            add [ebx+0x5],al
00006493  DE0B              fimul word [ebx]
00006495  005905            add [ecx+0x5],bl
00006498  E40A              in al,0xa
0000649A  007C05C3          add [ebp+eax-0x3d],bh
0000649E  0A00              or al,[eax]
000064A0  8701              xchg eax,[ecx]
000064A2  05D20A00B4        add eax,0xb4000ad2
000064A7  019301CA0B00      add [ebx+0xbca01],edx
000064AD  E90205F50A        jmp 0xaf569b4
000064B2  00880346CA0B      add [eax+0xbca4603],cl
000064B8  008A04059E0B      add [edx+0xb9e0504],cl
000064BE  00C8              add al,cl
000064C0  0405              add al,0x5
000064C2  F9                stc
000064C3  0A00              or al,[eax]
000064C5  D304058A0B0090    rol dword [eax+0x90000b8a],cl
000064CC  08FE              or dh,bh
000064CE  01B80B00970A      add [eax+0xa97000b],edi
000064D4  05CA0B00A5        add eax,0xa5000bca
000064D9  0A05DE0B00E3      or al,[0xe3000bde]
000064DF  0B050000FFFF      or eax,[0xffff0000]
000064E5  010C28            add [eax+ebp],ecx
000064E8  053A003305        add eax,0x533003a
000064ED  0000              add [eax],al
000064EF  4C                dec esp
000064F0  050000FFFF        add eax,0xffff0000
000064F5  010C1B            add [ebx+ebx],ecx
000064F8  0500003405        add eax,0x5340000
000064FD  3B00              cmp eax,[eax]
000064FF  4D                dec ebp
00006500  050000FFFF        add eax,0xffff0000
00006505  010C28            add [eax+ebp],ecx
00006508  053A003305        add eax,0x533003a
0000650D  0000              add [eax],al
0000650F  4C                dec esp
00006510  050000FFFF        add eax,0xffff0000
00006515  0110              add [eax],edx
00006517  130500002805      adc eax,[0x5280000]
0000651D  46                inc esi
0000651E  003D05440049      add [0x49004405],bh
00006524  050000FFFF        add eax,0xffff0000
00006529  010C1A            add [edx+ebx],ecx
0000652C  054D003605        add eax,0x536004d
00006531  4B                dec ebx
00006532  005005            add [eax+0x5],dl
00006535  0000              add [eax],al
00006537  FF                db 0xFF
00006538  FF01              inc dword [ecx]
0000653A  0C1B              or al,0x1b
0000653C  0500003405        add eax,0x5340000
00006541  3B00              cmp eax,[eax]
00006543  4D                dec ebp
00006544  050000FFFF        add eax,0xffff0000
00006549  010C28            add [eax+ebp],ecx
0000654C  053A003305        add eax,0x533003a
00006551  0000              add [eax],al
00006553  4C                dec esp
00006554  050000FFFF        add eax,0xffff0000
00006559  010C1B            add [ebx+ebx],ecx
0000655C  0500003405        add eax,0x5340000
00006561  3B00              cmp eax,[eax]
00006563  4D                dec ebp
00006564  050000FFFF        add eax,0xffff0000
00006569  010C28            add [eax+ebp],ecx
0000656C  053A003305        add eax,0x533003a
00006571  0000              add [eax],al
00006573  4C                dec esp
00006574  050000FFFF        add eax,0xffff0000
00006579  0108              add [eax],ecx
0000657B  300542005405      xor [0x5540042],al
00006581  0000              add [eax],al
00006583  FF                db 0xFF
00006584  FF01              inc dword [ecx]
00006586  0826              or [esi],ah
00006588  052D003F05        add eax,0x53f002d
0000658D  0000              add [eax],al
0000658F  FF                db 0xFF
00006590  FF01              inc dword [ecx]
00006592  085205            or [edx+0x5],dl
00006595  64007605          add [fs:esi+0x5],dh
00006599  0000              add [eax],al
0000659B  00FF              add bh,bh
0000659D  0029              add [ecx],ch
0000659F  0121              add [ecx],esp
000065A1  8501              test [ecx],eax
000065A3  05AD0400BD        add eax,0xbd0004ad
000065A8  01440000          add [eax+eax+0x0],eax
000065AC  E80243C604        call 0x4c6a8b3
000065B1  01CF              add edi,ecx
000065B3  036600            add esp,[esi+0x0]
000065B6  00C1              add cl,al
000065B8  0405              add al,0x5
000065BA  0000              add [eax],al
000065BC  ED                in eax,dx
000065BD  0446              add al,0x46
000065BF  B504              mov ch,0x4
000065C1  0001              add [ecx],al
000065C3  0000              add [eax],al
000065C5  0000              add [eax],al
000065C7  00FF              add bh,bh
000065C9  FF01              inc dword [ecx]
000065CB  0826              or [esi],ah
000065CD  052D003F05        add eax,0x53f002d
000065D2  0000              add [eax],al
000065D4  FF                db 0xFF
000065D5  FF01              inc dword [ecx]
000065D7  0830              or [eax],dh
000065D9  0542005405        add eax,0x5540042
000065DE  0000              add [eax],al
000065E0  FF                db 0xFF
000065E1  FF01              inc dword [ecx]
000065E3  0826              or [esi],ah
000065E5  052D003F05        add eax,0x53f002d
000065EA  0000              add [eax],al
000065EC  FF                db 0xFF
000065ED  FF01              inc dword [ecx]
000065EF  085205            or [edx+0x5],dl
000065F2  64007605          add [fs:esi+0x5],dh
000065F6  0000              add [eax],al
000065F8  FF                db 0xFF
000065F9  FF01              inc dword [ecx]
000065FB  0A22              or ah,[edx]
000065FD  3F                aas
000065FE  8501              test [ecx],eax
00006600  008801050000      add [eax+0x501],cl
00006606  FF                db 0xFF
00006607  FF01              inc dword [ecx]
00006609  105305            adc [ebx+0x5],dl
0000660C  A301008801        mov [0x1880001],eax
00006611  05AB01009C        add eax,0x9c0001ab
00006616  0117              add [edi],edx
00006618  0000              add [eax],al
0000661A  FF                db 0xFF
0000661B  FF01              inc dword [ecx]
0000661D  107805            adc [eax+0x5],bh
00006620  CF                iret
00006621  0100              add [eax],eax
00006623  C501              lds eax,[ecx]
00006625  05D10100D4        add eax,0xd40001d1
0000662A  01050000FFFF      add [0xffff0000],eax
00006630  0111              add [ecx],edx
00006632  BB01058702        mov ebx,0x2870501
00006637  00DB              add bl,bl
00006639  01058902008C      add [0x8c000289],eax
0000663F  02050000FFFF      add al,[0xffff0000]
00006645  0108              add [eax],ecx
00006647  1405              adc al,0x5
00006649  3C00              cmp al,0x0
0000664B  3F                aas
0000664C  050000FFFF        add eax,0xffff0000
00006651  010E              add [esi],ecx
00006653  1405              adc al,0x5
00006655  0000              add [eax],al
00006657  58                pop eax
00006658  0580010083        add eax,0x83000180
0000665D  010500000000      add [0x0],eax
00006663  00FF              add bh,bh
00006665  0015010C2405      add [0x5240c01],dl
0000666B  49                dec ecx
0000666C  01440500          add [ebp+eax+0x0],eax
00006670  005E0A            add [esi+0xa],bl
00006673  3800              cmp [eax],al
00006675  0100              add [eax],eax
00006677  0000              add [eax],al
00006679  0000              add [eax],al
0000667B  00FF              add bh,bh
0000667D  0015010C2405      add [0x5240c01],dl
00006683  49                dec ecx
00006684  01440500          add [ebp+eax+0x0],eax
00006688  005E0A            add [esi+0xa],bl
0000668B  3800              cmp [eax],al
0000668D  0100              add [eax],eax
0000668F  0000              add [eax],al
00006691  0000              add [eax],al
00006693  00FF              add bh,bh
00006695  FF01              inc dword [ecx]
00006697  0B950105AC01      or edx,[ebp+0x1ac0501]
0000669D  00AF01050000      add [edi+0x501],ch
000066A3  FF                db 0xFF
000066A4  FF01              inc dword [ecx]
000066A6  082C0535004805    or [eax+0x5480035],ch
000066AD  0000              add [eax],al
000066AF  FF                db 0xFF
000066B0  FF01              inc dword [ecx]
000066B2  082C0535004805    or [eax+0x5480035],ch
000066B9  0000              add [eax],al
000066BB  FF                db 0xFF
000066BC  FF01              inc dword [ecx]
000066BE  0F360500008C01    rdshr dword [0x18c0000]
000066C5  05990100AB        add eax,0xab000199
000066CA  01050000FFFF      add [0xffff0000],eax
000066D0  010E              add [esi],ecx
000066D2  360500005A37      ss add eax,0x375a0000
000066D8  99                cdq
000066D9  0100              add [eax],eax
000066DB  AB                stosd
000066DC  01050000FFFF      add [0xffff0000],eax
000066E2  0108              add [eax],ecx
000066E4  26052D003F05      es add eax,0x53f002d
000066EA  0000              add [eax],al
000066EC  FF                db 0xFF
000066ED  FF                db 0xFF
000066EE  FF                db 0xFF
000066EF  FF528F            call near [edx-0x71]
000066F2  0408              add al,0x8
000066F4  0000              add [eax],al
000066F6  0000              add [eax],al
000066F8  FF                db 0xFF
000066F9  FF                db 0xFF
000066FA  FF                db 0xFF
000066FB  FF00              inc dword [eax]
000066FD  0000              add [eax],al
000066FF  0000              add [eax],al
00006701  0000              add [eax],al
00006703  0001              add [ecx],al
00006705  0000              add [eax],al
00006707  0001              add [ecx],al
00006709  0000              add [eax],al
0000670B  0001              add [ecx],al
0000670D  0000              add [eax],al
0000670F  0022              add [edx],ah
00006711  0100              add [eax],eax
00006713  0001              add [ecx],al
00006715  0000              add [eax],al
00006717  002C01            add [ecx+eax],ch
0000671A  0000              add [eax],al
0000671C  0100              add [eax],eax
0000671E  0000              add [eax],al
00006720  49                dec ecx
00006721  0100              add [eax],eax
00006723  000C00            add [eax+eax],cl
00006726  0000              add [eax],al
00006728  98                cwde
00006729  860408            xchg al,[eax+ecx]
0000672C  0D00000008        or eax,0x8000000
00006731  BE04080400        mov esi,0x40804
00006736  0000              add [eax],al
00006738  6881040805        push dword 0x5080481
0000673D  0000              add [eax],al
0000673F  008083040806      add [eax+0x6080483],al
00006745  0000              add [eax],al
00006747  0010              add [eax],dl
00006749  82                db 0x82
0000674A  0408              add al,0x8
0000674C  0A00              or al,[eax]
0000674E  0000              add [eax],al
00006750  D001              rol byte [ecx],1
00006752  0000              add [eax],al
00006754  0B00              or eax,[eax]
00006756  0000              add [eax],al
00006758  1000              adc [eax],al
0000675A  0000              add [eax],al
0000675C  1500000000        adc eax,0x0
00006761  0000              add [eax],al
00006763  0003              add [ebx],al
00006765  0000              add [eax],al
00006767  00E8              add al,ch
00006769  F7040802000000    test dword [eax+ecx],0x2
00006770  90                nop
00006771  0000              add [eax],al
00006773  001400            add [eax+eax],dl
00006776  0000              add [eax],al
00006778  1100              adc [eax],eax
0000677A  0000              add [eax],al
0000677C  17                pop ss
0000677D  0000              add [eax],al
0000677F  0008              add [eax],cl
00006781  860408            xchg al,[eax+ecx]
00006784  1100              adc [eax],eax
00006786  0000              add [eax],al
00006788  008604081200      add [esi+0x120804],al
0000678E  0000              add [eax],al
00006790  0800              or [eax],al
00006792  0000              add [eax],al
00006794  1300              adc eax,[eax]
00006796  0000              add [eax],al
00006798  0800              or [eax],al
0000679A  0000              add [eax],al
0000679C  FE                db 0xFE
0000679D  FF                db 0xFF
0000679E  FF6F80            jmp far [edi-0x80]
000067A1  850408            test [eax+ecx],eax
000067A4  FF                db 0xFF
000067A5  FF                db 0xFF
000067A6  FF6F03            jmp far [edi+0x3]
000067A9  0000              add [eax],al
000067AB  00F0              add al,dh
000067AD  FF                db 0xFF
000067AE  FF6F50            jmp far [edi+0x50]
000067B1  850408            test [eax+ecx],eax
000067B4  0000              add [eax],al
000067B6  0000              add [eax],al
000067B8  0000              add [eax],al
000067BA  0000              add [eax],al
000067BC  0000              add [eax],al
000067BE  0000              add [eax],al
000067C0  0000              add [eax],al
000067C2  0000              add [eax],al
000067C4  0000              add [eax],al
000067C6  0000              add [eax],al
000067C8  0000              add [eax],al
000067CA  0000              add [eax],al
000067CC  0000              add [eax],al
000067CE  0000              add [eax],al
000067D0  0000              add [eax],al
000067D2  0000              add [eax],al
000067D4  0000              add [eax],al
000067D6  0000              add [eax],al
000067D8  0000              add [eax],al
000067DA  0000              add [eax],al
000067DC  0000              add [eax],al
000067DE  0000              add [eax],al
000067E0  0000              add [eax],al
000067E2  0000              add [eax],al
000067E4  0000              add [eax],al
000067E6  0000              add [eax],al
000067E8  04F7              add al,0xf7
000067EA  0408              add al,0x8
000067EC  0000              add [eax],al
000067EE  0000              add [eax],al
000067F0  0000              add [eax],al
000067F2  0000              add [eax],al
000067F4  E686              out 0x86,al
000067F6  0408              add al,0x8
000067F8  F6860408068704    test byte [esi+0x87060804],0x4
000067FF  0816              or [esi],dl
00006801  870408            xchg eax,[eax+ecx]
00006804  26870408          xchg eax,[es:eax+ecx]
00006808  36870408          xchg eax,[ss:eax+ecx]
0000680C  46                inc esi
0000680D  870408            xchg eax,[eax+ecx]
00006810  56                push esi
00006811  870408            xchg eax,[eax+ecx]
00006814  66870408          xchg ax,[eax+ecx]
00006818  7687              jna 0x67a1
0000681A  0408              add al,0x8
0000681C  868704089687      xchg al,[edi+0x87960804]
00006822  0408              add al,0x8
00006824  A6                cmpsb
00006825  870408            xchg eax,[eax+ecx]
00006828  B687              mov dh,0x87
0000682A  0408              add al,0x8
0000682C  C6870408D68704    mov byte [edi+0x87d60804],0x4
00006833  08E6              or dh,ah
00006835  870408            xchg eax,[eax+ecx]
00006838  F6870408000000    test byte [edi+0x804],0x0
0000683F  0000              add [eax],al
00006841  0000              add [eax],al
00006843  004743            add [edi+0x43],al
00006846  43                inc ebx
00006847  3A20              cmp ah,[eax]
00006849  285562            sub [ebp+0x62],dl
0000684C  756E              jnz 0x68bc
0000684E  7475              jz 0x68c5
00006850  20342E            and [esi+ebp],dh
00006853  342E              xor al,0x2e
00006855  332D34756275      xor ebp,[0x75627534]
0000685B  6E                outsb
0000685C  7475              jz 0x68d3
0000685E  352920342E        xor eax,0x2e342029
00006863  342E              xor al,0x2e
00006865  3300              xor eax,[eax]
00006867  47                inc edi
00006868  43                inc ebx
00006869  43                inc ebx
0000686A  3A20              cmp ah,[eax]
0000686C  28474E            sub [edi+0x4e],al
0000686F  55                push ebp
00006870  2920              sub [eax],esp
00006872  342E              xor al,0x2e
00006874  382E              cmp [esi],ch
00006876  3100              xor [eax],eax
00006878  1C00              sbb al,0x0
0000687A  0000              add [eax],al
0000687C  0200              add al,[eax]
0000687E  0000              add [eax],al
00006880  0000              add [eax],al
00006882  0400              add al,0x0
00006884  0000              add [eax],al
00006886  0000              add [eax],al
00006888  008804082200      add [eax+0x220804],cl
0000688E  0000              add [eax],al
00006890  0000              add [eax],al
00006892  0000              add [eax],al
00006894  0000              add [eax],al
00006896  0000              add [eax],al
00006898  1C00              sbb al,0x0
0000689A  0000              add [eax],al
0000689C  0200              add al,[eax]
0000689E  0E                push cs
0000689F  0100              add [eax],eax
000068A1  000400            add [eax+eax],al
000068A4  0000              add [eax],al
000068A6  0000              add [eax],al
000068A8  70BD              jo 0x6867
000068AA  0408              add al,0x8
000068AC  6A00              push byte +0x0
000068AE  0000              add [eax],al
000068B0  0000              add [eax],al
000068B2  0000              add [eax],al
000068B4  0000              add [eax],al
000068B6  0000              add [eax],al
000068B8  2100              and [eax],eax
000068BA  0000              add [eax],al
000068BC  0200              add al,[eax]
000068BE  810000008D00      add dword [eax],0x8d0000
000068C4  0000              add [eax],al
000068C6  7500              jnz 0x68c8
000068C8  0000              add [eax],al
000068CA  5F                pop edi
000068CB  49                dec ecx
000068CC  4F                dec edi
000068CD  5F                pop edi
000068CE  7374              jnc 0x6944
000068D0  64696E5F75736564  imul ebp,[fs:esi+0x5f],dword 0x64657375
000068D8  0000              add [eax],al
000068DA  0000              add [eax],al
000068DC  0036              add [esi],dh
000068DE  0000              add [eax],al
000068E0  0002              add [edx],al
000068E2  000E              add [esi],cl
000068E4  0100              add [eax],eax
000068E6  0013              add [ebx],dl
000068E8  0100              add [eax],eax
000068EA  003E              add [esi],bh
000068EC  0000              add [eax],al
000068EE  005F5F            add [edi+0x5f],bl
000068F1  6C                insb
000068F2  6962635F637375    imul esp,[edx+0x63],dword 0x7573635f
000068F9  5F                pop edi
000068FA  66696E690053      imul bp,[esi+0x69],word 0x5300
00006900  0000              add [eax],al
00006902  005F5F            add [edi+0x5f],bl
00006905  6C                insb
00006906  6962635F637375    imul esp,[edx+0x63],dword 0x7573635f
0000690D  5F                pop edi
0000690E  696E6974000000    imul ebp,[esi+0x69],dword 0x74
00006915  0000              add [eax],al
00006917  7D00              jnl 0x6919
00006919  0000              add [eax],al
0000691B  0200              add al,[eax]
0000691D  0000              add [eax],al
0000691F  0000              add [eax],al
00006921  0401              add al,0x1
00006923  0000              add [eax],al
00006925  0000              add [eax],al
00006927  008804082288      add [eax+0x88220804],cl
0000692D  0408              add al,0x8
0000692F  2E2E2F            cs das
00006932  7379              jnc 0x69ad
00006934  7364              jnc 0x699a
00006936  657073            gs jo 0x69ac
00006939  2F                das
0000693A  693338362F65      imul esi,[ebx],dword 0x652f3638
00006940  6C                insb
00006941  662F              o16 das
00006943  7374              jnc 0x69b9
00006945  61                popa
00006946  7274              jc 0x69bc
00006948  2E53              cs push ebx
0000694A  002F              add [edi],ch
0000694C  686F6D652F        push dword 0x2f656d6f
00006951  7069              jo 0x69bc
00006953  657272            gs jc 0x69c8
00006956  652F              gs das
00006958  42                inc edx
00006959  7572              jnz 0x69cd
0000695B  6561              gs popa
0000695D  752F              jnz 0x698e
0000695F  6865616465        push dword 0x65646165
00006964  7273              jc 0x69d9
00006966  2D676C6962        sub eax,0x62696c67
0000696B  632D666F722D      arpl [0x2d726f66],bp
00006971  6C                insb
00006972  696E75782F676C    imul ebp,[esi+0x75],dword 0x6c672f78
00006979  6962632D322E31    imul esp,[edx+0x63],dword 0x312e322d
00006980  322E              xor ch,[esi]
00006982  322F              xor ch,[edi]
00006984  637375            arpl [ebx+0x75],si
00006987  00474E            add [edi+0x4e],al
0000698A  55                push ebp
0000698B  204153            and [ecx+0x53],al
0000698E  2032              and [edx],dh
00006990  2E3230            xor dh,[cs:eax]
00006993  2E3100            xor [cs:eax],eax
00006996  018089000000      add [eax+0x89],eax
0000699C  0200              add al,[eax]
0000699E  1400              adc al,0x0
000069A0  0000              add [eax],al
000069A2  0401              add al,0x1
000069A4  8E00              mov es,[eax]
000069A6  0000              add [eax],al
000069A8  01CD              add ebp,ecx
000069AA  0000              add [eax],al
000069AC  004300            add [ebx+0x0],al
000069AF  0000              add [eax],al
000069B1  2488              and al,0x88
000069B3  0408              add al,0x8
000069B5  2488              and al,0x88
000069B7  0408              add al,0x8
000069B9  5B                pop ebx
000069BA  0000              add [eax],al
000069BC  0002              add [edx],al
000069BE  0108              add [eax],ecx
000069C0  800000            add byte [eax],0x0
000069C3  0002              add [edx],al
000069C5  0207              add al,[edi]
000069C7  0000              add [eax],al
000069C9  0000              add [eax],al
000069CB  020407            add al,[edi+eax]
000069CE  360000            add [ss:eax],al
000069D1  0002              add [edx],al
000069D3  0407              add al,0x7
000069D5  3100              xor [eax],eax
000069D7  0000              add [eax],al
000069D9  0201              add al,[ecx]
000069DB  06                push es
000069DC  82                db 0x82
000069DD  0000              add [eax],al
000069DF  0002              add [edx],al
000069E1  020513000000      add al,[0x13]
000069E7  030405696E7400    add eax,[eax+0x746e69]
000069EE  0208              add cl,[eax]
000069F0  059A000000        add eax,0x9a
000069F5  0208              add cl,[eax]
000069F7  07                pop es
000069F8  2C00              sub al,0x0
000069FA  0000              add [eax],al
000069FC  0204059F000000    add al,[eax+0x9f]
00006A03  0404              add al,0x4
00006A05  07                pop es
00006A06  0201              add al,[ecx]
00006A08  06                push es
00006A09  8900              mov [eax],eax
00006A0B  0000              add [eax],al
00006A0D  051D000000        add eax,0x1d
00006A12  0119              add [ecx],ebx
00006A14  8700              xchg eax,[eax]
00006A16  0000              add [eax],al
00006A18  01050328BE04      add [0x4be2803],eax
00006A1E  0806              or [esi],al
00006A20  4F                dec edi
00006A21  0000              add [eax],al
00006A23  0000              add [eax],al
00006A25  0F0100            sgdt [eax]
00006A28  0002              add [edx],al
00006A2A  005F00            add [edi+0x0],bl
00006A2D  0000              add [eax],al
00006A2F  0401              add al,0x1
00006A31  8E00              mov es,[eax]
00006A33  0000              add [eax],al
00006A35  01C9              add ecx,ecx
00006A37  0000              add [eax],al
00006A39  004300            add [ebx+0x0],al
00006A3C  0000              add [eax],al
00006A3E  70BD              jo 0x69fd
00006A40  0408              add al,0x8
00006A42  DABD04088200      fidivr dword [ebp+0x820804]
00006A48  0000              add [eax],al
00006A4A  020405696E7400    add al,[eax+0x746e69]
00006A51  03AD00000002      add ebp,[ebp+0x2000000]
00006A57  D3                db 0xD3
00006A58  37                aaa
00006A59  0000              add [eax],al
00006A5B  000404            add [esp+eax],al
00006A5E  07                pop es
00006A5F  360000            add [ss:eax],al
00006A62  000501FD0000      add [0xfd01],al
00006A68  0001              add [ecx],al
00006A6A  830170            add dword [ecx],byte +0x70
00006A6D  BD040875BD        mov ebp,0xbd750804
00006A72  0408              add al,0x8
00006A74  0000              add [eax],al
00006A76  0000              add [eax],al
00006A78  06                push es
00006A79  01B900000001      add [ecx+0x1000000],edi
00006A7F  690180BD0408      imul eax,[ecx],dword 0x804bd80
00006A85  DABD04082C00      fidivr dword [ebp+0x2c0804]
00006A8B  0000              add [eax],al
00006A8D  B900000007        mov ecx,0x7000000
00006A92  B400              mov ah,0x0
00006A94  0000              add [eax],al
00006A96  016925            add [ecx+0x25],ebp
00006A99  0000              add [eax],al
00006A9B  0002              add [edx],al
00006A9D  91                xchg eax,ecx
00006A9E  0007              add [edi],al
00006AA0  0D01000001        or eax,0x1000001
00006AA5  69B9000000029104  imul edi,[ecx+0x2000000],dword 0xa8070491
         -07A8
00006AAF  0000              add [eax],al
00006AB1  0001              add [ecx],al
00006AB3  69B9000000029108  imul edi,[ecx+0x2000000],dword 0xe7080891
         -08E7
00006ABD  0000              add [eax],al
00006ABF  0001              add [ecx],al
00006AC1  7ACC              jpe 0x6a8f
00006AC3  0000              add [eax],al
00006AC5  0009              add [ecx],cl
00006AC7  99                cdq
00006AC8  BD0408D2BD        mov ebp,0xbdd20804
00006ACD  0408              add al,0x8
00006ACF  0A6900            or ch,[ecx+0x0]
00006AD2  017B2C            add [ebx+0x2c],edi
00006AD5  0000              add [eax],al
00006AD7  005800            add [eax+0x0],bl
00006ADA  0000              add [eax],al
00006ADC  0000              add [eax],al
00006ADE  0B04BF            or eax,[edi+edi*4]
00006AE1  0000              add [eax],al
00006AE3  000B              add [ebx],cl
00006AE5  04C5              add al,0xc5
00006AE7  0000              add [eax],al
00006AE9  000401            add [ecx+eax],al
00006AEC  06                push es
00006AED  8900              mov [eax],eax
00006AEF  0000              add [eax],al
00006AF1  0C2C              or al,0x2c
00006AF3  0000              add [eax],al
00006AF5  000DF2000000      add [0xf2],cl
00006AFB  DC00              fadd qword [eax]
00006AFD  0000              add [eax],al
00006AFF  0E                push cs
00006B00  000F              add [edi],cl
00006B02  01F2              add edx,esi
00006B04  0000              add [eax],al
00006B06  0010              add [eax],dl
00006B08  2500000010        and eax,0x10000000
00006B0D  B900000010        mov ecx,0x10000000
00006B12  B900000000        mov ecx,0x0
00006B17  0B04DC            or eax,[esp+ebx*8]
00006B1A  0000              add [eax],al
00006B1C  0011              add [ecx],dl
00006B1E  D400              aam 0x0
00006B20  0000              add [eax],al
00006B22  013B              add [ebx],edi
00006B24  D100              rol dword [eax],1
00006B26  0000              add [eax],al
00006B28  0101              add [ecx],eax
00006B2A  11EC              adc esp,ebp
00006B2C  0000              add [eax],al
00006B2E  0001              add [ecx],al
00006B30  3DD1000000        cmp eax,0xd1
00006B35  0101              add [ecx],eax
00006B37  0001              add [ecx],al
00006B39  1100              adc [eax],eax
00006B3B  1006              adc [esi],al
00006B3D  1101              adc [ecx],eax
00006B3F  1201              adc al,[ecx]
00006B41  0308              add ecx,[eax]
00006B43  1B08              sbb ecx,[eax]
00006B45  2508130500        and eax,0x51308
00006B4A  0000              add [eax],al
00006B4C  0111              add [ecx],edx
00006B4E  01250E130B03      add [0x30b130e],esp
00006B54  0E                push cs
00006B55  1B0E              sbb ecx,[esi]
00006B57  1101              adc [ecx],eax
00006B59  1201              adc al,[ecx]
00006B5B  1006              adc [esi],al
00006B5D  0000              add [eax],al
00006B5F  022400            add ah,[eax+eax]
00006B62  0B0B              or ecx,[ebx]
00006B64  3E0B03            or eax,[ds:ebx]
00006B67  0E                push cs
00006B68  0000              add [eax],al
00006B6A  032400            add esp,[eax+eax]
00006B6D  0B0B              or ecx,[ebx]
00006B6F  3E0B03            or eax,[ds:ebx]
00006B72  0800              or [eax],al
00006B74  000424            add [esp],al
00006B77  000B              add [ebx],cl
00006B79  0B3E              or edi,[esi]
00006B7B  0B00              or eax,[eax]
00006B7D  00053400030E      add [0xe030034],al
00006B83  3A0B              cmp cl,[ebx]
00006B85  3B0B              cmp ecx,[ebx]
00006B87  49                dec ecx
00006B88  133F              adc edi,[edi]
00006B8A  0C02              or al,0x2
00006B8C  0A00              or al,[eax]
00006B8E  0006              add [esi],al
00006B90  26004913          add [es:ecx+0x13],cl
00006B94  0000              add [eax],al
00006B96  0001              add [ecx],al
00006B98  1101              adc [ecx],eax
00006B9A  250E130B03        and eax,0x30b130e
00006B9F  0E                push cs
00006BA0  1B0E              sbb ecx,[esi]
00006BA2  1101              adc [ecx],eax
00006BA4  1201              adc al,[ecx]
00006BA6  1006              adc [esi],al
00006BA8  0000              add [eax],al
00006BAA  022400            add ah,[eax+eax]
00006BAD  0B0B              or ecx,[ebx]
00006BAF  3E0B03            or eax,[ds:ebx]
00006BB2  0800              or [eax],al
00006BB4  0003              add [ebx],al
00006BB6  16                push ss
00006BB7  0003              add [ebx],al
00006BB9  0E                push cs
00006BBA  3A0B              cmp cl,[ebx]
00006BBC  3B0B              cmp ecx,[ebx]
00006BBE  49                dec ecx
00006BBF  1300              adc eax,[eax]
00006BC1  000424            add [esp],al
00006BC4  000B              add [ebx],cl
00006BC6  0B3E              or edi,[esi]
00006BC8  0B03              or eax,[ebx]
00006BCA  0E                push cs
00006BCB  0000              add [eax],al
00006BCD  052E003F0C        add eax,0xc3f002e
00006BD2  030E              add ecx,[esi]
00006BD4  3A0B              cmp cl,[ebx]
00006BD6  3B0B              cmp ecx,[ebx]
00006BD8  27                daa
00006BD9  0C11              or al,0x11
00006BDB  0112              add [edx],edx
00006BDD  014006            add [eax+0x6],eax
00006BE0  0000              add [eax],al
00006BE2  06                push es
00006BE3  2E013F            add [cs:edi],edi
00006BE6  0C03              or al,0x3
00006BE8  0E                push cs
00006BE9  3A0B              cmp cl,[ebx]
00006BEB  3B0B              cmp ecx,[ebx]
00006BED  27                daa
00006BEE  0C11              or al,0x11
00006BF0  0112              add [edx],edx
00006BF2  014006            add [eax+0x6],eax
00006BF5  0113              add [ebx],edx
00006BF7  0000              add [eax],al
00006BF9  07                pop es
00006BFA  0500030E3A        add eax,0x3a0e0300
00006BFF  0B3B              or edi,[ebx]
00006C01  0B4913            or ecx,[ecx+0x13]
00006C04  020A              add cl,[edx]
00006C06  0000              add [eax],al
00006C08  083400            or [eax+eax],dh
00006C0B  030E              add ecx,[esi]
00006C0D  3A0B              cmp cl,[ebx]
00006C0F  3B0B              cmp ecx,[ebx]
00006C11  49                dec ecx
00006C12  1300              adc eax,[eax]
00006C14  0009              add [ecx],cl
00006C16  0B01              or eax,[ecx]
00006C18  1101              adc [ecx],eax
00006C1A  1201              adc al,[ecx]
00006C1C  0000              add [eax],al
00006C1E  0A3400            or dh,[eax+eax]
00006C21  0308              add ecx,[eax]
00006C23  3A0B              cmp cl,[ebx]
00006C25  3B0B              cmp ecx,[ebx]
00006C27  49                dec ecx
00006C28  1302              adc eax,[edx]
00006C2A  06                push es
00006C2B  0000              add [eax],al
00006C2D  0B0F              or ecx,[edi]
00006C2F  000B              add [ebx],cl
00006C31  0B4913            or ecx,[ecx+0x13]
00006C34  0000              add [eax],al
00006C36  0C26              or al,0x26
00006C38  004913            add [ecx+0x13],cl
00006C3B  0000              add [eax],al
00006C3D  0D01014913        or eax,0x13490101
00006C42  0113              add [ebx],edx
00006C44  0000              add [eax],al
00006C46  0E                push cs
00006C47  2100              and [eax],eax
00006C49  0000              add [eax],al
00006C4B  0F1501            unpckhps xmm0,[ecx]
00006C4E  27                daa
00006C4F  0C01              or al,0x1
00006C51  1300              adc eax,[eax]
00006C53  0010              add [eax],dl
00006C55  0500491300        add eax,0x134900
00006C5A  0011              add [ecx],dl
00006C5C  3400              xor al,0x0
00006C5E  030E              add ecx,[esi]
00006C60  3A0B              cmp cl,[ebx]
00006C62  3B0B              cmp ecx,[ebx]
00006C64  49                dec ecx
00006C65  133F              adc edi,[edi]
00006C67  0C3C              or al,0x3c
00006C69  0C00              or al,0x0
00006C6B  0000              add [eax],al
00006C6D  57                push edi
00006C6E  0000              add [eax],al
00006C70  0002              add [edx],al
00006C72  0032              add [edx],dh
00006C74  0000              add [eax],al
00006C76  0001              add [ecx],al
00006C78  01FB              add ebx,edi
00006C7A  0E                push cs
00006C7B  0D00010101        or eax,0x1010100
00006C80  0100              add [eax],eax
00006C82  0000              add [eax],al
00006C84  0100              add [eax],eax
00006C86  0001              add [ecx],al
00006C88  2E2E2F            cs das
00006C8B  7379              jnc 0x6d06
00006C8D  7364              jnc 0x6cf3
00006C8F  657073            gs jo 0x6d05
00006C92  2F                das
00006C93  693338362F65      imul esi,[ebx],dword 0x652f3638
00006C99  6C                insb
00006C9A  660000            o16 add [eax],al
00006C9D  7374              jnc 0x6d13
00006C9F  61                popa
00006CA0  7274              jc 0x6d16
00006CA2  2E53              cs push ebx
00006CA4  0001              add [ecx],al
00006CA6  0000              add [eax],al
00006CA8  0000              add [eax],al
00006CAA  0502008804        add eax,0x4880002
00006CAF  0803              or [ebx],al
00006CB1  C00001            rol byte [eax],0x1
00006CB4  3321              xor esp,[ecx]
00006CB6  343D              xor al,0x3d
00006CB8  2522031820        and eax,0x20180322
00006CBD  59                pop ecx
00006CBE  5A                pop edx
00006CBF  2122              and [edx],esp
00006CC1  5C                pop esp
00006CC2  5B                pop ebx
00006CC3  0201              add al,[ecx]
00006CC5  0001              add [ecx],al
00006CC7  0123              add [ebx],esp
00006CC9  0000              add [eax],al
00006CCB  0002              add [edx],al
00006CCD  001D00000001      add [0x1000000],bl
00006CD3  01FB              add ebx,edi
00006CD5  0E                push cs
00006CD6  0D00010101        or eax,0x1010100
00006CDB  0100              add [eax],eax
00006CDD  0000              add [eax],al
00006CDF  0100              add [eax],eax
00006CE1  0001              add [ecx],al
00006CE3  00696E            add [ecx+0x6e],ch
00006CE6  69742E6300000000  imul esi,[esi+ebp+0x63],dword 0x0
00006CEE  007B00            add [ebx+0x0],bh
00006CF1  0000              add [eax],al
00006CF3  0200              add al,[eax]
00006CF5  57                push edi
00006CF6  0000              add [eax],al
00006CF8  0001              add [ecx],al
00006CFA  01FB              add ebx,edi
00006CFC  0E                push cs
00006CFD  0D00010101        or eax,0x1010100
00006D02  0100              add [eax],eax
00006D04  0000              add [eax],al
00006D06  0100              add [eax],eax
00006D08  0001              add [ecx],al
00006D0A  2F                das
00006D0B  7573              jnz 0x6d80
00006D0D  722F              jc 0x6d3e
00006D0F  6C                insb
00006D10  69622F6763632F    imul esp,[edx+0x2f],dword 0x2f636367
00006D17  693438362D6C69    imul esi,[eax+edi],dword 0x696c2d36
00006D1E  6E                outsb
00006D1F  7578              jnz 0x6d99
00006D21  2D676E752F        sub eax,0x2f756e67
00006D26  342E              xor al,0x2e
00006D28  342E              xor al,0x2e
00006D2A  332F              xor ebp,[edi]
00006D2C  696E636C756465    imul ebp,[esi+0x63],dword 0x6564756c
00006D33  0000              add [eax],al
00006D35  656C              gs insb
00006D37  662D696E          sub ax,0x6e69
00006D3B  69742E6300000000  imul esi,[esi+ebp+0x63],dword 0x0
00006D43  7374              jnc 0x6db9
00006D45  646465662E680001  cs push word 0x100
00006D4D  0000              add [eax],al
00006D4F  0000              add [eax],al
00006D51  050270BD04        add eax,0x4bd7002
00006D56  0803              or [ebx],al
00006D58  830101            add dword [ecx],byte +0x1
00006D5B  44                inc esp
00006D5C  035EC8            add ebx,[esi-0x38]
00006D5F  030E              add ecx,[esi]
00006D61  083C5B            or [ebx+ebx*2],bh
00006D64  086708            or [edi+0x8],ah
00006D67  9D                popf
00006D68  7602              jna 0x6d6c
00006D6A  0800              or [eax],al
00006D6C  0101              add [ecx],eax
00006D6E  0000              add [eax],al
00006D70  1000              adc [eax],al
00006D72  0000              add [eax],al
00006D74  FF                db 0xFF
00006D75  FF                db 0xFF
00006D76  FF                db 0xFF
00006D77  FF01              inc dword [ecx]
00006D79  0001              add [ecx],al
00006D7B  7C08              jl 0x6d85
00006D7D  0C04              or al,0x4
00006D7F  0488              add al,0x88
00006D81  0100              add [eax],eax
00006D83  001400            add [eax+eax],dl
00006D86  0000              add [eax],al
00006D88  0000              add [eax],al
00006D8A  0000              add [eax],al
00006D8C  70BD              jo 0x6d4b
00006D8E  0408              add al,0x8
00006D90  0500000041        add eax,0x41000000
00006D95  0E                push cs
00006D96  084285            or [edx-0x7b],al
00006D99  020D051C0000      add cl,[0x1c05]
00006D9F  0000              add [eax],al
00006DA1  0000              add [eax],al
00006DA3  0080BD04085A      add [eax+0x5a0804bd],al
00006DA9  0000              add [eax],al
00006DAB  00410E            add [ecx+0xe],al
00006DAE  084285            or [edx-0x7b],al
00006DB1  020D054E8305      add cl,[0x5834e05]
00006DB7  860487            xchg al,[edi+eax*4]
00006DBA  0300              add eax,[eax]
00006DBC  7368              jnc 0x6e26
00006DBE  6F                outsd
00006DBF  7274              jc 0x6e35
00006DC1  20756E            and [ebp+0x6e],dh
00006DC4  7369              jnc 0x6e2f
00006DC6  676E              a16 outsb
00006DC8  656420696E        and [fs:ecx+0x6e],ch
00006DCD  7400              jz 0x6dcf
00006DCF  7368              jnc 0x6e39
00006DD1  6F                outsd
00006DD2  7274              jc 0x6e48
00006DD4  20696E            and [ecx+0x6e],ch
00006DD7  7400              jz 0x6dd9
00006DD9  5F                pop edi
00006DDA  49                dec ecx
00006DDB  4F                dec edi
00006DDC  5F                pop edi
00006DDD  7374              jnc 0x6e53
00006DDF  64696E5F75736564  imul ebp,[fs:esi+0x5f],dword 0x64657375
00006DE7  006C6F6E          add [edi+ebp*2+0x6e],ch
00006DEB  67206C6F          and [si+0x6f],ch
00006DEF  6E                outsb
00006DF0  6720756E          and [di+0x6e],dh
00006DF4  7369              jnc 0x6e5f
00006DF6  676E              a16 outsb
00006DF8  656420696E        and [fs:ecx+0x6e],ch
00006DFD  7400              jz 0x6dff
00006DFF  2F                das
00006E00  686F6D652F        push dword 0x2f656d6f
00006E05  7069              jo 0x6e70
00006E07  657272            gs jc 0x6e7c
00006E0A  652F              gs das
00006E0C  42                inc edx
00006E0D  7572              jnz 0x6e81
00006E0F  6561              gs popa
00006E11  752F              jnz 0x6e42
00006E13  6865616465        push dword 0x65646165
00006E18  7273              jc 0x6e8d
00006E1A  2D676C6962        sub eax,0x62696c67
00006E1F  632D666F722D      arpl [0x2d726f66],bp
00006E25  6C                insb
00006E26  696E75782F676C    imul ebp,[esi+0x75],dword 0x6c672f78
00006E2D  6962632D322E31    imul esp,[edx+0x63],dword 0x312e322d
00006E34  322E              xor ch,[esi]
00006E36  322F              xor ch,[edi]
00006E38  637375            arpl [ebx+0x75],si
00006E3B  00756E            add [ebp+0x6e],dh
00006E3E  7369              jnc 0x6ea9
00006E40  676E              a16 outsb
00006E42  6564206368        and [fs:ebx+0x68],ah
00006E47  61                popa
00006E48  7200              jc 0x6e4a
00006E4A  47                inc edi
00006E4B  4E                dec esi
00006E4C  55                push ebp
00006E4D  204320            and [ebx+0x20],al
00006E50  342E              xor al,0x2e
00006E52  342E              xor al,0x2e
00006E54  3300              xor eax,[eax]
00006E56  6C                insb
00006E57  6F                outsd
00006E58  6E                outsb
00006E59  67206C6F          and [si+0x6f],ch
00006E5D  6E                outsb
00006E5E  6720696E          and [bx+di+0x6e],ch
00006E62  7400              jz 0x6e64
00006E64  656E              gs outsb
00006E66  7670              jna 0x6ed8
00006E68  007369            add [ebx+0x69],dh
00006E6B  7A65              jpe 0x6ed2
00006E6D  5F                pop edi
00006E6E  7400              jz 0x6e70
00006E70  61                popa
00006E71  7267              jc 0x6eda
00006E73  6300              arpl [eax],ax
00006E75  5F                pop edi
00006E76  5F                pop edi
00006E77  6C                insb
00006E78  6962635F637375    imul esp,[edx+0x63],dword 0x7573635f
00006E7F  5F                pop edi
00006E80  696E697400656C    imul ebp,[esi+0x69],dword 0x6c650074
00006E87  662D696E          sub ax,0x6e69
00006E8B  69742E63005F5F69  imul esi,[esi+ebp+0x63],dword 0x695f5f00
00006E93  6E                outsb
00006E94  69745F6172726179  imul esi,[edi+ebx*2+0x61],dword 0x79617272
00006E9C  5F                pop edi
00006E9D  7374              jnc 0x6f13
00006E9F  61                popa
00006EA0  7274              jc 0x6f16
00006EA2  007369            add [ebx+0x69],dh
00006EA5  7A65              jpe 0x6f0c
00006EA7  005F5F            add [edi+0x5f],bl
00006EAA  696E69745F6172    imul ebp,[esi+0x69],dword 0x72615f74
00006EB1  7261              jc 0x6f14
00006EB3  795F              jns 0x6f14
00006EB5  656E              gs outsb
00006EB7  64005F5F          add [fs:edi+0x5f],bl
00006EBB  6C                insb
00006EBC  6962635F637375    imul esp,[edx+0x63],dword 0x7573635f
00006EC3  5F                pop edi
00006EC4  66696E690061      imul bp,[esi+0x69],word 0x6100
00006ECA  7267              jc 0x6f33
00006ECC  7600              jna 0x6ece
00006ECE  0000              add [eax],al
00006ED0  0000              add [eax],al
00006ED2  0100              add [eax],eax
00006ED4  0000              add [eax],al
00006ED6  0200              add al,[eax]
00006ED8  7404              jz 0x6ede
00006EDA  0100              add [eax],eax
00006EDC  0000              add [eax],al
00006EDE  0300              add eax,[eax]
00006EE0  0000              add [eax],al
00006EE2  0200              add al,[eax]
00006EE4  7408              jz 0x6eee
00006EE6  0300              add eax,[eax]
00006EE8  0000              add [eax],al
00006EEA  0500000002        add eax,0x2000000
00006EEF  007508            add [ebp+0x8],dh
00006EF2  0000              add [eax],al
00006EF4  0000              add [eax],al
00006EF6  0000              add [eax],al
00006EF8  0000              add [eax],al
00006EFA  1000              adc [eax],al
00006EFC  0000              add [eax],al
00006EFE  1100              adc [eax],eax
00006F00  0000              add [eax],al
00006F02  0200              add al,[eax]
00006F04  7404              jz 0x6f0a
00006F06  1100              adc [eax],eax
00006F08  0000              add [eax],al
00006F0A  1300              adc eax,[eax]
00006F0C  0000              add [eax],al
00006F0E  0200              add al,[eax]
00006F10  7408              jz 0x6f1a
00006F12  1300              adc eax,[eax]
00006F14  0000              add [eax],al
00006F16  6A00              push byte +0x0
00006F18  0000              add [eax],al
00006F1A  0200              add al,[eax]
00006F1C  7508              jnz 0x6f26
00006F1E  0000              add [eax],al
00006F20  0000              add [eax],al
00006F22  0000              add [eax],al
00006F24  0000              add [eax],al
00006F26  40                inc eax
00006F27  0000              add [eax],al
00006F29  006700            add [edi+0x0],ah
00006F2C  0000              add [eax],al
00006F2E  0100              add [eax],eax
00006F30  56                push esi
00006F31  0000              add [eax],al
00006F33  0000              add [eax],al
00006F35  0000              add [eax],al
00006F37  0000              add [eax],al
00006F39  002E              add [esi],ch
00006F3B  7379              jnc 0x6fb6
00006F3D  6D                insd
00006F3E  7461              jz 0x6fa1
00006F40  6200              bound eax,[eax]
00006F42  2E7374            cs jnc 0x6fb9
00006F45  7274              jc 0x6fbb
00006F47  61                popa
00006F48  6200              bound eax,[eax]
00006F4A  2E7368            cs jnc 0x6fb5
00006F4D  7374              jnc 0x6fc3
00006F4F  7274              jc 0x6fc5
00006F51  61                popa
00006F52  6200              bound eax,[eax]
00006F54  2E696E7465727000  imul ebp,[cs:esi+0x74],dword 0x707265
00006F5C  2E6E              cs outsb
00006F5E  6F                outsd
00006F5F  7465              jz 0x6fc6
00006F61  2E41              cs inc ecx
00006F63  42                inc edx
00006F64  49                dec ecx
00006F65  2D74616700        sub eax,0x676174
00006F6A  2E6861736800      cs push dword 0x687361
00006F70  2E64796E          fs jns 0x6fe2
00006F74  7379              jnc 0x6fef
00006F76  6D                insd
00006F77  002E              add [esi],ch
00006F79  64796E            fs jns 0x6fea
00006F7C  7374              jnc 0x6ff2
00006F7E  7200              jc 0x6f80
00006F80  2E676E            cs a16 outsb
00006F83  752E              jnz 0x6fb3
00006F85  7665              jna 0x6fec
00006F87  7273              jc 0x6ffc
00006F89  696F6E002E676E    imul ebp,[edi+0x6e],dword 0x6e672e00
00006F90  752E              jnz 0x6fc0
00006F92  7665              jna 0x6ff9
00006F94  7273              jc 0x7009
00006F96  696F6E5F72002E    imul ebp,[edi+0x6e],dword 0x2e00725f
00006F9D  7265              jc 0x7004
00006F9F  6C                insb
00006FA0  2E64796E          fs jns 0x7012
00006FA4  002E              add [esi],ch
00006FA6  7265              jc 0x700d
00006FA8  6C                insb
00006FA9  2E706C            cs jo 0x7018
00006FAC  7400              jz 0x6fae
00006FAE  2E696E6974002E74  imul ebp,[cs:esi+0x69],dword 0x742e0074
00006FB6  657874            gs js 0x702d
00006FB9  002E              add [esi],ch
00006FBB  66696E69002E      imul bp,[esi+0x69],word 0x2e00
00006FC1  726F              jc 0x7032
00006FC3  6461              fs popa
00006FC5  7461              jz 0x7028
00006FC7  002E              add [esi],ch
00006FC9  65685F667261      gs push dword 0x6172665f
00006FCF  6D                insd
00006FD0  655F              gs pop edi
00006FD2  686472002E        push dword 0x2e007264
00006FD7  65685F667261      gs push dword 0x6172665f
00006FDD  6D                insd
00006FDE  65002E            add [gs:esi],ch
00006FE1  6763635F          arpl [bp+di+0x5f],sp
00006FE5  657863            gs js 0x704b
00006FE8  657074            gs jo 0x705f
00006FEB  5F                pop edi
00006FEC  7461              jz 0x704f
00006FEE  626C6500          bound ebp,[ebp+0x0]
00006FF2  2E63746F72        arpl [cs:edi+ebp*2+0x72],si
00006FF7  7300              jnc 0x6ff9
00006FF9  2E64746F          fs jz 0x706c
00006FFD  7273              jc 0x7072
00006FFF  002E              add [esi],ch
00007001  6A63              push byte +0x63
00007003  7200              jc 0x7005
00007005  2E64796E          fs jns 0x7077
00007009  61                popa
0000700A  6D                insd
0000700B  6963002E676F74    imul esp,[ebx+0x0],dword 0x746f672e
00007012  002E              add [esi],ch
00007014  676F              a16 outsd
00007016  742E              jz 0x7046
00007018  706C              jo 0x7086
0000701A  7400              jz 0x701c
0000701C  2E6461            fs popa
0000701F  7461              jz 0x7082
00007021  002E              add [esi],ch
00007023  627373            bound esi,[ebx+0x73]
00007026  002E              add [esi],ch
00007028  636F6D            arpl [edi+0x6d],bp
0000702B  6D                insd
0000702C  656E              gs outsb
0000702E  7400              jz 0x7030
00007030  2E6465627567      bound esi,[gs:ebp+0x67]
00007036  5F                pop edi
00007037  61                popa
00007038  7261              jc 0x709b
0000703A  6E                outsb
0000703B  67657300          gs a16 jnc 0x703f
0000703F  2E6465627567      bound esi,[gs:ebp+0x67]
00007045  5F                pop edi
00007046  7075              jo 0x70bd
00007048  626E61            bound ebp,[esi+0x61]
0000704B  6D                insd
0000704C  657300            gs jnc 0x704f
0000704F  2E6465627567      bound esi,[gs:ebp+0x67]
00007055  5F                pop edi
00007056  696E666F002E64    imul ebp,[esi+0x66],dword 0x642e006f
0000705D  65627567          bound esi,[gs:ebp+0x67]
00007061  5F                pop edi
00007062  61                popa
00007063  626272            bound esp,[edx+0x72]
00007066  657600            gs jna 0x7069
00007069  2E6465627567      bound esi,[gs:ebp+0x67]
0000706F  5F                pop edi
00007070  6C                insb
00007071  696E65002E6465    imul ebp,[esi+0x65],dword 0x65642e00
00007078  627567            bound esi,[ebp+0x67]
0000707B  5F                pop edi
0000707C  667261            o16 jc 0x70e0
0000707F  6D                insd
00007080  65002E            add [gs:esi],ch
00007083  6465627567        bound esi,[gs:ebp+0x67]
00007088  5F                pop edi
00007089  7374              jnc 0x70ff
0000708B  7200              jc 0x708d
0000708D  2E6465627567      bound esi,[gs:ebp+0x67]
00007093  5F                pop edi
00007094  6C                insb
00007095  6F                outsd
00007096  6300              arpl [eax],ax
00007098  0000              add [eax],al
0000709A  0000              add [eax],al
0000709C  0000              add [eax],al
0000709E  0000              add [eax],al
000070A0  0000              add [eax],al
000070A2  0000              add [eax],al
000070A4  0000              add [eax],al
000070A6  0000              add [eax],al
000070A8  0000              add [eax],al
000070AA  0000              add [eax],al
000070AC  0000              add [eax],al
000070AE  0000              add [eax],al
000070B0  0000              add [eax],al
000070B2  0000              add [eax],al
000070B4  0000              add [eax],al
000070B6  0000              add [eax],al
000070B8  0000              add [eax],al
000070BA  0000              add [eax],al
000070BC  0000              add [eax],al
000070BE  0000              add [eax],al
000070C0  1B00              sbb eax,[eax]
000070C2  0000              add [eax],al
000070C4  0100              add [eax],eax
000070C6  0000              add [eax],al
000070C8  0200              add al,[eax]
000070CA  0000              add [eax],al
000070CC  3481              xor al,0x81
000070CE  0408              add al,0x8
000070D0  3401              xor al,0x1
000070D2  0000              add [eax],al
000070D4  1300              adc eax,[eax]
000070D6  0000              add [eax],al
000070D8  0000              add [eax],al
000070DA  0000              add [eax],al
000070DC  0000              add [eax],al
000070DE  0000              add [eax],al
000070E0  0100              add [eax],eax
000070E2  0000              add [eax],al
000070E4  0000              add [eax],al
000070E6  0000              add [eax],al
000070E8  2300              and eax,[eax]
000070EA  0000              add [eax],al
000070EC  07                pop es
000070ED  0000              add [eax],al
000070EF  0002              add [edx],al
000070F1  0000              add [eax],al
000070F3  004881            add [eax-0x7f],cl
000070F6  0408              add al,0x8
000070F8  48                dec eax
000070F9  0100              add [eax],eax
000070FB  0020              add [eax],ah
000070FD  0000              add [eax],al
000070FF  0000              add [eax],al
00007101  0000              add [eax],al
00007103  0000              add [eax],al
00007105  0000              add [eax],al
00007107  000400            add [eax+eax],al
0000710A  0000              add [eax],al
0000710C  0000              add [eax],al
0000710E  0000              add [eax],al
00007110  3100              xor [eax],eax
00007112  0000              add [eax],al
00007114  0500000002        add eax,0x2000000
00007119  0000              add [eax],al
0000711B  006881            add [eax-0x7f],ch
0000711E  0408              add al,0x8
00007120  68010000A8        push dword 0xa8000001
00007125  0000              add [eax],al
00007127  000400            add [eax+eax],al
0000712A  0000              add [eax],al
0000712C  0000              add [eax],al
0000712E  0000              add [eax],al
00007130  0400              add al,0x0
00007132  0000              add [eax],al
00007134  0400              add al,0x0
00007136  0000              add [eax],al
00007138  37                aaa
00007139  0000              add [eax],al
0000713B  000B              add [ebx],cl
0000713D  0000              add [eax],al
0000713F  0002              add [edx],al
00007141  0000              add [eax],al
00007143  0010              add [eax],dl
00007145  82                db 0x82
00007146  0408              add al,0x8
00007148  1002              adc [edx],al
0000714A  0000              add [eax],al
0000714C  7001              jo 0x714f
0000714E  0000              add [eax],al
00007150  0500000001        add eax,0x1000000
00007155  0000              add [eax],al
00007157  000400            add [eax+eax],al
0000715A  0000              add [eax],al
0000715C  1000              adc [eax],al
0000715E  0000              add [eax],al
00007160  3F                aas
00007161  0000              add [eax],al
00007163  0003              add [ebx],al
00007165  0000              add [eax],al
00007167  0002              add [edx],al
00007169  0000              add [eax],al
0000716B  008083040880      add [eax+0x80080483],al
00007171  0300              add eax,[eax]
00007173  00D0              add al,dl
00007175  0100              add [eax],eax
00007177  0000              add [eax],al
00007179  0000              add [eax],al
0000717B  0000              add [eax],al
0000717D  0000              add [eax],al
0000717F  0001              add [ecx],al
00007181  0000              add [eax],al
00007183  0000              add [eax],al
00007185  0000              add [eax],al
00007187  004700            add [edi+0x0],al
0000718A  0000              add [eax],al
0000718C  FF                db 0xFF
0000718D  FF                db 0xFF
0000718E  FF6F02            jmp far [edi+0x2]
00007191  0000              add [eax],al
00007193  005085            add [eax-0x7b],dl
00007196  0408              add al,0x8
00007198  50                push eax
00007199  0500002E00        add eax,0x2e0000
0000719E  0000              add [eax],al
000071A0  0400              add al,0x0
000071A2  0000              add [eax],al
000071A4  0000              add [eax],al
000071A6  0000              add [eax],al
000071A8  0200              add al,[eax]
000071AA  0000              add [eax],al
000071AC  0200              add al,[eax]
000071AE  0000              add [eax],al
000071B0  54                push esp
000071B1  0000              add [eax],al
000071B3  00FE              add dh,bh
000071B5  FF                db 0xFF
000071B6  FF6F02            jmp far [edi+0x2]
000071B9  0000              add [eax],al
000071BB  008085040880      add [eax+0x80080485],al
000071C1  0500008000        add eax,0x800000
000071C6  0000              add [eax],al
000071C8  0500000003        add eax,0x3000000
000071CD  0000              add [eax],al
000071CF  000400            add [eax+eax],al
000071D2  0000              add [eax],al
000071D4  0000              add [eax],al
000071D6  0000              add [eax],al
000071D8  6300              arpl [eax],ax
000071DA  0000              add [eax],al
000071DC  0900              or [eax],eax
000071DE  0000              add [eax],al
000071E0  0200              add al,[eax]
000071E2  0000              add [eax],al
000071E4  008604080006      add [esi+0x6000804],al
000071EA  0000              add [eax],al
000071EC  0800              or [eax],al
000071EE  0000              add [eax],al
000071F0  0400              add al,0x0
000071F2  0000              add [eax],al
000071F4  0000              add [eax],al
000071F6  0000              add [eax],al
000071F8  0400              add al,0x0
000071FA  0000              add [eax],al
000071FC  0800              or [eax],al
000071FE  0000              add [eax],al
00007200  6C                insb
00007201  0000              add [eax],al
00007203  0009              add [ecx],cl
00007205  0000              add [eax],al
00007207  0002              add [edx],al
00007209  0000              add [eax],al
0000720B  0008              add [eax],cl
0000720D  860408            xchg al,[eax+ecx]
00007210  0806              or [esi],al
00007212  0000              add [eax],al
00007214  90                nop
00007215  0000              add [eax],al
00007217  000400            add [eax+eax],al
0000721A  0000              add [eax],al
0000721C  0B00              or eax,[eax]
0000721E  0000              add [eax],al
00007220  0400              add al,0x0
00007222  0000              add [eax],al
00007224  0800              or [eax],al
00007226  0000              add [eax],al
00007228  7500              jnz 0x722a
0000722A  0000              add [eax],al
0000722C  0100              add [eax],eax
0000722E  0000              add [eax],al
00007230  06                push es
00007231  0000              add [eax],al
00007233  009886040898      add [eax+0x98080486],bl
00007239  06                push es
0000723A  0000              add [eax],al
0000723C  3000              xor [eax],al
0000723E  0000              add [eax],al
00007240  0000              add [eax],al
00007242  0000              add [eax],al
00007244  0000              add [eax],al
00007246  0000              add [eax],al
00007248  0400              add al,0x0
0000724A  0000              add [eax],al
0000724C  0000              add [eax],al
0000724E  0000              add [eax],al
00007250  7000              jo 0x7252
00007252  0000              add [eax],al
00007254  0100              add [eax],eax
00007256  0000              add [eax],al
00007258  06                push es
00007259  0000              add [eax],al
0000725B  00D0              add al,dl
0000725D  860408            xchg al,[eax+ecx]
00007260  D006              rol byte [esi],1
00007262  0000              add [eax],al
00007264  3001              xor [ecx],al
00007266  0000              add [eax],al
00007268  0000              add [eax],al
0000726A  0000              add [eax],al
0000726C  0000              add [eax],al
0000726E  0000              add [eax],al
00007270  1000              adc [eax],al
00007272  0000              add [eax],al
00007274  0400              add al,0x0
00007276  0000              add [eax],al
00007278  7B00              jpo 0x727a
0000727A  0000              add [eax],al
0000727C  0100              add [eax],eax
0000727E  0000              add [eax],al
00007280  06                push es
00007281  0000              add [eax],al
00007283  0000              add [eax],al
00007285  880408            mov [eax+ecx],al
00007288  0008              add [eax],cl
0000728A  0000              add [eax],al
0000728C  0836              or [esi],dh
0000728E  0000              add [eax],al
00007290  0000              add [eax],al
00007292  0000              add [eax],al
00007294  0000              add [eax],al
00007296  0000              add [eax],al
00007298  1000              adc [eax],al
0000729A  0000              add [eax],al
0000729C  0000              add [eax],al
0000729E  0000              add [eax],al
000072A0  810000000100      add dword [eax],0x10000
000072A6  0000              add [eax],al
000072A8  06                push es
000072A9  0000              add [eax],al
000072AB  0008              add [eax],cl
000072AD  BE0408083E        mov esi,0x3e080804
000072B2  0000              add [eax],al
000072B4  1C00              sbb al,0x0
000072B6  0000              add [eax],al
000072B8  0000              add [eax],al
000072BA  0000              add [eax],al
000072BC  0000              add [eax],al
000072BE  0000              add [eax],al
000072C0  0400              add al,0x0
000072C2  0000              add [eax],al
000072C4  0000              add [eax],al
000072C6  0000              add [eax],al
000072C8  8700              xchg eax,[eax]
000072CA  0000              add [eax],al
000072CC  0100              add [eax],eax
000072CE  0000              add [eax],al
000072D0  0200              add al,[eax]
000072D2  0000              add [eax],al
000072D4  24BE              and al,0xbe
000072D6  0408              add al,0x8
000072D8  243E              and al,0x3e
000072DA  0000              add [eax],al
000072DC  3D00000000        cmp eax,0x0
000072E1  0000              add [eax],al
000072E3  0000              add [eax],al
000072E5  0000              add [eax],al
000072E7  000400            add [eax+eax],al
000072EA  0000              add [eax],al
000072EC  0000              add [eax],al
000072EE  0000              add [eax],al
000072F0  8F00              pop dword [eax]
000072F2  0000              add [eax],al
000072F4  0100              add [eax],eax
000072F6  0000              add [eax],al
000072F8  0200              add al,[eax]
000072FA  0000              add [eax],al
000072FC  64BE0408643E      fs mov esi,0x3e640804
00007302  0000              add [eax],al
00007304  4C                dec esp
00007305  07                pop es
00007306  0000              add [eax],al
00007308  0000              add [eax],al
0000730A  0000              add [eax],al
0000730C  0000              add [eax],al
0000730E  0000              add [eax],al
00007310  0400              add al,0x0
00007312  0000              add [eax],al
00007314  0000              add [eax],al
00007316  0000              add [eax],al
00007318  9D                popf
00007319  0000              add [eax],al
0000731B  0001              add [ecx],al
0000731D  0000              add [eax],al
0000731F  0002              add [edx],al
00007321  0000              add [eax],al
00007323  00B0C50408B0      add [eax+0xb00804c5],dh
00007329  45                inc ebp
0000732A  0000              add [eax],al
0000732C  D81E              fcomp dword [esi]
0000732E  0000              add [eax],al
00007330  0000              add [eax],al
00007332  0000              add [eax],al
00007334  0000              add [eax],al
00007336  0000              add [eax],al
00007338  0400              add al,0x0
0000733A  0000              add [eax],al
0000733C  0000              add [eax],al
0000733E  0000              add [eax],al
00007340  A7                cmpsd
00007341  0000              add [eax],al
00007343  0001              add [ecx],al
00007345  0000              add [eax],al
00007347  0002              add [edx],al
00007349  0000              add [eax],al
0000734B  0088E4040888      add [eax+0x880804e4],cl
00007351  640000            add [fs:eax],al
00007354  640200            add al,[fs:eax]
00007357  0000              add [eax],al
00007359  0000              add [eax],al
0000735B  0000              add [eax],al
0000735D  0000              add [eax],al
0000735F  000400            add [eax+eax],al
00007362  0000              add [eax],al
00007364  0000              add [eax],al
00007366  0000              add [eax],al
00007368  B900000001        mov ecx,0x1000000
0000736D  0000              add [eax],al
0000736F  0003              add [ebx],al
00007371  0000              add [eax],al
00007373  00EC              add ah,ch
00007375  F60408EC          test byte [eax+ecx],0xec
00007379  660000            o16 add [eax],al
0000737C  0C00              or al,0x0
0000737E  0000              add [eax],al
00007380  0000              add [eax],al
00007382  0000              add [eax],al
00007384  0000              add [eax],al
00007386  0000              add [eax],al
00007388  0400              add al,0x0
0000738A  0000              add [eax],al
0000738C  0000              add [eax],al
0000738E  0000              add [eax],al
00007390  C00000            rol byte [eax],0x0
00007393  0001              add [ecx],al
00007395  0000              add [eax],al
00007397  0003              add [ebx],al
00007399  0000              add [eax],al
0000739B  00F8              add al,bh
0000739D  F60408F8          test byte [eax+ecx],0xf8
000073A1  660000            o16 add [eax],al
000073A4  0800              or [eax],al
000073A6  0000              add [eax],al
000073A8  0000              add [eax],al
000073AA  0000              add [eax],al
000073AC  0000              add [eax],al
000073AE  0000              add [eax],al
000073B0  0400              add al,0x0
000073B2  0000              add [eax],al
000073B4  0000              add [eax],al
000073B6  0000              add [eax],al
000073B8  C70000000100      mov dword [eax],0x10000
000073BE  0000              add [eax],al
000073C0  0300              add eax,[eax]
000073C2  0000              add [eax],al
000073C4  00F7              add bh,dh
000073C6  0408              add al,0x8
000073C8  006700            add [edi+0x0],ah
000073CB  000400            add [eax+eax],al
000073CE  0000              add [eax],al
000073D0  0000              add [eax],al
000073D2  0000              add [eax],al
000073D4  0000              add [eax],al
000073D6  0000              add [eax],al
000073D8  0400              add al,0x0
000073DA  0000              add [eax],al
000073DC  0000              add [eax],al
000073DE  0000              add [eax],al
000073E0  CC                int3
000073E1  0000              add [eax],al
000073E3  0006              add [esi],al
000073E5  0000              add [eax],al
000073E7  0003              add [ebx],al
000073E9  0000              add [eax],al
000073EB  0004F7            add [edi+esi*8],al
000073EE  0408              add al,0x8
000073F0  0467              add al,0x67
000073F2  0000              add [eax],al
000073F4  E000              loopne 0x73f6
000073F6  0000              add [eax],al
000073F8  0500000000        add eax,0x0
000073FD  0000              add [eax],al
000073FF  000400            add [eax+eax],al
00007402  0000              add [eax],al
00007404  0800              or [eax],al
00007406  0000              add [eax],al
00007408  D500              aad 0x0
0000740A  0000              add [eax],al
0000740C  0100              add [eax],eax
0000740E  0000              add [eax],al
00007410  0300              add eax,[eax]
00007412  0000              add [eax],al
00007414  E4F7              in al,0xf7
00007416  0408              add al,0x8
00007418  E467              in al,0x67
0000741A  0000              add [eax],al
0000741C  0400              add al,0x0
0000741E  0000              add [eax],al
00007420  0000              add [eax],al
00007422  0000              add [eax],al
00007424  0000              add [eax],al
00007426  0000              add [eax],al
00007428  0400              add al,0x0
0000742A  0000              add [eax],al
0000742C  0400              add al,0x0
0000742E  0000              add [eax],al
00007430  DA00              fiadd dword [eax]
00007432  0000              add [eax],al
00007434  0100              add [eax],eax
00007436  0000              add [eax],al
00007438  0300              add eax,[eax]
0000743A  0000              add [eax],al
0000743C  E8F70408E8        call 0xe8087938
00007441  670000            add [bx+si],al
00007444  54                push esp
00007445  0000              add [eax],al
00007447  0000              add [eax],al
00007449  0000              add [eax],al
0000744B  0000              add [eax],al
0000744D  0000              add [eax],al
0000744F  000400            add [eax+eax],al
00007452  0000              add [eax],al
00007454  0400              add al,0x0
00007456  0000              add [eax],al
00007458  E300              jecxz 0x745a
0000745A  0000              add [eax],al
0000745C  0100              add [eax],eax
0000745E  0000              add [eax],al
00007460  0300              add eax,[eax]
00007462  0000              add [eax],al
00007464  3CF8              cmp al,0xf8
00007466  0408              add al,0x8
00007468  3C68              cmp al,0x68
0000746A  0000              add [eax],al
0000746C  0800              or [eax],al
0000746E  0000              add [eax],al
00007470  0000              add [eax],al
00007472  0000              add [eax],al
00007474  0000              add [eax],al
00007476  0000              add [eax],al
00007478  0400              add al,0x0
0000747A  0000              add [eax],al
0000747C  0000              add [eax],al
0000747E  0000              add [eax],al
00007480  E900000008        jmp 0x8007485
00007485  0000              add [eax],al
00007487  0003              add [ebx],al
00007489  0000              add [eax],al
0000748B  0044F804          add [eax+edi*8+0x4],al
0000748F  08446800          or [eax+ebp*2+0x0],al
00007493  000C00            add [eax+eax],cl
00007496  0000              add [eax],al
00007498  0000              add [eax],al
0000749A  0000              add [eax],al
0000749C  0000              add [eax],al
0000749E  0000              add [eax],al
000074A0  0400              add al,0x0
000074A2  0000              add [eax],al
000074A4  0000              add [eax],al
000074A6  0000              add [eax],al
000074A8  EE                out dx,al
000074A9  0000              add [eax],al
000074AB  0001              add [ecx],al
000074AD  0000              add [eax],al
000074AF  0030              add [eax],dh
000074B1  0000              add [eax],al
000074B3  0000              add [eax],al
000074B5  0000              add [eax],al
000074B7  00446800          add [eax+ebp*2+0x0],al
000074BB  003400            add [eax+eax],dh
000074BE  0000              add [eax],al
000074C0  0000              add [eax],al
000074C2  0000              add [eax],al
000074C4  0000              add [eax],al
000074C6  0000              add [eax],al
000074C8  0100              add [eax],eax
000074CA  0000              add [eax],al
000074CC  0100              add [eax],eax
000074CE  0000              add [eax],al
000074D0  F70000000100      test dword [eax],0x10000
000074D6  0000              add [eax],al
000074D8  0000              add [eax],al
000074DA  0000              add [eax],al
000074DC  0000              add [eax],al
000074DE  0000              add [eax],al
000074E0  7868              js 0x754a
000074E2  0000              add [eax],al
000074E4  40                inc eax
000074E5  0000              add [eax],al
000074E7  0000              add [eax],al
000074E9  0000              add [eax],al
000074EB  0000              add [eax],al
000074ED  0000              add [eax],al
000074EF  0008              add [eax],cl
000074F1  0000              add [eax],al
000074F3  0000              add [eax],al
000074F5  0000              add [eax],al
000074F7  0006              add [esi],al
000074F9  0100              add [eax],eax
000074FB  0001              add [ecx],al
000074FD  0000              add [eax],al
000074FF  0000              add [eax],al
00007501  0000              add [eax],al
00007503  0000              add [eax],al
00007505  0000              add [eax],al
00007507  00B86800005F      add [eax+0x5f000068],bh
0000750D  0000              add [eax],al
0000750F  0000              add [eax],al
00007511  0000              add [eax],al
00007513  0000              add [eax],al
00007515  0000              add [eax],al
00007517  0001              add [ecx],al
00007519  0000              add [eax],al
0000751B  0000              add [eax],al
0000751D  0000              add [eax],al
0000751F  0016              add [esi],dl
00007521  0100              add [eax],eax
00007523  0001              add [ecx],al
00007525  0000              add [eax],al
00007527  0000              add [eax],al
00007529  0000              add [eax],al
0000752B  0000              add [eax],al
0000752D  0000              add [eax],al
0000752F  0017              add [edi],dl
00007531  690000210200      imul eax,[eax],dword 0x22100
00007537  0000              add [eax],al
00007539  0000              add [eax],al
0000753B  0000              add [eax],al
0000753D  0000              add [eax],al
0000753F  0001              add [ecx],al
00007541  0000              add [eax],al
00007543  0000              add [eax],al
00007545  0000              add [eax],al
00007547  0022              add [edx],ah
00007549  0100              add [eax],eax
0000754B  0001              add [ecx],al
0000754D  0000              add [eax],al
0000754F  0000              add [eax],al
00007551  0000              add [eax],al
00007553  0000              add [eax],al
00007555  0000              add [eax],al
00007557  0038              add [eax],bh
00007559  6B0000            imul eax,[eax],byte +0x0
0000755C  3501000000        xor eax,0x1
00007561  0000              add [eax],al
00007563  0000              add [eax],al
00007565  0000              add [eax],al
00007567  0001              add [ecx],al
00007569  0000              add [eax],al
0000756B  0000              add [eax],al
0000756D  0000              add [eax],al
0000756F  0030              add [eax],dh
00007571  0100              add [eax],eax
00007573  0001              add [ecx],al
00007575  0000              add [eax],al
00007577  0000              add [eax],al
00007579  0000              add [eax],al
0000757B  0000              add [eax],al
0000757D  0000              add [eax],al
0000757F  006D6C            add [ebp+0x6c],ch
00007582  0000              add [eax],al
00007584  0101              add [ecx],eax
00007586  0000              add [eax],al
00007588  0000              add [eax],al
0000758A  0000              add [eax],al
0000758C  0000              add [eax],al
0000758E  0000              add [eax],al
00007590  0100              add [eax],eax
00007592  0000              add [eax],al
00007594  0000              add [eax],al
00007596  0000              add [eax],al
00007598  3C01              cmp al,0x1
0000759A  0000              add [eax],al
0000759C  0100              add [eax],eax
0000759E  0000              add [eax],al
000075A0  0000              add [eax],al
000075A2  0000              add [eax],al
000075A4  0000              add [eax],al
000075A6  0000              add [eax],al
000075A8  706D              jo 0x7617
000075AA  0000              add [eax],al
000075AC  4C                dec esp
000075AD  0000              add [eax],al
000075AF  0000              add [eax],al
000075B1  0000              add [eax],al
000075B3  0000              add [eax],al
000075B5  0000              add [eax],al
000075B7  000400            add [eax+eax],al
000075BA  0000              add [eax],al
000075BC  0000              add [eax],al
000075BE  0000              add [eax],al
000075C0  49                dec ecx
000075C1  0100              add [eax],eax
000075C3  0001              add [ecx],al
000075C5  0000              add [eax],al
000075C7  0030              add [eax],dh
000075C9  0000              add [eax],al
000075CB  0000              add [eax],al
000075CD  0000              add [eax],al
000075CF  00BC6D00001201    add [ebp+ebp*2+0x1120000],bh
000075D6  0000              add [eax],al
000075D8  0000              add [eax],al
000075DA  0000              add [eax],al
000075DC  0000              add [eax],al
000075DE  0000              add [eax],al
000075E0  0100              add [eax],eax
000075E2  0000              add [eax],al
000075E4  0100              add [eax],eax
000075E6  0000              add [eax],al
000075E8  54                push esp
000075E9  0100              add [eax],eax
000075EB  0001              add [ecx],al
000075ED  0000              add [eax],al
000075EF  0000              add [eax],al
000075F1  0000              add [eax],al
000075F3  0000              add [eax],al
000075F5  0000              add [eax],al
000075F7  00CE              add dh,cl
000075F9  6E                outsb
000075FA  0000              add [eax],al
000075FC  6B0000            imul eax,[eax],byte +0x0
000075FF  0000              add [eax],al
00007601  0000              add [eax],al
00007603  0000              add [eax],al
00007605  0000              add [eax],al
00007607  0001              add [ecx],al
00007609  0000              add [eax],al
0000760B  0000              add [eax],al
0000760D  0000              add [eax],al
0000760F  0011              add [ecx],dl
00007611  0000              add [eax],al
00007613  0003              add [ebx],al
00007615  0000              add [eax],al
00007617  0000              add [eax],al
00007619  0000              add [eax],al
0000761B  0000              add [eax],al
0000761D  0000              add [eax],al
0000761F  0039              add [ecx],bh
00007621  6F                outsd
00007622  0000              add [eax],al
00007624  5F                pop edi
00007625  0100              add [eax],eax
00007627  0000              add [eax],al
00007629  0000              add [eax],al
0000762B  0000              add [eax],al
0000762D  0000              add [eax],al
0000762F  0001              add [ecx],al
00007631  0000              add [eax],al
00007633  0000              add [eax],al
00007635  0000              add [eax],al
00007637  0001              add [ecx],al
00007639  0000              add [eax],al
0000763B  0002              add [edx],al
0000763D  0000              add [eax],al
0000763F  0000              add [eax],al
00007641  0000              add [eax],al
00007643  0000              add [eax],al
00007645  0000              add [eax],al
00007647  008876000020      add [eax+0x20000076],cl
0000764D  1800              sbb [eax],al
0000764F  00250000003F      add [0x3f000000],ah
00007655  0000              add [eax],al
00007657  000400            add [eax+eax],al
0000765A  0000              add [eax],al
0000765C  1000              adc [eax],al
0000765E  0000              add [eax],al
00007660  0900              or [eax],eax
00007662  0000              add [eax],al
00007664  0300              add eax,[eax]
00007666  0000              add [eax],al
00007668  0000              add [eax],al
0000766A  0000              add [eax],al
0000766C  0000              add [eax],al
0000766E  0000              add [eax],al
00007670  A88E              test al,0x8e
00007672  0000              add [eax],al
00007674  DC440000          fadd qword [eax+eax+0x0]
00007678  0000              add [eax],al
0000767A  0000              add [eax],al
0000767C  0000              add [eax],al
0000767E  0000              add [eax],al
00007680  0100              add [eax],eax
00007682  0000              add [eax],al
00007684  0000              add [eax],al
00007686  0000              add [eax],al
00007688  0000              add [eax],al
0000768A  0000              add [eax],al
0000768C  0000              add [eax],al
0000768E  0000              add [eax],al
00007690  0000              add [eax],al
00007692  0000              add [eax],al
00007694  0000              add [eax],al
00007696  0000              add [eax],al
00007698  0000              add [eax],al
0000769A  0000              add [eax],al
0000769C  3481              xor al,0x81
0000769E  0408              add al,0x8
000076A0  0000              add [eax],al
000076A2  0000              add [eax],al
000076A4  0300              add eax,[eax]
000076A6  0100              add [eax],eax
000076A8  0000              add [eax],al
000076AA  0000              add [eax],al
000076AC  48                dec eax
000076AD  81040800000000    add dword [eax+ecx],0x0
000076B4  0300              add eax,[eax]
000076B6  0200              add al,[eax]
000076B8  0000              add [eax],al
000076BA  0000              add [eax],al
000076BC  6881040800        push dword 0x80481
000076C1  0000              add [eax],al
000076C3  0003              add [ebx],al
000076C5  0003              add [ebx],al
000076C7  0000              add [eax],al
000076C9  0000              add [eax],al
000076CB  0010              add [eax],dl
000076CD  82                db 0x82
000076CE  0408              add al,0x8
000076D0  0000              add [eax],al
000076D2  0000              add [eax],al
000076D4  0300              add eax,[eax]
000076D6  0400              add al,0x0
000076D8  0000              add [eax],al
000076DA  0000              add [eax],al
000076DC  80830408000000    add byte [ebx+0x804],0x0
000076E3  0003              add [ebx],al
000076E5  000500000000      add [0x0],al
000076EB  005085            add [eax-0x7b],dl
000076EE  0408              add al,0x8
000076F0  0000              add [eax],al
000076F2  0000              add [eax],al
000076F4  0300              add eax,[eax]
000076F6  06                push es
000076F7  0000              add [eax],al
000076F9  0000              add [eax],al
000076FB  008085040800      add [eax+0x80485],al
00007701  0000              add [eax],al
00007703  0003              add [ebx],al
00007705  0007              add [edi],al
00007707  0000              add [eax],al
00007709  0000              add [eax],al
0000770B  0000              add [eax],al
0000770D  860408            xchg al,[eax+ecx]
00007710  0000              add [eax],al
00007712  0000              add [eax],al
00007714  0300              add eax,[eax]
00007716  0800              or [eax],al
00007718  0000              add [eax],al
0000771A  0000              add [eax],al
0000771C  088604080000      or [esi+0x804],al
00007722  0000              add [eax],al
00007724  0300              add eax,[eax]
00007726  0900              or [eax],eax
00007728  0000              add [eax],al
0000772A  0000              add [eax],al
0000772C  98                cwde
0000772D  860408            xchg al,[eax+ecx]
00007730  0000              add [eax],al
00007732  0000              add [eax],al
00007734  0300              add eax,[eax]
00007736  0A00              or al,[eax]
00007738  0000              add [eax],al
0000773A  0000              add [eax],al
0000773C  D08604080000      rol byte [esi+0x804],1
00007742  0000              add [eax],al
00007744  0300              add eax,[eax]
00007746  0B00              or eax,[eax]
00007748  0000              add [eax],al
0000774A  0000              add [eax],al
0000774C  008804080000      add [eax+0x804],cl
00007752  0000              add [eax],al
00007754  0300              add eax,[eax]
00007756  0C00              or al,0x0
00007758  0000              add [eax],al
0000775A  0000              add [eax],al
0000775C  08BE04080000      or [esi+0x804],bh
00007762  0000              add [eax],al
00007764  0300              add eax,[eax]
00007766  0D00000000        or eax,0x0
0000776B  0024BE            add [esi+edi*4],ah
0000776E  0408              add al,0x8
00007770  0000              add [eax],al
00007772  0000              add [eax],al
00007774  0300              add eax,[eax]
00007776  0E                push cs
00007777  0000              add [eax],al
00007779  0000              add [eax],al
0000777B  0064BE04          add [esi+edi*4+0x4],ah
0000777F  0800              or [eax],al
00007781  0000              add [eax],al
00007783  0003              add [ebx],al
00007785  000F              add [edi],cl
00007787  0000              add [eax],al
00007789  0000              add [eax],al
0000778B  00B0C5040800      add [eax+0x804c5],dh
00007791  0000              add [eax],al
00007793  0003              add [ebx],al
00007795  0010              add [eax],dl
00007797  0000              add [eax],al
00007799  0000              add [eax],al
0000779B  0088E4040800      add [eax+0x804e4],cl
000077A1  0000              add [eax],al
000077A3  0003              add [ebx],al
000077A5  0011              add [ecx],dl
000077A7  0000              add [eax],al
000077A9  0000              add [eax],al
000077AB  00EC              add ah,ch
000077AD  F6040800          test byte [eax+ecx],0x0
000077B1  0000              add [eax],al
000077B3  0003              add [ebx],al
000077B5  0012              add [edx],dl
000077B7  0000              add [eax],al
000077B9  0000              add [eax],al
000077BB  00F8              add al,bh
000077BD  F6040800          test byte [eax+ecx],0x0
000077C1  0000              add [eax],al
000077C3  0003              add [ebx],al
000077C5  0013              add [ebx],dl
000077C7  0000              add [eax],al
000077C9  0000              add [eax],al
000077CB  0000              add [eax],al
000077CD  F7040800000000    test dword [eax+ecx],0x0
000077D4  0300              add eax,[eax]
000077D6  1400              adc al,0x0
000077D8  0000              add [eax],al
000077DA  0000              add [eax],al
000077DC  04F7              add al,0xf7
000077DE  0408              add al,0x8
000077E0  0000              add [eax],al
000077E2  0000              add [eax],al
000077E4  0300              add eax,[eax]
000077E6  1500000000        adc eax,0x0
000077EB  00E4              add ah,ah
000077ED  F7040800000000    test dword [eax+ecx],0x0
000077F4  0300              add eax,[eax]
000077F6  16                push ss
000077F7  0000              add [eax],al
000077F9  0000              add [eax],al
000077FB  00E8              add al,ch
000077FD  F7040800000000    test dword [eax+ecx],0x0
00007804  0300              add eax,[eax]
00007806  17                pop ss
00007807  0000              add [eax],al
00007809  0000              add [eax],al
0000780B  003CF8            add [eax+edi*8],bh
0000780E  0408              add al,0x8
00007810  0000              add [eax],al
00007812  0000              add [eax],al
00007814  0300              add eax,[eax]
00007816  1800              sbb [eax],al
00007818  0000              add [eax],al
0000781A  0000              add [eax],al
0000781C  44                inc esp
0000781D  F8                clc
0000781E  0408              add al,0x8
00007820  0000              add [eax],al
00007822  0000              add [eax],al
00007824  0300              add eax,[eax]
00007826  1900              sbb [eax],eax
00007828  0000              add [eax],al
0000782A  0000              add [eax],al
0000782C  0000              add [eax],al
0000782E  0000              add [eax],al
00007830  0000              add [eax],al
00007832  0000              add [eax],al
00007834  0300              add eax,[eax]
00007836  1A00              sbb al,[eax]
00007838  0000              add [eax],al
0000783A  0000              add [eax],al
0000783C  0000              add [eax],al
0000783E  0000              add [eax],al
00007840  0000              add [eax],al
00007842  0000              add [eax],al
00007844  0300              add eax,[eax]
00007846  1B00              sbb eax,[eax]
00007848  0000              add [eax],al
0000784A  0000              add [eax],al
0000784C  0000              add [eax],al
0000784E  0000              add [eax],al
00007850  0000              add [eax],al
00007852  0000              add [eax],al
00007854  0300              add eax,[eax]
00007856  1C00              sbb al,0x0
00007858  0000              add [eax],al
0000785A  0000              add [eax],al
0000785C  0000              add [eax],al
0000785E  0000              add [eax],al
00007860  0000              add [eax],al
00007862  0000              add [eax],al
00007864  0300              add eax,[eax]
00007866  1D00000000        sbb eax,0x0
0000786B  0000              add [eax],al
0000786D  0000              add [eax],al
0000786F  0000              add [eax],al
00007871  0000              add [eax],al
00007873  0003              add [ebx],al
00007875  001E              add [esi],bl
00007877  0000              add [eax],al
00007879  0000              add [eax],al
0000787B  0000              add [eax],al
0000787D  0000              add [eax],al
0000787F  0000              add [eax],al
00007881  0000              add [eax],al
00007883  0003              add [ebx],al
00007885  001F              add [edi],bl
00007887  0000              add [eax],al
00007889  0000              add [eax],al
0000788B  0000              add [eax],al
0000788D  0000              add [eax],al
0000788F  0000              add [eax],al
00007891  0000              add [eax],al
00007893  0003              add [ebx],al
00007895  0020              add [eax],ah
00007897  0000              add [eax],al
00007899  0000              add [eax],al
0000789B  0000              add [eax],al
0000789D  0000              add [eax],al
0000789F  0000              add [eax],al
000078A1  0000              add [eax],al
000078A3  0003              add [ebx],al
000078A5  0021              add [ecx],ah
000078A7  0000              add [eax],al
000078A9  0000              add [eax],al
000078AB  0000              add [eax],al
000078AD  0000              add [eax],al
000078AF  0000              add [eax],al
000078B1  0000              add [eax],al
000078B3  0003              add [ebx],al
000078B5  0022              add [edx],ah
000078B7  0001              add [ecx],al
000078B9  0000              add [eax],al
000078BB  0000              add [eax],al
000078BD  0000              add [eax],al
000078BF  0000              add [eax],al
000078C1  0000              add [eax],al
000078C3  000400            add [eax+eax],al
000078C6  F1                int1
000078C7  FF08              dec dword [eax]
000078C9  0000              add [eax],al
000078CB  0000              add [eax],al
000078CD  0000              add [eax],al
000078CF  0000              add [eax],al
000078D1  0000              add [eax],al
000078D3  000400            add [eax+eax],al
000078D6  F1                int1
000078D7  FF13              call near [ebx]
000078D9  0000              add [eax],al
000078DB  0000              add [eax],al
000078DD  0000              add [eax],al
000078DF  0000              add [eax],al
000078E1  0000              add [eax],al
000078E3  000400            add [eax+eax],al
000078E6  F1                int1
000078E7  FF1E              call far [esi]
000078E9  0000              add [eax],al
000078EB  00EC              add ah,ch
000078ED  F6040800          test byte [eax+ecx],0x0
000078F1  0000              add [eax],al
000078F3  0001              add [ecx],al
000078F5  0012              add [edx],dl
000078F7  002C00            add [eax+eax],ch
000078FA  0000              add [eax],al
000078FC  F8                clc
000078FD  F6040800          test byte [eax+ecx],0x0
00007901  0000              add [eax],al
00007903  0001              add [ecx],al
00007905  0013              add [ebx],dl
00007907  003A              add [edx],bh
00007909  0000              add [eax],al
0000790B  0000              add [eax],al
0000790D  F7040800000000    test dword [eax+ecx],0x0
00007914  0100              add [eax],eax
00007916  1400              adc al,0x0
00007918  47                inc edi
00007919  0000              add [eax],al
0000791B  0030              add [eax],dh
0000791D  880408            mov [eax+ecx],al
00007920  0000              add [eax],al
00007922  0000              add [eax],al
00007924  0200              add al,[eax]
00007926  0C00              or al,0x0
00007928  5C                pop esp
00007929  0000              add [eax],al
0000792B  006088            add [eax-0x78],ah
0000792E  0408              add al,0x8
00007930  0000              add [eax],al
00007932  0000              add [eax],al
00007934  0200              add al,[eax]
00007936  0C00              or al,0x0
00007938  6F                outsd
00007939  0000              add [eax],al
0000793B  00A088040800      add [eax+0x80488],ah
00007941  0000              add [eax],al
00007943  0002              add [edx],al
00007945  000C00            add [eax+eax],cl
00007948  8500              test [eax],eax
0000794A  0000              add [eax],al
0000794C  44                inc esp
0000794D  F8                clc
0000794E  0408              add al,0x8
00007950  0100              add [eax],eax
00007952  0000              add [eax],al
00007954  0100              add [eax],eax
00007956  1900              sbb [eax],eax
00007958  94                xchg eax,esp
00007959  0000              add [eax],al
0000795B  0048F8            add [eax-0x8],cl
0000795E  0408              add al,0x8
00007960  0400              add al,0x0
00007962  0000              add [eax],al
00007964  0100              add [eax],eax
00007966  1900              sbb [eax],eax
00007968  A2000000F0        mov [0xf0000000],al
0000796D  880408            mov [eax+ecx],al
00007970  0000              add [eax],al
00007972  0000              add [eax],al
00007974  0200              add al,[eax]
00007976  0C00              or al,0x0
00007978  1300              adc eax,[eax]
0000797A  0000              add [eax],al
0000797C  0000              add [eax],al
0000797E  0000              add [eax],al
00007980  0000              add [eax],al
00007982  0000              add [eax],al
00007984  0400              add al,0x0
00007986  F1                int1
00007987  FFAE000000F4      jmp far [esi+0xf4000000]
0000798D  F6040800          test byte [eax+ecx],0x0
00007991  0000              add [eax],al
00007993  0001              add [ecx],al
00007995  0012              add [edx],dl
00007997  00BB00000084      add [ebx+0x84000000],bh
0000799D  E404              in al,0x4
0000799F  0800              or [eax],al
000079A1  0000              add [eax],al
000079A3  0001              add [ecx],al
000079A5  0010              add [eax],dl
000079A7  00C9              add cl,cl
000079A9  0000              add [eax],al
000079AB  0000              add [eax],al
000079AD  F7040800000000    test dword [eax+ecx],0x0
000079B4  0100              add [eax],eax
000079B6  1400              adc al,0x0
000079B8  D500              aad 0x0
000079BA  0000              add [eax],al
000079BC  E0BD              loopne 0x797b
000079BE  0408              add al,0x8
000079C0  0000              add [eax],al
000079C2  0000              add [eax],al
000079C4  0200              add al,[eax]
000079C6  0C00              or al,0x0
000079C8  0800              or [eax],al
000079CA  0000              add [eax],al
000079CC  0000              add [eax],al
000079CE  0000              add [eax],al
000079D0  0000              add [eax],al
000079D2  0000              add [eax],al
000079D4  0400              add al,0x0
000079D6  F1                int1
000079D7  FF                db 0xFF
000079D8  EB00              jmp short 0x79da
000079DA  0000              add [eax],al
000079DC  0000              add [eax],al
000079DE  0000              add [eax],al
000079E0  0000              add [eax],al
000079E2  0000              add [eax],al
000079E4  0400              add al,0x0
000079E6  F1                int1
000079E7  FF0E              dec dword [esi]
000079E9  0100              add [eax],eax
000079EB  004CF804          add [eax+edi*8+0x4],cl
000079EF  0801              or [ecx],al
000079F1  0000              add [eax],al
000079F3  0001              add [ecx],al
000079F5  0019              add [ecx],bl
000079F7  001D01000013      add [0x13000001],bl
000079FD  8F0408            pop dword [eax+ecx]
00007A00  3F                aas
00007A01  0000              add [eax],al
00007A03  0002              add [edx],al
00007A05  000C00            add [eax+eax],cl
00007A08  4D                dec ebp
00007A09  0100              add [eax],eax
00007A0B  00528F            add [edx-0x71],dl
00007A0E  0408              add al,0x8
00007A10  1C00              sbb al,0x0
00007A12  0000              add [eax],al
00007A14  0200              add al,[eax]
00007A16  0C00              or al,0x0
00007A18  61                popa
00007A19  0100              add [eax],eax
00007A1B  0000              add [eax],al
00007A1D  0000              add [eax],al
00007A1F  0000              add [eax],al
00007A21  0000              add [eax],al
00007A23  000400            add [eax+eax],al
00007A26  F1                int1
00007A27  FF00              inc dword [eax]
00007A29  0000              add [eax],al
00007A2B  0000              add [eax],al
00007A2D  0000              add [eax],al
00007A2F  0000              add [eax],al
00007A31  0000              add [eax],al
00007A33  000400            add [eax+eax],al
00007A36  F1                int1
00007A37  FF6C0100          jmp far [ecx+eax+0x0]
00007A3B  00E8              add al,ch
00007A3D  F7040800000000    test dword [eax+ecx],0x0
00007A44  0100              add [eax],eax
00007A46  17                pop ss
00007A47  0082010000EC      add [edx+0xec000001],al
00007A4D  F6040800          test byte [eax+ecx],0x0
00007A51  0000              add [eax],al
00007A53  0000              add [eax],al
00007A55  0012              add [edx],dl
00007A57  0093010000EC      add [ebx+0xec000001],dl
00007A5D  F6040800          test byte [eax+ecx],0x0
00007A61  0000              add [eax],al
00007A63  0000              add [eax],al
00007A65  0012              add [edx],dl
00007A67  00A601000004      add [esi+0x4000001],ah
00007A6D  F7040800000000    test dword [eax+ecx],0x0
00007A74  0100              add [eax],eax
00007A76  1500AF0100        adc eax,0x1af00
00007A7B  003CF8            add [eax+edi*8],bh
00007A7E  0408              add al,0x8
00007A80  0000              add [eax],al
00007A82  0000              add [eax],al
00007A84  2000              and [eax],al
00007A86  1800              sbb [eax],al
00007A88  BA0100002E        mov edx,0x2e000001
00007A8D  B304              mov bl,0x4
00007A8F  080A              or [edx],cl
00007A91  0000              add [eax],al
00007A93  0022              add [edx],ah
00007A95  000C00            add [eax+eax],cl
00007A98  F60100            test byte [ecx],0x0
00007A9B  00F5              add ch,dh
00007A9D  BA04082100        mov edx,0x210804
00007AA2  0000              add [eax],al
00007AA4  2200              and al,[eax]
00007AA6  0C00              or al,0x0
00007AA8  53                push ebx
00007AA9  0200              add al,[eax]
00007AAB  0066AF            add [esi-0x51],ah
00007AAE  0408              add al,0x8
00007AB0  360000            add [ss:eax],al
00007AB3  0022              add [edx],ah
00007AB5  000C00            add [eax+eax],cl
00007AB8  91                xchg eax,ecx
00007AB9  0200              add al,[eax]
00007ABB  007A9C            add [edx-0x64],bh
00007ABE  0408              add al,0x8
00007AC0  810000002200      add dword [eax],0x220000
00007AC6  0C00              or al,0x0
00007AC8  C3                ret
00007AC9  0200              add al,[eax]
00007ACB  0000              add [eax],al
00007ACD  0000              add [eax],al
00007ACF  0000              add [eax],al
00007AD1  0000              add [eax],al
00007AD3  0012              add [edx],dl
00007AD5  0000              add [eax],al
00007AD7  00EE              add dh,ch
00007AD9  0200              add al,[eax]
00007ADB  00979104082C      add [edi+0x2c080491],dl
00007AE1  0000              add [eax],al
00007AE3  0022              add [edx],ah
00007AE5  000C00            add [eax+eax],cl
00007AE8  1503000004        adc eax,0x4000003
00007AED  B304              mov bl,0x4
00007AEF  0829              or [ecx],ch
00007AF1  0000              add [eax],al
00007AF3  0022              add [edx],ah
00007AF5  000C00            add [eax+eax],cl
00007AF8  3403              xor al,0x3
00007AFA  0000              add [eax],al
00007AFC  C5AA04081301      lds ebp,[edx+0x1130804]
00007B02  0000              add [eax],al
00007B04  2200              and al,[eax]
00007B06  0C00              or al,0x0
00007B08  8D03              lea eax,[ebx]
00007B0A  0000              add [eax],al
00007B0C  37                aaa
00007B0D  A004082100        mov al,[0x210804]
00007B12  0000              add [eax],al
00007B14  2200              and al,[eax]
00007B16  0C00              or al,0x0
00007B18  E603              out 0x3,al
00007B1A  0000              add [eax],al
00007B1C  EAA60408130000    jmp 0x0:0x130804a6
00007B23  0022              add [edx],ah
00007B25  000C00            add [eax+eax],cl
00007B28  220400            and al,[eax+eax]
00007B2B  00D0              add al,dl
00007B2D  A6                cmpsb
00007B2E  0408              add al,0x8
00007B30  1300              adc eax,[eax]
00007B32  0000              add [eax],al
00007B34  2200              and al,[eax]
00007B36  0C00              or al,0x0
00007B38  390400            cmp [eax+eax],eax
00007B3B  00DC              add ah,bl
00007B3D  AE                scasb
00007B3E  0408              add al,0x8
00007B40  0A00              or al,[eax]
00007B42  0000              add [eax],al
00007B44  2200              and al,[eax]
00007B46  0C00              or al,0x0
00007B48  6F                outsd
00007B49  0400              add al,0x0
00007B4B  0000              add [eax],al
00007B4D  0000              add [eax],al
00007B4F  0000              add [eax],al
00007B51  0000              add [eax],al
00007B53  0012              add [edx],dl
00007B55  0000              add [eax],al
00007B57  008904000058      add [ecx+0x58000004],cl
00007B5D  A004081A00        mov al,[0x1a0804]
00007B62  0000              add [eax],al
00007B64  2200              and al,[eax]
00007B66  0C00              or al,0x0
00007B68  BD0400000A        mov ebp,0xa000004
00007B6D  B004              mov al,0x4
00007B6F  0808              or [eax],cl
00007B71  0000              add [eax],al
00007B73  0022              add [edx],ah
00007B75  000C00            add [eax+eax],cl
00007B78  E904000070        jmp 0x70007b81
00007B7D  BD04080500        mov ebp,0x50804
00007B82  0000              add [eax],al
00007B84  1200              adc al,[eax]
00007B86  0C00              or al,0x0
00007B88  F9                stc
00007B89  0400              add al,0x0
00007B8B  008DB30408B9      add [ebp+0xb90804b3],cl
00007B91  0100              add [eax],eax
00007B93  0022              add [edx],ah
00007B95  000C00            add [eax+eax],cl
00007B98  51                push ecx
00007B99  050000B5BC        add eax,0xbcb50000
00007B9E  0408              add al,0x8
00007BA0  1200              adc al,[eax]
00007BA2  0000              add [eax],al
00007BA4  2200              and al,[eax]
00007BA6  0C00              or al,0x0
00007BA8  AA                stosb
00007BA9  0500000088        add eax,0x88000000
00007BAE  0408              add al,0x8
00007BB0  0000              add [eax],al
00007BB2  0000              add [eax],al
00007BB4  1200              adc al,[eax]
00007BB6  0C00              or al,0x0
00007BB8  B105              mov cl,0x5
00007BBA  0000              add [eax],al
00007BBC  46                inc esi
00007BBD  95                xchg eax,ebp
00007BBE  0408              add al,0x8
00007BC0  5F                pop edi
00007BC1  0000              add [eax],al
00007BC3  0022              add [edx],ah
00007BC5  000C00            add [eax+eax],cl
00007BC8  DD05000008AF      fld qword [0xaf080000]
00007BCE  0408              add al,0x8
00007BD0  0500000022        add eax,0x22000000
00007BD5  000C00            add [eax+eax],cl
00007BD8  0506000032        add eax,0x32000006
00007BDD  95                xchg eax,ebp
00007BDE  0408              add al,0x8
00007BE0  1300              adc eax,[eax]
00007BE2  0000              add [eax],al
00007BE4  2200              and al,[eax]
00007BE6  0C00              or al,0x0
00007BE8  3106              xor [esi],eax
00007BEA  0000              add [eax],al
00007BEC  81AE040808000000  sub dword [esi+0x80804],0x220000
         -2200
00007BF6  0C00              or al,0x0
00007BF8  61                popa
00007BF9  06                push es
00007BFA  0000              add [eax],al
00007BFC  E4A2              in al,0xa2
00007BFE  0408              add al,0x8
00007C00  27                daa
00007C01  0000              add [eax],al
00007C03  0022              add [edx],ah
00007C05  000C00            add [eax+eax],cl
00007C08  90                nop
00007C09  06                push es
00007C0A  0000              add [eax],al
00007C0C  88A804080500      mov [eax+0x50804],ch
00007C12  0000              add [eax],al
00007C14  2200              and al,[eax]
00007C16  0C00              or al,0x0
00007C18  C70600006E8F      mov dword [esi],0x8f6e0000
00007C1E  0408              add al,0x8
00007C20  1800              sbb [eax],al
00007C22  0000              add [eax],al
00007C24  2200              and al,[eax]
00007C26  0C00              or al,0x0
00007C28  D206              rol byte [esi],cl
00007C2A  0000              add [eax],al
00007C2C  C2AD04            ret 0x4ad
00007C2F  0836              or [esi],dh
00007C31  0000              add [eax],al
00007C33  0022              add [edx],ah
00007C35  000C00            add [eax+eax],cl
00007C38  1C07              sbb al,0x7
00007C3A  0000              add [eax],al
00007C3C  02940408120000    add dl,[esp+eax+0x1208]
00007C43  0022              add [edx],ah
00007C45  000C00            add [eax+eax],cl
00007C48  41                inc ecx
00007C49  07                pop es
00007C4A  0000              add [eax],al
00007C4C  14BD              adc al,0xbd
00007C4E  0408              add al,0x8
00007C50  49                dec ecx
00007C51  0000              add [eax],al
00007C53  0022              add [edx],ah
00007C55  000C00            add [eax+eax],cl
00007C58  97                xchg eax,edi
00007C59  07                pop es
00007C5A  0000              add [eax],al
00007C5C  C1                db 0xC1
00007C5D  B104              mov cl,0x4
00007C5F  085E00            or [esi+0x0],bl
00007C62  0000              add [eax],al
00007C64  2200              and al,[eax]
00007C66  0C00              or al,0x0
00007C68  FE07              inc byte [edi]
00007C6A  0000              add [eax],al
00007C6C  329604088100      xor dl,[esi+0x810804]
00007C72  0000              add [eax],al
00007C74  2200              and al,[eax]
00007C76  0C00              or al,0x0
00007C78  3C08              cmp al,0x8
00007C7A  0000              add [eax],al
00007C7C  50                push eax
00007C7D  9B                wait
00007C7E  0408              add al,0x8
00007C80  5F                pop edi
00007C81  0000              add [eax],al
00007C83  0022              add [edx],ah
00007C85  000C00            add [eax+eax],cl
00007C88  5C                pop esp
00007C89  0800              or [eax],al
00007C8B  0095AC04082C      add [ebp+0x2c0804ac],dl
00007C91  0000              add [eax],al
00007C93  0022              add [edx],ah
00007C95  000C00            add [eax+eax],cl
00007C98  A6                cmpsb
00007C99  0800              or [eax],al
00007C9B  0016              add [esi],dl
00007C9D  9C                pushf
00007C9E  0408              add al,0x8
00007CA0  0500000022        add eax,0x22000000
00007CA5  000C00            add [eax+eax],cl
00007CA8  DA08              fimul dword [eax]
00007CAA  0000              add [eax],al
00007CAC  3A9D04080800      cmp bl,[ebp+0x80804]
00007CB2  0000              add [eax],al
00007CB4  2200              and al,[eax]
00007CB6  0C00              or al,0x0
00007CB8  1F                pop ds
00007CB9  0900              or [eax],eax
00007CBB  00E8              add al,ch
00007CBD  95                xchg eax,ebp
00007CBE  0408              add al,0x8
00007CC0  4A                dec edx
00007CC1  0000              add [eax],al
00007CC3  0022              add [edx],ah
00007CC5  000C00            add [eax+eax],cl
00007CC8  6209              bound ecx,[ecx]
00007CCA  0000              add [eax],al
00007CCC  B4B9              mov ah,0xb9
00007CCE  0408              add al,0x8
00007CD0  1900              sbb [eax],eax
00007CD2  0000              add [eax],al
00007CD4  2200              and al,[eax]
00007CD6  0C00              or al,0x0
00007CD8  7F09              jg 0x7ce3
00007CDA  0000              add [eax],al
00007CDC  A88F              test al,0x8f
00007CDE  0408              add al,0x8
00007CE0  57                push edi
00007CE1  0000              add [eax],al
00007CE3  0022              add [edx],ah
00007CE5  000C00            add [eax+eax],cl
00007CE8  A4                movsb
00007CE9  0900              or [eax],eax
00007CEB  0010              add [eax],dl
00007CED  9C                pushf
00007CEE  0408              add al,0x8
00007CF0  0500000022        add eax,0x22000000
00007CF5  000C00            add [eax+eax],cl
00007CF8  D809              fmul dword [ecx]
00007CFA  0000              add [eax],al
00007CFC  BDB204083D        mov ebp,0x3d0804b2
00007D01  0000              add [eax],al
00007D03  0022              add [edx],ah
00007D05  000C00            add [eax+eax],cl
00007D08  260A00            or al,[es:eax]
00007D0B  0016              add [esi],dl
00007D0D  BB04081A00        mov ebx,0x1a0804
00007D12  0000              add [eax],al
00007D14  2200              and al,[eax]
00007D16  0C00              or al,0x0
00007D18  41                inc ecx
00007D19  0A00              or al,[eax]
00007D1B  0066AE            add [esi-0x52],ah
00007D1E  0408              add al,0x8
00007D20  0800              or [eax],al
00007D22  0000              add [eax],al
00007D24  2200              and al,[eax]
00007D26  0C00              or al,0x0
00007D28  790A              jns 0x7d34
00007D2A  0000              add [eax],al
00007D2C  0000              add [eax],al
00007D2E  0000              add [eax],al
00007D30  0000              add [eax],al
00007D32  0000              add [eax],al
00007D34  2000              and [eax],al
00007D36  0000              add [eax],al
00007D38  880A              mov [edx],cl
00007D3A  0000              add [eax],al
00007D3C  8AB904082100      mov bh,[ecx+0x210804]
00007D42  0000              add [eax],al
00007D44  2200              and al,[eax]
00007D46  0C00              or al,0x0
00007D48  040B              add al,0xb
00007D4A  0000              add [eax],al
00007D4C  0000              add [eax],al
00007D4E  0000              add [eax],al
00007D50  0000              add [eax],al
00007D52  0000              add [eax],al
00007D54  2000              and [eax],al
00007D56  0000              add [eax],al
00007D58  180B              sbb [ebx],cl
00007D5A  0000              add [eax],al
00007D5C  90                nop
00007D5D  97                xchg eax,edi
00007D5E  0408              add al,0x8
00007D60  2200              and al,[eax]
00007D62  0000              add [eax],al
00007D64  2200              and al,[eax]
00007D66  0C00              or al,0x0
00007D68  3F                aas
00007D69  0B00              or eax,[eax]
00007D6B  00A8A804082F      add [eax+0x2f0804a8],ch
00007D71  0000              add [eax],al
00007D73  0022              add [edx],ah
00007D75  000C00            add [eax+eax],cl
00007D78  6A0B              push byte +0xb
00007D7A  0000              add [eax],al
00007D7C  1C9C              sbb al,0x9c
00007D7E  0408              add al,0x8
00007D80  1300              adc eax,[eax]
00007D82  0000              add [eax],al
00007D84  2200              and al,[eax]
00007D86  0C00              or al,0x0
00007D88  AA                stosb
00007D89  0B00              or eax,[eax]
00007D8B  00C8              add al,cl
00007D8D  A004080800        mov al,[0x80804]
00007D92  0000              add [eax],al
00007D94  2200              and al,[eax]
00007D96  0C00              or al,0x0
00007D98  F6                db 0xF6
00007D99  0B00              or eax,[eax]
00007D9B  0024BE            add [esi+edi*4],ah
00007D9E  0408              add al,0x8
00007DA0  0400              add al,0x0
00007DA2  0000              add [eax],al
00007DA4  1100              adc [eax],eax
00007DA6  0E                push cs
00007DA7  00FD              add ch,bh
00007DA9  0B00              or eax,[eax]
00007DAB  004695            add [esi-0x6b],al
00007DAE  0408              add al,0x8
00007DB0  5F                pop edi
00007DB1  0000              add [eax],al
00007DB3  0022              add [edx],ah
00007DB5  000C00            add [eax+eax],cl
00007DB8  290C00            sub [eax+eax],ecx
00007DBB  002A              add [edx],ch
00007DBD  93                xchg eax,ebx
00007DBE  0408              add al,0x8
00007DC0  1300              adc eax,[eax]
00007DC2  0000              add [eax],al
00007DC4  2200              and al,[eax]
00007DC6  0C00              or al,0x0
00007DC8  46                inc esi
00007DC9  0C00              or al,0x0
00007DCB  0000              add [eax],al
00007DCD  0000              add [eax],al
00007DCF  0000              add [eax],al
00007DD1  0000              add [eax],al
00007DD3  0012              add [edx],dl
00007DD5  0000              add [eax],al
00007DD7  005A0C            add [edx+0xc],bl
00007DDA  0000              add [eax],al
00007DDC  EC                in al,dx
00007DDD  9A040805000000    call 0x0:0x50804
00007DE4  2200              and al,[eax]
00007DE6  0C00              or al,0x0
00007DE8  7E0C              jng 0x7df6
00007DEA  0000              add [eax],al
00007DEC  C2AC04            ret 0x4ac
00007DEF  081500000022      or [0x22000000],dl
00007DF5  000C00            add [eax+eax],cl
00007DF8  B80C000050        mov eax,0x5000000c
00007DFD  BA04083700        mov edx,0x370804
00007E02  0000              add [eax],al
00007E04  2200              and al,[eax]
00007E06  0C00              or al,0x0
00007E08  F6                db 0xF6
00007E09  0C00              or al,0x0
00007E0B  008EA804081A      add [esi+0x1a0804a8],cl
00007E11  0000              add [eax],al
00007E13  0022              add [edx],ah
00007E15  000C00            add [eax+eax],cl
00007E18  06                push es
00007E19  0D0000B2BB        or eax,0xbbb20000
00007E1E  0408              add al,0x8
00007E20  0500000022        add eax,0x22000000
00007E25  000C00            add [eax+eax],cl
00007E28  380D000007B1      cmp [0xb1070000],cl
00007E2E  0408              add al,0x8
00007E30  690000002200      imul eax,[eax],dword 0x220000
00007E36  0C00              or al,0x0
00007E38  880D00006FA9      mov [0xa96f0000],cl
00007E3E  0408              add al,0x8
00007E40  2100              and [eax],eax
00007E42  0000              add [eax],al
00007E44  2200              and al,[eax]
00007E46  0C00              or al,0x0
00007E48  C6                db 0xC6
00007E49  0D00009A94        or eax,0x949a0000
00007E4E  0408              add al,0x8
00007E50  2200              and al,[eax]
00007E52  0000              add [eax],al
00007E54  2200              and al,[eax]
00007E56  0C00              or al,0x0
00007E58  E10D              loope 0x7e67
00007E5A  0000              add [eax],al
00007E5C  0BA304082100      or esp,[ebx+0x210804]
00007E62  0000              add [eax],al
00007E64  2200              and al,[eax]
00007E66  0C00              or al,0x0
00007E68  1A0E              sbb cl,[esi]
00007E6A  0000              add [eax],al
00007E6C  08BE04080000      or [esi+0x804],bh
00007E72  0000              add [eax],al
00007E74  1200              adc al,[eax]
00007E76  0D00200E00        or eax,0xe2000
00007E7B  005292            add [edx-0x6e],dl
00007E7E  0408              add al,0x8
00007E80  1300              adc eax,[eax]
00007E82  0000              add [eax],al
00007E84  2200              and al,[eax]
00007E86  0C00              or al,0x0
00007E88  2D0E000000        sub eax,0xe
00007E8D  0000              add [eax],al
00007E8F  0000              add [eax],al
00007E91  0000              add [eax],al
00007E93  0012              add [edx],dl
00007E95  0000              add [eax],al
00007E97  00470E            add [edi+0xe],al
00007E9A  0000              add [eax],al
00007E9C  B6AD              mov dh,0xad
00007E9E  0408              add al,0x8
00007EA0  0500000022        add eax,0x22000000
00007EA5  000C00            add [eax+eax],cl
00007EA8  750E              jnz 0x7eb8
00007EAA  0000              add [eax],al
00007EAC  B297              mov dl,0x97
00007EAE  0408              add al,0x8
00007EB0  3300              xor eax,[eax]
00007EB2  0000              add [eax],al
00007EB4  2200              and al,[eax]
00007EB6  0C00              or al,0x0
00007EB8  C00E00            ror byte [esi],0x0
00007EBB  0000              add [eax],al
00007EBD  0000              add [eax],al
00007EBF  0000              add [eax],al
00007EC1  0000              add [eax],al
00007EC3  0012              add [edx],dl
00007EC5  0000              add [eax],al
00007EC7  00E5              add ch,ah
00007EC9  0E                push cs
00007ECA  0000              add [eax],al
00007ECC  24A4              and al,0xa4
00007ECE  0408              add al,0x8
00007ED0  0800              or [eax],al
00007ED2  0000              add [eax],al
00007ED4  2200              and al,[eax]
00007ED6  0C00              or al,0x0
00007ED8  230F              and ecx,[edi]
00007EDA  0000              add [eax],al
00007EDC  5F                pop edi
00007EDD  A4                movsb
00007EDE  0408              add al,0x8
00007EE0  E300              jecxz 0x7ee2
00007EE2  0000              add [eax],al
00007EE4  2200              and al,[eax]
00007EE6  0C00              or al,0x0
00007EE8  830F00            or dword [edi],byte +0x0
00007EEB  0082A0040808      add [edx+0x80804a0],al
00007EF1  0000              add [eax],al
00007EF3  0022              add [edx],ah
00007EF5  000C00            add [eax+eax],cl
00007EF8  D00F              ror byte [edi],1
00007EFA  0000              add [eax],al
00007EFC  80A70408290000    and byte [edi+0x290804],0x0
00007F03  0022              add [edx],ah
00007F05  000C00            add [eax+eax],cl
00007F08  1B10              sbb edx,[eax]
00007F0A  0000              add [eax],al
00007F0C  02A704081A00      add ah,[edi+0x1a0804]
00007F12  0000              add [eax],al
00007F14  2200              and al,[eax]
00007F16  0C00              or al,0x0
00007F18  48                dec eax
00007F19  1000              adc [eax],al
00007F1B  00FA              add dl,bh
00007F1D  96                xchg eax,esi
00007F1E  0408              add al,0x8
00007F20  1A00              sbb al,[eax]
00007F22  0000              add [eax],al
00007F24  2200              and al,[eax]
00007F26  0C00              or al,0x0
00007F28  8710              xchg edx,[eax]
00007F2A  0000              add [eax],al
00007F2C  9AA004082E0000    call 0x0:0x2e0804a0
00007F33  0022              add [edx],ah
00007F35  000C00            add [eax+eax],cl
00007F38  C510              lds edx,[eax]
00007F3A  0000              add [eax],al
00007F3C  8AA004080F00      mov ah,[eax+0xf0804]
00007F42  0000              add [eax],al
00007F44  2200              and al,[eax]
00007F46  0C00              or al,0x0
00007F48  1111              adc [ecx],edx
00007F4A  0000              add [eax],al
00007F4C  FC                cld
00007F4D  9C                pushf
00007F4E  0408              add al,0x8
00007F50  3E0000            add [ds:eax],al
00007F53  0022              add [edx],ah
00007F55  000C00            add [eax+eax],cl
00007F58  4C                dec esp
00007F59  1100              adc [eax],eax
00007F5B  0036              add [esi],dh
00007F5D  A804              test al,0x4
00007F5F  0830              or [eax],dh
00007F61  0000              add [eax],al
00007F63  0022              add [edx],ah
00007F65  000C00            add [eax+eax],cl
00007F68  8411              test [ecx],dl
00007F6A  0000              add [eax],al
00007F6C  60                pusha
00007F6D  AF                scasd
00007F6E  0408              add al,0x8
00007F70  0500000022        add eax,0x22000000
00007F75  000C00            add [eax+eax],cl
00007F78  BC1100003C        mov esp,0x3c000011
00007F7D  97                xchg eax,edi
00007F7E  0408              add al,0x8
00007F80  27                daa
00007F81  0000              add [eax],al
00007F83  0022              add [edx],ah
00007F85  000C00            add [eax+eax],cl
00007F88  E611              out 0x11,al
00007F8A  0000              add [eax],al
00007F8C  0AA404081A0000    or ah,[esp+eax+0x1a08]
00007F93  0022              add [edx],ah
00007F95  000C00            add [eax+eax],cl
00007F98  0E                push cs
00007F99  1200              adc al,[eax]
00007F9B  00C5              add ch,al
00007F9D  BA04082100        mov edx,0x210804
00007FA2  0000              add [eax],al
00007FA4  2200              and al,[eax]
00007FA6  0C00              or al,0x0
00007FA8  7B12              jpo 0x7fbc
00007FAA  0000              add [eax],al
00007FAC  9C                pushf
00007FAD  B504              mov ch,0x4
00007FAF  082500000022      or [0x22000000],ah
00007FB5  000C00            add [eax+eax],cl
00007FB8  AF                scasd
00007FB9  1200              adc al,[eax]
00007FBB  001E              add [esi],bl
00007FBD  95                xchg eax,ebp
00007FBE  0408              add al,0x8
00007FC0  1300              adc eax,[eax]
00007FC2  0000              add [eax],al
00007FC4  2200              and al,[eax]
00007FC6  0C00              or al,0x0
00007FC8  E912000012        jmp 0x12007fdf
00007FCD  B004              mov al,0x4
00007FCF  0813              or [ebx],dl
00007FD1  0000              add [eax],al
00007FD3  0022              add [edx],ah
00007FD5  000C00            add [eax+eax],cl
00007FD8  0E                push cs
00007FD9  1300              adc eax,[eax]
00007FDB  0000              add [eax],al
00007FDD  A804              test al,0x4
00007FDF  081B              or [ebx],bl
00007FE1  0000              add [eax],al
00007FE3  0022              add [edx],ah
00007FE5  000C00            add [eax+eax],cl
00007FE8  3B13              cmp edx,[ebx]
00007FEA  0000              add [eax],al
00007FEC  EC                in al,dx
00007FED  9A040805000000    call 0x0:0x50804
00007FF4  2200              and al,[eax]
00007FF6  0C00              or al,0x0
00007FF8  5F                pop edi
00007FF9  1300              adc eax,[eax]
00007FFB  008AA004080F      add [edx+0xf0804a0],cl
00008001  0000              add [eax],al
00008003  0022              add [edx],ah
00008005  000C00            add [eax+eax],cl
00008008  AB                stosd
00008009  1300              adc eax,[eax]
0000800B  0000              add [eax],al
0000800D  0000              add [eax],al
0000800F  0000              add [eax],al
00008011  0000              add [eax],al
00008013  0012              add [edx],dl
00008015  0000              add [eax],al
00008017  00C8              add al,cl
00008019  1300              adc eax,[eax]
0000801B  00F6              add dh,dh
0000801D  9B                wait
0000801E  0408              add al,0x8
00008020  1A00              sbb al,[eax]
00008022  0000              add [eax],al
00008024  2200              and al,[eax]
00008026  0C00              or al,0x0
00008028  E91300006E        jmp 0x6e008040
0000802D  A204083700        mov [0x370804],al
00008032  0000              add [eax],al
00008034  2200              and al,[eax]
00008036  0C00              or al,0x0
00008038  1B1400            sbb edx,[eax+eax]
0000803B  00C2              add dl,al
0000803D  B504              mov ch,0x4
0000803F  08B700000022      or [edi+0x22000000],dh
00008045  000C00            add [eax+eax],cl
00008048  44                inc esp
00008049  1400              adc al,0x0
0000804B  00F2              add dl,dh
0000804D  B604              mov dh,0x4
0000804F  08B700000022      or [edi+0x22000000],dh
00008055  000C00            add [eax+eax],cl
00008058  61                popa
00008059  1400              adc al,0x0
0000805B  00E2              add dl,ah
0000805D  AB                stosd
0000805E  0408              add al,0x8
00008060  B300              mov bl,0x0
00008062  0000              add [eax],al
00008064  2200              and al,[eax]
00008066  0C00              or al,0x0
00008068  C1140000          rcl dword [eax+eax],0x0
0000806C  E3B8              jecxz 0x8026
0000806E  0408              add al,0x8
00008070  55                push ebp
00008071  0000              add [eax],al
00008073  0022              add [edx],ah
00008075  000C00            add [eax+eax],cl
00008078  26150000C895      es adc eax,0x95c80000
0000807E  0408              add al,0x8
00008080  0500000022        add eax,0x22000000
00008085  000C00            add [eax+eax],cl
00008088  66150000          adc ax,0x0
0000808C  25B00408B6        and eax,0xb60804b0
00008091  0000              add [eax],al
00008093  0022              add [edx],ah
00008095  000C00            add [eax+eax],cl
00008098  B115              mov cl,0x15
0000809A  0000              add [eax],al
0000809C  D29204085700      rcl byte [edx+0x570804],cl
000080A2  0000              add [eax],al
000080A4  2200              and al,[eax]
000080A6  0C00              or al,0x0
000080A8  CA1500            retf 0x15
000080AB  00B7BB04082C      add [edi+0x2c0804bb],dh
000080B1  0000              add [eax],al
000080B3  0022              add [edx],ah
000080B5  000C00            add [eax+eax],cl
000080B8  2316              and edx,[esi]
000080BA  0000              add [eax],al
000080BC  BCAD040805        mov esp,0x50804ad
000080C1  0000              add [eax],al
000080C3  0022              add [edx],ah
000080C5  000C00            add [eax+eax],cl
000080C8  6716              a16 push ss
000080CA  0000              add [eax],al
000080CC  D8A804081300      fsubr dword [eax+0x130804]
000080D2  0000              add [eax],al
000080D4  2200              and al,[eax]
000080D6  0C00              or al,0x0
000080D8  97                xchg eax,edi
000080D9  16                push ss
000080DA  0000              add [eax],al
000080DC  1497              adc al,0x97
000080DE  0408              add al,0x8
000080E0  2800              sub [eax],al
000080E2  0000              add [eax],al
000080E4  2200              and al,[eax]
000080E6  0C00              or al,0x0
000080E8  BF16000094        mov edi,0x94000016
000080ED  9F                lahf
000080EE  0408              add al,0x8
000080F0  37                aaa
000080F1  0000              add [eax],al
000080F3  0022              add [edx],ah
000080F5  000C00            add [eax+eax],cl
000080F8  0F1700            movhps [eax],xmm0
000080FB  005087            add [eax-0x79],dl
000080FE  0408              add al,0x8
00008100  0000              add [eax],al
00008102  0000              add [eax],al
00008104  1200              adc al,[eax]
00008106  0000              add [eax],al
00008108  3417              xor al,0x17
0000810A  0000              add [eax],al
0000810C  F29A040813000000  repne call 0x0:0x130804
00008114  2200              and al,[eax]
00008116  0C00              or al,0x0
00008118  6217              bound edx,[edi]
0000811A  0000              add [eax],al
0000811C  0000              add [eax],al
0000811E  0000              add [eax],al
00008120  0000              add [eax],al
00008122  0000              add [eax],al
00008124  2000              and [eax],al
00008126  0000              add [eax],al
00008128  7E17              jng 0x8141
0000812A  0000              add [eax],al
0000812C  BCA7040844        mov esp,0x440804a7
00008131  0000              add [eax],al
00008133  0022              add [edx],ah
00008135  000C00            add [eax+eax],cl
00008138  BD1700009F        mov ebp,0x9f000017
0000813D  B104              mov cl,0x4
0000813F  0822              or [edx],ah
00008141  0000              add [eax],al
00008143  0022              add [edx],ah
00008145  000C00            add [eax+eax],cl
00008148  2D18000002        sub eax,0x2000018
0000814D  A7                cmpsd
0000814E  0408              add al,0x8
00008150  1A00              sbb al,[eax]
00008152  0000              add [eax],al
00008154  2200              and al,[eax]
00008156  0C00              or al,0x0
00008158  5A                pop edx
00008159  1800              sbb [eax],al
0000815B  00F0              add al,dh
0000815D  97                xchg eax,edi
0000815E  0408              add al,0x8
00008160  1A00              sbb al,[eax]
00008162  0000              add [eax],al
00008164  2200              and al,[eax]
00008166  0C00              or al,0x0
00008168  7218              jc 0x8182
0000816A  0000              add [eax],al
0000816C  7A92              jpe 0x8100
0000816E  0408              add al,0x8
00008170  58                pop eax
00008171  0000              add [eax],al
00008173  0022              add [edx],ah
00008175  000C00            add [eax+eax],cl
00008178  93                xchg eax,ebx
00008179  1800              sbb [eax],al
0000817B  00529F            add [edx-0x61],dl
0000817E  0408              add al,0x8
00008180  27                daa
00008181  0000              add [eax],al
00008183  0022              add [edx],ah
00008185  000C00            add [eax+eax],cl
00008188  D018              rcr byte [eax],1
0000818A  0000              add [eax],al
0000818C  28BE04080400      sub [esi+0x40804],bh
00008192  0000              add [eax],al
00008194  1100              adc [eax],eax
00008196  0E                push cs
00008197  00DF              add bh,bl
00008199  1800              sbb [eax],al
0000819B  00EE              add dh,ch
0000819D  9B                wait
0000819E  0408              add al,0x8
000081A0  0800              or [eax],al
000081A2  0000              add [eax],al
000081A4  2200              and al,[eax]
000081A6  0C00              or al,0x0
000081A8  1219              adc bl,[ecx]
000081AA  0000              add [eax],al
000081AC  868F04080800      xchg cl,[edi+0x80804]
000081B2  0000              add [eax],al
000081B4  2200              and al,[eax]
000081B6  0C00              or al,0x0
000081B8  1A19              sbb bl,[ecx]
000081BA  0000              add [eax],al
000081BC  D495              aam 0x95
000081BE  0408              add al,0x8
000081C0  1300              adc eax,[eax]
000081C2  0000              add [eax],al
000081C4  2200              and al,[eax]
000081C6  0C00              or al,0x0
000081C8  661900            sbb [eax],ax
000081CB  00E6              add dh,ah
000081CD  BA04080F00        mov edx,0xf0804
000081D2  0000              add [eax],al
000081D4  2200              and al,[eax]
000081D6  0C00              or al,0x0
000081D8  A5                movsd
000081D9  1900              sbb [eax],eax
000081DB  00E9              add cl,ch
000081DD  A304082100        mov [0x210804],eax
000081E2  0000              add [eax],al
000081E4  2200              and al,[eax]
000081E6  0C00              or al,0x0
000081E8  F21900            repne sbb [eax],eax
000081EB  008090040857      add [eax+0x57080490],al
000081F1  0000              add [eax],al
000081F3  0022              add [edx],ah
000081F5  000C00            add [eax+eax],cl
000081F8  221A              and bl,[edx]
000081FA  0000              add [eax],al
000081FC  EBA8              jmp short 0x81a6
000081FE  0408              add al,0x8
00008200  2100              and [eax],eax
00008202  0000              add [eax],al
00008204  2200              and al,[eax]
00008206  0C00              or al,0x0
00008208  4E                dec esi
00008209  1A00              sbb al,[eax]
0000820B  00AA93040857      add [edx+0x57080493],ch
00008211  0000              add [eax],al
00008213  0022              add [edx],ah
00008215  000C00            add [eax+eax],cl
00008218  721A              jc 0x8234
0000821A  0000              add [eax],al
0000821C  0000              add [eax],al
0000821E  0000              add [eax],al
00008220  0000              add [eax],al
00008222  0000              add [eax],al
00008224  1200              adc al,[eax]
00008226  0000              add [eax],al
00008228  831A00            sbb dword [edx],byte +0x0
0000822B  00429D            add [edx-0x63],al
0000822E  0408              add al,0x8
00008230  1A00              sbb al,[eax]
00008232  0000              add [eax],al
00008234  2200              and al,[eax]
00008236  0C00              or al,0x0
00008238  B61A              mov dh,0x1a
0000823A  0000              add [eax],al
0000823C  7A9C              jpe 0x81da
0000823E  0408              add al,0x8
00008240  810000002200      add dword [eax],0x220000
00008246  0C00              or al,0x0
00008248  E81A000089        call 0x89008267
0000824D  A6                cmpsb
0000824E  0408              add al,0x8
00008250  46                inc esi
00008251  0000              add [eax],al
00008253  0022              add [edx],ah
00008255  000C00            add [eax+eax],cl
00008258  45                inc ebp
00008259  1B00              sbb eax,[eax]
0000825B  003E              add [esi],bh
0000825D  94                xchg eax,esp
0000825E  0408              add al,0x8
00008260  3B00              cmp eax,[eax]
00008262  0000              add [eax],al
00008264  2200              and al,[eax]
00008266  0C00              or al,0x0
00008268  6D                insd
00008269  1B00              sbb eax,[eax]
0000826B  0000              add [eax],al
0000826D  0000              add [eax],al
0000826F  0000              add [eax],al
00008271  0000              add [eax],al
00008273  0020              add [eax],ah
00008275  0000              add [eax],al
00008277  00871B00003C      add [edi+0x3c00001b],al
0000827D  F8                clc
0000827E  0408              add al,0x8
00008280  0000              add [eax],al
00008282  0000              add [eax],al
00008284  1000              adc [eax],al
00008286  1800              sbb [eax],al
00008288  94                xchg eax,esp
00008289  1B00              sbb eax,[eax]
0000828B  0030              add [eax],dh
0000828D  BB04086100        mov ebx,0x610804
00008292  0000              add [eax],al
00008294  2200              and al,[eax]
00008296  0C00              or al,0x0
00008298  1A1C00            sbb bl,[eax+eax]
0000829B  001490            add [eax+edx*4],dl
0000829E  0408              add al,0x8
000082A0  1300              adc eax,[eax]
000082A2  0000              add [eax],al
000082A4  2200              and al,[eax]
000082A6  0C00              or al,0x0
000082A8  43                inc ebx
000082A9  1C00              sbb al,0x0
000082AB  0081B604082E      add [ecx+0x2e0804b6],al
000082B1  0000              add [eax],al
000082B3  0022              add [edx],ah
000082B5  000C00            add [eax+eax],cl
000082B8  6D                insd
000082B9  1C00              sbb al,0x0
000082BB  0071BC            add [ecx-0x44],dh
000082BE  0408              add al,0x8
000082C0  44                inc esp
000082C1  0000              add [eax],al
000082C3  0022              add [edx],ah
000082C5  000C00            add [eax+eax],cl
000082C8  CB                retf
000082C9  1C00              sbb al,0x0
000082CB  005CA904          add [ecx+ebp*4+0x4],bl
000082CF  0813              or [ebx],dl
000082D1  0000              add [eax],al
000082D3  0022              add [edx],ah
000082D5  000C00            add [eax+eax],cl
000082D8  0D1D000000        or eax,0x1d
000082DD  90                nop
000082DE  0408              add al,0x8
000082E0  1300              adc eax,[eax]
000082E2  0000              add [eax],al
000082E4  2200              and al,[eax]
000082E6  0C00              or al,0x0
000082E8  361D000050BA      ss sbb eax,0xba500000
000082EE  0408              add al,0x8
000082F0  37                aaa
000082F1  0000              add [eax],al
000082F3  0022              add [edx],ah
000082F5  000C00            add [eax+eax],cl
000082F8  741D              jz 0x8317
000082FA  0000              add [eax],al
000082FC  E6AE              out 0xae,al
000082FE  0408              add al,0x8
00008300  2100              and [eax],eax
00008302  0000              add [eax],al
00008304  2200              and al,[eax]
00008306  0C00              or al,0x0
00008308  A91D00001C        test eax,0x1c00001d
0000830D  9C                pushf
0000830E  0408              add al,0x8
00008310  1300              adc eax,[eax]
00008312  0000              add [eax],al
00008314  2200              and al,[eax]
00008316  0C00              or al,0x0
00008318  E91D00000E        jmp 0xe00833a
0000831D  9F                lahf
0000831E  0408              add al,0x8
00008320  3000              xor [eax],al
00008322  0000              add [eax],al
00008324  2200              and al,[eax]
00008326  0C00              or al,0x0
00008328  231E              and ebx,[esi]
0000832A  0000              add [eax],al
0000832C  3E9F              ds lahf
0000832E  0408              add al,0x8
00008330  1300              adc eax,[eax]
00008332  0000              add [eax],al
00008334  2200              and al,[eax]
00008336  0C00              or al,0x0
00008338  3A1E              cmp bl,[esi]
0000833A  0000              add [eax],al
0000833C  A6                cmpsb
0000833D  A204083D00        mov [0x3d0804],al
00008342  0000              add [eax],al
00008344  2200              and al,[eax]
00008346  0C00              or al,0x0
00008348  6B1E00            imul ebx,[esi],byte +0x0
0000834B  002CA4            add [esp],ch
0000834E  0408              add al,0x8
00008350  3300              xor eax,[eax]
00008352  0000              add [eax],al
00008354  2200              and al,[eax]
00008356  0C00              or al,0x0
00008358  BD1E000006        mov ebp,0x600001e
0000835D  9B                wait
0000835E  0408              add al,0x8
00008360  4A                dec edx
00008361  0000              add [eax],al
00008363  0022              add [edx],ah
00008365  000C00            add [eax+eax],cl
00008368  E21E              loop 0x8388
0000836A  0000              add [eax],al
0000836C  A9A7040813        test eax,0x130804a7
00008371  0000              add [eax],al
00008373  0022              add [edx],ah
00008375  000C00            add [eax+eax],cl
00008378  2A1F              sub bl,[edi]
0000837A  0000              add [eax],al
0000837C  DB                db 0xDB
0000837D  B004              mov al,0x4
0000837F  082C00            or [eax+eax],ch
00008382  0000              add [eax],al
00008384  2200              and al,[eax]
00008386  0C00              or al,0x0
00008388  741F              jz 0x83a9
0000838A  0000              add [eax],al
0000838C  CE                into
0000838D  95                xchg eax,ebp
0000838E  0408              add al,0x8
00008390  0500000022        add eax,0x22000000
00008395  000C00            add [eax+eax],cl
00008398  B41F              mov ah,0x1f
0000839A  0000              add [eax],al
0000839C  0CA9              or al,0xa9
0000839E  0408              add al,0x8
000083A0  0500000022        add eax,0x22000000
000083A5  000C00            add [eax+eax],cl
000083A8  E31F              jecxz 0x83c9
000083AA  0000              add [eax],al
000083AC  6E                outsb
000083AD  A204083700        mov [0x370804],al
000083B2  0000              add [eax],al
000083B4  2200              and al,[eax]
000083B6  0C00              or al,0x0
000083B8  15200000FC        adc eax,0xfc000020
000083BD  A104082F00        mov eax,[0x2f0804]
000083C2  0000              add [eax],al
000083C4  2200              and al,[eax]
000083C6  0C00              or al,0x0
000083C8  4C                dec esp
000083C9  2000              and [eax],al
000083CB  002E              add [esi],ch
000083CD  BA04082100        mov edx,0x210804
000083D2  0000              add [eax],al
000083D4  2200              and al,[eax]
000083D6  0C00              or al,0x0
000083D8  B620              mov dh,0x20
000083DA  0000              add [eax],al
000083DC  50                push eax
000083DD  9B                wait
000083DE  0408              add al,0x8
000083E0  5F                pop edi
000083E1  0000              add [eax],al
000083E3  0022              add [edx],ah
000083E5  000C00            add [eax+eax],cl
000083E8  D6                salc
000083E9  2000              and [eax],al
000083EB  00E6              add dh,ah
000083ED  9A040805000000    call 0x0:0x50804
000083F4  2200              and al,[eax]
000083F6  0C00              or al,0x0
000083F8  FA                cli
000083F9  2000              and [eax],al
000083FB  0046A3            add [esi-0x5d],al
000083FE  0408              add al,0x8
00008400  37                aaa
00008401  0000              add [eax],al
00008403  0022              add [edx],ah
00008405  000C00            add [eax+eax],cl
00008408  3E2100            and [ds:eax],eax
0000840B  005293            add [edx-0x6d],dl
0000840E  0408              add al,0x8
00008410  58                pop eax
00008411  0000              add [eax],al
00008413  0022              add [edx],ah
00008415  000C00            add [eax+eax],cl
00008418  6C                insb
00008419  2100              and [eax],eax
0000841B  00F2              add dl,dh
0000841D  B604              mov dh,0x4
0000841F  08B700000022      or [edi+0x22000000],dh
00008425  000C00            add [eax+eax],cl
00008428  8921              mov [ecx],esp
0000842A  0000              add [eax],al
0000842C  329504081300      xor dl,[ebp+0x130804]
00008432  0000              add [eax],al
00008434  2200              and al,[eax]
00008436  0C00              or al,0x0
00008438  B521              mov ch,0x21
0000843A  0000              add [eax],al
0000843C  639704082C00      arpl [edi+0x2c0804],dx
00008442  0000              add [eax],al
00008444  2200              and al,[eax]
00008446  0C00              or al,0x0
00008448  0E                push cs
00008449  2200              and al,[eax]
0000844B  009CAF04086E00    add [edi+ebp*4+0x6e0804],bl
00008452  0000              add [eax],al
00008454  2200              and al,[eax]
00008456  0C00              or al,0x0
00008458  672200            and al,[bx+si]
0000845B  002C94            add [esp+edx*4],ch
0000845E  0408              add al,0x8
00008460  1200              adc al,[eax]
00008462  0000              add [eax],al
00008464  2200              and al,[eax]
00008466  0C00              or al,0x0
00008468  802200            and byte [edx],0x0
0000846B  00AA93040857      add [edx+0x57080493],ch
00008471  0000              add [eax],al
00008473  0022              add [edx],ah
00008475  000C00            add [eax+eax],cl
00008478  A4                movsb
00008479  2200              and al,[eax]
0000847B  00CE              add dh,cl
0000847D  B804081500        mov eax,0x150804
00008482  0000              add [eax],al
00008484  2200              and al,[eax]
00008486  0C00              or al,0x0
00008488  FC                cld
00008489  2200              and al,[eax]
0000848B  0072A0            add [edx-0x60],dh
0000848E  0408              add al,0x8
00008490  0F0000            sldt [eax]
00008493  0022              add [edx],ah
00008495  000C00            add [eax+eax],cl
00008498  49                dec ecx
00008499  2300              and eax,[eax]
0000849B  007EA3            add [esi-0x5d],bh
0000849E  0408              add al,0x8
000084A0  44                inc esp
000084A1  0000              add [eax],al
000084A3  0022              add [edx],ah
000084A5  000C00            add [eax+eax],cl
000084A8  8C23              mov [ebx],fs
000084AA  0000              add [eax],al
000084AC  44                inc esp
000084AD  F8                clc
000084AE  0408              add al,0x8
000084B0  0000              add [eax],al
000084B2  0000              add [eax],al
000084B4  1102              adc [edx],eax
000084B6  1800              sbb [eax],al
000084B8  98                cwde
000084B9  2300              and eax,[eax]
000084BB  002CA3            add [ebx],ch
000084BE  0408              add al,0x8
000084C0  1A00              sbb al,[eax]
000084C2  0000              add [eax],al
000084C4  2200              and al,[eax]
000084C6  0C00              or al,0x0
000084C8  B023              mov al,0x23
000084CA  0000              add [eax],al
000084CC  72A0              jc 0x846e
000084CE  0408              add al,0x8
000084D0  0F0000            sldt [eax]
000084D3  0022              add [edx],ah
000084D5  000C00            add [eax+eax],cl
000084D8  FD                std
000084D9  2300              and eax,[eax]
000084DB  00D7              add bh,dl
000084DD  AC                lodsb
000084DE  0408              add al,0x8
000084E0  5A                pop edx
000084E1  0000              add [eax],al
000084E3  0022              add [edx],ah
000084E5  000C00            add [eax+eax],cl
000084E8  55                push ebp
000084E9  2400              and al,0x0
000084EB  0066A8            add [esi-0x58],ah
000084EE  0408              add al,0x8
000084F0  2100              and [eax],eax
000084F2  0000              add [eax],al
000084F4  2200              and al,[eax]
000084F6  0C00              or al,0x0
000084F8  99                cdq
000084F9  2400              and al,0x0
000084FB  00BC9404086200    add [esp+edx*4+0x620804],bh
00008502  0000              add [eax],al
00008504  2200              and al,[eax]
00008506  0C00              or al,0x0
00008508  DF2400            fbld tword [eax+eax]
0000850B  00CD              add ch,cl
0000850D  B904080800        mov ecx,0x80804
00008512  0000              add [eax],al
00008514  2200              and al,[eax]
00008516  0C00              or al,0x0
00008518  1D25000091        sbb eax,0x91000025
0000851D  BB04082100        mov ebx,0x210804
00008522  0000              add [eax],al
00008524  2200              and al,[eax]
00008526  0C00              or al,0x0
00008528  93                xchg eax,ebx
00008529  2500000090        and eax,0x90000000
0000852E  0408              add al,0x8
00008530  1300              adc eax,[eax]
00008532  0000              add [eax],al
00008534  2200              and al,[eax]
00008536  0C00              or al,0x0
00008538  BC25000016        mov esp,0x16000025
0000853D  BB04081A00        mov ebx,0x1a0804
00008542  0000              add [eax],al
00008544  2200              and al,[eax]
00008546  0C00              or al,0x0
00008548  D7                xlatb
00008549  25000040F8        and eax,0xf8400000
0000854E  0408              add al,0x8
00008550  0000              add [eax],al
00008552  0000              add [eax],al
00008554  1102              adc [edx],eax
00008556  1800              sbb [eax],al
00008558  E425              in al,0x25
0000855A  0000              add [eax],al
0000855C  47                inc edi
0000855D  AA                stosb
0000855E  0408              add al,0x8
00008560  4A                dec edx
00008561  0000              add [eax],al
00008563  0022              add [edx],ah
00008565  000C00            add [eax+eax],cl
00008568  2F                das
00008569  260000            add [es:eax],al
0000856C  56                push esi
0000856D  9E                sahf
0000856E  0408              add al,0x8
00008570  B800000022        mov eax,0x22000000
00008575  000C00            add [eax+eax],cl
00008578  8826              mov [esi],ah
0000857A  0000              add [eax],al
0000857C  B2BB              mov dl,0xbb
0000857E  0408              add al,0x8
00008580  0500000022        add eax,0x22000000
00008585  000C00            add [eax+eax],cl
00008588  BA2600005C        mov edx,0x5c000026
0000858D  9D                popf
0000858E  0408              add al,0x8
00008590  0F0000            sldt [eax]
00008593  0022              add [edx],ah
00008595  000C00            add [eax+eax],cl
00008598  F8                clc
00008599  260000            add [es:eax],al
0000859C  C7                db 0xC7
0000859D  BC04081300        mov esp,0x130804
000085A2  0000              add [eax],al
000085A4  2200              and al,[eax]
000085A6  0C00              or al,0x0
000085A8  69270000FCF6      imul esp,[edi],dword 0xf6fc0000
000085AE  0408              add al,0x8
000085B0  0000              add [eax],al
000085B2  0000              add [eax],al
000085B4  1102              adc [edx],eax
000085B6  1300              adc eax,[eax]
000085B8  7627              jna 0x85e1
000085BA  0000              add [eax],al
000085BC  7A94              jpe 0x8552
000085BE  0408              add al,0x8
000085C0  1F                pop ds
000085C1  0000              add [eax],al
000085C3  0022              add [edx],ah
000085C5  000C00            add [eax+eax],cl
000085C8  93                xchg eax,ebx
000085C9  27                daa
000085CA  0000              add [eax],al
000085CC  AB                stosd
000085CD  B904080800        mov ecx,0x80804
000085D2  0000              add [eax],al
000085D4  2200              and al,[eax]
000085D6  0C00              or al,0x0
000085D8  B927000008        mov ecx,0x8000027
000085DD  AF                scasd
000085DE  0408              add al,0x8
000085E0  0500000022        add eax,0x22000000
000085E5  000C00            add [eax+eax],cl
000085E8  E127              loope 0x8611
000085EA  0000              add [eax],al
000085EC  0A9804082100      or bl,[eax+0x210804]
000085F2  0000              add [eax],al
000085F4  2200              and al,[eax]
000085F6  0C00              or al,0x0
000085F8  2D28000080        sub eax,0x80000028
000085FD  BD04085A00        mov ebp,0x5a0804
00008602  0000              add [eax],al
00008604  1200              adc al,[eax]
00008606  0C00              or al,0x0
00008608  3D28000010        cmp eax,0x10000028
0000860D  9C                pushf
0000860E  0408              add al,0x8
00008610  0500000022        add eax,0x22000000
00008615  000C00            add [eax+eax],cl
00008618  7128              jno 0x8642
0000861A  0000              add [eax],al
0000861C  0000              add [eax],al
0000861E  0000              add [eax],al
00008620  0000              add [eax],al
00008622  0000              add [eax],al
00008624  1200              adc al,[eax]
00008626  0000              add [eax],al
00008628  832800            sub dword [eax],byte +0x0
0000862B  0030              add [eax],dh
0000862D  9C                pushf
0000862E  0408              add al,0x8
00008630  4A                dec edx
00008631  0000              add [eax],al
00008633  0022              add [edx],ah
00008635  000C00            add [eax+eax],cl
00008638  BA28000020        mov edx,0x20000028
0000863D  B204              mov dl,0x4
0000863F  080A              or [edx],cl
00008641  0000              add [eax],al
00008643  0022              add [edx],ah
00008645  000C00            add [eax+eax],cl
00008648  0229              add ch,[ecx]
0000864A  0000              add [eax],al
0000864C  6692              xchg ax,dx
0000864E  0408              add al,0x8
00008650  1300              adc eax,[eax]
00008652  0000              add [eax],al
00008654  2200              and al,[eax]
00008656  0C00              or al,0x0
00008658  0F2900            movaps [eax],xmm0
0000865B  00E6              add dh,ah
0000865D  BA04080F00        mov edx,0xf0804
00008662  0000              add [eax],al
00008664  2200              and al,[eax]
00008666  0C00              or al,0x0
00008668  4E                dec esi
00008669  2900              sub [eax],eax
0000866B  005292            add [edx-0x6e],dl
0000866E  0408              add al,0x8
00008670  1300              adc eax,[eax]
00008672  0000              add [eax],al
00008674  2200              and al,[eax]
00008676  0C00              or al,0x0
00008678  5B                pop ebx
00008679  2900              sub [eax],eax
0000867B  0010              add [eax],dl
0000867D  A004082700        mov al,[0x270804]
00008682  0000              add [eax],al
00008684  2200              and al,[eax]
00008686  0C00              or al,0x0
00008688  AA                stosb
00008689  2900              sub [eax],eax
0000868B  00A695040808      add [esi+0x8080495],ah
00008691  0000              add [eax],al
00008693  0022              add [edx],ah
00008695  000C00            add [eax+eax],cl
00008698  E92900005C        jmp 0x5c0086c6
0000869D  9D                popf
0000869E  0408              add al,0x8
000086A0  0F0000            sldt [eax]
000086A3  0022              add [edx],ah
000086A5  000C00            add [eax+eax],cl
000086A8  27                daa
000086A9  2A00              sub al,[eax]
000086AB  0028              add [eax],ch
000086AD  90                nop
000086AE  0408              add al,0x8
000086B0  58                pop eax
000086B1  0000              add [eax],al
000086B3  0022              add [edx],ah
000086B5  000C00            add [eax+eax],cl
000086B8  61                popa
000086B9  2A00              sub al,[eax]
000086BB  0006              add [esi],al
000086BD  BA04082800        mov edx,0x280804
000086C2  0000              add [eax],al
000086C4  2200              and al,[eax]
000086C6  0C00              or al,0x0
000086C8  7D2A              jnl 0x86f4
000086CA  0000              add [eax],al
000086CC  A9B7040803        test eax,0x30804b7
000086D1  0100              add [eax],eax
000086D3  0022              add [edx],ah
000086D5  000C00            add [eax+eax],cl
000086D8  D32A              shr dword [edx],cl
000086DA  0000              add [eax],al
000086DC  94                xchg eax,esp
000086DD  8F0408            pop dword [eax+ecx]
000086E0  1300              adc eax,[eax]
000086E2  0000              add [eax],al
000086E4  2200              and al,[eax]
000086E6  0C00              or al,0x0
000086E8  F8                clc
000086E9  2A00              sub al,[eax]
000086EB  0090A9040829      add [eax+0x290804a9],dl
000086F1  0000              add [eax],al
000086F3  0022              add [edx],ah
000086F5  000C00            add [eax+eax],cl
000086F8  37                aaa
000086F9  2B00              sub eax,[eax]
000086FB  003E              add [esi],bh
000086FD  9F                lahf
000086FE  0408              add al,0x8
00008700  1300              adc eax,[eax]
00008702  0000              add [eax],al
00008704  2200              and al,[eax]
00008706  0C00              or al,0x0
00008708  4E                dec esi
00008709  2B00              sub eax,[eax]
0000870B  00C2              add dl,al
0000870D  B604              mov dh,0x4
0000870F  0830              or [eax],dh
00008711  0000              add [eax],al
00008713  0022              add [edx],ah
00008715  000C00            add [eax+eax],cl
00008718  B42B              mov ah,0x2b
0000871A  0000              add [eax],al
0000871C  0000              add [eax],al
0000871E  0000              add [eax],al
00008720  0000              add [eax],al
00008722  0000              add [eax],al
00008724  1200              adc al,[eax]
00008726  0000              add [eax],al
00008728  C7                db 0xC7
00008729  2B00              sub eax,[eax]
0000872B  004CA704          add [edi+0x4],cl
0000872F  0813              or [ebx],dl
00008731  0000              add [eax],al
00008733  0022              add [edx],ah
00008735  000C00            add [eax+eax],cl
00008738  152C0000BC        adc eax,0xbc00002c
0000873D  AD                lodsd
0000873E  0408              add al,0x8
00008740  0500000022        add eax,0x22000000
00008745  000C00            add [eax+eax],cl
00008748  59                pop ecx
00008749  2C00              sub al,0x0
0000874B  0089AE040813      add [ecx+0x130804ae],cl
00008751  0000              add [eax],al
00008753  0022              add [edx],ah
00008755  000C00            add [eax+eax],cl
00008758  A12C000014        mov eax,[0x1400002c]
0000875D  90                nop
0000875E  0408              add al,0x8
00008760  1300              adc eax,[eax]
00008762  0000              add [eax],al
00008764  2200              and al,[eax]
00008766  0C00              or al,0x0
00008768  CA2C00            retf 0x2c
0000876B  00799F            add [ecx-0x61],bh
0000876E  0408              add al,0x8
00008770  1A00              sbb al,[eax]
00008772  0000              add [eax],al
00008774  2200              and al,[eax]
00008776  0C00              or al,0x0
00008778  EC                in al,dx
00008779  2C00              sub al,0x0
0000877B  00B6AD040805      add [esi+0x50804ad],dh
00008781  0000              add [eax],al
00008783  0022              add [edx],ah
00008785  000C00            add [eax+eax],cl
00008788  1A2D00000E9F      sbb ch,[0x9f0e0000]
0000878E  0408              add al,0x8
00008790  3000              xor [eax],al
00008792  0000              add [eax],al
00008794  2200              and al,[eax]
00008796  0C00              or al,0x0
00008798  54                push esp
00008799  2D0000DABC        sub eax,0xbcda0000
0000879E  0408              add al,0x8
000087A0  2500000022        and eax,0x22000000
000087A5  000C00            add [eax+eax],cl
000087A8  7F2D              jg 0x87d7
000087AA  0000              add [eax],al
000087AC  92                xchg eax,edx
000087AD  AA                stosb
000087AE  0408              add al,0x8
000087B0  3300              xor eax,[eax]
000087B2  0000              add [eax],al
000087B4  2200              and al,[eax]
000087B6  0C00              or al,0x0
000087B8  BC2D0000D2        mov esp,0xd200002d
000087BD  92                xchg eax,edx
000087BE  0408              add al,0x8
000087C0  57                push edi
000087C1  0000              add [eax],al
000087C3  0022              add [edx],ah
000087C5  000C00            add [eax+eax],cl
000087C8  D52D              aad 0x2d
000087CA  0000              add [eax],al
000087CC  E4A6              in al,0xa6
000087CE  0408              add al,0x8
000087D0  0500000022        add eax,0x22000000
000087D5  000C00            add [eax+eax],cl
000087D8  032E              add ebp,[esi]
000087DA  0000              add [eax],al
000087DC  1E                push ds
000087DD  95                xchg eax,ebp
000087DE  0408              add al,0x8
000087E0  1300              adc eax,[eax]
000087E2  0000              add [eax],al
000087E4  2200              and al,[eax]
000087E6  0C00              or al,0x0
000087E8  3D2E00009C        cmp eax,0x9c00002e
000087ED  AE                scasb
000087EE  0408              add al,0x8
000087F0  2500000022        and eax,0x22000000
000087F5  000C00            add [eax+eax],cl
000087F8  7B2E              jpo 0x8828
000087FA  0000              add [eax],al
000087FC  389204081900      cmp [edx+0x190804],dl
00008802  0000              add [eax],al
00008804  2200              and al,[eax]
00008806  0C00              or al,0x0
00008808  A4                movsb
00008809  2E0000            add [cs:eax],al
0000880C  5E                pop esi
0000880D  BD04080800        mov ebp,0x80804
00008812  0000              add [eax],al
00008814  2200              and al,[eax]
00008816  0C00              or al,0x0
00008818  E32E              jecxz 0x8848
0000881A  0000              add [eax],al
0000881C  E697              out 0x97,al
0000881E  0408              add al,0x8
00008820  0A00              or al,[eax]
00008822  0000              add [eax],al
00008824  2200              and al,[eax]
00008826  0C00              or al,0x0
00008828  2C2F              sub al,0x2f
0000882A  0000              add [eax],al
0000882C  89B504081300      mov [ebp+0x130804],esi
00008832  0000              add [eax],al
00008834  2200              and al,[eax]
00008836  0C00              or al,0x0
00008838  9C                pushf
00008839  2F                das
0000883A  0000              add [eax],al
0000883C  44                inc esp
0000883D  F8                clc
0000883E  0408              add al,0x8
00008840  0000              add [eax],al
00008842  0000              add [eax],al
00008844  1000              adc [eax],al
00008846  1900              sbb [eax],eax
00008848  A82F              test al,0x2f
0000884A  0000              add [eax],al
0000884C  AC                lodsb
0000884D  A104081F00        mov eax,[0x1f0804]
00008852  0000              add [eax],al
00008854  2200              and al,[eax]
00008856  0C00              or al,0x0
00008858  D12F              shr dword [edi],1
0000885A  0000              add [eax],al
0000885C  F097              lock xchg eax,edi
0000885E  0408              add al,0x8
00008860  1A00              sbb al,[eax]
00008862  0000              add [eax],al
00008864  2200              and al,[eax]
00008866  0C00              or al,0x0
00008868  E92F00001B        jmp 0x1b00889c
0000886D  A804              test al,0x4
0000886F  081B              or [ebx],bl
00008871  0000              add [eax],al
00008873  0022              add [edx],ah
00008875  000C00            add [eax+eax],cl
00008878  FF2F              jmp far [edi]
0000887A  0000              add [eax],al
0000887C  1494              adc al,0x94
0000887E  0408              add al,0x8
00008880  1800              sbb [eax],al
00008882  0000              add [eax],al
00008884  2200              and al,[eax]
00008886  0C00              or al,0x0
00008888  2330              and esi,[eax]
0000888A  0000              add [eax],al
0000888C  8EA804081A00      mov gs,[eax+0x1a0804]
00008892  0000              add [eax],al
00008894  2200              and al,[eax]
00008896  0C00              or al,0x0
00008898  3330              xor esi,[eax]
0000889A  0000              add [eax],al
0000889C  12A904081A00      adc ch,[ecx+0x1a0804]
000088A2  0000              add [eax],al
000088A4  2200              and al,[eax]
000088A6  0C00              or al,0x0
000088A8  54                push esp
000088A9  3000              xor [eax],al
000088AB  0031              add [ecx],dh
000088AD  AD                lodsd
000088AE  0408              add al,0x8
000088B0  8400              test [eax],al
000088B2  0000              add [eax],al
000088B4  2200              and al,[eax]
000088B6  0C00              or al,0x0
000088B8  AD                lodsd
000088B9  3000              xor [eax],al
000088BB  0008              add [eax],cl
000088BD  A10408A400        mov eax,[0xa40804]
000088C2  0000              add [eax],al
000088C4  2200              and al,[eax]
000088C6  0C00              or al,0x0
000088C8  E230              loop 0x88fa
000088CA  0000              add [eax],al
000088CC  38B904080800      cmp [ecx+0x80804],bh
000088D2  0000              add [eax],al
000088D4  2200              and al,[eax]
000088D6  0C00              or al,0x0
000088D8  2A31              sub dh,[ecx]
000088DA  0000              add [eax],al
000088DC  C8950408          enter 0x495,0x8
000088E0  0500000022        add eax,0x22000000
000088E5  000C00            add [eax+eax],cl
000088E8  6A31              push byte +0x31
000088EA  0000              add [eax],al
000088EC  70B1              jo 0x889f
000088EE  0408              add al,0x8
000088F0  1500000022        adc eax,0x22000000
000088F5  000C00            add [eax+eax],cl
000088F8  A4                movsb
000088F9  3100              xor [eax],eax
000088FB  0046B5            add [esi-0x4b],al
000088FE  0408              add al,0x8
00008900  3100              xor [eax],eax
00008902  0000              add [eax],al
00008904  2200              and al,[eax]
00008906  0C00              or al,0x0
00008908  07                pop es
00008909  3200              xor al,[eax]
0000890B  00D0              add al,dl
0000890D  A6                cmpsb
0000890E  0408              add al,0x8
00008910  1300              adc eax,[eax]
00008912  0000              add [eax],al
00008914  2200              and al,[eax]
00008916  0C00              or al,0x0
00008918  1E                push ds
00008919  3200              xor al,[eax]
0000891B  0030              add [eax],dh
0000891D  9C                pushf
0000891E  0408              add al,0x8
00008920  4A                dec edx
00008921  0000              add [eax],al
00008923  0022              add [edx],ah
00008925  000C00            add [eax+eax],cl
00008928  55                push ebp
00008929  3200              xor al,[eax]
0000892B  005293            add [edx-0x6d],dl
0000892E  0408              add al,0x8
00008930  58                pop eax
00008931  0000              add [eax],al
00008933  0022              add [edx],ah
00008935  000C00            add [eax+eax],cl
00008938  833200            xor dword [edx],byte +0x0
0000893B  00C1              add cl,al
0000893D  AE                scasb
0000893E  0408              add al,0x8
00008940  1300              adc eax,[eax]
00008942  0000              add [eax],al
00008944  2200              and al,[eax]
00008946  0C00              or al,0x0
00008948  C1                db 0xC1
00008949  3200              xor al,[eax]
0000894B  00D4              add ah,dl
0000894D  95                xchg eax,ebp
0000894E  0408              add al,0x8
00008950  1300              adc eax,[eax]
00008952  0000              add [eax],al
00008954  2200              and al,[eax]
00008956  0C00              or al,0x0
00008958  0D330000C2        or eax,0xc2000033
0000895D  B504              mov ch,0x4
0000895F  08B700000022      or [edi+0x22000000],dh
00008965  000C00            add [eax+eax],cl
00008968  363300            xor eax,[ss:eax]
0000896B  00AE9504081A      add [esi+0x1a080495],ch
00008971  0000              add [eax],al
00008973  0022              add [edx],ah
00008975  000C00            add [eax+eax],cl
00008978  6333              arpl [ebx],si
0000897A  0000              add [eax],al
0000897C  F090              lock nop
0000897E  0408              add al,0x8
00008980  50                push eax
00008981  0000              add [eax],al
00008983  0022              add [edx],ah
00008985  000C00            add [eax+eax],cl
00008988  8D33              lea esi,[ebx]
0000898A  0000              add [eax],al
0000898C  329604088100      xor dl,[esi+0x810804]
00008992  0000              add [eax],al
00008994  2200              and al,[eax]
00008996  0C00              or al,0x0
00008998  CB                retf
00008999  3300              xor eax,[eax]
0000899B  0012              add [edx],dl
0000899D  A904081A00        test eax,0x1a0804
000089A2  0000              add [eax],al
000089A4  2200              and al,[eax]
000089A6  0C00              or al,0x0
000089A8  EC                in al,dx
000089A9  3300              xor eax,[eax]
000089AB  00CE              add dh,cl
000089AD  95                xchg eax,ebp
000089AE  0408              add al,0x8
000089B0  0500000022        add eax,0x22000000
000089B5  000C00            add [eax+eax],cl
000089B8  2C34              sub al,0x34
000089BA  0000              add [eax],al
000089BC  2CA9              sub al,0xa9
000089BE  0408              add al,0x8
000089C0  2F                das
000089C1  0000              add [eax],al
000089C3  0022              add [edx],ah
000089C5  000C00            add [eax+eax],cl
000089C8  6934000079B604    imul esi,[eax+eax],dword 0x4b67900
000089CF  0808              or [eax],cl
000089D1  0000              add [eax],al
000089D3  0022              add [edx],ah
000089D5  000C00            add [eax+eax],cl
000089D8  8F                db 0x8F
000089D9  3400              xor al,0x0
000089DB  00FF              add bh,bh
000089DD  BC04081500        mov esp,0x150804
000089E2  0000              add [eax],al
000089E4  2200              and al,[eax]
000089E6  0C00              or al,0x0
000089E8  E834000000        call 0x8a21
000089ED  0000              add [eax],al
000089EF  0000              add [eax],al
000089F1  0000              add [eax],al
000089F3  0012              add [edx],dl
000089F5  0000              add [eax],al
000089F7  00FB              add bl,bh
000089F9  3400              xor al,0x0
000089FB  000E              add [esi],cl
000089FD  AF                scasd
000089FE  0408              add al,0x8
00008A00  3000              xor [eax],al
00008A02  0000              add [eax],al
00008A04  2200              and al,[eax]
00008A06  0C00              or al,0x0
00008A08  293500005FA7      sub [0xa75f0000],esi
00008A0E  0408              add al,0x8
00008A10  2100              and [eax],eax
00008A12  0000              add [eax],al
00008A14  2200              and al,[eax]
00008A16  0C00              or al,0x0
00008A18  7335              jnc 0x8a4f
00008A1A  0000              add [eax],al
00008A1C  40                inc eax
00008A1D  B904084A00        mov ecx,0x4a0804
00008A22  0000              add [eax],al
00008A24  2200              and al,[eax]
00008A26  0C00              or al,0x0
00008A28  A4                movsb
00008A29  350000F296        xor eax,0x96f20000
00008A2E  0408              add al,0x8
00008A30  0800              or [eax],al
00008A32  0000              add [eax],al
00008A34  2200              and al,[eax]
00008A36  0C00              or al,0x0
00008A38  F5                cmc
00008A39  35000060AF        xor eax,0xaf600000
00008A3E  0408              add al,0x8
00008A40  0500000022        add eax,0x22000000
00008A45  000C00            add [eax+eax],cl
00008A48  2D360000D8        sub eax,0xd8000036
00008A4D  AB                stosd
00008A4E  0408              add al,0x8
00008A50  0A00              or al,[eax]
00008A52  0000              add [eax],al
00008A54  2200              and al,[eax]
00008A56  0C00              or al,0x0
00008A58  6836000085        push dword 0x85000036
00008A5D  B104              mov cl,0x4
00008A5F  081A              or [edx],bl
00008A61  0000              add [eax],al
00008A63  0022              add [edx],ah
00008A65  000C00            add [eax+eax],cl
00008A68  B636              mov dh,0x36
00008A6A  0000              add [eax],al
00008A6C  38B304085500      cmp [ebx+0x550804],dh
00008A72  0000              add [eax],al
00008A74  2200              and al,[eax]
00008A76  0C00              or al,0x0
00008A78  E636              out 0x36,al
00008A7A  0000              add [eax],al
00008A7C  50                push eax
00008A7D  F8                clc
00008A7E  0408              add al,0x8
00008A80  0000              add [eax],al
00008A82  0000              add [eax],al
00008A84  1000              adc [eax],al
00008A86  1900              sbb [eax],eax
00008A88  EB36              jmp short 0x8ac0
00008A8A  0000              add [eax],al
00008A8C  0000              add [eax],al
00008A8E  0000              add [eax],al
00008A90  0000              add [eax],al
00008A92  0000              add [eax],al
00008A94  1200              adc al,[eax]
00008A96  0000              add [eax],al
00008A98  FB                sti
00008A99  360000            add [ss:eax],al
00008A9C  42                inc edx
00008A9D  A5                movsd
00008A9E  0408              add al,0x8
00008AA0  3100              xor [eax],eax
00008AA2  0000              add [eax],al
00008AA4  2200              and al,[eax]
00008AA6  0C00              or al,0x0
00008AA8  3837              cmp [edi],dh
00008AAA  0000              add [eax],al
00008AAC  73A5              jnc 0x8a53
00008AAE  0408              add al,0x8
00008AB0  16                push ss
00008AB1  0100              add [eax],eax
00008AB3  0022              add [edx],ah
00008AB5  000C00            add [eax+eax],cl
00008AB8  8B37              mov esi,[edi]
00008ABA  0000              add [eax],al
00008ABC  94                xchg eax,esp
00008ABD  9F                lahf
00008ABE  0408              add al,0x8
00008AC0  37                aaa
00008AC1  0000              add [eax],al
00008AC3  0022              add [edx],ah
00008AC5  000C00            add [eax+eax],cl
00008AC8  DB                db 0xDB
00008AC9  37                aaa
00008ACA  0000              add [eax],al
00008ACC  E89504084A        call 0x4a088f66
00008AD1  0000              add [eax],al
00008AD3  0022              add [edx],ah
00008AD5  000C00            add [eax+eax],cl
00008AD8  1E                push ds
00008AD9  3800              cmp [eax],al
00008ADB  003E              add [esi],bh
00008ADD  AF                scasd
00008ADE  0408              add al,0x8
00008AE0  2100              and [eax],eax
00008AE2  0000              add [eax],al
00008AE4  2200              and al,[eax]
00008AE6  0C00              or al,0x0
00008AE8  653800            cmp [gs:eax],al
00008AEB  00CB              add bl,cl
00008AED  A104083000        mov eax,[0x300804]
00008AF2  0000              add [eax],al
00008AF4  2200              and al,[eax]
00008AF6  0C00              or al,0x0
00008AF8  D038              sar byte [eax],1
00008AFA  0000              add [eax],al
00008AFC  6E                outsb
00008AFD  AE                scasb
00008AFE  0408              add al,0x8
00008B00  1300              adc eax,[eax]
00008B02  0000              add [eax],al
00008B04  2200              and al,[eax]
00008B06  0C00              or al,0x0
00008B08  0139              add [ecx],edi
00008B0A  0000              add [eax],al
00008B0C  0000              add [eax],al
00008B0E  0000              add [eax],al
00008B10  0000              add [eax],al
00008B12  0000              add [eax],al
00008B14  1200              adc al,[eax]
00008B16  0000              add [eax],al
00008B18  1D39000000        sbb eax,0x39
00008B1D  0000              add [eax],al
00008B1F  0000              add [eax],al
00008B21  0000              add [eax],al
00008B23  0012              add [edx],dl
00008B25  0000              add [eax],al
00008B27  004339            add [ebx+0x39],al
00008B2A  0000              add [eax],al
00008B2C  D4AE              aam 0xae
00008B2E  0408              add al,0x8
00008B30  0800              or [eax],al
00008B32  0000              add [eax],al
00008B34  2200              and al,[eax]
00008B36  0C00              or al,0x0
00008B38  833900            cmp dword [ecx],byte +0x0
00008B3B  002A              add [edx],ch
00008B3D  B204              mov dl,0x4
00008B3F  085500            or [ebp+0x0],dl
00008B42  0000              add [eax],al
00008B44  2200              and al,[eax]
00008B46  0C00              or al,0x0
00008B48  BF3900004F        mov edi,0x4f000039
00008B4D  BC04082200        mov esp,0x220804
00008B52  0000              add [eax],al
00008B54  2200              and al,[eax]
00008B56  0C00              or al,0x0
00008B58  303A              xor [edx],bh
00008B5A  0000              add [eax],al
00008B5C  FA                cli
00008B5D  BB04080A00        mov ebx,0xa0804
00008B62  0000              add [eax],al
00008B64  2200              and al,[eax]
00008B66  0C00              or al,0x0
00008B68  7A3A              jpe 0x8ba4
00008B6A  0000              add [eax],al
00008B6C  FD                std
00008B6D  A6                cmpsb
00008B6E  0408              add al,0x8
00008B70  0500000022        add eax,0x22000000
00008B75  000C00            add [eax+eax],cl
00008B78  B33A              mov bl,0x3a
00008B7A  0000              add [eax],al
00008B7C  289004085800      sub [eax+0x580804],dl
00008B82  0000              add [eax],al
00008B84  2200              and al,[eax]
00008B86  0C00              or al,0x0
00008B88  ED                in eax,dx
00008B89  3A00              cmp al,[eax]
00008B8B  0040B9            add [eax-0x47],al
00008B8E  0408              add al,0x8
00008B90  4A                dec edx
00008B91  0000              add [eax],al
00008B93  0022              add [edx],ah
00008B95  000C00            add [eax+eax],cl
00008B98  1E                push ds
00008B99  3B00              cmp eax,[eax]
00008B9B  007A92            add [edx-0x6e],bh
00008B9E  0408              add al,0x8
00008BA0  58                pop eax
00008BA1  0000              add [eax],al
00008BA3  0022              add [edx],ah
00008BA5  000C00            add [eax+eax],cl
00008BA8  3F                aas
00008BA9  3B00              cmp eax,[eax]
00008BAB  00B9A904088E      add [ecx+0x8e0804a9],bh
00008BB1  0000              add [eax],al
00008BB3  0022              add [edx],ah
00008BB5  000C00            add [eax+eax],cl
00008BB8  92                xchg eax,edx
00008BB9  3B00              cmp eax,[eax]
00008BBB  0077B5            add [edi-0x4b],dh
00008BBE  0408              add al,0x8
00008BC0  1200              adc al,[eax]
00008BC2  0000              add [eax],al
00008BC4  2200              and al,[eax]
00008BC6  0C00              or al,0x0
00008BC8  EA3B00002C9804    jmp 0x498:0x2c00003b
00008BCF  08BA02000022      or [edx+0x22000002],bh
00008BD5  000C00            add [eax+eax],cl
00008BD8  48                dec eax
00008BD9  3C00              cmp al,0x0
00008BDB  002B              add [ebx],ch
00008BDD  A204082800        mov [0x280804],al
00008BE2  0000              add [eax],al
00008BE4  2200              and al,[eax]
00008BE6  0C00              or al,0x0
00008BE8  98                cwde
00008BE9  3C00              cmp al,0x0
00008BEB  0000              add [eax],al
00008BED  0000              add [eax],al
00008BEF  0000              add [eax],al
00008BF1  0000              add [eax],al
00008BF3  0012              add [edx],dl
00008BF5  0000              add [eax],al
00008BF7  00B63C0000C4      add [esi+0xc400003c],dh
00008BFD  91                xchg eax,ecx
00008BFE  0408              add al,0x8
00008C00  7300              jnc 0x8c02
00008C02  0000              add [eax],al
00008C04  2200              and al,[eax]
00008C06  0C00              or al,0x0
00008C08  E73C              out 0x3c,eax
00008C0A  0000              add [eax],al
00008C0C  D6                salc
00008C0D  B904080800        mov ecx,0x80804
00008C12  0000              add [eax],al
00008C14  2200              and al,[eax]
00008C16  0C00              or al,0x0
00008C18  1B3D0000169C      sbb edi,[0x9c160000]
00008C1E  0408              add al,0x8
00008C20  0500000022        add eax,0x22000000
00008C25  000C00            add [eax+eax],cl
00008C28  4F                dec edi
00008C29  3D00004091        cmp eax,0x91400000
00008C2E  0408              add al,0x8
00008C30  57                push edi
00008C31  0000              add [eax],al
00008C33  0022              add [edx],ah
00008C35  000C00            add [eax+eax],cl
00008C38  773D              ja 0x8c77
00008C3A  0000              add [eax],al
00008C3C  F29A040813000000  repne call 0x0:0x130804
00008C44  2200              and al,[eax]
00008C46  0C00              or al,0x0
00008C48  A5                movsd
00008C49  3D00003E93        cmp eax,0x933e0000
00008C4E  0408              add al,0x8
00008C50  1300              adc eax,[eax]
00008C52  0000              add [eax],al
00008C54  2200              and al,[eax]
00008C56  0C00              or al,0x0
00008C58  C23D00            ret 0x3d
00008C5B  00D8              add al,bl
00008C5D  90                nop
00008C5E  0408              add al,0x8
00008C60  1800              sbb [eax],al
00008C62  0000              add [eax],al
00008C64  2200              and al,[eax]
00008C66  0C00              or al,0x0
00008C68  F23D0000B496      repne cmp eax,0x96b40000
00008C6E  0408              add al,0x8
00008C70  3E0000            add [ds:eax],al
00008C73  0022              add [edx],ah
00008C75  000C00            add [eax+eax],cl
00008C78  393E              cmp [esi],edi
00008C7A  0000              add [eax],al
00008C7C  2A9304081300      sub dl,[ebx+0x130804]
00008C82  0000              add [eax],al
00008C84  2200              and al,[eax]
00008C86  0C00              or al,0x0
00008C88  56                push esi
00008C89  3E0000            add [ds:eax],al
00008C8C  44                inc esp
00008C8D  F8                clc
00008C8E  0408              add al,0x8
00008C90  0000              add [eax],al
00008C92  0000              add [eax],al
00008C94  1000              adc [eax],al
00008C96  1800              sbb [eax],al
00008C98  5D                pop ebp
00008C99  3E0000            add [ds:eax],al
00008C9C  F8                clc
00008C9D  AD                lodsd
00008C9E  0408              add al,0x8
00008CA0  6E                outsb
00008CA1  0000              add [eax],al
00008CA3  0022              add [edx],ah
00008CA5  000C00            add [eax+eax],cl
00008CA8  C23E00            ret 0x3e
00008CAB  008E8F040805      add [esi+0x508048f],cl
00008CB1  0000              add [eax],al
00008CB3  0022              add [edx],ah
00008CB5  000C00            add [eax+eax],cl
00008CB8  CB                retf
00008CB9  3E0000            add [ds:eax],al
00008CBC  E087              loopne 0x8c45
00008CBE  0408              add al,0x8
00008CC0  0000              add [eax],al
00008CC2  0000              add [eax],al
00008CC4  1200              adc al,[eax]
00008CC6  0000              add [eax],al
00008CC8  EC                in al,dx
00008CC9  3E0000            add [ds:eax],al
00008CCC  CC                int3
00008CCD  9F                lahf
00008CCE  0408              add al,0x8
00008CD0  44                inc esp
00008CD1  0000              add [eax],al
00008CD3  0022              add [edx],ah
00008CD5  000C00            add [eax+eax],cl
00008CD8  3B3F              cmp edi,[edi]
00008CDA  0000              add [eax],al
00008CDC  6692              xchg ax,dx
00008CDE  0408              add al,0x8
00008CE0  1300              adc eax,[eax]
00008CE2  0000              add [eax],al
00008CE4  2200              and al,[eax]
00008CE6  0C00              or al,0x0
00008CE8  48                dec eax
00008CE9  3F                aas
00008CEA  0000              add [eax],al
00008CEC  FA                cli
00008CED  B204              mov dl,0x4
00008CEF  080A              or [edx],cl
00008CF1  0000              add [eax],al
00008CF3  0022              add [edx],ah
00008CF5  000C00            add [eax+eax],cl
00008CF8  743F              jz 0x8d39
00008CFA  0000              add [eax],al
00008CFC  DEB904082700      fidivr word [ecx+0x270804]
00008D02  0000              add [eax],al
00008D04  2200              and al,[eax]
00008D06  0C00              or al,0x0
00008D08  92                xchg eax,edx
00008D09  3F                aas
00008D0A  0000              add [eax],al
00008D0C  53                push ebx
00008D0D  A204081A00        mov [0x1a0804],al
00008D12  0000              add [eax],al
00008D14  2200              and al,[eax]
00008D16  0C00              or al,0x0
00008D18  D23F              sar byte [edi],cl
00008D1A  0000              add [eax],al
00008D1C  1CA7              sbb al,0xa7
00008D1E  0408              add al,0x8
00008D20  2F                das
00008D21  0000              add [eax],al
00008D23  0022              add [edx],ah
00008D25  000C00            add [eax+eax],cl
00008D28  1B4000            sbb eax,[eax+0x0]
00008D2B  0046A3            add [esi-0x5d],al
00008D2E  0408              add al,0x8
00008D30  37                aaa
00008D31  0000              add [eax],al
00008D33  0022              add [edx],ah
00008D35  000C00            add [eax+eax],cl
00008D38  5F                pop edi
00008D39  40                inc eax
00008D3A  0000              add [eax],al
00008D3C  0000              add [eax],al
00008D3E  0000              add [eax],al
00008D40  0000              add [eax],al
00008D42  0000              add [eax],al
00008D44  1200              adc al,[eax]
00008D46  0000              add [eax],al
00008D48  7740              ja 0x8d8a
00008D4A  0000              add [eax],al
00008D4C  88BA04083D00      mov [edx+0x3d0804],bh
00008D52  0000              add [eax],al
00008D54  2200              and al,[eax]
00008D56  0C00              or al,0x0
00008D58  B440              mov ah,0x40
00008D5A  0000              add [eax],al
00008D5C  AC                lodsb
00008D5D  B804082200        mov eax,0x220804
00008D62  0000              add [eax],al
00008D64  2200              and al,[eax]
00008D66  0C00              or al,0x0
00008D68  C8400000          enter 0x40,0x0
00008D6C  06                push es
00008D6D  9B                wait
00008D6E  0408              add al,0x8
00008D70  4A                dec edx
00008D71  0000              add [eax],al
00008D73  0022              add [edx],ah
00008D75  000C00            add [eax+eax],cl
00008D78  ED                in eax,dx
00008D79  40                inc eax
00008D7A  0000              add [eax],al
00008D7C  C7                db 0xC7
00008D7D  9D                popf
00008D7E  0408              add al,0x8
00008D80  8F00              pop dword [eax]
00008D82  0000              add [eax],al
00008D84  2200              and al,[eax]
00008D86  0C00              or al,0x0
00008D88  44                inc esp
00008D89  41                inc ecx
00008D8A  0000              add [eax],al
00008D8C  A88F              test al,0x8f
00008D8E  0408              add al,0x8
00008D90  57                push edi
00008D91  0000              add [eax],al
00008D93  0022              add [edx],ah
00008D95  000C00            add [eax+eax],cl
00008D98  69410000E4BB04    imul eax,[ecx+0x0],dword 0x4bbe400
00008D9F  081500000022      or [0x22000000],dl
00008DA5  000C00            add [eax+eax],cl
00008DA8  B241              mov dl,0x41
00008DAA  0000              add [eax],al
00008DAC  3E93              ds xchg eax,ebx
00008DAE  0408              add al,0x8
00008DB0  1300              adc eax,[eax]
00008DB2  0000              add [eax],al
00008DB4  2200              and al,[eax]
00008DB6  0C00              or al,0x0
00008DB8  CF                iret
00008DB9  41                inc ecx
00008DBA  0000              add [eax],al
00008DBC  E4A6              in al,0xa6
00008DBE  0408              add al,0x8
00008DC0  0500000022        add eax,0x22000000
00008DC5  000C00            add [eax+eax],cl
00008DC8  FD                std
00008DC9  41                inc ecx
00008DCA  0000              add [eax],al
00008DCC  04BC              add al,0xbc
00008DCE  0408              add al,0x8
00008DD0  4B                dec ebx
00008DD1  0000              add [eax],al
00008DD3  0022              add [edx],ah
00008DD5  000C00            add [eax+eax],cl
00008DD8  4B                dec ebx
00008DD9  42                inc edx
00008DDA  0000              add [eax],al
00008DDC  94                xchg eax,esp
00008DDD  8F0408            pop dword [eax+ecx]
00008DE0  1300              adc eax,[eax]
00008DE2  0000              add [eax],al
00008DE4  2200              and al,[eax]
00008DE6  0C00              or al,0x0
00008DE8  7042              jo 0x8e2c
00008DEA  0000              add [eax],al
00008DEC  C2A304            ret 0x4a3
00008DEF  0827              or [edi],ah
00008DF1  0000              add [eax],al
00008DF3  0022              add [edx],ah
00008DF5  000C00            add [eax+eax],cl
00008DF8  B342              mov bl,0x42
00008DFA  0000              add [eax],al
00008DFC  6B9D04082C0000    imul ebx,[ebp+0x2c0804],byte +0x0
00008E03  0022              add [edx],ah
00008E05  000C00            add [eax+eax],cl
00008E08  FD                std
00008E09  42                inc edx
00008E0A  0000              add [eax],al
00008E0C  DABD04080000      fidivr dword [ebp+0x804]
00008E12  0000              add [eax],al
00008E14  1202              adc al,[edx]
00008E16  0C00              or al,0x0
00008E18  1443              adc al,0x43
00008E1A  0000              add [eax],al
00008E1C  D0A004083800      shl byte [eax+0x380804],1
00008E22  0000              add [eax],al
00008E24  2200              and al,[eax]
00008E26  0C00              or al,0x0
00008E28  44                inc esp
00008E29  43                inc ebx
00008E2A  0000              add [eax],al
00008E2C  AF                scasd
00008E2D  B604              mov dh,0x4
00008E2F  0813              or [ebx],dl
00008E31  0000              add [eax],al
00008E33  0022              add [edx],ah
00008E35  000C00            add [eax+eax],cl
00008E38  82                db 0x82
00008E39  43                inc ebx
00008E3A  0000              add [eax],al
00008E3C  20890408F305      and [ecx+0x5f30804],cl
00008E42  0000              add [eax],al
00008E44  1200              adc al,[eax]
00008E46  0C00              or al,0x0
00008E48  874300            xchg eax,[ebx+0x0]
00008E4B  009886040800      add [eax+0x80486],bl
00008E51  0000              add [eax],al
00008E53  0012              add [edx],dl
00008E55  000A              add [edx],cl
00008E57  008D430000E6      add [ebp+0xe6000043],cl
00008E5D  9A040805000000    call 0x0:0x50804
00008E64  2200              and al,[eax]
00008E66  0C00              or al,0x0
00008E68  B143              mov cl,0x43
00008E6A  0000              add [eax],al
00008E6C  7FB2              jg 0x8e20
00008E6E  0408              add al,0x8
00008E70  3E0000            add [ds:eax],al
00008E73  0022              add [edx],ah
00008E75  000C00            add [eax+eax],cl
00008E78  21440000          and [eax+eax+0x0],eax
00008E7C  80900408570000    adc byte [eax+0x570804],0x0
00008E83  0022              add [edx],ah
00008E85  000C00            add [eax+eax],cl
00008E88  51                push ecx
00008E89  44                inc esp
00008E8A  0000              add [eax],al
00008E8C  97                xchg eax,edi
00008E8D  9D                popf
00008E8E  0408              add al,0x8
00008E90  3000              xor [eax],al
00008E92  0000              add [eax],al
00008E94  2200              and al,[eax]
00008E96  0C00              or al,0x0
00008E98  AE                scasb
00008E99  44                inc esp
00008E9A  0000              add [eax],al
00008E9C  B09B              mov al,0x9b
00008E9E  0408              add al,0x8
00008EA0  3E0000            add [ds:eax],al
00008EA3  0022              add [edx],ah
00008EA5  000C00            add [eax+eax],cl
00008EA8  00696E            add [ecx+0x6e],ch
00008EAB  69742E6300696E69  imul esi,[esi+ebp+0x63],dword 0x696e6900
00008EB3  7466              jz 0x8f1b
00008EB5  696E692E630063    imul ebp,[esi+0x69],dword 0x6300632e
00008EBC  7274              jc 0x8f32
00008EBE  7374              jnc 0x8f34
00008EC0  7566              jnz 0x8f28
00008EC2  662E6300          o16 arpl [cs:eax],ax
00008EC6  5F                pop edi
00008EC7  5F                pop edi
00008EC8  43                inc ebx
00008EC9  54                push esp
00008ECA  4F                dec edi
00008ECB  52                push edx
00008ECC  5F                pop edi
00008ECD  4C                dec esp
00008ECE  49                dec ecx
00008ECF  53                push ebx
00008ED0  54                push esp
00008ED1  5F                pop edi
00008ED2  5F                pop edi
00008ED3  005F5F            add [edi+0x5f],bl
00008ED6  44                inc esp
00008ED7  54                push esp
00008ED8  4F                dec edi
00008ED9  52                push edx
00008EDA  5F                pop edi
00008EDB  4C                dec esp
00008EDC  49                dec ecx
00008EDD  53                push ebx
00008EDE  54                push esp
00008EDF  5F                pop edi
00008EE0  5F                pop edi
00008EE1  005F5F            add [edi+0x5f],bl
00008EE4  4A                dec edx
00008EE5  43                inc ebx
00008EE6  52                push edx
00008EE7  5F                pop edi
00008EE8  4C                dec esp
00008EE9  49                dec ecx
00008EEA  53                push ebx
00008EEB  54                push esp
00008EEC  5F                pop edi
00008EED  5F                pop edi
00008EEE  00646572          add [ebp+0x72],ah
00008EF2  656769737465725F  imul esi,[gs:bp+di+0x74],dword 0x745f7265
         -74
00008EFB  6D                insd
00008EFC  5F                pop edi
00008EFD  636C6F6E          arpl [edi+ebp*2+0x6e],bp
00008F01  657300            gs jnc 0x8f04
00008F04  7265              jc 0x8f6b
00008F06  6769737465725F74  imul esi,[bp+di+0x74],dword 0x745f7265
00008F0E  6D                insd
00008F0F  5F                pop edi
00008F10  636C6F6E          arpl [edi+ebp*2+0x6e],bp
00008F14  657300            gs jnc 0x8f17
00008F17  5F                pop edi
00008F18  5F                pop edi
00008F19  646F              fs outsd
00008F1B  5F                pop edi
00008F1C  676C              a16 insb
00008F1E  6F                outsd
00008F1F  62616C            bound esp,[ecx+0x6c]
00008F22  5F                pop edi
00008F23  64746F            fs jz 0x8f95
00008F26  7273              jc 0x8f9b
00008F28  5F                pop edi
00008F29  61                popa
00008F2A  7578              jnz 0x8fa4
00008F2C  00636F            add [ebx+0x6f],ah
00008F2F  6D                insd
00008F30  706C              jo 0x8f9e
00008F32  657465            gs jz 0x8f9a
00008F35  642E3333          xor esi,[cs:ebx]
00008F39  3238              xor bh,[eax]
00008F3B  0064746F          add [esp+esi*2+0x6f],ah
00008F3F  725F              jc 0x8fa0
00008F41  6964782E33333330  imul esp,[eax+edi*2+0x2e],dword 0x30333333
00008F49  006672            add [esi+0x72],ah
00008F4C  61                popa
00008F4D  6D                insd
00008F4E  655F              gs pop edi
00008F50  64756D            fs jnz 0x8fc0
00008F53  6D                insd
00008F54  7900              jns 0x8f56
00008F56  5F                pop edi
00008F57  5F                pop edi
00008F58  43                inc ebx
00008F59  54                push esp
00008F5A  4F                dec edi
00008F5B  52                push edx
00008F5C  5F                pop edi
00008F5D  45                inc ebp
00008F5E  4E                dec esi
00008F5F  44                inc esp
00008F60  5F                pop edi
00008F61  5F                pop edi
00008F62  005F5F            add [edi+0x5f],bl
00008F65  46                inc esi
00008F66  52                push edx
00008F67  41                inc ecx
00008F68  4D                dec ebp
00008F69  45                inc ebp
00008F6A  5F                pop edi
00008F6B  45                inc ebp
00008F6C  4E                dec esi
00008F6D  44                inc esp
00008F6E  5F                pop edi
00008F6F  5F                pop edi
00008F70  005F5F            add [edi+0x5f],bl
00008F73  4A                dec edx
00008F74  43                inc ebx
00008F75  52                push edx
00008F76  5F                pop edi
00008F77  45                inc ebp
00008F78  4E                dec esi
00008F79  44                inc esp
00008F7A  5F                pop edi
00008F7B  5F                pop edi
00008F7C  005F5F            add [edi+0x5f],bl
00008F7F  646F              fs outsd
00008F81  5F                pop edi
00008F82  676C              a16 insb
00008F84  6F                outsd
00008F85  62616C            bound esp,[ecx+0x6c]
00008F88  5F                pop edi
00008F89  63746F72          arpl [edi+ebp*2+0x72],si
00008F8D  735F              jnc 0x8fee
00008F8F  61                popa
00008F90  7578              jnz 0x900a
00008F92  0032              add [edx],dh
00008F94  3939              cmp [ecx],edi
00008F96  3434              xor al,0x34
00008F98  3836              cmp [esi],dh
00008F9A  5F                pop edi
00008F9B  3537353135        xor eax,0x35313537
00008FA0  3030              xor [eax],dh
00008FA2  3833              cmp [ebx],dh
00008FA4  3137              xor [edi],esi
00008FA6  3139              xor [ecx],edi
00008FA8  3432              xor al,0x32
00008FAA  345F              xor al,0x5f
00008FAC  42                inc edx
00008FAD  6F                outsd
00008FAE  62696B            bound ebp,[ecx+0x6b]
00008FB1  2E637070          arpl [cs:eax+0x70],si
00008FB5  005F5A            add [edi+0x5a],bl
00008FB8  53                push ebx
00008FB9  744C              jz 0x9007
00008FBB  385F5F            cmp [edi+0x5f],bl
00008FBE  696F696E697400    imul ebp,[edi+0x69],dword 0x74696e
00008FC5  5F                pop edi
00008FC6  5A                pop edx
00008FC7  3431              xor al,0x31
00008FC9  5F                pop edi
00008FCA  5F                pop edi
00008FCB  7374              jnc 0x9041
00008FCD  61                popa
00008FCE  7469              jz 0x9039
00008FD0  635F69            arpl [edi+0x69],bx
00008FD3  6E                outsb
00008FD4  697469616C697A61  imul esi,[ecx+ebp*2+0x61],dword 0x617a696c
00008FDC  7469              jz 0x9047
00008FDE  6F                outsd
00008FDF  6E                outsb
00008FE0  5F                pop edi
00008FE1  61                popa
00008FE2  6E                outsb
00008FE3  645F              fs pop edi
00008FE5  64657374          gs jnc 0x905d
00008FE9  7275              jc 0x9060
00008FEB  6374696F          arpl [ecx+ebp*2+0x6f],si
00008FEF  6E                outsb
00008FF0  5F                pop edi
00008FF1  306969            xor [ecx+0x69],ch
00008FF4  005F47            add [edi+0x47],bl
00008FF7  4C                dec esp
00008FF8  4F                dec edi
00008FF9  42                inc edx
00008FFA  41                inc ecx
00008FFB  4C                dec esp
00008FFC  5F                pop edi
00008FFD  5F                pop edi
00008FFE  7375              jnc 0x9075
00009000  625F49            bound ebx,[edi+0x49]
00009003  5F                pop edi
00009004  6D                insd
00009005  61                popa
00009006  696E00656C662D    imul ebp,[esi+0x0],dword 0x2d666c65
0000900D  696E69742E6300    imul ebp,[esi+0x69],dword 0x632e74
00009014  5F                pop edi
00009015  47                inc edi
00009016  4C                dec esp
00009017  4F                dec edi
00009018  42                inc edx
00009019  41                inc ecx
0000901A  4C                dec esp
0000901B  5F                pop edi
0000901C  4F                dec edi
0000901D  46                inc esi
0000901E  46                inc esi
0000901F  53                push ebx
00009020  45                inc ebp
00009021  54                push esp
00009022  5F                pop edi
00009023  54                push esp
00009024  41                inc ecx
00009025  42                inc edx
00009026  4C                dec esp
00009027  45                inc ebp
00009028  5F                pop edi
00009029  005F5F            add [edi+0x5f],bl
0000902C  696E69745F6172    imul ebp,[esi+0x69],dword 0x72615f74
00009033  7261              jc 0x9096
00009035  795F              jns 0x9096
00009037  656E              gs outsb
00009039  64005F5F          add [fs:edi+0x5f],bl
0000903D  696E69745F6172    imul ebp,[esi+0x69],dword 0x72615f74
00009044  7261              jc 0x90a7
00009046  795F              jns 0x90a7
00009048  7374              jnc 0x90be
0000904A  61                popa
0000904B  7274              jc 0x90c1
0000904D  005F44            add [edi+0x44],bl
00009050  59                pop ecx
00009051  4E                dec esi
00009052  41                inc ecx
00009053  4D                dec ebp
00009054  49                dec ecx
00009055  43                inc ebx
00009056  00646174          add [ecx+0x74],ah
0000905A  61                popa
0000905B  5F                pop edi
0000905C  7374              jnc 0x90d2
0000905E  61                popa
0000905F  7274              jc 0x90d5
00009061  005F5A            add [edi+0x5a],bl
00009064  4E                dec esi
00009065  4B                dec ebx
00009066  395F5F            cmp [edi+0x5f],ebx
00009069  676E              a16 outsb
0000906B  755F              jnz 0x90cc
0000906D  637878            arpl [eax+0x78],di
00009070  3133              xor [ebx],esi
00009072  6E                outsb
00009073  65775F            gs ja 0x90d5
00009076  61                popa
00009077  6C                insb
00009078  6C                insb
00009079  6F                outsd
0000907A  636174            arpl [ecx+0x74],sp
0000907D  6F                outsd
0000907E  7249              jc 0x90c9
00009080  53                push ebx
00009081  7436              jz 0x90b9
00009083  7665              jna 0x90ea
00009085  63746F72          arpl [edi+ebp*2+0x72],si
00009089  49                dec ecx
0000908A  69536149694545    imul edx,[ebx+0x61],dword 0x45456949
00009091  45                inc ebp
00009092  386D61            cmp [ebp+0x61],ch
00009095  785F              js 0x90f6
00009097  7369              jnc 0x9102
00009099  7A65              jpe 0x9100
0000909B  45                inc ebp
0000909C  7600              jna 0x909e
0000909E  5F                pop edi
0000909F  5A                pop edx
000090A0  53                push ebx
000090A1  7431              jz 0x90d4
000090A3  38756E            cmp [ebp+0x6e],dh
000090A6  696E697469616C    imul ebp,[esi+0x69],dword 0x6c616974
000090AD  697A65645F636F    imul edi,[edx+0x65],dword 0x6f635f64
000090B4  7079              jo 0x912f
000090B6  49                dec ecx
000090B7  4E                dec esi
000090B8  395F5F            cmp [edi+0x5f],ebx
000090BB  676E              a16 outsb
000090BD  755F              jnz 0x911e
000090BF  637878            arpl [eax+0x78],di
000090C2  3137              xor [edi],esi
000090C4  5F                pop edi
000090C5  5F                pop edi
000090C6  6E                outsb
000090C7  6F                outsd
000090C8  726D              jc 0x9137
000090CA  61                popa
000090CB  6C                insb
000090CC  5F                pop edi
000090CD  6974657261746F72  imul esi,[ebp+0x72],dword 0x726f7461
000090D5  49                dec ecx
000090D6  50                push eax
000090D7  4B                dec ebx
000090D8  69537436766563    imul edx,[ebx+0x74],dword 0x63657636
000090DF  746F              jz 0x9150
000090E1  7249              jc 0x912c
000090E3  69536149694545    imul edx,[ebx+0x61],dword 0x45456949
000090EA  45                inc ebp
000090EB  45                inc ebp
000090EC  50                push eax
000090ED  694554305F545F    imul eax,[ebp+0x54],dword 0x5f545f30
000090F4  53                push ebx
000090F5  41                inc ecx
000090F6  5F                pop edi
000090F7  53                push ebx
000090F8  395F00            cmp [edi+0x0],ebx
000090FB  5F                pop edi
000090FC  5A                pop edx
000090FD  4E                dec esi
000090FE  395F5F            cmp [edi+0x5f],ebx
00009101  676E              a16 outsb
00009103  755F              jnz 0x9164
00009105  637878            arpl [eax+0x78],di
00009108  3133              xor [ebx],esi
0000910A  6E                outsb
0000910B  65775F            gs ja 0x916d
0000910E  61                popa
0000910F  6C                insb
00009110  6C                insb
00009111  6F                outsd
00009112  636174            arpl [ecx+0x74],sp
00009115  6F                outsd
00009116  7249              jc 0x9161
00009118  53                push ebx
00009119  7436              jz 0x9151
0000911B  7665              jna 0x9182
0000911D  63746F72          arpl [edi+ebp*2+0x72],si
00009121  49                dec ecx
00009122  69536149694545    imul edx,[ebx+0x61],dword 0x45456949
00009129  45                inc ebp
0000912A  38616C            cmp [ecx+0x6c],ah
0000912D  6C                insb
0000912E  6F                outsd
0000912F  636174            arpl [ecx+0x74],sp
00009132  6545              gs inc ebp
00009134  6A50              push byte +0x50
00009136  4B                dec ebx
00009137  7600              jna 0x9139
00009139  5F                pop edi
0000913A  5A                pop edx
0000913B  4E                dec esi
0000913C  53                push ebx
0000913D  7431              jz 0x9170
0000913F  325F56            xor bl,[edi+0x56]
00009142  6563746F72        arpl [gs:edi+ebp*2+0x72],si
00009147  5F                pop edi
00009148  626173            bound esp,[ecx+0x73]
0000914B  6549              gs dec ecx
0000914D  53                push ebx
0000914E  7436              jz 0x9186
00009150  7665              jna 0x91b7
00009152  63746F72          arpl [edi+ebp*2+0x72],si
00009156  49                dec ecx
00009157  69536149694545    imul edx,[ebx+0x61],dword 0x45456949
0000915E  53                push ebx
0000915F  61                popa
00009160  49                dec ecx
00009161  53                push ebx
00009162  325F45            xor bl,[edi+0x45]
00009165  45                inc ebp
00009166  44                inc esp
00009167  314576            xor [ebp+0x76],eax
0000916A  005F5A            add [edi+0x5a],bl
0000916D  53                push ebx
0000916E  7432              jz 0x91a2
00009170  305F5F            xor [edi+0x5f],bl
00009173  7468              jz 0x91dd
00009175  726F              jc 0x91e6
00009177  775F              ja 0x91d8
00009179  6C                insb
0000917A  656E              gs outsb
0000917C  677468            a16 jz 0x91e7
0000917F  5F                pop edi
00009180  657272            gs jc 0x91f5
00009183  6F                outsd
00009184  7250              jc 0x91d6
00009186  4B                dec ebx
00009187  634040            arpl [eax+0x40],ax
0000918A  47                inc edi
0000918B  4C                dec esp
0000918C  49                dec ecx
0000918D  42                inc edx
0000918E  43                inc ebx
0000918F  58                pop eax
00009190  58                pop eax
00009191  5F                pop edi
00009192  332E              xor ebp,[esi]
00009194  3400              xor al,0x0
00009196  5F                pop edi
00009197  5A                pop edx
00009198  53                push ebx
00009199  7439              jz 0x91d4
0000919B  6D                insd
0000919C  61                popa
0000919D  6B655F70          imul esp,[ebp+0x5f],byte +0x70
000091A1  61                popa
000091A2  69724963694553    imul esi,[edx+0x49],dword 0x53456963
000091A9  7434              jz 0x91df
000091AB  7061              jo 0x920e
000091AD  697249545F5430    imul esi,[edx+0x49],dword 0x30545f54
000091B4  5F                pop edi
000091B5  45                inc ebp
000091B6  53                push ebx
000091B7  315F53            xor [edi+0x53],ebx
000091BA  325F00            xor bl,[edi+0x0]
000091BD  5F                pop edi
000091BE  5A                pop edx
000091BF  53                push ebx
000091C0  7436              jz 0x91f8
000091C2  66696C6C5F6E49    imul bp,[esp+ebp*2+0x5f],word 0x496e
000091C9  50                push eax
000091CA  696A6945545F53    imul ebp,[edx+0x69],dword 0x535f5445
000091D1  315F54            xor [edi+0x54],ebx
000091D4  305F52            xor [edi+0x52],bl
000091D7  4B                dec ebx
000091D8  54                push esp
000091D9  315F00            xor [edi+0x0],ebx
000091DC  5F                pop edi
000091DD  5A                pop edx
000091DE  53                push ebx
000091DF  7431              jz 0x9212
000091E1  395F5F            cmp [edi+0x5f],ebx
000091E4  6D                insd
000091E5  6F                outsd
000091E6  7665              jna 0x924d
000091E8  5F                pop edi
000091E9  6D                insd
000091EA  656469616E5F6669  imul esp,[fs:ecx+0x6e],dword 0x7269665f
         -72
000091F3  7374              jnc 0x9269
000091F5  49                dec ecx
000091F6  4E                dec esi
000091F7  395F5F            cmp [edi+0x5f],ebx
000091FA  676E              a16 outsb
000091FC  755F              jnz 0x925d
000091FE  637878            arpl [eax+0x78],di
00009201  3137              xor [edi],esi
00009203  5F                pop edi
00009204  5F                pop edi
00009205  6E                outsb
00009206  6F                outsd
00009207  726D              jc 0x9276
00009209  61                popa
0000920A  6C                insb
0000920B  5F                pop edi
0000920C  6974657261746F72  imul esi,[ebp+0x72],dword 0x726f7461
00009214  49                dec ecx
00009215  50                push eax
00009216  69537436766563    imul edx,[ebx+0x74],dword 0x63657636
0000921D  746F              jz 0x928e
0000921F  7249              jc 0x926a
00009221  69536149694545    imul edx,[ebx+0x61],dword 0x45456949
00009228  45                inc ebp
00009229  45                inc ebp
0000922A  45                inc ebp
0000922B  7654              jna 0x9281
0000922D  5F                pop edi
0000922E  53                push ebx
0000922F  37                aaa
00009230  5F                pop edi
00009231  53                push ebx
00009232  37                aaa
00009233  5F                pop edi
00009234  005F5A            add [edi+0x5a],bl
00009237  53                push ebx
00009238  7432              jz 0x926c
0000923A  345F              xor al,0x5f
0000923C  5F                pop edi
0000923D  756E              jnz 0x92ad
0000923F  696E697469616C    imul ebp,[esi+0x69],dword 0x6c616974
00009246  697A65645F6669    imul edi,[edx+0x65],dword 0x69665f64
0000924D  6C                insb
0000924E  6C                insb
0000924F  5F                pop edi
00009250  6E                outsb
00009251  5F                pop edi
00009252  61                popa
00009253  49                dec ecx
00009254  50                push eax
00009255  53                push ebx
00009256  7436              jz 0x928e
00009258  7665              jna 0x92bf
0000925A  63746F72          arpl [edi+ebp*2+0x72],si
0000925E  49                dec ecx
0000925F  53                push ebx
00009260  7434              jz 0x9296
00009262  7061              jo 0x92c5
00009264  69724963694553    imul esi,[edx+0x49],dword 0x53456963
0000926B  61                popa
0000926C  49                dec ecx
0000926D  53                push ebx
0000926E  325F45            xor bl,[edi+0x45]
00009271  45                inc ebp
00009272  6A53              push byte +0x53
00009274  345F              xor al,0x5f
00009276  53                push ebx
00009277  345F              xor al,0x5f
00009279  45                inc ebp
0000927A  7654              jna 0x92d0
0000927C  5F                pop edi
0000927D  54                push esp
0000927E  305F52            xor [edi+0x52],bl
00009281  4B                dec ebx
00009282  54                push esp
00009283  315F52            xor [edi+0x52],ebx
00009286  53                push ebx
00009287  61                popa
00009288  49                dec ecx
00009289  54                push esp
0000928A  325F45            xor bl,[edi+0x45]
0000928D  005F5A            add [edi+0x5a],bl
00009290  4E                dec esi
00009291  395F5F            cmp [edi+0x5f],ebx
00009294  676E              a16 outsb
00009296  755F              jnz 0x92f7
00009298  637878            arpl [eax+0x78],di
0000929B  3133              xor [ebx],esi
0000929D  6E                outsb
0000929E  65775F            gs ja 0x9300
000092A1  61                popa
000092A2  6C                insb
000092A3  6C                insb
000092A4  6F                outsd
000092A5  636174            arpl [ecx+0x74],sp
000092A8  6F                outsd
000092A9  7249              jc 0x92f4
000092AB  53                push ebx
000092AC  7434              jz 0x92e2
000092AE  7061              jo 0x9311
000092B0  69724963694545    imul esi,[edx+0x49],dword 0x45456963
000092B7  3130              xor [eax],esi
000092B9  646561            gs popa
000092BC  6C                insb
000092BD  6C                insb
000092BE  6F                outsd
000092BF  636174            arpl [ecx+0x74],sp
000092C2  6545              gs inc ebp
000092C4  50                push eax
000092C5  53                push ebx
000092C6  325F6A            xor bl,[edi+0x6a]
000092C9  005F5A            add [edi+0x5a],bl
000092CC  4E                dec esi
000092CD  53                push ebx
000092CE  61                popa
000092CF  49                dec ecx
000092D0  53                push ebx
000092D1  7434              jz 0x9307
000092D3  7061              jo 0x9336
000092D5  69724963694545    imul esi,[edx+0x49],dword 0x45456963
000092DC  43                inc ebx
000092DD  324576            xor al,[ebp+0x76]
000092E0  005F5A            add [edi+0x5a],bl
000092E3  4E                dec esi
000092E4  4B                dec ebx
000092E5  395F5F            cmp [edi+0x5f],ebx
000092E8  676E              a16 outsb
000092EA  755F              jnz 0x934b
000092EC  637878            arpl [eax+0x78],di
000092EF  3133              xor [ebx],esi
000092F1  6E                outsb
000092F2  65775F            gs ja 0x9354
000092F5  61                popa
000092F6  6C                insb
000092F7  6C                insb
000092F8  6F                outsd
000092F9  636174            arpl [ecx+0x74],sp
000092FC  6F                outsd
000092FD  7249              jc 0x9348
000092FF  53                push ebx
00009300  7434              jz 0x9336
00009302  7061              jo 0x9365
00009304  69724963694545    imul esi,[edx+0x49],dword 0x45456963
0000930B  386D61            cmp [ebp+0x61],ch
0000930E  785F              js 0x936f
00009310  7369              jnc 0x937b
00009312  7A65              jpe 0x9379
00009314  45                inc ebp
00009315  7600              jna 0x9317
00009317  5F                pop edi
00009318  5F                pop edi
00009319  637861            arpl [eax+0x61],di
0000931C  5F                pop edi
0000931D  61                popa
0000931E  7465              jz 0x9385
00009320  7869              js 0x938b
00009322  7440              jz 0x9364
00009324  40                inc eax
00009325  47                inc edi
00009326  4C                dec esp
00009327  49                dec ecx
00009328  42                inc edx
00009329  43                inc ebx
0000932A  5F                pop edi
0000932B  322E              xor ch,[esi]
0000932D  312E              xor [esi],ebp
0000932F  3300              xor eax,[eax]
00009331  5F                pop edi
00009332  5A                pop edx
00009333  53                push ebx
00009334  7438              jz 0x936e
00009336  5F                pop edi
00009337  44                inc esp
00009338  657374            gs jnc 0x93af
0000933B  726F              jc 0x93ac
0000933D  7949              jns 0x9388
0000933F  50                push eax
00009340  53                push ebx
00009341  7436              jz 0x9379
00009343  7665              jna 0x93aa
00009345  63746F72          arpl [edi+ebp*2+0x72],si
00009349  49                dec ecx
0000934A  53                push ebx
0000934B  7434              jz 0x9381
0000934D  7061              jo 0x93b0
0000934F  69724963694553    imul esi,[edx+0x49],dword 0x53456963
00009356  61                popa
00009357  49                dec ecx
00009358  53                push ebx
00009359  325F45            xor bl,[edi+0x45]
0000935C  45                inc ebp
0000935D  45                inc ebp
0000935E  7654              jna 0x93b4
00009360  5F                pop edi
00009361  53                push ebx
00009362  365F              ss pop edi
00009364  005F5A            add [edi+0x5a],bl
00009367  53                push ebx
00009368  7431              jz 0x939b
0000936A  315F5F            xor [edi+0x5f],ebx
0000936D  61                popa
0000936E  64647265          fs jc 0x93d7
00009372  7373              jnc 0x93e7
00009374  6F                outsd
00009375  6649              dec cx
00009377  53                push ebx
00009378  7436              jz 0x93b0
0000937A  7665              jna 0x93e1
0000937C  63746F72          arpl [edi+ebp*2+0x72],si
00009380  49                dec ecx
00009381  69536149694545    imul edx,[ebx+0x61],dword 0x45456949
00009388  45                inc ebp
00009389  50                push eax
0000938A  54                push esp
0000938B  5F                pop edi
0000938C  52                push edx
0000938D  53                push ebx
0000938E  335F00            xor ebx,[edi+0x0]
00009391  5F                pop edi
00009392  5F                pop edi
00009393  6C                insb
00009394  6962635F637375    imul esp,[edx+0x63],dword 0x7573635f
0000939B  5F                pop edi
0000939C  66696E69005F      imul bp,[esi+0x69],word 0x5f00
000093A2  5A                pop edx
000093A3  53                push ebx
000093A4  7431              jz 0x93d7
000093A6  335F5F            xor ebx,[edi+0x5f]
000093A9  61                popa
000093AA  646A75            fs push byte +0x75
000093AD  7374              jnc 0x9423
000093AF  5F                pop edi
000093B0  6865617049        push dword 0x49706165
000093B5  4E                dec esi
000093B6  395F5F            cmp [edi+0x5f],ebx
000093B9  676E              a16 outsb
000093BB  755F              jnz 0x941c
000093BD  637878            arpl [eax+0x78],di
000093C0  3137              xor [edi],esi
000093C2  5F                pop edi
000093C3  5F                pop edi
000093C4  6E                outsb
000093C5  6F                outsd
000093C6  726D              jc 0x9435
000093C8  61                popa
000093C9  6C                insb
000093CA  5F                pop edi
000093CB  6974657261746F72  imul esi,[ebp+0x72],dword 0x726f7461
000093D3  49                dec ecx
000093D4  50                push eax
000093D5  69537436766563    imul edx,[ebx+0x74],dword 0x63657636
000093DC  746F              jz 0x944d
000093DE  7249              jc 0x9429
000093E0  69536149694545    imul edx,[ebx+0x61],dword 0x45456949
000093E7  45                inc ebp
000093E8  45                inc ebp
000093E9  69694576545F54    imul ebp,[ecx+0x45],dword 0x545f5476
000093F0  305F53            xor [edi+0x53],bl
000093F3  385F54            cmp [edi+0x54],bl
000093F6  315F00            xor [edi+0x0],ebx
000093F9  5F                pop edi
000093FA  5A                pop edx
000093FB  4E                dec esi
000093FC  53                push ebx
000093FD  7431              jz 0x9430
000093FF  305F49            xor [edi+0x49],bl
00009402  7465              jz 0x9469
00009404  725F              jc 0x9465
00009406  626173            bound esp,[ecx+0x73]
00009409  6549              gs dec ecx
0000940B  4E                dec esi
0000940C  395F5F            cmp [edi+0x5f],ebx
0000940F  676E              a16 outsb
00009411  755F              jnz 0x9472
00009413  637878            arpl [eax+0x78],di
00009416  3137              xor [edi],esi
00009418  5F                pop edi
00009419  5F                pop edi
0000941A  6E                outsb
0000941B  6F                outsd
0000941C  726D              jc 0x948b
0000941E  61                popa
0000941F  6C                insb
00009420  5F                pop edi
00009421  6974657261746F72  imul esi,[ebp+0x72],dword 0x726f7461
00009429  49                dec ecx
0000942A  50                push eax
0000942B  4B                dec ebx
0000942C  69537436766563    imul edx,[ebx+0x74],dword 0x63657636
00009433  746F              jz 0x94a4
00009435  7249              jc 0x9480
00009437  69536149694545    imul edx,[ebx+0x61],dword 0x45456949
0000943E  45                inc ebp
0000943F  45                inc ebp
00009440  4C                dec esp
00009441  6230              bound esi,[eax]
00009443  45                inc ebp
00009444  45                inc ebp
00009445  37                aaa
00009446  5F                pop edi
00009447  53                push ebx
00009448  5F                pop edi
00009449  626173            bound esp,[ecx+0x73]
0000944C  6545              gs inc ebp
0000944E  53                push ebx
0000944F  37                aaa
00009450  5F                pop edi
00009451  005F73            add [edi+0x73],bl
00009454  7461              jz 0x94b7
00009456  7274              jc 0x94cc
00009458  005F5A            add [edi+0x5a],bl
0000945B  4E                dec esi
0000945C  53                push ebx
0000945D  7431              jz 0x9490
0000945F  325F56            xor bl,[edi+0x56]
00009462  6563746F72        arpl [gs:edi+ebp*2+0x72],si
00009467  5F                pop edi
00009468  626173            bound esp,[ecx+0x73]
0000946B  6549              gs dec ecx
0000946D  53                push ebx
0000946E  7434              jz 0x94a4
00009470  7061              jo 0x94d3
00009472  69724963694553    imul esi,[edx+0x49],dword 0x53456963
00009479  61                popa
0000947A  49                dec ecx
0000947B  53                push ebx
0000947C  315F45            xor [edi+0x45],ebx
0000947F  45                inc ebp
00009480  44                inc esp
00009481  324576            xor al,[ebp+0x76]
00009484  005F5A            add [edi+0x5a],bl
00009487  4E                dec esi
00009488  395F5F            cmp [edi+0x5f],ebx
0000948B  676E              a16 outsb
0000948D  755F              jnz 0x94ee
0000948F  637878            arpl [eax+0x78],di
00009492  3133              xor [ebx],esi
00009494  6E                outsb
00009495  65775F            gs ja 0x94f7
00009498  61                popa
00009499  6C                insb
0000949A  6C                insb
0000949B  6F                outsd
0000949C  636174            arpl [ecx+0x74],sp
0000949F  6F                outsd
000094A0  7249              jc 0x94eb
000094A2  6945433145524B    imul eax,[ebp+0x43],dword 0x4b524531
000094A9  53                push ebx
000094AA  315F00            xor [edi+0x0],ebx
000094AD  5F                pop edi
000094AE  5A                pop edx
000094AF  4E                dec esi
000094B0  53                push ebx
000094B1  7431              jz 0x94e4
000094B3  325F56            xor bl,[edi+0x56]
000094B6  6563746F72        arpl [gs:edi+ebp*2+0x72],si
000094BB  5F                pop edi
000094BC  626173            bound esp,[ecx+0x73]
000094BF  6549              gs dec ecx
000094C1  53                push ebx
000094C2  7434              jz 0x94f8
000094C4  7061              jo 0x9527
000094C6  69724963694553    imul esi,[edx+0x49],dword 0x53456963
000094CD  61                popa
000094CE  49                dec ecx
000094CF  53                push ebx
000094D0  315F45            xor [edi+0x45],ebx
000094D3  45                inc ebp
000094D4  43                inc ebx
000094D5  314576            xor [ebp+0x76],eax
000094D8  005F5A            add [edi+0x5a],bl
000094DB  4E                dec esi
000094DC  53                push ebx
000094DD  7431              jz 0x9510
000094DF  305F49            xor [edi+0x49],bl
000094E2  7465              jz 0x9549
000094E4  725F              jc 0x9545
000094E6  626173            bound esp,[ecx+0x73]
000094E9  6549              gs dec ecx
000094EB  50                push eax
000094EC  53                push ebx
000094ED  7434              jz 0x9523
000094EF  7061              jo 0x9552
000094F1  6972496369454C    imul esi,[edx+0x49],dword 0x4c456963
000094F8  6230              bound esi,[eax]
000094FA  45                inc ebp
000094FB  45                inc ebp
000094FC  37                aaa
000094FD  5F                pop edi
000094FE  53                push ebx
000094FF  5F                pop edi
00009500  626173            bound esp,[ecx+0x73]
00009503  6545              gs inc ebp
00009505  53                push ebx
00009506  325F00            xor bl,[edi+0x0]
00009509  5F                pop edi
0000950A  5A                pop edx
0000950B  4E                dec esi
0000950C  53                push ebx
0000950D  7431              jz 0x9540
0000950F  325F56            xor bl,[edi+0x56]
00009512  6563746F72        arpl [gs:edi+ebp*2+0x72],si
00009517  5F                pop edi
00009518  626173            bound esp,[ecx+0x73]
0000951B  6549              gs dec ecx
0000951D  69536149694545    imul edx,[ebx+0x61],dword 0x45456949
00009524  3133              xor [ebx],esi
00009526  5F                pop edi
00009527  4D                dec ebp
00009528  5F                pop edi
00009529  646561            gs popa
0000952C  6C                insb
0000952D  6C                insb
0000952E  6F                outsd
0000952F  636174            arpl [ecx+0x74],sp
00009532  6545              gs inc ebp
00009534  50                push eax
00009535  696A005F5A4E39    imul ebp,[edx+0x0],dword 0x394e5a5f
0000953C  5F                pop edi
0000953D  5F                pop edi
0000953E  676E              a16 outsb
00009540  755F              jnz 0x95a1
00009542  637878            arpl [eax+0x78],di
00009545  3133              xor [ebx],esi
00009547  6E                outsb
00009548  65775F            gs ja 0x95aa
0000954B  61                popa
0000954C  6C                insb
0000954D  6C                insb
0000954E  6F                outsd
0000954F  636174            arpl [ecx+0x74],sp
00009552  6F                outsd
00009553  7249              jc 0x959e
00009555  53                push ebx
00009556  7434              jz 0x958c
00009558  7061              jo 0x95bb
0000955A  69724963694545    imul esi,[edx+0x49],dword 0x45456963
00009561  37                aaa
00009562  64657374          gs jnc 0x95da
00009566  726F              jc 0x95d7
00009568  7945              jns 0x95af
0000956A  50                push eax
0000956B  53                push ebx
0000956C  325F00            xor bl,[edi+0x0]
0000956F  5F                pop edi
00009570  5A                pop edx
00009571  53                push ebx
00009572  7434              jz 0x95a8
00009574  5F                pop edi
00009575  5F                pop edi
00009576  6C                insb
00009577  6769005F5A4E39    imul eax,[bx+si],dword 0x394e5a5f
0000957E  5F                pop edi
0000957F  5F                pop edi
00009580  676E              a16 outsb
00009582  755F              jnz 0x95e3
00009584  637878            arpl [eax+0x78],di
00009587  3133              xor [ebx],esi
00009589  6E                outsb
0000958A  65775F            gs ja 0x95ec
0000958D  61                popa
0000958E  6C                insb
0000958F  6C                insb
00009590  6F                outsd
00009591  636174            arpl [ecx+0x74],sp
00009594  6F                outsd
00009595  7249              jc 0x95e0
00009597  53                push ebx
00009598  7436              jz 0x95d0
0000959A  7665              jna 0x9601
0000959C  63746F72          arpl [edi+ebp*2+0x72],si
000095A0  49                dec ecx
000095A1  53                push ebx
000095A2  7434              jz 0x95d8
000095A4  7061              jo 0x9607
000095A6  69724963694553    imul esi,[edx+0x49],dword 0x53456963
000095AD  61                popa
000095AE  49                dec ecx
000095AF  53                push ebx
000095B0  335F45            xor ebx,[edi+0x45]
000095B3  45                inc ebp
000095B4  45                inc ebp
000095B5  38616C            cmp [ecx+0x6c],ah
000095B8  6C                insb
000095B9  6F                outsd
000095BA  636174            arpl [ecx+0x74],sp
000095BD  6545              gs inc ebp
000095BF  6A50              push byte +0x50
000095C1  4B                dec ebx
000095C2  7600              jna 0x95c4
000095C4  5F                pop edi
000095C5  5A                pop edx
000095C6  4E                dec esi
000095C7  53                push ebx
000095C8  7436              jz 0x9600
000095CA  7665              jna 0x9631
000095CC  63746F72          arpl [edi+ebp*2+0x72],si
000095D0  49                dec ecx
000095D1  53                push ebx
000095D2  7434              jz 0x9608
000095D4  7061              jo 0x9637
000095D6  69724963694553    imul esi,[edx+0x49],dword 0x53456963
000095DD  61                popa
000095DE  49                dec ecx
000095DF  53                push ebx
000095E0  315F45            xor [edi+0x45],ebx
000095E3  45                inc ebp
000095E4  6978456A005F5A    imul edi,[eax+0x45],dword 0x5a5f006a
000095EB  4E                dec esi
000095EC  53                push ebx
000095ED  7431              jz 0x9620
000095EF  315F5F            xor [edi+0x5f],ebx
000095F2  636F70            arpl [edi+0x70],bp
000095F5  795F              jns 0x9656
000095F7  6D                insd
000095F8  6F                outsd
000095F9  7665              jna 0x9660
000095FB  49                dec ecx
000095FC  4C                dec esp
000095FD  6230              bound esi,[eax]
000095FF  45                inc ebp
00009600  4C                dec esp
00009601  6231              bound esi,[ecx]
00009603  45                inc ebp
00009604  53                push ebx
00009605  7432              jz 0x9639
00009607  367261            ss jc 0x966b
0000960A  6E                outsb
0000960B  646F              fs outsd
0000960D  6D                insd
0000960E  5F                pop edi
0000960F  61                popa
00009610  636365            arpl [ebx+0x65],sp
00009613  7373              jnc 0x9688
00009615  5F                pop edi
00009616  6974657261746F72  imul esi,[ebp+0x72],dword 0x726f7461
0000961E  5F                pop edi
0000961F  7461              jz 0x9682
00009621  6745              a16 inc ebp
00009623  385F5F            cmp [edi+0x5f],bl
00009626  636F70            arpl [edi+0x70],bp
00009629  795F              jns 0x968a
0000962B  6D                insd
0000962C  49                dec ecx
0000962D  69454550545F50    imul eax,[ebp+0x45],dword 0x505f5450
00009634  4B                dec ebx
00009635  53                push ebx
00009636  335F53            xor ebx,[edi+0x53]
00009639  365F              ss pop edi
0000963B  53                push ebx
0000963C  345F              xor al,0x5f
0000963E  005F5A            add [edi+0x5a],bl
00009641  53                push ebx
00009642  7432              jz 0x9676
00009644  335F5F            xor ebx,[edi+0x5f]
00009647  636F70            arpl [edi+0x70],bp
0000964A  795F              jns 0x96ab
0000964C  6D                insd
0000964D  6F                outsd
0000964E  7665              jna 0x96b5
00009650  5F                pop edi
00009651  626163            bound esp,[ecx+0x63]
00009654  6B776172          imul esi,[edi+0x61],byte +0x72
00009658  645F              fs pop edi
0000965A  61                popa
0000965B  32494C            xor cl,[ecx+0x4c]
0000965E  6230              bound esi,[eax]
00009660  45                inc ebp
00009661  4E                dec esi
00009662  395F5F            cmp [edi+0x5f],ebx
00009665  676E              a16 outsb
00009667  755F              jnz 0x96c8
00009669  637878            arpl [eax+0x78],di
0000966C  3137              xor [edi],esi
0000966E  5F                pop edi
0000966F  5F                pop edi
00009670  6E                outsb
00009671  6F                outsd
00009672  726D              jc 0x96e1
00009674  61                popa
00009675  6C                insb
00009676  5F                pop edi
00009677  6974657261746F72  imul esi,[ebp+0x72],dword 0x726f7461
0000967F  49                dec ecx
00009680  50                push eax
00009681  69537436766563    imul edx,[ebx+0x74],dword 0x63657636
00009688  746F              jz 0x96f9
0000968A  7249              jc 0x96d5
0000968C  69536149694545    imul edx,[ebx+0x61],dword 0x45456949
00009693  45                inc ebp
00009694  45                inc ebp
00009695  53                push ebx
00009696  365F              ss pop edi
00009698  45                inc ebp
00009699  54                push esp
0000969A  315F54            xor [edi+0x54],ebx
0000969D  305F53            xor [edi+0x53],bl
000096A0  385F53            cmp [edi+0x53],bl
000096A3  37                aaa
000096A4  5F                pop edi
000096A5  005F5A            add [edi+0x5a],bl
000096A8  4E                dec esi
000096A9  53                push ebx
000096AA  7431              jz 0x96dd
000096AC  325F56            xor bl,[edi+0x56]
000096AF  6563746F72        arpl [gs:edi+ebp*2+0x72],si
000096B4  5F                pop edi
000096B5  626173            bound esp,[ecx+0x73]
000096B8  6549              gs dec ecx
000096BA  53                push ebx
000096BB  7436              jz 0x96f3
000096BD  7665              jna 0x9724
000096BF  63746F72          arpl [edi+ebp*2+0x72],si
000096C3  49                dec ecx
000096C4  53                push ebx
000096C5  7434              jz 0x96fb
000096C7  7061              jo 0x972a
000096C9  69724963694553    imul esi,[edx+0x49],dword 0x53456963
000096D0  61                popa
000096D1  49                dec ecx
000096D2  53                push ebx
000096D3  325F45            xor bl,[edi+0x45]
000096D6  45                inc ebp
000096D7  53                push ebx
000096D8  61                popa
000096D9  49                dec ecx
000096DA  53                push ebx
000096DB  345F              xor al,0x5f
000096DD  45                inc ebp
000096DE  45                inc ebp
000096DF  44                inc esp
000096E0  314576            xor [ebp+0x76],eax
000096E3  005F5A            add [edi+0x5a],bl
000096E6  4E                dec esi
000096E7  53                push ebx
000096E8  7431              jz 0x971b
000096EA  325F56            xor bl,[edi+0x56]
000096ED  6563746F72        arpl [gs:edi+ebp*2+0x72],si
000096F2  5F                pop edi
000096F3  626173            bound esp,[ecx+0x73]
000096F6  6549              gs dec ecx
000096F8  69536149694545    imul edx,[ebx+0x61],dword 0x45456949
000096FF  44                inc esp
00009700  324576            xor al,[ebp+0x76]
00009703  005F5A            add [edi+0x5a],bl
00009706  4E                dec esi
00009707  395F5F            cmp [edi+0x5f],ebx
0000970A  676E              a16 outsb
0000970C  755F              jnz 0x976d
0000970E  637878            arpl [eax+0x78],di
00009711  657149            gs jno 0x975d
00009714  50                push eax
00009715  69537436766563    imul edx,[ebx+0x74],dword 0x63657636
0000971C  746F              jz 0x978d
0000971E  7249              jc 0x9769
00009720  69536149694545    imul edx,[ebx+0x61],dword 0x45456949
00009727  45                inc ebp
00009728  45                inc ebp
00009729  62524B            bound edx,[edx+0x4b]
0000972C  4E                dec esi
0000972D  53                push ebx
0000972E  5F                pop edi
0000972F  3137              xor [edi],esi
00009731  5F                pop edi
00009732  5F                pop edi
00009733  6E                outsb
00009734  6F                outsd
00009735  726D              jc 0x97a4
00009737  61                popa
00009738  6C                insb
00009739  5F                pop edi
0000973A  6974657261746F72  imul esi,[ebp+0x72],dword 0x726f7461
00009742  49                dec ecx
00009743  54                push esp
00009744  5F                pop edi
00009745  54                push esp
00009746  305F45            xor [edi+0x45],bl
00009749  45                inc ebp
0000974A  53                push ebx
0000974B  41                inc ecx
0000974C  5F                pop edi
0000974D  005F5A            add [edi+0x5a],bl
00009750  4E                dec esi
00009751  395F5F            cmp [edi+0x5f],ebx
00009754  676E              a16 outsb
00009756  755F              jnz 0x97b7
00009758  637878            arpl [eax+0x78],di
0000975B  3133              xor [ebx],esi
0000975D  6E                outsb
0000975E  65775F            gs ja 0x97c0
00009761  61                popa
00009762  6C                insb
00009763  6C                insb
00009764  6F                outsd
00009765  636174            arpl [ecx+0x74],sp
00009768  6F                outsd
00009769  7249              jc 0x97b4
0000976B  53                push ebx
0000976C  7436              jz 0x97a4
0000976E  7665              jna 0x97d5
00009770  63746F72          arpl [edi+ebp*2+0x72],si
00009774  49                dec ecx
00009775  69536149694545    imul edx,[ebx+0x61],dword 0x45456949
0000977C  45                inc ebp
0000977D  44                inc esp
0000977E  324576            xor al,[ebp+0x76]
00009781  005F5A            add [edi+0x5a],bl
00009784  4E                dec esi
00009785  53                push ebx
00009786  7431              jz 0x97b9
00009788  325F56            xor bl,[edi+0x56]
0000978B  6563746F72        arpl [gs:edi+ebp*2+0x72],si
00009790  5F                pop edi
00009791  626173            bound esp,[ecx+0x73]
00009794  6549              gs dec ecx
00009796  53                push ebx
00009797  7436              jz 0x97cf
00009799  7665              jna 0x9800
0000979B  63746F72          arpl [edi+ebp*2+0x72],si
0000979F  49                dec ecx
000097A0  69536149694545    imul edx,[ebx+0x61],dword 0x45456949
000097A7  53                push ebx
000097A8  61                popa
000097A9  49                dec ecx
000097AA  53                push ebx
000097AB  325F45            xor bl,[edi+0x45]
000097AE  45                inc ebp
000097AF  3139              xor [ecx],edi
000097B1  5F                pop edi
000097B2  4D                dec ebp
000097B3  5F                pop edi
000097B4  6765745F          gs a16 jz 0x9817
000097B8  54                push esp
000097B9  705F              jo 0x981a
000097BB  61                popa
000097BC  6C                insb
000097BD  6C                insb
000097BE  6F                outsd
000097BF  636174            arpl [ecx+0x74],sp
000097C2  6F                outsd
000097C3  7245              jc 0x980a
000097C5  7600              jna 0x97c7
000097C7  5F                pop edi
000097C8  5A                pop edx
000097C9  4E                dec esi
000097CA  53                push ebx
000097CB  7431              jz 0x97fe
000097CD  325F56            xor bl,[edi+0x56]
000097D0  6563746F72        arpl [gs:edi+ebp*2+0x72],si
000097D5  5F                pop edi
000097D6  626173            bound esp,[ecx+0x73]
000097D9  6549              gs dec ecx
000097DB  53                push ebx
000097DC  7436              jz 0x9814
000097DE  7665              jna 0x9845
000097E0  63746F72          arpl [edi+ebp*2+0x72],si
000097E4  49                dec ecx
000097E5  53                push ebx
000097E6  7434              jz 0x981c
000097E8  7061              jo 0x984b
000097EA  69724963694553    imul esi,[edx+0x49],dword 0x53456963
000097F1  61                popa
000097F2  49                dec ecx
000097F3  53                push ebx
000097F4  325F45            xor bl,[edi+0x45]
000097F7  45                inc ebp
000097F8  53                push ebx
000097F9  61                popa
000097FA  49                dec ecx
000097FB  53                push ebx
000097FC  345F              xor al,0x5f
000097FE  45                inc ebp
000097FF  45                inc ebp
00009800  43                inc ebx
00009801  32456A            xor al,[ebp+0x6a]
00009804  52                push edx
00009805  4B                dec ebx
00009806  53                push ebx
00009807  355F005F5A        xor eax,0x5a5f005f
0000980C  4E                dec esi
0000980D  4B                dec ebx
0000980E  53                push ebx
0000980F  7436              jz 0x9847
00009811  7665              jna 0x9878
00009813  63746F72          arpl [edi+ebp*2+0x72],si
00009817  49                dec ecx
00009818  69536149694545    imul edx,[ebx+0x61],dword 0x45456949
0000981F  3473              xor al,0x73
00009821  697A654576005F    imul edi,[edx+0x65],dword 0x5f007645
00009828  5A                pop edx
00009829  4E                dec esi
0000982A  53                push ebx
0000982B  7436              jz 0x9863
0000982D  7665              jna 0x9894
0000982F  63746F72          arpl [edi+ebp*2+0x72],si
00009833  49                dec ecx
00009834  53                push ebx
00009835  7434              jz 0x986b
00009837  7061              jo 0x989a
00009839  69724963694553    imul esi,[edx+0x49],dword 0x53456963
00009840  61                popa
00009841  49                dec ecx
00009842  53                push ebx
00009843  315F45            xor [edi+0x45],ebx
00009846  45                inc ebp
00009847  44                inc esp
00009848  324576            xor al,[ebp+0x76]
0000984B  005F5A            add [edi+0x5a],bl
0000984E  4E                dec esi
0000984F  395F5F            cmp [edi+0x5f],ebx
00009852  676E              a16 outsb
00009854  755F              jnz 0x98b5
00009856  637878            arpl [eax+0x78],di
00009859  3133              xor [ebx],esi
0000985B  6E                outsb
0000985C  65775F            gs ja 0x98be
0000985F  61                popa
00009860  6C                insb
00009861  6C                insb
00009862  6F                outsd
00009863  636174            arpl [ecx+0x74],sp
00009866  6F                outsd
00009867  7249              jc 0x98b2
00009869  53                push ebx
0000986A  7436              jz 0x98a2
0000986C  7665              jna 0x98d3
0000986E  63746F72          arpl [edi+ebp*2+0x72],si
00009872  49                dec ecx
00009873  69536149694545    imul edx,[ebx+0x61],dword 0x45456949
0000987A  45                inc ebp
0000987B  43                inc ebx
0000987C  314576            xor [ebp+0x76],eax
0000987F  005F5A            add [edi+0x5a],bl
00009882  4E                dec esi
00009883  53                push ebx
00009884  7432              jz 0x98b8
00009886  305F5F            xor [edi+0x5f],bl
00009889  756E              jnz 0x98f9
0000988B  696E697469616C    imul ebp,[esi+0x69],dword 0x6c616974
00009892  697A65645F636F    imul edi,[edx+0x65],dword 0x6f635f64
00009899  7079              jo 0x9914
0000989B  49                dec ecx
0000989C  4C                dec esp
0000989D  6230              bound esi,[eax]
0000989F  45                inc ebp
000098A0  45                inc ebp
000098A1  3133              xor [ebx],esi
000098A3  5F                pop edi
000098A4  5F                pop edi
000098A5  756E              jnz 0x9915
000098A7  696E69745F636F    imul ebp,[esi+0x69],dword 0x6f635f74
000098AE  7079              jo 0x9929
000098B0  49                dec ecx
000098B1  50                push eax
000098B2  53                push ebx
000098B3  7434              jz 0x98e9
000098B5  7061              jo 0x9918
000098B7  69724963694553    imul esi,[edx+0x49],dword 0x53456963
000098BE  345F              xor al,0x5f
000098C0  45                inc ebp
000098C1  45                inc ebp
000098C2  54                push esp
000098C3  305F54            xor [edi+0x54],bl
000098C6  5F                pop edi
000098C7  53                push ebx
000098C8  365F              ss pop edi
000098CA  53                push ebx
000098CB  355F005F5A        xor eax,0x5a5f005f
000098D0  4E                dec esi
000098D1  53                push ebx
000098D2  61                popa
000098D3  49                dec ecx
000098D4  53                push ebx
000098D5  7434              jz 0x990b
000098D7  7061              jo 0x993a
000098D9  69724963694545    imul esi,[edx+0x49],dword 0x45456963
000098E0  43                inc ebx
000098E1  314552            xor [ebp+0x52],eax
000098E4  4B                dec ebx
000098E5  53                push ebx
000098E6  315F00            xor [edi+0x0],ebx
000098E9  5F                pop edi
000098EA  5A                pop edx
000098EB  53                push ebx
000098EC  7431              jz 0x991f
000098EE  315F5F            xor [edi+0x5f],ebx
000098F1  61                popa
000098F2  64647265          fs jc 0x995b
000098F6  7373              jnc 0x996b
000098F8  6F                outsd
000098F9  6649              dec cx
000098FB  53                push ebx
000098FC  7436              jz 0x9934
000098FE  7665              jna 0x9965
00009900  63746F72          arpl [edi+ebp*2+0x72],si
00009904  49                dec ecx
00009905  53                push ebx
00009906  7434              jz 0x993c
00009908  7061              jo 0x996b
0000990A  69724963694553    imul esi,[edx+0x49],dword 0x53456963
00009911  61                popa
00009912  49                dec ecx
00009913  53                push ebx
00009914  325F45            xor bl,[edi+0x45]
00009917  45                inc ebp
00009918  45                inc ebp
00009919  50                push eax
0000991A  54                push esp
0000991B  5F                pop edi
0000991C  52                push edx
0000991D  53                push ebx
0000991E  355F005F5F        xor eax,0x5f5f005f
00009923  676D              a16 insd
00009925  6F                outsd
00009926  6E                outsb
00009927  5F                pop edi
00009928  7374              jnc 0x999e
0000992A  61                popa
0000992B  7274              jc 0x99a1
0000992D  5F                pop edi
0000992E  5F                pop edi
0000992F  005F5A            add [edi+0x5a],bl
00009932  53                push ebx
00009933  7432              jz 0x9967
00009935  325F5F            xor bl,[edi+0x5f]
00009938  756E              jnz 0x99a8
0000993A  696E697469616C    imul ebp,[esi+0x69],dword 0x6c616974
00009941  697A65645F636F    imul edi,[edx+0x65],dword 0x6f635f64
00009948  7079              jo 0x99c3
0000994A  5F                pop edi
0000994B  61                popa
0000994C  49                dec ecx
0000994D  4E                dec esi
0000994E  395F5F            cmp [edi+0x5f],ebx
00009951  676E              a16 outsb
00009953  755F              jnz 0x99b4
00009955  637878            arpl [eax+0x78],di
00009958  3137              xor [edi],esi
0000995A  5F                pop edi
0000995B  5F                pop edi
0000995C  6E                outsb
0000995D  6F                outsd
0000995E  726D              jc 0x99cd
00009960  61                popa
00009961  6C                insb
00009962  5F                pop edi
00009963  6974657261746F72  imul esi,[ebp+0x72],dword 0x726f7461
0000996B  49                dec ecx
0000996C  50                push eax
0000996D  4B                dec ebx
0000996E  53                push ebx
0000996F  7434              jz 0x99a5
00009971  7061              jo 0x99d4
00009973  69724963694553    imul esi,[edx+0x49],dword 0x53456963
0000997A  7436              jz 0x99b2
0000997C  7665              jna 0x99e3
0000997E  63746F72          arpl [edi+ebp*2+0x72],si
00009982  49                dec ecx
00009983  53                push ebx
00009984  335F53            xor ebx,[edi+0x53]
00009987  61                popa
00009988  49                dec ecx
00009989  53                push ebx
0000998A  335F45            xor ebx,[edi+0x45]
0000998D  45                inc ebp
0000998E  45                inc ebp
0000998F  45                inc ebp
00009990  50                push eax
00009991  53                push ebx
00009992  335F53            xor ebx,[edi+0x53]
00009995  335F45            xor ebx,[edi+0x45]
00009998  54                push esp
00009999  305F54            xor [edi+0x54],bl
0000999C  5F                pop edi
0000999D  53                push ebx
0000999E  43                inc ebx
0000999F  5F                pop edi
000099A0  53                push ebx
000099A1  42                inc edx
000099A2  5F                pop edi
000099A3  52                push edx
000099A4  53                push ebx
000099A5  61                popa
000099A6  49                dec ecx
000099A7  54                push esp
000099A8  315F45            xor [edi+0x45],ebx
000099AB  005F4A            add [edi+0x4a],bl
000099AE  765F              jna 0x9a0f
000099B0  52                push edx
000099B1  6567697374657243  imul esi,[gs:bp+di+0x74],dword 0x6c437265
         -6C
000099BA  61                popa
000099BB  7373              jnc 0x9a30
000099BD  657300            gs jnc 0x99c0
000099C0  5F                pop edi
000099C1  5A                pop edx
000099C2  4E                dec esi
000099C3  53                push ebx
000099C4  7436              jz 0x99fc
000099C6  7665              jna 0x9a2d
000099C8  63746F72          arpl [edi+ebp*2+0x72],si
000099CC  49                dec ecx
000099CD  53                push ebx
000099CE  7434              jz 0x9a04
000099D0  7061              jo 0x9a33
000099D2  69724963694553    imul esi,[edx+0x49],dword 0x53456963
000099D9  61                popa
000099DA  49                dec ecx
000099DB  53                push ebx
000099DC  315F45            xor [edi+0x45],ebx
000099DF  45                inc ebp
000099E0  33656E            xor esp,[ebp+0x6e]
000099E3  6445              fs inc ebp
000099E5  7600              jna 0x99e7
000099E7  5F                pop edi
000099E8  5A                pop edx
000099E9  4E                dec esi
000099EA  53                push ebx
000099EB  7431              jz 0x9a1e
000099ED  325F56            xor bl,[edi+0x56]
000099F0  6563746F72        arpl [gs:edi+ebp*2+0x72],si
000099F5  5F                pop edi
000099F6  626173            bound esp,[ecx+0x73]
000099F9  6549              gs dec ecx
000099FB  69536149694545    imul edx,[ebx+0x61],dword 0x45456949
00009A02  3131              xor [ecx],esi
00009A04  5F                pop edi
00009A05  4D                dec ebp
00009A06  5F                pop edi
00009A07  61                popa
00009A08  6C                insb
00009A09  6C                insb
00009A0A  6F                outsd
00009A0B  636174            arpl [ecx+0x74],sp
00009A0E  6545              gs inc ebp
00009A10  6A00              push byte +0x0
00009A12  5F                pop edi
00009A13  5A                pop edx
00009A14  4E                dec esi
00009A15  53                push ebx
00009A16  7431              jz 0x9a49
00009A18  325F56            xor bl,[edi+0x56]
00009A1B  6563746F72        arpl [gs:edi+ebp*2+0x72],si
00009A20  5F                pop edi
00009A21  626173            bound esp,[ecx+0x73]
00009A24  6549              gs dec ecx
00009A26  53                push ebx
00009A27  7436              jz 0x9a5f
00009A29  7665              jna 0x9a90
00009A2B  63746F72          arpl [edi+ebp*2+0x72],si
00009A2F  49                dec ecx
00009A30  69536149694545    imul edx,[ebx+0x61],dword 0x45456949
00009A37  53                push ebx
00009A38  61                popa
00009A39  49                dec ecx
00009A3A  53                push ebx
00009A3B  325F45            xor bl,[edi+0x45]
00009A3E  45                inc ebp
00009A3F  3132              xor [edx],esi
00009A41  5F                pop edi
00009A42  56                push esi
00009A43  6563746F72        arpl [gs:edi+ebp*2+0x72],si
00009A48  5F                pop edi
00009A49  696D706C443145    imul ebp,[ebp+0x70],dword 0x4531446c
00009A50  7600              jna 0x9a52
00009A52  5F                pop edi
00009A53  5A                pop edx
00009A54  4E                dec esi
00009A55  4B                dec ebx
00009A56  395F5F            cmp [edi+0x5f],ebx
00009A59  676E              a16 outsb
00009A5B  755F              jnz 0x9abc
00009A5D  637878            arpl [eax+0x78],di
00009A60  3137              xor [edi],esi
00009A62  5F                pop edi
00009A63  5F                pop edi
00009A64  6E                outsb
00009A65  6F                outsd
00009A66  726D              jc 0x9ad5
00009A68  61                popa
00009A69  6C                insb
00009A6A  5F                pop edi
00009A6B  6974657261746F72  imul esi,[ebp+0x72],dword 0x726f7461
00009A73  49                dec ecx
00009A74  50                push eax
00009A75  53                push ebx
00009A76  7434              jz 0x9aac
00009A78  7061              jo 0x9adb
00009A7A  69724963694553    imul esi,[edx+0x49],dword 0x53456963
00009A81  7436              jz 0x9ab9
00009A83  7665              jna 0x9aea
00009A85  63746F72          arpl [edi+ebp*2+0x72],si
00009A89  49                dec ecx
00009A8A  53                push ebx
00009A8B  325F53            xor bl,[edi+0x53]
00009A8E  61                popa
00009A8F  49                dec ecx
00009A90  53                push ebx
00009A91  325F45            xor bl,[edi+0x45]
00009A94  45                inc ebp
00009A95  45                inc ebp
00009A96  3462              xor al,0x62
00009A98  61                popa
00009A99  7365              jnc 0x9b00
00009A9B  45                inc ebp
00009A9C  7600              jna 0x9a9e
00009A9E  5F                pop edi
00009A9F  66705F            o16 jo 0x9b01
00009AA2  6877005F5A        push dword 0x5a5f0077
00009AA7  4E                dec esi
00009AA8  53                push ebx
00009AA9  7431              jz 0x9adc
00009AAB  325F56            xor bl,[edi+0x56]
00009AAE  6563746F72        arpl [gs:edi+ebp*2+0x72],si
00009AB3  5F                pop edi
00009AB4  626173            bound esp,[ecx+0x73]
00009AB7  6549              gs dec ecx
00009AB9  53                push ebx
00009ABA  7434              jz 0x9af0
00009ABC  7061              jo 0x9b1f
00009ABE  69724963694553    imul esi,[edx+0x49],dword 0x53456963
00009AC5  61                popa
00009AC6  49                dec ecx
00009AC7  53                push ebx
00009AC8  315F45            xor [edi+0x45],ebx
00009ACB  45                inc ebp
00009ACC  44                inc esp
00009ACD  314576            xor [ebp+0x76],eax
00009AD0  005F5A            add [edi+0x5a],bl
00009AD3  4E                dec esi
00009AD4  53                push ebx
00009AD5  61                popa
00009AD6  49                dec ecx
00009AD7  53                push ebx
00009AD8  7436              jz 0x9b10
00009ADA  7665              jna 0x9b41
00009ADC  63746F72          arpl [edi+ebp*2+0x72],si
00009AE0  49                dec ecx
00009AE1  69536149694545    imul edx,[ebx+0x61],dword 0x45456949
00009AE8  45                inc ebp
00009AE9  43                inc ebx
00009AEA  314576            xor [ebp+0x76],eax
00009AED  005F5A            add [edi+0x5a],bl
00009AF0  646C              fs insb
00009AF2  50                push eax
00009AF3  7640              jna 0x9b35
00009AF5  40                inc eax
00009AF6  47                inc edi
00009AF7  4C                dec esp
00009AF8  49                dec ecx
00009AF9  42                inc edx
00009AFA  43                inc ebx
00009AFB  58                pop eax
00009AFC  58                pop eax
00009AFD  5F                pop edi
00009AFE  332E              xor ebp,[esi]
00009B00  3400              xor al,0x0
00009B02  5F                pop edi
00009B03  5A                pop edx
00009B04  4E                dec esi
00009B05  395F5F            cmp [edi+0x5f],ebx
00009B08  676E              a16 outsb
00009B0A  755F              jnz 0x9b6b
00009B0C  637878            arpl [eax+0x78],di
00009B0F  3133              xor [ebx],esi
00009B11  6E                outsb
00009B12  65775F            gs ja 0x9b74
00009B15  61                popa
00009B16  6C                insb
00009B17  6C                insb
00009B18  6F                outsd
00009B19  636174            arpl [ecx+0x74],sp
00009B1C  6F                outsd
00009B1D  7249              jc 0x9b68
00009B1F  69454431457600    imul eax,[ebp+0x44],dword 0x764531
00009B26  5F                pop edi
00009B27  5A                pop edx
00009B28  4E                dec esi
00009B29  395F5F            cmp [edi+0x5f],ebx
00009B2C  676E              a16 outsb
00009B2E  755F              jnz 0x9b8f
00009B30  637878            arpl [eax+0x78],di
00009B33  3137              xor [edi],esi
00009B35  5F                pop edi
00009B36  5F                pop edi
00009B37  6E                outsb
00009B38  6F                outsd
00009B39  726D              jc 0x9ba8
00009B3B  61                popa
00009B3C  6C                insb
00009B3D  5F                pop edi
00009B3E  6974657261746F72  imul esi,[ebp+0x72],dword 0x726f7461
00009B46  49                dec ecx
00009B47  50                push eax
00009B48  69537436766563    imul edx,[ebx+0x74],dword 0x63657636
00009B4F  746F              jz 0x9bc0
00009B51  7249              jc 0x9b9c
00009B53  69536149694545    imul edx,[ebx+0x61],dword 0x45456949
00009B5A  45                inc ebp
00009B5B  7070              jo 0x9bcd
00009B5D  45                inc ebp
00009B5E  7600              jna 0x9b60
00009B60  5F                pop edi
00009B61  5A                pop edx
00009B62  4E                dec esi
00009B63  53                push ebx
00009B64  7431              jz 0x9b97
00009B66  325F56            xor bl,[edi+0x56]
00009B69  6563746F72        arpl [gs:edi+ebp*2+0x72],si
00009B6E  5F                pop edi
00009B6F  626173            bound esp,[ecx+0x73]
00009B72  6549              gs dec ecx
00009B74  53                push ebx
00009B75  7434              jz 0x9bab
00009B77  7061              jo 0x9bda
00009B79  69724963694553    imul esi,[edx+0x49],dword 0x53456963
00009B80  61                popa
00009B81  49                dec ecx
00009B82  53                push ebx
00009B83  315F45            xor [edi+0x45],ebx
00009B86  45                inc ebp
00009B87  3132              xor [edx],esi
00009B89  5F                pop edi
00009B8A  56                push esi
00009B8B  6563746F72        arpl [gs:edi+ebp*2+0x72],si
00009B90  5F                pop edi
00009B91  696D706C433245    imul ebp,[ebp+0x70],dword 0x4532436c
00009B98  52                push edx
00009B99  4B                dec ebx
00009B9A  53                push ebx
00009B9B  325F00            xor bl,[edi+0x0]
00009B9E  5F                pop edi
00009B9F  5A                pop edx
00009BA0  4E                dec esi
00009BA1  53                push ebx
00009BA2  61                popa
00009BA3  49                dec ecx
00009BA4  6945433145524B    imul eax,[ebp+0x43],dword 0x4b524531
00009BAB  53                push ebx
00009BAC  5F                pop edi
00009BAD  005F5A            add [edi+0x5a],bl
00009BB0  4E                dec esi
00009BB1  395F5F            cmp [edi+0x5f],ebx
00009BB4  676E              a16 outsb
00009BB6  755F              jnz 0x9c17
00009BB8  637878            arpl [eax+0x78],di
00009BBB  3133              xor [ebx],esi
00009BBD  6E                outsb
00009BBE  65775F            gs ja 0x9c20
00009BC1  61                popa
00009BC2  6C                insb
00009BC3  6C                insb
00009BC4  6F                outsd
00009BC5  636174            arpl [ecx+0x74],sp
00009BC8  6F                outsd
00009BC9  7249              jc 0x9c14
00009BCB  53                push ebx
00009BCC  7434              jz 0x9c02
00009BCE  7061              jo 0x9c31
00009BD0  69724963694545    imul esi,[edx+0x49],dword 0x45456963
00009BD7  43                inc ebx
00009BD8  314552            xor [ebp+0x52],eax
00009BDB  4B                dec ebx
00009BDC  53                push ebx
00009BDD  335F00            xor ebx,[edi+0x0]
00009BE0  5F                pop edi
00009BE1  5A                pop edx
00009BE2  53                push ebx
00009BE3  7431              jz 0x9c16
00009BE5  305F5F            xor [edi+0x5f],bl
00009BE8  706F              jo 0x9c59
00009BEA  705F              jo 0x9c4b
00009BEC  6865617049        push dword 0x49706165
00009BF1  4E                dec esi
00009BF2  395F5F            cmp [edi+0x5f],ebx
00009BF5  676E              a16 outsb
00009BF7  755F              jnz 0x9c58
00009BF9  637878            arpl [eax+0x78],di
00009BFC  3137              xor [edi],esi
00009BFE  5F                pop edi
00009BFF  5F                pop edi
00009C00  6E                outsb
00009C01  6F                outsd
00009C02  726D              jc 0x9c71
00009C04  61                popa
00009C05  6C                insb
00009C06  5F                pop edi
00009C07  6974657261746F72  imul esi,[ebp+0x72],dword 0x726f7461
00009C0F  49                dec ecx
00009C10  50                push eax
00009C11  69537436766563    imul edx,[ebx+0x74],dword 0x63657636
00009C18  746F              jz 0x9c89
00009C1A  7249              jc 0x9c65
00009C1C  69536149694545    imul edx,[ebx+0x61],dword 0x45456949
00009C23  45                inc ebp
00009C24  45                inc ebp
00009C25  45                inc ebp
00009C26  7654              jna 0x9c7c
00009C28  5F                pop edi
00009C29  53                push ebx
00009C2A  37                aaa
00009C2B  5F                pop edi
00009C2C  53                push ebx
00009C2D  37                aaa
00009C2E  5F                pop edi
00009C2F  005F5A            add [edi+0x5a],bl
00009C32  53                push ebx
00009C33  7432              jz 0x9c67
00009C35  30756E            xor [ebp+0x6e],dh
00009C38  696E697469616C    imul ebp,[esi+0x69],dword 0x6c616974
00009C3F  697A65645F6669    imul edi,[edx+0x65],dword 0x69665f64
00009C46  6C                insb
00009C47  6C                insb
00009C48  5F                pop edi
00009C49  6E                outsb
00009C4A  49                dec ecx
00009C4B  50                push eax
00009C4C  53                push ebx
00009C4D  7436              jz 0x9c85
00009C4F  7665              jna 0x9cb6
00009C51  63746F72          arpl [edi+ebp*2+0x72],si
00009C55  49                dec ecx
00009C56  69536149694545    imul edx,[ebx+0x61],dword 0x45456949
00009C5D  6A53              push byte +0x53
00009C5F  325F45            xor bl,[edi+0x45]
00009C62  7654              jna 0x9cb8
00009C64  5F                pop edi
00009C65  54                push esp
00009C66  305F52            xor [edi+0x52],bl
00009C69  4B                dec ebx
00009C6A  54                push esp
00009C6B  315F00            xor [edi+0x0],ebx
00009C6E  5F                pop edi
00009C6F  5A                pop edx
00009C70  4E                dec esi
00009C71  53                push ebx
00009C72  7436              jz 0x9caa
00009C74  7665              jna 0x9cdb
00009C76  63746F72          arpl [edi+ebp*2+0x72],si
00009C7A  49                dec ecx
00009C7B  69536149694545    imul edx,[ebx+0x61],dword 0x45456949
00009C82  33656E            xor esp,[ebp+0x6e]
00009C85  6445              fs inc ebp
00009C87  7600              jna 0x9c89
00009C89  5F                pop edi
00009C8A  5A                pop edx
00009C8B  53                push ebx
00009C8C  7432              jz 0x9cc0
00009C8E  345F              xor al,0x5f
00009C90  5F                pop edi
00009C91  756E              jnz 0x9d01
00009C93  696E697469616C    imul ebp,[esi+0x69],dword 0x6c616974
00009C9A  697A65645F6669    imul edi,[edx+0x65],dword 0x69665f64
00009CA1  6C                insb
00009CA2  6C                insb
00009CA3  5F                pop edi
00009CA4  6E                outsb
00009CA5  5F                pop edi
00009CA6  61                popa
00009CA7  49                dec ecx
00009CA8  50                push eax
00009CA9  696A6969457654    imul ebp,[edx+0x69],dword 0x54764569
00009CB0  5F                pop edi
00009CB1  54                push esp
00009CB2  305F52            xor [edi+0x52],bl
00009CB5  4B                dec ebx
00009CB6  54                push esp
00009CB7  315F52            xor [edi+0x52],ebx
00009CBA  53                push ebx
00009CBB  61                popa
00009CBC  49                dec ecx
00009CBD  54                push esp
00009CBE  325F45            xor bl,[edi+0x45]
00009CC1  005F66            add [edi+0x66],bl
00009CC4  696E69005F5A4E    imul ebp,[esi+0x69],dword 0x4e5a5f00
00009CCB  53                push ebx
00009CCC  61                popa
00009CCD  49                dec ecx
00009CCE  69454332457600    imul eax,[ebp+0x43],dword 0x764532
00009CD5  5F                pop edi
00009CD6  5F                pop edi
00009CD7  637861            arpl [eax+0x61],di
00009CDA  5F                pop edi
00009CDB  7265              jc 0x9d42
00009CDD  7468              jz 0x9d47
00009CDF  726F              jc 0x9d50
00009CE1  7740              ja 0x9d23
00009CE3  40                inc eax
00009CE4  43                inc ebx
00009CE5  58                pop eax
00009CE6  58                pop eax
00009CE7  41                inc ecx
00009CE8  42                inc edx
00009CE9  49                dec ecx
00009CEA  5F                pop edi
00009CEB  312E              xor [esi],ebp
00009CED  3300              xor eax,[eax]
00009CEF  5F                pop edi
00009CF0  5A                pop edx
00009CF1  4E                dec esi
00009CF2  395F5F            cmp [edi+0x5f],ebx
00009CF5  676E              a16 outsb
00009CF7  755F              jnz 0x9d58
00009CF9  637878            arpl [eax+0x78],di
00009CFC  3133              xor [ebx],esi
00009CFE  6E                outsb
00009CFF  65775F            gs ja 0x9d61
00009D02  61                popa
00009D03  6C                insb
00009D04  6C                insb
00009D05  6F                outsd
00009D06  636174            arpl [ecx+0x74],sp
00009D09  6F                outsd
00009D0A  7249              jc 0x9d55
00009D0C  53                push ebx
00009D0D  7434              jz 0x9d43
00009D0F  7061              jo 0x9d72
00009D11  69724963694545    imul esi,[edx+0x49],dword 0x45456963
00009D18  43                inc ebx
00009D19  314576            xor [ebp+0x76],eax
00009D1C  005F5A            add [edi+0x5a],bl
00009D1F  4E                dec esi
00009D20  4B                dec ebx
00009D21  395F5F            cmp [edi+0x5f],ebx
00009D24  676E              a16 outsb
00009D26  755F              jnz 0x9d87
00009D28  637878            arpl [eax+0x78],di
00009D2B  3137              xor [edi],esi
00009D2D  5F                pop edi
00009D2E  5F                pop edi
00009D2F  6E                outsb
00009D30  6F                outsd
00009D31  726D              jc 0x9da0
00009D33  61                popa
00009D34  6C                insb
00009D35  5F                pop edi
00009D36  6974657261746F72  imul esi,[ebp+0x72],dword 0x726f7461
00009D3E  49                dec ecx
00009D3F  50                push eax
00009D40  53                push ebx
00009D41  7434              jz 0x9d77
00009D43  7061              jo 0x9da6
00009D45  69724963694553    imul esi,[edx+0x49],dword 0x53456963
00009D4C  7436              jz 0x9d84
00009D4E  7665              jna 0x9db5
00009D50  63746F72          arpl [edi+ebp*2+0x72],si
00009D54  49                dec ecx
00009D55  53                push ebx
00009D56  325F53            xor bl,[edi+0x53]
00009D59  61                popa
00009D5A  49                dec ecx
00009D5B  53                push ebx
00009D5C  325F45            xor bl,[edi+0x45]
00009D5F  45                inc ebp
00009D60  45                inc ebp
00009D61  6D                insd
00009D62  6945524B69005F    imul eax,[ebp+0x52],dword 0x5f00694b
00009D69  5A                pop edx
00009D6A  4E                dec esi
00009D6B  53                push ebx
00009D6C  7438              jz 0x9da6
00009D6E  696F735F626173    imul ebp,[edi+0x73],dword 0x7361625f
00009D75  653449            gs xor al,0x49
00009D78  6E                outsb
00009D79  6974433145764040  imul esi,[ebx+eax*2+0x31],dword 0x40407645
00009D81  47                inc edi
00009D82  4C                dec esp
00009D83  49                dec ecx
00009D84  42                inc edx
00009D85  43                inc ebx
00009D86  58                pop eax
00009D87  58                pop eax
00009D88  5F                pop edi
00009D89  332E              xor ebp,[esi]
00009D8B  3400              xor al,0x0
00009D8D  5F                pop edi
00009D8E  5A                pop edx
00009D8F  4E                dec esi
00009D90  4B                dec ebx
00009D91  395F5F            cmp [edi+0x5f],ebx
00009D94  676E              a16 outsb
00009D96  755F              jnz 0x9df7
00009D98  637878            arpl [eax+0x78],di
00009D9B  3137              xor [edi],esi
00009D9D  5F                pop edi
00009D9E  5F                pop edi
00009D9F  6E                outsb
00009DA0  6F                outsd
00009DA1  726D              jc 0x9e10
00009DA3  61                popa
00009DA4  6C                insb
00009DA5  5F                pop edi
00009DA6  6974657261746F72  imul esi,[ebp+0x72],dword 0x726f7461
00009DAE  49                dec ecx
00009DAF  50                push eax
00009DB0  69537436766563    imul edx,[ebx+0x74],dword 0x63657636
00009DB7  746F              jz 0x9e28
00009DB9  7249              jc 0x9e04
00009DBB  69536149694545    imul edx,[ebx+0x61],dword 0x45456949
00009DC2  45                inc ebp
00009DC3  3462              xor al,0x62
00009DC5  61                popa
00009DC6  7365              jnc 0x9e2d
00009DC8  45                inc ebp
00009DC9  7600              jna 0x9dcb
00009DCB  5F                pop edi
00009DCC  5A                pop edx
00009DCD  53                push ebx
00009DCE  7432              jz 0x9e02
00009DD0  37                aaa
00009DD1  5F                pop edi
00009DD2  5F                pop edi
00009DD3  756E              jnz 0x9e43
00009DD5  677561            a16 jnz 0x9e39
00009DD8  7264              jc 0x9e3e
00009DDA  65645F            fs pop edi
00009DDD  7061              jo 0x9e40
00009DDF  7274              jc 0x9e55
00009DE1  6974696F6E5F7069  imul esi,[ecx+ebp*2+0x6f],dword 0x69705f6e
00009DE9  766F              jna 0x9e5a
00009DEB  7449              jz 0x9e36
00009DED  4E                dec esi
00009DEE  395F5F            cmp [edi+0x5f],ebx
00009DF1  676E              a16 outsb
00009DF3  755F              jnz 0x9e54
00009DF5  637878            arpl [eax+0x78],di
00009DF8  3137              xor [edi],esi
00009DFA  5F                pop edi
00009DFB  5F                pop edi
00009DFC  6E                outsb
00009DFD  6F                outsd
00009DFE  726D              jc 0x9e6d
00009E00  61                popa
00009E01  6C                insb
00009E02  5F                pop edi
00009E03  6974657261746F72  imul esi,[ebp+0x72],dword 0x726f7461
00009E0B  49                dec ecx
00009E0C  50                push eax
00009E0D  69537436766563    imul edx,[ebx+0x74],dword 0x63657636
00009E14  746F              jz 0x9e85
00009E16  7249              jc 0x9e61
00009E18  69536149694545    imul edx,[ebx+0x61],dword 0x45456949
00009E1F  45                inc ebp
00009E20  45                inc ebp
00009E21  45                inc ebp
00009E22  54                push esp
00009E23  5F                pop edi
00009E24  53                push ebx
00009E25  37                aaa
00009E26  5F                pop edi
00009E27  53                push ebx
00009E28  37                aaa
00009E29  5F                pop edi
00009E2A  005F5A            add [edi+0x5a],bl
00009E2D  4E                dec esi
00009E2E  4B                dec ebx
00009E2F  395F5F            cmp [edi+0x5f],ebx
00009E32  676E              a16 outsb
00009E34  755F              jnz 0x9e95
00009E36  637878            arpl [eax+0x78],di
00009E39  3137              xor [edi],esi
00009E3B  5F                pop edi
00009E3C  5F                pop edi
00009E3D  6E                outsb
00009E3E  6F                outsd
00009E3F  726D              jc 0x9eae
00009E41  61                popa
00009E42  6C                insb
00009E43  5F                pop edi
00009E44  6974657261746F72  imul esi,[ebp+0x72],dword 0x726f7461
00009E4C  49                dec ecx
00009E4D  50                push eax
00009E4E  4B                dec ebx
00009E4F  53                push ebx
00009E50  7434              jz 0x9e86
00009E52  7061              jo 0x9eb5
00009E54  69724963694553    imul esi,[edx+0x49],dword 0x53456963
00009E5B  7436              jz 0x9e93
00009E5D  7665              jna 0x9ec4
00009E5F  63746F72          arpl [edi+ebp*2+0x72],si
00009E63  49                dec ecx
00009E64  53                push ebx
00009E65  325F53            xor bl,[edi+0x53]
00009E68  61                popa
00009E69  49                dec ecx
00009E6A  53                push ebx
00009E6B  325F45            xor bl,[edi+0x45]
00009E6E  45                inc ebp
00009E6F  45                inc ebp
00009E70  3462              xor al,0x62
00009E72  61                popa
00009E73  7365              jnc 0x9eda
00009E75  45                inc ebp
00009E76  7600              jna 0x9e78
00009E78  5F                pop edi
00009E79  5A                pop edx
00009E7A  4E                dec esi
00009E7B  53                push ebx
00009E7C  7431              jz 0x9eaf
00009E7E  325F44            xor bl,[edi+0x44]
00009E81  657374            gs jnc 0x9ef8
00009E84  726F              jc 0x9ef5
00009E86  795F              jns 0x9ee7
00009E88  61                popa
00009E89  7578              jnz 0x9f03
00009E8B  49                dec ecx
00009E8C  4C                dec esp
00009E8D  6230              bound esi,[eax]
00009E8F  45                inc ebp
00009E90  45                inc ebp
00009E91  395F5F            cmp [edi+0x5f],ebx
00009E94  64657374          gs jnc 0x9f0c
00009E98  726F              jc 0x9f09
00009E9A  7949              jns 0x9ee5
00009E9C  50                push eax
00009E9D  53                push ebx
00009E9E  7436              jz 0x9ed6
00009EA0  7665              jna 0x9f07
00009EA2  63746F72          arpl [edi+ebp*2+0x72],si
00009EA6  49                dec ecx
00009EA7  53                push ebx
00009EA8  7434              jz 0x9ede
00009EAA  7061              jo 0x9f0d
00009EAC  69724963694553    imul esi,[edx+0x49],dword 0x53456963
00009EB3  61                popa
00009EB4  49                dec ecx
00009EB5  53                push ebx
00009EB6  345F              xor al,0x5f
00009EB8  45                inc ebp
00009EB9  45                inc ebp
00009EBA  45                inc ebp
00009EBB  45                inc ebp
00009EBC  7654              jna 0x9f12
00009EBE  5F                pop edi
00009EBF  53                push ebx
00009EC0  385F00            cmp [edi+0x0],bl
00009EC3  5F                pop edi
00009EC4  5A                pop edx
00009EC5  4E                dec esi
00009EC6  53                push ebx
00009EC7  61                popa
00009EC8  49                dec ecx
00009EC9  53                push ebx
00009ECA  7436              jz 0x9f02
00009ECC  7665              jna 0x9f33
00009ECE  63746F72          arpl [edi+ebp*2+0x72],si
00009ED2  49                dec ecx
00009ED3  53                push ebx
00009ED4  7434              jz 0x9f0a
00009ED6  7061              jo 0x9f39
00009ED8  69724963694553    imul esi,[edx+0x49],dword 0x53456963
00009EDF  61                popa
00009EE0  49                dec ecx
00009EE1  53                push ebx
00009EE2  315F45            xor [edi+0x45],ebx
00009EE5  45                inc ebp
00009EE6  45                inc ebp
00009EE7  43                inc ebx
00009EE8  314552            xor [ebp+0x52],eax
00009EEB  4B                dec ebx
00009EEC  53                push ebx
00009EED  345F              xor al,0x5f
00009EEF  005F5A            add [edi+0x5a],bl
00009EF2  53                push ebx
00009EF3  7438              jz 0x9f2d
00009EF5  5F                pop edi
00009EF6  44                inc esp
00009EF7  657374            gs jnc 0x9f6e
00009EFA  726F              jc 0x9f6b
00009EFC  7949              jns 0x9f47
00009EFE  50                push eax
00009EFF  53                push ebx
00009F00  7436              jz 0x9f38
00009F02  7665              jna 0x9f69
00009F04  63746F72          arpl [edi+ebp*2+0x72],si
00009F08  49                dec ecx
00009F09  53                push ebx
00009F0A  7434              jz 0x9f40
00009F0C  7061              jo 0x9f6f
00009F0E  69724963694553    imul esi,[edx+0x49],dword 0x53456963
00009F15  61                popa
00009F16  49                dec ecx
00009F17  53                push ebx
00009F18  325F45            xor bl,[edi+0x45]
00009F1B  45                inc ebp
00009F1C  53                push ebx
00009F1D  345F              xor al,0x5f
00009F1F  45                inc ebp
00009F20  7654              jna 0x9f76
00009F22  5F                pop edi
00009F23  53                push ebx
00009F24  365F              ss pop edi
00009F26  52                push edx
00009F27  53                push ebx
00009F28  61                popa
00009F29  49                dec ecx
00009F2A  54                push esp
00009F2B  305F45            xor [edi+0x45],bl
00009F2E  005F5A            add [edi+0x5a],bl
00009F31  4E                dec esi
00009F32  395F5F            cmp [edi+0x5f],ebx
00009F35  676E              a16 outsb
00009F37  755F              jnz 0x9f98
00009F39  637878            arpl [eax+0x78],di
00009F3C  3133              xor [ebx],esi
00009F3E  6E                outsb
00009F3F  65775F            gs ja 0x9fa1
00009F42  61                popa
00009F43  6C                insb
00009F44  6C                insb
00009F45  6F                outsd
00009F46  636174            arpl [ecx+0x74],sp
00009F49  6F                outsd
00009F4A  7249              jc 0x9f95
00009F4C  53                push ebx
00009F4D  7434              jz 0x9f83
00009F4F  7061              jo 0x9fb2
00009F51  69724963694545    imul esi,[edx+0x49],dword 0x45456963
00009F58  39636F            cmp [ebx+0x6f],esp
00009F5B  6E                outsb
00009F5C  7374              jnc 0x9fd2
00009F5E  7275              jc 0x9fd5
00009F60  63744550          arpl [ebp+eax*2+0x50],si
00009F64  53                push ebx
00009F65  325F52            xor bl,[edi+0x52]
00009F68  4B                dec ebx
00009F69  53                push ebx
00009F6A  325F00            xor bl,[edi+0x0]
00009F6D  5F                pop edi
00009F6E  5A                pop edx
00009F6F  4E                dec esi
00009F70  395F5F            cmp [edi+0x5f],ebx
00009F73  676E              a16 outsb
00009F75  755F              jnz 0x9fd6
00009F77  637878            arpl [eax+0x78],di
00009F7A  3137              xor [edi],esi
00009F7C  5F                pop edi
00009F7D  5F                pop edi
00009F7E  6E                outsb
00009F7F  6F                outsd
00009F80  726D              jc 0x9fef
00009F82  61                popa
00009F83  6C                insb
00009F84  5F                pop edi
00009F85  6974657261746F72  imul esi,[ebp+0x72],dword 0x726f7461
00009F8D  49                dec ecx
00009F8E  50                push eax
00009F8F  53                push ebx
00009F90  7434              jz 0x9fc6
00009F92  7061              jo 0x9ff5
00009F94  69724963694553    imul esi,[edx+0x49],dword 0x53456963
00009F9B  7436              jz 0x9fd3
00009F9D  7665              jna 0xa004
00009F9F  63746F72          arpl [edi+ebp*2+0x72],si
00009FA3  49                dec ecx
00009FA4  53                push ebx
00009FA5  325F53            xor bl,[edi+0x53]
00009FA8  61                popa
00009FA9  49                dec ecx
00009FAA  53                push ebx
00009FAB  325F45            xor bl,[edi+0x45]
00009FAE  45                inc ebp
00009FAF  45                inc ebp
00009FB0  43                inc ebx
00009FB1  324552            xor al,[ebp+0x52]
00009FB4  4B                dec ebx
00009FB5  53                push ebx
00009FB6  335F00            xor ebx,[edi+0x0]
00009FB9  5F                pop edi
00009FBA  5A                pop edx
00009FBB  4E                dec esi
00009FBC  53                push ebx
00009FBD  7436              jz 0x9ff5
00009FBF  7665              jna 0xa026
00009FC1  63746F72          arpl [edi+ebp*2+0x72],si
00009FC5  49                dec ecx
00009FC6  53                push ebx
00009FC7  5F                pop edi
00009FC8  49                dec ecx
00009FC9  69536149694545    imul edx,[ebx+0x61],dword 0x45456949
00009FD0  53                push ebx
00009FD1  61                popa
00009FD2  49                dec ecx
00009FD3  53                push ebx
00009FD4  315F45            xor [edi+0x45],ebx
00009FD7  45                inc ebp
00009FD8  3138              xor [eax],edi
00009FDA  5F                pop edi
00009FDB  4D                dec ebp
00009FDC  5F                pop edi
00009FDD  66696C6C5F696E    imul bp,[esp+ebp*2+0x5f],word 0x6e69
00009FE4  697469616C697A65  imul esi,[ecx+ebp*2+0x61],dword 0x657a696c
00009FEC  45                inc ebp
00009FED  6A52              push byte +0x52
00009FEF  4B                dec ebx
00009FF0  53                push ebx
00009FF1  315F00            xor [edi+0x0],ebx
00009FF4  5F                pop edi
00009FF5  5A                pop edx
00009FF6  4E                dec esi
00009FF7  395F5F            cmp [edi+0x5f],ebx
00009FFA  676E              a16 outsb
00009FFC  755F              jnz 0xa05d
00009FFE  637878            arpl [eax+0x78],di
0000A001  3133              xor [ebx],esi
0000A003  6E                outsb
0000A004  65775F            gs ja 0xa066
0000A007  61                popa
0000A008  6C                insb
0000A009  6C                insb
0000A00A  6F                outsd
0000A00B  636174            arpl [ecx+0x74],sp
0000A00E  6F                outsd
0000A00F  7249              jc 0xa05a
0000A011  53                push ebx
0000A012  7434              jz 0xa048
0000A014  7061              jo 0xa077
0000A016  69724963694545    imul esi,[edx+0x49],dword 0x45456963
0000A01D  38616C            cmp [ecx+0x6c],ah
0000A020  6C                insb
0000A021  6F                outsd
0000A022  636174            arpl [ecx+0x74],sp
0000A025  6545              gs inc ebp
0000A027  6A50              push byte +0x50
0000A029  4B                dec ebx
0000A02A  7600              jna 0xa02c
0000A02C  5F                pop edi
0000A02D  5A                pop edx
0000A02E  4E                dec esi
0000A02F  395F5F            cmp [edi+0x5f],ebx
0000A032  676E              a16 outsb
0000A034  755F              jnz 0xa095
0000A036  637878            arpl [eax+0x78],di
0000A039  3133              xor [ebx],esi
0000A03B  6E                outsb
0000A03C  65775F            gs ja 0xa09e
0000A03F  61                popa
0000A040  6C                insb
0000A041  6C                insb
0000A042  6F                outsd
0000A043  636174            arpl [ecx+0x74],sp
0000A046  6F                outsd
0000A047  7249              jc 0xa092
0000A049  53                push ebx
0000A04A  7436              jz 0xa082
0000A04C  7665              jna 0xa0b3
0000A04E  63746F72          arpl [edi+ebp*2+0x72],si
0000A052  49                dec ecx
0000A053  69536149694545    imul edx,[ebx+0x61],dword 0x45456949
0000A05A  45                inc ebp
0000A05B  43                inc ebx
0000A05C  324552            xor al,[ebp+0x52]
0000A05F  4B                dec ebx
0000A060  53                push ebx
0000A061  345F              xor al,0x5f
0000A063  005F5A            add [edi+0x5a],bl
0000A066  4E                dec esi
0000A067  4B                dec ebx
0000A068  53                push ebx
0000A069  7436              jz 0xa0a1
0000A06B  7665              jna 0xa0d2
0000A06D  63746F72          arpl [edi+ebp*2+0x72],si
0000A071  49                dec ecx
0000A072  53                push ebx
0000A073  7434              jz 0xa0a9
0000A075  7061              jo 0xa0d8
0000A077  69724963694553    imul esi,[edx+0x49],dword 0x53456963
0000A07E  61                popa
0000A07F  49                dec ecx
0000A080  53                push ebx
0000A081  315F45            xor [edi+0x45],ebx
0000A084  45                inc ebp
0000A085  3562656769        xor eax,0x69676562
0000A08A  6E                outsb
0000A08B  45                inc ebp
0000A08C  7600              jna 0xa08e
0000A08E  5F                pop edi
0000A08F  5A                pop edx
0000A090  53                push ebx
0000A091  7438              jz 0xa0cb
0000A093  5F                pop edi
0000A094  44                inc esp
0000A095  657374            gs jnc 0xa10c
0000A098  726F              jc 0xa109
0000A09A  7949              jns 0xa0e5
0000A09C  50                push eax
0000A09D  53                push ebx
0000A09E  7436              jz 0xa0d6
0000A0A0  7665              jna 0xa107
0000A0A2  63746F72          arpl [edi+ebp*2+0x72],si
0000A0A6  49                dec ecx
0000A0A7  69536149694545    imul edx,[ebx+0x61],dword 0x45456949
0000A0AE  45                inc ebp
0000A0AF  7654              jna 0xa105
0000A0B1  5F                pop edi
0000A0B2  53                push ebx
0000A0B3  345F              xor al,0x5f
0000A0B5  005F5A            add [edi+0x5a],bl
0000A0B8  53                push ebx
0000A0B9  7431              jz 0xa0ec
0000A0BB  38756E            cmp [ebp+0x6e],dh
0000A0BE  696E697469616C    imul ebp,[esi+0x69],dword 0x6c616974
0000A0C5  697A65645F636F    imul edi,[edx+0x65],dword 0x6f635f64
0000A0CC  7079              jo 0xa147
0000A0CE  49                dec ecx
0000A0CF  4E                dec esi
0000A0D0  395F5F            cmp [edi+0x5f],ebx
0000A0D3  676E              a16 outsb
0000A0D5  755F              jnz 0xa136
0000A0D7  637878            arpl [eax+0x78],di
0000A0DA  3137              xor [edi],esi
0000A0DC  5F                pop edi
0000A0DD  5F                pop edi
0000A0DE  6E                outsb
0000A0DF  6F                outsd
0000A0E0  726D              jc 0xa14f
0000A0E2  61                popa
0000A0E3  6C                insb
0000A0E4  5F                pop edi
0000A0E5  6974657261746F72  imul esi,[ebp+0x72],dword 0x726f7461
0000A0ED  49                dec ecx
0000A0EE  50                push eax
0000A0EF  4B                dec ebx
0000A0F0  53                push ebx
0000A0F1  7434              jz 0xa127
0000A0F3  7061              jo 0xa156
0000A0F5  69724963694553    imul esi,[edx+0x49],dword 0x53456963
0000A0FC  7436              jz 0xa134
0000A0FE  7665              jna 0xa165
0000A100  63746F72          arpl [edi+ebp*2+0x72],si
0000A104  49                dec ecx
0000A105  53                push ebx
0000A106  335F53            xor ebx,[edi+0x53]
0000A109  61                popa
0000A10A  49                dec ecx
0000A10B  53                push ebx
0000A10C  335F45            xor ebx,[edi+0x45]
0000A10F  45                inc ebp
0000A110  45                inc ebp
0000A111  45                inc ebp
0000A112  50                push eax
0000A113  53                push ebx
0000A114  335F45            xor ebx,[edi+0x45]
0000A117  54                push esp
0000A118  305F54            xor [edi+0x54],bl
0000A11B  5F                pop edi
0000A11C  53                push ebx
0000A11D  43                inc ebx
0000A11E  5F                pop edi
0000A11F  53                push ebx
0000A120  42                inc edx
0000A121  5F                pop edi
0000A122  005F5A            add [edi+0x5a],bl
0000A125  53                push ebx
0000A126  7432              jz 0xa15a
0000A128  325F5F            xor bl,[edi+0x5f]
0000A12B  636F70            arpl [edi+0x70],bp
0000A12E  795F              jns 0xa18f
0000A130  6D                insd
0000A131  6F                outsd
0000A132  7665              jna 0xa199
0000A134  5F                pop edi
0000A135  626163            bound esp,[ecx+0x63]
0000A138  6B776172          imul esi,[edi+0x61],byte +0x72
0000A13C  645F              fs pop edi
0000A13E  61                popa
0000A13F  49                dec ecx
0000A140  4C                dec esp
0000A141  6230              bound esi,[eax]
0000A143  45                inc ebp
0000A144  50                push eax
0000A145  6953305F455431    imul edx,[ebx+0x30],dword 0x3154455f
0000A14C  5F                pop edi
0000A14D  54                push esp
0000A14E  305F53            xor [edi+0x53],bl
0000A151  325F53            xor bl,[edi+0x53]
0000A154  315F00            xor [edi+0x0],ebx
0000A157  5F                pop edi
0000A158  5A                pop edx
0000A159  4E                dec esi
0000A15A  53                push ebx
0000A15B  7431              jz 0xa18e
0000A15D  325F56            xor bl,[edi+0x56]
0000A160  6563746F72        arpl [gs:edi+ebp*2+0x72],si
0000A165  5F                pop edi
0000A166  626173            bound esp,[ecx+0x73]
0000A169  6549              gs dec ecx
0000A16B  53                push ebx
0000A16C  7434              jz 0xa1a2
0000A16E  7061              jo 0xa1d1
0000A170  69724963694553    imul esi,[edx+0x49],dword 0x53456963
0000A177  61                popa
0000A178  49                dec ecx
0000A179  53                push ebx
0000A17A  315F45            xor [edi+0x45],ebx
0000A17D  45                inc ebp
0000A17E  3132              xor [edx],esi
0000A180  5F                pop edi
0000A181  56                push esi
0000A182  6563746F72        arpl [gs:edi+ebp*2+0x72],si
0000A187  5F                pop edi
0000A188  696D706C443245    imul ebp,[ebp+0x70],dword 0x4532446c
0000A18F  7600              jna 0xa191
0000A191  5F                pop edi
0000A192  5A                pop edx
0000A193  53                push ebx
0000A194  7438              jz 0xa1ce
0000A196  5F                pop edi
0000A197  44                inc esp
0000A198  657374            gs jnc 0xa20f
0000A19B  726F              jc 0xa20c
0000A19D  7949              jns 0xa1e8
0000A19F  53                push ebx
0000A1A0  7436              jz 0xa1d8
0000A1A2  7665              jna 0xa209
0000A1A4  63746F72          arpl [edi+ebp*2+0x72],si
0000A1A8  49                dec ecx
0000A1A9  69536149694545    imul edx,[ebx+0x61],dword 0x45456949
0000A1B0  45                inc ebp
0000A1B1  7650              jna 0xa203
0000A1B3  54                push esp
0000A1B4  5F                pop edi
0000A1B5  005F5A            add [edi+0x5a],bl
0000A1B8  4E                dec esi
0000A1B9  4B                dec ebx
0000A1BA  53                push ebx
0000A1BB  7436              jz 0xa1f3
0000A1BD  7665              jna 0xa224
0000A1BF  63746F72          arpl [edi+ebp*2+0x72],si
0000A1C3  49                dec ecx
0000A1C4  53                push ebx
0000A1C5  7434              jz 0xa1fb
0000A1C7  7061              jo 0xa22a
0000A1C9  69724963694553    imul esi,[edx+0x49],dword 0x53456963
0000A1D0  61                popa
0000A1D1  49                dec ecx
0000A1D2  53                push ebx
0000A1D3  315F45            xor [edi+0x45],ebx
0000A1D6  45                inc ebp
0000A1D7  386D61            cmp [ebp+0x61],ch
0000A1DA  785F              js 0xa23b
0000A1DC  7369              jnc 0xa247
0000A1DE  7A65              jpe 0xa245
0000A1E0  45                inc ebp
0000A1E1  7600              jna 0xa1e3
0000A1E3  5F                pop edi
0000A1E4  5A                pop edx
0000A1E5  4E                dec esi
0000A1E6  395F5F            cmp [edi+0x5f],ebx
0000A1E9  676E              a16 outsb
0000A1EB  755F              jnz 0xa24c
0000A1ED  637878            arpl [eax+0x78],di
0000A1F0  3133              xor [ebx],esi
0000A1F2  6E                outsb
0000A1F3  65775F            gs ja 0xa255
0000A1F6  61                popa
0000A1F7  6C                insb
0000A1F8  6C                insb
0000A1F9  6F                outsd
0000A1FA  636174            arpl [ecx+0x74],sp
0000A1FD  6F                outsd
0000A1FE  7249              jc 0xa249
0000A200  69454432457600    imul eax,[ebp+0x44],dword 0x764532
0000A207  5F                pop edi
0000A208  5A                pop edx
0000A209  4E                dec esi
0000A20A  395F5F            cmp [edi+0x5f],ebx
0000A20D  676E              a16 outsb
0000A20F  755F              jnz 0xa270
0000A211  637878            arpl [eax+0x78],di
0000A214  3137              xor [edi],esi
0000A216  5F                pop edi
0000A217  5F                pop edi
0000A218  6E                outsb
0000A219  6F                outsd
0000A21A  726D              jc 0xa289
0000A21C  61                popa
0000A21D  6C                insb
0000A21E  5F                pop edi
0000A21F  6974657261746F72  imul esi,[ebp+0x72],dword 0x726f7461
0000A227  49                dec ecx
0000A228  50                push eax
0000A229  53                push ebx
0000A22A  7434              jz 0xa260
0000A22C  7061              jo 0xa28f
0000A22E  69724963694553    imul esi,[edx+0x49],dword 0x53456963
0000A235  7436              jz 0xa26d
0000A237  7665              jna 0xa29e
0000A239  63746F72          arpl [edi+ebp*2+0x72],si
0000A23D  49                dec ecx
0000A23E  53                push ebx
0000A23F  325F53            xor bl,[edi+0x53]
0000A242  61                popa
0000A243  49                dec ecx
0000A244  53                push ebx
0000A245  325F45            xor bl,[edi+0x45]
0000A248  45                inc ebp
0000A249  45                inc ebp
0000A24A  43                inc ebx
0000A24B  314552            xor [ebp+0x52],eax
0000A24E  4B                dec ebx
0000A24F  53                push ebx
0000A250  335F00            xor ebx,[edi+0x0]
0000A253  5F                pop edi
0000A254  5F                pop edi
0000A255  6C                insb
0000A256  6962635F737461    imul esp,[edx+0x63],dword 0x6174735f
0000A25D  7274              jc 0xa2d3
0000A25F  5F                pop edi
0000A260  6D                insd
0000A261  61                popa
0000A262  696E4040474C49    imul ebp,[esi+0x40],dword 0x494c4740
0000A269  42                inc edx
0000A26A  43                inc ebx
0000A26B  5F                pop edi
0000A26C  322E              xor ch,[esi]
0000A26E  3000              xor [eax],al
0000A270  5F                pop edi
0000A271  5A                pop edx
0000A272  53                push ebx
0000A273  7438              jz 0xa2ad
0000A275  5F                pop edi
0000A276  44                inc esp
0000A277  657374            gs jnc 0xa2ee
0000A27A  726F              jc 0xa2eb
0000A27C  7949              jns 0xa2c7
0000A27E  50                push eax
0000A27F  69694576545F53    imul ebp,[ecx+0x45],dword 0x535f5476
0000A286  315F52            xor [edi+0x52],ebx
0000A289  53                push ebx
0000A28A  61                popa
0000A28B  49                dec ecx
0000A28C  54                push esp
0000A28D  305F45            xor [edi+0x45],bl
0000A290  005F5A            add [edi+0x5a],bl
0000A293  4E                dec esi
0000A294  53                push ebx
0000A295  7431              jz 0xa2c8
0000A297  325F56            xor bl,[edi+0x56]
0000A29A  6563746F72        arpl [gs:edi+ebp*2+0x72],si
0000A29F  5F                pop edi
0000A2A0  626173            bound esp,[ecx+0x73]
0000A2A3  6549              gs dec ecx
0000A2A5  69536149694545    imul edx,[ebx+0x61],dword 0x45456949
0000A2AC  3132              xor [edx],esi
0000A2AE  5F                pop edi
0000A2AF  56                push esi
0000A2B0  6563746F72        arpl [gs:edi+ebp*2+0x72],si
0000A2B5  5F                pop edi
0000A2B6  696D706C433145    imul ebp,[ebp+0x70],dword 0x4531436c
0000A2BD  52                push edx
0000A2BE  4B                dec ebx
0000A2BF  53                push ebx
0000A2C0  305F00            xor [edi+0x0],bl
0000A2C3  5F                pop edi
0000A2C4  5A                pop edx
0000A2C5  4E                dec esi
0000A2C6  53                push ebx
0000A2C7  7436              jz 0xa2ff
0000A2C9  7665              jna 0xa330
0000A2CB  63746F72          arpl [edi+ebp*2+0x72],si
0000A2CF  49                dec ecx
0000A2D0  53                push ebx
0000A2D1  7434              jz 0xa307
0000A2D3  7061              jo 0xa336
0000A2D5  69724963694553    imul esi,[edx+0x49],dword 0x53456963
0000A2DC  61                popa
0000A2DD  49                dec ecx
0000A2DE  53                push ebx
0000A2DF  315F45            xor [edi+0x45],ebx
0000A2E2  45                inc ebp
0000A2E3  43                inc ebx
0000A2E4  314552            xor [ebp+0x52],eax
0000A2E7  4B                dec ebx
0000A2E8  53                push ebx
0000A2E9  335F00            xor ebx,[edi+0x0]
0000A2EC  5F                pop edi
0000A2ED  5A                pop edx
0000A2EE  4E                dec esi
0000A2EF  53                push ebx
0000A2F0  7436              jz 0xa328
0000A2F2  7665              jna 0xa359
0000A2F4  63746F72          arpl [edi+ebp*2+0x72],si
0000A2F8  49                dec ecx
0000A2F9  69536149694545    imul edx,[ebx+0x61],dword 0x45456949
0000A300  43                inc ebx
0000A301  314552            xor [ebp+0x52],eax
0000A304  4B                dec ebx
0000A305  53                push ebx
0000A306  315F00            xor [edi+0x0],ebx
0000A309  5F                pop edi
0000A30A  5A                pop edx
0000A30B  53                push ebx
0000A30C  7432              jz 0xa340
0000A30E  315F5F            xor [edi+0x5f],ebx
0000A311  756E              jnz 0xa381
0000A313  677561            a16 jnz 0xa377
0000A316  7264              jc 0xa37c
0000A318  65645F            fs pop edi
0000A31B  7061              jo 0xa37e
0000A31D  7274              jc 0xa393
0000A31F  6974696F6E494E39  imul esi,[ecx+ebp*2+0x6f],dword 0x394e496e
0000A327  5F                pop edi
0000A328  5F                pop edi
0000A329  676E              a16 outsb
0000A32B  755F              jnz 0xa38c
0000A32D  637878            arpl [eax+0x78],di
0000A330  3137              xor [edi],esi
0000A332  5F                pop edi
0000A333  5F                pop edi
0000A334  6E                outsb
0000A335  6F                outsd
0000A336  726D              jc 0xa3a5
0000A338  61                popa
0000A339  6C                insb
0000A33A  5F                pop edi
0000A33B  6974657261746F72  imul esi,[ebp+0x72],dword 0x726f7461
0000A343  49                dec ecx
0000A344  50                push eax
0000A345  69537436766563    imul edx,[ebx+0x74],dword 0x63657636
0000A34C  746F              jz 0xa3bd
0000A34E  7249              jc 0xa399
0000A350  69536149694545    imul edx,[ebx+0x61],dword 0x45456949
0000A357  45                inc ebp
0000A358  45                inc ebp
0000A359  6945545F53375F    imul eax,[ebp+0x54],dword 0x5f37535f
0000A360  53                push ebx
0000A361  37                aaa
0000A362  5F                pop edi
0000A363  52                push edx
0000A364  4B                dec ebx
0000A365  54                push esp
0000A366  305F00            xor [edi+0x0],bl
0000A369  5F                pop edi
0000A36A  5A                pop edx
0000A36B  4E                dec esi
0000A36C  53                push ebx
0000A36D  7432              jz 0xa3a1
0000A36F  305F5F            xor [edi+0x5f],bl
0000A372  636F70            arpl [edi+0x70],bp
0000A375  795F              jns 0xa3d6
0000A377  6D                insd
0000A378  6F                outsd
0000A379  7665              jna 0xa3e0
0000A37B  5F                pop edi
0000A37C  626163            bound esp,[ecx+0x63]
0000A37F  6B776172          imul esi,[edi+0x61],byte +0x72
0000A383  6449              fs dec ecx
0000A385  4C                dec esp
0000A386  6230              bound esi,[eax]
0000A388  45                inc ebp
0000A389  4C                dec esp
0000A38A  6231              bound esi,[ecx]
0000A38C  45                inc ebp
0000A38D  53                push ebx
0000A38E  7432              jz 0xa3c2
0000A390  367261            ss jc 0xa3f4
0000A393  6E                outsb
0000A394  646F              fs outsd
0000A396  6D                insd
0000A397  5F                pop edi
0000A398  61                popa
0000A399  636365            arpl [ebx+0x65],sp
0000A39C  7373              jnc 0xa411
0000A39E  5F                pop edi
0000A39F  6974657261746F72  imul esi,[ebp+0x72],dword 0x726f7461
0000A3A7  5F                pop edi
0000A3A8  7461              jz 0xa40b
0000A3AA  6745              a16 inc ebp
0000A3AC  3133              xor [ebx],esi
0000A3AE  5F                pop edi
0000A3AF  5F                pop edi
0000A3B0  636F70            arpl [edi+0x70],bp
0000A3B3  795F              jns 0xa414
0000A3B5  6D                insd
0000A3B6  6F                outsd
0000A3B7  7665              jna 0xa41e
0000A3B9  5F                pop edi
0000A3BA  624969            bound ecx,[ecx+0x69]
0000A3BD  45                inc ebp
0000A3BE  45                inc ebp
0000A3BF  50                push eax
0000A3C0  54                push esp
0000A3C1  5F                pop edi
0000A3C2  50                push eax
0000A3C3  4B                dec ebx
0000A3C4  53                push ebx
0000A3C5  335F53            xor ebx,[edi+0x53]
0000A3C8  365F              ss pop edi
0000A3CA  53                push ebx
0000A3CB  345F              xor al,0x5f
0000A3CD  005F5A            add [edi+0x5a],bl
0000A3D0  4E                dec esi
0000A3D1  395F5F            cmp [edi+0x5f],ebx
0000A3D4  676E              a16 outsb
0000A3D6  755F              jnz 0xa437
0000A3D8  637878            arpl [eax+0x78],di
0000A3DB  3133              xor [ebx],esi
0000A3DD  6E                outsb
0000A3DE  65775F            gs ja 0xa440
0000A3E1  61                popa
0000A3E2  6C                insb
0000A3E3  6C                insb
0000A3E4  6F                outsd
0000A3E5  636174            arpl [ecx+0x74],sp
0000A3E8  6F                outsd
0000A3E9  7249              jc 0xa434
0000A3EB  53                push ebx
0000A3EC  7436              jz 0xa424
0000A3EE  7665              jna 0xa455
0000A3F0  63746F72          arpl [edi+ebp*2+0x72],si
0000A3F4  49                dec ecx
0000A3F5  53                push ebx
0000A3F6  7434              jz 0xa42c
0000A3F8  7061              jo 0xa45b
0000A3FA  69724963694553    imul esi,[edx+0x49],dword 0x53456963
0000A401  61                popa
0000A402  49                dec ecx
0000A403  53                push ebx
0000A404  335F45            xor ebx,[edi+0x45]
0000A407  45                inc ebp
0000A408  45                inc ebp
0000A409  43                inc ebx
0000A40A  314576            xor [ebp+0x76],eax
0000A40D  005F5A            add [edi+0x5a],bl
0000A410  53                push ebx
0000A411  7439              jz 0xa44c
0000A413  6D                insd
0000A414  61                popa
0000A415  6B655F68          imul esp,[ebp+0x5f],byte +0x68
0000A419  6561              gs popa
0000A41B  7049              jo 0xa466
0000A41D  4E                dec esi
0000A41E  395F5F            cmp [edi+0x5f],ebx
0000A421  676E              a16 outsb
0000A423  755F              jnz 0xa484
0000A425  637878            arpl [eax+0x78],di
0000A428  3137              xor [edi],esi
0000A42A  5F                pop edi
0000A42B  5F                pop edi
0000A42C  6E                outsb
0000A42D  6F                outsd
0000A42E  726D              jc 0xa49d
0000A430  61                popa
0000A431  6C                insb
0000A432  5F                pop edi
0000A433  6974657261746F72  imul esi,[ebp+0x72],dword 0x726f7461
0000A43B  49                dec ecx
0000A43C  50                push eax
0000A43D  69537436766563    imul edx,[ebx+0x74],dword 0x63657636
0000A444  746F              jz 0xa4b5
0000A446  7249              jc 0xa491
0000A448  69536149694545    imul edx,[ebx+0x61],dword 0x45456949
0000A44F  45                inc ebp
0000A450  45                inc ebp
0000A451  45                inc ebp
0000A452  7654              jna 0xa4a8
0000A454  5F                pop edi
0000A455  53                push ebx
0000A456  37                aaa
0000A457  5F                pop edi
0000A458  005F5A            add [edi+0x5a],bl
0000A45B  4E                dec esi
0000A45C  53                push ebx
0000A45D  7436              jz 0xa495
0000A45F  7665              jna 0xa4c6
0000A461  63746F72          arpl [edi+ebp*2+0x72],si
0000A465  49                dec ecx
0000A466  69536149694545    imul edx,[ebx+0x61],dword 0x45456949
0000A46D  44                inc esp
0000A46E  314576            xor [ebp+0x76],eax
0000A471  005F5A            add [edi+0x5a],bl
0000A474  4E                dec esi
0000A475  395F5F            cmp [edi+0x5f],ebx
0000A478  676E              a16 outsb
0000A47A  755F              jnz 0xa4db
0000A47C  637878            arpl [eax+0x78],di
0000A47F  6E                outsb
0000A480  6549              gs dec ecx
0000A482  50                push eax
0000A483  4B                dec ebx
0000A484  53                push ebx
0000A485  7434              jz 0xa4bb
0000A487  7061              jo 0xa4ea
0000A489  69724963694553    imul esi,[edx+0x49],dword 0x53456963
0000A490  7436              jz 0xa4c8
0000A492  7665              jna 0xa4f9
0000A494  63746F72          arpl [edi+ebp*2+0x72],si
0000A498  49                dec ecx
0000A499  53                push ebx
0000A49A  325F53            xor bl,[edi+0x53]
0000A49D  61                popa
0000A49E  49                dec ecx
0000A49F  53                push ebx
0000A4A0  325F45            xor bl,[edi+0x45]
0000A4A3  45                inc ebp
0000A4A4  45                inc ebp
0000A4A5  45                inc ebp
0000A4A6  62524B            bound edx,[edx+0x4b]
0000A4A9  4E                dec esi
0000A4AA  53                push ebx
0000A4AB  5F                pop edi
0000A4AC  3137              xor [edi],esi
0000A4AE  5F                pop edi
0000A4AF  5F                pop edi
0000A4B0  6E                outsb
0000A4B1  6F                outsd
0000A4B2  726D              jc 0xa521
0000A4B4  61                popa
0000A4B5  6C                insb
0000A4B6  5F                pop edi
0000A4B7  6974657261746F72  imul esi,[ebp+0x72],dword 0x726f7461
0000A4BF  49                dec ecx
0000A4C0  54                push esp
0000A4C1  5F                pop edi
0000A4C2  54                push esp
0000A4C3  305F45            xor [edi+0x45],bl
0000A4C6  45                inc ebp
0000A4C7  53                push ebx
0000A4C8  44                inc esp
0000A4C9  5F                pop edi
0000A4CA  005F5A            add [edi+0x5a],bl
0000A4CD  4E                dec esi
0000A4CE  395F5F            cmp [edi+0x5f],ebx
0000A4D1  676E              a16 outsb
0000A4D3  755F              jnz 0xa534
0000A4D5  637878            arpl [eax+0x78],di
0000A4D8  3133              xor [ebx],esi
0000A4DA  6E                outsb
0000A4DB  65775F            gs ja 0xa53d
0000A4DE  61                popa
0000A4DF  6C                insb
0000A4E0  6C                insb
0000A4E1  6F                outsd
0000A4E2  636174            arpl [ecx+0x74],sp
0000A4E5  6F                outsd
0000A4E6  7249              jc 0xa531
0000A4E8  53                push ebx
0000A4E9  7436              jz 0xa521
0000A4EB  7665              jna 0xa552
0000A4ED  63746F72          arpl [edi+ebp*2+0x72],si
0000A4F1  49                dec ecx
0000A4F2  53                push ebx
0000A4F3  7434              jz 0xa529
0000A4F5  7061              jo 0xa558
0000A4F7  69724963694553    imul esi,[edx+0x49],dword 0x53456963
0000A4FE  61                popa
0000A4FF  49                dec ecx
0000A500  53                push ebx
0000A501  335F45            xor ebx,[edi+0x45]
0000A504  45                inc ebp
0000A505  45                inc ebp
0000A506  43                inc ebx
0000A507  314552            xor [ebp+0x52],eax
0000A50A  4B                dec ebx
0000A50B  53                push ebx
0000A50C  365F              ss pop edi
0000A50E  005F5A            add [edi+0x5a],bl
0000A511  4E                dec esi
0000A512  395F5F            cmp [edi+0x5f],ebx
0000A515  676E              a16 outsb
0000A517  755F              jnz 0xa578
0000A519  637878            arpl [eax+0x78],di
0000A51C  3133              xor [ebx],esi
0000A51E  6E                outsb
0000A51F  65775F            gs ja 0xa581
0000A522  61                popa
0000A523  6C                insb
0000A524  6C                insb
0000A525  6F                outsd
0000A526  636174            arpl [ecx+0x74],sp
0000A529  6F                outsd
0000A52A  7249              jc 0xa575
0000A52C  69453130646561    imul eax,[ebp+0x31],dword 0x61656430
0000A533  6C                insb
0000A534  6C                insb
0000A535  6F                outsd
0000A536  636174            arpl [ecx+0x74],sp
0000A539  6545              gs inc ebp
0000A53B  50                push eax
0000A53C  696A005F5A4E4B    imul ebp,[edx+0x0],dword 0x4b4e5a5f
0000A543  53                push ebx
0000A544  7436              jz 0xa57c
0000A546  7665              jna 0xa5ad
0000A548  63746F72          arpl [edi+ebp*2+0x72],si
0000A54C  49                dec ecx
0000A54D  53                push ebx
0000A54E  7434              jz 0xa584
0000A550  7061              jo 0xa5b3
0000A552  69724963694553    imul esi,[edx+0x49],dword 0x53456963
0000A559  61                popa
0000A55A  49                dec ecx
0000A55B  53                push ebx
0000A55C  315F45            xor [edi+0x45],ebx
0000A55F  45                inc ebp
0000A560  33656E            xor esp,[ebp+0x6e]
0000A563  6445              fs inc ebp
0000A565  7600              jna 0xa567
0000A567  5F                pop edi
0000A568  5A                pop edx
0000A569  4E                dec esi
0000A56A  53                push ebx
0000A56B  7431              jz 0xa59e
0000A56D  325F56            xor bl,[edi+0x56]
0000A570  6563746F72        arpl [gs:edi+ebp*2+0x72],si
0000A575  5F                pop edi
0000A576  626173            bound esp,[ecx+0x73]
0000A579  6549              gs dec ecx
0000A57B  53                push ebx
0000A57C  7436              jz 0xa5b4
0000A57E  7665              jna 0xa5e5
0000A580  63746F72          arpl [edi+ebp*2+0x72],si
0000A584  49                dec ecx
0000A585  53                push ebx
0000A586  7434              jz 0xa5bc
0000A588  7061              jo 0xa5eb
0000A58A  69724963694553    imul esi,[edx+0x49],dword 0x53456963
0000A591  61                popa
0000A592  49                dec ecx
0000A593  53                push ebx
0000A594  325F45            xor bl,[edi+0x45]
0000A597  45                inc ebp
0000A598  53                push ebx
0000A599  61                popa
0000A59A  49                dec ecx
0000A59B  53                push ebx
0000A59C  345F              xor al,0x5f
0000A59E  45                inc ebp
0000A59F  45                inc ebp
0000A5A0  3132              xor [edx],esi
0000A5A2  5F                pop edi
0000A5A3  56                push esi
0000A5A4  6563746F72        arpl [gs:edi+ebp*2+0x72],si
0000A5A9  5F                pop edi
0000A5AA  696D706C433245    imul ebp,[ebp+0x70],dword 0x4532436c
0000A5B1  52                push edx
0000A5B2  4B                dec ebx
0000A5B3  53                push ebx
0000A5B4  355F005F5A        xor eax,0x5a5f005f
0000A5B9  4E                dec esi
0000A5BA  53                push ebx
0000A5BB  7438              jz 0xa5f5
0000A5BD  696F735F626173    imul ebp,[edi+0x73],dword 0x7361625f
0000A5C4  653449            gs xor al,0x49
0000A5C7  6E                outsb
0000A5C8  6974443145764040  imul esi,[esp+eax*2+0x31],dword 0x40407645
0000A5D0  47                inc edi
0000A5D1  4C                dec esp
0000A5D2  49                dec ecx
0000A5D3  42                inc edx
0000A5D4  43                inc ebx
0000A5D5  58                pop eax
0000A5D6  58                pop eax
0000A5D7  5F                pop edi
0000A5D8  332E              xor ebp,[esi]
0000A5DA  3400              xor al,0x0
0000A5DC  5F                pop edi
0000A5DD  5A                pop edx
0000A5DE  4E                dec esi
0000A5DF  53                push ebx
0000A5E0  7431              jz 0xa613
0000A5E2  325F56            xor bl,[edi+0x56]
0000A5E5  6563746F72        arpl [gs:edi+ebp*2+0x72],si
0000A5EA  5F                pop edi
0000A5EB  626173            bound esp,[ecx+0x73]
0000A5EE  6549              gs dec ecx
0000A5F0  69536149694545    imul edx,[ebx+0x61],dword 0x45456949
0000A5F7  3132              xor [edx],esi
0000A5F9  5F                pop edi
0000A5FA  56                push esi
0000A5FB  6563746F72        arpl [gs:edi+ebp*2+0x72],si
0000A600  5F                pop edi
0000A601  696D706C443245    imul ebp,[ebp+0x70],dword 0x4532446c
0000A608  7600              jna 0xa60a
0000A60A  5F                pop edi
0000A60B  49                dec ecx
0000A60C  54                push esp
0000A60D  4D                dec ebp
0000A60E  5F                pop edi
0000A60F  64657265          gs jc 0xa678
0000A613  676973746572544D  imul esi,[bp+di+0x74],dword 0x4d547265
0000A61B  43                inc ebx
0000A61C  6C                insb
0000A61D  6F                outsd
0000A61E  6E                outsb
0000A61F  6554              gs push esp
0000A621  61                popa
0000A622  626C6500          bound ebp,[ebp+0x0]
0000A626  5F                pop edi
0000A627  5A                pop edx
0000A628  53                push ebx
0000A629  7432              jz 0xa65d
0000A62B  335F5F            xor ebx,[edi+0x5f]
0000A62E  636F70            arpl [edi+0x70],bp
0000A631  795F              jns 0xa692
0000A633  6D                insd
0000A634  6F                outsd
0000A635  7665              jna 0xa69c
0000A637  5F                pop edi
0000A638  626163            bound esp,[ecx+0x63]
0000A63B  6B776172          imul esi,[edi+0x61],byte +0x72
0000A63F  645F              fs pop edi
0000A641  61                popa
0000A642  32494C            xor cl,[ecx+0x4c]
0000A645  6230              bound esi,[eax]
0000A647  45                inc ebp
0000A648  50                push eax
0000A649  53                push ebx
0000A64A  7434              jz 0xa680
0000A64C  7061              jo 0xa6af
0000A64E  69724963694553    imul esi,[edx+0x49],dword 0x53456963
0000A655  325F45            xor bl,[edi+0x45]
0000A658  54                push esp
0000A659  315F54            xor [edi+0x54],ebx
0000A65C  305F53            xor [edi+0x53],bl
0000A65F  345F              xor al,0x5f
0000A661  53                push ebx
0000A662  335F00            xor ebx,[edi+0x0]
0000A665  5F                pop edi
0000A666  5A                pop edx
0000A667  53                push ebx
0000A668  7431              jz 0xa69b
0000A66A  325F5F            xor bl,[edi+0x5f]
0000A66D  6D                insd
0000A66E  697465725F626173  imul esi,[ebp+0x72],dword 0x7361625f
0000A676  6549              gs dec ecx
0000A678  4E                dec esi
0000A679  395F5F            cmp [edi+0x5f],ebx
0000A67C  676E              a16 outsb
0000A67E  755F              jnz 0xa6df
0000A680  637878            arpl [eax+0x78],di
0000A683  3137              xor [edi],esi
0000A685  5F                pop edi
0000A686  5F                pop edi
0000A687  6E                outsb
0000A688  6F                outsd
0000A689  726D              jc 0xa6f8
0000A68B  61                popa
0000A68C  6C                insb
0000A68D  5F                pop edi
0000A68E  6974657261746F72  imul esi,[ebp+0x72],dword 0x726f7461
0000A696  49                dec ecx
0000A697  50                push eax
0000A698  69537436766563    imul edx,[ebx+0x74],dword 0x63657636
0000A69F  746F              jz 0xa710
0000A6A1  7249              jc 0xa6ec
0000A6A3  69536149694545    imul edx,[ebx+0x61],dword 0x45456949
0000A6AA  45                inc ebp
0000A6AB  45                inc ebp
0000A6AC  45                inc ebp
0000A6AD  4E                dec esi
0000A6AE  53                push ebx
0000A6AF  7431              jz 0xa6e2
0000A6B1  315F4D            xor [edi+0x4d],ebx
0000A6B4  697465725F626173  imul esi,[ebp+0x72],dword 0x7361625f
0000A6BC  6549              gs dec ecx
0000A6BE  54                push esp
0000A6BF  5F                pop edi
0000A6C0  45                inc ebp
0000A6C1  3133              xor [ebx],esi
0000A6C3  6974657261746F72  imul esi,[ebp+0x72],dword 0x726f7461
0000A6CB  5F                pop edi
0000A6CC  7479              jz 0xa747
0000A6CE  7065              jo 0xa735
0000A6D0  45                inc ebp
0000A6D1  53                push ebx
0000A6D2  385F00            cmp [edi+0x0],bl
0000A6D5  5F                pop edi
0000A6D6  5A                pop edx
0000A6D7  4E                dec esi
0000A6D8  53                push ebx
0000A6D9  61                popa
0000A6DA  49                dec ecx
0000A6DB  53                push ebx
0000A6DC  7436              jz 0xa714
0000A6DE  7665              jna 0xa745
0000A6E0  63746F72          arpl [edi+ebp*2+0x72],si
0000A6E4  49                dec ecx
0000A6E5  53                push ebx
0000A6E6  7434              jz 0xa71c
0000A6E8  7061              jo 0xa74b
0000A6EA  69724963694553    imul esi,[edx+0x49],dword 0x53456963
0000A6F1  61                popa
0000A6F2  49                dec ecx
0000A6F3  53                push ebx
0000A6F4  315F45            xor [edi+0x45],ebx
0000A6F7  45                inc ebp
0000A6F8  45                inc ebp
0000A6F9  43                inc ebx
0000A6FA  324552            xor al,[ebp+0x52]
0000A6FD  4B                dec ebx
0000A6FE  53                push ebx
0000A6FF  345F              xor al,0x5f
0000A701  005F5A            add [edi+0x5a],bl
0000A704  4E                dec esi
0000A705  53                push ebx
0000A706  7434              jz 0xa73c
0000A708  7061              jo 0xa76b
0000A70A  69724963694543    imul esi,[edx+0x49],dword 0x43456963
0000A711  324552            xor al,[ebp+0x52]
0000A714  4B                dec ebx
0000A715  63524B            arpl [edx+0x4b],dx
0000A718  69005F5A4E53      imul eax,[eax],dword 0x534e5a5f
0000A71E  7436              jz 0xa756
0000A720  7665              jna 0xa787
0000A722  63746F72          arpl [edi+ebp*2+0x72],si
0000A726  49                dec ecx
0000A727  69536149694545    imul edx,[ebx+0x61],dword 0x45456949
0000A72E  43                inc ebx
0000A72F  31456A            xor [ebp+0x6a],eax
0000A732  52                push edx
0000A733  4B                dec ebx
0000A734  69524B53305F00    imul edx,[edx+0x4b],dword 0x5f3053
0000A73B  5F                pop edi
0000A73C  5A                pop edx
0000A73D  4E                dec esi
0000A73E  53                push ebx
0000A73F  7431              jz 0xa772
0000A741  325F56            xor bl,[edi+0x56]
0000A744  6563746F72        arpl [gs:edi+ebp*2+0x72],si
0000A749  5F                pop edi
0000A74A  626173            bound esp,[ecx+0x73]
0000A74D  6549              gs dec ecx
0000A74F  53                push ebx
0000A750  7434              jz 0xa786
0000A752  7061              jo 0xa7b5
0000A754  69724963694553    imul esi,[edx+0x49],dword 0x53456963
0000A75B  61                popa
0000A75C  49                dec ecx
0000A75D  53                push ebx
0000A75E  315F45            xor [edi+0x45],ebx
0000A761  45                inc ebp
0000A762  3133              xor [ebx],esi
0000A764  5F                pop edi
0000A765  4D                dec ebp
0000A766  5F                pop edi
0000A767  646561            gs popa
0000A76A  6C                insb
0000A76B  6C                insb
0000A76C  6F                outsd
0000A76D  636174            arpl [ecx+0x74],sp
0000A770  6545              gs inc ebp
0000A772  50                push eax
0000A773  53                push ebx
0000A774  315F6A            xor [edi+0x6a],ebx
0000A777  005F49            add [edi+0x49],bl
0000A77A  4F                dec edi
0000A77B  5F                pop edi
0000A77C  7374              jnc 0xa7f2
0000A77E  64696E5F75736564  imul ebp,[fs:esi+0x5f],dword 0x64657375
0000A786  005F5A            add [edi+0x5a],bl
0000A789  4E                dec esi
0000A78A  53                push ebx
0000A78B  7431              jz 0xa7be
0000A78D  325F56            xor bl,[edi+0x56]
0000A790  6563746F72        arpl [gs:edi+ebp*2+0x72],si
0000A795  5F                pop edi
0000A796  626173            bound esp,[ecx+0x73]
0000A799  6549              gs dec ecx
0000A79B  69536149694545    imul edx,[ebx+0x61],dword 0x45456949
0000A7A2  3139              xor [ecx],edi
0000A7A4  5F                pop edi
0000A7A5  4D                dec ebp
0000A7A6  5F                pop edi
0000A7A7  6765745F          gs a16 jz 0xa80a
0000A7AB  54                push esp
0000A7AC  705F              jo 0xa80d
0000A7AE  61                popa
0000A7AF  6C                insb
0000A7B0  6C                insb
0000A7B1  6F                outsd
0000A7B2  636174            arpl [ecx+0x74],sp
0000A7B5  6F                outsd
0000A7B6  7245              jc 0xa7fd
0000A7B8  7600              jna 0xa7ba
0000A7BA  5F                pop edi
0000A7BB  5A                pop edx
0000A7BC  6E                outsb
0000A7BD  776A              ja 0xa829
0000A7BF  50                push eax
0000A7C0  7600              jna 0xa7c2
0000A7C2  5F                pop edi
0000A7C3  5A                pop edx
0000A7C4  4E                dec esi
0000A7C5  53                push ebx
0000A7C6  7431              jz 0xa7f9
0000A7C8  325F56            xor bl,[edi+0x56]
0000A7CB  6563746F72        arpl [gs:edi+ebp*2+0x72],si
0000A7D0  5F                pop edi
0000A7D1  626173            bound esp,[ecx+0x73]
0000A7D4  6549              gs dec ecx
0000A7D6  53                push ebx
0000A7D7  7436              jz 0xa80f
0000A7D9  7665              jna 0xa840
0000A7DB  63746F72          arpl [edi+ebp*2+0x72],si
0000A7DF  49                dec ecx
0000A7E0  53                push ebx
0000A7E1  7434              jz 0xa817
0000A7E3  7061              jo 0xa846
0000A7E5  69724963694553    imul esi,[edx+0x49],dword 0x53456963
0000A7EC  61                popa
0000A7ED  49                dec ecx
0000A7EE  53                push ebx
0000A7EF  325F45            xor bl,[edi+0x45]
0000A7F2  45                inc ebp
0000A7F3  53                push ebx
0000A7F4  61                popa
0000A7F5  49                dec ecx
0000A7F6  53                push ebx
0000A7F7  345F              xor al,0x5f
0000A7F9  45                inc ebp
0000A7FA  45                inc ebp
0000A7FB  3132              xor [edx],esi
0000A7FD  5F                pop edi
0000A7FE  56                push esi
0000A7FF  6563746F72        arpl [gs:edi+ebp*2+0x72],si
0000A804  5F                pop edi
0000A805  696D706C443145    imul ebp,[ebp+0x70],dword 0x4531446c
0000A80C  7600              jna 0xa80e
0000A80E  5F                pop edi
0000A80F  5A                pop edx
0000A810  4E                dec esi
0000A811  395F5F            cmp [edi+0x5f],ebx
0000A814  676E              a16 outsb
0000A816  755F              jnz 0xa877
0000A818  637878            arpl [eax+0x78],di
0000A81B  3137              xor [edi],esi
0000A81D  5F                pop edi
0000A81E  5F                pop edi
0000A81F  6E                outsb
0000A820  6F                outsd
0000A821  726D              jc 0xa890
0000A823  61                popa
0000A824  6C                insb
0000A825  5F                pop edi
0000A826  6974657261746F72  imul esi,[ebp+0x72],dword 0x726f7461
0000A82E  49                dec ecx
0000A82F  50                push eax
0000A830  4B                dec ebx
0000A831  69537436766563    imul edx,[ebx+0x74],dword 0x63657636
0000A838  746F              jz 0xa8a9
0000A83A  7249              jc 0xa885
0000A83C  69536149694545    imul edx,[ebx+0x61],dword 0x45456949
0000A843  45                inc ebp
0000A844  43                inc ebx
0000A845  324552            xor al,[ebp+0x52]
0000A848  4B                dec ebx
0000A849  53                push ebx
0000A84A  325F00            xor bl,[edi+0x0]
0000A84D  5F                pop edi
0000A84E  5A                pop edx
0000A84F  53                push ebx
0000A850  7432              jz 0xa884
0000A852  345F              xor al,0x5f
0000A854  5F                pop edi
0000A855  756E              jnz 0xa8c5
0000A857  696E697469616C    imul ebp,[esi+0x69],dword 0x6c616974
0000A85E  697A65645F6669    imul edi,[edx+0x65],dword 0x69665f64
0000A865  6C                insb
0000A866  6C                insb
0000A867  5F                pop edi
0000A868  6E                outsb
0000A869  5F                pop edi
0000A86A  61                popa
0000A86B  49                dec ecx
0000A86C  50                push eax
0000A86D  53                push ebx
0000A86E  7436              jz 0xa8a6
0000A870  7665              jna 0xa8d7
0000A872  63746F72          arpl [edi+ebp*2+0x72],si
0000A876  49                dec ecx
0000A877  69536149694545    imul edx,[ebx+0x61],dword 0x45456949
0000A87E  6A53              push byte +0x53
0000A880  325F53            xor bl,[edi+0x53]
0000A883  325F45            xor bl,[edi+0x45]
0000A886  7654              jna 0xa8dc
0000A888  5F                pop edi
0000A889  54                push esp
0000A88A  305F52            xor [edi+0x52],bl
0000A88D  4B                dec ebx
0000A88E  54                push esp
0000A88F  315F52            xor [edi+0x52],ebx
0000A892  53                push ebx
0000A893  61                popa
0000A894  49                dec ecx
0000A895  54                push esp
0000A896  325F45            xor bl,[edi+0x45]
0000A899  005F5A            add [edi+0x5a],bl
0000A89C  4E                dec esi
0000A89D  53                push ebx
0000A89E  7436              jz 0xa8d6
0000A8A0  7665              jna 0xa907
0000A8A2  63746F72          arpl [edi+ebp*2+0x72],si
0000A8A6  49                dec ecx
0000A8A7  53                push ebx
0000A8A8  5F                pop edi
0000A8A9  49                dec ecx
0000A8AA  53                push ebx
0000A8AB  7434              jz 0xa8e1
0000A8AD  7061              jo 0xa910
0000A8AF  69724963694553    imul esi,[edx+0x49],dword 0x53456963
0000A8B6  61                popa
0000A8B7  49                dec ecx
0000A8B8  53                push ebx
0000A8B9  315F45            xor [edi+0x45],ebx
0000A8BC  45                inc ebp
0000A8BD  53                push ebx
0000A8BE  61                popa
0000A8BF  49                dec ecx
0000A8C0  53                push ebx
0000A8C1  335F45            xor ebx,[edi+0x45]
0000A8C4  45                inc ebp
0000A8C5  44                inc esp
0000A8C6  324576            xor al,[ebp+0x76]
0000A8C9  005F5A            add [edi+0x5a],bl
0000A8CC  53                push ebx
0000A8CD  7432              jz 0xa901
0000A8CF  30756E            xor [ebp+0x6e],dh
0000A8D2  696E697469616C    imul ebp,[esi+0x69],dword 0x6c616974
0000A8D9  697A65645F6669    imul edi,[edx+0x65],dword 0x69665f64
0000A8E0  6C                insb
0000A8E1  6C                insb
0000A8E2  5F                pop edi
0000A8E3  6E                outsb
0000A8E4  49                dec ecx
0000A8E5  50                push eax
0000A8E6  696A694576545F    imul ebp,[edx+0x69],dword 0x5f547645
0000A8ED  54                push esp
0000A8EE  305F52            xor [edi+0x52],bl
0000A8F1  4B                dec ebx
0000A8F2  54                push esp
0000A8F3  315F00            xor [edi+0x0],ebx
0000A8F6  5F                pop edi
0000A8F7  5A                pop edx
0000A8F8  4E                dec esi
0000A8F9  53                push ebx
0000A8FA  7436              jz 0xa932
0000A8FC  7665              jna 0xa963
0000A8FE  63746F72          arpl [edi+ebp*2+0x72],si
0000A902  49                dec ecx
0000A903  53                push ebx
0000A904  5F                pop edi
0000A905  49                dec ecx
0000A906  69536149694545    imul edx,[ebx+0x61],dword 0x45456949
0000A90D  53                push ebx
0000A90E  61                popa
0000A90F  49                dec ecx
0000A910  53                push ebx
0000A911  315F45            xor [edi+0x45],ebx
0000A914  45                inc ebp
0000A915  44                inc esp
0000A916  314576            xor [ebp+0x76],eax
0000A919  007363            add [ebx+0x63],dh
0000A91C  61                popa
0000A91D  6E                outsb
0000A91E  6640              inc ax
0000A920  40                inc eax
0000A921  47                inc edi
0000A922  4C                dec esp
0000A923  49                dec ecx
0000A924  42                inc edx
0000A925  43                inc ebx
0000A926  5F                pop edi
0000A927  322E              xor ch,[esi]
0000A929  3000              xor [eax],al
0000A92B  5F                pop edi
0000A92C  5A                pop edx
0000A92D  53                push ebx
0000A92E  7438              jz 0xa968
0000A930  5F                pop edi
0000A931  44                inc esp
0000A932  657374            gs jnc 0xa9a9
0000A935  726F              jc 0xa9a6
0000A937  7949              jns 0xa982
0000A939  50                push eax
0000A93A  53                push ebx
0000A93B  7436              jz 0xa973
0000A93D  7665              jna 0xa9a4
0000A93F  63746F72          arpl [edi+ebp*2+0x72],si
0000A943  49                dec ecx
0000A944  69536149694545    imul edx,[ebx+0x61],dword 0x45456949
0000A94B  53                push ebx
0000A94C  325F45            xor bl,[edi+0x45]
0000A94F  7654              jna 0xa9a5
0000A951  5F                pop edi
0000A952  53                push ebx
0000A953  345F              xor al,0x5f
0000A955  52                push edx
0000A956  53                push ebx
0000A957  61                popa
0000A958  49                dec ecx
0000A959  54                push esp
0000A95A  305F45            xor [edi+0x45],bl
0000A95D  005F5A            add [edi+0x5a],bl
0000A960  4E                dec esi
0000A961  53                push ebx
0000A962  7431              jz 0xa995
0000A964  325F56            xor bl,[edi+0x56]
0000A967  6563746F72        arpl [gs:edi+ebp*2+0x72],si
0000A96C  5F                pop edi
0000A96D  626173            bound esp,[ecx+0x73]
0000A970  6549              gs dec ecx
0000A972  53                push ebx
0000A973  7436              jz 0xa9ab
0000A975  7665              jna 0xa9dc
0000A977  63746F72          arpl [edi+ebp*2+0x72],si
0000A97B  49                dec ecx
0000A97C  69536149694545    imul edx,[ebx+0x61],dword 0x45456949
0000A983  53                push ebx
0000A984  61                popa
0000A985  49                dec ecx
0000A986  53                push ebx
0000A987  325F45            xor bl,[edi+0x45]
0000A98A  45                inc ebp
0000A98B  44                inc esp
0000A98C  324576            xor al,[ebp+0x76]
0000A98F  005F5A            add [edi+0x5a],bl
0000A992  53                push ebx
0000A993  7432              jz 0xa9c7
0000A995  365F              ss pop edi
0000A997  5F                pop edi
0000A998  756E              jnz 0xaa08
0000A99A  677561            a16 jnz 0xa9fe
0000A99D  7264              jc 0xaa03
0000A99F  65645F            fs pop edi
0000A9A2  696E7365727469    imul ebp,[esi+0x73],dword 0x69747265
0000A9A9  6F                outsd
0000A9AA  6E                outsb
0000A9AB  5F                pop edi
0000A9AC  736F              jnc 0xaa1d
0000A9AE  7274              jc 0xaa24
0000A9B0  49                dec ecx
0000A9B1  4E                dec esi
0000A9B2  395F5F            cmp [edi+0x5f],ebx
0000A9B5  676E              a16 outsb
0000A9B7  755F              jnz 0xaa18
0000A9B9  637878            arpl [eax+0x78],di
0000A9BC  3137              xor [edi],esi
0000A9BE  5F                pop edi
0000A9BF  5F                pop edi
0000A9C0  6E                outsb
0000A9C1  6F                outsd
0000A9C2  726D              jc 0xaa31
0000A9C4  61                popa
0000A9C5  6C                insb
0000A9C6  5F                pop edi
0000A9C7  6974657261746F72  imul esi,[ebp+0x72],dword 0x726f7461
0000A9CF  49                dec ecx
0000A9D0  50                push eax
0000A9D1  69537436766563    imul edx,[ebx+0x74],dword 0x63657636
0000A9D8  746F              jz 0xaa49
0000A9DA  7249              jc 0xaa25
0000A9DC  69536149694545    imul edx,[ebx+0x61],dword 0x45456949
0000A9E3  45                inc ebp
0000A9E4  45                inc ebp
0000A9E5  45                inc ebp
0000A9E6  7654              jna 0xaa3c
0000A9E8  5F                pop edi
0000A9E9  53                push ebx
0000A9EA  37                aaa
0000A9EB  5F                pop edi
0000A9EC  005F5A            add [edi+0x5a],bl
0000A9EF  4E                dec esi
0000A9F0  4B                dec ebx
0000A9F1  53                push ebx
0000A9F2  7436              jz 0xaa2a
0000A9F4  7665              jna 0xaa5b
0000A9F6  63746F72          arpl [edi+ebp*2+0x72],si
0000A9FA  49                dec ecx
0000A9FB  53                push ebx
0000A9FC  5F                pop edi
0000A9FD  49                dec ecx
0000A9FE  69536149694545    imul edx,[ebx+0x61],dword 0x45456949
0000AA05  53                push ebx
0000AA06  61                popa
0000AA07  49                dec ecx
0000AA08  53                push ebx
0000AA09  315F45            xor [edi+0x45],ebx
0000AA0C  45                inc ebp
0000AA0D  3473              xor al,0x73
0000AA0F  697A654576005F    imul edi,[edx+0x65],dword 0x5f007645
0000AA16  49                dec ecx
0000AA17  54                push esp
0000AA18  4D                dec ebp
0000AA19  5F                pop edi
0000AA1A  7265              jc 0xaa81
0000AA1C  676973746572544D  imul esi,[bp+di+0x74],dword 0x4d547265
0000AA24  43                inc ebx
0000AA25  6C                insb
0000AA26  6F                outsd
0000AA27  6E                outsb
0000AA28  6554              gs push esp
0000AA2A  61                popa
0000AA2B  626C6500          bound ebp,[ebp+0x0]
0000AA2F  5F                pop edi
0000AA30  5F                pop edi
0000AA31  6461              fs popa
0000AA33  7461              jz 0xaa96
0000AA35  5F                pop edi
0000AA36  7374              jnc 0xaaac
0000AA38  61                popa
0000AA39  7274              jc 0xaaaf
0000AA3B  005F5A            add [edi+0x5a],bl
0000AA3E  4E                dec esi
0000AA3F  53                push ebx
0000AA40  7432              jz 0xaa74
0000AA42  305F5F            xor [edi+0x5f],bl
0000AA45  756E              jnz 0xaab5
0000AA47  696E697469616C    imul ebp,[esi+0x69],dword 0x6c616974
0000AA4E  697A65645F636F    imul edi,[edx+0x65],dword 0x6f635f64
0000AA55  7079              jo 0xaad0
0000AA57  49                dec ecx
0000AA58  4C                dec esp
0000AA59  6230              bound esi,[eax]
0000AA5B  45                inc ebp
0000AA5C  45                inc ebp
0000AA5D  3133              xor [ebx],esi
0000AA5F  5F                pop edi
0000AA60  5F                pop edi
0000AA61  756E              jnz 0xaad1
0000AA63  696E69745F636F    imul ebp,[esi+0x69],dword 0x6f635f74
0000AA6A  7079              jo 0xaae5
0000AA6C  49                dec ecx
0000AA6D  4E                dec esi
0000AA6E  395F5F            cmp [edi+0x5f],ebx
0000AA71  676E              a16 outsb
0000AA73  755F              jnz 0xaad4
0000AA75  637878            arpl [eax+0x78],di
0000AA78  3137              xor [edi],esi
0000AA7A  5F                pop edi
0000AA7B  5F                pop edi
0000AA7C  6E                outsb
0000AA7D  6F                outsd
0000AA7E  726D              jc 0xaaed
0000AA80  61                popa
0000AA81  6C                insb
0000AA82  5F                pop edi
0000AA83  6974657261746F72  imul esi,[ebp+0x72],dword 0x726f7461
0000AA8B  49                dec ecx
0000AA8C  50                push eax
0000AA8D  4B                dec ebx
0000AA8E  53                push ebx
0000AA8F  7434              jz 0xaac5
0000AA91  7061              jo 0xaaf4
0000AA93  69724963694553    imul esi,[edx+0x49],dword 0x53456963
0000AA9A  7436              jz 0xaad2
0000AA9C  7665              jna 0xab03
0000AA9E  63746F72          arpl [edi+ebp*2+0x72],si
0000AAA2  49                dec ecx
0000AAA3  53                push ebx
0000AAA4  355F536149        xor eax,0x4961535f
0000AAA9  53                push ebx
0000AAAA  355F454545        xor eax,0x4545455f
0000AAAF  45                inc ebp
0000AAB0  50                push eax
0000AAB1  53                push ebx
0000AAB2  355F454554        xor eax,0x5445455f
0000AAB7  305F54            xor [edi+0x54],bl
0000AABA  5F                pop edi
0000AABB  53                push ebx
0000AABC  45                inc ebp
0000AABD  5F                pop edi
0000AABE  53                push ebx
0000AABF  44                inc esp
0000AAC0  5F                pop edi
0000AAC1  005F5A            add [edi+0x5a],bl
0000AAC4  4E                dec esi
0000AAC5  53                push ebx
0000AAC6  61                popa
0000AAC7  49                dec ecx
0000AAC8  53                push ebx
0000AAC9  7436              jz 0xab01
0000AACB  7665              jna 0xab32
0000AACD  63746F72          arpl [edi+ebp*2+0x72],si
0000AAD1  49                dec ecx
0000AAD2  53                push ebx
0000AAD3  7434              jz 0xab09
0000AAD5  7061              jo 0xab38
0000AAD7  69724963694553    imul esi,[edx+0x49],dword 0x53456963
0000AADE  61                popa
0000AADF  49                dec ecx
0000AAE0  53                push ebx
0000AAE1  315F45            xor [edi+0x45],ebx
0000AAE4  45                inc ebp
0000AAE5  45                inc ebp
0000AAE6  44                inc esp
0000AAE7  314576            xor [ebp+0x76],eax
0000AAEA  005F5A            add [edi+0x5a],bl
0000AAED  53                push ebx
0000AAEE  7431              jz 0xab21
0000AAF0  305F43            xor [edi+0x43],bl
0000AAF3  6F                outsd
0000AAF4  6E                outsb
0000AAF5  7374              jnc 0xab6b
0000AAF7  7275              jc 0xab6e
0000AAF9  63744953          arpl [ecx+ecx*2+0x53],si
0000AAFD  7434              jz 0xab33
0000AAFF  7061              jo 0xab62
0000AB01  69724963694553    imul esi,[edx+0x49],dword 0x53456963
0000AB08  315F45            xor [edi+0x45],ebx
0000AB0B  7650              jna 0xab5d
0000AB0D  54                push esp
0000AB0E  5F                pop edi
0000AB0F  52                push edx
0000AB10  4B                dec ebx
0000AB11  54                push esp
0000AB12  305F00            xor [edi+0x0],bl
0000AB15  5F                pop edi
0000AB16  5A                pop edx
0000AB17  53                push ebx
0000AB18  7431              jz 0xab4b
0000AB1A  345F              xor al,0x5f
0000AB1C  5F                pop edi
0000AB1D  636F70            arpl [edi+0x70],bp
0000AB20  795F              jns 0xab81
0000AB22  6D                insd
0000AB23  6F                outsd
0000AB24  7665              jna 0xab8b
0000AB26  5F                pop edi
0000AB27  61                popa
0000AB28  32494C            xor cl,[ecx+0x4c]
0000AB2B  6230              bound esi,[eax]
0000AB2D  45                inc ebp
0000AB2E  4E                dec esi
0000AB2F  395F5F            cmp [edi+0x5f],ebx
0000AB32  676E              a16 outsb
0000AB34  755F              jnz 0xab95
0000AB36  637878            arpl [eax+0x78],di
0000AB39  3137              xor [edi],esi
0000AB3B  5F                pop edi
0000AB3C  5F                pop edi
0000AB3D  6E                outsb
0000AB3E  6F                outsd
0000AB3F  726D              jc 0xabae
0000AB41  61                popa
0000AB42  6C                insb
0000AB43  5F                pop edi
0000AB44  6974657261746F72  imul esi,[ebp+0x72],dword 0x726f7461
0000AB4C  49                dec ecx
0000AB4D  50                push eax
0000AB4E  4B                dec ebx
0000AB4F  69537436766563    imul edx,[ebx+0x74],dword 0x63657636
0000AB56  746F              jz 0xabc7
0000AB58  7249              jc 0xaba3
0000AB5A  69536149694545    imul edx,[ebx+0x61],dword 0x45456949
0000AB61  45                inc ebp
0000AB62  45                inc ebp
0000AB63  50                push eax
0000AB64  694554315F5430    imul eax,[ebp+0x54],dword 0x30545f31
0000AB6B  5F                pop edi
0000AB6C  53                push ebx
0000AB6D  41                inc ecx
0000AB6E  5F                pop edi
0000AB6F  53                push ebx
0000AB70  395F00            cmp [edi+0x0],ebx
0000AB73  5F                pop edi
0000AB74  5A                pop edx
0000AB75  4E                dec esi
0000AB76  395F5F            cmp [edi+0x5f],ebx
0000AB79  676E              a16 outsb
0000AB7B  755F              jnz 0xabdc
0000AB7D  637878            arpl [eax+0x78],di
0000AB80  3133              xor [ebx],esi
0000AB82  6E                outsb
0000AB83  65775F            gs ja 0xabe5
0000AB86  61                popa
0000AB87  6C                insb
0000AB88  6C                insb
0000AB89  6F                outsd
0000AB8A  636174            arpl [ecx+0x74],sp
0000AB8D  6F                outsd
0000AB8E  7249              jc 0xabd9
0000AB90  53                push ebx
0000AB91  7436              jz 0xabc9
0000AB93  7665              jna 0xabfa
0000AB95  63746F72          arpl [edi+ebp*2+0x72],si
0000AB99  49                dec ecx
0000AB9A  69536149694545    imul edx,[ebx+0x61],dword 0x45456949
0000ABA1  45                inc ebp
0000ABA2  3130              xor [eax],esi
0000ABA4  646561            gs popa
0000ABA7  6C                insb
0000ABA8  6C                insb
0000ABA9  6F                outsd
0000ABAA  636174            arpl [ecx+0x74],sp
0000ABAD  6545              gs inc ebp
0000ABAF  50                push eax
0000ABB0  53                push ebx
0000ABB1  335F6A            xor ebx,[edi+0x6a]
0000ABB4  005F5A            add [edi+0x5a],bl
0000ABB7  4E                dec esi
0000ABB8  53                push ebx
0000ABB9  61                popa
0000ABBA  49                dec ecx
0000ABBB  53                push ebx
0000ABBC  7436              jz 0xabf4
0000ABBE  7665              jna 0xac25
0000ABC0  63746F72          arpl [edi+ebp*2+0x72],si
0000ABC4  49                dec ecx
0000ABC5  53                push ebx
0000ABC6  7434              jz 0xabfc
0000ABC8  7061              jo 0xac2b
0000ABCA  69724963694553    imul esi,[edx+0x49],dword 0x53456963
0000ABD1  61                popa
0000ABD2  49                dec ecx
0000ABD3  53                push ebx
0000ABD4  315F45            xor [edi+0x45],ebx
0000ABD7  45                inc ebp
0000ABD8  45                inc ebp
0000ABD9  43                inc ebx
0000ABDA  324576            xor al,[ebp+0x76]
0000ABDD  005F5A            add [edi+0x5a],bl
0000ABE0  4E                dec esi
0000ABE1  53                push ebx
0000ABE2  7431              jz 0xac15
0000ABE4  325F56            xor bl,[edi+0x56]
0000ABE7  6563746F72        arpl [gs:edi+ebp*2+0x72],si
0000ABEC  5F                pop edi
0000ABED  626173            bound esp,[ecx+0x73]
0000ABF0  6549              gs dec ecx
0000ABF2  53                push ebx
0000ABF3  7434              jz 0xac29
0000ABF5  7061              jo 0xac58
0000ABF7  69724963694553    imul esi,[edx+0x49],dword 0x53456963
0000ABFE  61                popa
0000ABFF  49                dec ecx
0000AC00  53                push ebx
0000AC01  315F45            xor [edi+0x45],ebx
0000AC04  45                inc ebp
0000AC05  3132              xor [edx],esi
0000AC07  5F                pop edi
0000AC08  56                push esi
0000AC09  6563746F72        arpl [gs:edi+ebp*2+0x72],si
0000AC0E  5F                pop edi
0000AC0F  696D706C433145    imul ebp,[ebp+0x70],dword 0x4531436c
0000AC16  52                push edx
0000AC17  4B                dec ebx
0000AC18  53                push ebx
0000AC19  325F00            xor bl,[edi+0x0]
0000AC1C  5F                pop edi
0000AC1D  5A                pop edx
0000AC1E  53                push ebx
0000AC1F  7431              jz 0xac52
0000AC21  38756E            cmp [ebp+0x6e],dh
0000AC24  696E697469616C    imul ebp,[esi+0x69],dword 0x6c616974
0000AC2B  697A65645F636F    imul edi,[edx+0x65],dword 0x6f635f64
0000AC32  7079              jo 0xacad
0000AC34  49                dec ecx
0000AC35  50                push eax
0000AC36  53                push ebx
0000AC37  7434              jz 0xac6d
0000AC39  7061              jo 0xac9c
0000AC3B  69724963694553    imul esi,[edx+0x49],dword 0x53456963
0000AC42  325F45            xor bl,[edi+0x45]
0000AC45  54                push esp
0000AC46  305F54            xor [edi+0x54],bl
0000AC49  5F                pop edi
0000AC4A  53                push ebx
0000AC4B  345F              xor al,0x5f
0000AC4D  53                push ebx
0000AC4E  335F00            xor ebx,[edi+0x0]
0000AC51  5F                pop edi
0000AC52  5A                pop edx
0000AC53  4E                dec esi
0000AC54  53                push ebx
0000AC55  7431              jz 0xac88
0000AC57  325F56            xor bl,[edi+0x56]
0000AC5A  6563746F72        arpl [gs:edi+ebp*2+0x72],si
0000AC5F  5F                pop edi
0000AC60  626173            bound esp,[ecx+0x73]
0000AC63  6549              gs dec ecx
0000AC65  53                push ebx
0000AC66  7436              jz 0xac9e
0000AC68  7665              jna 0xaccf
0000AC6A  63746F72          arpl [edi+ebp*2+0x72],si
0000AC6E  49                dec ecx
0000AC6F  69536149694545    imul edx,[ebx+0x61],dword 0x45456949
0000AC76  53                push ebx
0000AC77  61                popa
0000AC78  49                dec ecx
0000AC79  53                push ebx
0000AC7A  325F45            xor bl,[edi+0x45]
0000AC7D  45                inc ebp
0000AC7E  3132              xor [edx],esi
0000AC80  5F                pop edi
0000AC81  56                push esi
0000AC82  6563746F72        arpl [gs:edi+ebp*2+0x72],si
0000AC87  5F                pop edi
0000AC88  696D706C443245    imul ebp,[ebp+0x70],dword 0x4532446c
0000AC8F  7600              jna 0xac91
0000AC91  5F                pop edi
0000AC92  5A                pop edx
0000AC93  4E                dec esi
0000AC94  53                push ebx
0000AC95  7431              jz 0xacc8
0000AC97  325F56            xor bl,[edi+0x56]
0000AC9A  6563746F72        arpl [gs:edi+ebp*2+0x72],si
0000AC9F  5F                pop edi
0000ACA0  626173            bound esp,[ecx+0x73]
0000ACA3  6549              gs dec ecx
0000ACA5  53                push ebx
0000ACA6  7434              jz 0xacdc
0000ACA8  7061              jo 0xad0b
0000ACAA  69724963694553    imul esi,[edx+0x49],dword 0x53456963
0000ACB1  61                popa
0000ACB2  49                dec ecx
0000ACB3  53                push ebx
0000ACB4  315F45            xor [edi+0x45],ebx
0000ACB7  45                inc ebp
0000ACB8  3132              xor [edx],esi
0000ACBA  5F                pop edi
0000ACBB  56                push esi
0000ACBC  6563746F72        arpl [gs:edi+ebp*2+0x72],si
0000ACC1  5F                pop edi
0000ACC2  696D706C433145    imul ebp,[ebp+0x70],dword 0x4531436c
0000ACC9  7600              jna 0xaccb
0000ACCB  5F                pop edi
0000ACCC  5A                pop edx
0000ACCD  4E                dec esi
0000ACCE  53                push ebx
0000ACCF  61                popa
0000ACD0  49                dec ecx
0000ACD1  53                push ebx
0000ACD2  7434              jz 0xad08
0000ACD4  7061              jo 0xad37
0000ACD6  69724963694545    imul esi,[edx+0x49],dword 0x45456963
0000ACDD  44                inc esp
0000ACDE  324576            xor al,[ebp+0x76]
0000ACE1  005F5A            add [edi+0x5a],bl
0000ACE4  4E                dec esi
0000ACE5  53                push ebx
0000ACE6  7431              jz 0xad19
0000ACE8  325F56            xor bl,[edi+0x56]
0000ACEB  6563746F72        arpl [gs:edi+ebp*2+0x72],si
0000ACF0  5F                pop edi
0000ACF1  626173            bound esp,[ecx+0x73]
0000ACF4  6549              gs dec ecx
0000ACF6  69536149694545    imul edx,[ebx+0x61],dword 0x45456949
0000ACFD  3137              xor [edi],esi
0000ACFF  5F                pop edi
0000AD00  4D                dec ebp
0000AD01  5F                pop edi
0000AD02  637265            arpl [edx+0x65],si
0000AD05  61                popa
0000AD06  7465              jz 0xad6d
0000AD08  5F                pop edi
0000AD09  7374              jnc 0xad7f
0000AD0B  6F                outsd
0000AD0C  7261              jc 0xad6f
0000AD0E  676545            gs a16 inc ebp
0000AD11  6A00              push byte +0x0
0000AD13  5F                pop edi
0000AD14  5A                pop edx
0000AD15  53                push ebx
0000AD16  7431              jz 0xad49
0000AD18  327061            xor dh,[eax+0x61]
0000AD1B  7274              jc 0xad91
0000AD1D  69616C5F736F72    imul esp,[ecx+0x6c],dword 0x726f735f
0000AD24  7449              jz 0xad6f
0000AD26  4E                dec esi
0000AD27  395F5F            cmp [edi+0x5f],ebx
0000AD2A  676E              a16 outsb
0000AD2C  755F              jnz 0xad8d
0000AD2E  637878            arpl [eax+0x78],di
0000AD31  3137              xor [edi],esi
0000AD33  5F                pop edi
0000AD34  5F                pop edi
0000AD35  6E                outsb
0000AD36  6F                outsd
0000AD37  726D              jc 0xada6
0000AD39  61                popa
0000AD3A  6C                insb
0000AD3B  5F                pop edi
0000AD3C  6974657261746F72  imul esi,[ebp+0x72],dword 0x726f7461
0000AD44  49                dec ecx
0000AD45  50                push eax
0000AD46  69537436766563    imul edx,[ebx+0x74],dword 0x63657636
0000AD4D  746F              jz 0xadbe
0000AD4F  7249              jc 0xad9a
0000AD51  69536149694545    imul edx,[ebx+0x61],dword 0x45456949
0000AD58  45                inc ebp
0000AD59  45                inc ebp
0000AD5A  45                inc ebp
0000AD5B  7654              jna 0xadb1
0000AD5D  5F                pop edi
0000AD5E  53                push ebx
0000AD5F  37                aaa
0000AD60  5F                pop edi
0000AD61  53                push ebx
0000AD62  37                aaa
0000AD63  5F                pop edi
0000AD64  005F5A            add [edi+0x5a],bl
0000AD67  4E                dec esi
0000AD68  53                push ebx
0000AD69  7431              jz 0xad9c
0000AD6B  325F56            xor bl,[edi+0x56]
0000AD6E  6563746F72        arpl [gs:edi+ebp*2+0x72],si
0000AD73  5F                pop edi
0000AD74  626173            bound esp,[ecx+0x73]
0000AD77  6549              gs dec ecx
0000AD79  69536149694545    imul edx,[ebx+0x61],dword 0x45456949
0000AD80  43                inc ebx
0000AD81  31456A            xor [ebp+0x6a],eax
0000AD84  52                push edx
0000AD85  4B                dec ebx
0000AD86  53                push ebx
0000AD87  305F00            xor [edi+0x0],bl
0000AD8A  5F                pop edi
0000AD8B  5A                pop edx
0000AD8C  53                push ebx
0000AD8D  7431              jz 0xadc0
0000AD8F  325F5F            xor bl,[edi+0x5f]
0000AD92  6D                insd
0000AD93  697465725F626173  imul esi,[ebp+0x72],dword 0x7361625f
0000AD9B  6549              gs dec ecx
0000AD9D  50                push eax
0000AD9E  53                push ebx
0000AD9F  7434              jz 0xadd5
0000ADA1  7061              jo 0xae04
0000ADA3  69724963694545    imul esi,[edx+0x49],dword 0x45456963
0000ADAA  4E                dec esi
0000ADAB  53                push ebx
0000ADAC  7431              jz 0xaddf
0000ADAE  315F4D            xor [edi+0x4d],ebx
0000ADB1  697465725F626173  imul esi,[ebp+0x72],dword 0x7361625f
0000ADB9  6549              gs dec ecx
0000ADBB  54                push esp
0000ADBC  5F                pop edi
0000ADBD  45                inc ebp
0000ADBE  3133              xor [ebx],esi
0000ADC0  6974657261746F72  imul esi,[ebp+0x72],dword 0x726f7461
0000ADC8  5F                pop edi
0000ADC9  7479              jz 0xae44
0000ADCB  7065              jo 0xae32
0000ADCD  45                inc ebp
0000ADCE  53                push ebx
0000ADCF  345F              xor al,0x5f
0000ADD1  005F5A            add [edi+0x5a],bl
0000ADD4  4E                dec esi
0000ADD5  395F5F            cmp [edi+0x5f],ebx
0000ADD8  676E              a16 outsb
0000ADDA  755F              jnz 0xae3b
0000ADDC  637878            arpl [eax+0x78],di
0000ADDF  6C                insb
0000ADE0  7449              jz 0xae2b
0000ADE2  50                push eax
0000ADE3  69537436766563    imul edx,[ebx+0x74],dword 0x63657636
0000ADEA  746F              jz 0xae5b
0000ADEC  7249              jc 0xae37
0000ADEE  69536149694545    imul edx,[ebx+0x61],dword 0x45456949
0000ADF5  45                inc ebp
0000ADF6  45                inc ebp
0000ADF7  62524B            bound edx,[edx+0x4b]
0000ADFA  4E                dec esi
0000ADFB  53                push ebx
0000ADFC  5F                pop edi
0000ADFD  3137              xor [edi],esi
0000ADFF  5F                pop edi
0000AE00  5F                pop edi
0000AE01  6E                outsb
0000AE02  6F                outsd
0000AE03  726D              jc 0xae72
0000AE05  61                popa
0000AE06  6C                insb
0000AE07  5F                pop edi
0000AE08  6974657261746F72  imul esi,[ebp+0x72],dword 0x726f7461
0000AE10  49                dec ecx
0000AE11  54                push esp
0000AE12  5F                pop edi
0000AE13  54                push esp
0000AE14  305F45            xor [edi+0x45],bl
0000AE17  45                inc ebp
0000AE18  53                push ebx
0000AE19  41                inc ecx
0000AE1A  5F                pop edi
0000AE1B  005F5A            add [edi+0x5a],bl
0000AE1E  4E                dec esi
0000AE1F  395F5F            cmp [edi+0x5f],ebx
0000AE22  676E              a16 outsb
0000AE24  755F              jnz 0xae85
0000AE26  637878            arpl [eax+0x78],di
0000AE29  3133              xor [ebx],esi
0000AE2B  6E                outsb
0000AE2C  65775F            gs ja 0xae8e
0000AE2F  61                popa
0000AE30  6C                insb
0000AE31  6C                insb
0000AE32  6F                outsd
0000AE33  636174            arpl [ecx+0x74],sp
0000AE36  6F                outsd
0000AE37  7249              jc 0xae82
0000AE39  53                push ebx
0000AE3A  7436              jz 0xae72
0000AE3C  7665              jna 0xaea3
0000AE3E  63746F72          arpl [edi+ebp*2+0x72],si
0000AE42  49                dec ecx
0000AE43  53                push ebx
0000AE44  7434              jz 0xae7a
0000AE46  7061              jo 0xaea9
0000AE48  69724963694553    imul esi,[edx+0x49],dword 0x53456963
0000AE4F  61                popa
0000AE50  49                dec ecx
0000AE51  53                push ebx
0000AE52  335F45            xor ebx,[edi+0x45]
0000AE55  45                inc ebp
0000AE56  45                inc ebp
0000AE57  44                inc esp
0000AE58  324576            xor al,[ebp+0x76]
0000AE5B  005F5A            add [edi+0x5a],bl
0000AE5E  4E                dec esi
0000AE5F  53                push ebx
0000AE60  7431              jz 0xae93
0000AE62  325F44            xor bl,[edi+0x44]
0000AE65  657374            gs jnc 0xaedc
0000AE68  726F              jc 0xaed9
0000AE6A  795F              jns 0xaecb
0000AE6C  61                popa
0000AE6D  7578              jnz 0xaee7
0000AE6F  49                dec ecx
0000AE70  4C                dec esp
0000AE71  6231              bound esi,[ecx]
0000AE73  45                inc ebp
0000AE74  45                inc ebp
0000AE75  395F5F            cmp [edi+0x5f],ebx
0000AE78  64657374          gs jnc 0xaef0
0000AE7C  726F              jc 0xaeed
0000AE7E  7949              jns 0xaec9
0000AE80  50                push eax
0000AE81  69454576545F53    imul eax,[ebp+0x45],dword 0x535f5476
0000AE88  335F00            xor ebx,[edi+0x0]
0000AE8B  5F                pop edi
0000AE8C  5A                pop edx
0000AE8D  4E                dec esi
0000AE8E  53                push ebx
0000AE8F  7431              jz 0xaec2
0000AE91  325F56            xor bl,[edi+0x56]
0000AE94  6563746F72        arpl [gs:edi+ebp*2+0x72],si
0000AE99  5F                pop edi
0000AE9A  626173            bound esp,[ecx+0x73]
0000AE9D  6549              gs dec ecx
0000AE9F  69536149694545    imul edx,[ebx+0x61],dword 0x45456949
0000AEA6  3132              xor [edx],esi
0000AEA8  5F                pop edi
0000AEA9  56                push esi
0000AEAA  6563746F72        arpl [gs:edi+ebp*2+0x72],si
0000AEAF  5F                pop edi
0000AEB0  696D706C433245    imul ebp,[ebp+0x70],dword 0x4532436c
0000AEB7  52                push edx
0000AEB8  4B                dec ebx
0000AEB9  53                push ebx
0000AEBA  305F00            xor [edi+0x0],bl
0000AEBD  5F                pop edi
0000AEBE  5A                pop edx
0000AEBF  4E                dec esi
0000AEC0  53                push ebx
0000AEC1  7431              jz 0xaef4
0000AEC3  325F56            xor bl,[edi+0x56]
0000AEC6  6563746F72        arpl [gs:edi+ebp*2+0x72],si
0000AECB  5F                pop edi
0000AECC  626173            bound esp,[ecx+0x73]
0000AECF  6549              gs dec ecx
0000AED1  53                push ebx
0000AED2  7434              jz 0xaf08
0000AED4  7061              jo 0xaf37
0000AED6  69724963694553    imul esi,[edx+0x49],dword 0x53456963
0000AEDD  61                popa
0000AEDE  49                dec ecx
0000AEDF  53                push ebx
0000AEE0  315F45            xor [edi+0x45],ebx
0000AEE3  45                inc ebp
0000AEE4  3131              xor [ecx],esi
0000AEE6  5F                pop edi
0000AEE7  4D                dec ebp
0000AEE8  5F                pop edi
0000AEE9  61                popa
0000AEEA  6C                insb
0000AEEB  6C                insb
0000AEEC  6F                outsd
0000AEED  636174            arpl [ecx+0x74],sp
0000AEF0  6545              gs inc ebp
0000AEF2  6A00              push byte +0x0
0000AEF4  5F                pop edi
0000AEF5  5A                pop edx
0000AEF6  53                push ebx
0000AEF7  7432              jz 0xaf2b
0000AEF9  325F5F            xor bl,[edi+0x5f]
0000AEFC  756E              jnz 0xaf6c
0000AEFE  696E697469616C    imul ebp,[esi+0x69],dword 0x6c616974
0000AF05  697A65645F636F    imul edi,[edx+0x65],dword 0x6f635f64
0000AF0C  7079              jo 0xaf87
0000AF0E  5F                pop edi
0000AF0F  61                popa
0000AF10  49                dec ecx
0000AF11  4E                dec esi
0000AF12  395F5F            cmp [edi+0x5f],ebx
0000AF15  676E              a16 outsb
0000AF17  755F              jnz 0xaf78
0000AF19  637878            arpl [eax+0x78],di
0000AF1C  3137              xor [edi],esi
0000AF1E  5F                pop edi
0000AF1F  5F                pop edi
0000AF20  6E                outsb
0000AF21  6F                outsd
0000AF22  726D              jc 0xaf91
0000AF24  61                popa
0000AF25  6C                insb
0000AF26  5F                pop edi
0000AF27  6974657261746F72  imul esi,[ebp+0x72],dword 0x726f7461
0000AF2F  49                dec ecx
0000AF30  50                push eax
0000AF31  4B                dec ebx
0000AF32  69537436766563    imul edx,[ebx+0x74],dword 0x63657636
0000AF39  746F              jz 0xafaa
0000AF3B  7249              jc 0xaf86
0000AF3D  69536149694545    imul edx,[ebx+0x61],dword 0x45456949
0000AF44  45                inc ebp
0000AF45  45                inc ebp
0000AF46  50                push eax
0000AF47  69694554305F54    imul ebp,[ecx+0x45],dword 0x545f3054
0000AF4E  5F                pop edi
0000AF4F  53                push ebx
0000AF50  41                inc ecx
0000AF51  5F                pop edi
0000AF52  53                push ebx
0000AF53  395F52            cmp [edi+0x52],ebx
0000AF56  53                push ebx
0000AF57  61                popa
0000AF58  49                dec ecx
0000AF59  54                push esp
0000AF5A  315F45            xor [edi+0x45],ebx
0000AF5D  005F5A            add [edi+0x5a],bl
0000AF60  4E                dec esi
0000AF61  53                push ebx
0000AF62  7431              jz 0xaf95
0000AF64  325F56            xor bl,[edi+0x56]
0000AF67  6563746F72        arpl [gs:edi+ebp*2+0x72],si
0000AF6C  5F                pop edi
0000AF6D  626173            bound esp,[ecx+0x73]
0000AF70  6549              gs dec ecx
0000AF72  69536149694545    imul edx,[ebx+0x61],dword 0x45456949
0000AF79  44                inc esp
0000AF7A  314576            xor [ebp+0x76],eax
0000AF7D  005F5A            add [edi+0x5a],bl
0000AF80  4E                dec esi
0000AF81  395F5F            cmp [edi+0x5f],ebx
0000AF84  676E              a16 outsb
0000AF86  755F              jnz 0xafe7
0000AF88  637878            arpl [eax+0x78],di
0000AF8B  3133              xor [ebx],esi
0000AF8D  6E                outsb
0000AF8E  65775F            gs ja 0xaff0
0000AF91  61                popa
0000AF92  6C                insb
0000AF93  6C                insb
0000AF94  6F                outsd
0000AF95  636174            arpl [ecx+0x74],sp
0000AF98  6F                outsd
0000AF99  7249              jc 0xafe4
0000AF9B  69454331457600    imul eax,[ebp+0x43],dword 0x764531
0000AFA2  5F                pop edi
0000AFA3  5A                pop edx
0000AFA4  4E                dec esi
0000AFA5  53                push ebx
0000AFA6  7431              jz 0xafd9
0000AFA8  325F56            xor bl,[edi+0x56]
0000AFAB  6563746F72        arpl [gs:edi+ebp*2+0x72],si
0000AFB0  5F                pop edi
0000AFB1  626173            bound esp,[ecx+0x73]
0000AFB4  6549              gs dec ecx
0000AFB6  53                push ebx
0000AFB7  7436              jz 0xafef
0000AFB9  7665              jna 0xb020
0000AFBB  63746F72          arpl [edi+ebp*2+0x72],si
0000AFBF  49                dec ecx
0000AFC0  69536149694545    imul edx,[ebx+0x61],dword 0x45456949
0000AFC7  53                push ebx
0000AFC8  61                popa
0000AFC9  49                dec ecx
0000AFCA  53                push ebx
0000AFCB  325F45            xor bl,[edi+0x45]
0000AFCE  45                inc ebp
0000AFCF  3132              xor [edx],esi
0000AFD1  5F                pop edi
0000AFD2  56                push esi
0000AFD3  6563746F72        arpl [gs:edi+ebp*2+0x72],si
0000AFD8  5F                pop edi
0000AFD9  696D706C433145    imul ebp,[ebp+0x70],dword 0x4531436c
0000AFE0  52                push edx
0000AFE1  4B                dec ebx
0000AFE2  53                push ebx
0000AFE3  335F00            xor ebx,[edi+0x0]
0000AFE6  5F                pop edi
0000AFE7  5A                pop edx
0000AFE8  4E                dec esi
0000AFE9  53                push ebx
0000AFEA  7436              jz 0xb022
0000AFEC  7665              jna 0xb053
0000AFEE  63746F72          arpl [edi+ebp*2+0x72],si
0000AFF2  49                dec ecx
0000AFF3  53                push ebx
0000AFF4  5F                pop edi
0000AFF5  49                dec ecx
0000AFF6  69536149694545    imul edx,[ebx+0x61],dword 0x45456949
0000AFFD  53                push ebx
0000AFFE  61                popa
0000AFFF  49                dec ecx
0000B000  53                push ebx
0000B001  315F45            xor [edi+0x45],ebx
0000B004  45                inc ebp
0000B005  43                inc ebx
0000B006  32456A            xor al,[ebp+0x6a]
0000B009  52                push edx
0000B00A  4B                dec ebx
0000B00B  53                push ebx
0000B00C  315F52            xor [edi+0x52],ebx
0000B00F  4B                dec ebx
0000B010  53                push ebx
0000B011  325F00            xor bl,[edi+0x0]
0000B014  5F                pop edi
0000B015  5A                pop edx
0000B016  4E                dec esi
0000B017  53                push ebx
0000B018  7436              jz 0xb050
0000B01A  7665              jna 0xb081
0000B01C  63746F72          arpl [edi+ebp*2+0x72],si
0000B020  49                dec ecx
0000B021  69536149694545    imul edx,[ebx+0x61],dword 0x45456949
0000B028  43                inc ebx
0000B029  324552            xor al,[ebp+0x52]
0000B02C  4B                dec ebx
0000B02D  53                push ebx
0000B02E  315F00            xor [edi+0x0],ebx
0000B031  5F                pop edi
0000B032  5A                pop edx
0000B033  4E                dec esi
0000B034  53                push ebx
0000B035  7431              jz 0xb068
0000B037  325F56            xor bl,[edi+0x56]
0000B03A  6563746F72        arpl [gs:edi+ebp*2+0x72],si
0000B03F  5F                pop edi
0000B040  626173            bound esp,[ecx+0x73]
0000B043  6549              gs dec ecx
0000B045  53                push ebx
0000B046  7434              jz 0xb07c
0000B048  7061              jo 0xb0ab
0000B04A  69724963694553    imul esi,[edx+0x49],dword 0x53456963
0000B051  61                popa
0000B052  49                dec ecx
0000B053  53                push ebx
0000B054  315F45            xor [edi+0x45],ebx
0000B057  45                inc ebp
0000B058  43                inc ebx
0000B059  324576            xor al,[ebp+0x76]
0000B05C  005F5A            add [edi+0x5a],bl
0000B05F  4E                dec esi
0000B060  395F5F            cmp [edi+0x5f],ebx
0000B063  676E              a16 outsb
0000B065  755F              jnz 0xb0c6
0000B067  637878            arpl [eax+0x78],di
0000B06A  657149            gs jno 0xb0b6
0000B06D  50                push eax
0000B06E  4B                dec ebx
0000B06F  53                push ebx
0000B070  7434              jz 0xb0a6
0000B072  7061              jo 0xb0d5
0000B074  69724963694553    imul esi,[edx+0x49],dword 0x53456963
0000B07B  7436              jz 0xb0b3
0000B07D  7665              jna 0xb0e4
0000B07F  63746F72          arpl [edi+ebp*2+0x72],si
0000B083  49                dec ecx
0000B084  53                push ebx
0000B085  325F53            xor bl,[edi+0x53]
0000B088  61                popa
0000B089  49                dec ecx
0000B08A  53                push ebx
0000B08B  325F45            xor bl,[edi+0x45]
0000B08E  45                inc ebp
0000B08F  45                inc ebp
0000B090  45                inc ebp
0000B091  62524B            bound edx,[edx+0x4b]
0000B094  4E                dec esi
0000B095  53                push ebx
0000B096  5F                pop edi
0000B097  3137              xor [edi],esi
0000B099  5F                pop edi
0000B09A  5F                pop edi
0000B09B  6E                outsb
0000B09C  6F                outsd
0000B09D  726D              jc 0xb10c
0000B09F  61                popa
0000B0A0  6C                insb
0000B0A1  5F                pop edi
0000B0A2  6974657261746F72  imul esi,[ebp+0x72],dword 0x726f7461
0000B0AA  49                dec ecx
0000B0AB  54                push esp
0000B0AC  5F                pop edi
0000B0AD  54                push esp
0000B0AE  305F45            xor [edi+0x45],bl
0000B0B1  45                inc ebp
0000B0B2  53                push ebx
0000B0B3  44                inc esp
0000B0B4  5F                pop edi
0000B0B5  005F5A            add [edi+0x5a],bl
0000B0B8  4E                dec esi
0000B0B9  53                push ebx
0000B0BA  7432              jz 0xb0ee
0000B0BC  325F5F            xor bl,[edi+0x5f]
0000B0BF  756E              jnz 0xb12f
0000B0C1  696E697469616C    imul ebp,[esi+0x69],dword 0x6c616974
0000B0C8  697A65645F6669    imul edi,[edx+0x65],dword 0x69665f64
0000B0CF  6C                insb
0000B0D0  6C                insb
0000B0D1  5F                pop edi
0000B0D2  6E                outsb
0000B0D3  49                dec ecx
0000B0D4  4C                dec esp
0000B0D5  6230              bound esi,[eax]
0000B0D7  45                inc ebp
0000B0D8  45                inc ebp
0000B0D9  31355F5F756E      xor [0x6e755f5f],esi
0000B0DF  696E69745F6669    imul ebp,[esi+0x69],dword 0x69665f74
0000B0E6  6C                insb
0000B0E7  6C                insb
0000B0E8  5F                pop edi
0000B0E9  6E                outsb
0000B0EA  49                dec ecx
0000B0EB  50                push eax
0000B0EC  53                push ebx
0000B0ED  7436              jz 0xb125
0000B0EF  7665              jna 0xb156
0000B0F1  63746F72          arpl [edi+ebp*2+0x72],si
0000B0F5  49                dec ecx
0000B0F6  69536149694545    imul edx,[ebx+0x61],dword 0x45456949
0000B0FD  6A53              push byte +0x53
0000B0FF  345F              xor al,0x5f
0000B101  45                inc ebp
0000B102  45                inc ebp
0000B103  7654              jna 0xb159
0000B105  5F                pop edi
0000B106  54                push esp
0000B107  305F52            xor [edi+0x52],bl
0000B10A  4B                dec ebx
0000B10B  54                push esp
0000B10C  315F00            xor [edi+0x0],ebx
0000B10F  5F                pop edi
0000B110  5A                pop edx
0000B111  4E                dec esi
0000B112  53                push ebx
0000B113  7436              jz 0xb14b
0000B115  7665              jna 0xb17c
0000B117  63746F72          arpl [edi+ebp*2+0x72],si
0000B11B  49                dec ecx
0000B11C  69536149694545    imul edx,[ebx+0x61],dword 0x45456949
0000B123  6978456A005F5A    imul edi,[eax+0x45],dword 0x5a5f006a
0000B12A  4E                dec esi
0000B12B  53                push ebx
0000B12C  7436              jz 0xb164
0000B12E  7665              jna 0xb195
0000B130  63746F72          arpl [edi+ebp*2+0x72],si
0000B134  49                dec ecx
0000B135  53                push ebx
0000B136  5F                pop edi
0000B137  49                dec ecx
0000B138  69536149694545    imul edx,[ebx+0x61],dword 0x45456949
0000B13F  53                push ebx
0000B140  61                popa
0000B141  49                dec ecx
0000B142  53                push ebx
0000B143  315F45            xor [edi+0x45],ebx
0000B146  45                inc ebp
0000B147  44                inc esp
0000B148  324576            xor al,[ebp+0x76]
0000B14B  005F5A            add [edi+0x5a],bl
0000B14E  4E                dec esi
0000B14F  53                push ebx
0000B150  7431              jz 0xb183
0000B152  305F49            xor [edi+0x49],bl
0000B155  7465              jz 0xb1bc
0000B157  725F              jc 0xb1b8
0000B159  626173            bound esp,[ecx+0x73]
0000B15C  6549              gs dec ecx
0000B15E  4E                dec esi
0000B15F  395F5F            cmp [edi+0x5f],ebx
0000B162  676E              a16 outsb
0000B164  755F              jnz 0xb1c5
0000B166  637878            arpl [eax+0x78],di
0000B169  3137              xor [edi],esi
0000B16B  5F                pop edi
0000B16C  5F                pop edi
0000B16D  6E                outsb
0000B16E  6F                outsd
0000B16F  726D              jc 0xb1de
0000B171  61                popa
0000B172  6C                insb
0000B173  5F                pop edi
0000B174  6974657261746F72  imul esi,[ebp+0x72],dword 0x726f7461
0000B17C  49                dec ecx
0000B17D  50                push eax
0000B17E  69537436766563    imul edx,[ebx+0x74],dword 0x63657636
0000B185  746F              jz 0xb1f6
0000B187  7249              jc 0xb1d2
0000B189  69536149694545    imul edx,[ebx+0x61],dword 0x45456949
0000B190  45                inc ebp
0000B191  45                inc ebp
0000B192  4C                dec esp
0000B193  6231              bound esi,[ecx]
0000B195  45                inc ebp
0000B196  45                inc ebp
0000B197  37                aaa
0000B198  5F                pop edi
0000B199  53                push ebx
0000B19A  5F                pop edi
0000B19B  626173            bound esp,[ecx+0x73]
0000B19E  6545              gs inc ebp
0000B1A0  53                push ebx
0000B1A1  365F              ss pop edi
0000B1A3  005F5A            add [edi+0x5a],bl
0000B1A6  4E                dec esi
0000B1A7  395F5F            cmp [edi+0x5f],ebx
0000B1AA  676E              a16 outsb
0000B1AC  755F              jnz 0xb20d
0000B1AE  637878            arpl [eax+0x78],di
0000B1B1  3137              xor [edi],esi
0000B1B3  5F                pop edi
0000B1B4  5F                pop edi
0000B1B5  6E                outsb
0000B1B6  6F                outsd
0000B1B7  726D              jc 0xb226
0000B1B9  61                popa
0000B1BA  6C                insb
0000B1BB  5F                pop edi
0000B1BC  6974657261746F72  imul esi,[ebp+0x72],dword 0x726f7461
0000B1C4  49                dec ecx
0000B1C5  50                push eax
0000B1C6  4B                dec ebx
0000B1C7  53                push ebx
0000B1C8  7434              jz 0xb1fe
0000B1CA  7061              jo 0xb22d
0000B1CC  69724963694553    imul esi,[edx+0x49],dword 0x53456963
0000B1D3  7436              jz 0xb20b
0000B1D5  7665              jna 0xb23c
0000B1D7  63746F72          arpl [edi+ebp*2+0x72],si
0000B1DB  49                dec ecx
0000B1DC  53                push ebx
0000B1DD  325F53            xor bl,[edi+0x53]
0000B1E0  61                popa
0000B1E1  49                dec ecx
0000B1E2  53                push ebx
0000B1E3  325F45            xor bl,[edi+0x45]
0000B1E6  45                inc ebp
0000B1E7  45                inc ebp
0000B1E8  43                inc ebx
0000B1E9  314552            xor [ebp+0x52],eax
0000B1EC  4B                dec ebx
0000B1ED  53                push ebx
0000B1EE  345F              xor al,0x5f
0000B1F0  005F5A            add [edi+0x5a],bl
0000B1F3  4E                dec esi
0000B1F4  53                push ebx
0000B1F5  7431              jz 0xb228
0000B1F7  325F56            xor bl,[edi+0x56]
0000B1FA  6563746F72        arpl [gs:edi+ebp*2+0x72],si
0000B1FF  5F                pop edi
0000B200  626173            bound esp,[ecx+0x73]
0000B203  6549              gs dec ecx
0000B205  53                push ebx
0000B206  7436              jz 0xb23e
0000B208  7665              jna 0xb26f
0000B20A  63746F72          arpl [edi+ebp*2+0x72],si
0000B20E  49                dec ecx
0000B20F  69536149694545    imul edx,[ebx+0x61],dword 0x45456949
0000B216  53                push ebx
0000B217  61                popa
0000B218  49                dec ecx
0000B219  53                push ebx
0000B21A  325F45            xor bl,[edi+0x45]
0000B21D  45                inc ebp
0000B21E  3137              xor [edi],esi
0000B220  5F                pop edi
0000B221  4D                dec ebp
0000B222  5F                pop edi
0000B223  637265            arpl [edx+0x65],si
0000B226  61                popa
0000B227  7465              jz 0xb28e
0000B229  5F                pop edi
0000B22A  7374              jnc 0xb2a0
0000B22C  6F                outsd
0000B22D  7261              jc 0xb290
0000B22F  676545            gs a16 inc ebp
0000B232  6A00              push byte +0x0
0000B234  5F                pop edi
0000B235  5F                pop edi
0000B236  54                push esp
0000B237  4D                dec ebp
0000B238  43                inc ebx
0000B239  5F                pop edi
0000B23A  45                inc ebp
0000B23B  4E                dec esi
0000B23C  44                inc esp
0000B23D  5F                pop edi
0000B23E  5F                pop edi
0000B23F  005F5A            add [edi+0x5a],bl
0000B242  53                push ebx
0000B243  7438              jz 0xb27d
0000B245  5F                pop edi
0000B246  44                inc esp
0000B247  657374            gs jnc 0xb2be
0000B24A  726F              jc 0xb2bb
0000B24C  7949              jns 0xb297
0000B24E  50                push eax
0000B24F  694576545F5331    imul eax,[ebp+0x76],dword 0x31535f54
0000B256  5F                pop edi
0000B257  005F5A            add [edi+0x5a],bl
0000B25A  4E                dec esi
0000B25B  395F5F            cmp [edi+0x5f],ebx
0000B25E  676E              a16 outsb
0000B260  755F              jnz 0xb2c1
0000B262  637878            arpl [eax+0x78],di
0000B265  3137              xor [edi],esi
0000B267  5F                pop edi
0000B268  5F                pop edi
0000B269  6E                outsb
0000B26A  6F                outsd
0000B26B  726D              jc 0xb2da
0000B26D  61                popa
0000B26E  6C                insb
0000B26F  5F                pop edi
0000B270  6974657261746F72  imul esi,[ebp+0x72],dword 0x726f7461
0000B278  49                dec ecx
0000B279  50                push eax
0000B27A  4B                dec ebx
0000B27B  53                push ebx
0000B27C  7434              jz 0xb2b2
0000B27E  7061              jo 0xb2e1
0000B280  69724963694553    imul esi,[edx+0x49],dword 0x53456963
0000B287  7436              jz 0xb2bf
0000B289  7665              jna 0xb2f0
0000B28B  63746F72          arpl [edi+ebp*2+0x72],si
0000B28F  49                dec ecx
0000B290  53                push ebx
0000B291  325F53            xor bl,[edi+0x53]
0000B294  61                popa
0000B295  49                dec ecx
0000B296  53                push ebx
0000B297  325F45            xor bl,[edi+0x45]
0000B29A  45                inc ebp
0000B29B  45                inc ebp
0000B29C  43                inc ebx
0000B29D  324552            xor al,[ebp+0x52]
0000B2A0  4B                dec ebx
0000B2A1  53                push ebx
0000B2A2  345F              xor al,0x5f
0000B2A4  005F5A            add [edi+0x5a],bl
0000B2A7  53                push ebx
0000B2A8  7431              jz 0xb2db
0000B2AA  33636F            xor esp,[ebx+0x6f]
0000B2AD  7079              jo 0xb328
0000B2AF  5F                pop edi
0000B2B0  626163            bound esp,[ecx+0x63]
0000B2B3  6B776172          imul esi,[edi+0x61],byte +0x72
0000B2B7  6449              fs dec ecx
0000B2B9  4E                dec esi
0000B2BA  395F5F            cmp [edi+0x5f],ebx
0000B2BD  676E              a16 outsb
0000B2BF  755F              jnz 0xb320
0000B2C1  637878            arpl [eax+0x78],di
0000B2C4  3137              xor [edi],esi
0000B2C6  5F                pop edi
0000B2C7  5F                pop edi
0000B2C8  6E                outsb
0000B2C9  6F                outsd
0000B2CA  726D              jc 0xb339
0000B2CC  61                popa
0000B2CD  6C                insb
0000B2CE  5F                pop edi
0000B2CF  6974657261746F72  imul esi,[ebp+0x72],dword 0x726f7461
0000B2D7  49                dec ecx
0000B2D8  50                push eax
0000B2D9  69537436766563    imul edx,[ebx+0x74],dword 0x63657636
0000B2E0  746F              jz 0xb351
0000B2E2  7249              jc 0xb32d
0000B2E4  69536149694545    imul edx,[ebx+0x61],dword 0x45456949
0000B2EB  45                inc ebp
0000B2EC  45                inc ebp
0000B2ED  53                push ebx
0000B2EE  365F              ss pop edi
0000B2F0  45                inc ebp
0000B2F1  54                push esp
0000B2F2  305F54            xor [edi+0x54],bl
0000B2F5  5F                pop edi
0000B2F6  53                push ebx
0000B2F7  385F53            cmp [edi+0x53],bl
0000B2FA  37                aaa
0000B2FB  5F                pop edi
0000B2FC  005F5A            add [edi+0x5a],bl
0000B2FF  53                push ebx
0000B300  7432              jz 0xb334
0000B302  325F5F            xor bl,[edi+0x5f]
0000B305  756E              jnz 0xb375
0000B307  696E697469616C    imul ebp,[esi+0x69],dword 0x6c616974
0000B30E  697A65645F636F    imul edi,[edx+0x65],dword 0x6f635f64
0000B315  7079              jo 0xb390
0000B317  5F                pop edi
0000B318  61                popa
0000B319  49                dec ecx
0000B31A  50                push eax
0000B31B  53                push ebx
0000B31C  7434              jz 0xb352
0000B31E  7061              jo 0xb381
0000B320  69724963694553    imul esi,[edx+0x49],dword 0x53456963
0000B327  325F53            xor bl,[edi+0x53]
0000B32A  315F45            xor [edi+0x45],ebx
0000B32D  54                push esp
0000B32E  305F54            xor [edi+0x54],bl
0000B331  5F                pop edi
0000B332  53                push ebx
0000B333  345F              xor al,0x5f
0000B335  53                push ebx
0000B336  335F52            xor ebx,[edi+0x52]
0000B339  53                push ebx
0000B33A  61                popa
0000B33B  49                dec ecx
0000B33C  54                push esp
0000B33D  315F45            xor [edi+0x45],ebx
0000B340  005F5A            add [edi+0x5a],bl
0000B343  53                push ebx
0000B344  7434              jz 0xb37a
0000B346  736F              jnc 0xb3b7
0000B348  7274              jc 0xb3be
0000B34A  49                dec ecx
0000B34B  4E                dec esi
0000B34C  395F5F            cmp [edi+0x5f],ebx
0000B34F  676E              a16 outsb
0000B351  755F              jnz 0xb3b2
0000B353  637878            arpl [eax+0x78],di
0000B356  3137              xor [edi],esi
0000B358  5F                pop edi
0000B359  5F                pop edi
0000B35A  6E                outsb
0000B35B  6F                outsd
0000B35C  726D              jc 0xb3cb
0000B35E  61                popa
0000B35F  6C                insb
0000B360  5F                pop edi
0000B361  6974657261746F72  imul esi,[ebp+0x72],dword 0x726f7461
0000B369  49                dec ecx
0000B36A  50                push eax
0000B36B  69537436766563    imul edx,[ebx+0x74],dword 0x63657636
0000B372  746F              jz 0xb3e3
0000B374  7249              jc 0xb3bf
0000B376  69536149694545    imul edx,[ebx+0x61],dword 0x45456949
0000B37D  45                inc ebp
0000B37E  45                inc ebp
0000B37F  45                inc ebp
0000B380  7654              jna 0xb3d6
0000B382  5F                pop edi
0000B383  53                push ebx
0000B384  37                aaa
0000B385  5F                pop edi
0000B386  005F5A            add [edi+0x5a],bl
0000B389  4E                dec esi
0000B38A  395F5F            cmp [edi+0x5f],ebx
0000B38D  676E              a16 outsb
0000B38F  755F              jnz 0xb3f0
0000B391  637878            arpl [eax+0x78],di
0000B394  31345F            xor [edi+ebx*2],esi
0000B397  5F                pop edi
0000B398  61                popa
0000B399  6C                insb
0000B39A  6C                insb
0000B39B  6F                outsd
0000B39C  635F74            arpl [edi+0x74],bx
0000B39F  7261              jc 0xb402
0000B3A1  6974734953614969  imul esi,[ebx+esi*2+0x49],dword 0x69496153
0000B3A9  45                inc ebp
0000B3AA  45                inc ebp
0000B3AB  3137              xor [edi],esi
0000B3AD  5F                pop edi
0000B3AE  53                push ebx
0000B3AF  5F                pop edi
0000B3B0  7365              jnc 0xb417
0000B3B2  6C                insb
0000B3B3  6563745F6F        arpl [gs:edi+ebx*2+0x6f],si
0000B3B8  6E                outsb
0000B3B9  5F                pop edi
0000B3BA  636F70            arpl [edi+0x70],bp
0000B3BD  7945              jns 0xb404
0000B3BF  52                push edx
0000B3C0  4B                dec ebx
0000B3C1  53                push ebx
0000B3C2  315F00            xor [edi+0x0],ebx
0000B3C5  5F                pop edi
0000B3C6  5A                pop edx
0000B3C7  4E                dec esi
0000B3C8  53                push ebx
0000B3C9  7432              jz 0xb3fd
0000B3CB  305F5F            xor [edi+0x5f],bl
0000B3CE  756E              jnz 0xb43e
0000B3D0  696E697469616C    imul ebp,[esi+0x69],dword 0x6c616974
0000B3D7  697A65645F636F    imul edi,[edx+0x65],dword 0x6f635f64
0000B3DE  7079              jo 0xb459
0000B3E0  49                dec ecx
0000B3E1  4C                dec esp
0000B3E2  6231              bound esi,[ecx]
0000B3E4  45                inc ebp
0000B3E5  45                inc ebp
0000B3E6  3133              xor [ebx],esi
0000B3E8  5F                pop edi
0000B3E9  5F                pop edi
0000B3EA  756E              jnz 0xb45a
0000B3EC  696E69745F636F    imul ebp,[esi+0x69],dword 0x6f635f74
0000B3F3  7079              jo 0xb46e
0000B3F5  49                dec ecx
0000B3F6  4E                dec esi
0000B3F7  395F5F            cmp [edi+0x5f],ebx
0000B3FA  676E              a16 outsb
0000B3FC  755F              jnz 0xb45d
0000B3FE  637878            arpl [eax+0x78],di
0000B401  3137              xor [edi],esi
0000B403  5F                pop edi
0000B404  5F                pop edi
0000B405  6E                outsb
0000B406  6F                outsd
0000B407  726D              jc 0xb476
0000B409  61                popa
0000B40A  6C                insb
0000B40B  5F                pop edi
0000B40C  6974657261746F72  imul esi,[ebp+0x72],dword 0x726f7461
0000B414  49                dec ecx
0000B415  50                push eax
0000B416  4B                dec ebx
0000B417  69537436766563    imul edx,[ebx+0x74],dword 0x63657636
0000B41E  746F              jz 0xb48f
0000B420  7249              jc 0xb46b
0000B422  69536149694545    imul edx,[ebx+0x61],dword 0x45456949
0000B429  45                inc ebp
0000B42A  45                inc ebp
0000B42B  50                push eax
0000B42C  69454554305F54    imul eax,[ebp+0x45],dword 0x545f3054
0000B433  5F                pop edi
0000B434  53                push ebx
0000B435  43                inc ebx
0000B436  5F                pop edi
0000B437  53                push ebx
0000B438  42                inc edx
0000B439  5F                pop edi
0000B43A  005F5A            add [edi+0x5a],bl
0000B43D  4E                dec esi
0000B43E  53                push ebx
0000B43F  61                popa
0000B440  49                dec ecx
0000B441  53                push ebx
0000B442  7436              jz 0xb47a
0000B444  7665              jna 0xb4ab
0000B446  63746F72          arpl [edi+ebp*2+0x72],si
0000B44A  49                dec ecx
0000B44B  53                push ebx
0000B44C  7434              jz 0xb482
0000B44E  7061              jo 0xb4b1
0000B450  69724963694553    imul esi,[edx+0x49],dword 0x53456963
0000B457  61                popa
0000B458  49                dec ecx
0000B459  53                push ebx
0000B45A  315F45            xor [edi+0x45],ebx
0000B45D  45                inc ebp
0000B45E  45                inc ebp
0000B45F  43                inc ebx
0000B460  314576            xor [ebp+0x76],eax
0000B463  005F5A            add [edi+0x5a],bl
0000B466  4E                dec esi
0000B467  53                push ebx
0000B468  61                popa
0000B469  49                dec ecx
0000B46A  53                push ebx
0000B46B  7434              jz 0xb4a1
0000B46D  7061              jo 0xb4d0
0000B46F  69724963694545    imul esi,[edx+0x49],dword 0x45456963
0000B476  43                inc ebx
0000B477  324552            xor al,[ebp+0x52]
0000B47A  4B                dec ebx
0000B47B  53                push ebx
0000B47C  315F00            xor [edi+0x0],ebx
0000B47F  5F                pop edi
0000B480  5F                pop edi
0000B481  64736F            fs jnc 0xb4f3
0000B484  5F                pop edi
0000B485  68616E646C        push dword 0x6c646e61
0000B48A  65005F5A          add [gs:edi+0x5a],bl
0000B48E  53                push ebx
0000B48F  7439              jz 0xb4ca
0000B491  736F              jnc 0xb502
0000B493  7274              jc 0xb509
0000B495  5F                pop edi
0000B496  6865617049        push dword 0x49706165
0000B49B  4E                dec esi
0000B49C  395F5F            cmp [edi+0x5f],ebx
0000B49F  676E              a16 outsb
0000B4A1  755F              jnz 0xb502
0000B4A3  637878            arpl [eax+0x78],di
0000B4A6  3137              xor [edi],esi
0000B4A8  5F                pop edi
0000B4A9  5F                pop edi
0000B4AA  6E                outsb
0000B4AB  6F                outsd
0000B4AC  726D              jc 0xb51b
0000B4AE  61                popa
0000B4AF  6C                insb
0000B4B0  5F                pop edi
0000B4B1  6974657261746F72  imul esi,[ebp+0x72],dword 0x726f7461
0000B4B9  49                dec ecx
0000B4BA  50                push eax
0000B4BB  69537436766563    imul edx,[ebx+0x74],dword 0x63657636
0000B4C2  746F              jz 0xb533
0000B4C4  7249              jc 0xb50f
0000B4C6  69536149694545    imul edx,[ebx+0x61],dword 0x45456949
0000B4CD  45                inc ebp
0000B4CE  45                inc ebp
0000B4CF  45                inc ebp
0000B4D0  7654              jna 0xb526
0000B4D2  5F                pop edi
0000B4D3  53                push ebx
0000B4D4  37                aaa
0000B4D5  5F                pop edi
0000B4D6  005F5A            add [edi+0x5a],bl
0000B4D9  53                push ebx
0000B4DA  7432              jz 0xb50e
0000B4DC  325F5F            xor bl,[edi+0x5f]
0000B4DF  66696E616C5F      imul bp,[esi+0x61],word 0x5f6c
0000B4E5  696E7365727469    imul ebp,[esi+0x73],dword 0x69747265
0000B4EC  6F                outsd
0000B4ED  6E                outsb
0000B4EE  5F                pop edi
0000B4EF  736F              jnc 0xb560
0000B4F1  7274              jc 0xb567
0000B4F3  49                dec ecx
0000B4F4  4E                dec esi
0000B4F5  395F5F            cmp [edi+0x5f],ebx
0000B4F8  676E              a16 outsb
0000B4FA  755F              jnz 0xb55b
0000B4FC  637878            arpl [eax+0x78],di
0000B4FF  3137              xor [edi],esi
0000B501  5F                pop edi
0000B502  5F                pop edi
0000B503  6E                outsb
0000B504  6F                outsd
0000B505  726D              jc 0xb574
0000B507  61                popa
0000B508  6C                insb
0000B509  5F                pop edi
0000B50A  6974657261746F72  imul esi,[ebp+0x72],dword 0x726f7461
0000B512  49                dec ecx
0000B513  50                push eax
0000B514  69537436766563    imul edx,[ebx+0x74],dword 0x63657636
0000B51B  746F              jz 0xb58c
0000B51D  7249              jc 0xb568
0000B51F  69536149694545    imul edx,[ebx+0x61],dword 0x45456949
0000B526  45                inc ebp
0000B527  45                inc ebp
0000B528  45                inc ebp
0000B529  7654              jna 0xb57f
0000B52B  5F                pop edi
0000B52C  53                push ebx
0000B52D  37                aaa
0000B52E  5F                pop edi
0000B52F  005F5A            add [edi+0x5a],bl
0000B532  4E                dec esi
0000B533  395F5F            cmp [edi+0x5f],ebx
0000B536  676E              a16 outsb
0000B538  755F              jnz 0xb599
0000B53A  637878            arpl [eax+0x78],di
0000B53D  3133              xor [ebx],esi
0000B53F  6E                outsb
0000B540  65775F            gs ja 0xb5a2
0000B543  61                popa
0000B544  6C                insb
0000B545  6C                insb
0000B546  6F                outsd
0000B547  636174            arpl [ecx+0x74],sp
0000B54A  6F                outsd
0000B54B  7249              jc 0xb596
0000B54D  53                push ebx
0000B54E  7434              jz 0xb584
0000B550  7061              jo 0xb5b3
0000B552  69724963694545    imul esi,[edx+0x49],dword 0x45456963
0000B559  43                inc ebx
0000B55A  324552            xor al,[ebp+0x52]
0000B55D  4B                dec ebx
0000B55E  53                push ebx
0000B55F  335F00            xor ebx,[edi+0x0]
0000B562  5F                pop edi
0000B563  5A                pop edx
0000B564  4E                dec esi
0000B565  395F5F            cmp [edi+0x5f],ebx
0000B568  676E              a16 outsb
0000B56A  755F              jnz 0xb5cb
0000B56C  637878            arpl [eax+0x78],di
0000B56F  3137              xor [edi],esi
0000B571  5F                pop edi
0000B572  5F                pop edi
0000B573  6E                outsb
0000B574  6F                outsd
0000B575  726D              jc 0xb5e4
0000B577  61                popa
0000B578  6C                insb
0000B579  5F                pop edi
0000B57A  6974657261746F72  imul esi,[ebp+0x72],dword 0x726f7461
0000B582  49                dec ecx
0000B583  50                push eax
0000B584  69537436766563    imul edx,[ebx+0x74],dword 0x63657636
0000B58B  746F              jz 0xb5fc
0000B58D  7249              jc 0xb5d8
0000B58F  69536149694545    imul edx,[ebx+0x61],dword 0x45456949
0000B596  45                inc ebp
0000B597  43                inc ebx
0000B598  314552            xor [ebp+0x52],eax
0000B59B  4B                dec ebx
0000B59C  53                push ebx
0000B59D  315F00            xor [edi+0x0],ebx
0000B5A0  5F                pop edi
0000B5A1  5A                pop edx
0000B5A2  53                push ebx
0000B5A3  7431              jz 0xb5d6
0000B5A5  325F5F            xor bl,[edi+0x5f]
0000B5A8  6E                outsb
0000B5A9  697465725F626173  imul esi,[ebp+0x72],dword 0x7361625f
0000B5B1  6549              gs dec ecx
0000B5B3  4E                dec esi
0000B5B4  395F5F            cmp [edi+0x5f],ebx
0000B5B7  676E              a16 outsb
0000B5B9  755F              jnz 0xb61a
0000B5BB  637878            arpl [eax+0x78],di
0000B5BE  3137              xor [edi],esi
0000B5C0  5F                pop edi
0000B5C1  5F                pop edi
0000B5C2  6E                outsb
0000B5C3  6F                outsd
0000B5C4  726D              jc 0xb633
0000B5C6  61                popa
0000B5C7  6C                insb
0000B5C8  5F                pop edi
0000B5C9  6974657261746F72  imul esi,[ebp+0x72],dword 0x726f7461
0000B5D1  49                dec ecx
0000B5D2  50                push eax
0000B5D3  4B                dec ebx
0000B5D4  69537436766563    imul edx,[ebx+0x74],dword 0x63657636
0000B5DB  746F              jz 0xb64c
0000B5DD  7249              jc 0xb628
0000B5DF  69536149694545    imul edx,[ebx+0x61],dword 0x45456949
0000B5E6  45                inc ebp
0000B5E7  45                inc ebp
0000B5E8  45                inc ebp
0000B5E9  4E                dec esi
0000B5EA  53                push ebx
0000B5EB  7431              jz 0xb61e
0000B5ED  315F4E            xor [edi+0x4e],ebx
0000B5F0  697465725F626173  imul esi,[ebp+0x72],dword 0x7361625f
0000B5F8  6549              gs dec ecx
0000B5FA  54                push esp
0000B5FB  5F                pop edi
0000B5FC  45                inc ebp
0000B5FD  3133              xor [ebx],esi
0000B5FF  6974657261746F72  imul esi,[ebp+0x72],dword 0x726f7461
0000B607  5F                pop edi
0000B608  7479              jz 0xb683
0000B60A  7065              jo 0xb671
0000B60C  45                inc ebp
0000B60D  53                push ebx
0000B60E  395F00            cmp [edi+0x0],ebx
0000B611  5F                pop edi
0000B612  5F                pop edi
0000B613  44                inc esp
0000B614  54                push esp
0000B615  4F                dec edi
0000B616  52                push edx
0000B617  5F                pop edi
0000B618  45                inc ebp
0000B619  4E                dec esi
0000B61A  44                inc esp
0000B61B  5F                pop edi
0000B61C  5F                pop edi
0000B61D  005F5A            add [edi+0x5a],bl
0000B620  4E                dec esi
0000B621  53                push ebx
0000B622  7436              jz 0xb65a
0000B624  7665              jna 0xb68b
0000B626  63746F72          arpl [edi+ebp*2+0x72],si
0000B62A  49                dec ecx
0000B62B  69536149694545    imul edx,[ebx+0x61],dword 0x45456949
0000B632  3562656769        xor eax,0x69676562
0000B637  6E                outsb
0000B638  45                inc ebp
0000B639  7600              jna 0xb63b
0000B63B  5F                pop edi
0000B63C  5A                pop edx
0000B63D  4E                dec esi
0000B63E  53                push ebx
0000B63F  7431              jz 0xb672
0000B641  305F49            xor [edi+0x49],bl
0000B644  7465              jz 0xb6ab
0000B646  725F              jc 0xb6a7
0000B648  626173            bound esp,[ecx+0x73]
0000B64B  6549              gs dec ecx
0000B64D  50                push eax
0000B64E  694C62304545375F  imul ecx,[edx+0x30],dword 0x5f374545
0000B656  53                push ebx
0000B657  5F                pop edi
0000B658  626173            bound esp,[ecx+0x73]
0000B65B  6545              gs inc ebp
0000B65D  53                push ebx
0000B65E  305F00            xor [edi+0x0],bl
0000B661  5F                pop edi
0000B662  5A                pop edx
0000B663  4E                dec esi
0000B664  395F5F            cmp [edi+0x5f],ebx
0000B667  676E              a16 outsb
0000B669  755F              jnz 0xb6ca
0000B66B  637878            arpl [eax+0x78],di
0000B66E  3133              xor [ebx],esi
0000B670  6E                outsb
0000B671  65775F            gs ja 0xb6d3
0000B674  61                popa
0000B675  6C                insb
0000B676  6C                insb
0000B677  6F                outsd
0000B678  636174            arpl [ecx+0x74],sp
0000B67B  6F                outsd
0000B67C  7249              jc 0xb6c7
0000B67E  6945433245524B    imul eax,[ebp+0x43],dword 0x4b524532
0000B685  53                push ebx
0000B686  315F00            xor [edi+0x0],ebx
0000B689  5F                pop edi
0000B68A  5A                pop edx
0000B68B  4E                dec esi
0000B68C  395F5F            cmp [edi+0x5f],ebx
0000B68F  676E              a16 outsb
0000B691  755F              jnz 0xb6f2
0000B693  637878            arpl [eax+0x78],di
0000B696  31345F            xor [edi+ebx*2],esi
0000B699  5F                pop edi
0000B69A  61                popa
0000B69B  6C                insb
0000B69C  6C                insb
0000B69D  6F                outsd
0000B69E  635F74            arpl [edi+0x74],bx
0000B6A1  7261              jc 0xb704
0000B6A3  6974734953614953  imul esi,[ebx+esi*2+0x49],dword 0x53496153
0000B6AB  7434              jz 0xb6e1
0000B6AD  7061              jo 0xb710
0000B6AF  69724963694545    imul esi,[edx+0x49],dword 0x45456963
0000B6B6  45                inc ebp
0000B6B7  39636F            cmp [ebx+0x6f],esp
0000B6BA  6E                outsb
0000B6BB  7374              jnc 0xb731
0000B6BD  7275              jc 0xb734
0000B6BF  63744953          arpl [ecx+ecx*2+0x53],si
0000B6C3  325F45            xor bl,[edi+0x45]
0000B6C6  45                inc ebp
0000B6C7  7652              jna 0xb71b
0000B6C9  53                push ebx
0000B6CA  335F50            xor ebx,[edi+0x50]
0000B6CD  53                push ebx
0000B6CE  325F52            xor bl,[edi+0x52]
0000B6D1  4B                dec ebx
0000B6D2  54                push esp
0000B6D3  5F                pop edi
0000B6D4  005F5F            add [edi+0x5f],bl
0000B6D7  6C                insb
0000B6D8  6962635F637375    imul esp,[edx+0x63],dword 0x7573635f
0000B6DF  5F                pop edi
0000B6E0  696E6974005F5A    imul ebp,[esi+0x69],dword 0x5a5f0074
0000B6E7  4E                dec esi
0000B6E8  395F5F            cmp [edi+0x5f],ebx
0000B6EB  676E              a16 outsb
0000B6ED  755F              jnz 0xb74e
0000B6EF  637878            arpl [eax+0x78],di
0000B6F2  3133              xor [ebx],esi
0000B6F4  6E                outsb
0000B6F5  65775F            gs ja 0xb757
0000B6F8  61                popa
0000B6F9  6C                insb
0000B6FA  6C                insb
0000B6FB  6F                outsd
0000B6FC  636174            arpl [ecx+0x74],sp
0000B6FF  6F                outsd
0000B700  7249              jc 0xb74b
0000B702  53                push ebx
0000B703  7436              jz 0xb73b
0000B705  7665              jna 0xb76c
0000B707  63746F72          arpl [edi+ebp*2+0x72],si
0000B70B  49                dec ecx
0000B70C  69536149694545    imul edx,[ebx+0x61],dword 0x45456949
0000B713  45                inc ebp
0000B714  43                inc ebx
0000B715  324576            xor al,[ebp+0x76]
0000B718  007072            add [eax+0x72],dh
0000B71B  696E7466404047    imul ebp,[esi+0x74],dword 0x47404066
0000B722  4C                dec esp
0000B723  49                dec ecx
0000B724  42                inc edx
0000B725  43                inc ebx
0000B726  5F                pop edi
0000B727  322E              xor ch,[esi]
0000B729  3000              xor [eax],al
0000B72B  5F                pop edi
0000B72C  5A                pop edx
0000B72D  4E                dec esi
0000B72E  53                push ebx
0000B72F  7431              jz 0xb762
0000B731  325F56            xor bl,[edi+0x56]
0000B734  6563746F72        arpl [gs:edi+ebp*2+0x72],si
0000B739  5F                pop edi
0000B73A  626173            bound esp,[ecx+0x73]
0000B73D  6549              gs dec ecx
0000B73F  53                push ebx
0000B740  7436              jz 0xb778
0000B742  7665              jna 0xb7a9
0000B744  63746F72          arpl [edi+ebp*2+0x72],si
0000B748  49                dec ecx
0000B749  69536149694545    imul edx,[ebx+0x61],dword 0x45456949
0000B750  53                push ebx
0000B751  61                popa
0000B752  49                dec ecx
0000B753  53                push ebx
0000B754  325F45            xor bl,[edi+0x45]
0000B757  45                inc ebp
0000B758  43                inc ebx
0000B759  31456A            xor [ebp+0x6a],eax
0000B75C  52                push edx
0000B75D  4B                dec ebx
0000B75E  53                push ebx
0000B75F  335F00            xor ebx,[edi+0x0]
0000B762  5F                pop edi
0000B763  5A                pop edx
0000B764  4E                dec esi
0000B765  4B                dec ebx
0000B766  395F5F            cmp [edi+0x5f],ebx
0000B769  676E              a16 outsb
0000B76B  755F              jnz 0xb7cc
0000B76D  637878            arpl [eax+0x78],di
0000B770  3133              xor [ebx],esi
0000B772  6E                outsb
0000B773  65775F            gs ja 0xb7d5
0000B776  61                popa
0000B777  6C                insb
0000B778  6C                insb
0000B779  6F                outsd
0000B77A  636174            arpl [ecx+0x74],sp
0000B77D  6F                outsd
0000B77E  7249              jc 0xb7c9
0000B780  53                push ebx
0000B781  7436              jz 0xb7b9
0000B783  7665              jna 0xb7ea
0000B785  63746F72          arpl [edi+ebp*2+0x72],si
0000B789  49                dec ecx
0000B78A  53                push ebx
0000B78B  7434              jz 0xb7c1
0000B78D  7061              jo 0xb7f0
0000B78F  69724963694553    imul esi,[edx+0x49],dword 0x53456963
0000B796  61                popa
0000B797  49                dec ecx
0000B798  53                push ebx
0000B799  335F45            xor ebx,[edi+0x45]
0000B79C  45                inc ebp
0000B79D  45                inc ebp
0000B79E  386D61            cmp [ebp+0x61],ch
0000B7A1  785F              js 0xb802
0000B7A3  7369              jnc 0xb80e
0000B7A5  7A65              jpe 0xb80c
0000B7A7  45                inc ebp
0000B7A8  7600              jna 0xb7aa
0000B7AA  5F                pop edi
0000B7AB  5A                pop edx
0000B7AC  4E                dec esi
0000B7AD  53                push ebx
0000B7AE  61                popa
0000B7AF  49                dec ecx
0000B7B0  69454432457600    imul eax,[ebp+0x44],dword 0x764532
0000B7B7  5F                pop edi
0000B7B8  5A                pop edx
0000B7B9  4E                dec esi
0000B7BA  395F5F            cmp [edi+0x5f],ebx
0000B7BD  676E              a16 outsb
0000B7BF  755F              jnz 0xb820
0000B7C1  637878            arpl [eax+0x78],di
0000B7C4  3137              xor [edi],esi
0000B7C6  5F                pop edi
0000B7C7  5F                pop edi
0000B7C8  6E                outsb
0000B7C9  6F                outsd
0000B7CA  726D              jc 0xb839
0000B7CC  61                popa
0000B7CD  6C                insb
0000B7CE  5F                pop edi
0000B7CF  6974657261746F72  imul esi,[ebp+0x72],dword 0x726f7461
0000B7D7  49                dec ecx
0000B7D8  50                push eax
0000B7D9  4B                dec ebx
0000B7DA  69537436766563    imul edx,[ebx+0x74],dword 0x63657636
0000B7E1  746F              jz 0xb852
0000B7E3  7249              jc 0xb82e
0000B7E5  69536149694545    imul edx,[ebx+0x61],dword 0x45456949
0000B7EC  45                inc ebp
0000B7ED  43                inc ebx
0000B7EE  314552            xor [ebp+0x52],eax
0000B7F1  4B                dec ebx
0000B7F2  53                push ebx
0000B7F3  325F00            xor bl,[edi+0x0]
0000B7F6  5F                pop edi
0000B7F7  5A                pop edx
0000B7F8  4E                dec esi
0000B7F9  53                push ebx
0000B7FA  61                popa
0000B7FB  49                dec ecx
0000B7FC  69454331457600    imul eax,[ebp+0x43],dword 0x764531
0000B803  5F                pop edi
0000B804  5A                pop edx
0000B805  4E                dec esi
0000B806  53                push ebx
0000B807  7431              jz 0xb83a
0000B809  325F56            xor bl,[edi+0x56]
0000B80C  6563746F72        arpl [gs:edi+ebp*2+0x72],si
0000B811  5F                pop edi
0000B812  626173            bound esp,[ecx+0x73]
0000B815  6549              gs dec ecx
0000B817  53                push ebx
0000B818  7436              jz 0xb850
0000B81A  7665              jna 0xb881
0000B81C  63746F72          arpl [edi+ebp*2+0x72],si
0000B820  49                dec ecx
0000B821  53                push ebx
0000B822  7434              jz 0xb858
0000B824  7061              jo 0xb887
0000B826  69724963694553    imul esi,[edx+0x49],dword 0x53456963
0000B82D  61                popa
0000B82E  49                dec ecx
0000B82F  53                push ebx
0000B830  325F45            xor bl,[edi+0x45]
0000B833  45                inc ebp
0000B834  53                push ebx
0000B835  61                popa
0000B836  49                dec ecx
0000B837  53                push ebx
0000B838  345F              xor al,0x5f
0000B83A  45                inc ebp
0000B83B  45                inc ebp
0000B83C  3133              xor [ebx],esi
0000B83E  5F                pop edi
0000B83F  4D                dec ebp
0000B840  5F                pop edi
0000B841  646561            gs popa
0000B844  6C                insb
0000B845  6C                insb
0000B846  6F                outsd
0000B847  636174            arpl [ecx+0x74],sp
0000B84A  6545              gs inc ebp
0000B84C  50                push eax
0000B84D  53                push ebx
0000B84E  345F              xor al,0x5f
0000B850  6A00              push byte +0x0
0000B852  5F                pop edi
0000B853  5A                pop edx
0000B854  4E                dec esi
0000B855  53                push ebx
0000B856  7431              jz 0xb889
0000B858  325F56            xor bl,[edi+0x56]
0000B85B  6563746F72        arpl [gs:edi+ebp*2+0x72],si
0000B860  5F                pop edi
0000B861  626173            bound esp,[ecx+0x73]
0000B864  6549              gs dec ecx
0000B866  53                push ebx
0000B867  7434              jz 0xb89d
0000B869  7061              jo 0xb8cc
0000B86B  69724963694553    imul esi,[edx+0x49],dword 0x53456963
0000B872  61                popa
0000B873  49                dec ecx
0000B874  53                push ebx
0000B875  315F45            xor [edi+0x45],ebx
0000B878  45                inc ebp
0000B879  3139              xor [ecx],edi
0000B87B  5F                pop edi
0000B87C  4D                dec ebp
0000B87D  5F                pop edi
0000B87E  6765745F          gs a16 jz 0xb8e1
0000B882  54                push esp
0000B883  705F              jo 0xb8e4
0000B885  61                popa
0000B886  6C                insb
0000B887  6C                insb
0000B888  6F                outsd
0000B889  636174            arpl [ecx+0x74],sp
0000B88C  6F                outsd
0000B88D  7245              jc 0xb8d4
0000B88F  7600              jna 0xb891
0000B891  5F                pop edi
0000B892  5A                pop edx
0000B893  4E                dec esi
0000B894  395F5F            cmp [edi+0x5f],ebx
0000B897  676E              a16 outsb
0000B899  755F              jnz 0xb8fa
0000B89B  637878            arpl [eax+0x78],di
0000B89E  3137              xor [edi],esi
0000B8A0  5F                pop edi
0000B8A1  5F                pop edi
0000B8A2  6E                outsb
0000B8A3  6F                outsd
0000B8A4  726D              jc 0xb913
0000B8A6  61                popa
0000B8A7  6C                insb
0000B8A8  5F                pop edi
0000B8A9  6974657261746F72  imul esi,[ebp+0x72],dword 0x726f7461
0000B8B1  49                dec ecx
0000B8B2  50                push eax
0000B8B3  69537436766563    imul edx,[ebx+0x74],dword 0x63657636
0000B8BA  746F              jz 0xb92b
0000B8BC  7249              jc 0xb907
0000B8BE  69536149694545    imul edx,[ebx+0x61],dword 0x45456949
0000B8C5  45                inc ebp
0000B8C6  43                inc ebx
0000B8C7  324552            xor al,[ebp+0x52]
0000B8CA  4B                dec ebx
0000B8CB  53                push ebx
0000B8CC  315F00            xor [edi+0x0],ebx
0000B8CF  5F                pop edi
0000B8D0  5A                pop edx
0000B8D1  4E                dec esi
0000B8D2  53                push ebx
0000B8D3  7436              jz 0xb90b
0000B8D5  7665              jna 0xb93c
0000B8D7  63746F72          arpl [edi+ebp*2+0x72],si
0000B8DB  49                dec ecx
0000B8DC  53                push ebx
0000B8DD  5F                pop edi
0000B8DE  49                dec ecx
0000B8DF  53                push ebx
0000B8E0  7434              jz 0xb916
0000B8E2  7061              jo 0xb945
0000B8E4  69724963694553    imul esi,[edx+0x49],dword 0x53456963
0000B8EB  61                popa
0000B8EC  49                dec ecx
0000B8ED  53                push ebx
0000B8EE  315F45            xor [edi+0x45],ebx
0000B8F1  45                inc ebp
0000B8F2  53                push ebx
0000B8F3  61                popa
0000B8F4  49                dec ecx
0000B8F5  53                push ebx
0000B8F6  335F45            xor ebx,[edi+0x45]
0000B8F9  45                inc ebp
0000B8FA  43                inc ebx
0000B8FB  31456A            xor [ebp+0x6a],eax
0000B8FE  52                push edx
0000B8FF  4B                dec ebx
0000B900  53                push ebx
0000B901  335F52            xor ebx,[edi+0x52]
0000B904  4B                dec ebx
0000B905  53                push ebx
0000B906  345F              xor al,0x5f
0000B908  005F5A            add [edi+0x5a],bl
0000B90B  4E                dec esi
0000B90C  4B                dec ebx
0000B90D  53                push ebx
0000B90E  7436              jz 0xb946
0000B910  7665              jna 0xb977
0000B912  63746F72          arpl [edi+ebp*2+0x72],si
0000B916  49                dec ecx
0000B917  69536149694545    imul edx,[ebx+0x61],dword 0x45456949
0000B91E  33656E            xor esp,[ebp+0x6e]
0000B921  6445              fs inc ebp
0000B923  7600              jna 0xb925
0000B925  5F                pop edi
0000B926  5A                pop edx
0000B927  53                push ebx
0000B928  7431              jz 0xb95b
0000B92A  315F5F            xor [edi+0x5f],ebx
0000B92D  7075              jo 0xb9a4
0000B92F  7368              jnc 0xb999
0000B931  5F                pop edi
0000B932  6865617049        push dword 0x49706165
0000B937  4E                dec esi
0000B938  395F5F            cmp [edi+0x5f],ebx
0000B93B  676E              a16 outsb
0000B93D  755F              jnz 0xb99e
0000B93F  637878            arpl [eax+0x78],di
0000B942  3137              xor [edi],esi
0000B944  5F                pop edi
0000B945  5F                pop edi
0000B946  6E                outsb
0000B947  6F                outsd
0000B948  726D              jc 0xb9b7
0000B94A  61                popa
0000B94B  6C                insb
0000B94C  5F                pop edi
0000B94D  6974657261746F72  imul esi,[ebp+0x72],dword 0x726f7461
0000B955  49                dec ecx
0000B956  50                push eax
0000B957  69537436766563    imul edx,[ebx+0x74],dword 0x63657636
0000B95E  746F              jz 0xb9cf
0000B960  7249              jc 0xb9ab
0000B962  69536149694545    imul edx,[ebx+0x61],dword 0x45456949
0000B969  45                inc ebp
0000B96A  45                inc ebp
0000B96B  69694576545F54    imul ebp,[ecx+0x45],dword 0x545f5476
0000B972  305F53            xor [edi+0x53],bl
0000B975  385F54            cmp [edi+0x54],bl
0000B978  315F00            xor [edi+0x0],ebx
0000B97B  5F                pop edi
0000B97C  5A                pop edx
0000B97D  4E                dec esi
0000B97E  53                push ebx
0000B97F  7436              jz 0xb9b7
0000B981  7665              jna 0xb9e8
0000B983  63746F72          arpl [edi+ebp*2+0x72],si
0000B987  49                dec ecx
0000B988  53                push ebx
0000B989  7434              jz 0xb9bf
0000B98B  7061              jo 0xb9ee
0000B98D  69724963694553    imul esi,[edx+0x49],dword 0x53456963
0000B994  61                popa
0000B995  49                dec ecx
0000B996  53                push ebx
0000B997  315F45            xor [edi+0x45],ebx
0000B99A  45                inc ebp
0000B99B  43                inc ebx
0000B99C  324576            xor al,[ebp+0x76]
0000B99F  005F5A            add [edi+0x5a],bl
0000B9A2  4E                dec esi
0000B9A3  53                push ebx
0000B9A4  7431              jz 0xb9d7
0000B9A6  325F44            xor bl,[edi+0x44]
0000B9A9  657374            gs jnc 0xba20
0000B9AC  726F              jc 0xba1d
0000B9AE  795F              jns 0xba0f
0000B9B0  61                popa
0000B9B1  7578              jnz 0xba2b
0000B9B3  49                dec ecx
0000B9B4  4C                dec esp
0000B9B5  6230              bound esi,[eax]
0000B9B7  45                inc ebp
0000B9B8  45                inc ebp
0000B9B9  395F5F            cmp [edi+0x5f],ebx
0000B9BC  64657374          gs jnc 0xba34
0000B9C0  726F              jc 0xba31
0000B9C2  7949              jns 0xba0d
0000B9C4  50                push eax
0000B9C5  53                push ebx
0000B9C6  7436              jz 0xb9fe
0000B9C8  7665              jna 0xba2f
0000B9CA  63746F72          arpl [edi+ebp*2+0x72],si
0000B9CE  49                dec ecx
0000B9CF  69536149694545    imul edx,[ebx+0x61],dword 0x45456949
0000B9D6  45                inc ebp
0000B9D7  45                inc ebp
0000B9D8  7654              jna 0xba2e
0000B9DA  5F                pop edi
0000B9DB  53                push ebx
0000B9DC  365F              ss pop edi
0000B9DE  005F5A            add [edi+0x5a],bl
0000B9E1  4E                dec esi
0000B9E2  53                push ebx
0000B9E3  61                popa
0000B9E4  49                dec ecx
0000B9E5  53                push ebx
0000B9E6  7434              jz 0xba1c
0000B9E8  7061              jo 0xba4b
0000B9EA  69724963694545    imul esi,[edx+0x49],dword 0x45456963
0000B9F1  44                inc esp
0000B9F2  314576            xor [ebp+0x76],eax
0000B9F5  005F5A            add [edi+0x5a],bl
0000B9F8  53                push ebx
0000B9F9  7431              jz 0xba2c
0000B9FB  305F5F            xor [edi+0x5f],bl
0000B9FE  66696C6C5F6E5F    imul bp,[esp+ebp*2+0x5f],word 0x5f6e
0000BA05  61                popa
0000BA06  49                dec ecx
0000BA07  50                push eax
0000BA08  696A69454E395F    imul ebp,[edx+0x69],dword 0x5f394e45
0000BA0F  5F                pop edi
0000BA10  676E              a16 outsb
0000BA12  755F              jnz 0xba73
0000BA14  637878            arpl [eax+0x78],di
0000BA17  3131              xor [ecx],esi
0000BA19  5F                pop edi
0000BA1A  5F                pop edi
0000BA1B  656E              gs outsb
0000BA1D  61                popa
0000BA1E  626C655F          bound ebp,[ebp+0x5f]
0000BA22  69664958737253    imul esp,[esi+0x49],dword 0x53727358
0000BA29  7431              jz 0xba5c
0000BA2B  315F5F            xor [edi+0x5f],ebx
0000BA2E  69735F7363616C    imul esi,[ebx+0x5f],dword 0x6c616373
0000BA35  61                popa
0000BA36  7249              jc 0xba81
0000BA38  54                push esp
0000BA39  315F45            xor [edi+0x45],ebx
0000BA3C  37                aaa
0000BA3D  5F                pop edi
0000BA3E  5F                pop edi
0000BA3F  7661              jna 0xbaa2
0000BA41  6C                insb
0000BA42  7565              jnz 0xbaa9
0000BA44  45                inc ebp
0000BA45  54                push esp
0000BA46  5F                pop edi
0000BA47  45                inc ebp
0000BA48  365F              ss pop edi
0000BA4A  5F                pop edi
0000BA4B  7479              jz 0xbac6
0000BA4D  7065              jo 0xbab4
0000BA4F  45                inc ebp
0000BA50  53                push ebx
0000BA51  365F              ss pop edi
0000BA53  54                push esp
0000BA54  305F52            xor [edi+0x52],bl
0000BA57  4B                dec ebx
0000BA58  53                push ebx
0000BA59  345F              xor al,0x5f
0000BA5B  005F5A            add [edi+0x5a],bl
0000BA5E  6E                outsb
0000BA5F  776A              ja 0xbacb
0000BA61  40                inc eax
0000BA62  40                inc eax
0000BA63  47                inc edi
0000BA64  4C                dec esp
0000BA65  49                dec ecx
0000BA66  42                inc edx
0000BA67  43                inc ebx
0000BA68  58                pop eax
0000BA69  58                pop eax
0000BA6A  5F                pop edi
0000BA6B  332E              xor ebp,[esi]
0000BA6D  3400              xor al,0x0
0000BA6F  5F                pop edi
0000BA70  5A                pop edx
0000BA71  4E                dec esi
0000BA72  395F5F            cmp [edi+0x5f],ebx
0000BA75  676E              a16 outsb
0000BA77  755F              jnz 0xbad8
0000BA79  637878            arpl [eax+0x78],di
0000BA7C  3133              xor [ebx],esi
0000BA7E  6E                outsb
0000BA7F  65775F            gs ja 0xbae1
0000BA82  61                popa
0000BA83  6C                insb
0000BA84  6C                insb
0000BA85  6F                outsd
0000BA86  636174            arpl [ecx+0x74],sp
0000BA89  6F                outsd
0000BA8A  7249              jc 0xbad5
0000BA8C  53                push ebx
0000BA8D  7436              jz 0xbac5
0000BA8F  7665              jna 0xbaf6
0000BA91  63746F72          arpl [edi+ebp*2+0x72],si
0000BA95  49                dec ecx
0000BA96  53                push ebx
0000BA97  7434              jz 0xbacd
0000BA99  7061              jo 0xbafc
0000BA9B  69724963694553    imul esi,[edx+0x49],dword 0x53456963
0000BAA2  61                popa
0000BAA3  49                dec ecx
0000BAA4  53                push ebx
0000BAA5  335F45            xor ebx,[edi+0x45]
0000BAA8  45                inc ebp
0000BAA9  45                inc ebp
0000BAAA  3130              xor [eax],esi
0000BAAC  646561            gs popa
0000BAAF  6C                insb
0000BAB0  6C                insb
0000BAB1  6F                outsd
0000BAB2  636174            arpl [ecx+0x74],sp
0000BAB5  6545              gs inc ebp
0000BAB7  50                push eax
0000BAB8  53                push ebx
0000BAB9  355F6A005F        xor eax,0x5f006a5f
0000BABE  5A                pop edx
0000BABF  4E                dec esi
0000BAC0  395F5F            cmp [edi+0x5f],ebx
0000BAC3  676E              a16 outsb
0000BAC5  755F              jnz 0xbb26
0000BAC7  637878            arpl [eax+0x78],di
0000BACA  3133              xor [ebx],esi
0000BACC  6E                outsb
0000BACD  65775F            gs ja 0xbb2f
0000BAD0  61                popa
0000BAD1  6C                insb
0000BAD2  6C                insb
0000BAD3  6F                outsd
0000BAD4  636174            arpl [ecx+0x74],sp
0000BAD7  6F                outsd
0000BAD8  7249              jc 0xbb23
0000BADA  53                push ebx
0000BADB  7436              jz 0xbb13
0000BADD  7665              jna 0xbb44
0000BADF  63746F72          arpl [edi+ebp*2+0x72],si
0000BAE3  49                dec ecx
0000BAE4  53                push ebx
0000BAE5  7434              jz 0xbb1b
0000BAE7  7061              jo 0xbb4a
0000BAE9  69724963694553    imul esi,[edx+0x49],dword 0x53456963
0000BAF0  61                popa
0000BAF1  49                dec ecx
0000BAF2  53                push ebx
0000BAF3  335F45            xor ebx,[edi+0x45]
0000BAF6  45                inc ebp
0000BAF7  45                inc ebp
0000BAF8  43                inc ebx
0000BAF9  324552            xor al,[ebp+0x52]
0000BAFC  4B                dec ebx
0000BAFD  53                push ebx
0000BAFE  365F              ss pop edi
0000BB00  005F5A            add [edi+0x5a],bl
0000BB03  53                push ebx
0000BB04  7431              jz 0xbb37
0000BB06  325F5F            xor bl,[edi+0x5f]
0000BB09  6E                outsb
0000BB0A  697465725F626173  imul esi,[ebp+0x72],dword 0x7361625f
0000BB12  6549              gs dec ecx
0000BB14  50                push eax
0000BB15  53                push ebx
0000BB16  7434              jz 0xbb4c
0000BB18  7061              jo 0xbb7b
0000BB1A  69724963694545    imul esi,[edx+0x49],dword 0x45456963
0000BB21  4E                dec esi
0000BB22  53                push ebx
0000BB23  7431              jz 0xbb56
0000BB25  315F4E            xor [edi+0x4e],ebx
0000BB28  697465725F626173  imul esi,[ebp+0x72],dword 0x7361625f
0000BB30  6549              gs dec ecx
0000BB32  54                push esp
0000BB33  5F                pop edi
0000BB34  45                inc ebp
0000BB35  3133              xor [ebx],esi
0000BB37  6974657261746F72  imul esi,[ebp+0x72],dword 0x726f7461
0000BB3F  5F                pop edi
0000BB40  7479              jz 0xbbbb
0000BB42  7065              jo 0xbba9
0000BB44  45                inc ebp
0000BB45  53                push ebx
0000BB46  345F              xor al,0x5f
0000BB48  005F5A            add [edi+0x5a],bl
0000BB4B  4E                dec esi
0000BB4C  53                push ebx
0000BB4D  61                popa
0000BB4E  49                dec ecx
0000BB4F  53                push ebx
0000BB50  7436              jz 0xbb88
0000BB52  7665              jna 0xbbb9
0000BB54  63746F72          arpl [edi+ebp*2+0x72],si
0000BB58  49                dec ecx
0000BB59  53                push ebx
0000BB5A  7434              jz 0xbb90
0000BB5C  7061              jo 0xbbbf
0000BB5E  69724963694553    imul esi,[edx+0x49],dword 0x53456963
0000BB65  61                popa
0000BB66  49                dec ecx
0000BB67  53                push ebx
0000BB68  315F45            xor [edi+0x45],ebx
0000BB6B  45                inc ebp
0000BB6C  45                inc ebp
0000BB6D  44                inc esp
0000BB6E  324576            xor al,[ebp+0x76]
0000BB71  005F5A            add [edi+0x5a],bl
0000BB74  53                push ebx
0000BB75  7438              jz 0xbbaf
0000BB77  5F                pop edi
0000BB78  44                inc esp
0000BB79  657374            gs jnc 0xbbf0
0000BB7C  726F              jc 0xbbed
0000BB7E  7949              jns 0xbbc9
0000BB80  50                push eax
0000BB81  53                push ebx
0000BB82  7434              jz 0xbbb8
0000BB84  7061              jo 0xbbe7
0000BB86  69724963694545    imul esi,[edx+0x49],dword 0x45456963
0000BB8D  7654              jna 0xbbe3
0000BB8F  5F                pop edi
0000BB90  53                push ebx
0000BB91  335F00            xor ebx,[edi+0x0]
0000BB94  5F                pop edi
0000BB95  5A                pop edx
0000BB96  4E                dec esi
0000BB97  395F5F            cmp [edi+0x5f],ebx
0000BB9A  676E              a16 outsb
0000BB9C  755F              jnz 0xbbfd
0000BB9E  637878            arpl [eax+0x78],di
0000BBA1  3133              xor [ebx],esi
0000BBA3  6E                outsb
0000BBA4  65775F            gs ja 0xbc06
0000BBA7  61                popa
0000BBA8  6C                insb
0000BBA9  6C                insb
0000BBAA  6F                outsd
0000BBAB  636174            arpl [ecx+0x74],sp
0000BBAE  6F                outsd
0000BBAF  7249              jc 0xbbfa
0000BBB1  53                push ebx
0000BBB2  7434              jz 0xbbe8
0000BBB4  7061              jo 0xbc17
0000BBB6  69724963694545    imul esi,[edx+0x49],dword 0x45456963
0000BBBD  43                inc ebx
0000BBBE  324576            xor al,[ebp+0x76]
0000BBC1  005F5A            add [edi+0x5a],bl
0000BBC4  4E                dec esi
0000BBC5  53                push ebx
0000BBC6  7431              jz 0xbbf9
0000BBC8  325F56            xor bl,[edi+0x56]
0000BBCB  6563746F72        arpl [gs:edi+ebp*2+0x72],si
0000BBD0  5F                pop edi
0000BBD1  626173            bound esp,[ecx+0x73]
0000BBD4  6549              gs dec ecx
0000BBD6  53                push ebx
0000BBD7  7434              jz 0xbc0d
0000BBD9  7061              jo 0xbc3c
0000BBDB  69724963694553    imul esi,[edx+0x49],dword 0x53456963
0000BBE2  61                popa
0000BBE3  49                dec ecx
0000BBE4  53                push ebx
0000BBE5  315F45            xor [edi+0x45],ebx
0000BBE8  45                inc ebp
0000BBE9  3132              xor [edx],esi
0000BBEB  5F                pop edi
0000BBEC  56                push esi
0000BBED  6563746F72        arpl [gs:edi+ebp*2+0x72],si
0000BBF2  5F                pop edi
0000BBF3  696D706C433245    imul ebp,[ebp+0x70],dword 0x4532436c
0000BBFA  7600              jna 0xbbfc
0000BBFC  5F                pop edi
0000BBFD  5A                pop edx
0000BBFE  53                push ebx
0000BBFF  7431              jz 0xbc32
0000BC01  335F5F            xor ebx,[edi+0x5f]
0000BC04  636F70            arpl [edi+0x70],bp
0000BC07  795F              jns 0xbc68
0000BC09  6D                insd
0000BC0A  6F                outsd
0000BC0B  7665              jna 0xbc72
0000BC0D  5F                pop edi
0000BC0E  61                popa
0000BC0F  49                dec ecx
0000BC10  4C                dec esp
0000BC11  6230              bound esi,[eax]
0000BC13  45                inc ebp
0000BC14  50                push eax
0000BC15  4B                dec ebx
0000BC16  6950694554315F    imul edx,[eax+0x69],dword 0x5f315445
0000BC1D  54                push esp
0000BC1E  305F53            xor [edi+0x53],bl
0000BC21  345F              xor al,0x5f
0000BC23  53                push ebx
0000BC24  335F00            xor ebx,[edi+0x0]
0000BC27  5F                pop edi
0000BC28  5A                pop edx
0000BC29  4E                dec esi
0000BC2A  4B                dec ebx
0000BC2B  395F5F            cmp [edi+0x5f],ebx
0000BC2E  676E              a16 outsb
0000BC30  755F              jnz 0xbc91
0000BC32  637878            arpl [eax+0x78],di
0000BC35  3137              xor [edi],esi
0000BC37  5F                pop edi
0000BC38  5F                pop edi
0000BC39  6E                outsb
0000BC3A  6F                outsd
0000BC3B  726D              jc 0xbcaa
0000BC3D  61                popa
0000BC3E  6C                insb
0000BC3F  5F                pop edi
0000BC40  6974657261746F72  imul esi,[ebp+0x72],dword 0x726f7461
0000BC48  49                dec ecx
0000BC49  50                push eax
0000BC4A  69537436766563    imul edx,[ebx+0x74],dword 0x63657636
0000BC51  746F              jz 0xbcc2
0000BC53  7249              jc 0xbc9e
0000BC55  69536149694545    imul edx,[ebx+0x61],dword 0x45456949
0000BC5C  45                inc ebp
0000BC5D  6D                insd
0000BC5E  6945524B69005F    imul eax,[ebp+0x52],dword 0x5f00694b
0000BC65  5A                pop edx
0000BC66  4E                dec esi
0000BC67  53                push ebx
0000BC68  7436              jz 0xbca0
0000BC6A  7665              jna 0xbcd1
0000BC6C  63746F72          arpl [edi+ebp*2+0x72],si
0000BC70  49                dec ecx
0000BC71  69536149694545    imul edx,[ebx+0x61],dword 0x45456949
0000BC78  44                inc esp
0000BC79  324576            xor al,[ebp+0x76]
0000BC7C  005F5A            add [edi+0x5a],bl
0000BC7F  4E                dec esi
0000BC80  395F5F            cmp [edi+0x5f],ebx
0000BC83  676E              a16 outsb
0000BC85  755F              jnz 0xbce6
0000BC87  637878            arpl [eax+0x78],di
0000BC8A  3133              xor [ebx],esi
0000BC8C  6E                outsb
0000BC8D  65775F            gs ja 0xbcef
0000BC90  61                popa
0000BC91  6C                insb
0000BC92  6C                insb
0000BC93  6F                outsd
0000BC94  636174            arpl [ecx+0x74],sp
0000BC97  6F                outsd
0000BC98  7249              jc 0xbce3
0000BC9A  53                push ebx
0000BC9B  7434              jz 0xbcd1
0000BC9D  7061              jo 0xbd00
0000BC9F  69724963694545    imul esi,[edx+0x49],dword 0x45456963
0000BCA6  44                inc esp
0000BCA7  314576            xor [ebp+0x76],eax
0000BCAA  005F5A            add [edi+0x5a],bl
0000BCAD  4E                dec esi
0000BCAE  53                push ebx
0000BCAF  7431              jz 0xbce2
0000BCB1  325F56            xor bl,[edi+0x56]
0000BCB4  6563746F72        arpl [gs:edi+ebp*2+0x72],si
0000BCB9  5F                pop edi
0000BCBA  626173            bound esp,[ecx+0x73]
0000BCBD  6549              gs dec ecx
0000BCBF  53                push ebx
0000BCC0  7434              jz 0xbcf6
0000BCC2  7061              jo 0xbd25
0000BCC4  69724963694553    imul esi,[edx+0x49],dword 0x53456963
0000BCCB  61                popa
0000BCCC  49                dec ecx
0000BCCD  53                push ebx
0000BCCE  315F45            xor [edi+0x45],ebx
0000BCD1  45                inc ebp
0000BCD2  3132              xor [edx],esi
0000BCD4  5F                pop edi
0000BCD5  56                push esi
0000BCD6  6563746F72        arpl [gs:edi+ebp*2+0x72],si
0000BCDB  5F                pop edi
0000BCDC  696D706C443145    imul ebp,[ebp+0x70],dword 0x4531446c
0000BCE3  7600              jna 0xbce5
0000BCE5  5F                pop edi
0000BCE6  5A                pop edx
0000BCE7  53                push ebx
0000BCE8  7432              jz 0xbd1c
0000BCEA  325F5F            xor bl,[edi+0x5f]
0000BCED  636F70            arpl [edi+0x70],bp
0000BCF0  795F              jns 0xbd51
0000BCF2  6D                insd
0000BCF3  6F                outsd
0000BCF4  7665              jna 0xbd5b
0000BCF6  5F                pop edi
0000BCF7  626163            bound esp,[ecx+0x63]
0000BCFA  6B776172          imul esi,[edi+0x61],byte +0x72
0000BCFE  645F              fs pop edi
0000BD00  61                popa
0000BD01  49                dec ecx
0000BD02  4C                dec esp
0000BD03  6230              bound esi,[eax]
0000BD05  45                inc ebp
0000BD06  50                push eax
0000BD07  53                push ebx
0000BD08  7434              jz 0xbd3e
0000BD0A  7061              jo 0xbd6d
0000BD0C  69724963694553    imul esi,[edx+0x49],dword 0x53456963
0000BD13  325F45            xor bl,[edi+0x45]
0000BD16  54                push esp
0000BD17  315F54            xor [edi+0x54],ebx
0000BD1A  305F53            xor [edi+0x53],bl
0000BD1D  345F              xor al,0x5f
0000BD1F  53                push ebx
0000BD20  335F00            xor ebx,[edi+0x0]
0000BD23  5F                pop edi
0000BD24  5A                pop edx
0000BD25  4E                dec esi
0000BD26  4B                dec ebx
0000BD27  53                push ebx
0000BD28  7436              jz 0xbd60
0000BD2A  7665              jna 0xbd91
0000BD2C  63746F72          arpl [edi+ebp*2+0x72],si
0000BD30  49                dec ecx
0000BD31  53                push ebx
0000BD32  7434              jz 0xbd68
0000BD34  7061              jo 0xbd97
0000BD36  69724963694553    imul esi,[edx+0x49],dword 0x53456963
0000BD3D  61                popa
0000BD3E  49                dec ecx
0000BD3F  53                push ebx
0000BD40  315F45            xor [edi+0x45],ebx
0000BD43  45                inc ebp
0000BD44  3473              xor al,0x73
0000BD46  697A654576005F    imul edi,[edx+0x65],dword 0x5f007645
0000BD4D  5A                pop edx
0000BD4E  4E                dec esi
0000BD4F  4B                dec ebx
0000BD50  395F5F            cmp [edi+0x5f],ebx
0000BD53  676E              a16 outsb
0000BD55  755F              jnz 0xbdb6
0000BD57  637878            arpl [eax+0x78],di
0000BD5A  3137              xor [edi],esi
0000BD5C  5F                pop edi
0000BD5D  5F                pop edi
0000BD5E  6E                outsb
0000BD5F  6F                outsd
0000BD60  726D              jc 0xbdcf
0000BD62  61                popa
0000BD63  6C                insb
0000BD64  5F                pop edi
0000BD65  6974657261746F72  imul esi,[ebp+0x72],dword 0x726f7461
0000BD6D  49                dec ecx
0000BD6E  50                push eax
0000BD6F  4B                dec ebx
0000BD70  69537436766563    imul edx,[ebx+0x74],dword 0x63657636
0000BD77  746F              jz 0xbde8
0000BD79  7249              jc 0xbdc4
0000BD7B  69536149694545    imul edx,[ebx+0x61],dword 0x45456949
0000BD82  45                inc ebp
0000BD83  3462              xor al,0x62
0000BD85  61                popa
0000BD86  7365              jnc 0xbded
0000BD88  45                inc ebp
0000BD89  7600              jna 0xbd8b
0000BD8B  5F                pop edi
0000BD8C  5A                pop edx
0000BD8D  4E                dec esi
0000BD8E  4B                dec ebx
0000BD8F  395F5F            cmp [edi+0x5f],ebx
0000BD92  676E              a16 outsb
0000BD94  755F              jnz 0xbdf5
0000BD96  637878            arpl [eax+0x78],di
0000BD99  3137              xor [edi],esi
0000BD9B  5F                pop edi
0000BD9C  5F                pop edi
0000BD9D  6E                outsb
0000BD9E  6F                outsd
0000BD9F  726D              jc 0xbe0e
0000BDA1  61                popa
0000BDA2  6C                insb
0000BDA3  5F                pop edi
0000BDA4  6974657261746F72  imul esi,[ebp+0x72],dword 0x726f7461
0000BDAC  49                dec ecx
0000BDAD  50                push eax
0000BDAE  53                push ebx
0000BDAF  7434              jz 0xbde5
0000BDB1  7061              jo 0xbe14
0000BDB3  69724963694553    imul esi,[edx+0x49],dword 0x53456963
0000BDBA  7436              jz 0xbdf2
0000BDBC  7665              jna 0xbe23
0000BDBE  63746F72          arpl [edi+ebp*2+0x72],si
0000BDC2  49                dec ecx
0000BDC3  53                push ebx
0000BDC4  325F53            xor bl,[edi+0x53]
0000BDC7  61                popa
0000BDC8  49                dec ecx
0000BDC9  53                push ebx
0000BDCA  325F45            xor bl,[edi+0x45]
0000BDCD  45                inc ebp
0000BDCE  45                inc ebp
0000BDCF  646545            gs inc ebp
0000BDD2  7600              jna 0xbdd4
0000BDD4  5F                pop edi
0000BDD5  5A                pop edx
0000BDD6  53                push ebx
0000BDD7  7431              jz 0xbe0a
0000BDD9  325F5F            xor bl,[edi+0x5f]
0000BDDC  6E                outsb
0000BDDD  697465725F626173  imul esi,[ebp+0x72],dword 0x7361625f
0000BDE5  6549              gs dec ecx
0000BDE7  4E                dec esi
0000BDE8  395F5F            cmp [edi+0x5f],ebx
0000BDEB  676E              a16 outsb
0000BDED  755F              jnz 0xbe4e
0000BDEF  637878            arpl [eax+0x78],di
0000BDF2  3137              xor [edi],esi
0000BDF4  5F                pop edi
0000BDF5  5F                pop edi
0000BDF6  6E                outsb
0000BDF7  6F                outsd
0000BDF8  726D              jc 0xbe67
0000BDFA  61                popa
0000BDFB  6C                insb
0000BDFC  5F                pop edi
0000BDFD  6974657261746F72  imul esi,[ebp+0x72],dword 0x726f7461
0000BE05  49                dec ecx
0000BE06  50                push eax
0000BE07  69537436766563    imul edx,[ebx+0x74],dword 0x63657636
0000BE0E  746F              jz 0xbe7f
0000BE10  7249              jc 0xbe5b
0000BE12  69536149694545    imul edx,[ebx+0x61],dword 0x45456949
0000BE19  45                inc ebp
0000BE1A  45                inc ebp
0000BE1B  45                inc ebp
0000BE1C  4E                dec esi
0000BE1D  53                push ebx
0000BE1E  7431              jz 0xbe51
0000BE20  315F4E            xor [edi+0x4e],ebx
0000BE23  697465725F626173  imul esi,[ebp+0x72],dword 0x7361625f
0000BE2B  6549              gs dec ecx
0000BE2D  54                push esp
0000BE2E  5F                pop edi
0000BE2F  45                inc ebp
0000BE30  3133              xor [ebx],esi
0000BE32  6974657261746F72  imul esi,[ebp+0x72],dword 0x726f7461
0000BE3A  5F                pop edi
0000BE3B  7479              jz 0xbeb6
0000BE3D  7065              jo 0xbea4
0000BE3F  45                inc ebp
0000BE40  53                push ebx
0000BE41  385F00            cmp [edi+0x0],bl
0000BE44  5F                pop edi
0000BE45  5F                pop edi
0000BE46  627373            bound esi,[ebx+0x73]
0000BE49  5F                pop edi
0000BE4A  7374              jnc 0xbec0
0000BE4C  61                popa
0000BE4D  7274              jc 0xbec3
0000BE4F  005F5A            add [edi+0x5a],bl
0000BE52  4E                dec esi
0000BE53  53                push ebx
0000BE54  7436              jz 0xbe8c
0000BE56  7665              jna 0xbebd
0000BE58  63746F72          arpl [edi+ebp*2+0x72],si
0000BE5C  49                dec ecx
0000BE5D  53                push ebx
0000BE5E  7434              jz 0xbe94
0000BE60  7061              jo 0xbec3
0000BE62  69724963694553    imul esi,[edx+0x49],dword 0x53456963
0000BE69  61                popa
0000BE6A  49                dec ecx
0000BE6B  53                push ebx
0000BE6C  315F45            xor [edi+0x45],ebx
0000BE6F  45                inc ebp
0000BE70  3562656769        xor eax,0x69676562
0000BE75  6E                outsb
0000BE76  45                inc ebp
0000BE77  7600              jna 0xbe79
0000BE79  5F                pop edi
0000BE7A  5A                pop edx
0000BE7B  4E                dec esi
0000BE7C  53                push ebx
0000BE7D  7434              jz 0xbeb3
0000BE7F  7061              jo 0xbee2
0000BE81  69724963694543    imul esi,[edx+0x49],dword 0x43456963
0000BE88  314552            xor [ebp+0x52],eax
0000BE8B  4B                dec ebx
0000BE8C  63524B            arpl [edx+0x4b],dx
0000BE8F  69005F5A5374      imul eax,[eax],dword 0x74535a5f
0000BE95  336D61            xor ebp,[ebp+0x61]
0000BE98  7849              js 0xbee3
0000BE9A  6A45              push byte +0x45
0000BE9C  52                push edx
0000BE9D  4B                dec ebx
0000BE9E  54                push esp
0000BE9F  5F                pop edi
0000BEA0  53                push ebx
0000BEA1  325F53            xor bl,[edi+0x53]
0000BEA4  325F00            xor bl,[edi+0x0]
0000BEA7  5F                pop edi
0000BEA8  5A                pop edx
0000BEA9  4E                dec esi
0000BEAA  53                push ebx
0000BEAB  7436              jz 0xbee3
0000BEAD  7665              jna 0xbf14
0000BEAF  63746F72          arpl [edi+ebp*2+0x72],si
0000BEB3  49                dec ecx
0000BEB4  53                push ebx
0000BEB5  5F                pop edi
0000BEB6  49                dec ecx
0000BEB7  69536149694545    imul edx,[ebx+0x61],dword 0x45456949
0000BEBE  53                push ebx
0000BEBF  61                popa
0000BEC0  49                dec ecx
0000BEC1  53                push ebx
0000BEC2  315F45            xor [edi+0x45],ebx
0000BEC5  45                inc ebp
0000BEC6  6978456A005F5A    imul edi,[eax+0x45],dword 0x5a5f006a
0000BECD  4E                dec esi
0000BECE  53                push ebx
0000BECF  61                popa
0000BED0  49                dec ecx
0000BED1  6945433245524B    imul eax,[ebp+0x43],dword 0x4b524532
0000BED8  53                push ebx
0000BED9  5F                pop edi
0000BEDA  005F5A            add [edi+0x5a],bl
0000BEDD  4E                dec esi
0000BEDE  53                push ebx
0000BEDF  61                popa
0000BEE0  49                dec ecx
0000BEE1  53                push ebx
0000BEE2  7436              jz 0xbf1a
0000BEE4  7665              jna 0xbf4b
0000BEE6  63746F72          arpl [edi+ebp*2+0x72],si
0000BEEA  49                dec ecx
0000BEEB  69536149694545    imul edx,[ebx+0x61],dword 0x45456949
0000BEF2  45                inc ebp
0000BEF3  43                inc ebx
0000BEF4  314552            xor [ebp+0x52],eax
0000BEF7  4B                dec ebx
0000BEF8  53                push ebx
0000BEF9  325F00            xor bl,[edi+0x0]
0000BEFC  5F                pop edi
0000BEFD  5A                pop edx
0000BEFE  53                push ebx
0000BEFF  7432              jz 0xbf33
0000BF01  355F5F756E        xor eax,0x6e755f5f
0000BF06  677561            a16 jnz 0xbf6a
0000BF09  7264              jc 0xbf6f
0000BF0B  65645F            fs pop edi
0000BF0E  6C                insb
0000BF0F  696E6561725F69    imul ebp,[esi+0x65],dword 0x695f7261
0000BF16  6E                outsb
0000BF17  7365              jnc 0xbf7e
0000BF19  7274              jc 0xbf8f
0000BF1B  49                dec ecx
0000BF1C  4E                dec esi
0000BF1D  395F5F            cmp [edi+0x5f],ebx
0000BF20  676E              a16 outsb
0000BF22  755F              jnz 0xbf83
0000BF24  637878            arpl [eax+0x78],di
0000BF27  3137              xor [edi],esi
0000BF29  5F                pop edi
0000BF2A  5F                pop edi
0000BF2B  6E                outsb
0000BF2C  6F                outsd
0000BF2D  726D              jc 0xbf9c
0000BF2F  61                popa
0000BF30  6C                insb
0000BF31  5F                pop edi
0000BF32  6974657261746F72  imul esi,[ebp+0x72],dword 0x726f7461
0000BF3A  49                dec ecx
0000BF3B  50                push eax
0000BF3C  69537436766563    imul edx,[ebx+0x74],dword 0x63657636
0000BF43  746F              jz 0xbfb4
0000BF45  7249              jc 0xbf90
0000BF47  69536149694545    imul edx,[ebx+0x61],dword 0x45456949
0000BF4E  45                inc ebp
0000BF4F  45                inc ebp
0000BF50  45                inc ebp
0000BF51  7654              jna 0xbfa7
0000BF53  5F                pop edi
0000BF54  005F5A            add [edi+0x5a],bl
0000BF57  4E                dec esi
0000BF58  4B                dec ebx
0000BF59  53                push ebx
0000BF5A  7436              jz 0xbf92
0000BF5C  7665              jna 0xbfc3
0000BF5E  63746F72          arpl [edi+ebp*2+0x72],si
0000BF62  49                dec ecx
0000BF63  53                push ebx
0000BF64  7434              jz 0xbf9a
0000BF66  7061              jo 0xbfc9
0000BF68  69724963694553    imul esi,[edx+0x49],dword 0x53456963
0000BF6F  61                popa
0000BF70  49                dec ecx
0000BF71  53                push ebx
0000BF72  315F45            xor [edi+0x45],ebx
0000BF75  45                inc ebp
0000BF76  3132              xor [edx],esi
0000BF78  5F                pop edi
0000BF79  4D                dec ebp
0000BF7A  5F                pop edi
0000BF7B  636865            arpl [eax+0x65],bp
0000BF7E  636B5F            arpl [ebx+0x5f],bp
0000BF81  6C                insb
0000BF82  656E              gs outsb
0000BF84  45                inc ebp
0000BF85  6A50              push byte +0x50
0000BF87  4B                dec ebx
0000BF88  6300              arpl [eax],ax
0000BF8A  5F                pop edi
0000BF8B  5A                pop edx
0000BF8C  4E                dec esi
0000BF8D  395F5F            cmp [edi+0x5f],ebx
0000BF90  676E              a16 outsb
0000BF92  755F              jnz 0xbff3
0000BF94  637878            arpl [eax+0x78],di
0000BF97  31345F            xor [edi+ebx*2],esi
0000BF9A  5F                pop edi
0000BF9B  61                popa
0000BF9C  6C                insb
0000BF9D  6C                insb
0000BF9E  6F                outsd
0000BF9F  635F74            arpl [edi+0x74],bx
0000BFA2  7261              jc 0xc005
0000BFA4  6974734953614953  imul esi,[ebx+esi*2+0x49],dword 0x53496153
0000BFAC  7434              jz 0xbfe2
0000BFAE  7061              jo 0xc011
0000BFB0  69724963694545    imul esi,[edx+0x49],dword 0x45456963
0000BFB7  45                inc ebp
0000BFB8  3137              xor [edi],esi
0000BFBA  5F                pop edi
0000BFBB  53                push ebx
0000BFBC  5F                pop edi
0000BFBD  7365              jnc 0xc024
0000BFBF  6C                insb
0000BFC0  6563745F6F        arpl [gs:edi+ebx*2+0x6f],si
0000BFC5  6E                outsb
0000BFC6  5F                pop edi
0000BFC7  636F70            arpl [edi+0x70],bp
0000BFCA  7945              jns 0xc011
0000BFCC  52                push edx
0000BFCD  4B                dec ebx
0000BFCE  53                push ebx
0000BFCF  335F00            xor ebx,[edi+0x0]
0000BFD2  5F                pop edi
0000BFD3  5A                pop edx
0000BFD4  4E                dec esi
0000BFD5  395F5F            cmp [edi+0x5f],ebx
0000BFD8  676E              a16 outsb
0000BFDA  755F              jnz 0xc03b
0000BFDC  637878            arpl [eax+0x78],di
0000BFDF  3133              xor [ebx],esi
0000BFE1  6E                outsb
0000BFE2  65775F            gs ja 0xc044
0000BFE5  61                popa
0000BFE6  6C                insb
0000BFE7  6C                insb
0000BFE8  6F                outsd
0000BFE9  636174            arpl [ecx+0x74],sp
0000BFEC  6F                outsd
0000BFED  7249              jc 0xc038
0000BFEF  53                push ebx
0000BFF0  7436              jz 0xc028
0000BFF2  7665              jna 0xc059
0000BFF4  63746F72          arpl [edi+ebp*2+0x72],si
0000BFF8  49                dec ecx
0000BFF9  53                push ebx
0000BFFA  7434              jz 0xc030
0000BFFC  7061              jo 0xc05f
0000BFFE  69724963694553    imul esi,[edx+0x49],dword 0x53456963
0000C005  61                popa
0000C006  49                dec ecx
0000C007  53                push ebx
0000C008  335F45            xor ebx,[edi+0x45]
0000C00B  45                inc ebp
0000C00C  45                inc ebp
0000C00D  43                inc ebx
0000C00E  324576            xor al,[ebp+0x76]
0000C011  005F5A            add [edi+0x5a],bl
0000C014  4E                dec esi
0000C015  395F5F            cmp [edi+0x5f],ebx
0000C018  676E              a16 outsb
0000C01A  755F              jnz 0xc07b
0000C01C  637878            arpl [eax+0x78],di
0000C01F  3137              xor [edi],esi
0000C021  5F                pop edi
0000C022  5F                pop edi
0000C023  6E                outsb
0000C024  6F                outsd
0000C025  726D              jc 0xc094
0000C027  61                popa
0000C028  6C                insb
0000C029  5F                pop edi
0000C02A  6974657261746F72  imul esi,[ebp+0x72],dword 0x726f7461
0000C032  49                dec ecx
0000C033  50                push eax
0000C034  69537436766563    imul edx,[ebx+0x74],dword 0x63657636
0000C03B  746F              jz 0xc0ac
0000C03D  7249              jc 0xc088
0000C03F  69536149694545    imul edx,[ebx+0x61],dword 0x45456949
0000C046  45                inc ebp
0000C047  6D                insd
0000C048  6D                insd
0000C049  45                inc ebp
0000C04A  7600              jna 0xc04c
0000C04C  5F                pop edi
0000C04D  5A                pop edx
0000C04E  4E                dec esi
0000C04F  53                push ebx
0000C050  7431              jz 0xc083
0000C052  315F5F            xor [edi+0x5f],ebx
0000C055  697465725F737761  imul esi,[ebp+0x72],dword 0x6177735f
0000C05D  7049              jo 0xc0a8
0000C05F  4C                dec esp
0000C060  6231              bound esi,[ecx]
0000C062  45                inc ebp
0000C063  45                inc ebp
0000C064  396974            cmp [ecx+0x74],ebp
0000C067  65725F            gs jc 0xc0c9
0000C06A  7377              jnc 0xc0e3
0000C06C  61                popa
0000C06D  7049              jo 0xc0b8
0000C06F  4E                dec esi
0000C070  395F5F            cmp [edi+0x5f],ebx
0000C073  676E              a16 outsb
0000C075  755F              jnz 0xc0d6
0000C077  637878            arpl [eax+0x78],di
0000C07A  3137              xor [edi],esi
0000C07C  5F                pop edi
0000C07D  5F                pop edi
0000C07E  6E                outsb
0000C07F  6F                outsd
0000C080  726D              jc 0xc0ef
0000C082  61                popa
0000C083  6C                insb
0000C084  5F                pop edi
0000C085  6974657261746F72  imul esi,[ebp+0x72],dword 0x726f7461
0000C08D  49                dec ecx
0000C08E  50                push eax
0000C08F  69537436766563    imul edx,[ebx+0x74],dword 0x63657636
0000C096  746F              jz 0xc107
0000C098  7249              jc 0xc0e3
0000C09A  69536149694545    imul edx,[ebx+0x61],dword 0x45456949
0000C0A1  45                inc ebp
0000C0A2  45                inc ebp
0000C0A3  53                push ebx
0000C0A4  385F45            cmp [edi+0x45],bl
0000C0A7  45                inc ebp
0000C0A8  7654              jna 0xc0fe
0000C0AA  5F                pop edi
0000C0AB  54                push esp
0000C0AC  305F00            xor [edi+0x0],bl
0000C0AF  5F                pop edi
0000C0B0  5A                pop edx
0000C0B1  4E                dec esi
0000C0B2  53                push ebx
0000C0B3  61                popa
0000C0B4  49                dec ecx
0000C0B5  53                push ebx
0000C0B6  7434              jz 0xc0ec
0000C0B8  7061              jo 0xc11b
0000C0BA  69724963694545    imul esi,[edx+0x49],dword 0x45456963
0000C0C1  43                inc ebx
0000C0C2  314576            xor [ebp+0x76],eax
0000C0C5  005F5A            add [edi+0x5a],bl
0000C0C8  4E                dec esi
0000C0C9  53                push ebx
0000C0CA  7431              jz 0xc0fd
0000C0CC  325F56            xor bl,[edi+0x56]
0000C0CF  6563746F72        arpl [gs:edi+ebp*2+0x72],si
0000C0D4  5F                pop edi
0000C0D5  626173            bound esp,[ecx+0x73]
0000C0D8  6549              gs dec ecx
0000C0DA  53                push ebx
0000C0DB  7436              jz 0xc113
0000C0DD  7665              jna 0xc144
0000C0DF  63746F72          arpl [edi+ebp*2+0x72],si
0000C0E3  49                dec ecx
0000C0E4  69536149694545    imul edx,[ebx+0x61],dword 0x45456949
0000C0EB  53                push ebx
0000C0EC  61                popa
0000C0ED  49                dec ecx
0000C0EE  53                push ebx
0000C0EF  325F45            xor bl,[edi+0x45]
0000C0F2  45                inc ebp
0000C0F3  43                inc ebx
0000C0F4  32456A            xor al,[ebp+0x6a]
0000C0F7  52                push edx
0000C0F8  4B                dec ebx
0000C0F9  53                push ebx
0000C0FA  335F00            xor ebx,[edi+0x0]
0000C0FD  5F                pop edi
0000C0FE  5A                pop edx
0000C0FF  4E                dec esi
0000C100  53                push ebx
0000C101  7436              jz 0xc139
0000C103  7665              jna 0xc16a
0000C105  63746F72          arpl [edi+ebp*2+0x72],si
0000C109  49                dec ecx
0000C10A  53                push ebx
0000C10B  5F                pop edi
0000C10C  49                dec ecx
0000C10D  69536149694545    imul edx,[ebx+0x61],dword 0x45456949
0000C114  53                push ebx
0000C115  61                popa
0000C116  49                dec ecx
0000C117  53                push ebx
0000C118  315F45            xor [edi+0x45],ebx
0000C11B  45                inc ebp
0000C11C  43                inc ebx
0000C11D  31456A            xor [ebp+0x6a],eax
0000C120  52                push edx
0000C121  4B                dec ebx
0000C122  53                push ebx
0000C123  315F52            xor [edi+0x52],ebx
0000C126  4B                dec ebx
0000C127  53                push ebx
0000C128  325F00            xor bl,[edi+0x0]
0000C12B  5F                pop edi
0000C12C  5A                pop edx
0000C12D  4E                dec esi
0000C12E  395F5F            cmp [edi+0x5f],ebx
0000C131  676E              a16 outsb
0000C133  755F              jnz 0xc194
0000C135  637878            arpl [eax+0x78],di
0000C138  31345F            xor [edi+ebx*2],esi
0000C13B  5F                pop edi
0000C13C  61                popa
0000C13D  6C                insb
0000C13E  6C                insb
0000C13F  6F                outsd
0000C140  635F74            arpl [edi+0x74],bx
0000C143  7261              jc 0xc1a6
0000C145  6974734953614953  imul esi,[ebx+esi*2+0x49],dword 0x53496153
0000C14D  7434              jz 0xc183
0000C14F  7061              jo 0xc1b2
0000C151  69724963694545    imul esi,[edx+0x49],dword 0x45456963
0000C158  45                inc ebp
0000C159  386D61            cmp [ebp+0x61],ch
0000C15C  785F              js 0xc1bd
0000C15E  7369              jnc 0xc1c9
0000C160  7A65              jpe 0xc1c7
0000C162  45                inc ebp
0000C163  52                push edx
0000C164  4B                dec ebx
0000C165  53                push ebx
0000C166  335F00            xor ebx,[edi+0x0]
0000C169  5F                pop edi
0000C16A  5A                pop edx
0000C16B  4E                dec esi
0000C16C  53                push ebx
0000C16D  7431              jz 0xc1a0
0000C16F  325F56            xor bl,[edi+0x56]
0000C172  6563746F72        arpl [gs:edi+ebp*2+0x72],si
0000C177  5F                pop edi
0000C178  626173            bound esp,[ecx+0x73]
0000C17B  6549              gs dec ecx
0000C17D  53                push ebx
0000C17E  7436              jz 0xc1b6
0000C180  7665              jna 0xc1e7
0000C182  63746F72          arpl [edi+ebp*2+0x72],si
0000C186  49                dec ecx
0000C187  53                push ebx
0000C188  7434              jz 0xc1be
0000C18A  7061              jo 0xc1ed
0000C18C  69724963694553    imul esi,[edx+0x49],dword 0x53456963
0000C193  61                popa
0000C194  49                dec ecx
0000C195  53                push ebx
0000C196  325F45            xor bl,[edi+0x45]
0000C199  45                inc ebp
0000C19A  53                push ebx
0000C19B  61                popa
0000C19C  49                dec ecx
0000C19D  53                push ebx
0000C19E  345F              xor al,0x5f
0000C1A0  45                inc ebp
0000C1A1  45                inc ebp
0000C1A2  3132              xor [edx],esi
0000C1A4  5F                pop edi
0000C1A5  56                push esi
0000C1A6  6563746F72        arpl [gs:edi+ebp*2+0x72],si
0000C1AB  5F                pop edi
0000C1AC  696D706C443245    imul ebp,[ebp+0x70],dword 0x4532446c
0000C1B3  7600              jna 0xc1b5
0000C1B5  5F                pop edi
0000C1B6  5A                pop edx
0000C1B7  4E                dec esi
0000C1B8  53                push ebx
0000C1B9  7436              jz 0xc1f1
0000C1BB  7665              jna 0xc222
0000C1BD  63746F72          arpl [edi+ebp*2+0x72],si
0000C1C1  49                dec ecx
0000C1C2  53                push ebx
0000C1C3  7434              jz 0xc1f9
0000C1C5  7061              jo 0xc228
0000C1C7  69724963694553    imul esi,[edx+0x49],dword 0x53456963
0000C1CE  61                popa
0000C1CF  49                dec ecx
0000C1D0  53                push ebx
0000C1D1  315F45            xor [edi+0x45],ebx
0000C1D4  45                inc ebp
0000C1D5  43                inc ebx
0000C1D6  324552            xor al,[ebp+0x52]
0000C1D9  4B                dec ebx
0000C1DA  53                push ebx
0000C1DB  335F00            xor ebx,[edi+0x0]
0000C1DE  5F                pop edi
0000C1DF  5A                pop edx
0000C1E0  53                push ebx
0000C1E1  7438              jz 0xc21b
0000C1E3  5F                pop edi
0000C1E4  44                inc esp
0000C1E5  657374            gs jnc 0xc25c
0000C1E8  726F              jc 0xc259
0000C1EA  7949              jns 0xc235
0000C1EC  50                push eax
0000C1ED  53                push ebx
0000C1EE  7434              jz 0xc224
0000C1F0  7061              jo 0xc253
0000C1F2  69724963694553    imul esi,[edx+0x49],dword 0x53456963
0000C1F9  315F45            xor [edi+0x45],ebx
0000C1FC  7654              jna 0xc252
0000C1FE  5F                pop edi
0000C1FF  53                push ebx
0000C200  335F52            xor ebx,[edi+0x52]
0000C203  53                push ebx
0000C204  61                popa
0000C205  49                dec ecx
0000C206  54                push esp
0000C207  305F45            xor [edi+0x45],bl
0000C20A  005F5A            add [edi+0x5a],bl
0000C20D  4E                dec esi
0000C20E  4B                dec ebx
0000C20F  53                push ebx
0000C210  7436              jz 0xc248
0000C212  7665              jna 0xc279
0000C214  63746F72          arpl [edi+ebp*2+0x72],si
0000C218  49                dec ecx
0000C219  53                push ebx
0000C21A  7434              jz 0xc250
0000C21C  7061              jo 0xc27f
0000C21E  69724963694553    imul esi,[edx+0x49],dword 0x53456963
0000C225  61                popa
0000C226  49                dec ecx
0000C227  53                push ebx
0000C228  315F45            xor [edi+0x45],ebx
0000C22B  45                inc ebp
0000C22C  35656D7074        xor eax,0x74706d65
0000C231  7945              jns 0xc278
0000C233  7600              jna 0xc235
0000C235  5F                pop edi
0000C236  5A                pop edx
0000C237  4E                dec esi
0000C238  53                push ebx
0000C239  7431              jz 0xc26c
0000C23B  325F56            xor bl,[edi+0x56]
0000C23E  6563746F72        arpl [gs:edi+ebp*2+0x72],si
0000C243  5F                pop edi
0000C244  626173            bound esp,[ecx+0x73]
0000C247  6549              gs dec ecx
0000C249  53                push ebx
0000C24A  7436              jz 0xc282
0000C24C  7665              jna 0xc2b3
0000C24E  63746F72          arpl [edi+ebp*2+0x72],si
0000C252  49                dec ecx
0000C253  53                push ebx
0000C254  7434              jz 0xc28a
0000C256  7061              jo 0xc2b9
0000C258  69724963694553    imul esi,[edx+0x49],dword 0x53456963
0000C25F  61                popa
0000C260  49                dec ecx
0000C261  53                push ebx
0000C262  325F45            xor bl,[edi+0x45]
0000C265  45                inc ebp
0000C266  53                push ebx
0000C267  61                popa
0000C268  49                dec ecx
0000C269  53                push ebx
0000C26A  345F              xor al,0x5f
0000C26C  45                inc ebp
0000C26D  45                inc ebp
0000C26E  44                inc esp
0000C26F  324576            xor al,[ebp+0x76]
0000C272  005F5A            add [edi+0x5a],bl
0000C275  4E                dec esi
0000C276  53                push ebx
0000C277  61                popa
0000C278  49                dec ecx
0000C279  53                push ebx
0000C27A  7436              jz 0xc2b2
0000C27C  7665              jna 0xc2e3
0000C27E  63746F72          arpl [edi+ebp*2+0x72],si
0000C282  49                dec ecx
0000C283  69536149694545    imul edx,[ebx+0x61],dword 0x45456949
0000C28A  45                inc ebp
0000C28B  43                inc ebx
0000C28C  324552            xor al,[ebp+0x52]
0000C28F  4B                dec ebx
0000C290  53                push ebx
0000C291  325F00            xor bl,[edi+0x0]
0000C294  5F                pop edi
0000C295  5A                pop edx
0000C296  4E                dec esi
0000C297  395F5F            cmp [edi+0x5f],ebx
0000C29A  676E              a16 outsb
0000C29C  755F              jnz 0xc2fd
0000C29E  637878            arpl [eax+0x78],di
0000C2A1  3133              xor [ebx],esi
0000C2A3  6E                outsb
0000C2A4  65775F            gs ja 0xc306
0000C2A7  61                popa
0000C2A8  6C                insb
0000C2A9  6C                insb
0000C2AA  6F                outsd
0000C2AB  636174            arpl [ecx+0x74],sp
0000C2AE  6F                outsd
0000C2AF  7249              jc 0xc2fa
0000C2B1  53                push ebx
0000C2B2  7436              jz 0xc2ea
0000C2B4  7665              jna 0xc31b
0000C2B6  63746F72          arpl [edi+ebp*2+0x72],si
0000C2BA  49                dec ecx
0000C2BB  53                push ebx
0000C2BC  7434              jz 0xc2f2
0000C2BE  7061              jo 0xc321
0000C2C0  69724963694553    imul esi,[edx+0x49],dword 0x53456963
0000C2C7  61                popa
0000C2C8  49                dec ecx
0000C2C9  53                push ebx
0000C2CA  335F45            xor ebx,[edi+0x45]
0000C2CD  45                inc ebp
0000C2CE  45                inc ebp
0000C2CF  44                inc esp
0000C2D0  314576            xor [ebp+0x76],eax
0000C2D3  005F5A            add [edi+0x5a],bl
0000C2D6  4E                dec esi
0000C2D7  53                push ebx
0000C2D8  7431              jz 0xc30b
0000C2DA  325F56            xor bl,[edi+0x56]
0000C2DD  6563746F72        arpl [gs:edi+ebp*2+0x72],si
0000C2E2  5F                pop edi
0000C2E3  626173            bound esp,[ecx+0x73]
0000C2E6  6549              gs dec ecx
0000C2E8  53                push ebx
0000C2E9  7436              jz 0xc321
0000C2EB  7665              jna 0xc352
0000C2ED  63746F72          arpl [edi+ebp*2+0x72],si
0000C2F1  49                dec ecx
0000C2F2  69536149694545    imul edx,[ebx+0x61],dword 0x45456949
0000C2F9  53                push ebx
0000C2FA  61                popa
0000C2FB  49                dec ecx
0000C2FC  53                push ebx
0000C2FD  325F45            xor bl,[edi+0x45]
0000C300  45                inc ebp
0000C301  3131              xor [ecx],esi
0000C303  5F                pop edi
0000C304  4D                dec ebp
0000C305  5F                pop edi
0000C306  61                popa
0000C307  6C                insb
0000C308  6C                insb
0000C309  6F                outsd
0000C30A  636174            arpl [ecx+0x74],sp
0000C30D  6545              gs inc ebp
0000C30F  6A00              push byte +0x0
0000C311  5F                pop edi
0000C312  5A                pop edx
0000C313  53                push ebx
0000C314  7431              jz 0xc347
0000C316  315F5F            xor [edi+0x5f],ebx
0000C319  61                popa
0000C31A  64647265          fs jc 0xc383
0000C31E  7373              jnc 0xc393
0000C320  6F                outsd
0000C321  6649              dec cx
0000C323  53                push ebx
0000C324  7434              jz 0xc35a
0000C326  7061              jo 0xc389
0000C328  69724963694545    imul esi,[edx+0x49],dword 0x45456963
0000C32F  50                push eax
0000C330  54                push esp
0000C331  5F                pop edi
0000C332  52                push edx
0000C333  53                push ebx
0000C334  325F00            xor bl,[edi+0x0]
0000C337  5F                pop edi
0000C338  5A                pop edx
0000C339  4E                dec esi
0000C33A  53                push ebx
0000C33B  7431              jz 0xc36e
0000C33D  305F49            xor [edi+0x49],bl
0000C340  7465              jz 0xc3a7
0000C342  725F              jc 0xc3a3
0000C344  626173            bound esp,[ecx+0x73]
0000C347  6549              gs dec ecx
0000C349  4E                dec esi
0000C34A  395F5F            cmp [edi+0x5f],ebx
0000C34D  676E              a16 outsb
0000C34F  755F              jnz 0xc3b0
0000C351  637878            arpl [eax+0x78],di
0000C354  3137              xor [edi],esi
0000C356  5F                pop edi
0000C357  5F                pop edi
0000C358  6E                outsb
0000C359  6F                outsd
0000C35A  726D              jc 0xc3c9
0000C35C  61                popa
0000C35D  6C                insb
0000C35E  5F                pop edi
0000C35F  6974657261746F72  imul esi,[ebp+0x72],dword 0x726f7461
0000C367  49                dec ecx
0000C368  50                push eax
0000C369  4B                dec ebx
0000C36A  69537436766563    imul edx,[ebx+0x74],dword 0x63657636
0000C371  746F              jz 0xc3e2
0000C373  7249              jc 0xc3be
0000C375  69536149694545    imul edx,[ebx+0x61],dword 0x45456949
0000C37C  45                inc ebp
0000C37D  45                inc ebp
0000C37E  4C                dec esp
0000C37F  6231              bound esi,[ecx]
0000C381  45                inc ebp
0000C382  45                inc ebp
0000C383  37                aaa
0000C384  5F                pop edi
0000C385  53                push ebx
0000C386  5F                pop edi
0000C387  626173            bound esp,[ecx+0x73]
0000C38A  6545              gs inc ebp
0000C38C  53                push ebx
0000C38D  37                aaa
0000C38E  5F                pop edi
0000C38F  006D65            add [ebp+0x65],ch
0000C392  6D                insd
0000C393  6D                insd
0000C394  6F                outsd
0000C395  7665              jna 0xc3fc
0000C397  40                inc eax
0000C398  40                inc eax
0000C399  47                inc edi
0000C39A  4C                dec esp
0000C39B  49                dec ecx
0000C39C  42                inc edx
0000C39D  43                inc ebx
0000C39E  5F                pop edi
0000C39F  322E              xor ch,[esi]
0000C3A1  3000              xor [eax],al
0000C3A3  5F                pop edi
0000C3A4  5A                pop edx
0000C3A5  4E                dec esi
0000C3A6  395F5F            cmp [edi+0x5f],ebx
0000C3A9  676E              a16 outsb
0000C3AB  755F              jnz 0xc40c
0000C3AD  637878            arpl [eax+0x78],di
0000C3B0  3133              xor [ebx],esi
0000C3B2  6E                outsb
0000C3B3  65775F            gs ja 0xc415
0000C3B6  61                popa
0000C3B7  6C                insb
0000C3B8  6C                insb
0000C3B9  6F                outsd
0000C3BA  636174            arpl [ecx+0x74],sp
0000C3BD  6F                outsd
0000C3BE  7249              jc 0xc409
0000C3C0  694538616C6C6F    imul eax,[ebp+0x38],dword 0x6f6c6c61
0000C3C7  636174            arpl [ecx+0x74],sp
0000C3CA  6545              gs inc ebp
0000C3CC  6A50              push byte +0x50
0000C3CE  4B                dec ebx
0000C3CF  7600              jna 0xc3d1
0000C3D1  5F                pop edi
0000C3D2  5A                pop edx
0000C3D3  53                push ebx
0000C3D4  7432              jz 0xc408
0000C3D6  30756E            xor [ebp+0x6e],dh
0000C3D9  696E697469616C    imul ebp,[esi+0x69],dword 0x6c616974
0000C3E0  697A65645F6669    imul edi,[edx+0x65],dword 0x69665f64
0000C3E7  6C                insb
0000C3E8  6C                insb
0000C3E9  5F                pop edi
0000C3EA  6E                outsb
0000C3EB  49                dec ecx
0000C3EC  50                push eax
0000C3ED  53                push ebx
0000C3EE  7436              jz 0xc426
0000C3F0  7665              jna 0xc457
0000C3F2  63746F72          arpl [edi+ebp*2+0x72],si
0000C3F6  49                dec ecx
0000C3F7  53                push ebx
0000C3F8  7434              jz 0xc42e
0000C3FA  7061              jo 0xc45d
0000C3FC  69724963694553    imul esi,[edx+0x49],dword 0x53456963
0000C403  61                popa
0000C404  49                dec ecx
0000C405  53                push ebx
0000C406  325F45            xor bl,[edi+0x45]
0000C409  45                inc ebp
0000C40A  6A53              push byte +0x53
0000C40C  345F              xor al,0x5f
0000C40E  45                inc ebp
0000C40F  7654              jna 0xc465
0000C411  5F                pop edi
0000C412  54                push esp
0000C413  305F52            xor [edi+0x52],bl
0000C416  4B                dec ebx
0000C417  54                push esp
0000C418  315F00            xor [edi+0x0],ebx
0000C41B  5F                pop edi
0000C41C  5A                pop edx
0000C41D  4E                dec esi
0000C41E  53                push ebx
0000C41F  7431              jz 0xc452
0000C421  325F56            xor bl,[edi+0x56]
0000C424  6563746F72        arpl [gs:edi+ebp*2+0x72],si
0000C429  5F                pop edi
0000C42A  626173            bound esp,[ecx+0x73]
0000C42D  6549              gs dec ecx
0000C42F  53                push ebx
0000C430  7434              jz 0xc466
0000C432  7061              jo 0xc495
0000C434  69724963694553    imul esi,[edx+0x49],dword 0x53456963
0000C43B  61                popa
0000C43C  49                dec ecx
0000C43D  53                push ebx
0000C43E  315F45            xor [edi+0x45],ebx
0000C441  45                inc ebp
0000C442  43                inc ebx
0000C443  31456A            xor [ebp+0x6a],eax
0000C446  52                push edx
0000C447  4B                dec ebx
0000C448  53                push ebx
0000C449  325F00            xor bl,[edi+0x0]
0000C44C  5F                pop edi
0000C44D  5A                pop edx
0000C44E  4E                dec esi
0000C44F  53                push ebx
0000C450  7431              jz 0xc483
0000C452  325F56            xor bl,[edi+0x56]
0000C455  6563746F72        arpl [gs:edi+ebp*2+0x72],si
0000C45A  5F                pop edi
0000C45B  626173            bound esp,[ecx+0x73]
0000C45E  6549              gs dec ecx
0000C460  53                push ebx
0000C461  7436              jz 0xc499
0000C463  7665              jna 0xc4ca
0000C465  63746F72          arpl [edi+ebp*2+0x72],si
0000C469  49                dec ecx
0000C46A  53                push ebx
0000C46B  7434              jz 0xc4a1
0000C46D  7061              jo 0xc4d0
0000C46F  69724963694553    imul esi,[edx+0x49],dword 0x53456963
0000C476  61                popa
0000C477  49                dec ecx
0000C478  53                push ebx
0000C479  325F45            xor bl,[edi+0x45]
0000C47C  45                inc ebp
0000C47D  53                push ebx
0000C47E  61                popa
0000C47F  49                dec ecx
0000C480  53                push ebx
0000C481  345F              xor al,0x5f
0000C483  45                inc ebp
0000C484  45                inc ebp
0000C485  3139              xor [ecx],edi
0000C487  5F                pop edi
0000C488  4D                dec ebp
0000C489  5F                pop edi
0000C48A  6765745F          gs a16 jz 0xc4ed
0000C48E  54                push esp
0000C48F  705F              jo 0xc4f0
0000C491  61                popa
0000C492  6C                insb
0000C493  6C                insb
0000C494  6F                outsd
0000C495  636174            arpl [ecx+0x74],sp
0000C498  6F                outsd
0000C499  7245              jc 0xc4e0
0000C49B  7600              jna 0xc49d
0000C49D  5F                pop edi
0000C49E  5A                pop edx
0000C49F  4E                dec esi
0000C4A0  395F5F            cmp [edi+0x5f],ebx
0000C4A3  676E              a16 outsb
0000C4A5  755F              jnz 0xc506
0000C4A7  637878            arpl [eax+0x78],di
0000C4AA  3133              xor [ebx],esi
0000C4AC  6E                outsb
0000C4AD  65775F            gs ja 0xc50f
0000C4B0  61                popa
0000C4B1  6C                insb
0000C4B2  6C                insb
0000C4B3  6F                outsd
0000C4B4  636174            arpl [ecx+0x74],sp
0000C4B7  6F                outsd
0000C4B8  7249              jc 0xc503
0000C4BA  53                push ebx
0000C4BB  7436              jz 0xc4f3
0000C4BD  7665              jna 0xc524
0000C4BF  63746F72          arpl [edi+ebp*2+0x72],si
0000C4C3  49                dec ecx
0000C4C4  69536149694545    imul edx,[ebx+0x61],dword 0x45456949
0000C4CB  45                inc ebp
0000C4CC  43                inc ebx
0000C4CD  314552            xor [ebp+0x52],eax
0000C4D0  4B                dec ebx
0000C4D1  53                push ebx
0000C4D2  345F              xor al,0x5f
0000C4D4  005F5A            add [edi+0x5a],bl
0000C4D7  4E                dec esi
0000C4D8  4B                dec ebx
0000C4D9  395F5F            cmp [edi+0x5f],ebx
0000C4DC  676E              a16 outsb
0000C4DE  755F              jnz 0xc53f
0000C4E0  637878            arpl [eax+0x78],di
0000C4E3  3137              xor [edi],esi
0000C4E5  5F                pop edi
0000C4E6  5F                pop edi
0000C4E7  6E                outsb
0000C4E8  6F                outsd
0000C4E9  726D              jc 0xc558
0000C4EB  61                popa
0000C4EC  6C                insb
0000C4ED  5F                pop edi
0000C4EE  6974657261746F72  imul esi,[ebp+0x72],dword 0x726f7461
0000C4F6  49                dec ecx
0000C4F7  50                push eax
0000C4F8  69537436766563    imul edx,[ebx+0x74],dword 0x63657636
0000C4FF  746F              jz 0xc570
0000C501  7249              jc 0xc54c
0000C503  69536149694545    imul edx,[ebx+0x61],dword 0x45456949
0000C50A  45                inc ebp
0000C50B  646545            gs inc ebp
0000C50E  7600              jna 0xc510
0000C510  5F                pop edi
0000C511  5A                pop edx
0000C512  53                push ebx
0000C513  7439              jz 0xc54e
0000C515  697465725F737761  imul esi,[ebp+0x72],dword 0x6177735f
0000C51D  7049              jo 0xc568
0000C51F  4E                dec esi
0000C520  395F5F            cmp [edi+0x5f],ebx
0000C523  676E              a16 outsb
0000C525  755F              jnz 0xc586
0000C527  637878            arpl [eax+0x78],di
0000C52A  3137              xor [edi],esi
0000C52C  5F                pop edi
0000C52D  5F                pop edi
0000C52E  6E                outsb
0000C52F  6F                outsd
0000C530  726D              jc 0xc59f
0000C532  61                popa
0000C533  6C                insb
0000C534  5F                pop edi
0000C535  6974657261746F72  imul esi,[ebp+0x72],dword 0x726f7461
0000C53D  49                dec ecx
0000C53E  50                push eax
0000C53F  69537436766563    imul edx,[ebx+0x74],dword 0x63657636
0000C546  746F              jz 0xc5b7
0000C548  7249              jc 0xc593
0000C54A  69536149694545    imul edx,[ebx+0x61],dword 0x45456949
0000C551  45                inc ebp
0000C552  45                inc ebp
0000C553  53                push ebx
0000C554  365F              ss pop edi
0000C556  45                inc ebp
0000C557  7654              jna 0xc5ad
0000C559  5F                pop edi
0000C55A  54                push esp
0000C55B  305F00            xor [edi+0x0],bl
0000C55E  5F                pop edi
0000C55F  5A                pop edx
0000C560  53                push ebx
0000C561  7431              jz 0xc594
0000C563  305F43            xor [edi+0x43],bl
0000C566  6F                outsd
0000C567  6E                outsb
0000C568  7374              jnc 0xc5de
0000C56A  7275              jc 0xc5e1
0000C56C  63744953          arpl [ecx+ecx*2+0x53],si
0000C570  7436              jz 0xc5a8
0000C572  7665              jna 0xc5d9
0000C574  63746F72          arpl [edi+ebp*2+0x72],si
0000C578  49                dec ecx
0000C579  69536149694545    imul edx,[ebx+0x61],dword 0x45456949
0000C580  53                push ebx
0000C581  325F45            xor bl,[edi+0x45]
0000C584  7650              jna 0xc5d6
0000C586  54                push esp
0000C587  5F                pop edi
0000C588  52                push edx
0000C589  4B                dec ebx
0000C58A  54                push esp
0000C58B  305F00            xor [edi+0x0],bl
0000C58E  5F                pop edi
0000C58F  656E              gs outsb
0000C591  64007075          add [fs:eax+0x75],dh
0000C595  7473              jz 0xc60a
0000C597  40                inc eax
0000C598  40                inc eax
0000C599  47                inc edi
0000C59A  4C                dec esp
0000C59B  49                dec ecx
0000C59C  42                inc edx
0000C59D  43                inc ebx
0000C59E  5F                pop edi
0000C59F  322E              xor ch,[esi]
0000C5A1  3000              xor [eax],al
0000C5A3  5F                pop edi
0000C5A4  5A                pop edx
0000C5A5  4E                dec esi
0000C5A6  4B                dec ebx
0000C5A7  395F5F            cmp [edi+0x5f],ebx
0000C5AA  676E              a16 outsb
0000C5AC  755F              jnz 0xc60d
0000C5AE  637878            arpl [eax+0x78],di
0000C5B1  3137              xor [edi],esi
0000C5B3  5F                pop edi
0000C5B4  5F                pop edi
0000C5B5  6E                outsb
0000C5B6  6F                outsd
0000C5B7  726D              jc 0xc626
0000C5B9  61                popa
0000C5BA  6C                insb
0000C5BB  5F                pop edi
0000C5BC  6974657261746F72  imul esi,[ebp+0x72],dword 0x726f7461
0000C5C4  49                dec ecx
0000C5C5  50                push eax
0000C5C6  69537436766563    imul edx,[ebx+0x74],dword 0x63657636
0000C5CD  746F              jz 0xc63e
0000C5CF  7249              jc 0xc61a
0000C5D1  69536149694545    imul edx,[ebx+0x61],dword 0x45456949
0000C5D8  45                inc ebp
0000C5D9  706C              jo 0xc647
0000C5DB  45                inc ebp
0000C5DC  52                push edx
0000C5DD  4B                dec ebx
0000C5DE  69005F5A5374      imul eax,[eax],dword 0x74535a5f
0000C5E4  3136              xor [esi],esi
0000C5E6  5F                pop edi
0000C5E7  5F                pop edi
0000C5E8  696E7365727469    imul ebp,[esi+0x73],dword 0x69747265
0000C5EF  6F                outsd
0000C5F0  6E                outsb
0000C5F1  5F                pop edi
0000C5F2  736F              jnc 0xc663
0000C5F4  7274              jc 0xc66a
0000C5F6  49                dec ecx
0000C5F7  4E                dec esi
0000C5F8  395F5F            cmp [edi+0x5f],ebx
0000C5FB  676E              a16 outsb
0000C5FD  755F              jnz 0xc65e
0000C5FF  637878            arpl [eax+0x78],di
0000C602  3137              xor [edi],esi
0000C604  5F                pop edi
0000C605  5F                pop edi
0000C606  6E                outsb
0000C607  6F                outsd
0000C608  726D              jc 0xc677
0000C60A  61                popa
0000C60B  6C                insb
0000C60C  5F                pop edi
0000C60D  6974657261746F72  imul esi,[ebp+0x72],dword 0x726f7461
0000C615  49                dec ecx
0000C616  50                push eax
0000C617  69537436766563    imul edx,[ebx+0x74],dword 0x63657636
0000C61E  746F              jz 0xc68f
0000C620  7249              jc 0xc66b
0000C622  69536149694545    imul edx,[ebx+0x61],dword 0x45456949
0000C629  45                inc ebp
0000C62A  45                inc ebp
0000C62B  45                inc ebp
0000C62C  7654              jna 0xc682
0000C62E  5F                pop edi
0000C62F  53                push ebx
0000C630  37                aaa
0000C631  5F                pop edi
0000C632  005F5A            add [edi+0x5a],bl
0000C635  4E                dec esi
0000C636  53                push ebx
0000C637  7431              jz 0xc66a
0000C639  325F56            xor bl,[edi+0x56]
0000C63C  6563746F72        arpl [gs:edi+ebp*2+0x72],si
0000C641  5F                pop edi
0000C642  626173            bound esp,[ecx+0x73]
0000C645  6549              gs dec ecx
0000C647  53                push ebx
0000C648  7436              jz 0xc680
0000C64A  7665              jna 0xc6b1
0000C64C  63746F72          arpl [edi+ebp*2+0x72],si
0000C650  49                dec ecx
0000C651  53                push ebx
0000C652  7434              jz 0xc688
0000C654  7061              jo 0xc6b7
0000C656  69724963694553    imul esi,[edx+0x49],dword 0x53456963
0000C65D  61                popa
0000C65E  49                dec ecx
0000C65F  53                push ebx
0000C660  325F45            xor bl,[edi+0x45]
0000C663  45                inc ebp
0000C664  53                push ebx
0000C665  61                popa
0000C666  49                dec ecx
0000C667  53                push ebx
0000C668  345F              xor al,0x5f
0000C66A  45                inc ebp
0000C66B  45                inc ebp
0000C66C  3132              xor [edx],esi
0000C66E  5F                pop edi
0000C66F  56                push esi
0000C670  6563746F72        arpl [gs:edi+ebp*2+0x72],si
0000C675  5F                pop edi
0000C676  696D706C433145    imul ebp,[ebp+0x70],dword 0x4531436c
0000C67D  52                push edx
0000C67E  4B                dec ebx
0000C67F  53                push ebx
0000C680  355F005F5A        xor eax,0x5a5f005f
0000C685  4E                dec esi
0000C686  53                push ebx
0000C687  7431              jz 0xc6ba
0000C689  325F56            xor bl,[edi+0x56]
0000C68C  6563746F72        arpl [gs:edi+ebp*2+0x72],si
0000C691  5F                pop edi
0000C692  626173            bound esp,[ecx+0x73]
0000C695  6549              gs dec ecx
0000C697  53                push ebx
0000C698  7436              jz 0xc6d0
0000C69A  7665              jna 0xc701
0000C69C  63746F72          arpl [edi+ebp*2+0x72],si
0000C6A0  49                dec ecx
0000C6A1  53                push ebx
0000C6A2  7434              jz 0xc6d8
0000C6A4  7061              jo 0xc707
0000C6A6  69724963694553    imul esi,[edx+0x49],dword 0x53456963
0000C6AD  61                popa
0000C6AE  49                dec ecx
0000C6AF  53                push ebx
0000C6B0  325F45            xor bl,[edi+0x45]
0000C6B3  45                inc ebp
0000C6B4  53                push ebx
0000C6B5  61                popa
0000C6B6  49                dec ecx
0000C6B7  53                push ebx
0000C6B8  345F              xor al,0x5f
0000C6BA  45                inc ebp
0000C6BB  45                inc ebp
0000C6BC  43                inc ebx
0000C6BD  31456A            xor [ebp+0x6a],eax
0000C6C0  52                push edx
0000C6C1  4B                dec ebx
0000C6C2  53                push ebx
0000C6C3  355F005F5A        xor eax,0x5a5f005f
0000C6C8  4E                dec esi
0000C6C9  53                push ebx
0000C6CA  7432              jz 0xc6fe
0000C6CC  325F5F            xor bl,[edi+0x5f]
0000C6CF  756E              jnz 0xc73f
0000C6D1  696E697469616C    imul ebp,[esi+0x69],dword 0x6c616974
0000C6D8  697A65645F6669    imul edi,[edx+0x65],dword 0x69665f64
0000C6DF  6C                insb
0000C6E0  6C                insb
0000C6E1  5F                pop edi
0000C6E2  6E                outsb
0000C6E3  49                dec ecx
0000C6E4  4C                dec esp
0000C6E5  6231              bound esi,[ecx]
0000C6E7  45                inc ebp
0000C6E8  45                inc ebp
0000C6E9  31355F5F756E      xor [0x6e755f5f],esi
0000C6EF  696E69745F6669    imul ebp,[esi+0x69],dword 0x69665f74
0000C6F6  6C                insb
0000C6F7  6C                insb
0000C6F8  5F                pop edi
0000C6F9  6E                outsb
0000C6FA  49                dec ecx
0000C6FB  50                push eax
0000C6FC  696A6945457654    imul ebp,[edx+0x69],dword 0x54764545
0000C703  5F                pop edi
0000C704  54                push esp
0000C705  305F52            xor [edi+0x52],bl
0000C708  4B                dec ebx
0000C709  54                push esp
0000C70A  315F00            xor [edi+0x0],ebx
0000C70D  5F                pop edi
0000C70E  5A                pop edx
0000C70F  4E                dec esi
0000C710  395F5F            cmp [edi+0x5f],ebx
0000C713  676E              a16 outsb
0000C715  755F              jnz 0xc776
0000C717  637878            arpl [eax+0x78],di
0000C71A  6D                insd
0000C71B  69495053743470    imul ecx,[ecx+0x50],dword 0x70347453
0000C722  61                popa
0000C723  69724963694553    imul esi,[edx+0x49],dword 0x53456963
0000C72A  7436              jz 0xc762
0000C72C  7665              jna 0xc793
0000C72E  63746F72          arpl [edi+ebp*2+0x72],si
0000C732  49                dec ecx
0000C733  53                push ebx
0000C734  325F53            xor bl,[edi+0x53]
0000C737  61                popa
0000C738  49                dec ecx
0000C739  53                push ebx
0000C73A  325F45            xor bl,[edi+0x45]
0000C73D  45                inc ebp
0000C73E  45                inc ebp
0000C73F  45                inc ebp
0000C740  4E                dec esi
0000C741  53                push ebx
0000C742  5F                pop edi
0000C743  3137              xor [edi],esi
0000C745  5F                pop edi
0000C746  5F                pop edi
0000C747  6E                outsb
0000C748  6F                outsd
0000C749  726D              jc 0xc7b8
0000C74B  61                popa
0000C74C  6C                insb
0000C74D  5F                pop edi
0000C74E  6974657261746F72  imul esi,[ebp+0x72],dword 0x726f7461
0000C756  49                dec ecx
0000C757  54                push esp
0000C758  5F                pop edi
0000C759  54                push esp
0000C75A  305F45            xor [edi+0x45],bl
0000C75D  313564696666      xor [0x66666964],esi
0000C763  657265            gs jc 0xc7cb
0000C766  6E                outsb
0000C767  63655F            arpl [ebp+0x5f],sp
0000C76A  7479              jz 0xc7e5
0000C76C  7065              jo 0xc7d3
0000C76E  45                inc ebp
0000C76F  52                push edx
0000C770  4B                dec ebx
0000C771  53                push ebx
0000C772  41                inc ecx
0000C773  5F                pop edi
0000C774  53                push ebx
0000C775  44                inc esp
0000C776  5F                pop edi
0000C777  005F5A            add [edi+0x5a],bl
0000C77A  53                push ebx
0000C77B  7438              jz 0xc7b5
0000C77D  5F                pop edi
0000C77E  44                inc esp
0000C77F  657374            gs jnc 0xc7f6
0000C782  726F              jc 0xc7f3
0000C784  7949              jns 0xc7cf
0000C786  53                push ebx
0000C787  7436              jz 0xc7bf
0000C789  7665              jna 0xc7f0
0000C78B  63746F72          arpl [edi+ebp*2+0x72],si
0000C78F  49                dec ecx
0000C790  53                push ebx
0000C791  7434              jz 0xc7c7
0000C793  7061              jo 0xc7f6
0000C795  69724963694553    imul esi,[edx+0x49],dword 0x53456963
0000C79C  61                popa
0000C79D  49                dec ecx
0000C79E  53                push ebx
0000C79F  325F45            xor bl,[edi+0x45]
0000C7A2  45                inc ebp
0000C7A3  45                inc ebp
0000C7A4  7650              jna 0xc7f6
0000C7A6  54                push esp
0000C7A7  5F                pop edi
0000C7A8  005F5F            add [edi+0x5f],bl
0000C7AB  637861            arpl [eax+0x61],di
0000C7AE  5F                pop edi
0000C7AF  656E              gs outsb
0000C7B1  645F              fs pop edi
0000C7B3  636174            arpl [ecx+0x74],sp
0000C7B6  636840            arpl [eax+0x40],bp
0000C7B9  40                inc eax
0000C7BA  43                inc ebx
0000C7BB  58                pop eax
0000C7BC  58                pop eax
0000C7BD  41                inc ecx
0000C7BE  42                inc edx
0000C7BF  49                dec ecx
0000C7C0  5F                pop edi
0000C7C1  312E              xor [esi],ebp
0000C7C3  3300              xor eax,[eax]
0000C7C5  5F                pop edi
0000C7C6  5A                pop edx
0000C7C7  53                push ebx
0000C7C8  7431              jz 0xc7fb
0000C7CA  37                aaa
0000C7CB  5F                pop edi
0000C7CC  5F                pop edi
0000C7CD  7468              jz 0xc837
0000C7CF  726F              jc 0xc840
0000C7D1  775F              ja 0xc832
0000C7D3  626164            bound esp,[ecx+0x64]
0000C7D6  5F                pop edi
0000C7D7  61                popa
0000C7D8  6C                insb
0000C7D9  6C                insb
0000C7DA  6F                outsd
0000C7DB  637640            arpl [esi+0x40],si
0000C7DE  40                inc eax
0000C7DF  47                inc edi
0000C7E0  4C                dec esp
0000C7E1  49                dec ecx
0000C7E2  42                inc edx
0000C7E3  43                inc ebx
0000C7E4  58                pop eax
0000C7E5  58                pop eax
0000C7E6  5F                pop edi
0000C7E7  332E              xor ebp,[esi]
0000C7E9  3400              xor al,0x0
0000C7EB  5F                pop edi
0000C7EC  5A                pop edx
0000C7ED  4E                dec esi
0000C7EE  4B                dec ebx
0000C7EF  53                push ebx
0000C7F0  7431              jz 0xc823
0000C7F2  325F56            xor bl,[edi+0x56]
0000C7F5  6563746F72        arpl [gs:edi+ebp*2+0x72],si
0000C7FA  5F                pop edi
0000C7FB  626173            bound esp,[ecx+0x73]
0000C7FE  6549              gs dec ecx
0000C800  53                push ebx
0000C801  7434              jz 0xc837
0000C803  7061              jo 0xc866
0000C805  69724963694553    imul esi,[edx+0x49],dword 0x53456963
0000C80C  61                popa
0000C80D  49                dec ecx
0000C80E  53                push ebx
0000C80F  315F45            xor [edi+0x45],ebx
0000C812  45                inc ebp
0000C813  3139              xor [ecx],edi
0000C815  5F                pop edi
0000C816  4D                dec ebp
0000C817  5F                pop edi
0000C818  6765745F          gs a16 jz 0xc87b
0000C81C  54                push esp
0000C81D  705F              jo 0xc87e
0000C81F  61                popa
0000C820  6C                insb
0000C821  6C                insb
0000C822  6F                outsd
0000C823  636174            arpl [ecx+0x74],sp
0000C826  6F                outsd
0000C827  7245              jc 0xc86e
0000C829  7600              jna 0xc82b
0000C82B  5F                pop edi
0000C82C  5A                pop edx
0000C82D  53                push ebx
0000C82E  7431              jz 0xc861
0000C830  305F43            xor [edi+0x43],bl
0000C833  6F                outsd
0000C834  6E                outsb
0000C835  7374              jnc 0xc8ab
0000C837  7275              jc 0xc8ae
0000C839  63744953          arpl [ecx+ecx*2+0x53],si
0000C83D  7436              jz 0xc875
0000C83F  7665              jna 0xc8a6
0000C841  63746F72          arpl [edi+ebp*2+0x72],si
0000C845  49                dec ecx
0000C846  53                push ebx
0000C847  7434              jz 0xc87d
0000C849  7061              jo 0xc8ac
0000C84B  69724963694553    imul esi,[edx+0x49],dword 0x53456963
0000C852  61                popa
0000C853  49                dec ecx
0000C854  53                push ebx
0000C855  325F45            xor bl,[edi+0x45]
0000C858  45                inc ebp
0000C859  53                push ebx
0000C85A  345F              xor al,0x5f
0000C85C  45                inc ebp
0000C85D  7650              jna 0xc8af
0000C85F  54                push esp
0000C860  5F                pop edi
0000C861  52                push edx
0000C862  4B                dec ebx
0000C863  54                push esp
0000C864  305F00            xor [edi+0x0],bl
0000C867  5F                pop edi
0000C868  5A                pop edx
0000C869  53                push ebx
0000C86A  7431              jz 0xc89d
0000C86C  325F5F            xor bl,[edi+0x5f]
0000C86F  6D                insd
0000C870  697465725F626173  imul esi,[ebp+0x72],dword 0x7361625f
0000C878  6549              gs dec ecx
0000C87A  4E                dec esi
0000C87B  395F5F            cmp [edi+0x5f],ebx
0000C87E  676E              a16 outsb
0000C880  755F              jnz 0xc8e1
0000C882  637878            arpl [eax+0x78],di
0000C885  3137              xor [edi],esi
0000C887  5F                pop edi
0000C888  5F                pop edi
0000C889  6E                outsb
0000C88A  6F                outsd
0000C88B  726D              jc 0xc8fa
0000C88D  61                popa
0000C88E  6C                insb
0000C88F  5F                pop edi
0000C890  6974657261746F72  imul esi,[ebp+0x72],dword 0x726f7461
0000C898  49                dec ecx
0000C899  50                push eax
0000C89A  4B                dec ebx
0000C89B  69537436766563    imul edx,[ebx+0x74],dword 0x63657636
0000C8A2  746F              jz 0xc913
0000C8A4  7249              jc 0xc8ef
0000C8A6  69536149694545    imul edx,[ebx+0x61],dword 0x45456949
0000C8AD  45                inc ebp
0000C8AE  45                inc ebp
0000C8AF  45                inc ebp
0000C8B0  4E                dec esi
0000C8B1  53                push ebx
0000C8B2  7431              jz 0xc8e5
0000C8B4  315F4D            xor [edi+0x4d],ebx
0000C8B7  697465725F626173  imul esi,[ebp+0x72],dword 0x7361625f
0000C8BF  6549              gs dec ecx
0000C8C1  54                push esp
0000C8C2  5F                pop edi
0000C8C3  45                inc ebp
0000C8C4  3133              xor [ebx],esi
0000C8C6  6974657261746F72  imul esi,[ebp+0x72],dword 0x726f7461
0000C8CE  5F                pop edi
0000C8CF  7479              jz 0xc94a
0000C8D1  7065              jo 0xc938
0000C8D3  45                inc ebp
0000C8D4  53                push ebx
0000C8D5  395F00            cmp [edi+0x0],ebx
0000C8D8  5F                pop edi
0000C8D9  5A                pop edx
0000C8DA  4E                dec esi
0000C8DB  4B                dec ebx
0000C8DC  395F5F            cmp [edi+0x5f],ebx
0000C8DF  676E              a16 outsb
0000C8E1  755F              jnz 0xc942
0000C8E3  637878            arpl [eax+0x78],di
0000C8E6  3137              xor [edi],esi
0000C8E8  5F                pop edi
0000C8E9  5F                pop edi
0000C8EA  6E                outsb
0000C8EB  6F                outsd
0000C8EC  726D              jc 0xc95b
0000C8EE  61                popa
0000C8EF  6C                insb
0000C8F0  5F                pop edi
0000C8F1  6974657261746F72  imul esi,[ebp+0x72],dword 0x726f7461
0000C8F9  49                dec ecx
0000C8FA  50                push eax
0000C8FB  4B                dec ebx
0000C8FC  53                push ebx
0000C8FD  7434              jz 0xc933
0000C8FF  7061              jo 0xc962
0000C901  69724963694553    imul esi,[edx+0x49],dword 0x53456963
0000C908  7436              jz 0xc940
0000C90A  7665              jna 0xc971
0000C90C  63746F72          arpl [edi+ebp*2+0x72],si
0000C910  49                dec ecx
0000C911  53                push ebx
0000C912  325F53            xor bl,[edi+0x53]
0000C915  61                popa
0000C916  49                dec ecx
0000C917  53                push ebx
0000C918  325F45            xor bl,[edi+0x45]
0000C91B  45                inc ebp
0000C91C  45                inc ebp
0000C91D  646545            gs inc ebp
0000C920  7600              jna 0xc922
0000C922  5F                pop edi
0000C923  5A                pop edx
0000C924  4E                dec esi
0000C925  53                push ebx
0000C926  7431              jz 0xc959
0000C928  325F44            xor bl,[edi+0x44]
0000C92B  657374            gs jnc 0xc9a2
0000C92E  726F              jc 0xc99f
0000C930  795F              jns 0xc991
0000C932  61                popa
0000C933  7578              jnz 0xc9ad
0000C935  49                dec ecx
0000C936  4C                dec esp
0000C937  6231              bound esi,[ecx]
0000C939  45                inc ebp
0000C93A  45                inc ebp
0000C93B  395F5F            cmp [edi+0x5f],ebx
0000C93E  64657374          gs jnc 0xc9b6
0000C942  726F              jc 0xc9b3
0000C944  7949              jns 0xc98f
0000C946  50                push eax
0000C947  53                push ebx
0000C948  7434              jz 0xc97e
0000C94A  7061              jo 0xc9ad
0000C94C  69724963694545    imul esi,[edx+0x49],dword 0x45456963
0000C953  45                inc ebp
0000C954  7654              jna 0xc9aa
0000C956  5F                pop edi
0000C957  53                push ebx
0000C958  355F005F5A        xor eax,0x5a5f005f
0000C95D  4E                dec esi
0000C95E  53                push ebx
0000C95F  7436              jz 0xc997
0000C961  7665              jna 0xc9c8
0000C963  63746F72          arpl [edi+ebp*2+0x72],si
0000C967  49                dec ecx
0000C968  53                push ebx
0000C969  5F                pop edi
0000C96A  49                dec ecx
0000C96B  53                push ebx
0000C96C  7434              jz 0xc9a2
0000C96E  7061              jo 0xc9d1
0000C970  69724963694553    imul esi,[edx+0x49],dword 0x53456963
0000C977  61                popa
0000C978  49                dec ecx
0000C979  53                push ebx
0000C97A  315F45            xor [edi+0x45],ebx
0000C97D  45                inc ebp
0000C97E  53                push ebx
0000C97F  61                popa
0000C980  49                dec ecx
0000C981  53                push ebx
0000C982  335F45            xor ebx,[edi+0x45]
0000C985  45                inc ebp
0000C986  43                inc ebx
0000C987  32456A            xor al,[ebp+0x6a]
0000C98A  52                push edx
0000C98B  4B                dec ebx
0000C98C  53                push ebx
0000C98D  335F52            xor ebx,[edi+0x52]
0000C990  4B                dec ebx
0000C991  53                push ebx
0000C992  345F              xor al,0x5f
0000C994  005F5A            add [edi+0x5a],bl
0000C997  4E                dec esi
0000C998  53                push ebx
0000C999  7431              jz 0xc9cc
0000C99B  325F56            xor bl,[edi+0x56]
0000C99E  6563746F72        arpl [gs:edi+ebp*2+0x72],si
0000C9A3  5F                pop edi
0000C9A4  626173            bound esp,[ecx+0x73]
0000C9A7  6549              gs dec ecx
0000C9A9  53                push ebx
0000C9AA  7434              jz 0xc9e0
0000C9AC  7061              jo 0xca0f
0000C9AE  69724963694553    imul esi,[edx+0x49],dword 0x53456963
0000C9B5  61                popa
0000C9B6  49                dec ecx
0000C9B7  53                push ebx
0000C9B8  315F45            xor [edi+0x45],ebx
0000C9BB  45                inc ebp
0000C9BC  43                inc ebx
0000C9BD  32456A            xor al,[ebp+0x6a]
0000C9C0  52                push edx
0000C9C1  4B                dec ebx
0000C9C2  53                push ebx
0000C9C3  325F00            xor bl,[edi+0x0]
0000C9C6  5F                pop edi
0000C9C7  5A                pop edx
0000C9C8  4E                dec esi
0000C9C9  53                push ebx
0000C9CA  7436              jz 0xca02
0000C9CC  7665              jna 0xca33
0000C9CE  63746F72          arpl [edi+ebp*2+0x72],si
0000C9D2  49                dec ecx
0000C9D3  69536149694545    imul edx,[ebx+0x61],dword 0x45456949
0000C9DA  43                inc ebx
0000C9DB  32456A            xor al,[ebp+0x6a]
0000C9DE  52                push edx
0000C9DF  4B                dec ebx
0000C9E0  69524B53305F00    imul edx,[edx+0x4b],dword 0x5f3053
0000C9E7  5F                pop edi
0000C9E8  5A                pop edx
0000C9E9  53                push ebx
0000C9EA  7431              jz 0xca1d
0000C9EC  335F5F            xor ebx,[edi+0x5f]
0000C9EF  686561705F        push dword 0x5f706165
0000C9F4  7365              jnc 0xca5b
0000C9F6  6C                insb
0000C9F7  656374494E        arpl [gs:ecx+ecx*2+0x4e],si
0000C9FC  395F5F            cmp [edi+0x5f],ebx
0000C9FF  676E              a16 outsb
0000CA01  755F              jnz 0xca62
0000CA03  637878            arpl [eax+0x78],di
0000CA06  3137              xor [edi],esi
0000CA08  5F                pop edi
0000CA09  5F                pop edi
0000CA0A  6E                outsb
0000CA0B  6F                outsd
0000CA0C  726D              jc 0xca7b
0000CA0E  61                popa
0000CA0F  6C                insb
0000CA10  5F                pop edi
0000CA11  6974657261746F72  imul esi,[ebp+0x72],dword 0x726f7461
0000CA19  49                dec ecx
0000CA1A  50                push eax
0000CA1B  69537436766563    imul edx,[ebx+0x74],dword 0x63657636
0000CA22  746F              jz 0xca93
0000CA24  7249              jc 0xca6f
0000CA26  69536149694545    imul edx,[ebx+0x61],dword 0x45456949
0000CA2D  45                inc ebp
0000CA2E  45                inc ebp
0000CA2F  45                inc ebp
0000CA30  7654              jna 0xca86
0000CA32  5F                pop edi
0000CA33  53                push ebx
0000CA34  37                aaa
0000CA35  5F                pop edi
0000CA36  53                push ebx
0000CA37  37                aaa
0000CA38  5F                pop edi
0000CA39  005F5A            add [edi+0x5a],bl
0000CA3C  4E                dec esi
0000CA3D  53                push ebx
0000CA3E  7431              jz 0xca71
0000CA40  305F49            xor [edi+0x49],bl
0000CA43  7465              jz 0xcaaa
0000CA45  725F              jc 0xcaa6
0000CA47  626173            bound esp,[ecx+0x73]
0000CA4A  6549              gs dec ecx
0000CA4C  4E                dec esi
0000CA4D  395F5F            cmp [edi+0x5f],ebx
0000CA50  676E              a16 outsb
0000CA52  755F              jnz 0xcab3
0000CA54  637878            arpl [eax+0x78],di
0000CA57  3137              xor [edi],esi
0000CA59  5F                pop edi
0000CA5A  5F                pop edi
0000CA5B  6E                outsb
0000CA5C  6F                outsd
0000CA5D  726D              jc 0xcacc
0000CA5F  61                popa
0000CA60  6C                insb
0000CA61  5F                pop edi
0000CA62  6974657261746F72  imul esi,[ebp+0x72],dword 0x726f7461
0000CA6A  49                dec ecx
0000CA6B  50                push eax
0000CA6C  69537436766563    imul edx,[ebx+0x74],dword 0x63657636
0000CA73  746F              jz 0xcae4
0000CA75  7249              jc 0xcac0
0000CA77  69536149694545    imul edx,[ebx+0x61],dword 0x45456949
0000CA7E  45                inc ebp
0000CA7F  45                inc ebp
0000CA80  4C                dec esp
0000CA81  6230              bound esi,[eax]
0000CA83  45                inc ebp
0000CA84  45                inc ebp
0000CA85  37                aaa
0000CA86  5F                pop edi
0000CA87  53                push ebx
0000CA88  5F                pop edi
0000CA89  626173            bound esp,[ecx+0x73]
0000CA8C  6545              gs inc ebp
0000CA8E  53                push ebx
0000CA8F  365F              ss pop edi
0000CA91  005F5A            add [edi+0x5a],bl
0000CA94  4E                dec esi
0000CA95  53                push ebx
0000CA96  7436              jz 0xcace
0000CA98  7665              jna 0xcaff
0000CA9A  63746F72          arpl [edi+ebp*2+0x72],si
0000CA9E  49                dec ecx
0000CA9F  53                push ebx
0000CAA0  7434              jz 0xcad6
0000CAA2  7061              jo 0xcb05
0000CAA4  69724963694553    imul esi,[edx+0x49],dword 0x53456963
0000CAAB  61                popa
0000CAAC  49                dec ecx
0000CAAD  53                push ebx
0000CAAE  315F45            xor [edi+0x45],ebx
0000CAB1  45                inc ebp
0000CAB2  3133              xor [ebx],esi
0000CAB4  5F                pop edi
0000CAB5  4D                dec ebp
0000CAB6  5F                pop edi
0000CAB7  696E736572745F    imul ebp,[esi+0x73],dword 0x5f747265
0000CABE  61                popa
0000CABF  7578              jnz 0xcb39
0000CAC1  45                inc ebp
0000CAC2  4E                dec esi
0000CAC3  395F5F            cmp [edi+0x5f],ebx
0000CAC6  676E              a16 outsb
0000CAC8  755F              jnz 0xcb29
0000CACA  637878            arpl [eax+0x78],di
0000CACD  3137              xor [edi],esi
0000CACF  5F                pop edi
0000CAD0  5F                pop edi
0000CAD1  6E                outsb
0000CAD2  6F                outsd
0000CAD3  726D              jc 0xcb42
0000CAD5  61                popa
0000CAD6  6C                insb
0000CAD7  5F                pop edi
0000CAD8  6974657261746F72  imul esi,[ebp+0x72],dword 0x726f7461
0000CAE0  49                dec ecx
0000CAE1  50                push eax
0000CAE2  53                push ebx
0000CAE3  315F53            xor [edi+0x53],ebx
0000CAE6  335F45            xor ebx,[edi+0x45]
0000CAE9  45                inc ebp
0000CAEA  52                push edx
0000CAEB  4B                dec ebx
0000CAEC  53                push ebx
0000CAED  315F00            xor [edi+0x0],ebx
0000CAF0  5F                pop edi
0000CAF1  5A                pop edx
0000CAF2  53                push ebx
0000CAF3  7433              jz 0xcb28
0000CAF5  345F              xor al,0x5f
0000CAF7  5F                pop edi
0000CAF8  756E              jnz 0xcb68
0000CAFA  696E697469616C    imul ebp,[esi+0x69],dword 0x6c616974
0000CB01  697A65645F6D6F    imul edi,[edx+0x65],dword 0x6f6d5f64
0000CB08  7665              jna 0xcb6f
0000CB0A  5F                pop edi
0000CB0B  69665F6E6F6578    imul esp,[esi+0x5f],dword 0x78656f6e
0000CB12  636570            arpl [ebp+0x70],sp
0000CB15  745F              jz 0xcb76
0000CB17  61                popa
0000CB18  49                dec ecx
0000CB19  50                push eax
0000CB1A  53                push ebx
0000CB1B  7434              jz 0xcb51
0000CB1D  7061              jo 0xcb80
0000CB1F  69724963694553    imul esi,[edx+0x49],dword 0x53456963
0000CB26  325F53            xor bl,[edi+0x53]
0000CB29  61                popa
0000CB2A  49                dec ecx
0000CB2B  53                push ebx
0000CB2C  315F45            xor [edi+0x45],ebx
0000CB2F  45                inc ebp
0000CB30  54                push esp
0000CB31  305F54            xor [edi+0x54],bl
0000CB34  5F                pop edi
0000CB35  53                push ebx
0000CB36  355F53345F        xor eax,0x5f34535f
0000CB3B  52                push edx
0000CB3C  54                push esp
0000CB3D  315F00            xor [edi+0x0],ebx
0000CB40  5F                pop edi
0000CB41  5F                pop edi
0000CB42  637861            arpl [eax+0x61],di
0000CB45  5F                pop edi
0000CB46  626567            bound esp,[ebp+0x67]
0000CB49  696E5F63617463    imul ebp,[esi+0x5f],dword 0x63746163
0000CB50  6840404358        push dword 0x58434040
0000CB55  58                pop eax
0000CB56  41                inc ecx
0000CB57  42                inc edx
0000CB58  49                dec ecx
0000CB59  5F                pop edi
0000CB5A  312E              xor [esi],ebp
0000CB5C  3300              xor eax,[eax]
0000CB5E  5F                pop edi
0000CB5F  5A                pop edx
0000CB60  4E                dec esi
0000CB61  53                push ebx
0000CB62  7436              jz 0xcb9a
0000CB64  7665              jna 0xcbcb
0000CB66  63746F72          arpl [edi+ebp*2+0x72],si
0000CB6A  49                dec ecx
0000CB6B  53                push ebx
0000CB6C  7434              jz 0xcba2
0000CB6E  7061              jo 0xcbd1
0000CB70  69724963694553    imul esi,[edx+0x49],dword 0x53456963
0000CB77  61                popa
0000CB78  49                dec ecx
0000CB79  53                push ebx
0000CB7A  315F45            xor [edi+0x45],ebx
0000CB7D  45                inc ebp
0000CB7E  397075            cmp [eax+0x75],esi
0000CB81  7368              jnc 0xcbeb
0000CB83  5F                pop edi
0000CB84  626163            bound esp,[ecx+0x63]
0000CB87  6B45524B          imul eax,[ebp+0x52],byte +0x4b
0000CB8B  53                push ebx
0000CB8C  315F00            xor [edi+0x0],ebx
0000CB8F  5F                pop edi
0000CB90  5A                pop edx
0000CB91  4E                dec esi
0000CB92  4B                dec ebx
0000CB93  53                push ebx
0000CB94  7431              jz 0xcbc7
0000CB96  325F56            xor bl,[edi+0x56]
0000CB99  6563746F72        arpl [gs:edi+ebp*2+0x72],si
0000CB9E  5F                pop edi
0000CB9F  626173            bound esp,[ecx+0x73]
0000CBA2  6549              gs dec ecx
0000CBA4  69536149694545    imul edx,[ebx+0x61],dword 0x45456949
0000CBAB  3139              xor [ecx],edi
0000CBAD  5F                pop edi
0000CBAE  4D                dec ebp
0000CBAF  5F                pop edi
0000CBB0  6765745F          gs a16 jz 0xcc13
0000CBB4  54                push esp
0000CBB5  705F              jo 0xcc16
0000CBB7  61                popa
0000CBB8  6C                insb
0000CBB9  6C                insb
0000CBBA  6F                outsd
0000CBBB  636174            arpl [ecx+0x74],sp
0000CBBE  6F                outsd
0000CBBF  7245              jc 0xcc06
0000CBC1  7600              jna 0xcbc3
0000CBC3  5F                pop edi
0000CBC4  5A                pop edx
0000CBC5  4E                dec esi
0000CBC6  395F5F            cmp [edi+0x5f],ebx
0000CBC9  676E              a16 outsb
0000CBCB  755F              jnz 0xcc2c
0000CBCD  637878            arpl [eax+0x78],di
0000CBD0  3133              xor [ebx],esi
0000CBD2  6E                outsb
0000CBD3  65775F            gs ja 0xcc35
0000CBD6  61                popa
0000CBD7  6C                insb
0000CBD8  6C                insb
0000CBD9  6F                outsd
0000CBDA  636174            arpl [ecx+0x74],sp
0000CBDD  6F                outsd
0000CBDE  7249              jc 0xcc29
0000CBE0  53                push ebx
0000CBE1  7436              jz 0xcc19
0000CBE3  7665              jna 0xcc4a
0000CBE5  63746F72          arpl [edi+ebp*2+0x72],si
0000CBE9  49                dec ecx
0000CBEA  69536149694545    imul edx,[ebx+0x61],dword 0x45456949
0000CBF1  45                inc ebp
0000CBF2  44                inc esp
0000CBF3  314576            xor [ebp+0x76],eax
0000CBF6  005F5A            add [edi+0x5a],bl
0000CBF9  4E                dec esi
0000CBFA  53                push ebx
0000CBFB  7436              jz 0xcc33
0000CBFD  7665              jna 0xcc64
0000CBFF  63746F72          arpl [edi+ebp*2+0x72],si
0000CC03  49                dec ecx
0000CC04  53                push ebx
0000CC05  7434              jz 0xcc3b
0000CC07  7061              jo 0xcc6a
0000CC09  69724963694553    imul esi,[edx+0x49],dword 0x53456963
0000CC10  61                popa
0000CC11  49                dec ecx
0000CC12  53                push ebx
0000CC13  315F45            xor [edi+0x45],ebx
0000CC16  45                inc ebp
0000CC17  3462              xor al,0x62
0000CC19  61                popa
0000CC1A  636B45            arpl [ebx+0x45],bp
0000CC1D  7600              jna 0xcc1f
0000CC1F  5F                pop edi
0000CC20  5A                pop edx
0000CC21  4E                dec esi
0000CC22  53                push ebx
0000CC23  7431              jz 0xcc56
0000CC25  325F56            xor bl,[edi+0x56]
0000CC28  6563746F72        arpl [gs:edi+ebp*2+0x72],si
0000CC2D  5F                pop edi
0000CC2E  626173            bound esp,[ecx+0x73]
0000CC31  6549              gs dec ecx
0000CC33  69536149694545    imul edx,[ebx+0x61],dword 0x45456949
0000CC3A  3132              xor [edx],esi
0000CC3C  5F                pop edi
0000CC3D  56                push esi
0000CC3E  6563746F72        arpl [gs:edi+ebp*2+0x72],si
0000CC43  5F                pop edi
0000CC44  696D706C443145    imul ebp,[ebp+0x70],dword 0x4531446c
0000CC4B  7600              jna 0xcc4d
0000CC4D  5F                pop edi
0000CC4E  5A                pop edx
0000CC4F  4E                dec esi
0000CC50  53                push ebx
0000CC51  61                popa
0000CC52  49                dec ecx
0000CC53  53                push ebx
0000CC54  7436              jz 0xcc8c
0000CC56  7665              jna 0xccbd
0000CC58  63746F72          arpl [edi+ebp*2+0x72],si
0000CC5C  49                dec ecx
0000CC5D  69536149694545    imul edx,[ebx+0x61],dword 0x45456949
0000CC64  45                inc ebp
0000CC65  44                inc esp
0000CC66  314576            xor [ebp+0x76],eax
0000CC69  005F5A            add [edi+0x5a],bl
0000CC6C  4E                dec esi
0000CC6D  53                push ebx
0000CC6E  7436              jz 0xcca6
0000CC70  7665              jna 0xccd7
0000CC72  63746F72          arpl [edi+ebp*2+0x72],si
0000CC76  49                dec ecx
0000CC77  53                push ebx
0000CC78  5F                pop edi
0000CC79  49                dec ecx
0000CC7A  53                push ebx
0000CC7B  7434              jz 0xccb1
0000CC7D  7061              jo 0xcce0
0000CC7F  69724963694553    imul esi,[edx+0x49],dword 0x53456963
0000CC86  61                popa
0000CC87  49                dec ecx
0000CC88  53                push ebx
0000CC89  315F45            xor [edi+0x45],ebx
0000CC8C  45                inc ebp
0000CC8D  53                push ebx
0000CC8E  61                popa
0000CC8F  49                dec ecx
0000CC90  53                push ebx
0000CC91  335F45            xor ebx,[edi+0x45]
0000CC94  45                inc ebp
0000CC95  6978456A005F5A    imul edi,[eax+0x45],dword 0x5a5f006a
0000CC9C  4E                dec esi
0000CC9D  53                push ebx
0000CC9E  7436              jz 0xccd6
0000CCA0  7665              jna 0xcd07
0000CCA2  63746F72          arpl [edi+ebp*2+0x72],si
0000CCA6  49                dec ecx
0000CCA7  53                push ebx
0000CCA8  5F                pop edi
0000CCA9  49                dec ecx
0000CCAA  53                push ebx
0000CCAB  7434              jz 0xcce1
0000CCAD  7061              jo 0xcd10
0000CCAF  69724963694553    imul esi,[edx+0x49],dword 0x53456963
0000CCB6  61                popa
0000CCB7  49                dec ecx
0000CCB8  53                push ebx
0000CCB9  315F45            xor [edi+0x45],ebx
0000CCBC  45                inc ebp
0000CCBD  53                push ebx
0000CCBE  61                popa
0000CCBF  49                dec ecx
0000CCC0  53                push ebx
0000CCC1  335F45            xor ebx,[edi+0x45]
0000CCC4  45                inc ebp
0000CCC5  3138              xor [eax],edi
0000CCC7  5F                pop edi
0000CCC8  4D                dec ebp
0000CCC9  5F                pop edi
0000CCCA  66696C6C5F696E    imul bp,[esp+ebp*2+0x5f],word 0x6e69
0000CCD1  697469616C697A65  imul esi,[ecx+ebp*2+0x61],dword 0x657a696c
0000CCD9  45                inc ebp
0000CCDA  6A52              push byte +0x52
0000CCDC  4B                dec ebx
0000CCDD  53                push ebx
0000CCDE  335F00            xor ebx,[edi+0x0]
0000CCE1  5F                pop edi
0000CCE2  5A                pop edx
0000CCE3  4E                dec esi
0000CCE4  53                push ebx
0000CCE5  61                popa
0000CCE6  49                dec ecx
0000CCE7  53                push ebx
0000CCE8  7436              jz 0xcd20
0000CCEA  7665              jna 0xcd51
0000CCEC  63746F72          arpl [edi+ebp*2+0x72],si
0000CCF0  49                dec ecx
0000CCF1  69536149694545    imul edx,[ebx+0x61],dword 0x45456949
0000CCF8  45                inc ebp
0000CCF9  43                inc ebx
0000CCFA  324576            xor al,[ebp+0x76]
0000CCFD  005F65            add [edi+0x65],bl
0000CD00  6461              fs popa
0000CD02  7461              jz 0xcd65
0000CD04  005F5A            add [edi+0x5a],bl
0000CD07  4E                dec esi
0000CD08  53                push ebx
0000CD09  7432              jz 0xcd3d
0000CD0B  325F5F            xor bl,[edi+0x5f]
0000CD0E  756E              jnz 0xcd7e
0000CD10  696E697469616C    imul ebp,[esi+0x69],dword 0x6c616974
0000CD17  697A65645F6669    imul edi,[edx+0x65],dword 0x69665f64
0000CD1E  6C                insb
0000CD1F  6C                insb
0000CD20  5F                pop edi
0000CD21  6E                outsb
0000CD22  49                dec ecx
0000CD23  4C                dec esp
0000CD24  6230              bound esi,[eax]
0000CD26  45                inc ebp
0000CD27  45                inc ebp
0000CD28  31355F5F756E      xor [0x6e755f5f],esi
0000CD2E  696E69745F6669    imul ebp,[esi+0x69],dword 0x69665f74
0000CD35  6C                insb
0000CD36  6C                insb
0000CD37  5F                pop edi
0000CD38  6E                outsb
0000CD39  49                dec ecx
0000CD3A  50                push eax
0000CD3B  53                push ebx
0000CD3C  7436              jz 0xcd74
0000CD3E  7665              jna 0xcda5
0000CD40  63746F72          arpl [edi+ebp*2+0x72],si
0000CD44  49                dec ecx
0000CD45  53                push ebx
0000CD46  7434              jz 0xcd7c
0000CD48  7061              jo 0xcdab
0000CD4A  69724963694553    imul esi,[edx+0x49],dword 0x53456963
0000CD51  61                popa
0000CD52  49                dec ecx
0000CD53  53                push ebx
0000CD54  345F              xor al,0x5f
0000CD56  45                inc ebp
0000CD57  45                inc ebp
0000CD58  6A53              push byte +0x53
0000CD5A  365F              ss pop edi
0000CD5C  45                inc ebp
0000CD5D  45                inc ebp
0000CD5E  7654              jna 0xcdb4
0000CD60  5F                pop edi
0000CD61  54                push esp
0000CD62  305F52            xor [edi+0x52],bl
0000CD65  4B                dec ebx
0000CD66  54                push esp
0000CD67  315F00            xor [edi+0x0],ebx
0000CD6A  5F                pop edi
0000CD6B  5A                pop edx
0000CD6C  646C              fs insb
0000CD6E  50                push eax
0000CD6F  7653              jna 0xcdc4
0000CD71  5F                pop edi
0000CD72  005F5F            add [edi+0x5f],bl
0000CD75  677878            a16 js 0xcdf0
0000CD78  5F                pop edi
0000CD79  7065              jo 0xcde0
0000CD7B  7273              jc 0xcdf0
0000CD7D  6F                outsd
0000CD7E  6E                outsb
0000CD7F  61                popa
0000CD80  6C                insb
0000CD81  6974795F76304040  imul esi,[ecx+edi*2+0x5f],dword 0x40403076
0000CD89  43                inc ebx
0000CD8A  58                pop eax
0000CD8B  58                pop eax
0000CD8C  41                inc ecx
0000CD8D  42                inc edx
0000CD8E  49                dec ecx
0000CD8F  5F                pop edi
0000CD90  312E              xor [esi],ebp
0000CD92  3300              xor eax,[eax]
0000CD94  5F                pop edi
0000CD95  5A                pop edx
0000CD96  4E                dec esi
0000CD97  53                push ebx
0000CD98  7431              jz 0xcdcb
0000CD9A  325F56            xor bl,[edi+0x56]
0000CD9D  6563746F72        arpl [gs:edi+ebp*2+0x72],si
0000CDA2  5F                pop edi
0000CDA3  626173            bound esp,[ecx+0x73]
0000CDA6  6549              gs dec ecx
0000CDA8  53                push ebx
0000CDA9  7436              jz 0xcde1
0000CDAB  7665              jna 0xce12
0000CDAD  63746F72          arpl [edi+ebp*2+0x72],si
0000CDB1  49                dec ecx
0000CDB2  53                push ebx
0000CDB3  7434              jz 0xcde9
0000CDB5  7061              jo 0xce18
0000CDB7  69724963694553    imul esi,[edx+0x49],dword 0x53456963
0000CDBE  61                popa
0000CDBF  49                dec ecx
0000CDC0  53                push ebx
0000CDC1  325F45            xor bl,[edi+0x45]
0000CDC4  45                inc ebp
0000CDC5  53                push ebx
0000CDC6  61                popa
0000CDC7  49                dec ecx
0000CDC8  53                push ebx
0000CDC9  345F              xor al,0x5f
0000CDCB  45                inc ebp
0000CDCC  45                inc ebp
0000CDCD  3137              xor [edi],esi
0000CDCF  5F                pop edi
0000CDD0  4D                dec ebp
0000CDD1  5F                pop edi
0000CDD2  637265            arpl [edx+0x65],si
0000CDD5  61                popa
0000CDD6  7465              jz 0xce3d
0000CDD8  5F                pop edi
0000CDD9  7374              jnc 0xce4f
0000CDDB  6F                outsd
0000CDDC  7261              jc 0xce3f
0000CDDE  676545            gs a16 inc ebp
0000CDE1  6A00              push byte +0x0
0000CDE3  5F                pop edi
0000CDE4  5A                pop edx
0000CDE5  4E                dec esi
0000CDE6  53                push ebx
0000CDE7  61                popa
0000CDE8  49                dec ecx
0000CDE9  69454431457600    imul eax,[ebp+0x44],dword 0x764531
0000CDF0  5F                pop edi
0000CDF1  5A                pop edx
0000CDF2  4E                dec esi
0000CDF3  4B                dec ebx
0000CDF4  395F5F            cmp [edi+0x5f],ebx
0000CDF7  676E              a16 outsb
0000CDF9  755F              jnz 0xce5a
0000CDFB  637878            arpl [eax+0x78],di
0000CDFE  3133              xor [ebx],esi
0000CE00  6E                outsb
0000CE01  65775F            gs ja 0xce63
0000CE04  61                popa
0000CE05  6C                insb
0000CE06  6C                insb
0000CE07  6F                outsd
0000CE08  636174            arpl [ecx+0x74],sp
0000CE0B  6F                outsd
0000CE0C  7249              jc 0xce57
0000CE0E  6945386D61785F    imul eax,[ebp+0x38],dword 0x5f78616d
0000CE15  7369              jnc 0xce80
0000CE17  7A65              jpe 0xce7e
0000CE19  45                inc ebp
0000CE1A  7600              jna 0xce1c
0000CE1C  5F                pop edi
0000CE1D  5A                pop edx
0000CE1E  4E                dec esi
0000CE1F  4B                dec ebx
0000CE20  53                push ebx
0000CE21  7436              jz 0xce59
0000CE23  7665              jna 0xce8a
0000CE25  63746F72          arpl [edi+ebp*2+0x72],si
0000CE29  49                dec ecx
0000CE2A  69536149694545    imul edx,[ebx+0x61],dword 0x45456949
0000CE31  3562656769        xor eax,0x69676562
0000CE36  6E                outsb
0000CE37  45                inc ebp
0000CE38  7600              jna 0xce3a
0000CE3A  5F                pop edi
0000CE3B  5A                pop edx
0000CE3C  4E                dec esi
0000CE3D  395F5F            cmp [edi+0x5f],ebx
0000CE40  676E              a16 outsb
0000CE42  755F              jnz 0xcea3
0000CE44  637878            arpl [eax+0x78],di
0000CE47  31345F            xor [edi+ebx*2],esi
0000CE4A  5F                pop edi
0000CE4B  61                popa
0000CE4C  6C                insb
0000CE4D  6C                insb
0000CE4E  6F                outsd
0000CE4F  635F74            arpl [edi+0x74],bx
0000CE52  7261              jc 0xceb5
0000CE54  6974734953614953  imul esi,[ebx+esi*2+0x49],dword 0x53496153
0000CE5C  7434              jz 0xce92
0000CE5E  7061              jo 0xcec1
0000CE60  69724963694545    imul esi,[edx+0x49],dword 0x45456963
0000CE67  45                inc ebp
0000CE68  37                aaa
0000CE69  64657374          gs jnc 0xcee1
0000CE6D  726F              jc 0xcede
0000CE6F  7945              jns 0xceb6
0000CE71  52                push edx
0000CE72  53                push ebx
0000CE73  335F50            xor ebx,[edi+0x50]
0000CE76  53                push ebx
0000CE77  325F00            xor bl,[edi+0x0]
0000CE7A  5F                pop edi
0000CE7B  5A                pop edx
0000CE7C  4E                dec esi
0000CE7D  53                push ebx
0000CE7E  7431              jz 0xceb1
0000CE80  325F56            xor bl,[edi+0x56]
0000CE83  6563746F72        arpl [gs:edi+ebp*2+0x72],si
0000CE88  5F                pop edi
0000CE89  626173            bound esp,[ecx+0x73]
0000CE8C  6549              gs dec ecx
0000CE8E  53                push ebx
0000CE8F  7436              jz 0xcec7
0000CE91  7665              jna 0xcef8
0000CE93  63746F72          arpl [edi+ebp*2+0x72],si
0000CE97  49                dec ecx
0000CE98  53                push ebx
0000CE99  7434              jz 0xcecf
0000CE9B  7061              jo 0xcefe
0000CE9D  69724963694553    imul esi,[edx+0x49],dword 0x53456963
0000CEA4  61                popa
0000CEA5  49                dec ecx
0000CEA6  53                push ebx
0000CEA7  325F45            xor bl,[edi+0x45]
0000CEAA  45                inc ebp
0000CEAB  53                push ebx
0000CEAC  61                popa
0000CEAD  49                dec ecx
0000CEAE  53                push ebx
0000CEAF  345F              xor al,0x5f
0000CEB1  45                inc ebp
0000CEB2  45                inc ebp
0000CEB3  3131              xor [ecx],esi
0000CEB5  5F                pop edi
0000CEB6  4D                dec ebp
0000CEB7  5F                pop edi
0000CEB8  61                popa
0000CEB9  6C                insb
0000CEBA  6C                insb
0000CEBB  6F                outsd
0000CEBC  636174            arpl [ecx+0x74],sp
0000CEBF  6545              gs inc ebp
0000CEC1  6A00              push byte +0x0
0000CEC3  5F                pop edi
0000CEC4  5A                pop edx
0000CEC5  4E                dec esi
0000CEC6  53                push ebx
0000CEC7  7431              jz 0xcefa
0000CEC9  325F56            xor bl,[edi+0x56]
0000CECC  6563746F72        arpl [gs:edi+ebp*2+0x72],si
0000CED1  5F                pop edi
0000CED2  626173            bound esp,[ecx+0x73]
0000CED5  6549              gs dec ecx
0000CED7  53                push ebx
0000CED8  7436              jz 0xcf10
0000CEDA  7665              jna 0xcf41
0000CEDC  63746F72          arpl [edi+ebp*2+0x72],si
0000CEE0  49                dec ecx
0000CEE1  69536149694545    imul edx,[ebx+0x61],dword 0x45456949
0000CEE8  53                push ebx
0000CEE9  61                popa
0000CEEA  49                dec ecx
0000CEEB  53                push ebx
0000CEEC  325F45            xor bl,[edi+0x45]
0000CEEF  45                inc ebp
0000CEF0  3132              xor [edx],esi
0000CEF2  5F                pop edi
0000CEF3  56                push esi
0000CEF4  6563746F72        arpl [gs:edi+ebp*2+0x72],si
0000CEF9  5F                pop edi
0000CEFA  696D706C433245    imul ebp,[ebp+0x70],dword 0x4532436c
0000CF01  52                push edx
0000CF02  4B                dec ebx
0000CF03  53                push ebx
0000CF04  335F00            xor ebx,[edi+0x0]
0000CF07  5F                pop edi
0000CF08  55                push ebp
0000CF09  6E                outsb
0000CF0A  7769              ja 0xcf75
0000CF0C  6E                outsb
0000CF0D  645F              fs pop edi
0000CF0F  52                push edx
0000CF10  657375            gs jnc 0xcf88
0000CF13  6D                insd
0000CF14  6540              gs inc eax
0000CF16  40                inc eax
0000CF17  47                inc edi
0000CF18  43                inc ebx
0000CF19  43                inc ebx
0000CF1A  5F                pop edi
0000CF1B  332E              xor ebp,[esi]
0000CF1D  3000              xor [eax],al
0000CF1F  5F                pop edi
0000CF20  5A                pop edx
0000CF21  4E                dec esi
0000CF22  53                push ebx
0000CF23  7431              jz 0xcf56
0000CF25  325F56            xor bl,[edi+0x56]
0000CF28  6563746F72        arpl [gs:edi+ebp*2+0x72],si
0000CF2D  5F                pop edi
0000CF2E  626173            bound esp,[ecx+0x73]
0000CF31  6549              gs dec ecx
0000CF33  53                push ebx
0000CF34  7434              jz 0xcf6a
0000CF36  7061              jo 0xcf99
0000CF38  69724963694553    imul esi,[edx+0x49],dword 0x53456963
0000CF3F  61                popa
0000CF40  49                dec ecx
0000CF41  53                push ebx
0000CF42  315F45            xor [edi+0x45],ebx
0000CF45  45                inc ebp
0000CF46  3137              xor [edi],esi
0000CF48  5F                pop edi
0000CF49  4D                dec ebp
0000CF4A  5F                pop edi
0000CF4B  637265            arpl [edx+0x65],si
0000CF4E  61                popa
0000CF4F  7465              jz 0xcfb6
0000CF51  5F                pop edi
0000CF52  7374              jnc 0xcfc8
0000CF54  6F                outsd
0000CF55  7261              jc 0xcfb8
0000CF57  676545            gs a16 inc ebp
0000CF5A  6A00              push byte +0x0
0000CF5C  5F                pop edi
0000CF5D  5A                pop edx
0000CF5E  53                push ebx
0000CF5F  7434              jz 0xcf95
0000CF61  7377              jnc 0xcfda
0000CF63  61                popa
0000CF64  7049              jo 0xcfaf
0000CF66  69457652545F53    imul eax,[ebp+0x76],dword 0x535f5452
0000CF6D  315F00            xor [edi+0x0],ebx
0000CF70  5F                pop edi
0000CF71  5A                pop edx
0000CF72  4E                dec esi
0000CF73  53                push ebx
0000CF74  7431              jz 0xcfa7
0000CF76  325F56            xor bl,[edi+0x56]
0000CF79  6563746F72        arpl [gs:edi+ebp*2+0x72],si
0000CF7E  5F                pop edi
0000CF7F  626173            bound esp,[ecx+0x73]
0000CF82  6549              gs dec ecx
0000CF84  69536149694545    imul edx,[ebx+0x61],dword 0x45456949
0000CF8B  43                inc ebx
0000CF8C  32456A            xor al,[ebp+0x6a]
0000CF8F  52                push edx
0000CF90  4B                dec ebx
0000CF91  53                push ebx
0000CF92  305F00            xor [edi+0x0],bl
0000CF95  5F                pop edi
0000CF96  5A                pop edx
0000CF97  53                push ebx
0000CF98  7431              jz 0xcfcb
0000CF9A  365F              ss pop edi
0000CF9C  5F                pop edi
0000CF9D  696E74726F736F    imul ebp,[esi+0x74],dword 0x6f736f72
0000CFA4  7274              jc 0xd01a
0000CFA6  5F                pop edi
0000CFA7  6C                insb
0000CFA8  6F                outsd
0000CFA9  6F                outsd
0000CFAA  7049              jo 0xcff5
0000CFAC  4E                dec esi
0000CFAD  395F5F            cmp [edi+0x5f],ebx
0000CFB0  676E              a16 outsb
0000CFB2  755F              jnz 0xd013
0000CFB4  637878            arpl [eax+0x78],di
0000CFB7  3137              xor [edi],esi
0000CFB9  5F                pop edi
0000CFBA  5F                pop edi
0000CFBB  6E                outsb
0000CFBC  6F                outsd
0000CFBD  726D              jc 0xd02c
0000CFBF  61                popa
0000CFC0  6C                insb
0000CFC1  5F                pop edi
0000CFC2  6974657261746F72  imul esi,[ebp+0x72],dword 0x726f7461
0000CFCA  49                dec ecx
0000CFCB  50                push eax
0000CFCC  69537436766563    imul edx,[ebx+0x74],dword 0x63657636
0000CFD3  746F              jz 0xd044
0000CFD5  7249              jc 0xd020
0000CFD7  69536149694545    imul edx,[ebx+0x61],dword 0x45456949
0000CFDE  45                inc ebp
0000CFDF  45                inc ebp
0000CFE0  694576545F5337    imul eax,[ebp+0x76],dword 0x37535f54
0000CFE7  5F                pop edi
0000CFE8  54                push esp
0000CFE9  305F00            xor [edi+0x0],bl
0000CFEC  5F                pop edi
0000CFED  5A                pop edx
0000CFEE  4E                dec esi
0000CFEF  53                push ebx
0000CFF0  7436              jz 0xd028
0000CFF2  7665              jna 0xd059
0000CFF4  63746F72          arpl [edi+ebp*2+0x72],si
0000CFF8  49                dec ecx
0000CFF9  53                push ebx
0000CFFA  7434              jz 0xd030
0000CFFC  7061              jo 0xd05f
0000CFFE  69724963694553    imul esi,[edx+0x49],dword 0x53456963
0000D005  61                popa
0000D006  49                dec ecx
0000D007  53                push ebx
0000D008  315F45            xor [edi+0x45],ebx
0000D00B  45                inc ebp
0000D00C  44                inc esp
0000D00D  314576            xor [ebp+0x76],eax
0000D010  005F5A            add [edi+0x5a],bl
0000D013  4E                dec esi
0000D014  395F5F            cmp [edi+0x5f],ebx
0000D017  676E              a16 outsb
0000D019  755F              jnz 0xd07a
0000D01B  637878            arpl [eax+0x78],di
0000D01E  3137              xor [edi],esi
0000D020  5F                pop edi
0000D021  5F                pop edi
0000D022  6E                outsb
0000D023  6F                outsd
0000D024  726D              jc 0xd093
0000D026  61                popa
0000D027  6C                insb
0000D028  5F                pop edi
0000D029  6974657261746F72  imul esi,[ebp+0x72],dword 0x726f7461
0000D031  49                dec ecx
0000D032  50                push eax
0000D033  4B                dec ebx
0000D034  53                push ebx
0000D035  7434              jz 0xd06b
0000D037  7061              jo 0xd09a
0000D039  69724963694553    imul esi,[edx+0x49],dword 0x53456963
0000D040  7436              jz 0xd078
0000D042  7665              jna 0xd0a9
0000D044  63746F72          arpl [edi+ebp*2+0x72],si
0000D048  49                dec ecx
0000D049  53                push ebx
0000D04A  325F53            xor bl,[edi+0x53]
0000D04D  61                popa
0000D04E  49                dec ecx
0000D04F  53                push ebx
0000D050  325F45            xor bl,[edi+0x45]
0000D053  45                inc ebp
0000D054  45                inc ebp
0000D055  7070              jo 0xd0c7
0000D057  45                inc ebp
0000D058  7600              jna 0xd05a
0000D05A  5F                pop edi
0000D05B  5A                pop edx
0000D05C  4E                dec esi
0000D05D  53                push ebx
0000D05E  61                popa
0000D05F  49                dec ecx
0000D060  53                push ebx
0000D061  7436              jz 0xd099
0000D063  7665              jna 0xd0ca
0000D065  63746F72          arpl [edi+ebp*2+0x72],si
0000D069  49                dec ecx
0000D06A  69536149694545    imul edx,[ebx+0x61],dword 0x45456949
0000D071  45                inc ebp
0000D072  44                inc esp
0000D073  324576            xor al,[ebp+0x76]
0000D076  005F5A            add [edi+0x5a],bl
0000D079  4E                dec esi
0000D07A  395F5F            cmp [edi+0x5f],ebx
0000D07D  676E              a16 outsb
0000D07F  755F              jnz 0xd0e0
0000D081  637878            arpl [eax+0x78],di
0000D084  3133              xor [ebx],esi
0000D086  6E                outsb
0000D087  65775F            gs ja 0xd0e9
0000D08A  61                popa
0000D08B  6C                insb
0000D08C  6C                insb
0000D08D  6F                outsd
0000D08E  636174            arpl [ecx+0x74],sp
0000D091  6F                outsd
0000D092  7249              jc 0xd0dd
0000D094  53                push ebx
0000D095  7434              jz 0xd0cb
0000D097  7061              jo 0xd0fa
0000D099  69724963694545    imul esi,[edx+0x49],dword 0x45456963
0000D0A0  44                inc esp
0000D0A1  324576            xor al,[ebp+0x76]
0000D0A4  005F5A            add [edi+0x5a],bl
0000D0A7  53                push ebx
0000D0A8  7434              jz 0xd0de
0000D0AA  636F70            arpl [edi+0x70],bp
0000D0AD  7949              jns 0xd0f8
0000D0AF  4E                dec esi
0000D0B0  395F5F            cmp [edi+0x5f],ebx
0000D0B3  676E              a16 outsb
0000D0B5  755F              jnz 0xd116
0000D0B7  637878            arpl [eax+0x78],di
0000D0BA  3137              xor [edi],esi
0000D0BC  5F                pop edi
0000D0BD  5F                pop edi
0000D0BE  6E                outsb
0000D0BF  6F                outsd
0000D0C0  726D              jc 0xd12f
0000D0C2  61                popa
0000D0C3  6C                insb
0000D0C4  5F                pop edi
0000D0C5  6974657261746F72  imul esi,[ebp+0x72],dword 0x726f7461
0000D0CD  49                dec ecx
0000D0CE  50                push eax
0000D0CF  4B                dec ebx
0000D0D0  69537436766563    imul edx,[ebx+0x74],dword 0x63657636
0000D0D7  746F              jz 0xd148
0000D0D9  7249              jc 0xd124
0000D0DB  69536149694545    imul edx,[ebx+0x61],dword 0x45456949
0000D0E2  45                inc ebp
0000D0E3  45                inc ebp
0000D0E4  50                push eax
0000D0E5  694554305F545F    imul eax,[ebp+0x54],dword 0x5f545f30
0000D0EC  53                push ebx
0000D0ED  41                inc ecx
0000D0EE  5F                pop edi
0000D0EF  53                push ebx
0000D0F0  395F00            cmp [edi+0x0],ebx
0000D0F3  5F                pop edi
0000D0F4  5A                pop edx
0000D0F5  4E                dec esi
0000D0F6  53                push ebx
0000D0F7  7436              jz 0xd12f
0000D0F9  7665              jna 0xd160
0000D0FB  63746F72          arpl [edi+ebp*2+0x72],si
0000D0FF  49                dec ecx
0000D100  53                push ebx
0000D101  7434              jz 0xd137
0000D103  7061              jo 0xd166
0000D105  69724963694553    imul esi,[edx+0x49],dword 0x53456963
0000D10C  61                popa
0000D10D  49                dec ecx
0000D10E  53                push ebx
0000D10F  315F45            xor [edi+0x45],ebx
0000D112  45                inc ebp
0000D113  43                inc ebx
0000D114  314576            xor [ebp+0x76],eax
0000D117  005F5A            add [edi+0x5a],bl
0000D11A  4E                dec esi
0000D11B  53                push ebx
0000D11C  7431              jz 0xd14f
0000D11E  325F56            xor bl,[edi+0x56]
0000D121  6563746F72        arpl [gs:edi+ebp*2+0x72],si
0000D126  5F                pop edi
0000D127  626173            bound esp,[ecx+0x73]
0000D12A  6549              gs dec ecx
0000D12C  53                push ebx
0000D12D  7436              jz 0xd165
0000D12F  7665              jna 0xd196
0000D131  63746F72          arpl [edi+ebp*2+0x72],si
0000D135  49                dec ecx
0000D136  69536149694545    imul edx,[ebx+0x61],dword 0x45456949
0000D13D  53                push ebx
0000D13E  61                popa
0000D13F  49                dec ecx
0000D140  53                push ebx
0000D141  325F45            xor bl,[edi+0x45]
0000D144  45                inc ebp
0000D145  3133              xor [ebx],esi
0000D147  5F                pop edi
0000D148  4D                dec ebp
0000D149  5F                pop edi
0000D14A  646561            gs popa
0000D14D  6C                insb
0000D14E  6C                insb
0000D14F  6F                outsd
0000D150  636174            arpl [ecx+0x74],sp
0000D153  6545              gs inc ebp
0000D155  50                push eax
0000D156  53                push ebx
0000D157  325F6A            xor bl,[edi+0x6a]
0000D15A  005F5A            add [edi+0x5a],bl
0000D15D  4E                dec esi
0000D15E  395F5F            cmp [edi+0x5f],ebx
0000D161  676E              a16 outsb
0000D163  755F              jnz 0xd1c4
0000D165  637878            arpl [eax+0x78],di
0000D168  6E                outsb
0000D169  6549              gs dec ecx
0000D16B  50                push eax
0000D16C  69537436766563    imul edx,[ebx+0x74],dword 0x63657636
0000D173  746F              jz 0xd1e4
0000D175  7249              jc 0xd1c0
0000D177  69536149694545    imul edx,[ebx+0x61],dword 0x45456949
0000D17E  45                inc ebp
0000D17F  45                inc ebp
0000D180  62524B            bound edx,[edx+0x4b]
0000D183  4E                dec esi
0000D184  53                push ebx
0000D185  5F                pop edi
0000D186  3137              xor [edi],esi
0000D188  5F                pop edi
0000D189  5F                pop edi
0000D18A  6E                outsb
0000D18B  6F                outsd
0000D18C  726D              jc 0xd1fb
0000D18E  61                popa
0000D18F  6C                insb
0000D190  5F                pop edi
0000D191  6974657261746F72  imul esi,[ebp+0x72],dword 0x726f7461
0000D199  49                dec ecx
0000D19A  54                push esp
0000D19B  5F                pop edi
0000D19C  54                push esp
0000D19D  305F45            xor [edi+0x45],bl
0000D1A0  45                inc ebp
0000D1A1  53                push ebx
0000D1A2  41                inc ecx
0000D1A3  5F                pop edi
0000D1A4  005F5F            add [edi+0x5f],bl
0000D1A7  693638362E67      imul esi,[esi],dword 0x672e3638
0000D1AD  65745F            gs jz 0xd20f
0000D1B0  7063              jo 0xd215
0000D1B2  5F                pop edi
0000D1B3  7468              jz 0xd21d
0000D1B5  756E              jnz 0xd225
0000D1B7  6B2E62            imul ebp,[esi],byte +0x62
0000D1BA  7800              js 0xd1bc
0000D1BC  5F                pop edi
0000D1BD  5A                pop edx
0000D1BE  53                push ebx
0000D1BF  7431              jz 0xd1f2
0000D1C1  33636F            xor esp,[ebx+0x6f]
0000D1C4  7079              jo 0xd23f
0000D1C6  5F                pop edi
0000D1C7  626163            bound esp,[ecx+0x63]
0000D1CA  6B776172          imul esi,[edi+0x61],byte +0x72
0000D1CE  6449              fs dec ecx
0000D1D0  50                push eax
0000D1D1  53                push ebx
0000D1D2  7434              jz 0xd208
0000D1D4  7061              jo 0xd237
0000D1D6  69724963694553    imul esi,[edx+0x49],dword 0x53456963
0000D1DD  325F45            xor bl,[edi+0x45]
0000D1E0  54                push esp
0000D1E1  305F54            xor [edi+0x54],bl
0000D1E4  5F                pop edi
0000D1E5  53                push ebx
0000D1E6  345F              xor al,0x5f
0000D1E8  53                push ebx
0000D1E9  335F00            xor ebx,[edi+0x0]
0000D1EC  5F                pop edi
0000D1ED  5A                pop edx
0000D1EE  53                push ebx
0000D1EF  7431              jz 0xd222
0000D1F1  325F5F            xor bl,[edi+0x5f]
0000D1F4  6E                outsb
0000D1F5  697465725F626173  imul esi,[ebp+0x72],dword 0x7361625f
0000D1FD  6549              gs dec ecx
0000D1FF  50                push eax
0000D200  69454E53743131    imul eax,[ebp+0x4e],dword 0x31317453
0000D207  5F                pop edi
0000D208  4E                dec esi
0000D209  697465725F626173  imul esi,[ebp+0x72],dword 0x7361625f
0000D211  6549              gs dec ecx
0000D213  54                push esp
0000D214  5F                pop edi
0000D215  45                inc ebp
0000D216  3133              xor [ebx],esi
0000D218  6974657261746F72  imul esi,[ebp+0x72],dword 0x726f7461
0000D220  5F                pop edi
0000D221  7479              jz 0xd29c
0000D223  7065              jo 0xd28a
0000D225  45                inc ebp
0000D226  53                push ebx
0000D227  325F00            xor bl,[edi+0x0]
0000D22A  6D                insd
0000D22B  61                popa
0000D22C  696E005F696E69    imul ebp,[esi+0x0],dword 0x696e695f
0000D233  7400              jz 0xd235
0000D235  5F                pop edi
0000D236  5A                pop edx
0000D237  4E                dec esi
0000D238  395F5F            cmp [edi+0x5f],ebx
0000D23B  676E              a16 outsb
0000D23D  755F              jnz 0xd29e
0000D23F  637878            arpl [eax+0x78],di
0000D242  3133              xor [ebx],esi
0000D244  6E                outsb
0000D245  65775F            gs ja 0xd2a7
0000D248  61                popa
0000D249  6C                insb
0000D24A  6C                insb
0000D24B  6F                outsd
0000D24C  636174            arpl [ecx+0x74],sp
0000D24F  6F                outsd
0000D250  7249              jc 0xd29b
0000D252  69454332457600    imul eax,[ebp+0x43],dword 0x764532
0000D259  5F                pop edi
0000D25A  5A                pop edx
0000D25B  4E                dec esi
0000D25C  53                push ebx
0000D25D  7432              jz 0xd291
0000D25F  305F5F            xor [edi+0x5f],bl
0000D262  636F70            arpl [edi+0x70],bp
0000D265  795F              jns 0xd2c6
0000D267  6D                insd
0000D268  6F                outsd
0000D269  7665              jna 0xd2d0
0000D26B  5F                pop edi
0000D26C  626163            bound esp,[ecx+0x63]
0000D26F  6B776172          imul esi,[edi+0x61],byte +0x72
0000D273  6449              fs dec ecx
0000D275  4C                dec esp
0000D276  6230              bound esi,[eax]
0000D278  45                inc ebp
0000D279  4C                dec esp
0000D27A  6230              bound esi,[eax]
0000D27C  45                inc ebp
0000D27D  53                push ebx
0000D27E  7432              jz 0xd2b2
0000D280  367261            ss jc 0xd2e4
0000D283  6E                outsb
0000D284  646F              fs outsd
0000D286  6D                insd
0000D287  5F                pop edi
0000D288  61                popa
0000D289  636365            arpl [ebx+0x65],sp
0000D28C  7373              jnc 0xd301
0000D28E  5F                pop edi
0000D28F  6974657261746F72  imul esi,[ebp+0x72],dword 0x726f7461
0000D297  5F                pop edi
0000D298  7461              jz 0xd2fb
0000D29A  6745              a16 inc ebp
0000D29C  3133              xor [ebx],esi
0000D29E  5F                pop edi
0000D29F  5F                pop edi
0000D2A0  636F70            arpl [edi+0x70],bp
0000D2A3  795F              jns 0xd304
0000D2A5  6D                insd
0000D2A6  6F                outsd
0000D2A7  7665              jna 0xd30e
0000D2A9  5F                pop edi
0000D2AA  624950            bound ecx,[ecx+0x50]
0000D2AD  53                push ebx
0000D2AE  7434              jz 0xd2e4
0000D2B0  7061              jo 0xd313
0000D2B2  69724963694553    imul esi,[edx+0x49],dword 0x53456963
0000D2B9  355F454554        xor eax,0x5445455f
0000D2BE  305F54            xor [edi+0x54],bl
0000D2C1  5F                pop edi
0000D2C2  53                push ebx
0000D2C3  37                aaa
0000D2C4  5F                pop edi
0000D2C5  53                push ebx
0000D2C6  365F              ss pop edi
0000D2C8  005F5A            add [edi+0x5a],bl
0000D2CB  4E                dec esi
0000D2CC  53                push ebx
0000D2CD  7436              jz 0xd305
0000D2CF  7665              jna 0xd336
0000D2D1  63746F72          arpl [edi+ebp*2+0x72],si
0000D2D5  49                dec ecx
0000D2D6  53                push ebx
0000D2D7  5F                pop edi
0000D2D8  49                dec ecx
0000D2D9  53                push ebx
0000D2DA  7434              jz 0xd310
0000D2DC  7061              jo 0xd33f
0000D2DE  69724963694553    imul esi,[edx+0x49],dword 0x53456963
0000D2E5  61                popa
0000D2E6  49                dec ecx
0000D2E7  53                push ebx
0000D2E8  315F45            xor [edi+0x45],ebx
0000D2EB  45                inc ebp
0000D2EC  53                push ebx
0000D2ED  61                popa
0000D2EE  49                dec ecx
0000D2EF  53                push ebx
0000D2F0  335F45            xor ebx,[edi+0x45]
0000D2F3  45                inc ebp
0000D2F4  44                inc esp
0000D2F5  314576            xor [ebp+0x76],eax
0000D2F8  005F5A            add [edi+0x5a],bl
0000D2FB  4E                dec esi
0000D2FC  395F5F            cmp [edi+0x5f],ebx
0000D2FF  676E              a16 outsb
0000D301  755F              jnz 0xd362
0000D303  637878            arpl [eax+0x78],di
0000D306  6D                insd
0000D307  69495069537436    imul ecx,[ecx+0x50],dword 0x36745369
0000D30E  7665              jna 0xd375
0000D310  63746F72          arpl [edi+ebp*2+0x72],si
0000D314  49                dec ecx
0000D315  69536149694545    imul edx,[ebx+0x61],dword 0x45456949
0000D31C  45                inc ebp
0000D31D  45                inc ebp
0000D31E  4E                dec esi
0000D31F  53                push ebx
0000D320  5F                pop edi
0000D321  3137              xor [edi],esi
0000D323  5F                pop edi
0000D324  5F                pop edi
0000D325  6E                outsb
0000D326  6F                outsd
0000D327  726D              jc 0xd396
0000D329  61                popa
0000D32A  6C                insb
0000D32B  5F                pop edi
0000D32C  6974657261746F72  imul esi,[ebp+0x72],dword 0x726f7461
0000D334  49                dec ecx
0000D335  54                push esp
0000D336  5F                pop edi
0000D337  54                push esp
0000D338  305F45            xor [edi+0x45],bl
0000D33B  313564696666      xor [0x66666964],esi
0000D341  657265            gs jc 0xd3a9
0000D344  6E                outsb
0000D345  63655F            arpl [ebp+0x5f],sp
0000D348  7479              jz 0xd3c3
0000D34A  7065              jo 0xd3b1
0000D34C  45                inc ebp
0000D34D  52                push edx
0000D34E  4B                dec ebx
0000D34F  53                push ebx
0000D350  385F53            cmp [edi+0x53],bl
0000D353  42                inc edx
0000D354  5F                pop edi
0000D355  005F5A            add [edi+0x5a],bl
0000D358  4E                dec esi
0000D359  53                push ebx
0000D35A  7436              jz 0xd392
0000D35C  7665              jna 0xd3c3
0000D35E  63746F72          arpl [edi+ebp*2+0x72],si
0000D362  49                dec ecx
0000D363  69536149694545    imul edx,[ebx+0x61],dword 0x45456949
0000D36A  3138              xor [eax],edi
0000D36C  5F                pop edi
0000D36D  4D                dec ebp
0000D36E  5F                pop edi
0000D36F  66696C6C5F696E    imul bp,[esp+ebp*2+0x5f],word 0x6e69
0000D376  697469616C697A65  imul esi,[ecx+ebp*2+0x61],dword 0x657a696c
0000D37E  45                inc ebp
0000D37F  6A52              push byte +0x52
0000D381  4B                dec ebx
0000D382  69                db 0x69
0000D383  00                db 0x00
